            ;-- AFS_FILER:
            0x005bda60      .byte 0x00
            0x005bda61      .byte 0x00
            0x005bda62      .byte 0x00
            0x005bda63      .byte 0x00
            0x005bda64      .byte 0x00
            0x005bda65      .byte 0x00
            0x005bda66      .byte 0x00
            0x005bda67      .byte 0x00
            0x005bda68      .byte 0x00
            0x005bda69      .byte 0x00
            0x005bda6a      .byte 0x00
            0x005bda6b      .byte 0x80
            0x005bda6c      .byte 0xf5
            0x005bda6d      .byte 0x00
            0x005bda6e      .byte 0x00
            0x005bda6f      .byte 0x00
            0x005bda70      .byte 0x00
            0x005bda71      .byte 0x80
            0x005bda72      .byte 0xf5
            0x005bda73      .byte 0x00
            0x005bda74      .byte 0x00
            0x005bda75      .byte 0x00
            0x005bda76      .byte 0x01
            0x005bda77      .byte 0x80
            0x005bda78      .byte 0xf5
            0x005bda79      .byte 0x00
            0x005bda7a      .byte 0x00
            0x005bda7b      .byte 0x00
            0x005bda7c      .byte 0xff
            0x005bda7d      .byte 0xff
            0x005bda7e      .byte 0xff
            0x005bda7f      .byte 0xff
            0x005bda80      .byte 0xff
            0x005bda81      .byte 0xff
            0x005bda82      .byte 0xff
            0x005bda83      .byte 0xff
            0x005bda84      .byte 0x10
            0x005bda85      .byte 0x00
            0x005bda86      .byte 0x00
            0x005bda87      .byte 0x00
            0x005bda88      .byte 0x00
            0x005bda89      .byte 0x00
            0x005bda8a      .byte 0x00
            0x005bda8b      .byte 0x00
            0x005bda8c      .byte 0x01
            0x005bda8d      .byte 0x00
            0x005bda8e      .byte 0x00
            0x005bda8f      .byte 0x00
            0x005bda90      .byte 0x00
            0x005bda91      .byte 0x00
            0x005bda92      .byte 0x07
            0x005bda93     .string "DEFAULT" ; len=7
            0x005bda9a      .byte 0xff
            0x005bda9b      .byte 0xff
            0x005bda9c      .byte 0xff
            0x005bda9d      .byte 0xfd
            0x005bda9e      .byte 0x00
            0x005bda9f      .byte 0x00
            0x005bdaa0      .byte 0x00
            0x005bdaa1      .byte 0x00
            0x005bdaa2      .byte 0x00
            0x005bdaa3      .byte 0x00
            0x005bdaa4      .byte 0x00
            0x005bdaa5      .byte 0x00
            0x005bdaa6      .byte 0x00
            0x005bdaa7      .byte 0x00
            0x005bdaa8      .byte 0x00
            0x005bdaa9      .byte 0x00
            0x005bdaaa      .byte 0x00
            0x005bdaab      .byte 0x00
            0x005bdaac      .byte 0x00
            0x005bdaad      .byte 0x00
            0x005bdaae      .byte 0x00
            0x005bdaaf      .byte 0x00
            0x005bdab0      .byte 0x00
            0x005bdab1      .byte 0x00
            0x005bdab2      .byte 0x00
            0x005bdab3      .byte 0x00
            0x005bdab4      .byte 0x3f
            0x005bdab5      .byte 0x80
            0x005bdab6      .byte 0x00
            0x005bdab7      .byte 0x00
            0x005bdab8      .byte 0x3f
            0x005bdab9      .byte 0x80
            0x005bdaba      .byte 0x00
            0x005bdabb      .byte 0x00
            0x005bdabc      .byte 0x00
            0x005bdabd      .byte 0x00
            0x005bdabe      .byte 0x00
            0x005bdabf      .byte 0x00
            0x005bdac0      .byte 0x00
            0x005bdac1      .byte 0x00
            0x005bdac2      .byte 0x00
            0x005bdac3      .byte 0x00
            0x005bdac4      .byte 0x00
            0x005bdac5      .byte 0x00
            0x005bdac6      .byte 0x00
            0x005bdac7      .byte 0x00
            0x005bdac8      .byte 0x00
            0x005bdac9      .byte 0x00
            0x005bdaca      .byte 0x00
            0x005bdacb      .byte 0x00
            0x005bdacc      .byte 0x00
            0x005bdacd      .byte 0x00
            0x005bdace      .byte 0x00
            0x005bdacf      .byte 0x02
            0x005bdad0      .byte 0x00
            0x005bdad1      .byte 0x00
            0x005bdad2      .byte 0x3f
            0x005bdad3      .byte 0x80
            0x005bdad4      .byte 0x00
            0x005bdad5      .byte 0x00
            0x005bdad6      .byte 0x3f
            0x005bdad7      .byte 0x80
            0x005bdad8      .byte 0x00
            0x005bdad9      .byte 0x00
            0x005bdada      .byte 0x00
            0x005bdadb      .byte 0x00
            0x005bdadc      .byte 0x00
            0x005bdadd      .byte 0x00
            0x005bdade      .byte 0x00
            0x005bdadf      .byte 0x00
            0x005bdae0      .byte 0x00
            0x005bdae1      .byte 0x00
            0x005bdae2      .byte 0x3f
            0x005bdae3      .byte 0x80
            0x005bdae4      .byte 0x00
            0x005bdae5      .byte 0x00
            0x005bdae6      .byte 0x3f
            0x005bdae7      .byte 0x80
            0x005bdae8      .byte 0x00
            0x005bdae9      .byte 0x00
            0x005bdaea      .byte 0x00
            0x005bdaeb      .byte 0x00
            0x005bdaec      .byte 0x00
            0x005bdaed      .byte 0x00
            0x005bdaee      .byte 0x00
            0x005bdaef      .byte 0x00
            0x005bdaf0      .byte 0x00
            0x005bdaf1      .byte 0x00
            0x005bdaf2      .byte 0x00
            0x005bdaf3      .byte 0x00
            0x005bdaf4      .byte 0x00
            0x005bdaf5      .byte 0x00
            0x005bdaf6      .byte 0x00
            0x005bdaf7      .byte 0x00
            0x005bdaf8      .byte 0x00
            0x005bdaf9      .byte 0x00
            0x005bdafa      .byte 0x00
            0x005bdafb      .byte 0x00
            0x005bdafc      .byte 0x00
            0x005bdafd      .byte 0x01
            0x005bdafe      .byte 0x00
            0x005bdaff      .byte 0x00
            0x005bdb00      .byte 0x00
            0x005bdb01      .byte 0x00
            0x005bdb02      .byte 0x00
            0x005bdb03      .byte 0x00
            0x005bdb04      .byte 0x00
            0x005bdb05      .byte 0x00
            0x005bdb06      .byte 0x00
            0x005bdb07      .byte 0x00
            0x005bdb08      .byte 0x00
            0x005bdb09      .byte 0x00
            0x005bdb0a      .byte 0x00
            0x005bdb0b      .byte 0x00
            0x005bdb0c      .byte 0x00
            0x005bdb0d      .byte 0x00
            0x005bdb0e      .byte 0x00
            0x005bdb0f      .byte 0x00
            0x005bdb10      .byte 0x02
            0x005bdb11      .byte 0xc7
            0x005bdb12      .byte 0x01
            0x005bdb13      .byte 0xe5
            0x005bdb14      .byte 0x03
            0x005bdb15      .byte 0x00
            0x005bdb16      .byte 0x01
            0x005bdb17      .byte 0xe4
            0x005bdb18      .byte 0x02
            0x005bdb19      .byte 0xbd
            0x005bdb1a      .byte 0x02
            0x005bdb1b     .string "? " ; len=2
            0x005bdb1d      .byte 0x45
            0x005bdb1e     .string ": Invalid search pointer in AFS" ; len=31
            0x005bdb3d      .byte 0x0a
            0x005bdb3e     .string "afs error " ; len=10
            0x005bdb48      .byte 0x18
            0x005bdb49     .string " getting file extension." ; len=24
            0x005bdb61      .byte 0x34
            0x005bdb62     .string "E: (check_file_space) error opening file for extend " ; len=52
            0x005bdb96      .byte 0x08
            0x005bdb97     .string "seek to " ; len=8
            0x005bdb9f      .byte 0x2b
            0x005bdba0     .string "E: (check_file_space) error extending file " ; len=43
            0x005bdbcb      .byte 0x0a
            0x005bdbcc     .string "Seek done." ; len=10
            0x005bdbd6      .byte 0x37
            0x005bdbd7     .string "E: (check_file_space) error writing block to test file " ; len=55
            0x005bdc0e      .byte 0x2d
            0x005bdc0f     .string "E: (check_file_space) error regetting header " ; len=45
            0x005bdc3c      .byte 0x02
            0x005bdc3d      .byte 0x44
            0x005bdc3e      .byte 0x45
            0x005bdc3f      .byte 0x16
            0x005bdc40     .string "AFS_create_file called" ; len=22
            0x005bdc56      .byte 0x02
            0x005bdc57     .string "DE" ; len=2
            0x005bdc59      .byte 0x22
            0x005bdc5a     .string "I: AFS_create_file called. volume " ; len=34
            0x005bdc7c      .byte 0x09
            0x005bdc7d     .string " planes, " ; len=9
            0x005bdc86      .byte 0x0d
            0x005bdc87     .string " extra bytes." ; len=13
            0x005bdc94      .byte 0x09
            0x005bdc95     .string "Allocate " ; len=9
            0x005bdc9e      .byte 0x09
            0x005bdc9f     .string " blocks. " ; len=9
            0x005bdca8      .byte 0x0b
            0x005bdca9     .string " per plane." ; len=11
            0x005bdcb4      .byte 0x0a
            0x005bdcb5     .string "File type " ; len=10
            0x005bdcbf      .byte 0x1a
            0x005bdcc0     .string " not allowed by afs_filer." ; len=26
            0x005bdcda      .byte 0x02
            0x005bdcdb     .string "ND" ; len=2
            0x005bdcdd      .byte 0x23
            0x005bdcde     .string "E: (afs_create_file) creating file " ; len=35
            0x005bdd01      .byte 0x17
            0x005bdd02     .string "I: Created file. FID: (" ; len=23
            0x005bdd19      .byte 0x04
            0x005bdd1a      .byte 0x29
            0x005bdd1b      .byte 0x20
            0x005bdd1c      .byte 0x3a
            0x005bdd1d      .byte 0x20
            0x005bdd1e      .byte 0x16
            0x005bdd1f     .string "Failed to check space." ; len=22
            0x005bdd35      .byte 0x00
            0x005bdd36      .byte 0x08
            0x005bdd37      .byte 0x04
            0x005bdd38      .byte 0x00
            0x005bdd39      .byte 0x00
            0x005bdd3a      .byte 0x08
            0x005bdd3b      .byte 0x00
            0x005bdd3c      .byte 0x00
            0x005bdd3d      .byte 0x00
            0x005bdd3e      .byte 0x00
            0x005bdd3f      .byte 0x00
            0x005bdd40      .byte 0x00
            0x005bdd41      .byte 0x00
            0x005bdd42     .string ".E: (afs_create_file) error putting title field2E: (afs_create_file) error putting f picspec field7E: (afs_create_file) error putting nplanes/extras fieldBW: (afs_create_file) error setting ftype num. May be incompatible.9E: (afs_create_file) error puttin" ; len=331
            0x005bde8d      .byte 0x02
            0x005bde8e      .byte 0x4f
            0x005bde8f      .byte 0x4b
            0x005bde90      .byte 0x1a
            0x005bde91     .string "Error in afs_create_file. " ; len=26
            0x005bdeab      .byte 0x2d
            0x005bdeac     .string "E: (afs_create_file) error deleting bad file " ; len=45
            0x005bded9      .byte 0x10
            0x005bdeda     .string "AFS_create_file " ; len=16
            0x005bdeea      .byte 0x06
            0x005bdeeb     .string " took " ; len=6
            0x005bdef1      .byte 0x19
            0x005bdef2     .string "AFS_start_search called: " ; len=25
            0x005bdf0b      .byte 0x0a
            0x005bdf0c     .string "On volume " ; len=10
            0x005bdf16      .byte 0x0c
            0x005bdf17     .string "Search for '" ; len=12
            0x005bdf23      .byte 0x02
            0x005bdf24      .byte 0x4f
            0x005bdf25      .byte 0x4b
            0x005bdf26      .byte 0x02
            0x005bdf27      .byte 0x44
            0x005bdf28      .byte 0x45
            0x005bdf29      .byte 0x16
            0x005bdf2a     .string "afs_linear_search: lo " ; len=22
            0x005bdf40      .byte 0x05
            0x005bdf41     .string ", hi " ; len=5
            0x005bdf46      .byte 0x10
            0x005bdf47     .string ", forward search" ; len=16
            0x005bdf57      .byte 0x11
            0x005bdf58     .string ", backward search" ; len=17
            0x005bdf69      .byte 0x10
            0x005bdf6a     .string "Searching from (" ; len=16
            0x005bdf7a      .byte 0x22
            0x005bdf7b     .string "S: Search complete - no file found" ; len=34
            0x005bdf9d      .byte 0x02
            0x005bdf9e      .byte 0x4e
            0x005bdf9f      .byte 0x46
            0x005bdfa0      .byte 0x0f
            0x005bdfa1     .string "searching files" ; len=15
            0x005bdfb0      .byte 0x28
            0x005bdfb1     .string "File found out of range given to filer: " ; len=40
            0x005bdfd9      .byte 0x0b
            0x005bdfda     .string "Range reqd " ; len=11
            0x005bdfe5      .byte 0x03
            0x005bdfe6      .byte 0x20
            0x005bdfe7      .byte 0x2d
            0x005bdfe8      .byte 0x20
            0x005bdfe9      .byte 0x0b
            0x005bdfea     .string ", returned " ; len=11
            0x005bdff5      .byte 0x0a
            0x005bdff6     .string "I: found (" ; len=10
            0x005be000      .byte 0x03
            0x005be001      .byte 0x29
            0x005be002      .byte 0x3a
            0x005be003      .byte 0x20
            0x005be004      .byte 0x0e
            0x005be005     .string "getting header" ; len=14
            0x005be013      .byte 0x02
            0x005be014      .byte 0x4f
            0x005be015      .byte 0x4b
            0x005be016      .byte 0x00
            0x005be017      .byte 0x00
            0x005be018      .byte 0x00
            0x005be019      .byte 0x00
            0x005be01a      .byte 0x08
            0x005be01b      .byte 0x00
            0x005be01c      .byte 0x40
            0x005be01d      .byte 0x00
            0x005be01e      .byte 0x00
            0x005be01f      .byte 0x00
            0x005be020      .byte 0x00
            0x005be021      .byte 0x00
            0x005be022      .byte 0x0e
            0x005be023     .string "              " ; len=14
            0x005be031      .byte 0x0e
            0x005be032     .string "              " ; len=14
            0x005be040      .byte 0x02
            0x005be041      .byte 0x4f
            0x005be042      .byte 0x4b
            0x005be043      .byte 0x02
            0x005be044      .byte 0x44
            0x005be045      .byte 0x45
            0x005be046      .byte 0x1a
            0x005be047     .string "AFS_find_next_file called " ; len=26
            0x005be061      .byte 0x08
            0x005be062     .string "newmatch" ; len=8
            0x005be06a      .byte 0x08
            0x005be06b     .string "oldmatch" ; len=8
            0x005be073      .byte 0x06
            0x005be074     .string ", fid " ; len=6
            0x005be07a      .byte 0x1c
            0x005be07b     .string "Newmatch with a non-nil fid." ; len=28
            0x005be097      .byte 0x04
            0x005be098      .byte 0x56
            0x005be099      .byte 0x6f
            0x005be09a      .byte 0x6c
            0x005be09b      .byte 0x20
            0x005be09c      .byte 0x00
            0x005be09d      .byte 0x00
            0x005be09e      .byte 0x00
            0x005be09f      .byte 0x00
            0x005be0a0      .byte 0x08
            0x005be0a1      .byte 0x00
            0x005be0a2      .byte 0x40
            0x005be0a3      .byte 0x00
            0x005be0a4      .byte 0x00
            0x005be0a5      .byte 0x00
            0x005be0a6      .byte 0x00
            0x005be0a7      .byte 0x00
            0x005be0a8      .byte 0x17
            0x005be0a9     .string "AFS_end_search called: " ; len=23
            0x005be0c0      .byte 0x02
            0x005be0c1     .string "DE" ; len=2
            0x005be0c3      .byte 0x2e
            0x005be0c4     .string "WARNING - ending search with differing volumes" ; len=46
            0x005be0f2      .byte 0x13
            0x005be0f3     .string "Ending search for '" ; len=19
            0x005be106      .byte 0x02
            0x005be107      .byte 0x4f
            0x005be108      .byte 0x4b
            0x005be109      .byte 0x02
            0x005be10a      .byte 0x44
            0x005be10b      .byte 0x45
            0x005be10c      .byte 0x14
            0x005be10d     .string "AFS_find_file called" ; len=20
            0x005be121      .byte 0x04
            0x005be122     .string "Vol " ; len=4
            0x005be126      .byte 0x22
            0x005be127     .string "? unknown entry type in afs_number" ; len=34
            0x005be149      .byte 0x0c
            0x005be14a     .string "bad filetype" ; len=12
            0x005be156      .byte 0x0b
            0x005be157     .string "AFS_number " ; len=11
            0x005be162      .byte 0x05
            0x005be163     .string " num " ; len=5
            0x005be168      .byte 0x05
            0x005be169     .string " min " ; len=5
            0x005be16e      .byte 0x05
            0x005be16f     .string " max " ; len=5
            0x005be174      .byte 0x07
            0x005be175     .string " check " ; len=7
            0x005be17c      .byte 0x02
            0x005be17d      .byte 0x44
            0x005be17e      .byte 0x45
            0x005be17f      .byte 0x00
            0x005be180      .byte 0x4e
            0x005be181      .byte 0x02
            0x005be182      .byte 0x1c
            0x005be183     .string "bad file type for afs_number" ; len=28
            0x005be19f      .byte 0x0c
            0x005be1a0     .string "bad filetype" ; len=12
            0x005be1ac      .byte 0x02
            0x005be1ad      .byte 0x41
            0x005be1ae      .byte 0x58
            0x005be1af      .byte 0x02
            0x005be1b0      .byte 0x55
            0x005be1b1      .byte 0x4e
            0x005be1b2      .byte 0x02
            0x005be1b3      .byte 0x4f
            0x005be1b4      .byte 0x4b
            0x005be1b5      .byte 0x02
            0x005be1b6      .byte 0x41
            0x005be1b7      .byte 0x58
            0x005be1b8      .byte 0x02
            0x005be1b9      .byte 0x4f
            0x005be1ba      .byte 0x4b
            0x005be1bb      .byte 0x02
            0x005be1bc      .byte 0x4f
            0x005be1bd      .byte 0x4b
            0x005be1be      .byte 0x02
            0x005be1bf      .byte 0x41
            0x005be1c0      .byte 0x58
            0x005be1c1      .byte 0x02
            0x005be1c2      .byte 0x4f
            0x005be1c3      .byte 0x4b
            0x005be1c4      .byte 0x02
            0x005be1c5      .byte 0x41
            0x005be1c6      .byte 0x58
            0x005be1c7      .byte 0x15
            0x005be1c8     .string "failed to number pic " ; len=21
            0x005be1dd      .byte 0x15
            0x005be1de     .string "? failed to unnumber " ; len=21
            0x005be1f3      .byte 0x28
            0x005be1f4     .string " after failing to write number to header" ; len=40
            0x005be21c      .byte 0x02
            0x005be21d      .byte 0x4f
            0x005be21e      .byte 0x4b
            0x005be21f      .byte 0x02
            0x005be220      .byte 0x55
            0x005be221      .byte 0x4e
            0x005be222      .byte 0x09
            0x005be223     .string "used num " ; len=9
            0x005be22c      .byte 0x14
            0x005be22d     .string "!!afs number failed " ; len=20
            0x005be241      .byte 0x16
            0x005be242     .string "AFS_get_number called " ; len=22
            0x005be258      .byte 0x02
            0x005be259      .byte 0x44
            0x005be25a      .byte 0x45
            0x005be25b      .byte 0x02
            0x005be25c     .string "OK" ; len=2
            0x005be25e      .byte 0x2b
            0x005be25f     .string "E: Failed to put default nplanes/extrabytes" ; len=43
            0x005be28a      .byte 0x2b
            0x005be28b     .string "E: Failed to put default nplanes/extrabytes" ; len=43
            0x005be2b6      .byte 0x10
            0x005be2b7     .string "Enlarge_section " ; len=16
            0x005be2c7      .byte 0x05
            0x005be2c8     .string ", of " ; len=5
            0x005be2cd      .byte 0x30
            0x005be2ce     .string "(enlarge_section) Error during fs_section_size. " ; len=48
            0x005be2fe      .byte 0x0d
            0x005be2ff     .string "section size " ; len=13
            0x005be30c      .byte 0x05
            0x005be30d     .string ", at " ; len=5
            0x005be312      .byte 0x2b
            0x005be313     .string "Heap full allocating space to shuffle file." ; len=43
            0x005be33e      .byte 0x25
            0x005be33f     .string "(enlarge_section) Error opening file " ; len=37
            0x005be364      .byte 0x2d
            0x005be365     .string "(enlarge_section) Error seeking to block (r) " ; len=45
            0x005be392      .byte 0x26
            0x005be393     .string "(enlarge_section) Error reading file. " ; len=38
            0x005be3b9      .byte 0x31
            0x005be3ba     .string "(enlarge_section) error deallocating file section" ; len=49
            0x005be3eb      .byte 0x2f
            0x005be3ec     .string "(enlarge_section) error allocating file section" ; len=47
            0x005be41b      .byte 0x0c
            0x005be41c     .string "Reallocated " ; len=12
            0x005be428      .byte 0x05
            0x005be429     .string ", at " ; len=5
            0x005be42e      .byte 0x25
            0x005be42f     .string "(enlarge_section) Error opening file " ; len=37
            0x005be454      .byte 0x2d
            0x005be455     .string "(enlarge_section) Error seeking to block (w) " ; len=45
            0x005be482      .byte 0x25
            0x005be483     .string "(enlarge_section) Error writing back " ; len=37
            0x005be4a8      .byte 0x2c
            0x005be4a9     .string "(check_start_pos) Error getting file header " ; len=44
            0x005be4d5      .byte 0x2d
            0x005be4d6     .string "(check_start_pos) Error during fs_file_addr. " ; len=45
            0x005be503      .byte 0x33
            0x005be504     .string "W: (check_start_pos) section too small. reallocate." ; len=51
            0x005be537      .byte 0x2c
            0x005be538     .string "(check_start_pos) Failed to enlarge section." ; len=44
            0x005be564      .byte 0x30
            0x005be565     .string "(check_start_pos) Error regetting fs_file_addr. " ; len=48
            0x005be595      .byte 0x2d
            0x005be596     .string "(check_start_pos) Error during fs_file_addr. " ; len=45
            0x005be5c3      .byte 0x27
            0x005be5c4     .string "(check_start_pos) Invalid file address." ; len=39
            0x005be5eb      .byte 0x13
            0x005be5ec     .string "About to read block" ; len=19
            0x005be5ff      .byte 0x32
            0x005be600     .string "Ignoring end of file. Should extend on next write." ; len=50
            0x005be632      .byte 0x17
            0x005be633     .string "reading block to memory" ; len=23
            0x005be64a      .byte 0x15
            0x005be64b     .string "about to copy block: " ; len=21
            0x005be660      .byte 0x0c
            0x005be661     .string " bytes from " ; len=12
            0x005be66d      .byte 0x04
            0x005be66e      .byte 0x20
            0x005be66f      .byte 0x74
            0x005be670      .byte 0x6f
            0x005be671      .byte 0x20
            0x005be672      .byte 0x19
            0x005be673     .string "I: Seeking back to block " ; len=25
            0x005be68c      .byte 0x10
            0x005be68d     .string "seeking to block" ; len=16
            0x005be69d      .byte 0x10
            0x005be69e     .string "about to rewrite" ; len=16
            0x005be6ae      .byte 0x12
            0x005be6af     .string "writing back block" ; len=18
            0x005be6c1      .byte 0x0e
            0x005be6c2     .string "rmw block done" ; len=14
            0x005be6d0      .byte 0x13
            0x005be6d1     .string "AFS_write_mem_file " ; len=19
            0x005be6e4      .byte 0x0c
            0x005be6e5     .string " bytes from " ; len=12
            0x005be6f1      .byte 0x04
            0x005be6f2      .byte 0x20
            0x005be6f3      .byte 0x74
            0x005be6f4      .byte 0x6f
            0x005be6f5      .byte 0x20
            0x005be6f6      .byte 0x0a
            0x005be6f7     .string "Should be " ; len=10
            0x005be701      .byte 0x08
            0x005be702     .string " blocks." ; len=8
            0x005be70a      .byte 0x02
            0x005be70b     .string "DE" ; len=2
            0x005be70d      .byte 0x2f
            0x005be70e     .string "E: AFS_write_mem_file: Problem with file blocks" ; len=47
            0x005be73d      .byte 0x0c
            0x005be73e     .string "opening file" ; len=12
            0x005be74a      .byte 0x1a
            0x005be74b     .string "I: Seeking to first block " ; len=26
            0x005be765      .byte 0x10
            0x005be766     .string "seeking to block" ; len=16
            0x005be776      .byte 0x08
            0x005be777     .string "- seeked" ; len=8
            0x005be77f      .byte 0x10
            0x005be780     .string "file_byte_pos = " ; len=16
            0x005be790      .byte 0x09
            0x005be791     .string ", length " ; len=9
            0x005be79a      .byte 0x13
            0x005be79b     .string "Length remaining = " ; len=19
            0x005be7ae      .byte 0x06
            0x005be7af     .string "Write " ; len=6
            0x005be7b5      .byte 0x0d
            0x005be7b6     .string " starting at " ; len=13
            0x005be7c3      .byte 0x13
            0x005be7c4     .string "Writing from memory" ; len=19
            0x005be7d7      .byte 0x15
            0x005be7d8     .string "written large section" ; len=21
            0x005be7ed      .byte 0x16
            0x005be7ee     .string "No need for last block" ; len=22
            0x005be804      .byte 0x11
            0x005be805     .string "reading in block " ; len=17
            0x005be816      .byte 0x02
            0x005be817      .byte 0x4f
            0x005be818      .byte 0x4b
            0x005be819      .byte 0x1d
            0x005be81a     .string "AFS_write_mem_file SUCCESSFUL" ; len=29
            0x005be837      .byte 0x19
            0x005be838     .string "AFS_write_mem_file FAILED" ; len=25
            0x005be851      .byte 0x0c
            0x005be852     .string "closing file" ; len=12
            0x005be85e      .byte 0x13
            0x005be85f     .string "About to read block" ; len=19
            0x005be872      .byte 0x16
            0x005be873     .string "Reading in first block" ; len=22
            0x005be889      .byte 0x12
            0x005be88a     .string "AFS_read_mem_file " ; len=18
            0x005be89c      .byte 0x0c
            0x005be89d     .string " bytes from " ; len=12
            0x005be8a9      .byte 0x04
            0x005be8aa      .byte 0x20
            0x005be8ab      .byte 0x74
            0x005be8ac      .byte 0x6f
            0x005be8ad      .byte 0x20
            0x005be8ae      .byte 0x02
            0x005be8af     .string "DE" ; len=2
            0x005be8b1      .byte 0x2f
            0x005be8b2     .string "E: AFS_write_mem_file: Problem with file blocks" ; len=47
            0x005be8e1      .byte 0x0c
            0x005be8e2     .string "opening file" ; len=12
            0x005be8ee      .byte 0x10
            0x005be8ef     .string "seeking to block" ; len=16
            0x005be8ff      .byte 0x0e
            0x005be900     .string "About to read " ; len=14
            0x005be90e      .byte 0x08
            0x005be90f     .string " blocks." ; len=8
            0x005be917      .byte 0x16
            0x005be918     .string "reading file to memory" ; len=22
            0x005be92e      .byte 0x02
            0x005be92f      .byte 0x4f
            0x005be930      .byte 0x4b
            0x005be931      .byte 0x18
            0x005be932     .string "AFS_read_mem_file FAILED" ; len=24
            0x005be94a      .byte 0x18
            0x005be94b     .string "afs0_save_plane. blocks " ; len=24
            0x005be963      .byte 0x0c
            0x005be964     .string ", file_addr " ; len=12
            0x005be970      .byte 0x02
            0x005be971     .string "DE" ; len=2
            0x005be973      .byte 0x21
            0x005be974     .string "Can't write to unallocated plane." ; len=33
            0x005be995      .byte 0x17
            0x005be996     .string "AFS save - opening file" ; len=23
            0x005be9ad      .byte 0x0e
            0x005be9ae     .string "seek to block " ; len=14
            0x005be9bc      .byte 0x1e
            0x005be9bd     .string "Save : Error seeking to block " ; len=30
            0x005be9db      .byte 0x06
            0x005be9dc     .string "write " ; len=6
            0x005be9e2      .byte 0x08
            0x005be9e3     .string " blocks." ; len=8
            0x005be9eb      .byte 0x2e
            0x005be9ec     .string "AFS save plane - brush hung after write blocks" ; len=46
            0x005bea1a      .byte 0x02
            0x005bea1b      .byte 0x44
            0x005bea1c      .byte 0x45
            0x005bea1d      .byte 0x00
            0x005bea1e      .byte 0x0a
            0x005bea1f      .byte 0x19
            0x005bea20     .string "AFS save - getting header" ; len=25
            0x005bea39      .byte 0x39
            0x005bea3a     .string "(save_a_plane) E: error getting afs video pos from header" ; len=57
            0x005bea73      .byte 0x38
            0x005bea74     .string "(save_a_plane) E: error getting file address from header" ; len=56
            0x005beaac      .byte 0x30
            0x005beaad     .string "W: (save_a_plane) section too small. reallocate." ; len=48
            0x005beadd      .byte 0x3d
            0x005beade     .string "(save_a_plane) E: error deallocating file address from header" ; len=61
            0x005beb1b      .byte 0x08
            0x005beb1c     .string "section " ; len=8
            0x005beb24      .byte 0x0b
            0x005beb25     .string ", allocate " ; len=11
            0x005beb30      .byte 0x2f
            0x005beb31     .string "(save_a_plane) E: error allocating file address" ; len=47
            0x005beb60      .byte 0x0c
            0x005beb61     .string "Save plane. " ; len=12
            0x005beb6d      .byte 0x15
            0x005beb6e     .string " blocks at file addr " ; len=21
            0x005beb83      .byte 0x23
            0x005beb84     .string "AFS save - deleting part saved file" ; len=35
            0x005beba7      .byte 0x0f
            0x005beba8     .string "AFS_save called" ; len=15
            0x005bebb7      .byte 0x02
            0x005bebb8      .byte 0x44
            0x005bebb9      .byte 0x45
            0x005bebba      .byte 0x19
            0x005bebbb     .string "AFS save - illegal type. " ; len=25
            0x005bebd4      .byte 0x19
            0x005bebd5     .string "AFS save - getting header" ; len=25
            0x005bebee      .byte 0x37
            0x005bebef     .string "(AFS_save) E: Error getting f pic_spec data from header" ; len=55
            0x005bec26      .byte 0x1c
            0x005bec27     .string "AFS save - saving char plane" ; len=28
            0x005bec43      .byte 0x02
            0x005bec44      .byte 0x4f
            0x005bec45      .byte 0x4b
            0x005bec46      .byte 0x12
            0x005bec47      .byte 0x00
            0x005bec48      .byte 0x11
            0x005bec49     .string "\"AFS save browse " ; len=17
            0x005bec5a      .byte 0x2d
            0x005bec5b     .string " regetting header'AFS save - error saving bro" ; len=45
            0x005bec88      .byte 0x77
            0x005bec89     .string "se pic data" ; len=11
            0x005bec94      .byte 0x02
            0x005bec95      .byte 0x4f
            0x005bec96      .byte 0x4b
            0x005bec97      .byte 0x0c
            0x005bec98     .string "opening file" ; len=12
            0x005beca4      .byte 0x14
            0x005beca5     .string "I: seeking to block " ; len=20
            0x005becb9      .byte 0x10
            0x005becba     .string "seeking to block" ; len=16
            0x005becca      .byte 0x0e
            0x005beccb     .string "About to read " ; len=14
            0x005becd9      .byte 0x18
            0x005becda     .string " blocks, with offset of " ; len=24
            0x005becf2      .byte 0x08
            0x005becf3     .string " blocks." ; len=8
            0x005becfb      .byte 0x20
            0x005becfc     .string "E: brush hung at end of transfer" ; len=32
            0x005bed1c      .byte 0x0d
            0x005bed1d     .string "reading video" ; len=13
            0x005bed2a      .byte 0x08
            0x005bed2b     .string "I: Read " ; len=8
            0x005bed33      .byte 0x08
            0x005bed34     .string " blocks." ; len=8
            0x005bed3c      .byte 0x20
            0x005bed3d     .string "E: brush hung at end of transfer" ; len=32
            0x005bed5d      .byte 0x09
            0x005bed5e     .string "Char Load" ; len=9
            0x005bed67      .byte 0x10
            0x005bed68     .string "Load video image" ; len=16
            0x005bed78      .byte 0x11
            0x005bed79     .string "Load browse image" ; len=17
            0x005bed8a      .byte 0x0a
            0x005bed8b      .byte 0x1d
            0x005bed8c     .string "(load_a_plane) getting header" ; len=29
            0x005beda9      .byte 0x39
            0x005bedaa     .string "(load_a_plane) E: error getting afs video pos from header" ; len=57
            0x005bede3      .byte 0x36
            0x005bede4     .string "(load_a_plane) E: error getting afs offset from header" ; len=54
            0x005bee1a      .byte 0x0c
            0x005bee1b     .string "Load plane. " ; len=12
            0x005bee27      .byte 0x15
            0x005bee28     .string " blocks at file addr " ; len=21
            0x005bee3d      .byte 0x02
            0x005bee3e      .byte 0x2c
            0x005bee3f      .byte 0x20
            0x005bee40      .byte 0x02
            0x005bee41      .byte 0x2c
            0x005bee42      .byte 0x20
            0x005bee43      .byte 0x07
            0x005bee44     .string ", area " ; len=7
            0x005bee4b      .byte 0x0d
            0x005bee4c     .string "loading plane" ; len=13
            0x005bee59      .byte 0x0f
            0x005bee5a     .string "AFS_load called" ; len=15
            0x005bee69      .byte 0x02
            0x005bee6a      .byte 0x44
            0x005bee6b      .byte 0x45
            0x005bee6c      .byte 0x13
            0x005bee6d     .string "Dest Load point : (" ; len=19
            0x005bee80      .byte 0x02
            0x005bee81      .byte 0x2c
            0x005bee82      .byte 0x20
            0x005bee83      .byte 0x1e
            0x005bee84     .string "? Not a valid load xfer type: " ; len=30
            0x005beea2      .byte 0x19
            0x005beea3     .string "(AFS_load) getting header" ; len=25
            0x005beebc      .byte 0x37
            0x005beebd     .string "(AFS_load) E: Error getting f pic_spec data from header" ; len=55
            0x005beef4      .byte 0x10
            0x005beef5     .string "Got format code " ; len=16
            0x005bef05      .byte 0x19
            0x005bef06     .string "Load size from parameters" ; len=25
            0x005bef1f      .byte 0x25
            0x005bef20     .string "(AFS_load) E: Error getting file type" ; len=37
            0x005bef45      .byte 0x00
            0x005bef46      .byte 0x02
            0x005bef47      .byte 0x2a
            0x005bef48     .string "(AFS_load) E: unreadable mono file format " ; len=42
            0x005bef72      .byte 0x02
            0x005bef73      .byte 0x42
            0x005bef74      .byte 0x46
            0x005bef75      .byte 0x00
            0x005bef76      .byte 0x01
            0x005bef77      .byte 0x2c
            0x005bef78     .string "(AFS_load) E: unreadable colour file format " ; len=44
            0x005befa4      .byte 0x02
            0x005befa5      .byte 0x42
            0x005befa6      .byte 0x46
            0x005befa7      .byte 0x0b
            0x005befa8     .string "video xfer." ; len=11
            0x005befb3      .byte 0x0c
            0x005befb4     .string "browse xfer." ; len=12
            0x005befc0      .byte 0x34
            0x005befc1     .string "(AFS_load) E: Error getting header browse_size data." ; len=52
            0x005beff5      .byte 0x0d
            0x005beff6     .string "loading plane" ; len=13
            0x005bf003      .byte 0x0d
            0x005bf004     .string "loading plane" ; len=13
            0x005bf011      .byte 0x0d
            0x005bf012     .string "loading plane" ; len=13
            0x005bf01f      .byte 0x02
            0x005bf020      .byte 0x4f
            0x005bf021      .byte 0x4b
            0x005bf022      .byte 0x0c
            0x005bf023     .string "S: AFS_load " ; len=12
            0x005bf02f      .byte 0x07
            0x005bf030     .string " FAILED" ; len=7
            0x005bf037      .byte 0x16
            0x005bf038     .string "AFS_delete_file called" ; len=22
            0x005bf04e      .byte 0x02
            0x005bf04f      .byte 0x44
            0x005bf050      .byte 0x45
            0x005bf051      .byte 0x0e
            0x005bf052     .string "getting header" ; len=14
            0x005bf060      .byte 0x31
            0x005bf061     .string "(AFS_delete_file) Error getting header ftype data" ; len=49
            0x005bf092      .byte 0x1c
            0x005bf093      .byte 0x00
            0x005bf094      .byte 0x00
            0x005bf095      .byte 0x00
            0x005bf096      .byte 0x00
            0x005bf097      .byte 0x00
            0x005bf098      .byte 0x08
            0x005bf099      .byte 0x00
            0x005bf09a      .byte 0x00
            0x005bf09b      .byte 0x10
            0x005bf09c      .byte 0x00
            0x005bf09d      .byte 0x00
            0x005bf09e      .byte 0x0a
            0x005bf09f     .string "Deleting \"" ; len=10
            0x005bf0a9      .byte 0x02
            0x005bf0aa      .byte 0x4f
            0x005bf0ab      .byte 0x4b
            0x005bf0ac      .byte 0x0d
            0x005bf0ad     .string "deleting file" ; len=13
            0x005bf0ba      .byte 0x13
            0x005bf0bb     .string "AFS_lose_ref called" ; len=19
            0x005bf0ce      .byte 0x02
            0x005bf0cf      .byte 0x4f
            0x005bf0d0      .byte 0x4b
            0x005bf0d1      .byte 0x02
            0x005bf0d2     .string "DE" ; len=2
            0x005bf0d4      .byte 0x20
            0x005bf0d5     .string "AFS_init_disk: Initialise drive " ; len=32
            0x005bf0f5      .byte 0x25
            0x005bf0f6     .string "We are master. initialize it locally." ; len=37
            0x005bf11b      .byte 0x02
            0x005bf11c      .byte 0x4e
            0x005bf11d      .byte 0x44
            0x005bf11e      .byte 0x0a
            0x005bf11f     .string "Formatting" ; len=10
            0x005bf129      .byte 0x0a
            0x005bf12a     .string "Formatting" ; len=10
            0x005bf134      .byte 0x12
            0x005bf135     .string "added floppy drive" ; len=18
            0x005bf147      .byte 0x1b
            0x005bf148     .string "failed to add floppy drive " ; len=27
            0x005bf163      .byte 0x15
            0x005bf164     .string "during initialisation" ; len=21
            0x005bf179      .byte 0x09
            0x005bf17a     .string "I: Drive " ; len=9
            0x005bf183      .byte 0x1a
            0x005bf184     .string " initialised. Volume id = " ; len=26
            0x005bf19e      .byte 0x0e
            0x005bf19f     .string "getting header" ; len=14
            0x005bf1ad      .byte 0x0d
            0x005bf1ae     .string "setting label" ; len=13
            0x005bf1bb      .byte 0x02
            0x005bf1bc      .byte 0x4f
            0x005bf1bd      .byte 0x4b
            0x005bf1be      .byte 0x17
            0x005bf1bf     .string "We are not master. Get " ; len=23
            0x005bf1d6      .byte 0x0a
            0x005bf1d7     .string " to do it." ; len=10
            0x005bf1e1      .byte 0x02
            0x005bf1e2      .byte 0x4f
            0x005bf1e3      .byte 0x4b
            0x005bf1e4      .byte 0x11
            0x005bf1e5     .string "n5_rem_cmd error " ; len=17
            0x005bf1f6      .byte 0x02
            0x005bf1f7      .byte 0x44
            0x005bf1f8      .byte 0x45
            0x005bf1f9      .byte 0x1a
            0x005bf1fa     .string "Failed to get volume size " ; len=26
            0x005bf214      .byte 0x02
            0x005bf215      .byte 0x44
            0x005bf216      .byte 0x45
            0x005bf217      .byte 0x02
            0x005bf218      .byte 0x4f
            0x005bf219      .byte 0x4b
            0x005bf21a      .byte 0x0f
            0x005bf21b     .string "AFS_info called" ; len=15
            0x005bf22a      .byte 0x02
            0x005bf22b     .string "DE" ; len=2
            0x005bf22d      .byte 0x3a
            0x005bf22e     .string "???????? Why are you setting aspects on afs disks ????????" ; len=58
            0x005bf268      .byte 0x02
            0x005bf269      .byte 0x4f
            0x005bf26a      .byte 0x4b
            0x005bf26b      .byte 0x02
            0x005bf26c      .byte 0x4f
            0x005bf26d      .byte 0x4b
            0x005bf26e      .byte 0x0e
            0x005bf26f     .string "afs_add_drive " ; len=14
            0x005bf27d      .byte 0x06
            0x005bf27e     .string "  vol " ; len=6
            0x005bf284      .byte 0x02
            0x005bf285      .byte 0x4f
            0x005bf286      .byte 0x4b
            0x005bf287      .byte 0x0e
            0x005bf288     .string "afs_same_file " ; len=14
            0x005bf296      .byte 0x02
            0x005bf297     .string ", " ; len=2
            0x005bf299      .byte 0x22
            0x005bf29a     .string "AFS_directory not yet implemented." ; len=34
            0x005bf2bc      .byte 0x02
            0x005bf2bd      .byte 0x4e
            0x005bf2be      .byte 0x41
            0x005bf2bf      .byte 0x02
            0x005bf2c0      .byte 0x4e
            0x005bf2c1      .byte 0x41
            0x005bf2c2      .byte 0x19
            0x005bf2c3     .string "1: enable indexed search." ; len=25
            0x005bf2dc      .byte 0x1a
            0x005bf2dd     .string "2: disable indexed search." ; len=26
            0x005bf2f7      .byte 0x02
            0x005bf2f8      .byte 0x4f
            0x005bf2f9      .byte 0x4b
            0x005bf2fa      .byte 0x02
            0x005bf2fb     .string "OK" ; len=2
            0x005bf2fd      .byte 0x2a
            0x005bf2fe     .string "AFS_disk_debug doesn't understand variant " ; len=42
            0x005bf328      .byte 0x02
            0x005bf329      .byte 0x4f
            0x005bf32a      .byte 0x4b
            0x005bf32b      .byte 0x02
            0x005bf32c     .string "DE" ; len=2
            0x005bf32e      .byte 0x2f
            0x005bf32f     .string "AFS_free_browse. Error getting browse header : " ; len=47
            0x005bf35e      .byte 0x31
            0x005bf35f     .string "AFS0_add_default_picspec. Error getting header : " ; len=49
            0x005bf390      .byte 0x2c
            0x005bf391     .string "AFS0_remove_picspec. Error getting header : " ; len=44
            0x005bf3bd      .byte 0x17
            0x005bf3be     .string "1: remove small browse." ; len=23
            0x005bf3d5      .byte 0x17
            0x005bf3d6     .string "2: add default picspec." ; len=23
            0x005bf3ed      .byte 0x12
            0x005bf3ee     .string "3: remove picspec." ; len=18
            0x005bf400      .byte 0x0e
            0x005bf401     .string "4: index file." ; len=14
            0x005bf40f      .byte 0x10
            0x005bf410     .string "5: deindex file." ; len=16
            0x005bf420      .byte 0x0e
            0x005bf421     .string "6: dekey file." ; len=14
            0x005bf42f      .byte 0x0e
            0x005bf430     .string "7: rekey file." ; len=14
            0x005bf43e      .byte 0x18
            0x005bf43f     .string "AFS_get_file_size called" ; len=24
            0x005bf457      .byte 0x17
            0x005bf458     .string "Can't change file size." ; len=23
            0x005bf46f      .byte 0x35
            0x005bf470     .string "(AFS_get_file_size) Error getting or deriving planes." ; len=53
            0x005bf4a5      .byte 0x39
            0x005bf4a6     .string "(AFS_get_file_size) Error getting or deriving extrabytes." ; len=57
            0x005bf4df      .byte 0x00
            0x005bf4e0      .byte 0x00
            0x005bf4e1      .byte 0x00
            0x005bf4e2      .byte 0x00
            0x005bf4e3      .byte 0x00
            0x005bf4e4      .byte 0x00
            0x005bf4e5      .byte 0x00
            0x005bf4e6      .byte 0x08
            0x005bf4e7      .byte 0x00
            0x005bf4e8      .byte 0x00
            0x005bf4e9      .byte 0x00
            0x005bf4ea      .byte 0x04
            0x005bf4eb      .byte 0x00
            0x005bf4ec     .string ",(AFS_get_file_size) Error getting f picspec.?(AFS_get_file_size) E: Error getting file size from header data" ; len=109
            0x005bf559      .byte 0x09
            0x005bf55a     .string "result DE" ; len=9
            0x005bf563      .byte 0x14
            0x005bf564     .string "AFS_get_file_size OK" ; len=20
            0x005bf578      .byte 0x12
            0x005bf579     .string "File size. planes " ; len=18
            0x005bf58b      .byte 0x0e
            0x005bf58c     .string ", extra_bytes " ; len=14
            0x005bf59a      .byte 0x05
            0x005bf59b     .string ", xy " ; len=5
            0x005bf5a0      .byte 0x19
            0x005bf5a1     .string "Can't change file planes." ; len=25
            0x005bf5ba      .byte 0x17
            0x005bf5bb     .string "AFS_get_f_aspect called" ; len=23
            0x005bf5d2      .byte 0x19
            0x005bf5d3     .string "Can't change file aspect." ; len=25
            0x005bf5ec      .byte 0x10
            0x005bf5ed     .string "AFS_name called " ; len=16
            0x005bf5fd      .byte 0x30
            0x005bf5fe     .string "W: Error setting ftype num. May be incompatible." ; len=48
            0x005bf62e      .byte 0x11
            0x005bf62f     .string "getting extension" ; len=17
            0x005bf640      .byte 0x38
            0x005bf641     .string "(AFS_name) E: Error transferring title to or from header" ; len=56
            0x005bf679      .byte 0x1e
            0x005bf67a     .string "Setting cutout data : origin (" ; len=30
            0x005bf698      .byte 0x02
            0x005bf699      .byte 0x2c
            0x005bf69a      .byte 0x20
            0x005bf69b      .byte 0x09
            0x005bf69c     .string "), ref. (" ; len=9
            0x005bf6a5      .byte 0x02
            0x005bf6a6      .byte 0x2c
            0x005bf6a7      .byte 0x20
            0x005bf6a8      .byte 0x09
            0x005bf6a9     .string "), spare " ; len=9
            0x005bf6b2      .byte 0x28
            0x005bf6b3     .string "E: error putting cutout data into header" ; len=40
            0x005bf6db      .byte 0x1e
            0x005bf6dc     .string "E: no extra afs_data available" ; len=30
            0x005bf6fa      .byte 0x1b
            0x005bf6fb     .string "Read cutout data : origin (" ; len=27
            0x005bf716      .byte 0x02
            0x005bf717      .byte 0x2c
            0x005bf718      .byte 0x20
            0x005bf719      .byte 0x08
            0x005bf71a     .string "), ref (" ; len=8
            0x005bf722      .byte 0x02
            0x005bf723      .byte 0x2c
            0x005bf724      .byte 0x20
            0x005bf725      .byte 0x09
            0x005bf726     .string "), spare " ; len=9
            0x005bf72f      .byte 0x0e
            0x005bf730     .string "set panel data" ; len=14
            0x005bf73e      .byte 0x00
            0x005bf73f      .byte 0x10
            0x005bf740     .string "No type for udf." ; len=16
            0x005bf750      .byte 0x00
            0x005bf751      .byte 0x19
            0x005bf752     .string "AFS_browse_stored called." ; len=25
            0x005bf76b      .byte 0x1d
            0x005bf76c     .string "Can't set browse stored true." ; len=29
            0x005bf789      .byte 0x0b
            0x005bf78a     .string "Got header." ; len=11
            0x005bf795      .byte 0x1b
            0x005bf796     .string "AFS_get_browse_size called." ; len=27
            0x005bf7b1      .byte 0x19
            0x005bf7b2     .string "Can't change browse size." ; len=25
            0x005bf7cb      .byte 0x2a
            0x005bf7cc     .string "(AFS_get_browse_size) getting nplanes data" ; len=42
            0x005bf7f6      .byte 0x2c
            0x005bf7f7     .string "(AFS_get_browse_size) getting xtrabytes data" ; len=44
            0x005bf823      .byte 0x3e
            0x005bf824     .string "(AFS_get_browse_size) E: Error getting header browse size data" ; len=62
            0x005bf862      .byte 0x0d
            0x005bf863     .string "field got ok." ; len=13
            0x005bf870      .byte 0x1b
            0x005bf871     .string "AFS_get_browse_size result " ; len=27
            0x005bf88c      .byte 0x05
            0x005bf88d     .string "size " ; len=5
            0x005bf892      .byte 0x02
            0x005bf893      .byte 0x2c
            0x005bf894      .byte 0x20
            0x005bf895      .byte 0x14
            0x005bf896     .string "Failed to read desc." ; len=20
            0x005bf8aa      .byte 0x23
            0x005bf8ab     .string "Failed to find/allocate desc block." ; len=35
            0x005bf8ce      .byte 0x15
            0x005bf8cf     .string "Failed to write desc." ; len=21
            0x005bf8e4      .byte 0x17
            0x005bf8e5     .string "No associated grid data" ; len=23
            0x005bf8fc      .byte 0x19
            0x005bf8fd     .string "? (afs) Unknown data id, " ; len=25
            0x005bf916      .byte 0x02
            0x005bf917      .byte 0x4e
            0x005bf918      .byte 0x41
            0x005bf919      .byte 0x15
            0x005bf91a     .string "AFS_multi_data called" ; len=21
            0x005bf92f      .byte 0x02
            0x005bf930      .byte 0x44
            0x005bf931      .byte 0x45
            0x005bf932      .byte 0x0c
            0x005bf933     .string "Writing data" ; len=12
            0x005bf93f      .byte 0x0c
            0x005bf940     .string "Reading data" ; len=12
            0x005bf94c      .byte 0x1f
            0x005bf94d     .string "(AFS_multi_data) getting header" ; len=31
            0x005bf96c      .byte 0x02
            0x005bf96d      .byte 0x4f
            0x005bf96e      .byte 0x4b
            0x005bf96f      .byte 0x00
            0x005bf970      .byte 0x03
            0x005bf971      .byte 0x00
            0x005bf972      .byte 0x00
            0x005bf973      .byte 0x00
            0x005bf974      .byte 0x02
            0x005bf975      .byte 0x4f
            0x005bf976      .byte 0x4b
            0x005bf977      .byte 0x02
            0x005bf978      .byte 0x44
            0x005bf979      .byte 0x45
            0x005bf97a      .byte 0x02
            0x005bf97b      .byte 0x4e
            0x005bf97c      .byte 0x41
            0x005bf97d      .byte 0x02
            0x005bf97e      .byte 0x4f
            0x005bf97f      .byte 0x4b
            0x005bf980      .byte 0x15
            0x005bf981     .string "AFS_multi_data FAILED" ; len=21
            0x005bf996      .byte 0x16
            0x005bf997     .string "Leaving AFS_multi_data" ; len=22
            0x005bf9ad      .byte 0x0f
            0x005bf9ae     .string "AFS_data called" ; len=15
            0x005bf9bd      .byte 0x02
            0x005bf9be      .byte 0x44
            0x005bf9bf      .byte 0x45
            0x005bf9c0      .byte 0x0c
            0x005bf9c1     .string "Writing data" ; len=12
            0x005bf9cd      .byte 0x0c
            0x005bf9ce     .string "Reading data" ; len=12
            0x005bf9da      .byte 0x19
            0x005bf9db     .string "(AFS_data) getting header" ; len=25
            0x005bf9f4      .byte 0x0f
            0x005bf9f5     .string "AFS_data FAILED" ; len=15
            0x005bfa04      .byte 0x10
            0x005bfa05     .string "Leaving afs_data" ; len=16
            0x005bfa15      .byte 0x0f
            0x005bfa16     .string "AFS_data called" ; len=15
            0x005bfa25      .byte 0x02
            0x005bfa26      .byte 0x44
            0x005bfa27      .byte 0x45
            0x005bfa28      .byte 0x0c
            0x005bfa29     .string "Writing data" ; len=12
            0x005bfa35      .byte 0x0c
            0x005bfa36     .string "Reading data" ; len=12
            0x005bfa42      .byte 0x19
            0x005bfa43     .string "(AFS_data) getting header" ; len=25
            0x005bfa5c      .byte 0x13
            0x005bfa5d     .string "AFS_data_len FAILED" ; len=19
            0x005bfa70      .byte 0x14
            0x005bfa71     .string "Leaving afs_data_len" ; len=20
            0x005bfa85      .byte 0x13
            0x005bfa86     .string "AFS_str_data called" ; len=19
            0x005bfa99      .byte 0x02
            0x005bfa9a     .string "DE" ; len=2
            0x005bfa9c      .byte 0x23
            0x005bfa9d     .string "AFS_str_data - error getting header" ; len=35
            0x005bfac0      .byte 0x13
            0x005bfac1     .string "AFS_str_data FAILED" ; len=19
            0x005bfad4      .byte 0x00
            0x005bfad5      .byte 0x14
            0x005bfad6     .string "Leaving afs_str_data" ; len=20
            0x005bfaea      .byte 0x02
            0x005bfaeb      .byte 0x44
            0x005bfaec      .byte 0x45
            0x005bfaed      .byte 0x02
            0x005bfaee     .string "NF" ; len=2
            0x005bfaf0      .byte 0x26
            0x005bfaf1     .string "E: error getting passwords from header" ; len=38
            0x005bfb17      .byte 0x06
            0x005bfb18     .string "Get OK" ; len=6
            0x005bfb1e      .byte 0x16
            0x005bfb1f     .string "Disk password read -->" ; len=22
            0x005bfb35      .byte 0x03
            0x005bfb36      .byte 0x3c
            0x005bfb37      .byte 0x2d
            0x005bfb38      .byte 0x2d
            0x005bfb39      .byte 0x02
            0x005bfb3a      .byte 0x4f
            0x005bfb3b      .byte 0x4b
            0x005bfb3c      .byte 0x02
            0x005bfb3d      .byte 0x44
            0x005bfb3e      .byte 0x45
            0x005bfb3f      .byte 0x02
            0x005bfb40     .string "OK" ; len=2
            0x005bfb42      .byte 0x26
            0x005bfb43     .string "E: error putting passwords into header" ; len=38
            0x005bfb69      .byte 0x02
            0x005bfb6a      .byte 0x44
            0x005bfb6b      .byte 0x45
            0x005bfb6c      .byte 0x1c
            0x005bfb6d     .string "Getting passwords from disk " ; len=28
            0x005bfb89      .byte 0x19
            0x005bfb8a     .string "Writing disk password -->" ; len=25
            0x005bfba3      .byte 0x07
            0x005bfba4     .string "<-- to " ; len=7
            0x005bfbab      .byte 0x02
            0x005bfbac      .byte 0x4e
            0x005bfbad      .byte 0x44
            0x005bfbae      .byte 0x1a
            0x005bfbaf     .string "AFS_soft_protection called" ; len=26
            0x005bfbc9      .byte 0x02
            0x005bfbca     .string "DE" ; len=2
            0x005bfbcc      .byte 0x23
            0x005bfbcd     .string "AFS_soft_protection - error setting" ; len=35
            0x005bfbf0      .byte 0x02
            0x005bfbf1      .byte 0x4f
            0x005bfbf2      .byte 0x4b
            0x005bfbf3      .byte 0x02
            0x005bfbf4     .string "DE" ; len=2
            0x005bfbf6      .byte 0x24
            0x005bfbf7     .string "AFS_privilege - error getting header" ; len=36
            0x005bfc1b      .byte 0x14
            0x005bfc1c     .string "AFS_privilege FAILED" ; len=20
            0x005bfc30      .byte 0x02
            0x005bfc31      .byte 0x4f
            0x005bfc32      .byte 0x4b
            0x005bfc33      .byte 0x02
            0x005bfc34      .byte 0x49
            0x005bfc35      .byte 0x50
            0x005bfc36      .byte 0x14
            0x005bfc37     .string "afs_privilege error " ; len=20
            0x005bfc4b      .byte 0x02
            0x005bfc4c      .byte 0x41
            0x005bfc4d      .byte 0x58
            0x005bfc4e      .byte 0x15
            0x005bfc4f     .string "Leaving AFS_privilege" ; len=21
            0x005bfc64      .byte 0x02
            0x005bfc65      .byte 0x4f
            0x005bfc66      .byte 0x4b
            0x005bfc67      .byte 0x02
            0x005bfc68      .byte 0x42
            0x005bfc69      .byte 0x4f
            0x005bfc6a      .byte 0x02
            0x005bfc6b      .byte 0x49
            0x005bfc6c      .byte 0x50
            0x005bfc6d      .byte 0x0c
            0x005bfc6e     .string "Error while " ; len=12
            0x005bfc7a      .byte 0x02
            0x005bfc7b      .byte 0x3a
            0x005bfc7c      .byte 0x20
            0x005bfc7d      .byte 0x0c
            0x005bfc7e     .string "finding file" ; len=12
            0x005bfc8a      .byte 0x0c
            0x005bfc8b     .string "finding file" ; len=12
            0x005bfc97      .byte 0x0c
            0x005bfc98     .string "finding file" ; len=12
            0x005bfca4      .byte 0x0c
            0x005bfca5     .string "finding file" ; len=12
            0x005bfcb1      .byte 0x0c
            0x005bfcb2     .string "finding file" ; len=12
            0x005bfcbe      .byte 0x04
            0x005bfcbf      .byte 0x56
            0x005bfcc0      .byte 0x31
            0x005bfcc1      .byte 0x56
            0x005bfcc2      .byte 0x32
            0x005bfcc3      .byte 0x04
            0x005bfcc4      .byte 0x56
            0x005bfcc5      .byte 0x32
            0x005bfcc6      .byte 0x56
            0x005bfcc7      .byte 0x31
            0x005bfcc8      .byte 0x05
            0x005bfcc9     .string "VShow" ; len=5
            0x005bfcce      .byte 0x06
            0x005bfccf     .string "VCheck" ; len=6
            0x005bfcd5      .byte 0x05
            0x005bfcd6      .byte 0x56
            0x005bfcd7      .byte 0x45
            0x005bfcd8      .byte 0x64
            0x005bfcd9      .byte 0x69
            0x005bfcda      .byte 0x74
            0x005bfcdb      .byte 0x69
            ; XREFS: CALL 0x005c407e  CALL 0x005c42ba  CALL 0x005c43ae  
            ; XREFS: CALL 0x005c4418  CALL 0x005c459a  CALL 0x005c4730  
            ; XREFS: CALL 0x005c501a  CALL 0x005c508a  CALL 0x005c51e8  
 74: AFS_FILER.copy_mem ();
           0x005bfcdc      4e56ffec       link.w a6, 0xffec
           0x005bfce0      bfd5           cmpa.l (a5), a7
       < 0x005bfce2      6206           bhi.b 0x5bfcea
          0x005bfce4      44fc0002       move.w 0x2, ccr
          0x005bfce8      4e76           trapv
       > 0x005bfcea      defc0014       adda.w 0x14, a7
           0x005bfcee      48e78000       movem.l d0, -(a7)
           0x005bfcf2      4227           clr.b -(a7)
           0x005bfcf4      202e0010       move.l 0x10(a6), d0
           0x005bfcf8      b0ae0008       cmp.l 0x8(a6), d0
       < 0x005bfcfc      6602           bne.b 0x5bfd00
          0x005bfcfe      5217           addq.b 0x1, (a7)
       > 0x005bfd00      4eb90040452a   jsr p_Assert
           0x005bfd06      544f           addq.w 0x2, a7
           0x005bfd08      2f2e0014       move.l 0x14(a6), -(a7)
           0x005bfd0c      2f2e000c       move.l 0xc(a6), -(a7)
           0x005bfd10      2f2e0010       move.l 0x10(a6), -(a7)
           0x005bfd14      4eb9006d1c4e   jsr MEM_COPY
           0x005bfd1a      defc000c       adda.w 0xc, a7
           0x005bfd1e      4cdf0001       movem.l (a7)+, d0
           0x005bfd22      4e5e           unlk a6
           0x005bfd24      4e75           rts
            ; CALL XREF from AFS_FILER.afs_find_next_f @ 0x5c0b00
            ; CALL XREF from AFS_FILER.afs_end_search @ 0x5c0c0a
 84: AFS_FILER.gen_search_ptr (int32_t arg_8h);
           ; arg int32_t arg_8h @ a6+0x8
           0x005bfd26      4e56fff0       link.w a6, 0xfff0
           0x005bfd2a      bfd5           cmpa.l (a5), a7
       < 0x005bfd2c      6206           bhi.b 0x5bfd34
          0x005bfd2e      44fc0002       move.w 0x2, ccr
          0x005bfd32      4e76           trapv
       > 0x005bfd34      defc0010       adda.w 0x10, a7
           0x005bfd38      554f           subq.w 0x2, a7
           0x005bfd3a      2f2e0008       move.l 0x8(a6), -(a7)
           0x005bfd3e      4227           clr.b -(a7)
           0x005bfd40      4eb900593a22   jsr K0_DISKMGR.k0_valid_ptr
           0x005bfd46      5c4f           addq.w 0x6, a7
           0x005bfd48      4a1f           tst.b (a7)+
       < 0x005bfd4a      6624           bne.b 0x5bfd70
          0x005bfd4c      487addcf       pea.l 0x5bdb1d(pc)
          0x005bfd50      48780020       pea.l 0x20
          0x005bfd54      2f17           move.l (a7), -(a7)
          0x005bfd56      4eb9004047ea   jsr p_wts_o
          0x005bfd5c      defc000c       adda.w 0xc, a7
          0x005bfd60      4eb900404946   jsr p_wtln_o
          0x005bfd66      4227           clr.b -(a7)
          0x005bfd68      4eb90040452a   jsr p_Assert
          0x005bfd6e      544f           addq.w 0x2, a7
       > 0x005bfd70      2d6e0008000c   move.l 0x8(a6), 0xc(a6)
           0x005bfd76      4e5e           unlk a6
           0x005bfd78      4e75           rts
            ; CALL XREF from AFS_FILER.afs_delete_file @ 0x5c3312
            ; CALL XREF from AFS_FILER.afs_name @ 0x5c457c
 206: AFS_FILER.get_ftype ();
           ; var int32_t var_8h @ a7+0x8
           0x005bfd7a      4e56fe84       link.w a6, 0xfe84
           0x005bfd7e      bfd5           cmpa.l (a5), a7
       < 0x005bfd80      6206           bhi.b 0x5bfd88
          0x005bfd82      44fc0002       move.w 0x2, ccr
          0x005bfd86      4e76           trapv
       > 0x005bfd88      defc0128       adda.w 0x128, a7
           0x005bfd8c      48e7e0c0       movem.l d0-d2/a0-a1, -(a7)
           0x005bfd90      43f9004047ea   lea.l p_wts_o, a1
           0x005bfd96      720c           moveq 0xc, d1
           0x005bfd98      7401           moveq 0x1, d2
           0x005bfd9a      554f           subq.w 0x2, a7
           0x005bfd9c      486effb6       pea.l -0x4a(a6)
           0x005bfda0      4eb900404434   jsr fcn.00404434
           0x005bfda6      584f           addq.w 0x4, a7
           0x005bfda8      4a1f           tst.b (a7)+
       < 0x005bfdaa      67000094       beq.w 0x5bfe40
          0x005bfdae      206e0008       movea.l 0x8(a6), a0
          0x005bfdb2      1082           move.b d2, (a0)
          0x005bfdb4      422e0010       clr.b 0x10(a6)
          0x005bfdb8      554f           subq.w 0x2, a7
          0x005bfdba      2f2e000c       move.l 0xc(a6), -(a7)
          0x005bfdbe      486effac       pea.l -0x54(a6)
          0x005bfdc2      486effb4       pea.l -0x4c(a6)
          0x005bfdc6      4eb9006084e0   jsr F10_FILELIST.f_hdr_time_crea
          0x005bfdcc      dec1           adda.w d1, a7
          0x005bfdce      4a1f           tst.b (a7)+
      < 0x005bfdd0      6652           bne.b 0x5bfe24
         0x005bfdd2      9efc0100       suba.w 0x100, a7
         0x005bfdd6      4eb900408ec0   jsr p_err_string
         0x005bfddc      487add60       pea.l 0x5bdb3e(pc)
         0x005bfde0      4878000a       pea.l 0xa
         0x005bfde4      2f17           move.l (a7), -(a7)
         0x005bfde6      4e91           jsr (a1)                    ; fcn.0000000a
         0x005bfde8      dec1           adda.w d1, a7
         0x005bfdea      486f0001       pea.l 0x1(a7)
         0x005bfdee      42a7           clr.l -(a7)
         0x005bfdf0      1f6f00080003   move.b 0x8(a7), 0x3(a7)
         0x005bfdf6      2f17           move.l (a7), -(a7)
         0x005bfdf8      4e91           jsr (a1)                    ; fcn.0000000a
         0x005bfdfa      defc010c       adda.w 0x10c, a7
         0x005bfdfe      487add49       pea.l 0x5bdb49(pc)
         0x005bfe02      48780018       pea.l 0x18
         0x005bfe06      2f17           move.l (a7), -(a7)
         0x005bfe08      4e91           jsr (a1)                    ; fcn.0000000a
         0x005bfe0a      dec1           adda.w d1, a7
         0x005bfe0c      4eb900404946   jsr p_wtln_o
         0x005bfe12      4eb900404188   jsr p_Unlink
         0x005bfe18      486effb6       pea.l -0x4a(a6)
         0x005bfe1c      4eb900404468   jsr fcn.00404468
         0x005bfe22      584f           addq.w 0x4, a7
      > 0x005bfe24      554f           subq.w 0x2, a7
          0x005bfe26      3f2effb4       move.w -0x4c(a6), -(a7)
          0x005bfe2a      4eb9005aef2a   jsr K2_TYPES.k2_afs_filetype
          0x005bfe30      544f           addq.w 0x2, a7
          0x005bfe32      101f           move.b (a7)+, d0
          0x005bfe34      4880           ext.w d0
          0x005bfe36      41bc0056       chk.w 0x56, d0
          0x005bfe3a      1080           move.b d0, (a0)
          0x005bfe3c      1d420010       move.b d2, 0x10(a6)
       > 0x005bfe40      4cdf0307       movem.l (a7)+, d0-d2/a0-a1
           0x005bfe44      4e5e           unlk a6
           0x005bfe46      4e75           rts
            ; CALL XREF from K91_LIBOPS.k91_save @ 0x6502fa
 30: AFS_FILER.afs_format_code ();
           0x005bfe48      4e56fffc       link.w a6, 0xfffc
           0x005bfe4c      bfd5           cmpa.l (a5), a7
       < 0x005bfe4e      6206           bhi.b 0x5bfe56
          0x005bfe50      44fc0002       move.w 0x2, ccr
          0x005bfe54      4e76           trapv
       > 0x005bfe56      defc0004       adda.w 0x4, a7
           0x005bfe5a      13ee00080084.  move.b 0x8(a6), 0x84169e.l
           0x005bfe62      4e5e           unlk a6
           0x005bfe64      4e75           rts
            ; CALL XREFS from AFS_FILER.check_file_spac @ 0x5bff42, 0x5bff78, 0x5bffb2
 98: AFS_FILER.filer_error ();
           ; var int32_t var_8h @ a7+0x8
           0x005bfe66      4e56fef0       link.w a6, 0xfef0
           0x005bfe6a      bfd5           cmpa.l (a5), a7
       < 0x005bfe6c      6206           bhi.b 0x5bfe74
          0x005bfe6e      44fc0002       move.w 0x2, ccr
          0x005bfe72      4e76           trapv
       > 0x005bfe74      defc0110       adda.w 0x110, a7
           0x005bfe78      9efc0100       suba.w 0x100, a7
           0x005bfe7c      4eb900408ec0   jsr p_err_string
           0x005bfe82      486e0009       pea.l 0x9(a6)
           0x005bfe86      42a7           clr.l -(a7)
           0x005bfe88      1f6e00080003   move.b 0x8(a6), 0x3(a7)
           0x005bfe8e      2f17           move.l (a7), -(a7)
           0x005bfe90      4eb9004047ea   jsr p_wts_o
           0x005bfe96      defc000c       adda.w 0xc, a7
           0x005bfe9a      486f0001       pea.l 0x1(a7)
           0x005bfe9e      42a7           clr.l -(a7)
           0x005bfea0      1f6f00080003   move.b 0x8(a7), 0x3(a7)
           0x005bfea6      2f17           move.l (a7), -(a7)
           0x005bfea8      4eb9004047ea   jsr p_wts_o
           0x005bfeae      defc010c       adda.w 0x10c, a7
           0x005bfeb2      4eb900404946   jsr p_wtln_o
           0x005bfeb8      486c0400       pea.l 0x400(a4)
           0x005bfebc      4eb900404468   jsr fcn.00404468
           0x005bfec2      584f           addq.w 0x4, a7
           0x005bfec4      4e5e           unlk a6
           0x005bfec6      4e75           rts
            ; CALL XREF from AFS_FILER.afs_create_file @ 0x5c028c
 352: AFS_FILER.check_file_spac ();
           ; var int32_t var_8h @ a7+0x8
           0x005bfec8      4e56fa7a       link.w a6, 0xfa7a
           0x005bfecc      bfd5           cmpa.l (a5), a7
       < 0x005bfece      6206           bhi.b 0x5bfed6
          0x005bfed0      44fc0002       move.w 0x2, ccr
          0x005bfed4      4e76           trapv
       > 0x005bfed6      defc0138       adda.w 0x138, a7
           0x005bfeda      48e7f0f8       movem.l d0-d3/a0-a4, -(a7)
           0x005bfede      47eefffc       lea.l -0x4(a6), a3
           0x005bfee2      323c0100       move.w 0x100, d1
           0x005bfee6      7401           moveq 0x1, d2
           0x005bfee8      7610           moveq 0x10, d3
           0x005bfeea      422e001e       clr.b 0x1e(a6)
           0x005bfeee      2682           move.l d2, (a3)
           0x005bfef0      206e000c       movea.l 0xc(a6), a0
           0x005bfef4      4850           pea.l (a0)
           0x005bfef6      4eb90060500e   jsr F9_FILERDWRT.f_free_block
           0x005bfefc      544f           addq.w 0x2, a7
           0x005bfefe      486effb2       pea.l -0x4e(a6)
           0x005bff02      4eb900404434   jsr fcn.00404434
           0x005bff08      584f           addq.w 0x4, a7
           0x005bff0a      4a1f           tst.b (a7)+
       < 0x005bff0c      670000ae       beq.w 0x5bffbc
          0x005bff10      554f           subq.w 0x2, a7
          0x005bff12      2f2e001a       move.l 0x1a(a6), -(a7)
          0x005bff16      2f2e0016       move.l 0x16(a6), -(a7)
          0x005bff1a      3f2e0014       move.w 0x14(a6), -(a7)
          0x005bff1e      1f02           move.b d2, -(a7)
          0x005bff20      4853           pea.l (a3)
          0x005bff22      4eb90060477a   jsr F9_FILERDWRT.f_op_block
          0x005bff28      dec3           adda.w d3, a7
          0x005bff2a      4a1f           tst.b (a7)+
      < 0x005bff2c      661a           bne.b 0x5bff48
         0x005bff2e      9ec1           suba.w d1, a7
         0x005bff30      224f           movea.l a7, a1
         0x005bff32      45fadc2d       lea.l 0x5bdb61(pc), a2
         0x005bff36      7034           moveq 0x34, d0
     > 0x005bff38      12da           move.b (a2)+, (a1)+
     < 0x005bff3a      51c8fffc       dbra d0, 0x5bff38
         0x005bff3e      49eefbb2       lea.l -0x44e(a6), a4
         0x005bff42      4ebaff22       jsr AFS_FILER.filer_error(pc)
         0x005bff46      dec1           adda.w d1, a7
      > 0x005bff48      554f           subq.w 0x2, a7
          0x005bff4a      2f13           move.l (a3), -(a7)
          0x005bff4c      202e0010       move.l 0x10(a6), d0
      < 0x005bff50      6a02           bpl.b 0x5bff54
         0x005bff52      4480           neg.l d0
      > 0x005bff54      5380           subq.l 0x1, d0
          0x005bff56      2f00           move.l d0, -(a7)
          0x005bff58      4eb900604c60   jsr F9_FILERDWRT.f_seek_to_block
          0x005bff5e      504f           addq.w 0x8, a7
          0x005bff60      4a1f           tst.b (a7)+
      < 0x005bff62      661a           bne.b 0x5bff7e
         0x005bff64      9ec1           suba.w d1, a7
         0x005bff66      224f           movea.l a7, a1
         0x005bff68      45fadc35       lea.l 0x5bdb9f(pc), a2
         0x005bff6c      702b           moveq 0x2b, d0
     > 0x005bff6e      12da           move.b (a2)+, (a1)+
     < 0x005bff70      51c8fffc       dbra d0, 0x5bff6e
         0x005bff74      49eefbb2       lea.l -0x44e(a6), a4
         0x005bff78      4ebafeec       jsr AFS_FILER.filer_error(pc)
         0x005bff7c      dec1           adda.w d1, a7
      > 0x005bff7e      554f           subq.w 0x2, a7
          0x005bff80      2f13           move.l (a3), -(a7)
          0x005bff82      48780001       pea.l 0x1
          0x005bff86      43eefbb2       lea.l -0x44e(a6), a1
          0x005bff8a      2f09           move.l a1, -(a7)
          0x005bff8c      2f3c00020000   move.l 0x20000, -(a7)
          0x005bff92      4eb9006049ac   jsr F9_FILERDWRT.f_write_blocks
          0x005bff98      dec3           adda.w d3, a7
          0x005bff9a      4a1f           tst.b (a7)+
      < 0x005bff9c      661a           bne.b 0x5bffb8
         0x005bff9e      9ec1           suba.w d1, a7
         0x005bffa0      224f           movea.l a7, a1
         0x005bffa2      45fadc32       lea.l 0x5bdbd6(pc), a2
         0x005bffa6      700d           moveq 0xd, d0
     > 0x005bffa8      22da           move.l (a2)+, (a1)+
     < 0x005bffaa      51c8fffc       dbra d0, 0x5bffa8
         0x005bffae      49eefbb2       lea.l -0x44e(a6), a4
         0x005bffb2      4ebafeb2       jsr AFS_FILER.filer_error(pc)
         0x005bffb6      dec1           adda.w d1, a7
      > 0x005bffb8      1d42001e       move.b d2, 0x1e(a6)
       > 0x005bffbc      4853           pea.l (a3)
           0x005bffbe      4eb90060470a   jsr F9_FILERDWRT.f_close
           0x005bffc4      544f           addq.w 0x2, a7
           0x005bffc6      2f2e001a       move.l 0x1a(a6), -(a7)
           0x005bffca      2f2e0016       move.l 0x16(a6), -(a7)
           0x005bffce      3f2e0014       move.w 0x14(a6), -(a7)
           0x005bffd2      1f02           move.b d2, -(a7)
           0x005bffd4      4850           pea.l (a0)
           0x005bffd6      4eb9006082de   jsr F10_FILELIST.f_get_header
           0x005bffdc      dec3           adda.w d3, a7
           0x005bffde      4a1f           tst.b (a7)+
       < 0x005bffe0      663e           bne.b 0x5c0020
          0x005bffe2      9ec1           suba.w d1, a7
          0x005bffe4      4eb900408ec0   jsr p_err_string
          0x005bffea      487adc23       pea.l 0x5bdc0f(pc)
          0x005bffee      4878002d       pea.l 0x2d
          0x005bfff2      2f17           move.l (a7), -(a7)
          0x005bfff4      4eb9004047ea   jsr p_wts_o
          0x005bfffa      defc000c       adda.w 0xc, a7
          0x005bfffe      486f0001       pea.l 0x1(a7)
          0x005c0002      42a7           clr.l -(a7)
          0x005c0004      1f6f00080003   move.b 0x8(a7), 0x3(a7)
          0x005c000a      2f17           move.l (a7), -(a7)
          0x005c000c      4eb9004047ea   jsr p_wts_o
          0x005c0012      defc010c       adda.w 0x10c, a7
          0x005c0016      4eb900404946   jsr p_wtln_o
          0x005c001c      422e001e       clr.b 0x1e(a6)
       > 0x005c0020      4cdf1f0f       movem.l (a7)+, d0-d3/a0-a4
           0x005c0024      4e5e           unlk a6
           0x005c0026      4e75           rts
            ; CALL XREFS from AFS_FILER.afs_create_file @ 0x5c0270, 0x5c02ae, 0x5c04a8
 110: AFS_FILER.error ();
           ; var int32_t var_8h @ a7+0x8
           0x005c0028      4e56fef0       link.w a6, 0xfef0
           0x005c002c      bfd5           cmpa.l (a5), a7
       < 0x005c002e      6206           bhi.b 0x5c0036
          0x005c0030      44fc0002       move.w 0x2, ccr
          0x005c0034      4e76           trapv
       > 0x005c0036      defc0110       adda.w 0x110, a7
           0x005c003a      9efc0100       suba.w 0x100, a7
           0x005c003e      4eb900408ec0   jsr p_err_string
           0x005c0044      486e0009       pea.l 0x9(a6)
           0x005c0048      42a7           clr.l -(a7)
           0x005c004a      1f6e00080003   move.b 0x8(a6), 0x3(a7)
           0x005c0050      2f17           move.l (a7), -(a7)
           0x005c0052      4eb9004047ea   jsr p_wts_o
           0x005c0058      defc000c       adda.w 0xc, a7
           0x005c005c      486f0001       pea.l 0x1(a7)
           0x005c0060      42a7           clr.l -(a7)
           0x005c0062      1f6f00080003   move.b 0x8(a7), 0x3(a7)
           0x005c0068      2f17           move.l (a7), -(a7)
           0x005c006a      4eb9004047ea   jsr p_wts_o
           0x005c0070      defc010c       adda.w 0x10c, a7
           0x005c0074      4eb900404946   jsr p_wtln_o
           0x005c007a      554f           subq.w 0x2, a7
           0x005c007c      4eb9005c702c   jsr AFS1_UTIL.afs1_return_k_e
           0x005c0082      395f0010       move.w (a7)+, 0x10(a4)
           0x005c0086      486c0012       pea.l 0x12(a4)
           0x005c008a      4eb900404468   jsr fcn.00404468
           0x005c0090      584f           addq.w 0x4, a7
           0x005c0092      4e5e           unlk a6
           0x005c0094      4e75           rts
            ; CALL XREFS from AFS_FILER.afs_create_file @ 0x5c037a, 0x5c03b0, 0x5c03e4, 0x5c045c
 76: AFS_FILER.error_nolink ();
           ; var int32_t var_8h @ a7+0x8
           0x005c0096      4e56fff0       link.w a6, 0xfff0
           0x005c009a      bfd5           cmpa.l (a5), a7
       < 0x005c009c      6206           bhi.b 0x5c00a4
          0x005c009e      44fc0002       move.w 0x2, ccr
          0x005c00a2      4e76           trapv
       > 0x005c00a4      defc0010       adda.w 0x10, a7
           0x005c00a8      486e0009       pea.l 0x9(a6)
           0x005c00ac      42a7           clr.l -(a7)
           0x005c00ae      1f6e00080003   move.b 0x8(a6), 0x3(a7)
           0x005c00b4      2f17           move.l (a7), -(a7)
           0x005c00b6      4eb9004047ea   jsr p_wts_o
           0x005c00bc      defc000c       adda.w 0xc, a7
           0x005c00c0      4eb900404946   jsr p_wtln_o
           0x005c00c6      197adb750010   move.b 0x5bdc3d(pc), 0x10(a4)
           0x005c00cc      197adb700011   move.b 0x5bdc3e(pc), 0x11(a4)
           0x005c00d2      486c0012       pea.l 0x12(a4)
           0x005c00d6      4eb900404468   jsr fcn.00404468
           0x005c00dc      584f           addq.w 0x4, a7
           0x005c00de      4e5e           unlk a6
           0x005c00e0      4e75           rts
            ; CALL XREF from K1_AFS_ONLY.k1_create_file @ 0x5ab9e6
 1180: AFS_FILER.afs_create_file ();
           ; var int32_t var_2622h @ a6-0x2622
           ; var int32_t var_2544h @ a6-0x2544
           ; var int32_t var_253fh @ a6-0x253f
           ; var int32_t var_24b8h @ a6-0x24b8
           ; var int32_t var_24b3h @ a6-0x24b3
           ; var int32_t var_162h @ a6-0x162
           ; var int32_t var_8h @ a7+0x8
           0x005c00e2      4e56fd46       link.w a6, 0xfd46
           0x005c00e6      bfd5           cmpa.l (a5), a7
       < 0x005c00e8      6206           bhi.b 0x5c00f0
          0x005c00ea      44fc0002       move.w 0x2, ccr
          0x005c00ee      4e76           trapv
       > 0x005c00f0      defc0148       adda.w 0x148, a7
           0x005c00f4      48e7fff8       movem.l d0-d7/a0-a4, -(a7)
           0x005c00f8      47eefe8e       lea.l -0x172(a6), a3
           0x005c00fc      343c0100       move.w 0x100, d2
           0x005c0100      7a0c           moveq 0xc, d5
           0x005c0102      26bcffff0001   move.l 0xffff0001, (a3)
           0x005c0108      1d7adb4dfe9e   move.b 0x5bdc57(pc), -0x162(a6)
           0x005c010e      1d7adb48fe9f   move.b 0x5bdc58(pc), -0x161(a6)
           0x005c0114      206e011a       movea.l 0x11a(a6), a0
           0x005c0118      2248           movea.l a0, a1
           0x005c011a      45fad944       lea.l 0x5bda60(pc), a2
           0x005c011e      7009           moveq 0x9, d0
       > 0x005c0120      12da           move.b (a2)+, (a1)+
       < 0x005c0122      51c8fffc       dbra d0, 0x5c0120
           0x005c0126      554f           subq.w 0x2, a7
           0x005c0128      486efea0       pea.l -0x160(a6)
           0x005c012c      4eb900404434   jsr fcn.00404434
           0x005c0132      584f           addq.w 0x4, a7
           0x005c0134      4a1f           tst.b (a7)+
       < 0x005c0136      67000380       beq.w 0x5c04b8
          0x005c013a      7e02           moveq 0x2, d7
          0x005c013c      302e0110       move.w 0x110(a6), d0
          0x005c0140      48c0           ext.l d0
          0x005c0142      81fc0008       divs.w 0x8, d0
          0x005c0146      2200           move.l d0, d1
          0x005c0148      4841           swap d1
          0x005c014a      4a41           tst.w d1
      < 0x005c014c      6c02           bge.b 0x5c0150
         0x005c014e      5041           addq.w 0x8, d1
      > 0x005c0150      4a41           tst.w d1
      < 0x005c0152      6722           beq.b 0x5c0176
         0x005c0154      3200           move.w d0, d1
         0x005c0156      e741           asl.w 0x3, d1
         0x005c0158      48c1           ext.l d1
         0x005c015a      5081           addq.l 0x8, d1
         0x005c015c      0481ffff8000   subi.l 0xffff8000, d1
         0x005c0162      0c810000ffff   cmpi.l 0xffff, d1
     < 0x005c0168      6302           bls.b 0x5c016c
        0x005c016a      4e4f           trap 0xf
     > 0x005c016c      0681ffff8000   addi.l 0xffff8000, d1
         0x005c0172      3d410110       move.w d1, 0x110(a6)
      > 0x005c0176      302e0112       move.w 0x112(a6), d0
          0x005c017a      c1ee0110       muls.w 0x110(a6), d0
          0x005c017e      2800           move.l d0, d4
          0x005c0180      7602           moveq 0x2, d3
          0x005c0182      4eb900406a74   jsr fcn.00406a74
          0x005c0188      594f           subq.w 0x4, a7
          0x005c018a      2f04           move.l d4, -(a7)
          0x005c018c      4eb9005c80ec   jsr AFS1_UTIL.afs1_blocks
          0x005c0192      584f           addq.w 0x4, a7
          0x005c0194      281f           move.l (a7)+, d4
          0x005c0196      4283           clr.l d3
          0x005c0198      362e0114       move.w 0x114(a6), d3
          0x005c019c      4eb900406b1a   jsr fcn.00406b1a
          0x005c01a2      594f           subq.w 0x4, a7
          0x005c01a4      2f2e0116       move.l 0x116(a6), -(a7)
          0x005c01a8      4eb9005c80ec   jsr AFS1_UTIL.afs1_blocks
          0x005c01ae      584f           addq.w 0x4, a7
          0x005c01b0      d89f           add.l (a7)+, d4
          0x005c01b2      2e04           move.l d4, d7
          0x005c01b4      5287           addq.l 0x1, d7
          0x005c01b6      554f           subq.w 0x2, a7
          0x005c01b8      1f2e000a       move.b 0xa(a6), -(a7)
          0x005c01bc      4eb9005aeeb2   jsr K2_TYPES.k2_afs_allowed
          0x005c01c2      544f           addq.w 0x2, a7
          0x005c01c4      4a1f           tst.b (a7)+
      < 0x005c01c6      6668           bne.b 0x5c0230
         0x005c01c8      9ec2           suba.w d2, a7
         0x005c01ca      1f2e000a       move.b 0xa(a6), -(a7)
         0x005c01ce      4eb9005afcd0   jsr K2_TYPES.k3_ftype_str
         0x005c01d4      544f           addq.w 0x2, a7
         0x005c01d6      487adadd       pea.l 0x5bdcb5(pc)
         0x005c01da      4878000a       pea.l 0xa
         0x005c01de      2f17           move.l (a7), -(a7)
         0x005c01e0      4eb9004047ea   jsr p_wts_o
         0x005c01e6      dec5           adda.w d5, a7
         0x005c01e8      486f0001       pea.l 0x1(a7)
         0x005c01ec      42a7           clr.l -(a7)
         0x005c01ee      1f6f00080003   move.b 0x8(a7), 0x3(a7)
         0x005c01f4      2f17           move.l (a7), -(a7)
         0x005c01f6      4eb9004047ea   jsr p_wts_o
         0x005c01fc      defc010c       adda.w 0x10c, a7
         0x005c0200      487adabe       pea.l 0x5bdcc0(pc)
         0x005c0204      4878001a       pea.l 0x1a
         0x005c0208      2f17           move.l (a7), -(a7)
         0x005c020a      4eb9004047ea   jsr p_wts_o
         0x005c0210      dec5           adda.w d5, a7
         0x005c0212      4eb900404946   jsr p_wtln_o
         0x005c0218      1d7adac1fe9e   move.b 0x5bdcdb(pc), -0x162(a6)
         0x005c021e      1d7adabcfe9f   move.b 0x5bdcdc(pc), -0x161(a6)
         0x005c0224      486efea0       pea.l -0x160(a6)
         0x005c0228      4eb900404468   jsr fcn.00404468
         0x005c022e      584f           addq.w 0x4, a7
      > 0x005c0230      4487           neg.l d7
          0x005c0232      554f           subq.w 0x2, a7
          0x005c0234      2f2e011e       move.l 0x11e(a6), -(a7)
          0x005c0238      554f           subq.w 0x2, a7
          0x005c023a      1f2e000a       move.b 0xa(a6), -(a7)
          0x005c023e      4eb9005aeda2   jsr K2_TYPES.k2_afs_extn
          0x005c0244      544f           addq.w 0x2, a7
          0x005c0246      2f07           move.l d7, -(a7)
          0x005c0248      48780000       pea.l 0x0
          0x005c024c      4850           pea.l (a0)
          0x005c024e      4853           pea.l (a3)
          0x005c0250      4eb9006077a8   jsr F10_FILELIST.f_create1
          0x005c0256      defc0016       adda.w 0x16, a7
          0x005c025a      4a1f           tst.b (a7)+
      < 0x005c025c      6618           bne.b 0x5c0276
         0x005c025e      9ec2           suba.w d2, a7
         0x005c0260      224f           movea.l a7, a1
         0x005c0262      45fada79       lea.l 0x5bdcdd(pc), a2
         0x005c0266      7023           moveq 0x23, d0
     > 0x005c0268      12da           move.b (a2)+, (a1)+
     < 0x005c026a      51c8fffc       dbra d0, 0x5c0268
         0x005c026e      284b           movea.l a3, a4
         0x005c0270      4ebafdb6       jsr AFS_FILER.error(pc)
         0x005c0274      dec2           adda.w d2, a7
      > 0x005c0276      9ec5           suba.w d5, a7
          0x005c0278      224f           movea.l a7, a1
          0x005c027a      2448           movea.l a0, a2
          0x005c027c      7009           moveq 0x9, d0
      > 0x005c027e      12da           move.b (a2)+, (a1)+
      < 0x005c0280      51c8fffc       dbra d0, 0x5c027e
          0x005c0284      2f07           move.l d7, -(a7)
          0x005c0286      4853           pea.l (a3)
          0x005c0288      486efe9e       pea.l -0x162(a6)
          0x005c028c      4ebafc3a       jsr AFS_FILER.check_file_spac(pc)
          0x005c0290      defc0016       adda.w 0x16, a7
          0x005c0294      4a1f           tst.b (a7)+
      < 0x005c0296      661c           bne.b 0x5c02b4
         0x005c0298      9ec2           suba.w d2, a7
         0x005c029a      224f           movea.l a7, a1
         0x005c029c      45fada80       lea.l 0x5bdd1e(pc), a2
         0x005c02a0      7004           moveq 0x4, d0
     > 0x005c02a2      22da           move.l (a2)+, (a1)+
     < 0x005c02a4      51c8fffc       dbra d0, 0x5c02a2
         0x005c02a8      32da           move.w (a2)+, (a1)+
         0x005c02aa      12da           move.b (a2)+, (a1)+
         0x005c02ac      284b           movea.l a3, a4
         0x005c02ae      4ebafd78       jsr AFS_FILER.error(pc)
         0x005c02b2      dec2           adda.w d2, a7
      > 0x005c02b4      422efff4       clr.b -0xc(a6)
          0x005c02b8      302e0110       move.w 0x110(a6), d0
          0x005c02bc      0c40ffff       cmpi.w 0xffff, d0
      < 0x005c02c0      6302           bls.b 0x5c02c4
         0x005c02c2      4e4f           trap 0xf
      > 0x005c02c4      3d40feec       move.w d0, -0x114(a6)
          0x005c02c8      302e0112       move.w 0x112(a6), d0
          0x005c02cc      0c40ffff       cmpi.w 0xffff, d0
      < 0x005c02d0      6302           bls.b 0x5c02d4
         0x005c02d2      4e4f           trap 0xf
      > 0x005c02d4      3d40feee       move.w d0, -0x112(a6)
          0x005c02d8      302e010c       move.w 0x10c(a6), d0
          0x005c02dc      0c40ffff       cmpi.w 0xffff, d0
      < 0x005c02e0      6302           bls.b 0x5c02e4
         0x005c02e2      4e4f           trap 0xf
      > 0x005c02e4      3d40fef0       move.w d0, -0x110(a6)
          0x005c02e8      302e010e       move.w 0x10e(a6), d0
          0x005c02ec      0c40ffff       cmpi.w 0xffff, d0
      < 0x005c02f0      6302           bls.b 0x5c02f4
         0x005c02f2      4e4f           trap 0xf
      > 0x005c02f4      3d40fef2       move.w d0, -0x10e(a6)
          0x005c02f8      102e000a       move.b 0xa(a6), d0
          0x005c02fc      4880           ext.w d0
          0x005c02fe      43fada36       lea.l 0x5bdd36(pc), a1
          0x005c0302      3200           move.w d0, d1
          0x005c0304      e649           lsr.w 0x3, d1
          0x005c0306      01311000       btst.l d0, (a1, d1.w)
      < 0x005c030a      6704           beq.b 0x5c0310
         0x005c030c      7c01           moveq 0x1, d6
     < 0x005c030e      6002           bra.b 0x5c0312
     > 0x005c0310      7c00           moveq 0x0, d6
     > 0x005c0312      594f           subq.w 0x4, a7
          0x005c0314      4886           ext.w d6
          0x005c0316      4dbc0007       chk.w 0x7, d6
          0x005c031a      1f06           move.b d6, -(a7)
          0x005c031c      1f390084169e   move.b 0x84169e, -(a7)
          0x005c0322      4417           neg.b (a7)
          0x005c0324      5217           addq.b 0x1, (a7)
          0x005c0326      102efff4       move.b -0xc(a6), d0
          0x005c032a      4880           ext.w d0
          0x005c032c      41bc0001       chk.w 0x1, d0
          0x005c0330      1f00           move.b d0, -(a7)
          0x005c0332      4eb9005eda68   jsr FILE_STRUCTURE.fs_get_format_c
          0x005c0338      5c4f           addq.w 0x6, a7
          0x005c033a      201f           move.l (a7)+, d0
          0x005c033c      0c800000ffff   cmpi.l 0xffff, d0
      < 0x005c0342      6302           bls.b 0x5c0346
         0x005c0344      4e4f           trap 0xf
      > 0x005c0346      3d40feea       move.w d0, -0x116(a6)
          0x005c034a      554f           subq.w 0x2, a7
          0x005c034c      3f3c0014       move.w 0x14, -(a7)
          0x005c0350      2f13           move.l (a3), -(a7)
          0x005c0352      486e000c       pea.l 0xc(a6)
          0x005c0356      4eb9005eedf6   jsr f_put_string
          0x005c035c      defc000a       adda.w 0xa, a7
          0x005c0360      4a1f           tst.b (a7)+
      < 0x005c0362      661c           bne.b 0x5c0380
         0x005c0364      9ec2           suba.w d2, a7
         0x005c0366      224f           movea.l a7, a1
         0x005c0368      45fad9d8       lea.l 0x5bdd42(pc), a2
         0x005c036c      700a           moveq 0xa, d0
     > 0x005c036e      22da           move.l (a2)+, (a1)+
     < 0x005c0370      51c8fffc       dbra d0, 0x5c036e
         0x005c0374      32da           move.w (a2)+, (a1)+
         0x005c0376      12da           move.b (a2)+, (a1)+
         0x005c0378      284b           movea.l a3, a4
         0x005c037a      4ebafd1a       jsr AFS_FILER.error_nolink(pc)
         0x005c037e      dec2           adda.w d2, a7
      > 0x005c0380      554f           subq.w 0x2, a7
          0x005c0382      3f3c0010       move.w 0x10, -(a7)
          0x005c0386      2f13           move.l (a3), -(a7)
          0x005c0388      43eefeea       lea.l -0x116(a6), a1
          0x005c038c      2f09           move.l a1, -(a7)
          0x005c038e      3f3c000a       move.w 0xa, -(a7)
          0x005c0392      4eb9005eed96   jsr f_put_field
          0x005c0398      dec5           adda.w d5, a7
          0x005c039a      4a1f           tst.b (a7)+
      < 0x005c039c      6618           bne.b 0x5c03b6
         0x005c039e      9ec2           suba.w d2, a7
         0x005c03a0      224f           movea.l a7, a1
         0x005c03a2      45fad9cd       lea.l 0x5bdd71(pc), a2
         0x005c03a6      7032           moveq 0x32, d0
     > 0x005c03a8      12da           move.b (a2)+, (a1)+
     < 0x005c03aa      51c8fffc       dbra d0, 0x5c03a8
         0x005c03ae      284b           movea.l a3, a4
         0x005c03b0      4ebafce4       jsr AFS_FILER.error_nolink(pc)
         0x005c03b4      dec2           adda.w d2, a7
      > 0x005c03b6      554f           subq.w 0x2, a7
          0x005c03b8      4280           clr.l d0
          0x005c03ba      302e0114       move.w 0x114(a6), d0
          0x005c03be      2f00           move.l d0, -(a7)
          0x005c03c0      2f2e0116       move.l 0x116(a6), -(a7)
          0x005c03c4      2f13           move.l (a3), -(a7)
          0x005c03c6      4eb9005e978e   jsr FILE_STRUCTURE.fs_set_nplanes_
          0x005c03cc      dec5           adda.w d5, a7
          0x005c03ce      4a1f           tst.b (a7)+
      < 0x005c03d0      6618           bne.b 0x5c03ea
         0x005c03d2      9ec2           suba.w d2, a7
         0x005c03d4      224f           movea.l a7, a1
         0x005c03d6      45fad9cc       lea.l 0x5bdda4(pc), a2
         0x005c03da      700d           moveq 0xd, d0
     > 0x005c03dc      22da           move.l (a2)+, (a1)+
     < 0x005c03de      51c8fffc       dbra d0, 0x5c03dc
         0x005c03e2      284b           movea.l a3, a4
         0x005c03e4      4ebafcb0       jsr AFS_FILER.error_nolink(pc)
         0x005c03e8      dec2           adda.w d2, a7
      > 0x005c03ea      554f           subq.w 0x2, a7
          0x005c03ec      102e000a       move.b 0xa(a6), d0
          0x005c03f0      4880           ext.w d0
          0x005c03f2      48c0           ext.l d0
          0x005c03f4      2f00           move.l d0, -(a7)
          0x005c03f6      2f13           move.l (a3), -(a7)
          0x005c03f8      4eb9005e9810   jsr FILE_STRUCTURE.fs_set_ftype
          0x005c03fe      504f           addq.w 0x8, a7
          0x005c0400      4a1f           tst.b (a7)+
      < 0x005c0402      6618           bne.b 0x5c041c
         0x005c0404      487ad9d7       pea.l 0x5bdddd(pc)
         0x005c0408      48780042       pea.l 0x42
         0x005c040c      2f17           move.l (a7), -(a7)
         0x005c040e      4eb9004047ea   jsr p_wts_o
         0x005c0414      dec5           adda.w d5, a7
         0x005c0416      4eb900404946   jsr p_wtln_o
      > 0x005c041c      9ec2           suba.w d2, a7
          0x005c041e      4eb90047481a   jsr fcn.0047481a
          0x005c0424      43eefef4       lea.l -0x10c(a6), a1
          0x005c0428      703f           moveq 0x3f, d0
      > 0x005c042a      22df           move.l (a7)+, (a1)+
      < 0x005c042c      51c8fffc       dbra d0, 0x5c042a
          0x005c0430      554f           subq.w 0x2, a7
          0x005c0432      3f3c0017       move.w 0x17, -(a7)
          0x005c0436      2f13           move.l (a3), -(a7)
          0x005c0438      486efef4       pea.l -0x10c(a6)
          0x005c043c      4eb9005eedf6   jsr f_put_string
          0x005c0442      defc000a       adda.w 0xa, a7
          0x005c0446      4a1f           tst.b (a7)+
      < 0x005c0448      6618           bne.b 0x5c0462
         0x005c044a      9ec2           suba.w d2, a7
         0x005c044c      224f           movea.l a7, a1
         0x005c044e      45fad9cf       lea.l 0x5bde1f(pc), a2
         0x005c0452      7039           moveq 0x39, d0
     > 0x005c0454      12da           move.b (a2)+, (a1)+
     < 0x005c0456      51c8fffc       dbra d0, 0x5c0454
         0x005c045a      284b           movea.l a3, a4
         0x005c045c      4ebafc38       jsr AFS_FILER.error_nolink(pc)
         0x005c0460      dec2           adda.w d2, a7
      > 0x005c0462      554f           subq.w 0x2, a7
          0x005c0464      1f3c0005       move.b 0x5, -(a7)
          0x005c0468      1f3c0006       move.b 0x6, -(a7)
          0x005c046c      48780000       pea.l 0x0
          0x005c0470      2f07           move.l d7, -(a7)
          0x005c0472      4853           pea.l (a3)
          0x005c0474      9efc000a       suba.w 0xa, a7
          0x005c0478      224f           movea.l a7, a1
          0x005c047a      2448           movea.l a0, a2
          0x005c047c      7009           moveq 0x9, d0
      > 0x005c047e      12da           move.b (a2)+, (a1)+
      < 0x005c0480      51c8fffc       dbra d0, 0x5c047e
          0x005c0484      486efe96       pea.l -0x16a(a6)
          0x005c0488      4eb9005ed4dc   jsr FILE_STRUCTURE.fs_file_addr
          0x005c048e      defc001e       adda.w 0x1e, a7
          0x005c0492      4a1f           tst.b (a7)+
      < 0x005c0494      6618           bne.b 0x5c04ae
         0x005c0496      9ec2           suba.w d2, a7
         0x005c0498      224f           movea.l a7, a1
         0x005c049a      45fad9bd       lea.l 0x5bde59(pc), a2
         0x005c049e      7033           moveq 0x33, d0
     > 0x005c04a0      12da           move.b (a2)+, (a1)+
     < 0x005c04a2      51c8fffc       dbra d0, 0x5c04a0
         0x005c04a6      284b           movea.l a3, a4
         0x005c04a8      4ebafb7e       jsr AFS_FILER.error(pc)
         0x005c04ac      dec2           adda.w d2, a7
      > 0x005c04ae      3d7ad9defe9e   move.w 0x5bde8e(pc), -0x162(a6)
      < 0x005c04b4      600000b0       bra.w 0x5c0566
      > 0x005c04b8      487ad9d7       pea.l 0x5bde91(pc)
          0x005c04bc      4878001a       pea.l 0x1a
          0x005c04c0      2f17           move.l (a7), -(a7)
          0x005c04c2      4eb9004047ea   jsr p_wts_o
          0x005c04c8      dec5           adda.w d5, a7
          0x005c04ca      486efe9e       pea.l -0x162(a6)
          0x005c04ce      48780002       pea.l 0x2
          0x005c04d2      2f17           move.l (a7), -(a7)
          0x005c04d4      4eb9004047ea   jsr p_wts_o
          0x005c04da      dec5           adda.w d5, a7
          0x005c04dc      4eb900404946   jsr p_wtln_o
          0x005c04e2      4853           pea.l (a3)
          0x005c04e4      4eb90060500e   jsr F9_FILERDWRT.f_free_block
          0x005c04ea      514f           subq.w 0x8, a7
          0x005c04ec      224f           movea.l a7, a1
          0x005c04ee      2448           movea.l a0, a2
          0x005c04f0      7009           moveq 0x9, d0
      > 0x005c04f2      12da           move.b (a2)+, (a1)+
      < 0x005c04f4      51c8fffc       dbra d0, 0x5c04f2
          0x005c04f8      2f3ad56c       move.l 0x5bda66(pc), -(a7)
          0x005c04fc      2f3ad564       move.l 0x5bda62(pc), -(a7)
          0x005c0500      3f3ad55e       move.w 0x5bda60(pc), -(a7)
          0x005c0504      4eb9005ef3d2   jsr F2_UTILITY.f_fids_eq
          0x005c050a      defc0014       adda.w 0x14, a7
          0x005c050e      4a1f           tst.b (a7)+
      < 0x005c0510      6654           bne.b 0x5c0566
         0x005c0512      9ec5           suba.w d5, a7
         0x005c0514      224f           movea.l a7, a1
         0x005c0516      2448           movea.l a0, a2
         0x005c0518      7009           moveq 0x9, d0
     > 0x005c051a      12da           move.b (a2)+, (a1)+
     < 0x005c051c      51c8fffc       dbra d0, 0x5c051a
         0x005c0520      4eb900605066   jsr F9_FILERDWRT.f_delete
         0x005c0526      defc000a       adda.w 0xa, a7
         0x005c052a      4a1f           tst.b (a7)+
     < 0x005c052c      6638           bne.b 0x5c0566
        0x005c052e      9ec2           suba.w d2, a7
        0x005c0530      4eb900408ec0   jsr p_err_string
        0x005c0536      487ad974       pea.l 0x5bdeac(pc)
        0x005c053a      4878002d       pea.l 0x2d
        0x005c053e      2f17           move.l (a7), -(a7)
        0x005c0540      4eb9004047ea   jsr p_wts_o
        0x005c0546      dec5           adda.w d5, a7
        0x005c0548      486f0001       pea.l 0x1(a7)
        0x005c054c      42a7           clr.l -(a7)
        0x005c054e      1f6f00080003   move.b 0x8(a7), 0x3(a7)
        0x005c0554      2f17           move.l (a7), -(a7)
        0x005c0556      4eb9004047ea   jsr p_wts_o
        0x005c055c      defc010c       adda.w 0x10c, a7
        0x005c0560      4eb900404946   jsr p_wtln_o
     > 0x005c0566      4853           pea.l (a3)
           0x005c0568      4eb90060500e   jsr F9_FILERDWRT.f_free_block
           0x005c056e      584f           addq.w 0x4, a7
           0x005c0570      3d6efe9e0122   move.w -0x162(a6), 0x122(a6)
           0x005c0576      4cdf1fff       movem.l (a7)+, d0-d7/a0-a4
           0x005c057a      4e5e           unlk a6
           0x005c057c      4e75           rts
            ; CALL XREF from K1_AFS_ONLY.k1_start_search @ 0x5aba8e
 100: AFS_FILER.afs_start_searc ();
           ; var int32_t var_26b2h @ a6-0x26b2
           0x005c057e      4e56ffde       link.w a6, 0xffde
           0x005c0582      bfd5           cmpa.l (a5), a7
       < 0x005c0584      6206           bhi.b 0x5c058c
          0x005c0586      44fc0002       move.w 0x2, ccr
          0x005c058a      4e76           trapv
       > 0x005c058c      defc001c       adda.w 0x1c, a7
           0x005c0590      48e780e0       movem.l d0/a0-a2, -(a7)
           0x005c0594      45eefffa       lea.l -0x6(a6), a2
           0x005c0598      4852           pea.l (a2)
           0x005c059a      48780104       pea.l 0x104
           0x005c059e      4eb900403a92   jsr p_New
           0x005c05a4      504f           addq.w 0x8, a7
           0x005c05a6      2052           movea.l (a2), a0
           0x005c05a8      20ae0114       move.l 0x114(a6), (a0)
           0x005c05ac      41e80004       lea.l 0x4(a0), a0
           0x005c05b0      43ee0014       lea.l 0x14(a6), a1
           0x005c05b4      303c00ff       move.w 0xff, d0
       > 0x005c05b8      10d9           move.b (a1)+, (a0)+
       < 0x005c05ba      51c8fffc       dbra d0, 0x5c05b8
           0x005c05be      206e000c       movea.l 0xc(a6), a0
           0x005c05c2      2092           move.l (a2), (a0)
           0x005c05c4      206e0008       movea.l 0x8(a6), a0
           0x005c05c8      102e0012       move.b 0x12(a6), d0
           0x005c05cc      4880           ext.w d0
           0x005c05ce      48c0           ext.l d0
           0x005c05d0      2f00           move.l d0, -(a7)
           0x005c05d2      209f           move.l (a7)+, (a0)
           0x005c05d4      3d7ad94e0118   move.w 0x5bdf24(pc), 0x118(a6)
           0x005c05da      4cdf0701       movem.l (a7)+, d0/a0-a2
           0x005c05de      4e5e           unlk a6
           0x005c05e0      4e75           rts
            ; CALL XREFS from AFS_FILER.rematch @ 0x5c06c8, 0x5c06d0
 70: AFS_FILER.force_upper ();
           0x005c05e2      4e56ffee       link.w a6, 0xffee
           0x005c05e6      bfd5           cmpa.l (a5), a7
       < 0x005c05e8      6206           bhi.b 0x5c05f0
          0x005c05ea      44fc0002       move.w 0x2, ccr
          0x005c05ee      4e76           trapv
       > 0x005c05f0      defc0012       adda.w 0x12, a7
           0x005c05f4      48e7e000       movem.l d0-d2, -(a7)
           0x005c05f8      7461           moveq 0x61, d2
           0x005c05fa      102e0008       move.b 0x8(a6), d0
           0x005c05fe      b002           cmp.b d2, d0
       < 0x005c0600      651a           bcs.b 0x5c061c
          0x005c0602      0c00007a       cmpi.b 0x7a, d0
      < 0x005c0606      6214           bhi.b 0x5c061c
         0x005c0608      0280000000ff   andi.l 0xff, d0
         0x005c060e      3200           move.w d0, d1
         0x005c0610      06410041       addi.w 0x41, d1
         0x005c0614      9242           sub.w d2, d1
         0x005c0616      1d41000a       move.b d1, 0xa(a6)
     < 0x005c061a      6004           bra.b 0x5c0620
     > 0x005c061c      1d40000a       move.b d0, 0xa(a6)
     > 0x005c0620      4cdf0007       movem.l (a7)+, d0-d2
           0x005c0624      4e5e           unlk a6
           0x005c0626      4e75           rts
            ; CALL XREF from AFS_FILER.rematch @ 0x5c06b0
            ; CALL XREF from AFS_FILER.name_matches @ 0x5c0722
 214: AFS_FILER.rematch ();
           0x005c0628      4e56ffac       link.w a6, 0xffac
           0x005c062c      bfd5           cmpa.l (a5), a7
       < 0x005c062e      6206           bhi.b 0x5c0636
          0x005c0630      44fc0002       move.w 0x2, ccr
          0x005c0634      4e76           trapv
       > 0x005c0636      defc0052       adda.w 0x52, a7
           0x005c063a      48e7ffe0       movem.l d0-d7/a0-a2, -(a7)
           0x005c063e      41ee0008       lea.l 0x8(a6), a0
           0x005c0642      43ee000c       lea.l 0xc(a6), a1
           0x005c0646      45ee0010       lea.l 0x10(a6), a2
           0x005c064a      780e           moveq 0xe, d4
           0x005c064c      7a20           moveq 0x20, d5
       > 0x005c064e      7c01           moveq 0x1, d6
          0x005c0650      2011           move.l (a1), d0
          0x005c0652      b084           cmp.l d4, d0
      < 0x005c0654      6f1c           ble.b 0x5c0672
         0x005c0656      2210           move.l (a0), d1
         0x005c0658      b284           cmp.l d4, d1
     < 0x005c065a      6f08           ble.b 0x5c0664
  > 0x005c065c      14bc0001       move.b 0x1, (a2)
 < 0x005c0660      6000008e       bra.w 0x5c06f0
 > 0x005c0664      1434180d       move.b 0xd(a4, d1.l), d2
     0x005c0668      b405           cmp.b d5, d2
 < 0x005c066a      6602           bne.b 0x5c066e
 < 0x005c066c      60ee           bra.b 0x5c065c
  > 0x005c066e      4212           clr.b (a2)
  < 0x005c0670      607e           bra.b 0x5c06f0
  > 0x005c0672      2210           move.l (a0), d1
      0x005c0674      4a2c000c       tst.b 0xc(a4)
  < 0x005c0678      6748           beq.b 0x5c06c2
     0x005c067a      1434180d       move.b 0xd(a4, d1.l), d2
     0x005c067e      0c02002a       cmpi.b 0x2a, d2
 < 0x005c0682      663e           bne.b 0x5c06c2
    0x005c0684      2081           move.l d1, (a0)
    0x005c0686      5290           addq.l 0x1, (a0)
    0x005c0688      2410           move.l (a0), d2
    0x005c068a      b484           cmp.l d4, d2
 < 0x005c068c      6f02           ble.b 0x5c0690
 < 0x005c068e      60cc           bra.b 0x5c065c
 > 0x005c0690      1634280d       move.b 0xd(a4, d2.l), d3
     0x005c0694      b605           cmp.b d5, d3
 < 0x005c0696      6602           bne.b 0x5c069a
 < 0x005c0698      60c2           bra.b 0x5c065c
 > 0x005c069a      7e00           moveq 0x0, d7
  > 0x005c069c      4a07           tst.b d7
 < 0x005c069e      661c           bne.b 0x5c06bc
    0x005c06a0      2611           move.l (a1), d3
    0x005c06a2      0c830000000f   cmpi.l 0xf, d3
 < 0x005c06a8      6e12           bgt.b 0x5c06bc
    0x005c06aa      554f           subq.w 0x2, a7
    0x005c06ac      2f11           move.l (a1), -(a7)
    0x005c06ae      2f10           move.l (a0), -(a7)
    0x005c06b0      4ebaff76       jsr AFS_FILER.rematch(pc)
    0x005c06b4      504f           addq.w 0x8, a7
    0x005c06b6      1e1f           move.b (a7)+, d7
    0x005c06b8      5291           addq.l 0x1, (a1)
 < 0x005c06ba      60e0           bra.b 0x5c069c
 > 0x005c06bc      1487           move.b d7, (a2)
      0x005c06be      7c01           moveq 0x1, d6
  < 0x005c06c0      602e           bra.b 0x5c06f0
 > 0x005c06c2      554f           subq.w 0x2, a7
       0x005c06c4      1f34180d       move.b 0xd(a4, d1.l), -(a7)
       0x005c06c8      4ebaff18       jsr AFS_FILER.force_upper(pc)
       0x005c06cc      1f34081d       move.b 0x1d(a4, d0.l), -(a7)
       0x005c06d0      4ebaff10       jsr AFS_FILER.force_upper(pc)
       0x005c06d4      544f           addq.w 0x2, a7
       0x005c06d6      142f0002       move.b 0x2(a7), d2
       0x005c06da      b41f           cmp.b (a7)+, d2
   < 0x005c06dc      660e           bne.b 0x5c06ec
      0x005c06de      7c00           moveq 0x0, d6
      0x005c06e0      2081           move.l d1, (a0)
      0x005c06e2      5290           addq.l 0x1, (a0)
      0x005c06e4      2280           move.l d0, (a1)
      0x005c06e6      5291           addq.l 0x1, (a1)
      0x005c06e8      544f           addq.w 0x2, a7
  < 0x005c06ea      6004           bra.b 0x5c06f0
  > 0x005c06ec      4212           clr.b (a2)
      0x005c06ee      544f           addq.w 0x2, a7
 > 0x005c06f0      4a06           tst.b d6
       < 0x005c06f2      6700ff5a       beq.w 0x5c064e
           0x005c06f6      4cdf07ff       movem.l (a7)+, d0-d7/a0-a2
           0x005c06fa      4e5e           unlk a6
           0x005c06fc      4e75           rts
            ; CALL XREF from AFS_FILER.afs_linear_sear @ 0x5c0a8a
 58: AFS_FILER.name_matches ();
           0x005c06fe      4e56ffee       link.w a6, 0xffee
           0x005c0702      bfd5           cmpa.l (a5), a7
       < 0x005c0704      6206           bhi.b 0x5c070c
          0x005c0706      44fc0002       move.w 0x2, ccr
          0x005c070a      4e76           trapv
       > 0x005c070c      defc0012       adda.w 0x12, a7
           0x005c0710      48e70008       movem.l a4, -(a7)
           0x005c0714      554f           subq.w 0x2, a7
           0x005c0716      48780001       pea.l 0x1
           0x005c071a      48780001       pea.l 0x1
           0x005c071e      49eefffc       lea.l -0x4(a6), a4
           0x005c0722      4ebaff04       jsr AFS_FILER.rematch(pc)
           0x005c0726      504f           addq.w 0x8, a7
           0x005c0728      286efffc       movea.l -0x4(a6), a4
           0x005c072c      1d5f002a       move.b (a7)+, 0x2a(a6)
           0x005c0730      4cdf1000       movem.l (a7)+, a4
           0x005c0734      4e5e           unlk a6
           0x005c0736      4e75           rts
            ; CALL XREF from AFS_FILER.afs_find_next_f @ 0x5c0bc8
            ; CALL XREF from AFS_FILER.afs_find_file @ 0x5c0cb0
 926: AFS_FILER.afs_linear_sear ();
           ; var int32_t var_2a84h @ a6-0x2a84
           ; var int32_t var_2a7fh @ a6-0x2a7f
           ; var int32_t var_29eeh @ a6-0x29ee
           ; var int32_t var_29ech @ a6-0x29ec
           ; var int32_t var_29eah @ a6-0x29ea
           ; var int32_t var_29e8h @ a6-0x29e8
           ; var int32_t var_29a4h @ a6-0x29a4
           ; var int32_t var_2860h @ a6-0x2860
           ; var int32_t var_283eh @ a6-0x283e
           ; var int32_t var_2839h @ a6-0x2839
           0x005c0738      4e56fcf4       link.w a6, 0xfcf4
           0x005c073c      bfd5           cmpa.l (a5), a7
       < 0x005c073e      6206           bhi.b 0x5c0746
          0x005c0740      44fc0002       move.w 0x2, ccr
          0x005c0744      4e76           trapv
       > 0x005c0746      defc0142       adda.w 0x142, a7
           0x005c074a      48e7fff8       movem.l d0-d7/a0-a4, -(a7)
           0x005c074e      47eefe80       lea.l -0x180(a6), a3
           0x005c0752      740e           moveq 0xe, d2
           0x005c0754      760c           moveq 0xc, d3
           0x005c0756      283cffff0001   move.l 0xffff0001, d4
           0x005c075c      7c00           moveq 0x0, d6
           0x005c075e      1d7ad7c70116   move.b 0x5bdf27(pc), 0x116(a6)
           0x005c0764      1d7ad7c20117   move.b 0x5bdf28(pc), 0x117(a6)
           0x005c076a      4a2e010e       tst.b 0x10e(a6)
       < 0x005c076e      6610           bne.b 0x5c0780
          0x005c0770      4853           pea.l (a3)
          0x005c0772      486efe82       pea.l -0x17e(a6)
          0x005c0776      4eb9005aee84   jsr K2_TYPES.k2_afs_any_t_li
          0x005c077c      504f           addq.w 0x8, a7
      < 0x005c077e      6014           bra.b 0x5c0794
      > 0x005c0780      554f           subq.w 0x2, a7
          0x005c0782      1f2e010e       move.b 0x10e(a6), -(a7)
          0x005c0786      4eb9005aeda2   jsr K2_TYPES.k2_afs_extn
          0x005c078c      544f           addq.w 0x2, a7
          0x005c078e      369f           move.w (a7)+, (a3)
          0x005c0790      3d53fe82       move.w (a3), -0x17e(a6)
      > 0x005c0794      4a2e010c       tst.b 0x10c(a6)
       < 0x005c0798      670c           beq.b 0x5c07a6
          0x005c079a      486e000c       pea.l 0xc(a6)
          0x005c079e      4eb900408fa8   jsr p_upper
          0x005c07a4      584f           addq.w 0x4, a7
       > 0x005c07a6      554f           subq.w 0x2, a7
           0x005c07a8      486efe36       pea.l -0x1ca(a6)
           0x005c07ac      4eb900404434   jsr fcn.00404434
           0x005c07b2      584f           addq.w 0x4, a7
           0x005c07b4      4a1f           tst.b (a7)+
       < 0x005c07b6      67000316       beq.w 0x5c0ace
          0x005c07ba      206e0110       movea.l 0x110(a6), a0
      > 0x005c07be      4a06           tst.b d6
     < 0x005c07c0      6600030c       bne.w 0x5c0ace
        0x005c07c4      554f           subq.w 0x2, a7
        0x005c07c6      4eb900402f52   jsr p_Flagged
        0x005c07cc      4a1f           tst.b (a7)+
    < 0x005c07ce      660002fe       bne.w 0x5c0ace
       0x005c07d2      554f           subq.w 0x2, a7
       0x005c07d4      4850           pea.l (a0)
       0x005c07d6      3f13           move.w (a3), -(a7)
       0x005c07d8      3f2efe82       move.w -0x17e(a6), -(a7)
       0x005c07dc      1f2e0114       move.b 0x114(a6), -(a7)
       0x005c07e0      486efe84       pea.l -0x17c(a6)
       0x005c07e4      4eb900607986   jsr F10_FILELIST.f_find_file
       0x005c07ea      dec2           adda.w d2, a7
       0x005c07ec      4a1f           tst.b (a7)+
   < 0x005c07ee      6652           bne.b 0x5c0842
      0x005c07f0      554f           subq.w 0x2, a7
      0x005c07f2      4eb9005ef980   jsr F2_UTILITY.f_eof
      0x005c07f8      4a1f           tst.b (a7)+
  < 0x005c07fa      6708           beq.b 0x5c0804
     0x005c07fc      3d7ad7a00116   move.w 0x5bdf9e(pc), 0x116(a6)
 < 0x005c0802      6038           bra.b 0x5c083c
 > 0x005c0804      9efc0010       suba.w 0x10, a7
     0x005c0808      224f           movea.l a7, a1
     0x005c080a      45fad795       lea.l 0x5bdfa1(pc), a2
     0x005c080e      700e           moveq 0xe, d0
 > 0x005c0810      12da           move.b (a2)+, (a1)+
 < 0x005c0812      51c8fffc       dbra d0, 0x5c0810
     0x005c0816      4857           pea.l (a7)
     0x005c0818      48780001       pea.l 0x1
     0x005c081c      4878000f       pea.l 0xf
     0x005c0820      1f04           move.b d4, -(a7)
     0x005c0822      4227           clr.b -(a7)
     0x005c0824      43eefed6       lea.l -0x12a(a6), a1
     0x005c0828      7011           moveq 0x11, d0
 > 0x005c082a      2f21           move.l -(a1), -(a7)
 < 0x005c082c      51c8fffc       dbra d0, 0x5c082a
     0x005c0830      3f21           move.w -(a1), -(a7)
     0x005c0832      4eb9005c6e76   jsr AFS1_UTIL.afs1_abort
     0x005c0838      defc006a       adda.w 0x6a, a7
 > 0x005c083c      7c01           moveq 0x1, d6
  < 0x005c083e      6000028a       bra.w 0x5c0aca
  > 0x005c0842      302efe84       move.w -0x17c(a6), d0
      0x005c0846      b06efe82       cmp.w -0x17e(a6), d0
  < 0x005c084a      6206           bhi.b 0x5c0852
     0x005c084c      b053           cmp.w (a3), d0
 < 0x005c084e      6400008a       bcc.w 0x5c08da
 > 0x005c0852      487ad75d       pea.l 0x5bdfb1(pc)
     0x005c0856      48780028       pea.l 0x28
     0x005c085a      2f17           move.l (a7), -(a7)
     0x005c085c      4eb9004047ea   jsr p_wts_o
     0x005c0862      dec3           adda.w d3, a7
     0x005c0864      487ad774       pea.l 0x5bdfda(pc)
     0x005c0868      4878000b       pea.l 0xb
     0x005c086c      2f17           move.l (a7), -(a7)
     0x005c086e      4eb9004047ea   jsr p_wts_o
     0x005c0874      dec3           adda.w d3, a7
     0x005c0876      4281           clr.l d1
     0x005c0878      3213           move.w (a3), d1
     0x005c087a      2f01           move.l d1, -(a7)
     0x005c087c      48780000       pea.l 0x0
     0x005c0880      4eb9004070e4   jsr p_wti_o
     0x005c0886      504f           addq.w 0x8, a7
     0x005c0888      487ad75c       pea.l 0x5bdfe6(pc)
     0x005c088c      48780003       pea.l 0x3
     0x005c0890      2f17           move.l (a7), -(a7)
     0x005c0892      4eb9004047ea   jsr p_wts_o
     0x005c0898      dec3           adda.w d3, a7
     0x005c089a      4281           clr.l d1
     0x005c089c      322efe82       move.w -0x17e(a6), d1
     0x005c08a0      2f01           move.l d1, -(a7)
     0x005c08a2      48780000       pea.l 0x0
     0x005c08a6      4eb9004070e4   jsr p_wti_o
     0x005c08ac      504f           addq.w 0x8, a7
     0x005c08ae      487ad73a       pea.l 0x5bdfea(pc)
     0x005c08b2      4878000b       pea.l 0xb
     0x005c08b6      2f17           move.l (a7), -(a7)
     0x005c08b8      4eb9004047ea   jsr p_wts_o
     0x005c08be      dec3           adda.w d3, a7
     0x005c08c0      02800000ffff   andi.l 0xffff, d0
     0x005c08c6      2f00           move.l d0, -(a7)
     0x005c08c8      48780000       pea.l 0x0
     0x005c08cc      4eb9004070e4   jsr p_wti_o
     0x005c08d2      504f           addq.w 0x8, a7
     0x005c08d4      4eb900404946   jsr p_wtln_o
 > 0x005c08da      2d44fe88       move.l d4, -0x178(a6)
      0x005c08de      9ec3           suba.w d3, a7
      0x005c08e0      224f           movea.l a7, a1
      0x005c08e2      2448           movea.l a0, a2
      0x005c08e4      7009           moveq 0x9, d0
  > 0x005c08e6      12da           move.b (a2)+, (a1)+
  < 0x005c08e8      51c8fffc       dbra d0, 0x5c08e6
      0x005c08ec      4227           clr.b -(a7)
      0x005c08ee      486efe88       pea.l -0x178(a6)
      0x005c08f2      4eb9006082de   jsr F10_FILELIST.f_get_header
      0x005c08f8      defc0010       adda.w 0x10, a7
      0x005c08fc      4a1f           tst.b (a7)+
  < 0x005c08fe      663a           bne.b 0x5c093a
     0x005c0900      9ec2           suba.w d2, a7
     0x005c0902      224f           movea.l a7, a1
     0x005c0904      45fad6ff       lea.l 0x5be005(pc), a2
     0x005c0908      700d           moveq 0xd, d0
 > 0x005c090a      12da           move.b (a2)+, (a1)+
 < 0x005c090c      51c8fffc       dbra d0, 0x5c090a
     0x005c0910      4857           pea.l (a7)
     0x005c0912      48780001       pea.l 0x1
     0x005c0916      4878000e       pea.l 0xe
     0x005c091a      1f04           move.b d4, -(a7)
     0x005c091c      4227           clr.b -(a7)
     0x005c091e      43eefed6       lea.l -0x12a(a6), a1
     0x005c0922      7011           moveq 0x11, d0
 > 0x005c0924      2f21           move.l -(a1), -(a7)
 < 0x005c0926      51c8fffc       dbra d0, 0x5c0924
     0x005c092a      3f21           move.w -(a1), -(a7)
     0x005c092c      4eb9005c6e76   jsr AFS1_UTIL.afs1_abort
     0x005c0932      defc0068       adda.w 0x68, a7
 < 0x005c0936      60000192       bra.w 0x5c0aca
 > 0x005c093a      9efc0100       suba.w 0x100, a7
     0x005c093e      3f3c0014       move.w 0x14, -(a7)
     0x005c0942      2f2efe88       move.l -0x178(a6), -(a7)
     0x005c0946      4eb9005eed64   jsr f_get_string
     0x005c094c      5c4f           addq.w 0x6, a7
     0x005c094e      43eeff00       lea.l -0x100(a6), a1
     0x005c0952      703f           moveq 0x3f, d0
 > 0x005c0954      22df           move.l (a7)+, (a1)+
 < 0x005c0956      51c8fffc       dbra d0, 0x5c0954
     0x005c095a      486efe88       pea.l -0x178(a6)
     0x005c095e      4eb90060500e   jsr F9_FILERDWRT.f_free_block
     0x005c0964      584f           addq.w 0x4, a7
     0x005c0966      486eff00       pea.l -0x100(a6)
     0x005c096a      4eb900408fa8   jsr p_upper
     0x005c0970      584f           addq.w 0x4, a7
     0x005c0972      4a2e010c       tst.b 0x10c(a6)
 < 0x005c0976      6748           beq.b 0x5c09c0
    0x005c0978      4280           clr.l d0
    0x005c097a      102eff00       move.b -0x100(a6), d0
    0x005c097e      3e00           move.w d0, d7
    0x005c0980      4280           clr.l d0
    0x005c0982      102e000c       move.b 0xc(a6), d0
    0x005c0986      be40           cmp.w d0, d7
 < 0x005c0988      66000130       bne.w 0x5c0aba
 > 0x005c098c      7000           moveq 0x0, d0
    0x005c098e      43eefe36       lea.l -0x1ca(a6), a1
    0x005c0992      43f17000       lea.l (a1, d7.w), a1
    0x005c0996      122900ca       move.b 0xca(a1), d1
    0x005c099a      b22901d6       cmp.b 0x1d6(a1), d1
 < 0x005c099e      6602           bne.b 0x5c09a2
    0x005c09a0      5200           addq.b 0x1, d0
 > 0x005c09a2      1c00           move.b d0, d6
    0x005c09a4      48c7           ext.l d7
    0x005c09a6      5387           subq.l 0x1, d7
    0x005c09a8      4a06           tst.b d6
 < 0x005c09aa      6704           beq.b 0x5c09b0
    0x005c09ac      4a47           tst.w d7
 < 0x005c09ae      66dc           bne.b 0x5c098c
 > 0x005c09b0      4a06           tst.b d6
 < 0x005c09b2      67000106       beq.w 0x5c0aba
    0x005c09b6      3d7ad65c0116   move.w 0x5be014(pc), 0x116(a6)
 < 0x005c09bc      600000fc       bra.w 0x5c0aba
 > 0x005c09c0      102e010e       move.b 0x10e(a6), d0
     0x005c09c4      4880           ext.w d0
     0x005c09c6      43fad64e       lea.l 0x5be016(pc), a1
     0x005c09ca      3200           move.w d0, d1
     0x005c09cc      e649           lsr.w 0x3, d1
     0x005c09ce      01311000       btst.l d0, (a1, d1.w)
 < 0x005c09d2      670000c0       beq.w 0x5c0a94
    0x005c09d6      43eefed6       lea.l -0x12a(a6), a1
    0x005c09da      45fad647       lea.l 0x5be023(pc), a2
    0x005c09de      700d           moveq 0xd, d0
 > 0x005c09e0      12da           move.b (a2)+, (a1)+
 < 0x005c09e2      51c8fffc       dbra d0, 0x5c09e0
    0x005c09e6      4280           clr.l d0
    0x005c09e8      102eff00       move.b -0x100(a6), d0
    0x005c09ec      2d40fefa       move.l d0, -0x106(a6)
    0x005c09f0      b082           cmp.l d2, d0
 < 0x005c09f2      6f04           ble.b 0x5c09f8
    0x005c09f4      2d42fefa       move.l d2, -0x106(a6)
 > 0x005c09f8      7a01           moveq 0x1, d5
 > 0x005c09fa      baaefefa       cmp.l -0x106(a6), d5
 < 0x005c09fe      6e12           bgt.b 0x5c0a12
    0x005c0a00      43eefe36       lea.l -0x1ca(a6), a1
    0x005c0a04      43f15800       lea.l (a1, d5.l), a1
    0x005c0a08      136900ca009f   move.b 0xca(a1), 0x9f(a1)
    0x005c0a0e      5285           addq.l 0x1, d5
 < 0x005c0a10      68e8           bvc.b 0x5c09fa
 > 0x005c0a12      3d7c8000fee4   move.w 0x8000, -0x11c(a6)
    0x005c0a18      2d7ad618fee6   move.l 0x5be032(pc), -0x11a(a6)
    0x005c0a1e      2d7ad616feea   move.l 0x5be036(pc), -0x116(a6)
    0x005c0a24      2d7ad614feee   move.l 0x5be03a(pc), -0x112(a6)
    0x005c0a2a      3d7ad612fef2   move.w 0x5be03e(pc), -0x10e(a6)
    0x005c0a30      4280           clr.l d0
    0x005c0a32      102e000c       move.b 0xc(a6), d0
    0x005c0a36      2d40fefa       move.l d0, -0x106(a6)
    0x005c0a3a      b082           cmp.l d2, d0
 < 0x005c0a3c      6f04           ble.b 0x5c0a42
    0x005c0a3e      2d42fefa       move.l d2, -0x106(a6)
 > 0x005c0a42      7a01           moveq 0x1, d5
 > 0x005c0a44      baaefefa       cmp.l -0x106(a6), d5
 < 0x005c0a48      6e12           bgt.b 0x5c0a5c
    0x005c0a4a      43eefe36       lea.l -0x1ca(a6), a1
    0x005c0a4e      43f15800       lea.l (a1, d5.l), a1
    0x005c0a52      136901d600af   move.b 0x1d6(a1), 0xaf(a1)
    0x005c0a58      5285           addq.l 0x1, d5
 < 0x005c0a5a      68e8           bvc.b 0x5c0a44
 > 0x005c0a5c      3d7c8000fef4   move.w 0x8000, -0x10c(a6)
    0x005c0a62      554f           subq.w 0x2, a7
    0x005c0a64      2f2efee2       move.l -0x11e(a6), -(a7)
    0x005c0a68      2f2efede       move.l -0x122(a6), -(a7)
    0x005c0a6c      2f2efeda       move.l -0x126(a6), -(a7)
    0x005c0a70      2f2efed6       move.l -0x12a(a6), -(a7)
    0x005c0a74      2f2efef2       move.l -0x10e(a6), -(a7)
    0x005c0a78      2f2efeee       move.l -0x112(a6), -(a7)
    0x005c0a7c      2f2efeea       move.l -0x116(a6), -(a7)
    0x005c0a80      2f2efee6       move.l -0x11a(a6), -(a7)
    0x005c0a84      1f04           move.b d4, -(a7)
    0x005c0a86      49eefe36       lea.l -0x1ca(a6), a4
    0x005c0a8a      4ebafc72       jsr AFS_FILER.name_matches(pc)
    0x005c0a8e      defc0022       adda.w 0x22, a7
 < 0x005c0a92      6024           bra.b 0x5c0ab8
 > 0x005c0a94      554f           subq.w 0x2, a7
     0x005c0a96      4280           clr.l d0
     0x005c0a98      102eff00       move.b -0x100(a6), d0
     0x005c0a9c      3f00           move.w d0, -(a7)
     0x005c0a9e      43eeff00       lea.l -0x100(a6), a1
     0x005c0aa2      2f09           move.l a1, -(a7)
     0x005c0aa4      5297           addq.l 0x1, (a7)
     0x005c0aa6      43ee000c       lea.l 0xc(a6), a1
     0x005c0aaa      2f09           move.l a1, -(a7)
     0x005c0aac      5297           addq.l 0x1, (a7)
     0x005c0aae      4eb900473f94   jsr fcn.00473f94
     0x005c0ab4      defc000a       adda.w 0xa, a7
 > 0x005c0ab8      1c1f           move.b (a7)+, d6
 > 0x005c0aba      4a06           tst.b d6
 < 0x005c0abc      670c           beq.b 0x5c0aca
    0x005c0abe      1d7ad5810116   move.b 0x5be041(pc), 0x116(a6)
    0x005c0ac4      1d7ad57c0117   move.b 0x5be042(pc), 0x117(a6)
 < 0x005c0aca      6000fcf2       bra.w 0x5c07be
    > 0x005c0ace      4cdf1fff       movem.l (a7)+, d0-d7/a0-a4
           0x005c0ad2      4e5e           unlk a6
           0x005c0ad4      4e75           rts
            ; CALL XREF from K1_AFS_ONLY.k1_find_next_fi @ 0x5abb24
 262: AFS_FILER.afs_find_next_f ();
           ; var int32_t var_2ab0h @ a6-0x2ab0
           0x005c0ad6      4e56fdc6       link.w a6, 0xfdc6
           0x005c0ada      bfd5           cmpa.l (a5), a7
       < 0x005c0adc      6206           bhi.b 0x5c0ae4
          0x005c0ade      44fc0002       move.w 0x2, ccr
          0x005c0ae2      4e76           trapv
       > 0x005c0ae4      defc0134       adda.w 0x134, a7
           0x005c0ae8      48e7c1f0       movem.l d0-d1/d7/a0-a3, -(a7)
           0x005c0aec      47eefefa       lea.l -0x106(a6), a3
           0x005c0af0      72ff           moveq 0xff, d1
           0x005c0af2      3d7ad5500020   move.w 0x5be044(pc), 0x20(a6)
           0x005c0af8      594f           subq.w 0x4, a7
           0x005c0afa      206e0014       movea.l 0x14(a6), a0
           0x005c0afe      2f10           move.l (a0), -(a7)
           0x005c0b00      4ebaf224       jsr AFS_FILER.gen_search_ptr(pc)
           0x005c0b04      584f           addq.w 0x4, a7
           0x005c0b06      2d5ffffc       move.l (a7)+, -0x4(a6)
           0x005c0b0a      4a2e000a       tst.b 0xa(a6)
       < 0x005c0b0e      6730           beq.b 0x5c0b40
          0x005c0b10      206e0018       movea.l 0x18(a6), a0
          0x005c0b14      20280004       move.l 0x4(a0), d0
          0x005c0b18      b081           cmp.l d1, d0
      < 0x005c0b1a      6724           beq.b 0x5c0b40
         0x005c0b1c      487ad55d       pea.l 0x5be07b(pc)
         0x005c0b20      4878001c       pea.l 0x1c
         0x005c0b24      2f17           move.l (a7), -(a7)
         0x005c0b26      4eb9004047ea   jsr p_wts_o
         0x005c0b2c      defc000c       adda.w 0xc, a7
         0x005c0b30      4eb900404946   jsr p_wtln_o
         0x005c0b36      4227           clr.b -(a7)
         0x005c0b38      4eb90040452a   jsr p_Assert
         0x005c0b3e      544f           addq.w 0x2, a7
      > 0x005c0b40      206e0018       movea.l 0x18(a6), a0
           0x005c0b44      4a2e000a       tst.b 0xa(a6)
       < 0x005c0b48      671c           beq.b 0x5c0b66
          0x005c0b4a      20ae001c       move.l 0x1c(a6), (a0)
          0x005c0b4e      4a2e0008       tst.b 0x8(a6)
      < 0x005c0b52      6706           beq.b 0x5c0b5a
         0x005c0b54      21410004       move.l d1, 0x4(a0)
     < 0x005c0b58      6008           bra.b 0x5c0b62
     > 0x005c0b5a      217c7fffffff.  move.l 0x7fffffff, 0x4(a0)
     > 0x005c0b62      42680008       clr.w 0x8(a0)
       > 0x005c0b66      102e0013       move.b 0x13(a6), d0
           0x005c0b6a      4880           ext.w d0
           0x005c0b6c      41bc0056       chk.w 0x56, d0
           0x005c0b70      1e00           move.b d0, d7
           0x005c0b72      4887           ext.w d7
           0x005c0b74      43fad526       lea.l 0x5be09c(pc), a1
           0x005c0b78      3007           move.w d7, d0
           0x005c0b7a      e648           lsr.w 0x3, d0
           0x005c0b7c      0f310000       btst.l d7, (a1, d0.w)
       < 0x005c0b80      6716           beq.b 0x5c0b98
          0x005c0b82      226efffc       movea.l -0x4(a6), a1
          0x005c0b86      244b           movea.l a3, a2
          0x005c0b88      43e90004       lea.l 0x4(a1), a1
          0x005c0b8c      303c00ff       move.w 0xff, d0
      > 0x005c0b90      14d9           move.b (a1)+, (a2)+
      < 0x005c0b92      51c8fffc       dbra d0, 0x5c0b90
      < 0x005c0b96      6010           bra.b 0x5c0ba8
      > 0x005c0b98      226e000c       movea.l 0xc(a6), a1
          0x005c0b9c      244b           movea.l a3, a2
          0x005c0b9e      303c00ff       move.w 0xff, d0
      > 0x005c0ba2      14d9           move.b (a1)+, (a2)+
      < 0x005c0ba4      51c8fffc       dbra d0, 0x5c0ba2
      > 0x005c0ba8      554f           subq.w 0x2, a7
           0x005c0baa      1f2e0008       move.b 0x8(a6), -(a7)
           0x005c0bae      4850           pea.l (a0)
           0x005c0bb0      1f07           move.b d7, -(a7)
           0x005c0bb2      4227           clr.b -(a7)
           0x005c0bb4      9efc0100       suba.w 0x100, a7
           0x005c0bb8      204f           movea.l a7, a0
           0x005c0bba      224b           movea.l a3, a1
           0x005c0bbc      703f           moveq 0x3f, d0
       > 0x005c0bbe      20d9           move.l (a1)+, (a0)+
       < 0x005c0bc0      51c8fffc       dbra d0, 0x5c0bbe
           0x005c0bc4      48780000       pea.l 0x0
           0x005c0bc8      4ebafb6e       jsr AFS_FILER.afs_linear_sear(pc)
           0x005c0bcc      defc010e       adda.w 0x10e, a7
           0x005c0bd0      3d5f0020       move.w (a7)+, 0x20(a6)
           0x005c0bd4      4cdf0f83       movem.l (a7)+, d0-d1/d7/a0-a3
           0x005c0bd8      4e5e           unlk a6
           0x005c0bda      4e75           rts
            ; CALL XREF from K1_AFS_ONLY.k1_end_search @ 0x5abbbc
 124: AFS_FILER.afs_end_search ();
           ; var int32_t var_2b44h @ a6-0x2b44
           ; var int32_t var_2b3fh @ a6-0x2b3f
           ; var int32_t var_2b3ch @ a6-0x2b3c
           ; var int32_t var_2b37h @ a6-0x2b37
           0x005c0bdc      4e56ffde       link.w a6, 0xffde
           0x005c0be0      bfd5           cmpa.l (a5), a7
       < 0x005c0be2      6206           bhi.b 0x5c0bea
          0x005c0be4      44fc0002       move.w 0x2, ccr
          0x005c0be8      4e76           trapv
       > 0x005c0bea      defc001c       adda.w 0x1c, a7
           0x005c0bee      48e780c0       movem.l d0/a0-a1, -(a7)
           0x005c0bf2      43eefffa       lea.l -0x6(a6), a1
           0x005c0bf6      1d7ad4c90114   move.b 0x5be0c1(pc), 0x114(a6)
           0x005c0bfc      1d7ad4c40115   move.b 0x5be0c2(pc), 0x115(a6)
           0x005c0c02      594f           subq.w 0x4, a7
           0x005c0c04      206e010c       movea.l 0x10c(a6), a0
           0x005c0c08      2f10           move.l (a0), -(a7)
           0x005c0c0a      4ebaf11a       jsr AFS_FILER.gen_search_ptr(pc)
           0x005c0c0e      584f           addq.w 0x4, a7
           0x005c0c10      229f           move.l (a7)+, (a1)
           0x005c0c12      2051           movea.l (a1), a0
           0x005c0c14      202e0110       move.l 0x110(a6), d0
           0x005c0c18      b090           cmp.l (a0), d0
       < 0x005c0c1a      671a           beq.b 0x5c0c36
          0x005c0c1c      487ad4a6       pea.l 0x5be0c4(pc)
          0x005c0c20      4878002e       pea.l 0x2e
          0x005c0c24      2f17           move.l (a7), -(a7)
          0x005c0c26      4eb9004047ea   jsr p_wts_o
          0x005c0c2c      defc000c       adda.w 0xc, a7
          0x005c0c30      4eb900404946   jsr p_wtln_o
       > 0x005c0c36      4851           pea.l (a1)
           0x005c0c38      48780104       pea.l 0x104
           0x005c0c3c      4eb900403b98   jsr p_Dispos
           0x005c0c42      504f           addq.w 0x8, a7
           0x005c0c44      1d7ad4c10114   move.b 0x5be107(pc), 0x114(a6)
           0x005c0c4a      1d7ad4bc0115   move.b 0x5be108(pc), 0x115(a6)
           0x005c0c50      4cdf0301       movem.l (a7)+, d0/a0-a1
           0x005c0c54      4e5e           unlk a6
           0x005c0c56      4e75           rts
            ; CALL XREF from K1_AFS_ONLY.k1_find_file @ 0x5abc54
 108: AFS_FILER.afs_find_file ();
           ; var int32_t var_2b68h @ a6-0x2b68
           0x005c0c58      4e56fed8       link.w a6, 0xfed8
           0x005c0c5c      bfd5           cmpa.l (a5), a7
       < 0x005c0c5e      6206           bhi.b 0x5c0c66
          0x005c0c60      44fc0002       move.w 0x2, ccr
          0x005c0c64      4e76           trapv
       > 0x005c0c66      defc0128       adda.w 0x128, a7
           0x005c0c6a      48e7c0c0       movem.l d0-d1/a0-a1, -(a7)
           0x005c0c6e      7201           moveq 0x1, d1
           0x005c0c70      3d7ad4980114   move.w 0x5be10a(pc), 0x114(a6)
           0x005c0c76      206e010c       movea.l 0x10c(a6), a0
           0x005c0c7a      20ae0110       move.l 0x110(a6), (a0)
           0x005c0c7e      217cffffffff.  move.l 0xffffffff, 0x4(a0)
           0x005c0c86      42680008       clr.w 0x8(a0)
           0x005c0c8a      554f           subq.w 0x2, a7
           0x005c0c8c      1f01           move.b d1, -(a7)
           0x005c0c8e      4850           pea.l (a0)
           0x005c0c90      1f2e000a       move.b 0xa(a6), -(a7)
           0x005c0c94      1f01           move.b d1, -(a7)
           0x005c0c96      9efc0100       suba.w 0x100, a7
           0x005c0c9a      204f           movea.l a7, a0
           0x005c0c9c      43ee000c       lea.l 0xc(a6), a1
           0x005c0ca0      703f           moveq 0x3f, d0
       > 0x005c0ca2      20d9           move.l (a1)+, (a0)+
       < 0x005c0ca4      51c8fffc       dbra d0, 0x5c0ca2
           0x005c0ca8      4280           clr.l d0
           0x005c0caa      302e0008       move.w 0x8(a6), d0
           0x005c0cae      2f00           move.l d0, -(a7)
           0x005c0cb0      4ebafa86       jsr AFS_FILER.afs_linear_sear(pc)
           0x005c0cb4      defc010e       adda.w 0x10e, a7
           0x005c0cb8      3d5f0114       move.w (a7)+, 0x114(a6)
           0x005c0cbc      4cdf0303       movem.l (a7)+, d0-d1/a0-a1
           0x005c0cc0      4e5e           unlk a6
           0x005c0cc2      4e75           rts
 48: AFS_FILER.get_num ();
           0x005c0cc4      4e56fee8       link.w a6, 0xfee8
           0x005c0cc8      bfd5           cmpa.l (a5), a7
       < 0x005c0cca      6206           bhi.b 0x5c0cd2
          0x005c0ccc      44fc0002       move.w 0x2, ccr
          0x005c0cd0      4e76           trapv
       > 0x005c0cd2      defc0118       adda.w 0x118, a7
           0x005c0cd6      48e7c0c0       movem.l d0-d1/a0-a1, -(a7)
           0x005c0cda      7201           moveq 0x1, d1
           0x005c0cdc      102e000c       move.b 0xc(a6), d0
           0x005c0ce0      4880           ext.w d0
           0x005c0ce2      5340           subq.w 0x1, d0
           0x005c0ce4      0c400008       cmpi.w 0x8, d0
       < 0x005c0ce8      6270           bhi.b 0x5c0d5a
          0x005c0cea      d040           add.w d0, d0
          0x005c0cec      303b0006       move.w 0x5c0cf4(pc, d0.w), d0
          0x005c0cf0      4efb0002       jmp 0x5c0cf4(pc, d0.w)
           0x005c0cf4      00120042       ori.b 0x42, (a2)
           0x005c0cf8      00120066       ori.b 0x66, (a2)
           0x005c0cfc      00660012       ori.w 0x12, -(a6)
           0x005c0d00      00660066       ori.w 0x66, -(a6)
           0x005c0d04      0012554f       ori.b 0x4f, (a2)
           0x005c0d08      1f2e000a       move.b 0xa(a6), -(a7)
           0x005c0d0c      206c006c       movea.l 0x6c(a4), a0
           0x005c0d10      4850           pea.l (a0)
           0x005c0d12      1f2e0008       move.b 0x8(a6), -(a7)
           0x005c0d16      2f2c004c       move.l 0x4c(a4), -(a7)
           0x005c0d1a      1f01           move.b d1, -(a7)
           0x005c0d1c      486c0052       pea.l 0x52(a4)
           0x005c0d20      4eb9006b0530   jsr USER.get_pnum
           0x005c0d26      defc0012       adda.w 0x12, a7
       > 0x005c0d2a      101f           move.b (a7)+, d0
          0x005c0d2c      4880           ext.w d0
          0x005c0d2e      4181           chk.w d1, d0
          0x005c0d30      1d40000e       move.b d0, 0xe(a6)
      < 0x005c0d34      6062           bra.b 0x5c0d98
         0x005c0d36      554f           subq.w 0x2, a7
         0x005c0d38      1f2e000a       move.b 0xa(a6), -(a7)
         0x005c0d3c      206c006c       movea.l 0x6c(a4), a0
         0x005c0d40      4850           pea.l (a0)
         0x005c0d42      1f2e0008       move.b 0x8(a6), -(a7)
         0x005c0d46      2f2c004c       move.l 0x4c(a4), -(a7)
         0x005c0d4a      486c0052       pea.l 0x52(a4)
         0x005c0d4e      4eb9006b05ba   jsr USER.get_snum
         0x005c0d54      defc0010       adda.w 0x10, a7
      < 0x005c0d58      60d0           bra.b 0x5c0d2a
       > 0x005c0d5a      487ad3cb       pea.l 0x5be127(pc)
           0x005c0d5e      48780022       pea.l 0x22
           0x005c0d62      2f17           move.l (a7), -(a7)
           0x005c0d64      4eb9004047ea   jsr p_wts_o
           0x005c0d6a      defc000c       adda.w 0xc, a7
           0x005c0d6e      4eb900404946   jsr p_wtln_o
           0x005c0d74      422e000e       clr.b 0xe(a6)
           0x005c0d78      9efc0100       suba.w 0x100, a7
           0x005c0d7c      204f           movea.l a7, a0
           0x005c0d7e      43fad3c9       lea.l 0x5be149(pc), a1
           0x005c0d82      700c           moveq 0xc, d0
       > 0x005c0d84      10d9           move.b (a1)+, (a0)+
       < 0x005c0d86      51c8fffc       dbra d0, 0x5c0d84
           0x005c0d8a      48780001       pea.l 0x1
           0x005c0d8e      4eb900408e0e   jsr p_error
           0x005c0d94      defc0104       adda.w 0x104, a7
      > 0x005c0d98      4cdf0303       movem.l (a7)+, d0-d1/a0-a1
            0x005c0d9c      4e5e           unlk a6
            0x005c0d9e      4e75           rts
            ; CALL XREF from K1_AFS_ONLY.k1_number @ 0x5abce8
 492: AFS_FILER.afs_number ();
           ; var int32_t var_2d5eh @ a6-0x2d5e
           ; var int32_t var_2d10h @ a6-0x2d10
           ; var int32_t var_2cach @ a6-0x2cac
           ; var int32_t var_2c46h @ a6-0x2c46
           0x005c0da0      4e56fe5c       link.w a6, 0xfe5c
           0x005c0da4      bfd5           cmpa.l (a5), a7
       < 0x005c0da6      6206           bhi.b 0x5c0dae
          0x005c0da8      44fc0002       move.w 0x2, ccr
          0x005c0dac      4e76           trapv
       > 0x005c0dae      defc0144       adda.w 0x144, a7
           0x005c0db2      48e7fff8       movem.l d0-d7/a0-a4, -(a7)
           0x005c0db6      49eefffc       lea.l -0x4(a6), a4
           0x005c0dba      7601           moveq 0x1, d3
           0x005c0dbc      7802           moveq 0x2, d4
           0x005c0dbe      18bad3bd       move.b 0x5be17d(pc), (a4)
           0x005c0dc2      1d7ad3bafffd   move.b 0x5be17e(pc), -0x3(a6)
           0x005c0dc8      206e0018       movea.l 0x18(a6), a0
           0x005c0dcc      43eefff2       lea.l -0xe(a6), a1
           0x005c0dd0      2448           movea.l a0, a2
           0x005c0dd2      7009           moveq 0x9, d0
       > 0x005c0dd4      12da           move.b (a2)+, (a1)+
       < 0x005c0dd6      51c8fffc       dbra d0, 0x5c0dd4
           0x005c0dda      554f           subq.w 0x2, a7
           0x005c0ddc      486effa0       pea.l -0x60(a6)
           0x005c0de0      4eb900404434   jsr fcn.00404434
           0x005c0de6      584f           addq.w 0x4, a7
           0x005c0de8      4a1f           tst.b (a7)+
       < 0x005c0dea      670002ba       beq.w loc.005c10a6
          0x005c0dee      594f           subq.w 0x4, a7
          0x005c0df0      2f10           move.l (a0), -(a7)
          0x005c0df2      4eb9006bd82c   jsr USER2_DISK.volume_region
          0x005c0df8      584f           addq.w 0x4, a7
          0x005c0dfa      201f           move.l (a7)+, d0
          0x005c0dfc      2d40ffec       move.l d0, -0x14(a6)
          0x005c0e00      9efc000c       suba.w 0xc, a7
          0x005c0e04      224f           movea.l a7, a1
          0x005c0e06      2448           movea.l a0, a2
          0x005c0e08      7209           moveq 0x9, d1
      > 0x005c0e0a      12da           move.b (a2)+, (a1)+
      < 0x005c0e0c      51c9fffc       dbra d1, 0x5c0e0a
          0x005c0e10      4eb9006b949a   jsr USER1_UTILS.item_ftype
          0x005c0e16      defc000a       adda.w 0xa, a7
          0x005c0e1a      121f           move.b (a7)+, d1
          0x005c0e1c      4881           ext.w d1
          0x005c0e1e      43bc000f       chk.w 0xf, d1
          0x005c0e22      1c01           move.b d1, d6
          0x005c0e24      4886           ext.w d6
          0x005c0e26      43fad358       lea.l 0x5be180(pc), a1
          0x005c0e2a      3206           move.w d6, d1
          0x005c0e2c      e649           lsr.w 0x3, d1
          0x005c0e2e      0d311000       btst.l d6, (a1, d1.w)
      < 0x005c0e32      662e           bne.b 0x5c0e62
         0x005c0e34      9efc0100       suba.w 0x100, a7
         0x005c0e38      224f           movea.l a7, a1
         0x005c0e3a      45fad363       lea.l 0x5be19f(pc), a2
         0x005c0e3e      720c           moveq 0xc, d1
     > 0x005c0e40      12da           move.b (a2)+, (a1)+
     < 0x005c0e42      51c9fffc       dbra d1, 0x5c0e40
         0x005c0e46      48780001       pea.l 0x1
         0x005c0e4a      4eb900408e0e   jsr p_error
         0x005c0e50      defc0104       adda.w 0x104, a7
         0x005c0e54      18bad357       move.b 0x5be1ad(pc), (a4)
         0x005c0e58      1d7ad354fffd   move.b 0x5be1ae(pc), -0x3(a6)
     < 0x005c0e5e      60000246       bra.w loc.005c10a6
     > 0x005c0e62      226e000c       movea.l 0xc(a6), a1
         0x005c0e66      3211           move.w (a1), d1
         0x005c0e68      02810000ffff   andi.l 0xffff, d1
         0x005c0e6e      0c810000ffff   cmpi.l 0xffff, d1
     < 0x005c0e74      6638           bne.b 0x5c0eae
        0x005c0e76      1f2e0008       move.b 0x8(a6), -(a7)
        0x005c0e7a      4417           neg.b (a7)
        0x005c0e7c      5217           addq.b 0x1, (a7)
        0x005c0e7e      4eb90040452a   jsr p_Assert
        0x005c0e84      514f           subq.w 0x8, a7
        0x005c0e86      244f           movea.l a7, a2
        0x005c0e88      2648           movea.l a0, a3
        0x005c0e8a      7209           moveq 0x9, d1
    > 0x005c0e8c      14db           move.b (a3)+, (a2)+
    < 0x005c0e8e      51c9fffc       dbra d1, 0x5c0e8c
        0x005c0e92      2f00           move.l d0, -(a7)
        0x005c0e94      486effeb       pea.l -0x15(a6)
        0x005c0e98      4eb9006b11f4   jsr USER.unnumber_pic
        0x005c0e9e      defc0012       adda.w 0x12, a7
        0x005c0ea2      32bcffff       move.w 0xffff, (a1)
        0x005c0ea6      38bad308       move.w 0x5be1b0(pc), (a4)
    < 0x005c0eaa      600001fa       bra.w loc.005c10a6
    > 0x005c0eae      4a2e0008       tst.b 0x8(a6)
    < 0x005c0eb2      670000c2       beq.w 0x5c0f76
       0x005c0eb6      122e000a       move.b 0xa(a6), d1
       0x005c0eba      b204           cmp.b d4, d1
   < 0x005c0ebc      660e           bne.b 0x5c0ecc
      0x005c0ebe      18bad2f3       move.b 0x5be1b3(pc), (a4)
      0x005c0ec2      1d7ad2f0fffd   move.b 0x5be1b4(pc), -0x3(a6)
  < 0x005c0ec8      600001dc       bra.w loc.005c10a6
  > 0x005c0ecc      4a01           tst.b d1
  < 0x005c0ece      6650           bne.b 0x5c0f20
     0x005c0ed0      38bad2e4       move.w 0x5be1b6(pc), (a4)
     0x005c0ed4      554f           subq.w 0x2, a7
     0x005c0ed6      1f3c0004       move.b 0x4, -(a7)
     0x005c0eda      2f00           move.l d0, -(a7)
     0x005c0edc      4851           pea.l (a1)
     0x005c0ede      4227           clr.b -(a7)
     0x005c0ee0      246e0014       movea.l 0x14(a6), a2
     0x005c0ee4      3f12           move.w (a2), -(a7)
     0x005c0ee6      246e0010       movea.l 0x10(a6), a2
     0x005c0eea      3f12           move.w (a2), -(a7)
     0x005c0eec      4227           clr.b -(a7)
     0x005c0eee      bc04           cmp.b d4, d6
 < 0x005c0ef0      6602           bne.b 0x5c0ef4
    0x005c0ef2      5217           addq.b 0x1, (a7)
 > 0x005c0ef4      1f03           move.b d3, -(a7)
     0x005c0ef6      1f03           move.b d3, -(a7)
     0x005c0ef8      486efff2       pea.l -0xe(a6)
     0x005c0efc      4eb9006afbf4   jsr USER.get_number
     0x005c0f02      defc001a       adda.w 0x1a, a7
     0x005c0f06      141f           move.b (a7)+, d2
     0x005c0f08      4882           ext.w d2
     0x005c0f0a      4583           chk.w d3, d2
     0x005c0f0c      1e02           move.b d2, d7
 < 0x005c0f0e      67000196       beq.w loc.005c10a6
    0x005c0f12      18bad2a5       move.b 0x5be1b9(pc), (a4)
    0x005c0f16      1d7ad2a2fffd   move.b 0x5be1ba(pc), -0x3(a6)
 < 0x005c0f1c      60000188       bra.w loc.005c10a6
 > 0x005c0f20      b203           cmp.b d3, d1
 < 0x005c0f22      66000182       bne.w loc.005c10a6
    0x005c0f26      38bad294       move.w 0x5be1bc(pc), (a4)
    0x005c0f2a      554f           subq.w 0x2, a7
    0x005c0f2c      1f3c0004       move.b 0x4, -(a7)
    0x005c0f30      2f00           move.l d0, -(a7)
    0x005c0f32      4851           pea.l (a1)
    0x005c0f34      1f03           move.b d3, -(a7)
    0x005c0f36      246e0014       movea.l 0x14(a6), a2
    0x005c0f3a      3f12           move.w (a2), -(a7)
    0x005c0f3c      246e0010       movea.l 0x10(a6), a2
    0x005c0f40      3f12           move.w (a2), -(a7)
    0x005c0f42      4227           clr.b -(a7)
    0x005c0f44      bc04           cmp.b d4, d6
 < 0x005c0f46      6602           bne.b 0x5c0f4a
    0x005c0f48      5217           addq.b 0x1, (a7)
 > 0x005c0f4a      1f03           move.b d3, -(a7)
    0x005c0f4c      1f03           move.b d3, -(a7)
    0x005c0f4e      486efff2       pea.l -0xe(a6)
    0x005c0f52      4eb9006afbf4   jsr USER.get_number
    0x005c0f58      defc001a       adda.w 0x1a, a7
    0x005c0f5c      141f           move.b (a7)+, d2
    0x005c0f5e      4882           ext.w d2
    0x005c0f60      4583           chk.w d3, d2
    0x005c0f62      1e02           move.b d2, d7
 < 0x005c0f64      66000140       bne.w loc.005c10a6
    0x005c0f68      4eb900404188   jsr p_Unlink
    0x005c0f6e      32bcffff       move.w 0xffff, (a1)
 < 0x005c0f72      60000132       bra.w loc.005c10a6
 > 0x005c0f76      122e000a       move.b 0xa(a6), d1
     0x005c0f7a      4881           ext.w d1
     0x005c0f7c      b244           cmp.w d4, d1
 < 0x005c0f7e      6302           bls.b 0x5c0f82
    0x005c0f80      4e4e           trap 0xe
 > 0x005c0f82      d241           add.w d1, d1
     0x005c0f84      323b1006       move.w 0x5c0f8c(pc, d1.w), d1
     0x005c0f88      4efb1002       jmp 0x5c0f8c(pc, d1.w)
      0x005c0f8c      0006000e       ori.b 0xe, d6
      0x005c0f90      00127a00       ori.b 0x0, (a2)
  > 0x005c0f94      1d43ffff       move.b d3, -0x1(a6)
  < 0x005c0f98      600c           bra.b 0x5c0fa6
     0x005c0f9a      7a01           moveq 0x1, d5
  < 0x005c0f9c      60f6           bra.b 0x5c0f94
      0x005c0f9e      7a01           moveq 0x1, d5
      0x005c0fa0      1d7c0005ffff   move.b 0x5, -0x1(a6)
  > 0x005c0fa6      246e0014       movea.l 0x14(a6), a2
      0x005c0faa      266e0010       movea.l 0x10(a6), a3
      0x005c0fae      554f           subq.w 0x2, a7
      0x005c0fb0      122effff       move.b -0x1(a6), d1
      0x005c0fb4      4881           ext.w d1
      0x005c0fb6      43bc0005       chk.w 0x5, d1
      0x005c0fba      1f01           move.b d1, -(a7)
      0x005c0fbc      2f00           move.l d0, -(a7)
      0x005c0fbe      4851           pea.l (a1)
      0x005c0fc0      4885           ext.w d5
      0x005c0fc2      4b83           chk.w d3, d5
      0x005c0fc4      1f05           move.b d5, -(a7)
      0x005c0fc6      3f12           move.w (a2), -(a7)
      0x005c0fc8      3f13           move.w (a3), -(a7)
      0x005c0fca      4227           clr.b -(a7)
      0x005c0fcc      bc04           cmp.b d4, d6
  < 0x005c0fce      6602           bne.b 0x5c0fd2
     0x005c0fd0      5217           addq.b 0x1, (a7)
  > 0x005c0fd2      1f03           move.b d3, -(a7)
      0x005c0fd4      1f03           move.b d3, -(a7)
      0x005c0fd6      486efff2       pea.l -0xe(a6)
      0x005c0fda      4eb9006afbf4   jsr USER.get_number
      0x005c0fe0      defc001a       adda.w 0x1a, a7
      0x005c0fe4      121f           move.b (a7)+, d1
      0x005c0fe6      4881           ext.w d1
      0x005c0fe8      4383           chk.w d3, d1
      0x005c0fea      1e01           move.b d1, d7
  < 0x005c0fec      660a           bne.b 0x5c0ff8
     0x005c0fee      18bad1cf       move.b 0x5be1bf(pc), (a4)
     0x005c0ff2      1d7ad1ccfffd   move.b 0x5be1c0(pc), -0x3(a6)
  > 0x005c0ff8      4a07           tst.b d7
  < 0x005c0ffa      670000aa       beq.w loc.005c10a6
     0x005c0ffe      554f           subq.w 0x2, a7
     0x005c1000      3f11           move.w (a1), -(a7)
     0x005c1002      2f2efff8       move.l -0x8(a6), -(a7)
     0x005c1006      2f2efff4       move.l -0xc(a6), -(a7)
     0x005c100a      3f2efff2       move.w -0xe(a6), -(a7)
     0x005c100e      2f00           move.l d0, -(a7)
     0x005c1010      4eb9006b0b82   jsr USER.number_pic
     0x005c1016      defc0010       adda.w 0x10, a7
     0x005c101a      4a1f           tst.b (a7)+
  < 0x005c101c      6708           beq.b 0x5c1026
     0x005c101e      38bad1a2       move.w 0x5be1c2(pc), (a4)
  < 0x005c1022      60000082       bra.w loc.005c10a6
  > 0x005c1026      18bad19d       move.b 0x5be1c5(pc), (a4)
     0x005c102a      1d7ad19afffd   move.b 0x5be1c6(pc), -0x3(a6)
     0x005c1030      554f           subq.w 0x2, a7
     0x005c1032      1f04           move.b d4, -(a7)
     0x005c1034      2f00           move.l d0, -(a7)
     0x005c1036      4851           pea.l (a1)
     0x005c1038      1f03           move.b d3, -(a7)
     0x005c103a      3f12           move.w (a2), -(a7)
     0x005c103c      3f13           move.w (a3), -(a7)
     0x005c103e      4227           clr.b -(a7)
     0x005c1040      bc04           cmp.b d4, d6
  < 0x005c1042      6602           bne.b 0x5c1046
     0x005c1044      5217           addq.b 0x1, (a7)
  > 0x005c1046      1f03           move.b d3, -(a7)
     0x005c1048      4227           clr.b -(a7)
     0x005c104a      486efff2       pea.l -0xe(a6)
     0x005c104e      4eb9006afbf4   jsr USER.get_number
     0x005c1054      defc001a       adda.w 0x1a, a7
     0x005c1058      4a1f           tst.b (a7)+
  < 0x005c105a      664a           bne.b loc.005c10a6
     0x005c105c      487ad180       pea.l 0x5be1de(pc)
     0x005c1060      48780015       pea.l 0x15
     0x005c1064      2f17           move.l (a7), -(a7)
     0x005c1066      4eb9004047ea   jsr p_wts_o
     0x005c106c      defc000c       adda.w 0xc, a7
     0x005c1070      3211           move.w (a1), d1
     0x005c1072      02810000ffff   andi.l 0xffff, d1
     0x005c1078      2f01           move.l d1, -(a7)
     0x005c107a      48780000       pea.l 0x0
     0x005c107e      4eb9004070e4   jsr p_wti_o
     0x005c1084      504f           addq.w 0x8, a7
     0x005c1086      487ad16c       pea.l 0x5be1f4(pc)
     0x005c108a      48780028       pea.l 0x28
     0x005c108e      2f17           move.l (a7), -(a7)
     0x005c1090      4eb9004047ea   jsr p_wts_o
     0x005c1096      defc000c       adda.w 0xc, a7
     0x005c109a      4eb900404946   jsr p_wtln_o
     0x005c10a0      4eb900404188   jsr p_Unlink
     ; CODE XREFS from AFS_FILER.afs_number @ 0x5c0e5e, 0x5c0eaa, 0x5c0ec8, 0x5c0f1c, 0x5c0f72
 12: loc.005c10a6 ();
 > 0x005c10a6      3d54001c       move.w (a4), 0x1c(a6)
           0x005c10aa      4cdf1fff       movem.l (a7)+, d0-d7/a0-a4
           0x005c10ae      4e5e           unlk a6
           0x005c10b0      4e75           rts
            ; CALL XREF from K1_AFS_ONLY.k1_get_number @ 0x5abd66
 146: AFS_FILER.afs_get_number ();
           ; var int32_t var_2edch @ a6-0x2edc
           ; var int32_t var_2e7ah @ a6-0x2e7a
           ; var int32_t var_2e75h @ a6-0x2e75
           0x005c10b2      4e56ffc8       link.w a6, 0xffc8
           0x005c10b6      bfd5           cmpa.l (a5), a7
       < 0x005c10b8      6206           bhi.b 0x5c10c0
          0x005c10ba      44fc0002       move.w 0x2, ccr
          0x005c10be      4e76           trapv
       > 0x005c10c0      defc0032       adda.w 0x32, a7
           0x005c10c4      48e780f0       movem.l d0/a0-a3, -(a7)
           0x005c10c8      47eefffa       lea.l -0x6(a6), a3
           0x005c10cc      1d7ad18b0010   move.b 0x5be259(pc), 0x10(a6)
           0x005c10d2      1d7ad1860011   move.b 0x5be25a(pc), 0x11(a6)
           0x005c10d8      206e000c       movea.l 0xc(a6), a0
           0x005c10dc      594f           subq.w 0x4, a7
           0x005c10de      2f10           move.l (a0), -(a7)
           0x005c10e0      4eb9006bd82c   jsr USER2_DISK.volume_region
           0x005c10e6      584f           addq.w 0x4, a7
           0x005c10e8      2d57fffc       move.l (a7), -0x4(a6)
           0x005c10ec      544f           addq.w 0x2, a7
           0x005c10ee      2f10           move.l (a0), -(a7)
           0x005c10f0      1f3c0018       move.b 0x18, -(a7)
           0x005c10f4      4eb9005a1286   jsr K04_FILEROPS.k_property_avai
           0x005c10fa      5c4f           addq.w 0x6, a7
           0x005c10fc      4a1f           tst.b (a7)+
       < 0x005c10fe      6704           beq.b 0x5c1104
          0x005c1100      4213           clr.b (a3)
      < 0x005c1102      6026           bra.b 0x5c112a
      > 0x005c1104      9efc000a       suba.w 0xa, a7
          0x005c1108      224f           movea.l a7, a1
          0x005c110a      2448           movea.l a0, a2
          0x005c110c      7009           moveq 0x9, d0
      > 0x005c110e      12da           move.b (a2)+, (a1)+
      < 0x005c1110      51c8fffc       dbra d0, 0x5c110e
          0x005c1114      2f2efffc       move.l -0x4(a6), -(a7)
          0x005c1118      4853           pea.l (a3)
          0x005c111a      226e0008       movea.l 0x8(a6), a1
          0x005c111e      4851           pea.l (a1)
          0x005c1120      4eb9006b16e4   jsr USER.pic_number
          0x005c1126      defc0016       adda.w 0x16, a7
      > 0x005c112a      4a13           tst.b (a3)
       < 0x005c112c      6608           bne.b 0x5c1136
          0x005c112e      206e0008       movea.l 0x8(a6), a0
          0x005c1132      30bcffff       move.w 0xffff, (a0)
       > 0x005c1136      3d7ad1240010   move.w 0x5be25c(pc), 0x10(a6)
           0x005c113c      4cdf0f01       movem.l (a7)+, d0/a0-a3
           0x005c1140      4e5e           unlk a6
           0x005c1142      4e75           rts
            ; CALL XREF from AFS_FILER.afs0_add_defaul @ 0x5c3c68
 82: AFS_FILER.afs0_put_defaul ();
           0x005c1144      4e56ffea       link.w a6, 0xffea
           0x005c1148      bfd5           cmpa.l (a5), a7
       < 0x005c114a      6206           bhi.b 0x5c1152
          0x005c114c      44fc0002       move.w 0x2, ccr
          0x005c1150      4e76           trapv
       > 0x005c1152      defc0016       adda.w 0x16, a7
           0x005c1156      48e78000       movem.l d0, -(a7)
           0x005c115a      700c           moveq 0xc, d0
           0x005c115c      554f           subq.w 0x2, a7
           0x005c115e      48780001       pea.l 0x1
           0x005c1162      48780000       pea.l 0x0
           0x005c1166      2f2e0008       move.l 0x8(a6), -(a7)
           0x005c116a      4eb9005e978e   jsr FILE_STRUCTURE.fs_set_nplanes_
           0x005c1170      dec0           adda.w d0, a7
           0x005c1172      4a1f           tst.b (a7)+
       < 0x005c1174      6618           bne.b 0x5c118e
          0x005c1176      487ad0e7       pea.l 0x5be25f(pc)
          0x005c117a      4878002b       pea.l 0x2b
          0x005c117e      2f17           move.l (a7), -(a7)
          0x005c1180      4eb9004047ea   jsr p_wts_o
          0x005c1186      dec0           adda.w d0, a7
          0x005c1188      4eb900404946   jsr p_wtln_o
       > 0x005c118e      4cdf0001       movem.l (a7)+, d0
           0x005c1192      4e5e           unlk a6
           0x005c1194      4e75           rts
            ; CALL XREF from USER.save_stack @ 0x6b5cfc
 82: AFS_FILER.afs0_put_stack_ ();
           0x005c1196      4e56ffea       link.w a6, 0xffea
           0x005c119a      bfd5           cmpa.l (a5), a7
       < 0x005c119c      6206           bhi.b 0x5c11a4
          0x005c119e      44fc0002       move.w 0x2, ccr
          0x005c11a2      4e76           trapv
       > 0x005c11a4      defc0016       adda.w 0x16, a7
           0x005c11a8      48e78000       movem.l d0, -(a7)
           0x005c11ac      700c           moveq 0xc, d0
           0x005c11ae      554f           subq.w 0x2, a7
           0x005c11b0      48780000       pea.l 0x0
           0x005c11b4      2f2e0008       move.l 0x8(a6), -(a7)
           0x005c11b8      2f2e000c       move.l 0xc(a6), -(a7)
           0x005c11bc      4eb9005e978e   jsr FILE_STRUCTURE.fs_set_nplanes_
           0x005c11c2      dec0           adda.w d0, a7
           0x005c11c4      4a1f           tst.b (a7)+
       < 0x005c11c6      6618           bne.b 0x5c11e0
          0x005c11c8      487ad0c1       pea.l 0x5be28b(pc)
          0x005c11cc      4878002b       pea.l 0x2b
          0x005c11d0      2f17           move.l (a7), -(a7)
          0x005c11d2      4eb9004047ea   jsr p_wts_o
          0x005c11d8      dec0           adda.w d0, a7
          0x005c11da      4eb900404946   jsr p_wtln_o
       > 0x005c11e0      4cdf0001       movem.l (a7)+, d0
           0x005c11e4      4e5e           unlk a6
           0x005c11e6      4e75           rts
            ; CALL XREF from AFS_FILER.save_a_plane @ 0x5c239e
            ; CALL XREF from AFS_FILER.load_a_plane @ 0x5c2c9e
 98: AFS_FILER.file_section ();
           0x005c11e8      4e56ffea       link.w a6, 0xffea
           0x005c11ec      bfd5           cmpa.l (a5), a7
       < 0x005c11ee      6206           bhi.b 0x5c11f6
          0x005c11f0      44fc0002       move.w 0x2, ccr
          0x005c11f4      4e76           trapv
       > 0x005c11f6      defc0016       adda.w 0x16, a7
           0x005c11fa      48e7c0c0       movem.l d0-d1/a0-a1, -(a7)
           0x005c11fe      41ee0008       lea.l 0x8(a6), a0
           0x005c1202      43ee000c       lea.l 0xc(a6), a1
           0x005c1206      7201           moveq 0x1, d1
           0x005c1208      4a2e000a       tst.b 0xa(a6)
       < 0x005c120c      6714           beq.b 0x5c1222
          0x005c120e      4a10           tst.b (a0)
      < 0x005c1210      6604           bne.b 0x5c1216
         0x005c1212      4211           clr.b (a1)
     < 0x005c1214      602c           bra.b 0x5c1242
     > 0x005c1216      1010           move.b (a0), d0
         0x005c1218      b001           cmp.b d1, d0
     < 0x005c121a      6604           bne.b 0x5c1220
        0x005c121c      1281           move.b d1, (a1)
    < 0x005c121e      6022           bra.b 0x5c1242
   > 0x005c1220      6016           bra.b 0x5c1238
    > 0x005c1222      4a10           tst.b (a0)
    < 0x005c1224      6606           bne.b 0x5c122c
       0x005c1226      12bc0002       move.b 0x2, (a1)
   < 0x005c122a      6016           bra.b 0x5c1242
   > 0x005c122c      1010           move.b (a0), d0
       0x005c122e      b001           cmp.b d1, d0
   < 0x005c1230      6606           bne.b 0x5c1238
      0x005c1232      12bc0003       move.b 0x3, (a1)
  < 0x005c1236      600a           bra.b 0x5c1242
  > 0x005c1238      4227           clr.b -(a7)
       0x005c123a      4eb90040452a   jsr p_Assert
       0x005c1240      544f           addq.w 0x2, a7
  > 0x005c1242      4cdf0303       movem.l (a7)+, d0-d1/a0-a1
           0x005c1246      4e5e           unlk a6
           0x005c1248      4e75           rts
            ; CALL XREF from AFS_FILER.check_start_pos @ 0x5c17a0
 998: AFS_FILER.enlarge_section ();
           ; var int32_t var_8h @ a7+0x8
           0x005c124a      4e56fe5a       link.w a6, 0xfe5a
           0x005c124e      bfd5           cmpa.l (a5), a7
       < 0x005c1250      6206           bhi.b 0x5c1258
          0x005c1252      44fc0002       move.w 0x2, ccr
          0x005c1256      4e76           trapv
       > 0x005c1258      defc0148       adda.w 0x148, a7
           0x005c125c      48e7fef8       movem.l d0-d6/a0-a4, -(a7)
           0x005c1260      41f9004047ea   lea.l p_wts_o, a0
           0x005c1266      43eeffb6       lea.l -0x4a(a6), a1
           0x005c126a      45f900404946   lea.l p_wtln_o, a2
           0x005c1270      47f900404468   lea.l fcn.00404468, a3
           0x005c1276      49eeffa2       lea.l -0x5e(a6), a4
           0x005c127a      720c           moveq 0xc, d1
           0x005c127c      343c0100       move.w 0x100, d2
           0x005c1280      363c010c       move.w 0x10c, d3
           0x005c1284      7801           moveq 0x1, d4
           0x005c1286      7a10           moveq 0x10, d5
           0x005c1288      7c1e           moveq 0x1e, d6
           0x005c128a      2884           move.l d4, (a4)
           0x005c128c      48780001       pea.l 0x1
           0x005c1290      2d57ffb2       move.l (a7), -0x4e(a6)
           0x005c1294      422e001c       clr.b 0x1c(a6)
           0x005c1298      554f           subq.w 0x2, a7
           0x005c129a      4851           pea.l (a1)
           0x005c129c      4eb900404434   jsr fcn.00404434
           0x005c12a2      584f           addq.w 0x4, a7
           0x005c12a4      4a1f           tst.b (a7)+
       < 0x005c12a6      67000358       beq.w 0x5c1600
          0x005c12aa      554f           subq.w 0x2, a7
          0x005c12ac      1f2e0010       move.b 0x10(a6), -(a7)
          0x005c12b0      486e000c       pea.l 0xc(a6)
          0x005c12b4      2f2e0018       move.l 0x18(a6), -(a7)
          0x005c12b8      2f2e0014       move.l 0x14(a6), -(a7)
          0x005c12bc      3f2e0012       move.w 0x12(a6), -(a7)
          0x005c12c0      486effaa       pea.l -0x56(a6)
          0x005c12c4      486effa6       pea.l -0x5a(a6)
          0x005c12c8      4eb9005ed878   jsr FILE_STRUCTURE.fs_section_size
          0x005c12ce      defc0018       adda.w 0x18, a7
          0x005c12d2      4a1f           tst.b (a7)+
      < 0x005c12d4      6636           bne.b 0x5c130c
         0x005c12d6      9ec2           suba.w d2, a7
         0x005c12d8      4eb900408ec0   jsr p_err_string
         0x005c12de      487acfee       pea.l 0x5be2ce(pc)
         0x005c12e2      48780030       pea.l 0x30
         0x005c12e6      2f17           move.l (a7), -(a7)
         0x005c12e8      4e90           jsr (a0)                    ; fcn.00000009
         0x005c12ea      dec1           adda.w d1, a7
         0x005c12ec      486f0001       pea.l 0x1(a7)
         0x005c12f0      42a7           clr.l -(a7)
         0x005c12f2      1f6f00080003   move.b 0x8(a7), 0x3(a7)
         0x005c12f8      2f17           move.l (a7), -(a7)
         0x005c12fa      4e90           jsr (a0)                    ; fcn.00000009
         0x005c12fc      dec3           adda.w d3, a7
         0x005c12fe      4e92           jsr (a2)                    ; fcn.00000009+0x2
         0x005c1300      4eb900404188   jsr p_Unlink
         0x005c1306      4851           pea.l (a1)
         0x005c1308      4e93           jsr (a3)                    ; fcn.0000000c
         0x005c130a      584f           addq.w 0x4, a7
      > 0x005c130c      486effb2       pea.l -0x4e(a6)
          0x005c1310      202effa6       move.l -0x5a(a6), d0
          0x005c1314      e180           asl.l 0x8, d0
          0x005c1316      e580           asl.l 0x2, d0
          0x005c1318      2f00           move.l d0, -(a7)
          0x005c131a      4eb900403a92   jsr p_New
          0x005c1320      504f           addq.w 0x8, a7
          0x005c1322      202effb2       move.l -0x4e(a6), d0
          0x005c1326      b097           cmp.l (a7), d0
      < 0x005c1328      6616           bne.b 0x5c1340
         0x005c132a      487acfe7       pea.l 0x5be313(pc)
         0x005c132e      4878002b       pea.l 0x2b
         0x005c1332      2f17           move.l (a7), -(a7)
         0x005c1334      4e90           jsr (a0)                    ; fcn.00000009
         0x005c1336      dec1           adda.w d1, a7
         0x005c1338      4e92           jsr (a2)                    ; fcn.00000009+0x2
         0x005c133a      4851           pea.l (a1)
         0x005c133c      4e93           jsr (a3)                    ; fcn.0000000c
         0x005c133e      584f           addq.w 0x4, a7
      > 0x005c1340      554f           subq.w 0x2, a7
          0x005c1342      2f2e0018       move.l 0x18(a6), -(a7)
          0x005c1346      2f2e0014       move.l 0x14(a6), -(a7)
          0x005c134a      3f2e0012       move.w 0x12(a6), -(a7)
          0x005c134e      1f04           move.b d4, -(a7)
          0x005c1350      4854           pea.l (a4)
          0x005c1352      4eb90060477a   jsr F9_FILERDWRT.f_op_block
          0x005c1358      dec5           adda.w d5, a7
          0x005c135a      4a1f           tst.b (a7)+
      < 0x005c135c      6636           bne.b 0x5c1394
         0x005c135e      9ec2           suba.w d2, a7
         0x005c1360      4eb900408ec0   jsr p_err_string
         0x005c1366      487acfd7       pea.l 0x5be33f(pc)
         0x005c136a      48780025       pea.l 0x25
         0x005c136e      2f17           move.l (a7), -(a7)
         0x005c1370      4e90           jsr (a0)                    ; fcn.00000009
         0x005c1372      dec1           adda.w d1, a7
         0x005c1374      486f0001       pea.l 0x1(a7)
         0x005c1378      42a7           clr.l -(a7)
         0x005c137a      1f6f00080003   move.b 0x8(a7), 0x3(a7)
         0x005c1380      2f17           move.l (a7), -(a7)
         0x005c1382      4e90           jsr (a0)                    ; fcn.00000009
         0x005c1384      dec3           adda.w d3, a7
         0x005c1386      4e92           jsr (a2)                    ; fcn.00000009+0x2
         0x005c1388      4eb900404188   jsr p_Unlink
         0x005c138e      4851           pea.l (a1)
         0x005c1390      4e93           jsr (a3)                    ; fcn.0000000c
         0x005c1392      584f           addq.w 0x4, a7
      > 0x005c1394      554f           subq.w 0x2, a7
          0x005c1396      2f14           move.l (a4), -(a7)
          0x005c1398      2f2effaa       move.l -0x56(a6), -(a7)
          0x005c139c      4eb900604c60   jsr F9_FILERDWRT.f_seek_to_block
          0x005c13a2      504f           addq.w 0x8, a7
          0x005c13a4      4a1f           tst.b (a7)+
      < 0x005c13a6      6636           bne.b 0x5c13de
         0x005c13a8      9ec2           suba.w d2, a7
         0x005c13aa      4eb900408ec0   jsr p_err_string
         0x005c13b0      487acfb3       pea.l 0x5be365(pc)
         0x005c13b4      4878002d       pea.l 0x2d
         0x005c13b8      2f17           move.l (a7), -(a7)
         0x005c13ba      4e90           jsr (a0)                    ; fcn.00000009
         0x005c13bc      dec1           adda.w d1, a7
         0x005c13be      486f0001       pea.l 0x1(a7)
         0x005c13c2      42a7           clr.l -(a7)
         0x005c13c4      1f6f00080003   move.b 0x8(a7), 0x3(a7)
         0x005c13ca      2f17           move.l (a7), -(a7)
         0x005c13cc      4e90           jsr (a0)                    ; fcn.00000009
         0x005c13ce      dec3           adda.w d3, a7
         0x005c13d0      4e92           jsr (a2)                    ; fcn.00000009+0x2
         0x005c13d2      4eb900404188   jsr p_Unlink
         0x005c13d8      4851           pea.l (a1)
         0x005c13da      4e93           jsr (a3)                    ; fcn.0000000c
         0x005c13dc      584f           addq.w 0x4, a7
      > 0x005c13de      554f           subq.w 0x2, a7
          0x005c13e0      2f14           move.l (a4), -(a7)
          0x005c13e2      48780001       pea.l 0x1
          0x005c13e6      2f00           move.l d0, -(a7)
          0x005c13e8      2f3c00020000   move.l 0x20000, -(a7)
          0x005c13ee      486effae       pea.l -0x52(a6)
          0x005c13f2      4eb900604854   jsr F9_FILERDWRT.f_read_blocks
          0x005c13f8      defc0014       adda.w 0x14, a7
          0x005c13fc      4a1f           tst.b (a7)+
      < 0x005c13fe      6636           bne.b 0x5c1436
         0x005c1400      9ec2           suba.w d2, a7
         0x005c1402      4eb900408ec0   jsr p_err_string
         0x005c1408      487acf89       pea.l 0x5be393(pc)
         0x005c140c      48780026       pea.l 0x26
         0x005c1410      2f17           move.l (a7), -(a7)
         0x005c1412      4e90           jsr (a0)                    ; fcn.00000009
         0x005c1414      dec1           adda.w d1, a7
         0x005c1416      486f0001       pea.l 0x1(a7)
         0x005c141a      42a7           clr.l -(a7)
         0x005c141c      1f6f00080003   move.b 0x8(a7), 0x3(a7)
         0x005c1422      2f17           move.l (a7), -(a7)
         0x005c1424      4e90           jsr (a0)                    ; fcn.00000009
         0x005c1426      dec3           adda.w d3, a7
         0x005c1428      4e92           jsr (a2)                    ; fcn.00000009+0x2
         0x005c142a      4eb900404188   jsr p_Unlink
         0x005c1430      4851           pea.l (a1)
         0x005c1432      4e93           jsr (a3)                    ; fcn.0000000c
         0x005c1434      584f           addq.w 0x4, a7
      > 0x005c1436      4854           pea.l (a4)
          0x005c1438      4eb90060470a   jsr F9_FILERDWRT.f_close
          0x005c143e      1eae0010       move.b 0x10(a6), (a7)
          0x005c1442      1f3c0009       move.b 0x9, -(a7)
          0x005c1446      48780000       pea.l 0x0
          0x005c144a      2f2e0008       move.l 0x8(a6), -(a7)
          0x005c144e      486e000c       pea.l 0xc(a6)
          0x005c1452      2f2e0018       move.l 0x18(a6), -(a7)
          0x005c1456      2f2e0014       move.l 0x14(a6), -(a7)
          0x005c145a      3f2e0012       move.w 0x12(a6), -(a7)
          0x005c145e      486effaa       pea.l -0x56(a6)
          0x005c1462      4eb9005ed4dc   jsr FILE_STRUCTURE.fs_file_addr
          0x005c1468      dec6           adda.w d6, a7
          0x005c146a      4a1f           tst.b (a7)+
      < 0x005c146c      6636           bne.b 0x5c14a4
         0x005c146e      9ec2           suba.w d2, a7
         0x005c1470      4eb900408ec0   jsr p_err_string
         0x005c1476      487acf42       pea.l 0x5be3ba(pc)
         0x005c147a      48780031       pea.l 0x31
         0x005c147e      2f17           move.l (a7), -(a7)
         0x005c1480      4e90           jsr (a0)                    ; fcn.00000009
         0x005c1482      dec1           adda.w d1, a7
         0x005c1484      486f0001       pea.l 0x1(a7)
         0x005c1488      42a7           clr.l -(a7)
         0x005c148a      1f6f00080003   move.b 0x8(a7), 0x3(a7)
         0x005c1490      2f17           move.l (a7), -(a7)
         0x005c1492      4e90           jsr (a0)                    ; fcn.00000009
         0x005c1494      dec3           adda.w d3, a7
         0x005c1496      4e92           jsr (a2)                    ; fcn.00000009+0x2
         0x005c1498      4eb900404188   jsr p_Unlink
         0x005c149e      4851           pea.l (a1)
         0x005c14a0      4e93           jsr (a3)                    ; fcn.0000000c
         0x005c14a2      584f           addq.w 0x4, a7
      > 0x005c14a4      554f           subq.w 0x2, a7
          0x005c14a6      1f2e0010       move.b 0x10(a6), -(a7)
          0x005c14aa      1f3c0002       move.b 0x2, -(a7)
          0x005c14ae      48780000       pea.l 0x0
          0x005c14b2      2f2e0008       move.l 0x8(a6), -(a7)
          0x005c14b6      486e000c       pea.l 0xc(a6)
          0x005c14ba      2f2e0018       move.l 0x18(a6), -(a7)
          0x005c14be      2f2e0014       move.l 0x14(a6), -(a7)
          0x005c14c2      3f2e0012       move.w 0x12(a6), -(a7)
          0x005c14c6      486effaa       pea.l -0x56(a6)
          0x005c14ca      4eb9005ed4dc   jsr FILE_STRUCTURE.fs_file_addr
          0x005c14d0      dec6           adda.w d6, a7
          0x005c14d2      4a1f           tst.b (a7)+
      < 0x005c14d4      6636           bne.b 0x5c150c
         0x005c14d6      9ec2           suba.w d2, a7
         0x005c14d8      4eb900408ec0   jsr p_err_string
         0x005c14de      487acf0c       pea.l 0x5be3ec(pc)
         0x005c14e2      4878002f       pea.l 0x2f
         0x005c14e6      2f17           move.l (a7), -(a7)
         0x005c14e8      4e90           jsr (a0)                    ; fcn.00000009
         0x005c14ea      dec1           adda.w d1, a7
         0x005c14ec      486f0001       pea.l 0x1(a7)
         0x005c14f0      42a7           clr.l -(a7)
         0x005c14f2      1f6f00080003   move.b 0x8(a7), 0x3(a7)
         0x005c14f8      2f17           move.l (a7), -(a7)
         0x005c14fa      4e90           jsr (a0)                    ; fcn.00000009
         0x005c14fc      dec3           adda.w d3, a7
         0x005c14fe      4e92           jsr (a2)                    ; fcn.00000009+0x2
         0x005c1500      4eb900404188   jsr p_Unlink
         0x005c1506      4851           pea.l (a1)
         0x005c1508      4e93           jsr (a3)                    ; fcn.0000000c
         0x005c150a      584f           addq.w 0x4, a7
      > 0x005c150c      554f           subq.w 0x2, a7
          0x005c150e      2f2e0018       move.l 0x18(a6), -(a7)
          0x005c1512      2f2e0014       move.l 0x14(a6), -(a7)
          0x005c1516      3f2e0012       move.w 0x12(a6), -(a7)
          0x005c151a      1f04           move.b d4, -(a7)
          0x005c151c      4854           pea.l (a4)
          0x005c151e      4eb90060477a   jsr F9_FILERDWRT.f_op_block
          0x005c1524      dec5           adda.w d5, a7
          0x005c1526      4a1f           tst.b (a7)+
      < 0x005c1528      6636           bne.b 0x5c1560
         0x005c152a      9ec2           suba.w d2, a7
         0x005c152c      4eb900408ec0   jsr p_err_string
         0x005c1532      487acefb       pea.l 0x5be42f(pc)
         0x005c1536      48780025       pea.l 0x25
         0x005c153a      2f17           move.l (a7), -(a7)
         0x005c153c      4e90           jsr (a0)                    ; fcn.00000009
         0x005c153e      dec1           adda.w d1, a7
         0x005c1540      486f0001       pea.l 0x1(a7)
         0x005c1544      42a7           clr.l -(a7)
         0x005c1546      1f6f00080003   move.b 0x8(a7), 0x3(a7)
         0x005c154c      2f17           move.l (a7), -(a7)
         0x005c154e      4e90           jsr (a0)                    ; fcn.00000009
         0x005c1550      dec3           adda.w d3, a7
         0x005c1552      4e92           jsr (a2)                    ; fcn.00000009+0x2
         0x005c1554      4eb900404188   jsr p_Unlink
         0x005c155a      4851           pea.l (a1)
         0x005c155c      4e93           jsr (a3)                    ; fcn.0000000c
         0x005c155e      584f           addq.w 0x4, a7
      > 0x005c1560      554f           subq.w 0x2, a7
          0x005c1562      2f14           move.l (a4), -(a7)
          0x005c1564      2f2effaa       move.l -0x56(a6), -(a7)
          0x005c1568      4eb900604c60   jsr F9_FILERDWRT.f_seek_to_block
          0x005c156e      504f           addq.w 0x8, a7
          0x005c1570      4a1f           tst.b (a7)+
      < 0x005c1572      6636           bne.b 0x5c15aa
         0x005c1574      9ec2           suba.w d2, a7
         0x005c1576      4eb900408ec0   jsr p_err_string
         0x005c157c      487aced7       pea.l 0x5be455(pc)
         0x005c1580      4878002d       pea.l 0x2d
         0x005c1584      2f17           move.l (a7), -(a7)
         0x005c1586      4e90           jsr (a0)                    ; fcn.00000009
         0x005c1588      dec1           adda.w d1, a7
         0x005c158a      486f0001       pea.l 0x1(a7)
         0x005c158e      42a7           clr.l -(a7)
         0x005c1590      1f6f00080003   move.b 0x8(a7), 0x3(a7)
         0x005c1596      2f17           move.l (a7), -(a7)
         0x005c1598      4e90           jsr (a0)                    ; fcn.00000009
         0x005c159a      dec3           adda.w d3, a7
         0x005c159c      4e92           jsr (a2)                    ; fcn.00000009+0x2
         0x005c159e      4eb900404188   jsr p_Unlink
         0x005c15a4      4851           pea.l (a1)
         0x005c15a6      4e93           jsr (a3)                    ; fcn.0000000c
         0x005c15a8      584f           addq.w 0x4, a7
      > 0x005c15aa      554f           subq.w 0x2, a7
          0x005c15ac      2f14           move.l (a4), -(a7)
          0x005c15ae      48780001       pea.l 0x1
          0x005c15b2      2f00           move.l d0, -(a7)
          0x005c15b4      2f3c00020000   move.l 0x20000, -(a7)
          0x005c15ba      4eb9006049ac   jsr F9_FILERDWRT.f_write_blocks
          0x005c15c0      dec5           adda.w d5, a7
          0x005c15c2      4a1f           tst.b (a7)+
      < 0x005c15c4      6636           bne.b 0x5c15fc
         0x005c15c6      9ec2           suba.w d2, a7
         0x005c15c8      4eb900408ec0   jsr p_err_string
         0x005c15ce      487aceb3       pea.l 0x5be483(pc)
         0x005c15d2      48780025       pea.l 0x25
         0x005c15d6      2f17           move.l (a7), -(a7)
         0x005c15d8      4e90           jsr (a0)                    ; fcn.00000009
         0x005c15da      dec1           adda.w d1, a7
         0x005c15dc      486f0001       pea.l 0x1(a7)
         0x005c15e0      42a7           clr.l -(a7)
         0x005c15e2      1f6f00080003   move.b 0x8(a7), 0x3(a7)
         0x005c15e8      2f17           move.l (a7), -(a7)
         0x005c15ea      4e90           jsr (a0)                    ; fcn.00000009
         0x005c15ec      dec3           adda.w d3, a7
         0x005c15ee      4e92           jsr (a2)                    ; fcn.00000009+0x2
         0x005c15f0      4eb900404188   jsr p_Unlink
         0x005c15f6      4851           pea.l (a1)
         0x005c15f8      4e93           jsr (a3)                    ; fcn.0000000c
         0x005c15fa      584f           addq.w 0x4, a7
      > 0x005c15fc      1d44001c       move.b d4, 0x1c(a6)
       > 0x005c1600      202effb2       move.l -0x4e(a6), d0
           0x005c1604      b09f           cmp.l (a7)+, d0
       < 0x005c1606      6716           beq.b 0x5c161e
          0x005c1608      486effb2       pea.l -0x4e(a6)
          0x005c160c      202effa6       move.l -0x5a(a6), d0
          0x005c1610      e180           asl.l 0x8, d0
          0x005c1612      e580           asl.l 0x2, d0
          0x005c1614      2f00           move.l d0, -(a7)
          0x005c1616      4eb900403b98   jsr p_Dispos
          0x005c161c      504f           addq.w 0x8, a7
       > 0x005c161e      4854           pea.l (a4)
           0x005c1620      4eb90060470a   jsr F9_FILERDWRT.f_close
           0x005c1626      584f           addq.w 0x4, a7
           0x005c1628      4cdf1f7f       movem.l (a7)+, d0-d6/a0-a4
           0x005c162c      4e5e           unlk a6
           0x005c162e      4e75           rts
            ; CALL XREF from AFS_FILER.afs_write_mem_f @ 0x5c1ae2
            ; CALL XREF from AFS_FILER.afs_read_mem_fi @ 0x5c1e7c
 564: AFS_FILER.check_start_pos ();
           ; var int32_t var_8h @ a7+0x8
           0x005c1630      4e56fea4       link.w a6, 0xfea4
           0x005c1634      bfd5           cmpa.l (a5), a7
       < 0x005c1636      6206           bhi.b 0x5c163e
          0x005c1638      44fc0002       move.w 0x2, ccr
          0x005c163c      4e76           trapv
       > 0x005c163e      defc014e       adda.w 0x14e, a7
           0x005c1642      48e7fff8       movem.l d0-d7/a0-a4, -(a7)
           0x005c1646      43f9004047ea   lea.l p_wts_o, a1
           0x005c164c      45eefffa       lea.l -0x6(a6), a2
           0x005c1650      47ee001a       lea.l 0x1a(a6), a3
           0x005c1654      49ee0016       lea.l 0x16(a6), a4
           0x005c1658      740c           moveq 0xc, d2
           0x005c165a      282e0010       move.l 0x10(a6), d4
           0x005c165e      263c00000400   move.l 0x400, d3
           0x005c1664      4eb900406b50   jsr fcn.00406b50
           0x005c166a      2e04           move.l d4, d7
           0x005c166c      2c2e0010       move.l 0x10(a6), d6
           0x005c1670      dcae000c       add.l 0xc(a6), d6
           0x005c1674      5386           subq.l 0x1, d6
           0x005c1676      2806           move.l d6, d4
           0x005c1678      263c00000400   move.l 0x400, d3
           0x005c167e      4eb900406b50   jsr fcn.00406b50
           0x005c1684      2c04           move.l d4, d6
           0x005c1686      7a06           moveq 0x6, d5
           0x005c1688      24bcffff0001   move.l 0xffff0001, (a2)
           0x005c168e      4a2e001e       tst.b 0x1e(a6)
       < 0x005c1692      6606           bne.b 0x5c169a
          0x005c1694      422effff       clr.b -0x1(a6)
      < 0x005c1698      6006           bra.b 0x5c16a0
      > 0x005c169a      1d7c0001ffff   move.b 0x1, -0x1(a6)
      > 0x005c16a0      554f           subq.w 0x2, a7
           0x005c16a2      2f13           move.l (a3), -(a7)
           0x005c16a4      2f14           move.l (a4), -(a7)
           0x005c16a6      3f2e0014       move.w 0x14(a6), -(a7)
           0x005c16aa      102effff       move.b -0x1(a6), d0
           0x005c16ae      4880           ext.w d0
           0x005c16b0      41bc0004       chk.w 0x4, d0
           0x005c16b4      1f00           move.b d0, -(a7)
           0x005c16b6      4852           pea.l (a2)
           0x005c16b8      4eb9006082de   jsr F10_FILELIST.f_get_header
           0x005c16be      defc0010       adda.w 0x10, a7
           0x005c16c2      4a1f           tst.b (a7)+
       < 0x005c16c4      6640           bne.b 0x5c1706
          0x005c16c6      9efc0100       suba.w 0x100, a7
          0x005c16ca      4eb900408ec0   jsr p_err_string
          0x005c16d0      487acdd7       pea.l 0x5be4a9(pc)
          0x005c16d4      4878002c       pea.l 0x2c
          0x005c16d8      2f17           move.l (a7), -(a7)
          0x005c16da      4e91           jsr (a1)                    ; fcn.0000000a
          0x005c16dc      dec2           adda.w d2, a7
          0x005c16de      486f0001       pea.l 0x1(a7)
          0x005c16e2      42a7           clr.l -(a7)
          0x005c16e4      1f6f00080003   move.b 0x8(a7), 0x3(a7)
          0x005c16ea      2f17           move.l (a7), -(a7)
      > 0x005c16ec      4e91           jsr (a1)                    ; fcn.0000000a
         0x005c16ee      defc010c       adda.w 0x10c, a7
         0x005c16f2      4eb900404946   jsr p_wtln_o
         0x005c16f8      4eb900404188   jsr p_Unlink
     > 0x005c16fe      422e0020       clr.b 0x20(a6)
    < 0x005c1702      6000014e       bra.w 0x5c1852
    > 0x005c1706      2006           move.l d6, d0
        0x005c1708      9087           sub.l d7, d0
        0x005c170a      5280           addq.l 0x1, d0
        0x005c170c      206e0008       movea.l 0x8(a6), a0
        0x005c1710      554f           subq.w 0x2, a7
        0x005c1712      1f05           move.b d5, -(a7)
        0x005c1714      1f2e001e       move.b 0x1e(a6), -(a7)
        0x005c1718      2f07           move.l d7, -(a7)
        0x005c171a      2f00           move.l d0, -(a7)
        0x005c171c      4852           pea.l (a2)
        0x005c171e      2f13           move.l (a3), -(a7)
        0x005c1720      2f14           move.l (a4), -(a7)
        0x005c1722      3f2e0014       move.w 0x14(a6), -(a7)
        0x005c1726      4850           pea.l (a0)
        0x005c1728      4eb9005ed4dc   jsr FILE_STRUCTURE.fs_file_addr
        0x005c172e      defc001e       adda.w 0x1e, a7
        0x005c1732      4a1f           tst.b (a7)+
    < 0x005c1734      660000fe       bne.w 0x5c1834
       0x005c1738      122e001e       move.b 0x1e(a6), d1
       0x005c173c      0c010002       cmpi.b 0x2, d1
   < 0x005c1740      660000e0       bne.w 0x5c1822
      0x005c1744      554f           subq.w 0x2, a7
      0x005c1746      4eb9005eda22   jsr FILE_STRUCTURE.fs_too_small
      0x005c174c      4a1f           tst.b (a7)+
  < 0x005c174e      662a           bne.b 0x5c177a
     0x005c1750      9efc0100       suba.w 0x100, a7
     0x005c1754      4eb900408ec0   jsr p_err_string
     0x005c175a      487acd7a       pea.l 0x5be4d6(pc)
 > 0x005c175e      4878002d       pea.l 0x2d
    0x005c1762      2f17           move.l (a7), -(a7)
    0x005c1764      4e91           jsr (a1)                    ; fcn.0000000a
    0x005c1766      dec2           adda.w d2, a7
    0x005c1768      486f0001       pea.l 0x1(a7)
    0x005c176c      42a7           clr.l -(a7)
    0x005c176e      1f6f00080003   move.b 0x8(a7), 0x3(a7)
    0x005c1774      2f17           move.l (a7), -(a7)
 < 0x005c1776      6000ff74       bra.w 0x5c16ec
 > 0x005c177a      487acd88       pea.l 0x5be504(pc)
      0x005c177e      48780033       pea.l 0x33
      0x005c1782      2f17           move.l (a7), -(a7)
      0x005c1784      4e91           jsr (a1)                    ; fcn.0000000a
      0x005c1786      dec2           adda.w d2, a7
      0x005c1788      4eb900404946   jsr p_wtln_o
      0x005c178e      554f           subq.w 0x2, a7
      0x005c1790      2f13           move.l (a3), -(a7)
      0x005c1792      2f14           move.l (a4), -(a7)
      0x005c1794      3f2e0014       move.w 0x14(a6), -(a7)
      0x005c1798      1f05           move.b d5, -(a7)
      0x005c179a      2f12           move.l (a2), -(a7)
      0x005c179c      2f06           move.l d6, -(a7)
      0x005c179e      5297           addq.l 0x1, (a7)
      0x005c17a0      4ebafaa8       jsr AFS_FILER.enlarge_section(pc)
      0x005c17a4      defc0014       adda.w 0x14, a7
      0x005c17a8      4a1f           tst.b (a7)+
  < 0x005c17aa      6618           bne.b 0x5c17c4
     0x005c17ac      487acd8a       pea.l 0x5be538(pc)
     0x005c17b0      4878002c       pea.l 0x2c
     0x005c17b4      2f17           move.l (a7), -(a7)
 > 0x005c17b6      4e91           jsr (a1)                    ; fcn.0000000a
    0x005c17b8      dec2           adda.w d2, a7
    0x005c17ba      4eb900404946   jsr p_wtln_o
 < 0x005c17c0      6000ff3c       bra.w 0x5c16fe
  > 0x005c17c4      554f           subq.w 0x2, a7
      0x005c17c6      1f05           move.b d5, -(a7)
      0x005c17c8      1f01           move.b d1, -(a7)
      0x005c17ca      2f07           move.l d7, -(a7)
      0x005c17cc      2f00           move.l d0, -(a7)
      0x005c17ce      4852           pea.l (a2)
      0x005c17d0      2f13           move.l (a3), -(a7)
      0x005c17d2      2f14           move.l (a4), -(a7)
      0x005c17d4      3f2e0014       move.w 0x14(a6), -(a7)
      0x005c17d8      4850           pea.l (a0)
      0x005c17da      4eb9005ed4dc   jsr FILE_STRUCTURE.fs_file_addr
      0x005c17e0      defc001e       adda.w 0x1e, a7
      0x005c17e4      4a1f           tst.b (a7)+
  < 0x005c17e6      666a           bne.b 0x5c1852
     0x005c17e8      9efc0100       suba.w 0x100, a7
     0x005c17ec      4eb900408ec0   jsr p_err_string
     0x005c17f2      487acd71       pea.l 0x5be565(pc)
     0x005c17f6      48780030       pea.l 0x30
     0x005c17fa      2f17           move.l (a7), -(a7)
     0x005c17fc      4e91           jsr (a1)                    ; fcn.0000000a
     0x005c17fe      dec2           adda.w d2, a7
     0x005c1800      486f0001       pea.l 0x1(a7)
     0x005c1804      42a7           clr.l -(a7)
     0x005c1806      1f6f00080003   move.b 0x8(a7), 0x3(a7)
     0x005c180c      2f17           move.l (a7), -(a7)
     0x005c180e      4e91           jsr (a1)                    ; fcn.0000000a
     0x005c1810      defc010c       adda.w 0x10c, a7
     0x005c1814      4eb900404946   jsr p_wtln_o
     0x005c181a      4eb900404188   jsr p_Unlink
 < 0x005c1820      6030           bra.b 0x5c1852
 > 0x005c1822      9efc0100       suba.w 0x100, a7
     0x005c1826      4eb900408ec0   jsr p_err_string
     0x005c182c      487acd68       pea.l 0x5be596(pc)
 < 0x005c1830      6000ff2c       bra.w 0x5c175e
   > 0x005c1834      2010           move.l (a0), d0
       0x005c1836      0c80ffffffff   cmpi.l 0xffffffff, d0
   < 0x005c183c      660e           bne.b 0x5c184c
      0x005c183e      487acd84       pea.l 0x5be5c4(pc)
      0x005c1842      48780027       pea.l 0x27
      0x005c1846      2f17           move.l (a7), -(a7)
  < 0x005c1848      6000ff6c       bra.w 0x5c17b6
    > 0x005c184c      1d7c00010020   move.b 0x1, 0x20(a6)
    > 0x005c1852      4852           pea.l (a2)
           0x005c1854      4eb90060500e   jsr F9_FILERDWRT.f_free_block
           0x005c185a      584f           addq.w 0x4, a7
           0x005c185c      4cdf1fff       movem.l (a7)+, d0-d7/a0-a4
           0x005c1860      4e5e           unlk a6
           0x005c1862      4e75           rts
            ; CALL XREFS from AFS_FILER.afs_write_mem_f @ 0x5c1bb0, 0x5c1c9c
 506: AFS_FILER.rmw_block ();
           0x005c1864      4e56fb08       link.w a6, 0xfb08
           0x005c1868      bfd5           cmpa.l (a5), a7
       < 0x005c186a      6206           bhi.b 0x5c1872
          0x005c186c      44fc0002       move.w 0x2, ccr
          0x005c1870      4e76           trapv
       > 0x005c1872      defc00a6       adda.w 0xa6, a7
           0x005c1876      48e7fff0       movem.l d0-d7/a0-a3, -(a7)
           0x005c187a      45ec0056       lea.l 0x56(a4), a2
           0x005c187e      47f80001       lea.l 0x1, a3
           0x005c1882      7401           moveq 0x1, d2
           0x005c1884      2a3c00000400   move.l 0x400, d5
           0x005c188a      7c10           moveq 0x10, d6
           0x005c188c      422e000a       clr.b 0xa(a6)
           0x005c1890      554f           subq.w 0x2, a7
           0x005c1892      486efbb2       pea.l -0x44e(a6)
           0x005c1896      4eb900404434   jsr fcn.00404434
           0x005c189c      584f           addq.w 0x4, a7
           0x005c189e      4a1f           tst.b (a7)+
       < 0x005c18a0      670001b4       beq.w 0x5c1a56
          0x005c18a4      41eefbfc       lea.l -0x404(a6), a0
          0x005c18a8      2f08           move.l a0, -(a7)
          0x005c18aa      2e1f           move.l (a7)+, d7
          0x005c18ac      42aefffc       clr.l -0x4(a6)
          0x005c18b0      554f           subq.w 0x2, a7
          0x005c18b2      2f2c005a       move.l 0x5a(a4), -(a7)
          0x005c18b6      4853           pea.l (a3)
          0x005c18b8      2f07           move.l d7, -(a7)
          0x005c18ba      2f3c00020000   move.l 0x20000, -(a7)
          0x005c18c0      486efffc       pea.l -0x4(a6)
          0x005c18c4      4eb900604854   jsr F9_FILERDWRT.f_read_blocks
          0x005c18ca      defc0014       adda.w 0x14, a7
          0x005c18ce      4a1f           tst.b (a7)+
      < 0x005c18d0      6672           bne.b 0x5c1944
         0x005c18d2      554f           subq.w 0x2, a7
         0x005c18d4      4eb9005ef980   jsr F2_UTILITY.f_eof
         0x005c18da      4a1f           tst.b (a7)+
     < 0x005c18dc      671c           beq.b 0x5c18fa
        0x005c18de      487acd20       pea.l 0x5be600(pc)
        0x005c18e2      48780032       pea.l 0x32
        0x005c18e6      2f17           move.l (a7), -(a7)
        0x005c18e8      4eb9004047ea   jsr p_wts_o
        0x005c18ee      defc000c       adda.w 0xc, a7
        0x005c18f2      4eb900404946   jsr p_wtln_o
    < 0x005c18f8      604a           bra.b 0x5c1944
    > 0x005c18fa      9efc0018       suba.w 0x18, a7
        0x005c18fe      204f           movea.l a7, a0
        0x005c1900      43facd31       lea.l 0x5be633(pc), a1
        0x005c1904      7016           moveq 0x16, d0
    > 0x005c1906      10d9           move.b (a1)+, (a0)+
    < 0x005c1908      51c8fffc       dbra d0, 0x5c1906
        0x005c190c      4857           pea.l (a7)
        0x005c190e      4853           pea.l (a3)
        0x005c1910      48780017       pea.l 0x17
        0x005c1914      1f02           move.b d2, -(a7)
        0x005c1916      1f02           move.b d2, -(a7)
        0x005c1918      41eefbfc       lea.l -0x404(a6), a0
        0x005c191c      7011           moveq 0x11, d0
    > 0x005c191e      2f20           move.l -(a0), -(a7)
    < 0x005c1920      51c8fffc       dbra d0, 0x5c191e
        0x005c1924      3f20           move.w -(a0), -(a7)
        0x005c1926      4eb9005c6e76   jsr AFS1_UTIL.afs1_abort
        0x005c192c      defc0070       adda.w 0x70, a7
        0x005c1930      4217           clr.b (a7)
        0x005c1932      202efffc       move.l -0x4(a6), d0
        0x005c1936      b082           cmp.l d2, d0
    < 0x005c1938      6602           bne.b 0x5c193c
       0x005c193a      5217           addq.b 0x1, (a7)
    > 0x005c193c      4eb90040452a   jsr p_Assert
        0x005c1942      544f           addq.w 0x2, a7
    > 0x005c1944      4a2e0008       tst.b 0x8(a6)
      < 0x005c1948      6712           beq.b 0x5c195c
         0x005c194a      282c0072       move.l 0x72(a4), d4
         0x005c194e      2605           move.l d5, d3
         0x005c1950      4eb900406b50   jsr fcn.00406b50
         0x005c1956      29430052       move.l d3, 0x52(a4)
     < 0x005c195a      6018           bra.b 0x5c1974
     > 0x005c195c      4227           clr.b -(a7)
         0x005c195e      202c006a       move.l 0x6a(a4), d0
         0x005c1962      b085           cmp.l d5, d0
     < 0x005c1964      6c02           bge.b 0x5c1968
        0x005c1966      5217           addq.b 0x1, (a7)
     > 0x005c1968      4eb90040452a   jsr p_Assert
         0x005c196e      544f           addq.w 0x2, a7
         0x005c1970      42ac0052       clr.l 0x52(a4)
     > 0x005c1974      202c006a       move.l 0x6a(a4), d0
          0x005c1978      b085           cmp.l d5, d0
      < 0x005c197a      6d0a           blt.b 0x5c1986
         0x005c197c      2205           move.l d5, d1
         0x005c197e      92ac0052       sub.l 0x52(a4), d1
         0x005c1982      2481           move.l d1, (a2)
     < 0x005c1984      6002           bra.b 0x5c1988
     > 0x005c1986      2480           move.l d0, (a2)
     > 0x005c1988      2f2c006e       move.l 0x6e(a4), -(a7)
          0x005c198c      2207           move.l d7, d1
          0x005c198e      d2ac0052       add.l 0x52(a4), d1
          0x005c1992      2f01           move.l d1, -(a7)
          0x005c1994      2f12           move.l (a2), -(a7)
          0x005c1996      4eb9006d1c4e   jsr MEM_COPY
          0x005c199c      5c4f           addq.w 0x6, a7
          0x005c199e      2eac005a       move.l 0x5a(a4), (a7)
          0x005c19a2      2f2c004a       move.l 0x4a(a4), -(a7)
          0x005c19a6      4eb900604c60   jsr F9_FILERDWRT.f_seek_to_block
          0x005c19ac      504f           addq.w 0x8, a7
          0x005c19ae      4a1f           tst.b (a7)+
      < 0x005c19b0      6634           bne.b 0x5c19e6
         0x005c19b2      9ec6           suba.w d6, a7
         0x005c19b4      204f           movea.l a7, a0
         0x005c19b6      43faccd5       lea.l 0x5be68d(pc), a1
         0x005c19ba      720f           moveq 0xf, d1
     > 0x005c19bc      10d9           move.b (a1)+, (a0)+
     < 0x005c19be      51c9fffc       dbra d1, 0x5c19bc
         0x005c19c2      4857           pea.l (a7)
         0x005c19c4      4853           pea.l (a3)
         0x005c19c6      48780010       pea.l 0x10
         0x005c19ca      1f02           move.b d2, -(a7)
         0x005c19cc      1f02           move.b d2, -(a7)
         0x005c19ce      41eefbfc       lea.l -0x404(a6), a0
         0x005c19d2      7211           moveq 0x11, d1
     > 0x005c19d4      2f20           move.l -(a0), -(a7)
     < 0x005c19d6      51c9fffc       dbra d1, 0x5c19d4
         0x005c19da      3f20           move.w -(a0), -(a7)
         0x005c19dc      4eb9005c6e76   jsr AFS1_UTIL.afs1_abort
         0x005c19e2      defc006a       adda.w 0x6a, a7
      > 0x005c19e6      554f           subq.w 0x2, a7
          0x005c19e8      2f2c005a       move.l 0x5a(a4), -(a7)
          0x005c19ec      4853           pea.l (a3)
          0x005c19ee      2f07           move.l d7, -(a7)
          0x005c19f0      2f3c00020000   move.l 0x20000, -(a7)
          0x005c19f6      4eb9006049ac   jsr F9_FILERDWRT.f_write_blocks
          0x005c19fc      dec6           adda.w d6, a7
          0x005c19fe      4a1f           tst.b (a7)+
      < 0x005c1a00      6636           bne.b 0x5c1a38
         0x005c1a02      9efc0012       suba.w 0x12, a7
         0x005c1a06      204f           movea.l a7, a0
         0x005c1a08      43facca5       lea.l 0x5be6af(pc), a1
         0x005c1a0c      7211           moveq 0x11, d1
     > 0x005c1a0e      10d9           move.b (a1)+, (a0)+
     < 0x005c1a10      51c9fffc       dbra d1, 0x5c1a0e
         0x005c1a14      4857           pea.l (a7)
         0x005c1a16      4853           pea.l (a3)
         0x005c1a18      48780012       pea.l 0x12
         0x005c1a1c      1f02           move.b d2, -(a7)
         0x005c1a1e      1f02           move.b d2, -(a7)
         0x005c1a20      41eefbfc       lea.l -0x404(a6), a0
         0x005c1a24      7211           moveq 0x11, d1
     > 0x005c1a26      2f20           move.l -(a0), -(a7)
     < 0x005c1a28      51c9fffc       dbra d1, 0x5c1a26
         0x005c1a2c      3f20           move.w -(a0), -(a7)
         0x005c1a2e      4eb9005c6e76   jsr AFS1_UTIL.afs1_abort
         0x005c1a34      defc006c       adda.w 0x6c, a7
      > 0x005c1a38      222c006e       move.l 0x6e(a4), d1
          0x005c1a3c      d292           add.l (a2), d1
          0x005c1a3e      2941006e       move.l d1, 0x6e(a4)
          0x005c1a42      222c0072       move.l 0x72(a4), d1
          0x005c1a46      d292           add.l (a2), d1
          0x005c1a48      29410072       move.l d1, 0x72(a4)
          0x005c1a4c      9092           sub.l (a2), d0
          0x005c1a4e      2940006a       move.l d0, 0x6a(a4)
          0x005c1a52      1d42000a       move.b d2, 0xa(a6)
       > 0x005c1a56      4cdf0fff       movem.l (a7)+, d0-d7/a0-a3
           0x005c1a5a      4e5e           unlk a6
           0x005c1a5c      4e75           rts
            ; CALL XREF from K1_AFS_ONLY.k1_write_mem_fi @ 0x5abfe6
 666: AFS_FILER.afs_write_mem_f ();
           ; var int32_t var_34a2h @ a6-0x34a2
           ; var int32_t var_349dh @ a6-0x349d
           ; var int32_t var_3396h @ a6-0x3396
           ; var int32_t var_3391h @ a6-0x3391
           0x005c1a5e      4e56fefa       link.w a6, 0xfefa
           0x005c1a62      bfd5           cmpa.l (a5), a7
       < 0x005c1a64      6206           bhi.b 0x5c1a6c
          0x005c1a66      44fc0002       move.w 0x2, ccr
          0x005c1a6a      4e76           trapv
       > 0x005c1a6c      defc00a6       adda.w 0xa6, a7
           0x005c1a70      48e7fff8       movem.l d0-d7/a0-a4, -(a7)
           0x005c1a74      47eeffea       lea.l -0x16(a6), a3
           0x005c1a78      7201           moveq 0x1, d1
           0x005c1a7a      740c           moveq 0xc, d2
           0x005c1a7c      7a10           moveq 0x10, d5
           0x005c1a7e      2c3c00000400   move.l 0x400, d6
           0x005c1a84      282e000a       move.l 0xa(a6), d4
           0x005c1a88      2606           move.l d6, d3
           0x005c1a8a      4eb900406b50   jsr fcn.00406b50
           0x005c1a90      2684           move.l d4, (a3)
           0x005c1a92      4a83           tst.l d3
       < 0x005c1a94      6704           beq.b 0x5c1a9a
          0x005c1a96      2684           move.l d4, (a3)
          0x005c1a98      5293           addq.l 0x1, (a3)
       > 0x005c1a9a      1d7acc6f001a   move.b 0x5be70b(pc), 0x1a(a6)
           0x005c1aa0      1d7acc6a001b   move.b 0x5be70c(pc), 0x1b(a6)
           0x005c1aa6      2d41fffa       move.l d1, -0x6(a6)
           0x005c1aaa      554f           subq.w 0x2, a7
           0x005c1aac      486effa0       pea.l -0x60(a6)
           0x005c1ab0      4eb900404434   jsr fcn.00404434
           0x005c1ab6      584f           addq.w 0x4, a7
           0x005c1ab8      4a1f           tst.b (a7)+
       < 0x005c1aba      67000206       beq.w 0x5c1cc2
          0x005c1abe      206e0016       movea.l 0x16(a6), a0
          0x005c1ac2      554f           subq.w 0x2, a7
          0x005c1ac4      1f3c0002       move.b 0x2, -(a7)
          0x005c1ac8      9efc000a       suba.w 0xa, a7
          0x005c1acc      224f           movea.l a7, a1
          0x005c1ace      2448           movea.l a0, a2
          0x005c1ad0      7009           moveq 0x9, d0
      > 0x005c1ad2      12da           move.b (a2)+, (a1)+
      < 0x005c1ad4      51c8fffc       dbra d0, 0x5c1ad2
          0x005c1ad8      2f2e0012       move.l 0x12(a6), -(a7)
          0x005c1adc      2f2e000a       move.l 0xa(a6), -(a7)
          0x005c1ae0      4853           pea.l (a3)
          0x005c1ae2      4ebafb4c       jsr AFS_FILER.check_start_pos(pc)
          0x005c1ae6      defc0018       adda.w 0x18, a7
          0x005c1aea      4a1f           tst.b (a7)+
      < 0x005c1aec      6624           bne.b 0x5c1b12
         0x005c1aee      487acc1e       pea.l 0x5be70e(pc)
         0x005c1af2      4878002f       pea.l 0x2f
         0x005c1af6      2f17           move.l (a7), -(a7)
         0x005c1af8      4eb9004047ea   jsr p_wts_o
         0x005c1afe      dec2           adda.w d2, a7
         0x005c1b00      4eb900404946   jsr p_wtln_o
         0x005c1b06      486effa0       pea.l -0x60(a6)
         0x005c1b0a      4eb900404468   jsr fcn.00404468
         0x005c1b10      584f           addq.w 0x4, a7
      > 0x005c1b12      9ec2           suba.w d2, a7
          0x005c1b14      224f           movea.l a7, a1
          0x005c1b16      7009           moveq 0x9, d0
      > 0x005c1b18      12d8           move.b (a0)+, (a1)+
      < 0x005c1b1a      51c8fffc       dbra d0, 0x5c1b18
          0x005c1b1e      1f01           move.b d1, -(a7)
          0x005c1b20      486efffa       pea.l -0x6(a6)
          0x005c1b24      4eb90060477a   jsr F9_FILERDWRT.f_op_block
          0x005c1b2a      dec5           adda.w d5, a7
          0x005c1b2c      4a1f           tst.b (a7)+
      < 0x005c1b2e      6630           bne.b 0x5c1b60
         0x005c1b30      2f3acc14       move.l 0x5be746(pc), -(a7)
         0x005c1b34      2f3acc0c       move.l 0x5be742(pc), -(a7)
         0x005c1b38      2f3acc04       move.l 0x5be73e(pc), -(a7)
         0x005c1b3c      4857           pea.l (a7)
         0x005c1b3e      48780001       pea.l 0x1
         0x005c1b42      4878000c       pea.l 0xc
         0x005c1b46      1f01           move.b d1, -(a7)
         0x005c1b48      1f01           move.b d1, -(a7)
         0x005c1b4a      204b           movea.l a3, a0
         0x005c1b4c      7011           moveq 0x11, d0
     > 0x005c1b4e      2f20           move.l -(a0), -(a7)
     < 0x005c1b50      51c8fffc       dbra d0, 0x5c1b4e
         0x005c1b54      3f20           move.w -(a0), -(a7)
         0x005c1b56      4eb9005c6e76   jsr AFS1_UTIL.afs1_abort
         0x005c1b5c      defc0066       adda.w 0x66, a7
      > 0x005c1b60      554f           subq.w 0x2, a7
          0x005c1b62      2f2efffa       move.l -0x6(a6), -(a7)
          0x005c1b66      2f13           move.l (a3), -(a7)
          0x005c1b68      4eb900604c60   jsr F9_FILERDWRT.f_seek_to_block
          0x005c1b6e      504f           addq.w 0x8, a7
          0x005c1b70      4a1f           tst.b (a7)+
      < 0x005c1b72      6634           bne.b 0x5c1ba8
         0x005c1b74      2f3acbfc       move.l 0x5be772(pc), -(a7)
         0x005c1b78      2f3acbf4       move.l 0x5be76e(pc), -(a7)
         0x005c1b7c      2f3acbec       move.l 0x5be76a(pc), -(a7)
         0x005c1b80      2f3acbe4       move.l 0x5be766(pc), -(a7)
         0x005c1b84      4857           pea.l (a7)
         0x005c1b86      48780001       pea.l 0x1
         0x005c1b8a      48780010       pea.l 0x10
         0x005c1b8e      1f01           move.b d1, -(a7)
         0x005c1b90      1f01           move.b d1, -(a7)
         0x005c1b92      204b           movea.l a3, a0
         0x005c1b94      7011           moveq 0x11, d0
     > 0x005c1b96      2f20           move.l -(a0), -(a7)
     < 0x005c1b98      51c8fffc       dbra d0, 0x5c1b96
         0x005c1b9c      3f20           move.w -(a0), -(a7)
         0x005c1b9e      4eb9005c6e76   jsr AFS1_UTIL.afs1_abort
         0x005c1ba4      defc006a       adda.w 0x6a, a7
      > 0x005c1ba8      554f           subq.w 0x2, a7
          0x005c1baa      1f01           move.b d1, -(a7)
          0x005c1bac      49eeffa0       lea.l -0x60(a6), a4
          0x005c1bb0      4ebafcb2       jsr AFS_FILER.rmw_block(pc)
          0x005c1bb4      544f           addq.w 0x2, a7
          0x005c1bb6      4a1f           tst.b (a7)+
      < 0x005c1bb8      660c           bne.b 0x5c1bc6
         0x005c1bba      486effa0       pea.l -0x60(a6)
         0x005c1bbe      4eb900404468   jsr fcn.00404468
         0x005c1bc4      584f           addq.w 0x4, a7
      > 0x005c1bc6      5293           addq.l 0x1, (a3)
          0x005c1bc8      282e0012       move.l 0x12(a6), d4
          0x005c1bcc      2606           move.l d6, d3
          0x005c1bce      4eb900406b50   jsr fcn.00406b50
          0x005c1bd4      4a83           tst.l d3
      < 0x005c1bd6      6716           beq.b 0x5c1bee
         0x005c1bd8      4227           clr.b -(a7)
         0x005c1bda      4a83           tst.l d3
     < 0x005c1bdc      6706           beq.b 0x5c1be4
        0x005c1bde      4aae000a       tst.l 0xa(a6)
    < 0x005c1be2      6602           bne.b 0x5c1be6
    > 0x005c1be4      5217           addq.b 0x1, (a7)
    > 0x005c1be6      4eb90040452a   jsr p_Assert
         0x005c1bec      544f           addq.w 0x2, a7
      > 0x005c1bee      282e000a       move.l 0xa(a6), d4
          0x005c1bf2      2606           move.l d6, d3
          0x005c1bf4      4eb900406b50   jsr fcn.00406b50
          0x005c1bfa      2e04           move.l d4, d7
      < 0x005c1bfc      6700008e       beq.w 0x5c1c8c
         0x005c1c00      554f           subq.w 0x2, a7
         0x005c1c02      2f2efffa       move.l -0x6(a6), -(a7)
         0x005c1c06      2f07           move.l d7, -(a7)
         0x005c1c08      2f2e000e       move.l 0xe(a6), -(a7)
         0x005c1c0c      2f3c00020000   move.l 0x20000, -(a7)
         0x005c1c12      4eb9006049ac   jsr F9_FILERDWRT.f_write_blocks
         0x005c1c18      dec5           adda.w d5, a7
         0x005c1c1a      4a1f           tst.b (a7)+
     < 0x005c1c1c      6648           bne.b 0x5c1c66
        0x005c1c1e      9ec5           suba.w d5, a7
        0x005c1c20      2f3acba2       move.l 0x5be7c4(pc), -(a7)
        0x005c1c24      2f7acba20004   move.l 0x5be7c8(pc), 0x4(a7)
        0x005c1c2a      2f7acba00008   move.l 0x5be7cc(pc), 0x8(a7)
        0x005c1c30      2f7acb9e000c   move.l 0x5be7d0(pc), 0xc(a7)
        0x005c1c36      3f7acb9c0010   move.w 0x5be7d4(pc), 0x10(a7)
        0x005c1c3c      1f7acb980012   move.b 0x5be7d6(pc), 0x12(a7)
        0x005c1c42      4857           pea.l (a7)
        0x005c1c44      48780001       pea.l 0x1
        0x005c1c48      48780013       pea.l 0x13
        0x005c1c4c      1f01           move.b d1, -(a7)
        0x005c1c4e      1f01           move.b d1, -(a7)
        0x005c1c50      204b           movea.l a3, a0
        0x005c1c52      7011           moveq 0x11, d0
    > 0x005c1c54      2f20           move.l -(a0), -(a7)
    < 0x005c1c56      51c8fffc       dbra d0, 0x5c1c54
        0x005c1c5a      3f20           move.w -(a0), -(a7)
        0x005c1c5c      4eb9005c6e76   jsr AFS1_UTIL.afs1_abort
        0x005c1c62      defc006e       adda.w 0x6e, a7
     > 0x005c1c66      df93           add.l d7, (a3)
         0x005c1c68      2007           move.l d7, d0
         0x005c1c6a      e180           asl.l 0x8, d0
         0x005c1c6c      e580           asl.l 0x2, d0
         0x005c1c6e      2d40fff6       move.l d0, -0xa(a6)
         0x005c1c72      d1ae000e       add.l d0, 0xe(a6)
         0x005c1c76      91ae000a       sub.l d0, 0xa(a6)
         0x005c1c7a      4227           clr.b -(a7)
         0x005c1c7c      4aae000a       tst.l 0xa(a6)
     < 0x005c1c80      6d02           blt.b 0x5c1c84
        0x005c1c82      5217           addq.b 0x1, (a7)
     > 0x005c1c84      4eb90040452a   jsr p_Assert
         0x005c1c8a      544f           addq.w 0x2, a7
      > 0x005c1c8c      4aae000a       tst.l 0xa(a6)
      < 0x005c1c90      6602           bne.b 0x5c1c94
     < 0x005c1c92      601e           bra.b 0x5c1cb2
     > 0x005c1c94      554f           subq.w 0x2, a7
         0x005c1c96      4227           clr.b -(a7)
         0x005c1c98      49eeffa0       lea.l -0x60(a6), a4
         0x005c1c9c      4ebafbc6       jsr AFS_FILER.rmw_block(pc)
         0x005c1ca0      544f           addq.w 0x2, a7
         0x005c1ca2      4a1f           tst.b (a7)+
     < 0x005c1ca4      660c           bne.b 0x5c1cb2
        0x005c1ca6      486effa0       pea.l -0x60(a6)
        0x005c1caa      4eb900404468   jsr fcn.00404468
        0x005c1cb0      584f           addq.w 0x4, a7
     > 0x005c1cb2      1d7acb63001a   move.b 0x5be817(pc), 0x1a(a6)
          0x005c1cb8      1d7acb5e001b   move.b 0x5be818(pc), 0x1b(a6)
          0x005c1cbe      7e00           moveq 0x0, d7
      < 0x005c1cc0      601a           bra.b 0x5c1cdc
      > 0x005c1cc2      487acb74       pea.l 0x5be838(pc)
          0x005c1cc6      48780019       pea.l 0x19
          0x005c1cca      2f17           move.l (a7), -(a7)
          0x005c1ccc      4eb9004047ea   jsr p_wts_o
          0x005c1cd2      dec2           adda.w d2, a7
          0x005c1cd4      4eb900404946   jsr p_wtln_o
          0x005c1cda      7e01           moveq 0x1, d7
      > 0x005c1cdc      202efffa       move.l -0x6(a6), d0
           0x005c1ce0      b081           cmp.l d1, d0
       < 0x005c1ce2      670c           beq.b 0x5c1cf0
          0x005c1ce4      486efffa       pea.l -0x6(a6)
          0x005c1ce8      4eb90060470a   jsr F9_FILERDWRT.f_close
          0x005c1cee      584f           addq.w 0x4, a7
       > 0x005c1cf0      4cdf1fff       movem.l (a7)+, d0-d7/a0-a4
           0x005c1cf4      4e5e           unlk a6
           0x005c1cf6      4e75           rts
            ; CALL XREFS from AFS_FILER.afs_read_mem_fi @ 0x5c1f4a, 0x5c203a
 286: AFS_FILER.read_via_memory ();
           0x005c1cf8      4e56fb58       link.w a6, 0xfb58
           0x005c1cfc      bfd5           cmpa.l (a5), a7
       < 0x005c1cfe      6206           bhi.b 0x5c1d06
          0x005c1d00      44fc0002       move.w 0x2, ccr
          0x005c1d04      4e76           trapv
       > 0x005c1d06      defc00a0       adda.w 0xa0, a7
           0x005c1d0a      48e7fbf0       movem.l d0-d4/d6-d7/a0-a3, -(a7)
           0x005c1d0e      45ec0052       lea.l 0x52(a4), a2
           0x005c1d12      47ec006a       lea.l 0x6a(a4), a3
           0x005c1d16      7201           moveq 0x1, d1
           0x005c1d18      243c00000400   move.l 0x400, d2
           0x005c1d1e      422e000a       clr.b 0xa(a6)
           0x005c1d22      554f           subq.w 0x2, a7
           0x005c1d24      4854           pea.l (a4)
           0x005c1d26      4eb900404434   jsr fcn.00404434
           0x005c1d2c      584f           addq.w 0x4, a7
           0x005c1d2e      4a1f           tst.b (a7)+
       < 0x005c1d30      670000dc       beq.w 0x5c1e0e
          0x005c1d34      41eefc00       lea.l -0x400(a6), a0
          0x005c1d38      2f08           move.l a0, -(a7)
          0x005c1d3a      2c1f           move.l (a7)+, d6
          0x005c1d3c      42ac005a       clr.l 0x5a(a4)
          0x005c1d40      554f           subq.w 0x2, a7
          0x005c1d42      2f2c005e       move.l 0x5e(a4), -(a7)
          0x005c1d46      48780001       pea.l 0x1
          0x005c1d4a      2f06           move.l d6, -(a7)
          0x005c1d4c      2f3c00020000   move.l 0x20000, -(a7)
          0x005c1d52      486c005a       pea.l 0x5a(a4)
          0x005c1d56      4eb900604854   jsr F9_FILERDWRT.f_read_blocks
          0x005c1d5c      defc0014       adda.w 0x14, a7
          0x005c1d60      4a1f           tst.b (a7)+
      < 0x005c1d62      6638           bne.b 0x5c1d9c
         0x005c1d64      9efc0016       suba.w 0x16, a7
         0x005c1d68      204f           movea.l a7, a0
         0x005c1d6a      43facb07       lea.l 0x5be873(pc), a1
         0x005c1d6e      7015           moveq 0x15, d0
     > 0x005c1d70      10d9           move.b (a1)+, (a0)+
     < 0x005c1d72      51c8fffc       dbra d0, 0x5c1d70
         0x005c1d76      4857           pea.l (a7)
         0x005c1d78      48780001       pea.l 0x1
         0x005c1d7c      48780016       pea.l 0x16
         0x005c1d80      1f01           move.b d1, -(a7)
         0x005c1d82      1f01           move.b d1, -(a7)
         0x005c1d84      41ec004a       lea.l 0x4a(a4), a0
         0x005c1d88      7011           moveq 0x11, d0
     > 0x005c1d8a      2f20           move.l -(a0), -(a7)
     < 0x005c1d8c      51c8fffc       dbra d0, 0x5c1d8a
         0x005c1d90      3f20           move.w -(a0), -(a7)
         0x005c1d92      4eb9005c6e76   jsr AFS1_UTIL.afs1_abort
         0x005c1d98      defc0070       adda.w 0x70, a7
      > 0x005c1d9c      4227           clr.b -(a7)
          0x005c1d9e      202c005a       move.l 0x5a(a4), d0
          0x005c1da2      b081           cmp.l d1, d0
      < 0x005c1da4      6602           bne.b 0x5c1da8
         0x005c1da6      5217           addq.b 0x1, (a7)
      > 0x005c1da8      4eb90040452a   jsr p_Assert
          0x005c1dae      544f           addq.w 0x2, a7
          0x005c1db0      4a2e0008       tst.b 0x8(a6)
      < 0x005c1db4      6710           beq.b 0x5c1dc6
         0x005c1db6      282c0072       move.l 0x72(a4), d4
         0x005c1dba      2602           move.l d2, d3
         0x005c1dbc      4eb900406b50   jsr fcn.00406b50
         0x005c1dc2      2483           move.l d3, (a2)
     < 0x005c1dc4      6014           bra.b 0x5c1dda
     > 0x005c1dc6      4227           clr.b -(a7)
         0x005c1dc8      2013           move.l (a3), d0
         0x005c1dca      b082           cmp.l d2, d0
     < 0x005c1dcc      6e02           bgt.b 0x5c1dd0
        0x005c1dce      5217           addq.b 0x1, (a7)
     > 0x005c1dd0      4eb90040452a   jsr p_Assert
         0x005c1dd6      544f           addq.w 0x2, a7
         0x005c1dd8      4292           clr.l (a2)
     > 0x005c1dda      2013           move.l (a3), d0
          0x005c1ddc      d092           add.l (a2), d0
          0x005c1dde      b082           cmp.l d2, d0
      < 0x005c1de0      6f06           ble.b 0x5c1de8
         0x005c1de2      2e02           move.l d2, d7
         0x005c1de4      9e92           sub.l (a2), d7
     < 0x005c1de6      6002           bra.b 0x5c1dea
     > 0x005c1de8      2e13           move.l (a3), d7
     > 0x005c1dea      2006           move.l d6, d0
          0x005c1dec      d092           add.l (a2), d0
          0x005c1dee      2f00           move.l d0, -(a7)
          0x005c1df0      2f2c006e       move.l 0x6e(a4), -(a7)
          0x005c1df4      2f07           move.l d7, -(a7)
          0x005c1df6      4eb9006d1c4e   jsr MEM_COPY
          0x005c1dfc      defc000c       adda.w 0xc, a7
          0x005c1e00      dfac006e       add.l d7, 0x6e(a4)
          0x005c1e04      dfac0072       add.l d7, 0x72(a4)
          0x005c1e08      9f93           sub.l d7, (a3)
          0x005c1e0a      1d41000a       move.b d1, 0xa(a6)
       > 0x005c1e0e      4cdf0fdf       movem.l (a7)+, d0-d4/d6-d7/a0-a3
           0x005c1e12      4e5e           unlk a6
           0x005c1e14      4e75           rts
            ; CALL XREF from K1_AFS_ONLY.k1_read_mem_fil @ 0x5ac0fa
 628: AFS_FILER.afs_read_mem_fi ();
           ; var int32_t var_3728h @ a6-0x3728
           ; var int32_t var_3723h @ a6-0x3723
           ; var int32_t var_358eh @ a6-0x358e
           ; var int32_t var_3589h @ a6-0x3589
           0x005c1e16      4e56fef2       link.w a6, 0xfef2
           0x005c1e1a      bfd5           cmpa.l (a5), a7
       < 0x005c1e1c      6206           bhi.b 0x5c1e24
          0x005c1e1e      44fc0002       move.w 0x2, ccr
          0x005c1e22      4e76           trapv
       > 0x005c1e24      defc00ac       adda.w 0xac, a7
           0x005c1e28      48e7fff8       movem.l d0-d7/a0-a4, -(a7)
           0x005c1e2c      47eeffe8       lea.l -0x18(a6), a3
           0x005c1e30      7201           moveq 0x1, d1
           0x005c1e32      740c           moveq 0xc, d2
           0x005c1e34      7a10           moveq 0x10, d5
           0x005c1e36      1d7aca770018   move.b 0x5be8af(pc), 0x18(a6)
           0x005c1e3c      1d7aca720019   move.b 0x5be8b0(pc), 0x19(a6)
           0x005c1e42      2d41fffc       move.l d1, -0x4(a6)
           0x005c1e46      554f           subq.w 0x2, a7
           0x005c1e48      486eff9e       pea.l -0x62(a6)
           0x005c1e4c      4eb900404434   jsr fcn.00404434
           0x005c1e52      584f           addq.w 0x4, a7
           0x005c1e54      4a1f           tst.b (a7)+
       < 0x005c1e56      67000206       beq.w 0x5c205e
          0x005c1e5a      206e0014       movea.l 0x14(a6), a0
          0x005c1e5e      554f           subq.w 0x2, a7
          0x005c1e60      4227           clr.b -(a7)
          0x005c1e62      9efc000a       suba.w 0xa, a7
          0x005c1e66      224f           movea.l a7, a1
          0x005c1e68      2448           movea.l a0, a2
          0x005c1e6a      7009           moveq 0x9, d0
      > 0x005c1e6c      12da           move.b (a2)+, (a1)+
      < 0x005c1e6e      51c8fffc       dbra d0, 0x5c1e6c
          0x005c1e72      2f2e0010       move.l 0x10(a6), -(a7)
          0x005c1e76      2f2e0008       move.l 0x8(a6), -(a7)
          0x005c1e7a      4853           pea.l (a3)
          0x005c1e7c      4ebaf7b2       jsr AFS_FILER.check_start_pos(pc)
          0x005c1e80      defc0018       adda.w 0x18, a7
          0x005c1e84      4a1f           tst.b (a7)+
      < 0x005c1e86      6624           bne.b 0x5c1eac
         0x005c1e88      487aca28       pea.l 0x5be8b2(pc)
         0x005c1e8c      4878002f       pea.l 0x2f
         0x005c1e90      2f17           move.l (a7), -(a7)
         0x005c1e92      4eb9004047ea   jsr p_wts_o
         0x005c1e98      dec2           adda.w d2, a7
         0x005c1e9a      4eb900404946   jsr p_wtln_o
         0x005c1ea0      486eff9e       pea.l -0x62(a6)
         0x005c1ea4      4eb900404468   jsr fcn.00404468
         0x005c1eaa      584f           addq.w 0x4, a7
      > 0x005c1eac      9ec2           suba.w d2, a7
          0x005c1eae      224f           movea.l a7, a1
          0x005c1eb0      7009           moveq 0x9, d0
      > 0x005c1eb2      12d8           move.b (a0)+, (a1)+
      < 0x005c1eb4      51c8fffc       dbra d0, 0x5c1eb2
          0x005c1eb8      4227           clr.b -(a7)
          0x005c1eba      486efffc       pea.l -0x4(a6)
          0x005c1ebe      4eb90060477a   jsr F9_FILERDWRT.f_op_block
          0x005c1ec4      dec5           adda.w d5, a7
          0x005c1ec6      4a1f           tst.b (a7)+
      < 0x005c1ec8      6630           bne.b 0x5c1efa
         0x005c1eca      2f3aca1e       move.l 0x5be8ea(pc), -(a7)
         0x005c1ece      2f3aca16       move.l 0x5be8e6(pc), -(a7)
         0x005c1ed2      2f3aca0e       move.l 0x5be8e2(pc), -(a7)
         0x005c1ed6      4857           pea.l (a7)
         0x005c1ed8      48780001       pea.l 0x1
         0x005c1edc      4878000c       pea.l 0xc
         0x005c1ee0      1f01           move.b d1, -(a7)
         0x005c1ee2      1f01           move.b d1, -(a7)
         0x005c1ee4      204b           movea.l a3, a0
         0x005c1ee6      7011           moveq 0x11, d0
     > 0x005c1ee8      2f20           move.l -(a0), -(a7)
     < 0x005c1eea      51c8fffc       dbra d0, 0x5c1ee8
         0x005c1eee      3f20           move.w -(a0), -(a7)
         0x005c1ef0      4eb9005c6e76   jsr AFS1_UTIL.afs1_abort
         0x005c1ef6      defc0066       adda.w 0x66, a7
      > 0x005c1efa      554f           subq.w 0x2, a7
          0x005c1efc      2f2efffc       move.l -0x4(a6), -(a7)
          0x005c1f00      2f13           move.l (a3), -(a7)
          0x005c1f02      4eb900604c60   jsr F9_FILERDWRT.f_seek_to_block
          0x005c1f08      504f           addq.w 0x8, a7
          0x005c1f0a      4a1f           tst.b (a7)+
      < 0x005c1f0c      6634           bne.b 0x5c1f42
         0x005c1f0e      9ec5           suba.w d5, a7
         0x005c1f10      204f           movea.l a7, a0
         0x005c1f12      43fac9db       lea.l 0x5be8ef(pc), a1
         0x005c1f16      700f           moveq 0xf, d0
     > 0x005c1f18      10d9           move.b (a1)+, (a0)+
     < 0x005c1f1a      51c8fffc       dbra d0, 0x5c1f18
         0x005c1f1e      4857           pea.l (a7)
         0x005c1f20      48780001       pea.l 0x1
         0x005c1f24      48780010       pea.l 0x10
         0x005c1f28      1f01           move.b d1, -(a7)
         0x005c1f2a      1f01           move.b d1, -(a7)
         0x005c1f2c      204b           movea.l a3, a0
         0x005c1f2e      7011           moveq 0x11, d0
     > 0x005c1f30      2f20           move.l -(a0), -(a7)
     < 0x005c1f32      51c8fffc       dbra d0, 0x5c1f30
         0x005c1f36      3f20           move.w -(a0), -(a7)
         0x005c1f38      4eb9005c6e76   jsr AFS1_UTIL.afs1_abort
         0x005c1f3e      defc006a       adda.w 0x6a, a7
      > 0x005c1f42      554f           subq.w 0x2, a7
          0x005c1f44      1f01           move.b d1, -(a7)
          0x005c1f46      49eeff9e       lea.l -0x62(a6), a4
          0x005c1f4a      4ebafdac       jsr AFS_FILER.read_via_memory(pc)
          0x005c1f4e      544f           addq.w 0x2, a7
          0x005c1f50      4a1f           tst.b (a7)+
      < 0x005c1f52      660c           bne.b 0x5c1f60
         0x005c1f54      486eff9e       pea.l -0x62(a6)
         0x005c1f58      4eb900404468   jsr fcn.00404468
         0x005c1f5e      584f           addq.w 0x4, a7
      > 0x005c1f60      5293           addq.l 0x1, (a3)
          0x005c1f62      282e0010       move.l 0x10(a6), d4
          0x005c1f66      263c00000400   move.l 0x400, d3
          0x005c1f6c      4eb900406b50   jsr fcn.00406b50
          0x005c1f72      4227           clr.b -(a7)
          0x005c1f74      4a83           tst.l d3
      < 0x005c1f76      6706           beq.b 0x5c1f7e
         0x005c1f78      4aae0008       tst.l 0x8(a6)
     < 0x005c1f7c      6602           bne.b 0x5c1f80
     > 0x005c1f7e      5217           addq.b 0x1, (a7)
     > 0x005c1f80      4eb90040452a   jsr p_Assert
          0x005c1f86      544f           addq.w 0x2, a7
          0x005c1f88      282e0008       move.l 0x8(a6), d4
          0x005c1f8c      263c00000400   move.l 0x400, d3
          0x005c1f92      4eb900406b50   jsr fcn.00406b50
          0x005c1f98      2e04           move.l d4, d7
      < 0x005c1f9a      67000090       beq.w 0x5c202c
         0x005c1f9e      42aefff8       clr.l -0x8(a6)
         0x005c1fa2      554f           subq.w 0x2, a7
         0x005c1fa4      2f2efffc       move.l -0x4(a6), -(a7)
         0x005c1fa8      2f07           move.l d7, -(a7)
         0x005c1faa      2f2e000c       move.l 0xc(a6), -(a7)
         0x005c1fae      2f3c00020000   move.l 0x20000, -(a7)
         0x005c1fb4      486efff8       pea.l -0x8(a6)
         0x005c1fb8      4eb900604854   jsr F9_FILERDWRT.f_read_blocks
         0x005c1fbe      defc0014       adda.w 0x14, a7
         0x005c1fc2      4a1f           tst.b (a7)+
     < 0x005c1fc4      6632           bne.b 0x5c1ff8
        0x005c1fc6      41fac966       lea.l 0x5be92e(pc), a0
        0x005c1fca      7004           moveq 0x4, d0
    > 0x005c1fcc      2f20           move.l -(a0), -(a7)
    < 0x005c1fce      51c8fffc       dbra d0, 0x5c1fcc
        0x005c1fd2      3f20           move.w -(a0), -(a7)
        0x005c1fd4      4857           pea.l (a7)
        0x005c1fd6      48780001       pea.l 0x1
        0x005c1fda      48780016       pea.l 0x16
        0x005c1fde      1f01           move.b d1, -(a7)
        0x005c1fe0      1f01           move.b d1, -(a7)
        0x005c1fe2      204b           movea.l a3, a0
        0x005c1fe4      7011           moveq 0x11, d0
    > 0x005c1fe6      2f20           move.l -(a0), -(a7)
    < 0x005c1fe8      51c8fffc       dbra d0, 0x5c1fe6
        0x005c1fec      3f20           move.w -(a0), -(a7)
        0x005c1fee      4eb9005c6e76   jsr AFS1_UTIL.afs1_abort
        0x005c1ff4      defc0070       adda.w 0x70, a7
     > 0x005c1ff8      4227           clr.b -(a7)
         0x005c1ffa      beaefff8       cmp.l -0x8(a6), d7
     < 0x005c1ffe      6602           bne.b 0x5c2002
        0x005c2000      5217           addq.b 0x1, (a7)
     > 0x005c2002      4eb90040452a   jsr p_Assert
         0x005c2008      544f           addq.w 0x2, a7
         0x005c200a      df93           add.l d7, (a3)
         0x005c200c      2c07           move.l d7, d6
         0x005c200e      e186           asl.l 0x8, d6
         0x005c2010      e586           asl.l 0x2, d6
         0x005c2012      ddae000c       add.l d6, 0xc(a6)
         0x005c2016      9dae0008       sub.l d6, 0x8(a6)
         0x005c201a      4227           clr.b -(a7)
         0x005c201c      4aae0008       tst.l 0x8(a6)
     < 0x005c2020      6d02           blt.b 0x5c2024
        0x005c2022      5217           addq.b 0x1, (a7)
     > 0x005c2024      4eb90040452a   jsr p_Assert
         0x005c202a      544f           addq.w 0x2, a7
      > 0x005c202c      4aae0008       tst.l 0x8(a6)
      < 0x005c2030      671e           beq.b 0x5c2050
         0x005c2032      554f           subq.w 0x2, a7
         0x005c2034      4227           clr.b -(a7)
         0x005c2036      49eeff9e       lea.l -0x62(a6), a4
         0x005c203a      4ebafcbc       jsr AFS_FILER.read_via_memory(pc)
         0x005c203e      544f           addq.w 0x2, a7
         0x005c2040      4a1f           tst.b (a7)+
     < 0x005c2042      660c           bne.b 0x5c2050
        0x005c2044      486eff9e       pea.l -0x62(a6)
        0x005c2048      4eb900404468   jsr fcn.00404468
        0x005c204e      584f           addq.w 0x4, a7
     > 0x005c2050      1d7ac8dd0018   move.b 0x5be92f(pc), 0x18(a6)
          0x005c2056      1d7ac8d80019   move.b 0x5be930(pc), 0x19(a6)
      < 0x005c205c      6018           bra.b 0x5c2076
      > 0x005c205e      487ac8d2       pea.l 0x5be932(pc)
          0x005c2062      48780018       pea.l 0x18
          0x005c2066      2f17           move.l (a7), -(a7)
          0x005c2068      4eb9004047ea   jsr p_wts_o
          0x005c206e      dec2           adda.w d2, a7
          0x005c2070      4eb900404946   jsr p_wtln_o
      > 0x005c2076      486efffc       pea.l -0x4(a6)
           0x005c207a      4eb90060470a   jsr F9_FILERDWRT.f_close
           0x005c2080      584f           addq.w 0x4, a7
           0x005c2082      4cdf1fff       movem.l (a7)+, d0-d7/a0-a4
           0x005c2086      4e5e           unlk a6
           0x005c2088      4e75           rts
            ; CALL XREF from fcn.005c2536 @ 0x5c2570
 462: AFS_FILER.afs0_save_plane ();
           ; var int32_t var_8h @ a7+0x8
           0x005c208a      4e56fe72       link.w a6, 0xfe72
           0x005c208e      bfd5           cmpa.l (a5), a7
       < 0x005c2090      6206           bhi.b 0x5c2098
          0x005c2092      44fc0002       move.w 0x2, ccr
          0x005c2096      4e76           trapv
       > 0x005c2098      defc0140       adda.w 0x140, a7
           0x005c209c      48e7f8f8       movem.l d0-d4/a0-a4, -(a7)
           0x005c20a0      47eefffc       lea.l -0x4(a6), a3
           0x005c20a4      49eeffb2       lea.l -0x4e(a6), a4
           0x005c20a8      7401           moveq 0x1, d2
           0x005c20aa      760c           moveq 0xc, d3
           0x005c20ac      7810           moveq 0x10, d4
           0x005c20ae      206e0008       movea.l 0x8(a6), a0
           0x005c20b2      10bac8bd       move.b 0x5be971(pc), (a0)
           0x005c20b6      117ac8ba0001   move.b 0x5be972(pc), 0x1(a0)
           0x005c20bc      2682           move.l d2, (a3)
           0x005c20be      554f           subq.w 0x2, a7
           0x005c20c0      4854           pea.l (a4)
           0x005c20c2      4eb900404434   jsr fcn.00404434
           0x005c20c8      584f           addq.w 0x4, a7
           0x005c20ca      4a1f           tst.b (a7)+
       < 0x005c20cc      67000174       beq.w 0x5c2242
          0x005c20d0      202e0016       move.l 0x16(a6), d0
          0x005c20d4      0c80ffffffff   cmpi.l 0xffffffff, d0
      < 0x005c20da      6622           bne.b 0x5c20fe
         0x005c20dc      487ac896       pea.l 0x5be974(pc)
         0x005c20e0      48780021       pea.l 0x21
         0x005c20e4      2f17           move.l (a7), -(a7)
         0x005c20e6      4eb9004047ea   jsr p_wts_o
         0x005c20ec      dec3           adda.w d3, a7
         0x005c20ee      4eb900404946   jsr p_wtln_o
         0x005c20f4      4854           pea.l (a4)
         0x005c20f6      4eb900404468   jsr fcn.00404468
         0x005c20fc      584f           addq.w 0x4, a7
      > 0x005c20fe      554f           subq.w 0x2, a7
          0x005c2100      2f2e0012       move.l 0x12(a6), -(a7)
          0x005c2104      2f2e000e       move.l 0xe(a6), -(a7)
          0x005c2108      3f2e000c       move.w 0xc(a6), -(a7)
          0x005c210c      1f02           move.b d2, -(a7)
          0x005c210e      4853           pea.l (a3)
          0x005c2110      4eb90060477a   jsr F9_FILERDWRT.f_op_block
          0x005c2116      dec4           adda.w d4, a7
          0x005c2118      4a1f           tst.b (a7)+
      < 0x005c211a      663a           bne.b 0x5c2156
         0x005c211c      9efc0018       suba.w 0x18, a7
         0x005c2120      224f           movea.l a7, a1
         0x005c2122      45fac872       lea.l 0x5be996(pc), a2
         0x005c2126      7204           moveq 0x4, d1
     > 0x005c2128      22da           move.l (a2)+, (a1)+
     < 0x005c212a      51c9fffc       dbra d1, 0x5c2128
         0x005c212e      32da           move.w (a2)+, (a1)+
         0x005c2130      12da           move.b (a2)+, (a1)+
         0x005c2132      4857           pea.l (a7)
         0x005c2134      48780001       pea.l 0x1
         0x005c2138      48780017       pea.l 0x17
         0x005c213c      1f02           move.b d2, -(a7)
         0x005c213e      1f02           move.b d2, -(a7)
         0x005c2140      224b           movea.l a3, a1
         0x005c2142      7211           moveq 0x11, d1
     > 0x005c2144      2f21           move.l -(a1), -(a7)
     < 0x005c2146      51c9fffc       dbra d1, 0x5c2144
         0x005c214a      3f21           move.w -(a1), -(a7)
         0x005c214c      4eb9005c6e76   jsr AFS1_UTIL.afs1_abort
         0x005c2152      defc0072       adda.w 0x72, a7
      > 0x005c2156      2f13           move.l (a3), -(a7)
          0x005c2158      222e001a       move.l 0x1a(a6), d1
          0x005c215c      0c810000ffff   cmpi.l 0xffff, d1
      < 0x005c2162      6302           bls.b 0x5c2166
         0x005c2164      4e4f           trap 0xf
      > 0x005c2166      3f01           move.w d1, -(a7)
          0x005c2168      4eb900604e7c   jsr F9_FILERDWRT.f_set_extend
          0x005c216e      2e93           move.l (a3), (a7)
          0x005c2170      2f00           move.l d0, -(a7)
          0x005c2172      4eb900604c60   jsr F9_FILERDWRT.f_seek_to_block
          0x005c2178      504f           addq.w 0x8, a7
          0x005c217a      4a1f           tst.b (a7)+
      < 0x005c217c      6656           bne.b 0x5c21d4
         0x005c217e      9efc0100       suba.w 0x100, a7
         0x005c2182      4eb900408ec0   jsr p_err_string
         0x005c2188      487ac833       pea.l 0x5be9bd(pc)
         0x005c218c      4878001e       pea.l 0x1e
         0x005c2190      2f17           move.l (a7), -(a7)
         0x005c2192      4eb9004047ea   jsr p_wts_o
         0x005c2198      dec3           adda.w d3, a7
         0x005c219a      486f0001       pea.l 0x1(a7)
         0x005c219e      42a7           clr.l -(a7)
         0x005c21a0      1f6f00080003   move.b 0x8(a7), 0x3(a7)
         0x005c21a6      2f17           move.l (a7), -(a7)
         0x005c21a8      4eb9004047ea   jsr p_wts_o
         0x005c21ae      defc010c       adda.w 0x10c, a7
         0x005c21b2      4eb900404946   jsr p_wtln_o
         0x005c21b8      554f           subq.w 0x2, a7
         0x005c21ba      4eb9005c702c   jsr AFS1_UTIL.afs1_return_k_e
         0x005c21c0      1097           move.b (a7), (a0)
         0x005c21c2      116f00010001   move.b 0x1(a7), 0x1(a0)
         0x005c21c8      544f           addq.w 0x2, a7
         0x005c21ca      4854           pea.l (a4)
         0x005c21cc      4eb900404468   jsr fcn.00404468
         0x005c21d2      584f           addq.w 0x4, a7
      > 0x005c21d4      554f           subq.w 0x2, a7
          0x005c21d6      2f13           move.l (a3), -(a7)
          0x005c21d8      2f2e001a       move.l 0x1a(a6), -(a7)
          0x005c21dc      48780001       pea.l 0x1
          0x005c21e0      2f3c00060000   move.l 0x60000, -(a7)
          0x005c21e6      4eb9006049ac   jsr F9_FILERDWRT.f_write_blocks
          0x005c21ec      dec4           adda.w d4, a7
          0x005c21ee      4a1f           tst.b (a7)+
      < 0x005c21f0      661c           bne.b 0x5c220e
         0x005c21f2      554f           subq.w 0x2, a7
         0x005c21f4      4eb9005c702c   jsr AFS1_UTIL.afs1_return_k_e
         0x005c21fa      1097           move.b (a7), (a0)
         0x005c21fc      116f00010001   move.b 0x1(a7), 0x1(a0)
         0x005c2202      544f           addq.w 0x2, a7
         0x005c2204      4854           pea.l (a4)
         0x005c2206      4eb900404468   jsr fcn.00404468
         0x005c220c      584f           addq.w 0x4, a7
      > 0x005c220e      554f           subq.w 0x2, a7
          0x005c2210      4eb90051f30e   jsr BRUSHCOM.brush_hung
          0x005c2216      4a1f           tst.b (a7)+
      < 0x005c2218      6722           beq.b 0x5c223c
         0x005c221a      487ac7d0       pea.l 0x5be9ec(pc)
         0x005c221e      4878002e       pea.l 0x2e
         0x005c2222      2f17           move.l (a7), -(a7)
         0x005c2224      4eb9004047ea   jsr p_wts_o
         0x005c222a      dec3           adda.w d3, a7
         0x005c222c      4eb900404946   jsr p_wtln_o
         0x005c2232      4854           pea.l (a4)
         0x005c2234      4eb900404468   jsr fcn.00404468
         0x005c223a      584f           addq.w 0x4, a7
      > 0x005c223c      1d42001e       move.b d2, 0x1e(a6)
      < 0x005c2240      6004           bra.b 0x5c2246
      > 0x005c2242      422e001e       clr.b 0x1e(a6)
      > 0x005c2246      4853           pea.l (a3)
           0x005c2248      4eb90060470a   jsr F9_FILERDWRT.f_close
           0x005c224e      584f           addq.w 0x4, a7
           0x005c2250      4cdf1f1f       movem.l (a7)+, d0-d4/a0-a4
           0x005c2254      4e5e           unlk a6
           0x005c2256      4e75           rts
            ; CALL XREFS from AFS_FILER.afs_save @ 0x5c27c8, 0x5c285e, 0x5c28b0
 572: AFS_FILER.save_a_plane ();
           0x005c2258      4e56fef4       link.w a6, 0xfef4
           0x005c225c      bfd5           cmpa.l (a5), a7
       < 0x005c225e      6206           bhi.b 0x5c2266
          0x005c2260      44fc0002       move.w 0x2, ccr
          0x005c2264      4e76           trapv
       > 0x005c2266      defc00b2       adda.w 0xb2, a7
           0x005c226a      48e7fff8       movem.l d0-d7/a0-a4, -(a7)
           0x005c226e      47eefffc       lea.l -0x4(a6), a3
           0x005c2272      49ee001c       lea.l 0x1c(a6), a4
           0x005c2276      741e           moveq 0x1e, d2
           0x005c2278      26bcffff0001   move.l 0xffff0001, (a3)
           0x005c227e      206e0008       movea.l 0x8(a6), a0
           0x005c2282      10bac797       move.b 0x5bea1b(pc), (a0)
           0x005c2286      117ac7940001   move.b 0x5bea1c(pc), 0x1(a0)
           0x005c228c      422e002e       clr.b 0x2e(a6)
           0x005c2290      554f           subq.w 0x2, a7
           0x005c2292      486effa6       pea.l -0x5a(a6)
           0x005c2296      4eb900404434   jsr fcn.00404434
           0x005c229c      584f           addq.w 0x4, a7
           0x005c229e      4a1f           tst.b (a7)+
       < 0x005c22a0      670002ee       beq.w 0x5c2590
          0x005c22a4      7e00           moveq 0x0, d7
          0x005c22a6      102e0014       move.b 0x14(a6), d0
          0x005c22aa      4880           ext.w d0
          0x005c22ac      013ac770       btst.l d0, 0x5bea1e(pc)
      < 0x005c22b0      6702           beq.b 0x5c22b4
         0x005c22b2      5207           addq.b 0x1, d7
      > 0x005c22b4      4227           clr.b -(a7)
          0x005c22b6      1f2e0020       move.b 0x20(a6), -(a7)
          0x005c22ba      1f2e002c       move.b 0x2c(a6), -(a7)
          0x005c22be      2f2e0026       move.l 0x26(a6), -(a7)
          0x005c22c2      2f2e0022       move.l 0x22(a6), -(a7)
          0x005c22c6      4227           clr.b -(a7)
          0x005c22c8      4eb9005219f8   jsr BRUSHCOM.br_disk_transfe
          0x005c22ce      defc0010       adda.w 0x10, a7
          0x005c22d2      322e0028       move.w 0x28(a6), d1
          0x005c22d6      c3ee0026       muls.w 0x26(a6), d1
          0x005c22da      2801           move.l d1, d4
          0x005c22dc      262e000c       move.l 0xc(a6), d3
          0x005c22e0      4eb900406a74   jsr fcn.00406a74
          0x005c22e6      594f           subq.w 0x4, a7
          0x005c22e8      2f04           move.l d4, -(a7)
          0x005c22ea      4eb9005c80ec   jsr AFS1_UTIL.afs1_blocks
          0x005c22f0      584f           addq.w 0x4, a7
          0x005c22f2      2c17           move.l (a7), d6
          0x005c22f4      544f           addq.w 0x2, a7
          0x005c22f6      2f14           move.l (a4), -(a7)
          0x005c22f8      2f2e0018       move.l 0x18(a6), -(a7)
          0x005c22fc      3f2e0016       move.w 0x16(a6), -(a7)
          0x005c2300      1f3c0001       move.b 0x1, -(a7)
          0x005c2304      4853           pea.l (a3)
          0x005c2306      4eb9006082de   jsr F10_FILELIST.f_get_header
          0x005c230c      defc0010       adda.w 0x10, a7
          0x005c2310      4a1f           tst.b (a7)+
      < 0x005c2312      663e           bne.b 0x5c2352
         0x005c2314      9efc001a       suba.w 0x1a, a7
         0x005c2318      224f           movea.l a7, a1
         0x005c231a      45fac704       lea.l 0x5bea20(pc), a2
         0x005c231e      7205           moveq 0x5, d1
     > 0x005c2320      22da           move.l (a2)+, (a1)+
     < 0x005c2322      51c9fffc       dbra d1, 0x5c2320
         0x005c2326      12da           move.b (a2)+, (a1)+
         0x005c2328      4857           pea.l (a7)
         0x005c232a      48780001       pea.l 0x1
         0x005c232e      48780019       pea.l 0x19
         0x005c2332      1f3c0001       move.b 0x1, -(a7)
         0x005c2336      1f3c0001       move.b 0x1, -(a7)
         0x005c233a      43eefff0       lea.l -0x10(a6), a1
         0x005c233e      7211           moveq 0x11, d1
     > 0x005c2340      2f21           move.l -(a1), -(a7)
     < 0x005c2342      51c9fffc       dbra d1, 0x5c2340
         0x005c2346      3f21           move.w -(a1), -(a7)
         0x005c2348      4eb9005c6e76   jsr AFS1_UTIL.afs1_abort
         0x005c234e      defc0074       adda.w 0x74, a7
      > 0x005c2352      0c000003       cmpi.b 0x3, d0
      < 0x005c2356      6638           bne.b 0x5c2390
         0x005c2358      554f           subq.w 0x2, a7
         0x005c235a      1f3c0007       move.b 0x7, -(a7)
         0x005c235e      4227           clr.b -(a7)
         0x005c2360      2f2e0010       move.l 0x10(a6), -(a7)
         0x005c2364      2f06           move.l d6, -(a7)
         0x005c2366      4853           pea.l (a3)
         0x005c2368      2f14           move.l (a4), -(a7)
         0x005c236a      2f2e0018       move.l 0x18(a6), -(a7)
         0x005c236e      3f2e0016       move.w 0x16(a6), -(a7)
         0x005c2372      486efff8       pea.l -0x8(a6)
         0x005c2376      4eb9005ed4dc   jsr FILE_STRUCTURE.fs_file_addr
         0x005c237c      dec2           adda.w d2, a7
         0x005c237e      4a1f           tst.b (a7)+
     < 0x005c2380      660001d2       bne.w 0x5c2554              ; fcn.005c2536+0x1e
        0x005c2384      487ac6b4       pea.l 0x5bea3a(pc)
        0x005c2388      48780039       pea.l 0x39
    < 0x005c238c      600001a8       bra.w fcn.005c2536
    > 0x005c2390      554f           subq.w 0x2, a7
        0x005c2392      4887           ext.w d7
        0x005c2394      4fbc0001       chk.w 0x1, d7
        0x005c2398      1f07           move.b d7, -(a7)
        0x005c239a      1f2e002c       move.b 0x2c(a6), -(a7)
        0x005c239e      4ebaee48       jsr AFS_FILER.file_section(pc)
        0x005c23a2      584f           addq.w 0x4, a7
        0x005c23a4      101f           move.b (a7)+, d0
        0x005c23a6      4880           ext.w d0
        0x005c23a8      41bc000b       chk.w 0xb, d0
        0x005c23ac      1a00           move.b d0, d5
        0x005c23ae      4885           ext.w d5
        0x005c23b0      4bbc000b       chk.w 0xb, d5
        0x005c23b4      554f           subq.w 0x2, a7
        0x005c23b6      1f05           move.b d5, -(a7)
        0x005c23b8      4227           clr.b -(a7)
        0x005c23ba      48780000       pea.l 0x0
        0x005c23be      2f06           move.l d6, -(a7)
        0x005c23c0      4853           pea.l (a3)
        0x005c23c2      2f14           move.l (a4), -(a7)
        0x005c23c4      2f2e0018       move.l 0x18(a6), -(a7)
        0x005c23c8      3f2e0016       move.w 0x16(a6), -(a7)
        0x005c23cc      486efff8       pea.l -0x8(a6)
        0x005c23d0      4eb9005ed4dc   jsr FILE_STRUCTURE.fs_file_addr
        0x005c23d6      dec2           adda.w d2, a7
        0x005c23d8      4a1f           tst.b (a7)+
    < 0x005c23da      660000a4       bne.w 0x5c2480
       0x005c23de      554f           subq.w 0x2, a7
       0x005c23e0      4eb9005eda22   jsr FILE_STRUCTURE.fs_too_small
       0x005c23e6      4a1f           tst.b (a7)+
   < 0x005c23e8      662c           bne.b 0x5c2416
      0x005c23ea      487ac688       pea.l 0x5bea74(pc)
      0x005c23ee      48780038       pea.l 0x38
      0x005c23f2      2f17           move.l (a7), -(a7)
      0x005c23f4      4eb9004047ea   jsr p_wts_o
      0x005c23fa      defc000c       adda.w 0xc, a7
      0x005c23fe      4eb900404946   jsr p_wtln_o
      0x005c2404      4eb900404188   jsr p_Unlink
      0x005c240a      486effa6       pea.l -0x5a(a6)
      0x005c240e      4eb900404468   jsr fcn.00404468
      0x005c2414      584f           addq.w 0x4, a7
   > 0x005c2416      487ac695       pea.l 0x5beaad(pc)
       0x005c241a      48780030       pea.l 0x30
       0x005c241e      2f17           move.l (a7), -(a7)
       0x005c2420      4eb9004047ea   jsr p_wts_o
       0x005c2426      defc000c       adda.w 0xc, a7
       0x005c242a      4eb900404946   jsr p_wtln_o
       0x005c2430      554f           subq.w 0x2, a7
       0x005c2432      1f05           move.b d5, -(a7)
       0x005c2434      1f3c0009       move.b 0x9, -(a7)
       0x005c2438      48780000       pea.l 0x0
       0x005c243c      2f06           move.l d6, -(a7)
       0x005c243e      4853           pea.l (a3)
       0x005c2440      2f14           move.l (a4), -(a7)
       0x005c2442      2f2e0018       move.l 0x18(a6), -(a7)
       0x005c2446      3f2e0016       move.w 0x16(a6), -(a7)
       0x005c244a      486efff8       pea.l -0x8(a6)
       0x005c244e      4eb9005ed4dc   jsr FILE_STRUCTURE.fs_file_addr
       0x005c2454      dec2           adda.w d2, a7
       0x005c2456      4a1f           tst.b (a7)+
   < 0x005c2458      6626           bne.b 0x5c2480
      0x005c245a      487ac682       pea.l 0x5beade(pc)
      0x005c245e      4878003d       pea.l 0x3d
      0x005c2462      2f17           move.l (a7), -(a7)
      0x005c2464      4eb9004047ea   jsr p_wts_o
      0x005c246a      defc000c       adda.w 0xc, a7
      0x005c246e      4eb900404946   jsr p_wtln_o
      0x005c2474      486effa6       pea.l -0x5a(a6)
      0x005c2478      4eb900404468   jsr fcn.00404468
      0x005c247e      584f           addq.w 0x4, a7
   > 0x005c2480      7e00           moveq 0x0, d7
        0x005c2482      3005           move.w d5, d0
        0x005c2484      0c400008       cmpi.w 0x8, d0
    < 0x005c2488      6266           bhi.b 0x5c24f0
       0x005c248a      d040           add.w d0, d0
       0x005c248c      303b0006       move.w 0x5c2494(pc, d0.w), d0
       0x005c2490      4efb0002       jmp 0x5c2494(pc, d0.w)
        0x005c2494      00120036       ori.b 0x36, (a2)
        0x005c2498      00240048       ori.b 0x48, -(a4)
        0x005c249c      005c005c       ori.w 0x5c, (a4)+
        0x005c24a0      005c005c       ori.w 0x5c, (a4)+
        0x005c24a4      005a102e       ori.w 0x102e, (a2)+
        0x005c24a8      002a0c000004   ori.b 0x0, 0x4(a2)
    < 0x005c24ae      6604           bne.b 0x5c24b4
       0x005c24b0      7e05           moveq 0x5, d7
   < 0x005c24b2      6002           bra.b 0x5c24b6
  > 0x005c24b4      7e03           moveq 0x3, d7
  < 0x005c24b6      6038           bra.b 0x5c24f0
      0x005c24b8      102e002a       move.b 0x2a(a6), d0
      0x005c24bc      0c000004       cmpi.b 0x4, d0
  < 0x005c24c0      6604           bne.b 0x5c24c6
     0x005c24c2      7e05           moveq 0x5, d7
  < 0x005c24c4      6002           bra.b 0x5c24c8
  > 0x005c24c6      7e03           moveq 0x3, d7
  < 0x005c24c8      6026           bra.b 0x5c24f0
     0x005c24ca      102e002a       move.b 0x2a(a6), d0
     0x005c24ce      0c000004       cmpi.b 0x4, d0
  < 0x005c24d2      6604           bne.b 0x5c24d8
     0x005c24d4      7e05           moveq 0x5, d7
  < 0x005c24d6      6002           bra.b 0x5c24da
  > 0x005c24d8      7e04           moveq 0x4, d7
  < 0x005c24da      6014           bra.b 0x5c24f0
     0x005c24dc      102e002a       move.b 0x2a(a6), d0
     0x005c24e0      0c000004       cmpi.b 0x4, d0
  < 0x005c24e4      6604           bne.b 0x5c24ea
     0x005c24e6      7e05           moveq 0x5, d7
  < 0x005c24e8      6002           bra.b 0x5c24ec
  > 0x005c24ea      7e04           moveq 0x4, d7
  < 0x005c24ec      6002           bra.b 0x5c24f0
  < 0x005c24ee      60c4           bra.b 0x5c24b4
  > 0x005c24f0      4a07           tst.b d7
     < 0x005c24f2      6760           beq.b 0x5c2554              ; fcn.005c2536+0x1e
        0x005c24f4      202efff8       move.l -0x8(a6), d0
        0x005c24f8      0c80ffffffff   cmpi.l 0xffffffff, d0
    < 0x005c24fe      6654           bne.b 0x5c2554              ; fcn.005c2536+0x1e
       0x005c2500      554f           subq.w 0x2, a7
       0x005c2502      1f05           move.b d5, -(a7)
       0x005c2504      4887           ext.w d7
       0x005c2506      4fbc0009       chk.w 0x9, d7
       0x005c250a      1f07           move.b d7, -(a7)
       0x005c250c      48780000       pea.l 0x0
       0x005c2510      2f06           move.l d6, -(a7)
       0x005c2512      4853           pea.l (a3)
       0x005c2514      2f14           move.l (a4), -(a7)
       0x005c2516      2f2e0018       move.l 0x18(a6), -(a7)
       0x005c251a      3f2e0016       move.w 0x16(a6), -(a7)
       0x005c251e      486efff8       pea.l -0x8(a6)
       0x005c2522      4eb9005ed4dc   jsr FILE_STRUCTURE.fs_file_addr
       0x005c2528      dec2           adda.w d2, a7
       0x005c252a      4a1f           tst.b (a7)+
   < 0x005c252c      6626           bne.b 0x5c2554              ; fcn.005c2536+0x1e
      0x005c252e      487ac601       pea.l 0x5beb31(pc)
      0x005c2532      4878002f       pea.l 0x2f
      ; CODE XREF from AFS_FILER.save_a_plane @ 0x5c238c
 108: fcn.005c2536 ();
  > 0x005c2536      2f17           move.l (a7), -(a7)
      0x005c2538      4eb9004047ea   jsr p_wts_o
      0x005c253e      defc000c       adda.w 0xc, a7
      0x005c2542      4eb900404946   jsr p_wtln_o
      0x005c2548      486effa6       pea.l -0x5a(a6)
      0x005c254c      4eb900404468   jsr fcn.00404468
      0x005c2552      584f           addq.w 0x4, a7
  > 0x005c2554      4853           pea.l (a3)
          0x005c2556      4eb90060500e   jsr F9_FILERDWRT.f_free_block
          0x005c255c      544f           addq.w 0x2, a7
          0x005c255e      2f06           move.l d6, -(a7)
          0x005c2560      2f2efff8       move.l -0x8(a6), -(a7)
          0x005c2564      2f14           move.l (a4), -(a7)
          0x005c2566      2f2e0018       move.l 0x18(a6), -(a7)
          0x005c256a      3f2e0016       move.w 0x16(a6), -(a7)
          0x005c256e      4850           pea.l (a0)
          0x005c2570      4ebafb18       jsr AFS_FILER.afs0_save_plane(pc)
          0x005c2574      defc0016       adda.w 0x16, a7
          0x005c2578      4a1f           tst.b (a7)+
      < 0x005c257a      660c           bne.b 0x5c2588
         0x005c257c      486effa6       pea.l -0x5a(a6)
         0x005c2580      4eb900404468   jsr fcn.00404468
         0x005c2586      584f           addq.w 0x4, a7
      > 0x005c2588      1d7c0001002e   move.b 0x1, 0x2e(a6)
      < 0x005c258e      6006           bra.b 0x5c2596
       > 0x005c2590      4eb90051fa24   jsr BRUSHCOM.br_abort
          ; CODE XREF from fcn.005c2536 @ 0x5c258e
      > 0x005c2596      4853           pea.l (a3)
           0x005c2598      4eb90060500e   jsr F9_FILERDWRT.f_free_block
           0x005c259e      584f           addq.w 0x4, a7
           0x005c25a0      4cdf1fff       movem.l (a7)+, d0-d7/a0-a4
           0x005c25a4      4e5e           unlk a6
           0x005c25a6      4e75           rts
            ; CALL XREFS from AFS_FILER.afs_save @ 0x5c286e, 0x5c28c0
 144: AFS_FILER.cleanup_failed_ ();
           0x005c25a8      4e56ffb6       link.w a6, 0xffb6
           0x005c25ac      bfd5           cmpa.l (a5), a7
       < 0x005c25ae      6206           bhi.b 0x5c25b6
          0x005c25b0      44fc0002       move.w 0x2, ccr
          0x005c25b4      4e76           trapv
       > 0x005c25b6      defc004a       adda.w 0x4a, a7
           0x005c25ba      48e7c0c0       movem.l d0-d1/a0-a1, -(a7)
           0x005c25be      720a           moveq 0xa, d1
           0x005c25c0      486c004e       pea.l 0x4e(a4)
           0x005c25c4      4eb90060500e   jsr F9_FILERDWRT.f_free_block
           0x005c25ca      584f           addq.w 0x4, a7
           0x005c25cc      4a2c007e       tst.b 0x7e(a4)
       < 0x005c25d0      6652           bne.b 0x5c2624
          0x005c25d2      554f           subq.w 0x2, a7
          0x005c25d4      206c0088       movea.l 0x88(a4), a0
          0x005c25d8      9ec1           suba.w d1, a7
          0x005c25da      224f           movea.l a7, a1
          0x005c25dc      7009           moveq 0x9, d0
      > 0x005c25de      12d8           move.b (a0)+, (a1)+
      < 0x005c25e0      51c8fffc       dbra d0, 0x5c25de
          0x005c25e4      4eb900613864   jsr F18_DIRECTORY.f_file_delete
          0x005c25ea      dec1           adda.w d1, a7
          0x005c25ec      4a1f           tst.b (a7)+
      < 0x005c25ee      6634           bne.b 0x5c2624
         0x005c25f0      9efc0024       suba.w 0x24, a7
         0x005c25f4      204f           movea.l a7, a0
         0x005c25f6      43fac58c       lea.l 0x5beb84(pc), a1
         0x005c25fa      7007           moveq 0x7, d0
     > 0x005c25fc      20d9           move.l (a1)+, (a0)+
     < 0x005c25fe      51c8fffc       dbra d0, 0x5c25fc
         0x005c2602      30d9           move.w (a1)+, (a0)+
         0x005c2604      10d9           move.b (a1)+, (a0)+
         0x005c2606      48780000       pea.l 0x0
         0x005c260a      486f0004       pea.l 0x4(a7)
         0x005c260e      48780001       pea.l 0x1
         0x005c2612      48780023       pea.l 0x23
         0x005c2616      1f3c0001       move.b 0x1, -(a7)
         0x005c261a      4eb9005c6f48   jsr AFS1_UTIL.afs1_error
         0x005c2620      defc0036       adda.w 0x36, a7
      > 0x005c2624      486c0004       pea.l 0x4(a4)
           0x005c2628      4eb900404468   jsr fcn.00404468
           0x005c262e      584f           addq.w 0x4, a7
           0x005c2630      4cdf0303       movem.l (a7)+, d0-d1/a0-a1
           0x005c2634      4e5e           unlk a6
           0x005c2636      4e75           rts
            ; CALL XREF from K1_AFS_ONLY.k1_save @ 0x5ac07e
 850: AFS_FILER.afs_save (int32_t arg_1ah, int32_t arg_1ch);
           ; var int32_t var_3cd2h @ a6-0x3cd2
           ; var int32_t var_3ccdh @ a6-0x3ccd
           ; var int32_t var_3bc8h @ a6-0x3bc8
           ; var int32_t var_3aaah @ a6-0x3aaa
           ; var int32_t var_14h @ a6-0x14
           ; arg int32_t arg_1ah @ a6+0x1a
           ; arg int32_t arg_1ch @ a6+0x1c
           0x005c2638      4e56fede       link.w a6, 0xfede
           0x005c263c      bfd5           cmpa.l (a5), a7
       < 0x005c263e      6206           bhi.b 0x5c2646
          0x005c2640      44fc0002       move.w 0x2, ccr
          0x005c2644      4e76           trapv
       > 0x005c2646      defc00b8       adda.w 0xb8, a7
           0x005c264a      48e7fff8       movem.l d0-d7/a0-a4, -(a7)
           0x005c264e      47eeffe4       lea.l -0x1c(a6), a3
           0x005c2652      243cffff0001   move.l 0xffff0001, d2
           0x005c2658      760c           moveq 0xc, d3
           0x005c265a      7810           moveq 0x10, d4
           0x005c265c      7a0a           moveq 0xa, d5
           0x005c265e      7c03           moveq 0x3, d6
           0x005c2660      3d7ac556ffec   move.w 0x5bebb8(pc), -0x14(a6)
           0x005c2666      2682           move.l d2, (a3)
           0x005c2668      554f           subq.w 0x2, a7
           0x005c266a      486eff9a       pea.l -0x66(a6)
           0x005c266e      4eb900404434   jsr fcn.00404434
           0x005c2674      584f           addq.w 0x4, a7
           0x005c2676      4a1f           tst.b (a7)+
       < 0x005c2678      670002f2       beq.w 0x5c296c
          0x005c267c      4a2e0014       tst.b 0x14(a6)
      < 0x005c2680      6742           beq.b 0x5c26c4
         0x005c2682      102e0014       move.b 0x14(a6), d0
         0x005c2686      b002           cmp.b d2, d0
     < 0x005c2688      673a           beq.b 0x5c26c4
        0x005c268a      487ac52f       pea.l 0x5bebbb(pc)
        0x005c268e      48780019       pea.l 0x19
        0x005c2692      2f17           move.l (a7), -(a7)
        0x005c2694      4eb9004047ea   jsr p_wts_o
        0x005c269a      dec3           adda.w d3, a7
        0x005c269c      102e0014       move.b 0x14(a6), d0
        0x005c26a0      4880           ext.w d0
        0x005c26a2      48c0           ext.l d0
        0x005c26a4      2f00           move.l d0, -(a7)
        0x005c26a6      48780000       pea.l 0x0
        0x005c26aa      4eb9004070e4   jsr p_wti_o
        0x005c26b0      504f           addq.w 0x8, a7
        0x005c26b2      4eb900404946   jsr p_wtln_o
        0x005c26b8      486eff9a       pea.l -0x66(a6)
        0x005c26bc      4eb900404468   jsr fcn.00404468
        0x005c26c2      584f           addq.w 0x4, a7
     > 0x005c26c4      206e001e       movea.l 0x1e(a6), a0
          0x005c26c8      9ec3           suba.w d3, a7
          0x005c26ca      224f           movea.l a7, a1
          0x005c26cc      2448           movea.l a0, a2
          0x005c26ce      7009           moveq 0x9, d0
      > 0x005c26d0      12da           move.b (a2)+, (a1)+
      < 0x005c26d2      51c8fffc       dbra d0, 0x5c26d0
          0x005c26d6      1f02           move.b d2, -(a7)
          0x005c26d8      4853           pea.l (a3)
          0x005c26da      4eb9006082de   jsr F10_FILELIST.f_get_header
          0x005c26e0      dec4           adda.w d4, a7
          0x005c26e2      4a1f           tst.b (a7)+
      < 0x005c26e4      6636           bne.b 0x5c271c
         0x005c26e6      9efc001a       suba.w 0x1a, a7
         0x005c26ea      224f           movea.l a7, a1
         0x005c26ec      45fac4e7       lea.l 0x5bebd5(pc), a2
         0x005c26f0      7018           moveq 0x18, d0
     > 0x005c26f2      12da           move.b (a2)+, (a1)+
     < 0x005c26f4      51c8fffc       dbra d0, 0x5c26f2
         0x005c26f8      4857           pea.l (a7)
         0x005c26fa      48780001       pea.l 0x1
         0x005c26fe      48780019       pea.l 0x19
         0x005c2702      1f02           move.b d2, -(a7)
         0x005c2704      1f02           move.b d2, -(a7)
         0x005c2706      224b           movea.l a3, a1
         0x005c2708      7011           moveq 0x11, d0
     > 0x005c270a      2f21           move.l -(a1), -(a7)
     < 0x005c270c      51c8fffc       dbra d0, 0x5c270a
         0x005c2710      3f21           move.w -(a1), -(a7)
         0x005c2712      4eb9005c6e76   jsr AFS1_UTIL.afs1_abort
         0x005c2718      defc0074       adda.w 0x74, a7
      > 0x005c271c      554f           subq.w 0x2, a7
          0x005c271e      3f04           move.w d4, -(a7)
          0x005c2720      2f13           move.l (a3), -(a7)
          0x005c2722      43eefff6       lea.l -0xa(a6), a1
          0x005c2726      2f09           move.l a1, -(a7)
          0x005c2728      3f05           move.w d5, -(a7)
          0x005c272a      4eb9005eed1e   jsr f_get_field
          0x005c2730      dec3           adda.w d3, a7
          0x005c2732      4a1f           tst.b (a7)+
      < 0x005c2734      6624           bne.b 0x5c275a
         0x005c2736      487ac4b7       pea.l 0x5bebef(pc)
         0x005c273a      48780037       pea.l 0x37
         0x005c273e      2f17           move.l (a7), -(a7)
         0x005c2740      4eb9004047ea   jsr p_wts_o
         0x005c2746      dec3           adda.w d3, a7
         0x005c2748      4eb900404946   jsr p_wtln_o
         0x005c274e      486eff9a       pea.l -0x66(a6)
         0x005c2752      4eb900404468   jsr fcn.00404468
         0x005c2758      584f           addq.w 0x4, a7
      > 0x005c275a      4280           clr.l d0
          0x005c275c      302efff6       move.w -0xa(a6), d0
          0x005c2760      2f00           move.l d0, -(a7)
          0x005c2762      486effef       pea.l -0x11(a6)
          0x005c2766      486efff0       pea.l -0x10(a6)
          0x005c276a      486efff2       pea.l -0xe(a6)
          0x005c276e      4eb9005e9616   jsr FILE_STRUCTURE.fs_crack_format
          0x005c2774      dec4           adda.w d4, a7
          0x005c2776      4853           pea.l (a3)
          0x005c2778      4eb90060500e   jsr F9_FILERDWRT.f_free_block
          0x005c277e      584f           addq.w 0x4, a7
          0x005c2780      4a2e000e       tst.b 0xe(a6)
      < 0x005c2784      6700008e       beq.w 0x5c2814
         0x005c2788      7e03           moveq 0x3, d7
         0x005c278a      102e000a       move.b 0xa(a6), d0
         0x005c278e      b002           cmp.b d2, d0
     < 0x005c2790      6678           bne.b 0x5c280a
        0x005c2792      554f           subq.w 0x2, a7
        0x005c2794      1f02           move.b d2, -(a7)
        0x005c2796      1f00           move.b d0, -(a7)
        0x005c2798      2f2e001a       move.l 0x1a(a6), -(a7)
        0x005c279c      2f2e0016       move.l 0x16(a6), -(a7)
        0x005c27a0      1f2e000c       move.b 0xc(a6), -(a7)
        0x005c27a4      9ec5           suba.w d5, a7
        0x005c27a6      224f           movea.l a7, a1
        0x005c27a8      2448           movea.l a0, a2
        0x005c27aa      7209           moveq 0x9, d1
    > 0x005c27ac      12da           move.b (a2)+, (a1)+
    < 0x005c27ae      51c9fffc       dbra d1, 0x5c27ac
        0x005c27b2      4887           ext.w d7
        0x005c27b4      4f86           chk.w d6, d7
        0x005c27b6      1f07           move.b d7, -(a7)
        0x005c27b8      4281           clr.l d1
        0x005c27ba      322e0010       move.w 0x10(a6), d1
        0x005c27be      2f01           move.l d1, -(a7)
        0x005c27c0      2f2efff2       move.l -0xe(a6), -(a7)
        0x005c27c4      486effec       pea.l -0x14(a6)
        0x005c27c8      4ebafa8e       jsr AFS_FILER.save_a_plane(pc)
        0x005c27cc      defc0026       adda.w 0x26, a7
        0x005c27d0      4a1f           tst.b (a7)+
    < 0x005c27d2      6636           bne.b 0x5c280a
       0x005c27d4      9efc001c       suba.w 0x1c, a7
       0x005c27d8      224f           movea.l a7, a1
       0x005c27da      45fac44b       lea.l 0x5bec27(pc), a2
       0x005c27de      721b           moveq 0x1b, d1
   > 0x005c27e0      12da           move.b (a2)+, (a1)+
   < 0x005c27e2      51c9fffc       dbra d1, 0x5c27e0
       0x005c27e6      4857           pea.l (a7)
       0x005c27e8      48780001       pea.l 0x1
       0x005c27ec      4878001c       pea.l 0x1c
       0x005c27f0      4227           clr.b -(a7)
       0x005c27f2      1f02           move.b d2, -(a7)
       0x005c27f4      224b           movea.l a3, a1
       0x005c27f6      7211           moveq 0x11, d1
   > 0x005c27f8      2f21           move.l -(a1), -(a7)
   < 0x005c27fa      51c9fffc       dbra d1, 0x5c27f8
       0x005c27fe      3f21           move.w -(a1), -(a7)
       0x005c2800      4eb9005c6e76   jsr AFS1_UTIL.afs1_abort
       0x005c2806      defc0076       adda.w 0x76, a7
    > 0x005c280a      3d7ac438ffec   move.w 0x5bec44(pc), -0x14(a6)
     < 0x005c2810      6000015a       bra.w 0x5c296c
     > 0x005c2814      4a2e0014       tst.b 0x14(a6)
     < 0x005c2818      6604           bne.b 0x5c281e
        0x005c281a      7e01           moveq 0x1, d7
    < 0x005c281c      6002           bra.b 0x5c2820
    > 0x005c281e      7e02           moveq 0x2, d7
    > 0x005c2820      102e000a       move.b 0xa(a6), d0
         0x005c2824      4880           ext.w d0
         0x005c2826      013ac41e       btst.l d0, 0x5bec46(pc)
     < 0x005c282a      6746           beq.b 0x5c2872
        0x005c282c      554f           subq.w 0x2, a7
        0x005c282e      1f02           move.b d2, -(a7)
        0x005c2830      1f00           move.b d0, -(a7)
        0x005c2832      2f2e001a       move.l 0x1a(a6), -(a7)
        0x005c2836      2f2e0016       move.l 0x16(a6), -(a7)
        0x005c283a      1f2e000c       move.b 0xc(a6), -(a7)
        0x005c283e      9ec5           suba.w d5, a7
        0x005c2840      224f           movea.l a7, a1
        0x005c2842      2448           movea.l a0, a2
        0x005c2844      7209           moveq 0x9, d1
    > 0x005c2846      12da           move.b (a2)+, (a1)+
    < 0x005c2848      51c9fffc       dbra d1, 0x5c2846
        0x005c284c      4887           ext.w d7
        0x005c284e      4f86           chk.w d6, d7
        0x005c2850      1f07           move.b d7, -(a7)
        0x005c2852      48780000       pea.l 0x0
        0x005c2856      2f2efff2       move.l -0xe(a6), -(a7)
        0x005c285a      486effec       pea.l -0x14(a6)
        0x005c285e      4ebaf9f8       jsr AFS_FILER.save_a_plane(pc)
        0x005c2862      defc0026       adda.w 0x26, a7
        0x005c2866      4a1f           tst.b (a7)+
    < 0x005c2868      6608           bne.b 0x5c2872
       0x005c286a      49eeff96       lea.l -0x6a(a6), a4
       0x005c286e      4ebafd38       jsr AFS_FILER.cleanup_failed_(pc)
    > 0x005c2872      102e000a       move.b 0xa(a6), d0
         0x005c2876      4880           ext.w d0
         0x005c2878      013ac3ce       btst.l d0, 0x5bec48(pc)
     < 0x005c287c      6746           beq.b 0x5c28c4
        0x005c287e      554f           subq.w 0x2, a7
        0x005c2880      4227           clr.b -(a7)
        0x005c2882      1f00           move.b d0, -(a7)
        0x005c2884      2f2e001a       move.l 0x1a(a6), -(a7)
        0x005c2888      2f2e0016       move.l 0x16(a6), -(a7)
        0x005c288c      1f2e000c       move.b 0xc(a6), -(a7)
        0x005c2890      9ec5           suba.w d5, a7
        0x005c2892      224f           movea.l a7, a1
        0x005c2894      2448           movea.l a0, a2
        0x005c2896      7209           moveq 0x9, d1
    > 0x005c2898      12da           move.b (a2)+, (a1)+
    < 0x005c289a      51c9fffc       dbra d1, 0x5c2898
        0x005c289e      4887           ext.w d7
        0x005c28a0      4f86           chk.w d6, d7
        0x005c28a2      1f07           move.b d7, -(a7)
        0x005c28a4      48780000       pea.l 0x0
        0x005c28a8      2f2efff2       move.l -0xe(a6), -(a7)
        0x005c28ac      486effec       pea.l -0x14(a6)
        0x005c28b0      4ebaf9a6       jsr AFS_FILER.save_a_plane(pc)
        0x005c28b4      defc0026       adda.w 0x26, a7
        0x005c28b8      4a1f           tst.b (a7)+
    < 0x005c28ba      6608           bne.b 0x5c28c4
       0x005c28bc      49eeff96       lea.l -0x6a(a6), a4
       0x005c28c0      4ebafce6       jsr AFS_FILER.cleanup_failed_(pc)
    > 0x005c28c4      102e0014       move.b 0x14(a6), d0
         0x005c28c8      b002           cmp.b d2, d0
     < 0x005c28ca      66000094       bne.w 0x5c2960
        0x005c28ce      9ec3           suba.w d3, a7
        0x005c28d0      224f           movea.l a7, a1
        0x005c28d2      2448           movea.l a0, a2
        0x005c28d4      7009           moveq 0x9, d0
    > 0x005c28d6      12da           move.b (a2)+, (a1)+
    < 0x005c28d8      51c8fffc       dbra d0, 0x5c28d6
        0x005c28dc      1f02           move.b d2, -(a7)
        0x005c28de      4853           pea.l (a3)
        0x005c28e0      4eb9006082de   jsr F10_FILELIST.f_get_header
        0x005c28e6      dec4           adda.w d4, a7
        0x005c28e8      4a1f           tst.b (a7)+
    < 0x005c28ea      6632           bne.b 0x5c291e
       0x005c28ec      43fac37e       lea.l 0x5bec6c(pc), a1
       0x005c28f0      7007           moveq 0x7, d0
   > 0x005c28f2      2f21           move.l -(a1), -(a7)
   < 0x005c28f4      51c8fffc       dbra d0, 0x5c28f2
       0x005c28f8      3f21           move.w -(a1), -(a7)
       0x005c28fa      4857           pea.l (a7)
       0x005c28fc      48780001       pea.l 0x1
       0x005c2900      48780022       pea.l 0x22
       0x005c2904      1f02           move.b d2, -(a7)
       0x005c2906      1f02           move.b d2, -(a7)
       0x005c2908      224b           movea.l a3, a1
       0x005c290a      7011           moveq 0x11, d0
   > 0x005c290c      2f21           move.l -(a1), -(a7)
   < 0x005c290e      51c8fffc       dbra d0, 0x5c290c
       0x005c2912      3f21           move.w -(a1), -(a7)
       0x005c2914      4eb9005c6e76   jsr AFS1_UTIL.afs1_abort
       0x005c291a      defc007c       adda.w 0x7c, a7
    > 0x005c291e      3d6e001affe8   move.w 0x1a(a6), -0x18(a6)
        0x005c2924      3d6e001cffea   move.w 0x1c(a6), -0x16(a6)
        0x005c292a      554f           subq.w 0x2, a7
        0x005c292c      3f3c0018       move.w 0x18, -(a7)
        0x005c2930      2f13           move.l (a3), -(a7)
        0x005c2932      43eeffe8       lea.l -0x18(a6), a1
        0x005c2936      2f09           move.l a1, -(a7)
        0x005c2938      3f3c0004       move.w 0x4, -(a7)
        0x005c293c      4eb9005eed96   jsr f_put_field
        0x005c2942      dec3           adda.w d3, a7
        0x005c2944      4a1f           tst.b (a7)+
    < 0x005c2946      6618           bne.b 0x5c2960
       0x005c2948      487ac323       pea.l 0x5bec6d(pc)
       0x005c294c      48780027       pea.l 0x27
       0x005c2950      2f17           move.l (a7), -(a7)
       0x005c2952      4eb9004047ea   jsr p_wts_o
       0x005c2958      dec3           adda.w d3, a7
       0x005c295a      4eb900404946   jsr p_wtln_o
    > 0x005c2960      1d7ac333ffec   move.b 0x5bec95(pc), -0x14(a6)
         0x005c2966      1d7ac32effed   move.b 0x5bec96(pc), -0x13(a6)
     > 0x005c296c      3d6effec0022   move.w -0x14(a6), 0x22(a6)
           0x005c2972      2013           move.l (a3), d0
           0x005c2974      b082           cmp.l d2, d0
       < 0x005c2976      670a           beq.b 0x5c2982
          0x005c2978      4853           pea.l (a3)
          0x005c297a      4eb90060500e   jsr F9_FILERDWRT.f_free_block
          0x005c2980      584f           addq.w 0x4, a7
       > 0x005c2982      4cdf1fff       movem.l (a7)+, d0-d7/a0-a4
           0x005c2986      4e5e           unlk a6
           0x005c2988      4e75           rts
            ; CALL XREF from AFS_FILER.load_a_plane @ 0x5c2d1a
 422: AFS_FILER.afs0_load_plane ();
           0x005c298a      4e56ff20       link.w a6, 0xff20
           0x005c298e      bfd5           cmpa.l (a5), a7
       < 0x005c2990      6206           bhi.b 0x5c2998
          0x005c2992      44fc0002       move.w 0x2, ccr
          0x005c2996      4e76           trapv
       > 0x005c2998      defc008e       adda.w 0x8e, a7
           0x005c299c      48e7e0f8       movem.l d0-d2/a0-a4, -(a7)
           0x005c29a0      45eefff8       lea.l -0x8(a6), a2
           0x005c29a4      47eefffc       lea.l -0x4(a6), a3
           0x005c29a8      49f80001       lea.l 0x1, a4
           0x005c29ac      7201           moveq 0x1, d1
           0x005c29ae      740c           moveq 0xc, d2
           0x005c29b0      2681           move.l d1, (a3)
           0x005c29b2      554f           subq.w 0x2, a7
           0x005c29b4      486effae       pea.l -0x52(a6)
           0x005c29b8      4eb900404434   jsr fcn.00404434
           0x005c29be      584f           addq.w 0x4, a7
           0x005c29c0      4a1f           tst.b (a7)+
       < 0x005c29c2      67000156       beq.w 0x5c2b1a
          0x005c29c6      554f           subq.w 0x2, a7
          0x005c29c8      2f2e000e       move.l 0xe(a6), -(a7)
          0x005c29cc      2f2e000a       move.l 0xa(a6), -(a7)
          0x005c29d0      3f2e0008       move.w 0x8(a6), -(a7)
          0x005c29d4      4227           clr.b -(a7)
          0x005c29d6      4853           pea.l (a3)
          0x005c29d8      4eb90060477a   jsr F9_FILERDWRT.f_op_block
          0x005c29de      defc0010       adda.w 0x10, a7
          0x005c29e2      4a1f           tst.b (a7)+
      < 0x005c29e4      662e           bne.b 0x5c2a14
         0x005c29e6      2f3ac2b8       move.l 0x5beca0(pc), -(a7)
         0x005c29ea      2f3ac2b0       move.l 0x5bec9c(pc), -(a7)
         0x005c29ee      2f3ac2a8       move.l 0x5bec98(pc), -(a7)
         0x005c29f2      4857           pea.l (a7)
         0x005c29f4      4854           pea.l (a4)
         0x005c29f6      4878000c       pea.l 0xc
         0x005c29fa      1f01           move.b d1, -(a7)
         0x005c29fc      1f01           move.b d1, -(a7)
         0x005c29fe      204a           movea.l a2, a0
         0x005c2a00      7011           moveq 0x11, d0
     > 0x005c2a02      2f20           move.l -(a0), -(a7)
     < 0x005c2a04      51c8fffc       dbra d0, 0x5c2a02
         0x005c2a08      3f20           move.w -(a0), -(a7)
         0x005c2a0a      4eb9005c6e76   jsr AFS1_UTIL.afs1_abort
         0x005c2a10      defc0066       adda.w 0x66, a7
      > 0x005c2a14      554f           subq.w 0x2, a7
          0x005c2a16      2f13           move.l (a3), -(a7)
          0x005c2a18      2f2e0012       move.l 0x12(a6), -(a7)
          0x005c2a1c      4eb900604c60   jsr F9_FILERDWRT.f_seek_to_block
          0x005c2a22      504f           addq.w 0x8, a7
          0x005c2a24      4a1f           tst.b (a7)+
      < 0x005c2a26      6632           bne.b 0x5c2a5a
         0x005c2a28      2f3ac29c       move.l 0x5becc6(pc), -(a7)
         0x005c2a2c      2f3ac294       move.l 0x5becc2(pc), -(a7)
         0x005c2a30      2f3ac28c       move.l 0x5becbe(pc), -(a7)
         0x005c2a34      2f3ac284       move.l 0x5becba(pc), -(a7)
         0x005c2a38      4857           pea.l (a7)
         0x005c2a3a      4854           pea.l (a4)
         0x005c2a3c      48780010       pea.l 0x10
         0x005c2a40      1f01           move.b d1, -(a7)
         0x005c2a42      1f01           move.b d1, -(a7)
         0x005c2a44      204a           movea.l a2, a0
         0x005c2a46      7011           moveq 0x11, d0
     > 0x005c2a48      2f20           move.l -(a0), -(a7)
     < 0x005c2a4a      51c8fffc       dbra d0, 0x5c2a48
         0x005c2a4e      3f20           move.w -(a0), -(a7)
         0x005c2a50      4eb9005c6e76   jsr AFS1_UTIL.afs1_abort
         0x005c2a56      defc006a       adda.w 0x6a, a7
      > 0x005c2a5a      4292           clr.l (a2)
          0x005c2a5c      554f           subq.w 0x2, a7
          0x005c2a5e      2f13           move.l (a3), -(a7)
          0x005c2a60      2f2e0016       move.l 0x16(a6), -(a7)
          0x005c2a64      4854           pea.l (a4)
          0x005c2a66      2f3c00060000   move.l 0x60000, -(a7)
          0x005c2a6c      4852           pea.l (a2)
          0x005c2a6e      4eb900604854   jsr F9_FILERDWRT.f_read_blocks
          0x005c2a74      defc0014       adda.w 0x14, a7
          0x005c2a78      4a1f           tst.b (a7)+
      < 0x005c2a7a      6658           bne.b 0x5c2ad4
         0x005c2a7c      554f           subq.w 0x2, a7
         0x005c2a7e      4eb90051f30e   jsr BRUSHCOM.brush_hung
         0x005c2a84      4a1f           tst.b (a7)+
     < 0x005c2a86      6718           beq.b 0x5c2aa0
        0x005c2a88      487ac272       pea.l 0x5becfc(pc)
        0x005c2a8c      48780020       pea.l 0x20
        0x005c2a90      2f17           move.l (a7), -(a7)
        0x005c2a92      4eb9004047ea   jsr p_wts_o
        0x005c2a98      dec2           adda.w d2, a7
        0x005c2a9a      4eb900404946   jsr p_wtln_o
     > 0x005c2aa0      9efc000e       suba.w 0xe, a7
         0x005c2aa4      204f           movea.l a7, a0
         0x005c2aa6      43fac275       lea.l 0x5bed1d(pc), a1
         0x005c2aaa      700c           moveq 0xc, d0
     > 0x005c2aac      10d9           move.b (a1)+, (a0)+
     < 0x005c2aae      51c8fffc       dbra d0, 0x5c2aac
         0x005c2ab2      4857           pea.l (a7)
         0x005c2ab4      4854           pea.l (a4)
         0x005c2ab6      4878000d       pea.l 0xd
         0x005c2aba      1f01           move.b d1, -(a7)
         0x005c2abc      1f01           move.b d1, -(a7)
         0x005c2abe      204a           movea.l a2, a0
         0x005c2ac0      7011           moveq 0x11, d0
     > 0x005c2ac2      2f20           move.l -(a0), -(a7)
     < 0x005c2ac4      51c8fffc       dbra d0, 0x5c2ac2
         0x005c2ac8      3f20           move.w -(a0), -(a7)
         0x005c2aca      4eb9005c6e76   jsr AFS1_UTIL.afs1_abort
         0x005c2ad0      defc0068       adda.w 0x68, a7
      > 0x005c2ad4      4227           clr.b -(a7)
          0x005c2ad6      2012           move.l (a2), d0
          0x005c2ad8      b0ae0016       cmp.l 0x16(a6), d0
      < 0x005c2adc      6602           bne.b 0x5c2ae0
         0x005c2ade      5217           addq.b 0x1, (a7)
      > 0x005c2ae0      4eb90040452a   jsr p_Assert
          0x005c2ae6      4eb90051f30e   jsr BRUSHCOM.brush_hung
          0x005c2aec      4a1f           tst.b (a7)+
      < 0x005c2aee      6724           beq.b 0x5c2b14
         0x005c2af0      487ac24b       pea.l 0x5bed3d(pc)
         0x005c2af4      48780020       pea.l 0x20
         0x005c2af8      2f17           move.l (a7), -(a7)
         0x005c2afa      4eb9004047ea   jsr p_wts_o
         0x005c2b00      dec2           adda.w d2, a7
         0x005c2b02      4eb900404946   jsr p_wtln_o
         0x005c2b08      486effae       pea.l -0x52(a6)
         0x005c2b0c      4eb900404468   jsr fcn.00404468
         0x005c2b12      584f           addq.w 0x4, a7
      > 0x005c2b14      1d41001a       move.b d1, 0x1a(a6)
      < 0x005c2b18      6004           bra.b 0x5c2b1e
      > 0x005c2b1a      422e001a       clr.b 0x1a(a6)
      > 0x005c2b1e      4853           pea.l (a3)
           0x005c2b20      4eb90060470a   jsr F9_FILERDWRT.f_close
           0x005c2b26      584f           addq.w 0x4, a7
           0x005c2b28      4cdf1f07       movem.l (a7)+, d0-d2/a0-a4
           0x005c2b2c      4e5e           unlk a6
           0x005c2b2e      4e75           rts
 596: AFS_FILER.load_a_plane (int32_t arg_1eh, int32_t arg_20h);
           ; arg int32_t arg_1eh @ a6+0x1e
           ; arg int32_t arg_20h @ a6+0x20
           0x005c2b30      4e56feee       link.w a6, 0xfeee
           0x005c2b34      bfd5           cmpa.l (a5), a7
       < 0x005c2b36      6206           bhi.b 0x5c2b3e
          0x005c2b38      44fc0002       move.w 0x2, ccr
          0x005c2b3c      4e76           trapv
       > 0x005c2b3e      defc00b2       adda.w 0xb2, a7
           0x005c2b42      48e7fff8       movem.l d0-d7/a0-a4, -(a7)
           0x005c2b46      45eefffc       lea.l -0x4(a6), a2
           0x005c2b4a      47ee0018       lea.l 0x18(a6), a3
           0x005c2b4e      49ee0014       lea.l 0x14(a6), a4
           0x005c2b52      243cffff0001   move.l 0xffff0001, d2
           0x005c2b58      7a1e           moveq 0x1e, d5
           0x005c2b5a      7c01           moveq 0x1, d6
           0x005c2b5c      422e002c       clr.b 0x2c(a6)
           0x005c2b60      2482           move.l d2, (a2)
           0x005c2b62      554f           subq.w 0x2, a7
           0x005c2b64      486effa0       pea.l -0x60(a6)
           0x005c2b68      4eb900404434   jsr fcn.00404434
           0x005c2b6e      584f           addq.w 0x4, a7
           0x005c2b70      4a1f           tst.b (a7)+
       < 0x005c2b72      670001f8       beq.w 0x5c2d6c
          0x005c2b76      3d6e001efff6   move.w 0x1e(a6), -0xa(a6)
          0x005c2b7c      3d6e0020fff8   move.w 0x20(a6), -0x8(a6)
          0x005c2b82      282e0022       move.l 0x22(a6), d4
          0x005c2b86      263c00010000   move.l 0x10000, d3
          0x005c2b8c      4eb900406b50   jsr fcn.00406b50
          0x005c2b92      3d44fff2       move.w d4, -0xe(a6)
          0x005c2b96      282e0026       move.l 0x26(a6), d4
          0x005c2b9a      263c00010000   move.l 0x10000, d3
          0x005c2ba0      4eb900406b50   jsr fcn.00406b50
          0x005c2ba6      3d44fff4       move.w d4, -0xc(a6)
          0x005c2baa      422efffa       clr.b -0x6(a6)
          0x005c2bae      102e0010       move.b 0x10(a6), d0
          0x005c2bb2      4880           ext.w d0
          0x005c2bb4      013ac1d4       btst.l d0, 0x5bed8a(pc)
      < 0x005c2bb8      6704           beq.b 0x5c2bbe
         0x005c2bba      522efffa       addq.b 0x1, -0x6(a6)
      > 0x005c2bbe      1f06           move.b d6, -(a7)
          0x005c2bc0      1f2e001c       move.b 0x1c(a6), -(a7)
          0x005c2bc4      1f2e002a       move.b 0x2a(a6), -(a7)
          0x005c2bc8      2f2efff6       move.l -0xa(a6), -(a7)
          0x005c2bcc      2f2efff2       move.l -0xe(a6), -(a7)
          0x005c2bd0      4227           clr.b -(a7)
          0x005c2bd2      4eb9005219f8   jsr BRUSHCOM.br_disk_transfe
          0x005c2bd8      defc0010       adda.w 0x10, a7
          0x005c2bdc      322efff8       move.w -0x8(a6), d1
          0x005c2be0      c3eefff6       muls.w -0xa(a6), d1
          0x005c2be4      2801           move.l d1, d4
          0x005c2be6      262e0008       move.l 0x8(a6), d3
          0x005c2bea      4eb900406a74   jsr fcn.00406a74
          0x005c2bf0      594f           subq.w 0x4, a7
          0x005c2bf2      2f04           move.l d4, -(a7)
          0x005c2bf4      4eb9005c80ec   jsr AFS1_UTIL.afs1_blocks
          0x005c2bfa      584f           addq.w 0x4, a7
          0x005c2bfc      2e17           move.l (a7), d7
          0x005c2bfe      544f           addq.w 0x2, a7
          0x005c2c00      2f13           move.l (a3), -(a7)
          0x005c2c02      2f14           move.l (a4), -(a7)
          0x005c2c04      3f2e0012       move.w 0x12(a6), -(a7)
          0x005c2c08      4227           clr.b -(a7)
          0x005c2c0a      4852           pea.l (a2)
          0x005c2c0c      4eb9006082de   jsr F10_FILELIST.f_get_header
          0x005c2c12      defc0010       adda.w 0x10, a7
          0x005c2c16      4a1f           tst.b (a7)+
      < 0x005c2c18      6638           bne.b 0x5c2c52
         0x005c2c1a      9ec5           suba.w d5, a7
         0x005c2c1c      204f           movea.l a7, a0
         0x005c2c1e      43fac16c       lea.l 0x5bed8c(pc), a1
         0x005c2c22      7206           moveq 0x6, d1
     > 0x005c2c24      20d9           move.l (a1)+, (a0)+
     < 0x005c2c26      51c9fffc       dbra d1, 0x5c2c24
         0x005c2c2a      10d9           move.b (a1)+, (a0)+
         0x005c2c2c      4857           pea.l (a7)
         0x005c2c2e      48780001       pea.l 0x1
         0x005c2c32      4878001d       pea.l 0x1d
         0x005c2c36      1f06           move.b d6, -(a7)
         0x005c2c38      1f06           move.b d6, -(a7)
         0x005c2c3a      41eeffea       lea.l -0x16(a6), a0
         0x005c2c3e      7211           moveq 0x11, d1
     > 0x005c2c40      2f20           move.l -(a0), -(a7)
     < 0x005c2c42      51c9fffc       dbra d1, 0x5c2c40
         0x005c2c46      3f20           move.w -(a0), -(a7)
         0x005c2c48      4eb9005c6e76   jsr AFS1_UTIL.afs1_abort
         0x005c2c4e      defc0078       adda.w 0x78, a7
      > 0x005c2c52      0c000003       cmpi.b 0x3, d0
      < 0x005c2c56      6636           bne.b 0x5c2c8e
         0x005c2c58      554f           subq.w 0x2, a7
         0x005c2c5a      1f3c0007       move.b 0x7, -(a7)
         0x005c2c5e      4227           clr.b -(a7)
         0x005c2c60      2f2e000c       move.l 0xc(a6), -(a7)
         0x005c2c64      2f07           move.l d7, -(a7)
         0x005c2c66      4852           pea.l (a2)
         0x005c2c68      2f13           move.l (a3), -(a7)
         0x005c2c6a      2f14           move.l (a4), -(a7)
         0x005c2c6c      3f2e0012       move.w 0x12(a6), -(a7)
         0x005c2c70      486effee       pea.l -0x12(a6)
         0x005c2c74      4eb9005ed4dc   jsr FILE_STRUCTURE.fs_file_addr
         0x005c2c7a      dec5           adda.w d5, a7
         0x005c2c7c      4a1f           tst.b (a7)+
     < 0x005c2c7e      66000082       bne.w 0x5c2d02
        0x005c2c82      487ac126       pea.l 0x5bedaa(pc)
        0x005c2c86      48780039       pea.l 0x39
        0x005c2c8a      2f17           move.l (a7), -(a7)
    < 0x005c2c8c      6058           bra.b 0x5c2ce6
    > 0x005c2c8e      554f           subq.w 0x2, a7
        0x005c2c90      102efffa       move.b -0x6(a6), d0
        0x005c2c94      4880           ext.w d0
        0x005c2c96      4186           chk.w d6, d0
        0x005c2c98      1f00           move.b d0, -(a7)
        0x005c2c9a      1f2e002a       move.b 0x2a(a6), -(a7)
        0x005c2c9e      4ebae548       jsr AFS_FILER.file_section(pc)
        0x005c2ca2      584f           addq.w 0x4, a7
        0x005c2ca4      101f           move.b (a7)+, d0
        0x005c2ca6      4880           ext.w d0
        0x005c2ca8      41bc000b       chk.w 0xb, d0
        0x005c2cac      1d40fffb       move.b d0, -0x5(a6)
        0x005c2cb0      554f           subq.w 0x2, a7
        0x005c2cb2      4880           ext.w d0
        0x005c2cb4      41bc000b       chk.w 0xb, d0
        0x005c2cb8      1f00           move.b d0, -(a7)
        0x005c2cba      4227           clr.b -(a7)
        0x005c2cbc      48780000       pea.l 0x0
        0x005c2cc0      2f07           move.l d7, -(a7)
        0x005c2cc2      4852           pea.l (a2)
        0x005c2cc4      2f13           move.l (a3), -(a7)
        0x005c2cc6      2f14           move.l (a4), -(a7)
        0x005c2cc8      3f2e0012       move.w 0x12(a6), -(a7)
        0x005c2ccc      486effee       pea.l -0x12(a6)
        0x005c2cd0      4eb9005ed4dc   jsr FILE_STRUCTURE.fs_file_addr
        0x005c2cd6      dec5           adda.w d5, a7
        0x005c2cd8      4a1f           tst.b (a7)+
    < 0x005c2cda      6626           bne.b 0x5c2d02
       0x005c2cdc      487ac106       pea.l 0x5bede4(pc)
       0x005c2ce0      48780036       pea.l 0x36
       0x005c2ce4      2f17           move.l (a7), -(a7)
    > 0x005c2ce6      4eb9004047ea   jsr p_wts_o
        0x005c2cec      defc000c       adda.w 0xc, a7
        0x005c2cf0      4eb900404946   jsr p_wtln_o
        0x005c2cf6      486effa0       pea.l -0x60(a6)
        0x005c2cfa      4eb900404468   jsr fcn.00404468
        0x005c2d00      584f           addq.w 0x4, a7
     > 0x005c2d02      4852           pea.l (a2)
          0x005c2d04      4eb90060500e   jsr F9_FILERDWRT.f_free_block
          0x005c2d0a      544f           addq.w 0x2, a7
          0x005c2d0c      2f07           move.l d7, -(a7)
          0x005c2d0e      2f2effee       move.l -0x12(a6), -(a7)
          0x005c2d12      2f13           move.l (a3), -(a7)
          0x005c2d14      2f14           move.l (a4), -(a7)
          0x005c2d16      3f2e0012       move.w 0x12(a6), -(a7)
          0x005c2d1a      4ebafc6e       jsr AFS_FILER.afs0_load_plane(pc)
          0x005c2d1e      defc0012       adda.w 0x12, a7
          0x005c2d22      4a1f           tst.b (a7)+
      < 0x005c2d24      6640           bne.b 0x5c2d66
         0x005c2d26      9efc000a       suba.w 0xa, a7
         0x005c2d2a      2f3ac120       move.l 0x5bee4c(pc), -(a7)
         0x005c2d2e      2f7ac1200004   move.l 0x5bee50(pc), 0x4(a7)
         0x005c2d34      2f7ac11e0008   move.l 0x5bee54(pc), 0x8(a7)
         0x005c2d3a      1f7ac11c000c   move.b 0x5bee58(pc), 0xc(a7)
         0x005c2d40      4857           pea.l (a7)
         0x005c2d42      48780001       pea.l 0x1
         0x005c2d46      4878000d       pea.l 0xd
         0x005c2d4a      4227           clr.b -(a7)
         0x005c2d4c      1f06           move.b d6, -(a7)
         0x005c2d4e      41eeffea       lea.l -0x16(a6), a0
         0x005c2d52      7011           moveq 0x11, d0
     > 0x005c2d54      2f20           move.l -(a0), -(a7)
     < 0x005c2d56      51c8fffc       dbra d0, 0x5c2d54
         0x005c2d5a      3f20           move.w -(a0), -(a7)
         0x005c2d5c      4eb9005c6e76   jsr AFS1_UTIL.afs1_abort
         0x005c2d62      defc0068       adda.w 0x68, a7
      > 0x005c2d66      1d46002c       move.b d6, 0x2c(a6)
      < 0x005c2d6a      6006           bra.b 0x5c2d72
      > 0x005c2d6c      4eb90051fa24   jsr BRUSHCOM.br_abort
      > 0x005c2d72      4852           pea.l (a2)
           0x005c2d74      4eb90060500e   jsr F9_FILERDWRT.f_free_block
           0x005c2d7a      584f           addq.w 0x4, a7
           0x005c2d7c      4cdf1fff       movem.l (a7)+, d0-d7/a0-a4
           0x005c2d80      4e5e           unlk a6
           0x005c2d82      4e75           rts
            ; CALL XREF from K1_AFS_ONLY.k1_load @ 0x5ac198
 786: AFS_FILER.afs_load (int32_t arg_1h, int32_t arg_2h, int32_t arg_3h);
           ; var int32_t var_401ch @ a6-0x401c
           ; var int32_t var_4017h @ a6-0x4017
           ; var int32_t var_4010h @ a6-0x4010
           ; var int32_t var_400bh @ a6-0x400b
           ; var int32_t var_3f4ah @ a6-0x3f4a
           ; arg int32_t arg_1h @ a6+0x1
           ; arg int32_t arg_2h @ a6+0x2
           ; arg int32_t arg_3h @ a6+0x3
           ; var int32_t var_8h @ a7+0x8
           0x005c2d84      4e56fe52       link.w a6, 0xfe52
           0x005c2d88      bfd5           cmpa.l (a5), a7
       < 0x005c2d8a      6206           bhi.b 0x5c2d92
          0x005c2d8c      44fc0002       move.w 0x2, ccr
          0x005c2d90      4e76           trapv
       > 0x005c2d92      defc0144       adda.w 0x144, a7
           0x005c2d96      48e7fff8       movem.l d0-d7/a0-a4, -(a7)
           0x005c2d9a      47f9004047ea   lea.l p_wts_o, a3
           0x005c2da0      49f900404946   lea.l p_wtln_o, a4
           0x005c2da6      740c           moveq 0xc, d2
           0x005c2da8      263cffff0001   move.l 0xffff0001, d3
           0x005c2dae      780a           moveq 0xa, d4
           0x005c2db0      7a10           moveq 0x10, d5
           0x005c2db2      3d7ac0b60026   move.w 0x5bee6a(pc), 0x26(a6)
           0x005c2db8      2d43ff9a       move.l d3, -0x66(a6)
           0x005c2dbc      554f           subq.w 0x2, a7
           0x005c2dbe      486effa8       pea.l -0x58(a6)
           0x005c2dc2      4eb900404434   jsr fcn.00404434
           0x005c2dc8      584f           addq.w 0x4, a7
           0x005c2dca      4a1f           tst.b (a7)+
       < 0x005c2dcc      67000446       beq.w 0x5c3214
          0x005c2dd0      4a2e0018       tst.b 0x18(a6)
      < 0x005c2dd4      673a           beq.b 0x5c2e10
         0x005c2dd6      102e0018       move.b 0x18(a6), d0
         0x005c2dda      b003           cmp.b d3, d0
     < 0x005c2ddc      6732           beq.b 0x5c2e10
        0x005c2dde      487ac0a4       pea.l 0x5bee84(pc)
        0x005c2de2      4878001e       pea.l 0x1e
        0x005c2de6      2f17           move.l (a7), -(a7)
        0x005c2de8      4e93           jsr (a3)                    ; fcn.0000000c
        0x005c2dea      dec2           adda.w d2, a7
        0x005c2dec      102e0018       move.b 0x18(a6), d0
        0x005c2df0      4880           ext.w d0
        0x005c2df2      48c0           ext.l d0
        0x005c2df4      2f00           move.l d0, -(a7)
        0x005c2df6      48780000       pea.l 0x0
        0x005c2dfa      4eb9004070e4   jsr p_wti_o
        0x005c2e00      504f           addq.w 0x8, a7
        0x005c2e02      4e94           jsr (a4)                    ; fcn.0000000d
        0x005c2e04      486effa8       pea.l -0x58(a6)
        0x005c2e08      4eb900404468   jsr fcn.00404468
        0x005c2e0e      584f           addq.w 0x4, a7
     > 0x005c2e10      206e0022       movea.l 0x22(a6), a0
          0x005c2e14      9ec2           suba.w d2, a7
          0x005c2e16      224f           movea.l a7, a1
          0x005c2e18      2448           movea.l a0, a2
          0x005c2e1a      7009           moveq 0x9, d0
      > 0x005c2e1c      12da           move.b (a2)+, (a1)+
      < 0x005c2e1e      51c8fffc       dbra d0, 0x5c2e1c
          0x005c2e22      4227           clr.b -(a7)
          0x005c2e24      486eff9a       pea.l -0x66(a6)
          0x005c2e28      4eb9006082de   jsr F10_FILELIST.f_get_header
          0x005c2e2e      dec5           adda.w d5, a7
          0x005c2e30      4a1f           tst.b (a7)+
      < 0x005c2e32      6638           bne.b 0x5c2e6c
         0x005c2e34      9efc001a       suba.w 0x1a, a7
         0x005c2e38      224f           movea.l a7, a1
         0x005c2e3a      45fac067       lea.l 0x5beea3(pc), a2
         0x005c2e3e      7018           moveq 0x18, d0
     > 0x005c2e40      12da           move.b (a2)+, (a1)+
     < 0x005c2e42      51c8fffc       dbra d0, 0x5c2e40
         0x005c2e46      4857           pea.l (a7)
         0x005c2e48      48780001       pea.l 0x1
         0x005c2e4c      48780019       pea.l 0x19
         0x005c2e50      1f03           move.b d3, -(a7)
         0x005c2e52      1f03           move.b d3, -(a7)
         0x005c2e54      43eefff2       lea.l -0xe(a6), a1
         0x005c2e58      7011           moveq 0x11, d0
     > 0x005c2e5a      2f21           move.l -(a1), -(a7)
     < 0x005c2e5c      51c8fffc       dbra d0, 0x5c2e5a
         0x005c2e60      3f21           move.w -(a1), -(a7)
         0x005c2e62      4eb9005c6e76   jsr AFS1_UTIL.afs1_abort
         0x005c2e68      defc0074       adda.w 0x74, a7
      > 0x005c2e6c      554f           subq.w 0x2, a7
          0x005c2e6e      3f05           move.w d5, -(a7)
          0x005c2e70      2f2eff9a       move.l -0x66(a6), -(a7)
          0x005c2e74      43eeff9e       lea.l -0x62(a6), a1
          0x005c2e78      2f09           move.l a1, -(a7)
          0x005c2e7a      3f04           move.w d4, -(a7)
          0x005c2e7c      4eb9005eed1e   jsr f_get_field
          0x005c2e82      dec2           adda.w d2, a7
          0x005c2e84      4a1f           tst.b (a7)+
      < 0x005c2e86      661c           bne.b 0x5c2ea4
         0x005c2e88      487ac033       pea.l 0x5beebd(pc)
         0x005c2e8c      48780037       pea.l 0x37
         0x005c2e90      2f17           move.l (a7), -(a7)
         0x005c2e92      4e93           jsr (a3)                    ; fcn.0000000c
         0x005c2e94      dec2           adda.w d2, a7
         0x005c2e96      4e94           jsr (a4)                    ; fcn.0000000d
         0x005c2e98      486effa8       pea.l -0x58(a6)
         0x005c2e9c      4eb900404468   jsr fcn.00404468
         0x005c2ea2      584f           addq.w 0x4, a7
      > 0x005c2ea4      4280           clr.l d0
          0x005c2ea6      302eff9e       move.w -0x62(a6), d0
          0x005c2eaa      2f00           move.l d0, -(a7)
          0x005c2eac      486efff9       pea.l -0x7(a6)
          0x005c2eb0      486efffa       pea.l -0x6(a6)
          0x005c2eb4      486efffc       pea.l -0x4(a6)
          0x005c2eb8      4eb9005e9616   jsr FILE_STRUCTURE.fs_crack_format
          0x005c2ebe      dec5           adda.w d5, a7
          0x005c2ec0      4a2e0012       tst.b 0x12(a6)
      < 0x005c2ec4      6728           beq.b 0x5c2eee
         0x005c2ec6      7e03           moveq 0x3, d7
         0x005c2ec8      4280           clr.l d0
         0x005c2eca      302e0014       move.w 0x14(a6), d0
         0x005c2ece      2c00           move.l d0, d6
         0x005c2ed0      226e000e       movea.l 0xe(a6), a1
         0x005c2ed4      1d51ff96       move.b (a1), -0x6a(a6)
         0x005c2ed8      1d690001ff97   move.b 0x1(a1), -0x69(a6)
         0x005c2ede      1d690002ff98   move.b 0x2(a1), -0x68(a6)
         0x005c2ee4      1d690003ff99   move.b 0x3(a1), -0x67(a6)
     < 0x005c2eea      60000190       bra.w 0x5c307c
     > 0x005c2eee      4a2e0018       tst.b 0x18(a6)
     < 0x005c2ef2      6604           bne.b 0x5c2ef8
        0x005c2ef4      7e01           moveq 0x1, d7
    < 0x005c2ef6      6002           bra.b 0x5c2efa
    > 0x005c2ef8      7e02           moveq 0x2, d7
    > 0x005c2efa      9ec2           suba.w d2, a7
         0x005c2efc      224f           movea.l a7, a1
         0x005c2efe      2448           movea.l a0, a2
         0x005c2f00      7009           moveq 0x9, d0
     > 0x005c2f02      12da           move.b (a2)+, (a1)+
     < 0x005c2f04      51c8fffc       dbra d0, 0x5c2f02
         0x005c2f08      486efff2       pea.l -0xe(a6)
         0x005c2f0c      4eb900607b40   jsr F10_FILELIST.f_file_type
         0x005c2f12      defc000e       adda.w 0xe, a7
         0x005c2f16      4a1f           tst.b (a7)+
     < 0x005c2f18      661c           bne.b 0x5c2f36
        0x005c2f1a      487ac004       pea.l 0x5bef20(pc)
        0x005c2f1e      48780025       pea.l 0x25
        0x005c2f22      2f17           move.l (a7), -(a7)
        0x005c2f24      4e93           jsr (a3)                    ; fcn.0000000c
        0x005c2f26      dec2           adda.w d2, a7
        0x005c2f28      4e94           jsr (a4)                    ; fcn.0000000d
        0x005c2f2a      486effa8       pea.l -0x58(a6)
        0x005c2f2e      4eb900404468   jsr fcn.00404468
        0x005c2f34      584f           addq.w 0x4, a7
     > 0x005c2f36      302efff2       move.w -0xe(a6), d0
         0x005c2f3a      0c40012d       cmpi.w 0x12d, d0
     < 0x005c2f3e      670c           beq.b 0x5c2f4c
        0x005c2f40      0c400194       cmpi.w 0x194, d0
    < 0x005c2f44      6706           beq.b 0x5c2f4c
       0x005c2f46      0c400196       cmpi.w 0x196, d0
   < 0x005c2f4a      663e           bne.b 0x5c2f8a
   > 0x005c2f4c      102efff9       move.b -0x7(a6), d0
        0x005c2f50      4880           ext.w d0
        0x005c2f52      013abff2       btst.l d0, 0x5bef46(pc)
    < 0x005c2f56      667a           bne.b 0x5c2fd2
       0x005c2f58      487abfee       pea.l 0x5bef48(pc)
       0x005c2f5c      4878002a       pea.l 0x2a
       0x005c2f60      2f17           move.l (a7), -(a7)
       0x005c2f62      4e93           jsr (a3)                    ; fcn.0000000c
       0x005c2f64      dec2           adda.w d2, a7
       0x005c2f66      4280           clr.l d0
       0x005c2f68      302eff9e       move.w -0x62(a6), d0
       0x005c2f6c      2f00           move.l d0, -(a7)
       0x005c2f6e      48780000       pea.l 0x0
       0x005c2f72      4eb9004070e4   jsr p_wti_o
       0x005c2f78      504f           addq.w 0x8, a7
       0x005c2f7a      4e94           jsr (a4)                    ; fcn.0000000d
       0x005c2f7c      1d7abff50026   move.b 0x5bef73(pc), 0x26(a6)
       0x005c2f82      1d7abff00027   move.b 0x5bef74(pc), 0x27(a6)
   < 0x005c2f88      603c           bra.b 0x5c2fc6
   > 0x005c2f8a      102efff9       move.b -0x7(a6), d0
       0x005c2f8e      4880           ext.w d0
       0x005c2f90      013abfe4       btst.l d0, 0x5bef76(pc)
   < 0x005c2f94      663c           bne.b 0x5c2fd2
      0x005c2f96      487abfe0       pea.l 0x5bef78(pc)
      0x005c2f9a      4878002c       pea.l 0x2c
      0x005c2f9e      2f17           move.l (a7), -(a7)
      0x005c2fa0      4e93           jsr (a3)                    ; fcn.0000000c
      0x005c2fa2      dec2           adda.w d2, a7
      0x005c2fa4      4280           clr.l d0
      0x005c2fa6      302eff9e       move.w -0x62(a6), d0
      0x005c2faa      2f00           move.l d0, -(a7)
      0x005c2fac      48780000       pea.l 0x0
      0x005c2fb0      4eb9004070e4   jsr p_wti_o
      0x005c2fb6      504f           addq.w 0x8, a7
      0x005c2fb8      4e94           jsr (a4)                    ; fcn.0000000d
      0x005c2fba      1d7abfe90026   move.b 0x5befa5(pc), 0x26(a6)
      0x005c2fc0      1d7abfe40027   move.b 0x5befa6(pc), 0x27(a6)
   > 0x005c2fc6      486effa8       pea.l -0x58(a6)
       0x005c2fca      4eb900404468   jsr fcn.00404468
       0x005c2fd0      584f           addq.w 0x4, a7
   > 0x005c2fd2      4a2e0018       tst.b 0x18(a6)
     < 0x005c2fd6      6642           bne.b 0x5c301a
        0x005c2fd8      4280           clr.l d0
        0x005c2fda      302effa0       move.w -0x60(a6), d0
        0x005c2fde      0480ffff8000   subi.l 0xffff8000, d0
        0x005c2fe4      0c800000ffff   cmpi.l 0xffff, d0
    < 0x005c2fea      6302           bls.b 0x5c2fee
       0x005c2fec      4e4f           trap 0xf
    > 0x005c2fee      0680ffff8000   addi.l 0xffff8000, d0
        0x005c2ff4      3d40ff96       move.w d0, -0x6a(a6)
        0x005c2ff8      4280           clr.l d0
        0x005c2ffa      302effa2       move.w -0x5e(a6), d0
        0x005c2ffe      0480ffff8000   subi.l 0xffff8000, d0
        0x005c3004      0c800000ffff   cmpi.l 0xffff, d0
    < 0x005c300a      6302           bls.b 0x5c300e
       0x005c300c      4e4f           trap 0xf
    > 0x005c300e      0680ffff8000   addi.l 0xffff8000, d0
        0x005c3014      3d40ff98       move.w d0, -0x68(a6)
    < 0x005c3018      603c           bra.b 0x5c3056
    > 0x005c301a      554f           subq.w 0x2, a7
        0x005c301c      3f3c0018       move.w 0x18, -(a7)
        0x005c3020      2f2eff9a       move.l -0x66(a6), -(a7)
        0x005c3024      43eeff96       lea.l -0x6a(a6), a1
        0x005c3028      2f09           move.l a1, -(a7)
        0x005c302a      3f3c0004       move.w 0x4, -(a7)
        0x005c302e      4eb9005eed1e   jsr f_get_field
        0x005c3034      dec2           adda.w d2, a7
        0x005c3036      4a1f           tst.b (a7)+
    < 0x005c3038      661c           bne.b 0x5c3056
       0x005c303a      487abf85       pea.l 0x5befc1(pc)
       0x005c303e      48780034       pea.l 0x34
       0x005c3042      2f17           move.l (a7), -(a7)
       0x005c3044      4e93           jsr (a3)                    ; fcn.0000000c
       0x005c3046      dec2           adda.w d2, a7
       0x005c3048      4e94           jsr (a4)                    ; fcn.0000000d
       0x005c304a      486effa8       pea.l -0x58(a6)
       0x005c304e      4eb900404468   jsr fcn.00404468
       0x005c3054      584f           addq.w 0x4, a7
    > 0x005c3056      486eff9a       pea.l -0x66(a6)
         0x005c305a      4eb90060500e   jsr F9_FILERDWRT.f_free_block
         0x005c3060      584f           addq.w 0x4, a7
         0x005c3062      226e000e       movea.l 0xe(a6), a1
         0x005c3066      12aeff96       move.b -0x6a(a6), (a1)
         0x005c306a      136eff970001   move.b -0x69(a6), 0x1(a1)
         0x005c3070      136eff980002   move.b -0x68(a6), 0x2(a1)
         0x005c3076      136eff990003   move.b -0x67(a6), 0x3(a1)
     > 0x005c307c      102e000a       move.b 0xa(a6), d0
          0x005c3080      4880           ext.w d0
          0x005c3082      3200           move.w d0, d1
          0x005c3084      0c410004       cmpi.w 0x4, d1
      < 0x005c3088      6302           bls.b 0x5c308c
         0x005c308a      4e4e           trap 0xe
      > 0x005c308c      d241           add.w d1, d1
          0x005c308e      323b1006       move.w 0x5c3096(pc, d1.w), d1
          0x005c3092      4efb1002       jmp 0x5c3096(pc, d1.w)
           0x005c3096      000a000a       
           0x005c3097      0a000a00       eori.b 0x0, d0
           0x005c309b      0a000a00       eori.b 0x0, d0
           0x005c309f      8855           or.w (a5), d4
           0x005c30a1      4f1f           chk.l (a7)+, d7
           0x005c30a3      002f2e001e2f   ori.b 0x0, 0x1e2f(a7)
           0x005c30a9      2e00           move.l d0, d7
           0x005c30ab      1a2f2eff       move.b 0x2eff(a7), d5
           0x005c30af      961f           sub.b (a7)+, d3
           0x005c30b1      2e00           move.l d0, d7
           0x005c30b3      0c9ec4224f24   cmpi.l 0xc4224f24, (a6)+
           0x005c30b9      48720912da51   pea.l ([a2, d0.l], 0xda51)
           0x005c30bf      c9fffc48       
           0x005c30c0      fffc           invalid
           0x005c30c2      4887           ext.w d7
           0x005c30c4      4fbc0003       chk.w 0x3, d7
           0x005c30c8      1f07           move.b d7, -(a7)
           0x005c30ca      2f06           move.l d6, -(a7)
           0x005c30cc      2f2efffc       move.l -0x4(a6), -(a7)
           0x005c30d0      4ebafa5e       jsr AFS_FILER.load_a_plane(pc)
           0x005c30d4      defc0024       adda.w 0x24, a7
           0x005c30d8      4a1f           tst.b (a7)+
       < 0x005c30da      663e           bne.b 0x5c311a
          0x005c30dc      9ec4           suba.w d4, a7
          0x005c30de      2f3abf16       move.l 0x5beff6(pc), -(a7)
          0x005c30e2      2f7abf160004   move.l 0x5beffa(pc), 0x4(a7)
          0x005c30e8      2f7abf140008   move.l 0x5beffe(pc), 0x8(a7)
          0x005c30ee      1f7abf12000c   move.b 0x5bf002(pc), 0xc(a7)
          0x005c30f4      4857           pea.l (a7)
          0x005c30f6      48780001       pea.l 0x1
          0x005c30fa      4878000d       pea.l 0xd
          0x005c30fe      4227           clr.b -(a7)
          0x005c3100      1f03           move.b d3, -(a7)
          0x005c3102      43eefff2       lea.l -0xe(a6), a1
          0x005c3106      7211           moveq 0x11, d1
      > 0x005c3108      2f21           move.l -(a1), -(a7)
      < 0x005c310a      51c9fffc       dbra d1, 0x5c3108
          0x005c310e      3f21           move.w -(a1), -(a7)
          0x005c3110      4eb9005c6e76   jsr AFS1_UTIL.afs1_abort
          0x005c3116      defc0068       adda.w 0x68, a7
      > 0x005c311a      600000f0       bra.w 0x5c320c
          0x005c311e      4887           ext.w d7
          0x005c3120      4fbc0003       chk.w 0x3, d7
          0x005c3124      554f           subq.w 0x2, a7
          0x005c3126      4227           clr.b -(a7)
          0x005c3128      2f2e001e       move.l 0x1e(a6), -(a7)
          0x005c312c      2f2e001a       move.l 0x1a(a6), -(a7)
          0x005c3130      2f2eff96       move.l -0x6a(a6), -(a7)
          0x005c3134      1f2e000c       move.b 0xc(a6), -(a7)
          0x005c3138      9ec4           suba.w d4, a7
          0x005c313a      224f           movea.l a7, a1
          0x005c313c      2448           movea.l a0, a2
          0x005c313e      7009           moveq 0x9, d0
      > 0x005c3140      12da           move.b (a2)+, (a1)+
      < 0x005c3142      51c8fffc       dbra d0, 0x5c3140
          0x005c3146      1f07           move.b d7, -(a7)
          0x005c3148      2f06           move.l d6, -(a7)
          0x005c314a      2f2efffc       move.l -0x4(a6), -(a7)
          0x005c314e      4ebaf9e0       jsr AFS_FILER.load_a_plane(pc)
          0x005c3152      defc0024       adda.w 0x24, a7
          0x005c3156      4a1f           tst.b (a7)+
      < 0x005c3158      663e           bne.b 0x5c3198
         0x005c315a      9ec4           suba.w d4, a7
         0x005c315c      2f3abea6       move.l 0x5bf004(pc), -(a7)
         0x005c3160      2f7abea60004   move.l 0x5bf008(pc), 0x4(a7)
         0x005c3166      2f7abea40008   move.l 0x5bf00c(pc), 0x8(a7)
         0x005c316c      1f7abea2000c   move.b 0x5bf010(pc), 0xc(a7)
         0x005c3172      4857           pea.l (a7)
         0x005c3174      48780001       pea.l 0x1
         0x005c3178      4878000d       pea.l 0xd
         0x005c317c      4227           clr.b -(a7)
         0x005c317e      1f03           move.b d3, -(a7)
         0x005c3180      43eefff2       lea.l -0xe(a6), a1
         0x005c3184      7011           moveq 0x11, d0
     > 0x005c3186      2f21           move.l -(a1), -(a7)
     < 0x005c3188      51c8fffc       dbra d0, 0x5c3186
         0x005c318c      3f21           move.w -(a1), -(a7)
         0x005c318e      4eb9005c6e76   jsr AFS1_UTIL.afs1_abort
         0x005c3194      defc0068       adda.w 0x68, a7
      > 0x005c3198      554f           subq.w 0x2, a7
          0x005c319a      1f03           move.b d3, -(a7)
          0x005c319c      2f2e001e       move.l 0x1e(a6), -(a7)
          0x005c31a0      2f2e001a       move.l 0x1a(a6), -(a7)
          0x005c31a4      2f2eff96       move.l -0x6a(a6), -(a7)
          0x005c31a8      1f2e000c       move.b 0xc(a6), -(a7)
          0x005c31ac      9ec4           suba.w d4, a7
          0x005c31ae      224f           movea.l a7, a1
          0x005c31b0      2448           movea.l a0, a2
          0x005c31b2      7009           moveq 0x9, d0
      > 0x005c31b4      12da           move.b (a2)+, (a1)+
      < 0x005c31b6      51c8fffc       dbra d0, 0x5c31b4
          0x005c31ba      1f07           move.b d7, -(a7)
          0x005c31bc      2f06           move.l d6, -(a7)
          0x005c31be      2f2efffc       move.l -0x4(a6), -(a7)
          0x005c31c2      4ebaf96c       jsr AFS_FILER.load_a_plane(pc)
          0x005c31c6      defc0024       adda.w 0x24, a7
          0x005c31ca      4a1f           tst.b (a7)+
      < 0x005c31cc      663e           bne.b 0x5c320c
         0x005c31ce      9ec4           suba.w d4, a7
         0x005c31d0      2f3abe40       move.l 0x5bf012(pc), -(a7)
         0x005c31d4      2f7abe400004   move.l 0x5bf016(pc), 0x4(a7)
         0x005c31da      2f7abe3e0008   move.l 0x5bf01a(pc), 0x8(a7)
         0x005c31e0      1f7abe3c000c   move.b 0x5bf01e(pc), 0xc(a7)
         0x005c31e6      4857           pea.l (a7)
         0x005c31e8      48780001       pea.l 0x1
         0x005c31ec      4878000d       pea.l 0xd
         0x005c31f0      4227           clr.b -(a7)
         0x005c31f2      1f03           move.b d3, -(a7)
         0x005c31f4      43eefff2       lea.l -0xe(a6), a1
         0x005c31f8      7011           moveq 0x11, d0
     > 0x005c31fa      2f21           move.l -(a1), -(a7)
     < 0x005c31fc      51c8fffc       dbra d0, 0x5c31fa
         0x005c3200      3f21           move.w -(a1), -(a7)
         0x005c3202      4eb9005c6e76   jsr AFS1_UTIL.afs1_abort
         0x005c3208      defc0068       adda.w 0x68, a7
      > 0x005c320c      3d7abe120026   move.w 0x5bf020(pc), 0x26(a6)
       < 0x005c3212      6044           bra.b 0x5c3258
       > 0x005c3214      9efc0100       suba.w 0x100, a7
           0x005c3218      206e0022       movea.l 0x22(a6), a0
           0x005c321c      4850           pea.l (a0)
           0x005c321e      4eb9005ef416   jsr F2_UTILITY.f_fid_string
           0x005c3224      584f           addq.w 0x4, a7
           0x005c3226      487abdfb       pea.l 0x5bf023(pc)
           0x005c322a      4878000c       pea.l 0xc
           0x005c322e      2f17           move.l (a7), -(a7)
           0x005c3230      4e93           jsr (a3)                    ; fcn.0000000c
           0x005c3232      dec2           adda.w d2, a7
           0x005c3234      486f0001       pea.l 0x1(a7)
           0x005c3238      42a7           clr.l -(a7)
           0x005c323a      1f6f00080003   move.b 0x8(a7), 0x3(a7)
           0x005c3240      2f17           move.l (a7), -(a7)
           0x005c3242      4e93           jsr (a3)                    ; fcn.0000000c
           0x005c3244      defc010c       adda.w 0x10c, a7
           0x005c3248      487abde6       pea.l 0x5bf030(pc)
           0x005c324c      48780007       pea.l 0x7
           0x005c3250      2f17           move.l (a7), -(a7)
           0x005c3252      4e93           jsr (a3)                    ; fcn.0000000c
           0x005c3254      dec2           adda.w d2, a7
           0x005c3256      4e94           jsr (a4)                    ; fcn.0000000d
       > 0x005c3258      486eff9a       pea.l -0x66(a6)
            0x005c325c      4eb90060500e   jsr F9_FILERDWRT.f_free_block
            0x005c3262      584f           addq.w 0x4, a7
            0x005c3264      4cdf1fff       movem.l (a7)+, d0-d7/a0-a4
            0x005c3268      4e5e           unlk a6
            0x005c326a      4e75           rts
            ; CALL XREF from K1_AFS_ONLY.k1_delete_file @ 0x5ac21a
 380: AFS_FILER.afs_delete_file ();
           ; var int32_t var_4302h @ a6-0x4302
           ; var int32_t var_424ah @ a6-0x424a
           ; var int32_t var_4245h @ a6-0x4245
           0x005c326c      4e56fe14       link.w a6, 0xfe14
           0x005c3270      bfd5           cmpa.l (a5), a7
       < 0x005c3272      6206           bhi.b 0x5c327a
          0x005c3274      44fc0002       move.w 0x2, ccr
          0x005c3278      4e76           trapv
       > 0x005c327a      defc0094       adda.w 0x94, a7
           0x005c327e      48e7f8f0       movem.l d0-d4/a0-a3, -(a7)
           0x005c3282      47eefef2       lea.l -0x10e(a6), a3
           0x005c3286      243cffff0001   move.l 0xffff0001, d2
           0x005c328c      760c           moveq 0xc, d3
           0x005c328e      780a           moveq 0xa, d4
           0x005c3290      2682           move.l d2, (a3)
           0x005c3292      1d7abdbb000c   move.b 0x5bf04f(pc), 0xc(a6)
           0x005c3298      1d7abdb6000d   move.b 0x5bf050(pc), 0xd(a6)
           0x005c329e      554f           subq.w 0x2, a7
           0x005c32a0      486efea8       pea.l -0x158(a6)
           0x005c32a4      4eb900404434   jsr fcn.00404434
           0x005c32aa      584f           addq.w 0x4, a7
           0x005c32ac      4a1f           tst.b (a7)+
       < 0x005c32ae      670000d4       beq.w 0x5c3384
          0x005c32b2      206e0008       movea.l 0x8(a6), a0
          0x005c32b6      9ec3           suba.w d3, a7
          0x005c32b8      224f           movea.l a7, a1
          0x005c32ba      2448           movea.l a0, a2
          0x005c32bc      7009           moveq 0x9, d0
      > 0x005c32be      12da           move.b (a2)+, (a1)+
      < 0x005c32c0      51c8fffc       dbra d0, 0x5c32be
          0x005c32c4      1f02           move.b d2, -(a7)
          0x005c32c6      4853           pea.l (a3)
          0x005c32c8      4eb9006082de   jsr F10_FILELIST.f_get_header
          0x005c32ce      defc0010       adda.w 0x10, a7
          0x005c32d2      4a1f           tst.b (a7)+
      < 0x005c32d4      6634           bne.b 0x5c330a
         0x005c32d6      2f3abd84       move.l 0x5bf05c(pc), -(a7)
         0x005c32da      2f3abd7c       move.l 0x5bf058(pc), -(a7)
         0x005c32de      2f3abd74       move.l 0x5bf054(pc), -(a7)
         0x005c32e2      3f3abd6e       move.w 0x5bf052(pc), -(a7)
         0x005c32e6      4857           pea.l (a7)
         0x005c32e8      48780001       pea.l 0x1
         0x005c32ec      4878000e       pea.l 0xe
         0x005c32f0      1f02           move.b d2, -(a7)
         0x005c32f2      1f02           move.b d2, -(a7)
         0x005c32f4      224b           movea.l a3, a1
         0x005c32f6      7011           moveq 0x11, d0
     > 0x005c32f8      2f21           move.l -(a1), -(a7)
     < 0x005c32fa      51c8fffc       dbra d0, 0x5c32f8
         0x005c32fe      3f21           move.w -(a1), -(a7)
         0x005c3300      4eb9005c6e76   jsr AFS1_UTIL.afs1_abort
         0x005c3306      defc0068       adda.w 0x68, a7
      > 0x005c330a      554f           subq.w 0x2, a7
          0x005c330c      2f13           move.l (a3), -(a7)
          0x005c330e      486efffe       pea.l -0x2(a6)
          0x005c3312      4ebaca66       jsr AFS_FILER.get_ftype(pc)
          0x005c3316      504f           addq.w 0x8, a7
          0x005c3318      4a1f           tst.b (a7)+
      < 0x005c331a      6624           bne.b 0x5c3340
         0x005c331c      487abd43       pea.l 0x5bf061(pc)
         0x005c3320      48780031       pea.l 0x31
         0x005c3324      2f17           move.l (a7), -(a7)
         0x005c3326      4eb9004047ea   jsr p_wts_o
         0x005c332c      dec3           adda.w d3, a7
         0x005c332e      4eb900404946   jsr p_wtln_o
         0x005c3334      486efea8       pea.l -0x158(a6)
         0x005c3338      4eb900404468   jsr fcn.00404468
         0x005c333e      584f           addq.w 0x4, a7
      > 0x005c3340      102efffe       move.b -0x2(a6), d0
          0x005c3344      4880           ext.w d0
          0x005c3346      43fabd4a       lea.l 0x5bf092(pc), a1
          0x005c334a      3200           move.w d0, d1
          0x005c334c      e649           lsr.w 0x3, d1
          0x005c334e      01311000       btst.l d0, (a1, d1.w)
      < 0x005c3352      6730           beq.b 0x5c3384
         0x005c3354      594f           subq.w 0x4, a7
         0x005c3356      2f10           move.l (a0), -(a7)
         0x005c3358      4eb9006bd82c   jsr USER2_DISK.volume_region
         0x005c335e      584f           addq.w 0x4, a7
         0x005c3360      2d57fffa       move.l (a7), -0x6(a6)
         0x005c3364      5d4f           subq.w 0x6, a7
         0x005c3366      224f           movea.l a7, a1
         0x005c3368      2448           movea.l a0, a2
         0x005c336a      7009           moveq 0x9, d0
     > 0x005c336c      12da           move.b (a2)+, (a1)+
     < 0x005c336e      51c8fffc       dbra d0, 0x5c336c
         0x005c3372      2f2efffa       move.l -0x6(a6), -(a7)
         0x005c3376      486efff7       pea.l -0x9(a6)
         0x005c337a      4eb9006b11f4   jsr USER.unnumber_pic
         0x005c3380      defc0012       adda.w 0x12, a7
      > 0x005c3384      4853           pea.l (a3)
           0x005c3386      4eb90060500e   jsr F9_FILERDWRT.f_free_block
           0x005c338c      544f           addq.w 0x2, a7
           0x005c338e      206e0008       movea.l 0x8(a6), a0
           0x005c3392      9ec4           suba.w d4, a7
           0x005c3394      224f           movea.l a7, a1
           0x005c3396      7009           moveq 0x9, d0
       > 0x005c3398      12d8           move.b (a0)+, (a1)+
       < 0x005c339a      51c8fffc       dbra d0, 0x5c3398
           0x005c339e      4eb900613864   jsr F18_DIRECTORY.f_file_delete
           0x005c33a4      dec4           adda.w d4, a7
           0x005c33a6      4a1f           tst.b (a7)+
       < 0x005c33a8      6708           beq.b 0x5c33b2
          0x005c33aa      3d7abcfe000c   move.w 0x5bf0aa(pc), 0xc(a6)
      < 0x005c33b0      602e           bra.b 0x5c33e0
      > 0x005c33b2      9efc000e       suba.w 0xe, a7
          0x005c33b6      204f           movea.l a7, a0
          0x005c33b8      43fabcf3       lea.l 0x5bf0ad(pc), a1
          0x005c33bc      700c           moveq 0xc, d0
      > 0x005c33be      10d9           move.b (a1)+, (a0)+
      < 0x005c33c0      51c8fffc       dbra d0, 0x5c33be
          0x005c33c4      48780000       pea.l 0x0
          0x005c33c8      486f0004       pea.l 0x4(a7)
          0x005c33cc      48780001       pea.l 0x1
          0x005c33d0      4878000d       pea.l 0xd
          0x005c33d4      1f02           move.b d2, -(a7)
          0x005c33d6      4eb9005c6f48   jsr AFS1_UTIL.afs1_error
          0x005c33dc      defc0020       adda.w 0x20, a7
      > 0x005c33e0      4cdf0f1f       movem.l (a7)+, d0-d4/a0-a3
           0x005c33e4      4e5e           unlk a6
           0x005c33e6      4e75           rts
            ; CALL XREF from K1_AFS_ONLY.k1_lose_ref @ 0x5ac29e
 54: AFS_FILER.afs_lose_ref ();
           ; var int32_t var_4342h @ a6-0x4342
           ; var int32_t var_433dh @ a6-0x433d
           0x005c33e8      4e56fff8       link.w a6, 0xfff8
           0x005c33ec      bfd5           cmpa.l (a5), a7
       < 0x005c33ee      6206           bhi.b 0x5c33f6
          0x005c33f0      44fc0002       move.w 0x2, ccr
          0x005c33f4      4e76           trapv
       > 0x005c33f6      defc0008       adda.w 0x8, a7
           0x005c33fa      48e70080       movem.l a0, -(a7)
           0x005c33fe      206e0008       movea.l 0x8(a6), a0
           0x005c3402      217cffffffff.  move.l 0xffffffff, 0x4(a0)
           0x005c340a      1d7abcc3000c   move.b 0x5bf0cf(pc), 0xc(a6)
           0x005c3410      1d7abcbe000d   move.b 0x5bf0d0(pc), 0xd(a6)
           0x005c3416      4cdf0100       movem.l (a7)+, a0
           0x005c341a      4e5e           unlk a6
           0x005c341c      4e75           rts
            ; CALL XREF from K1_AFS_ONLY.k1_init_disk @ 0x5ac32e
 1058: AFS_FILER.afs_init_disk (int32_t arg_13h);
           ; var int32_t var_4638h @ a6-0x4638
           ; arg int32_t arg_13h @ a6+0x13
           ; var int32_t var_8h @ a7+0x8
           0x005c341e      4e56fd4c       link.w a6, 0xfd4c
           0x005c3422      bfd5           cmpa.l (a5), a7
       < 0x005c3424      6206           bhi.b 0x5c342c
          0x005c3426      44fc0002       move.w 0x2, ccr
          0x005c342a      4e76           trapv
       > 0x005c342c      defc0148       adda.w 0x148, a7
           0x005c3430      48e7fff8       movem.l d0-d7/a0-a4, -(a7)
           0x005c3434      47f9004047ea   lea.l p_wts_o, a3
           0x005c343a      49eefede       lea.l -0x122(a6), a4
           0x005c343e      243cffff0001   move.l 0xffff0001, d2
           0x005c3444      760c           moveq 0xc, d3
           0x005c3446      780a           moveq 0xa, d4
           0x005c3448      7a10           moveq 0x10, d5
           0x005c344a      7c64           moveq 0x64, d6
           0x005c344c      7e68           moveq 0x68, d7
           0x005c344e      38babc82       move.w 0x5bf0d2(pc), (a4)
           0x005c3452      206e0008       movea.l 0x8(a6), a0
           0x005c3456      4290           clr.l (a0)
           0x005c3458      554f           subq.w 0x2, a7
           0x005c345a      486efe94       pea.l -0x16c(a6)
           0x005c345e      4eb900404434   jsr fcn.00404434
           0x005c3464      584f           addq.w 0x4, a7
           0x005c3466      4a1f           tst.b (a7)+
       < 0x005c3468      670003ca       beq.w 0x5c3834
          0x005c346c      487abc67       pea.l 0x5bf0d5(pc)
          0x005c3470      48780020       pea.l 0x20
          0x005c3474      2f17           move.l (a7), -(a7)
          0x005c3476      4e93           jsr (a3)                    ; fcn.0000000c
          0x005c3478      504f           addq.w 0x8, a7
          0x005c347a      2eae0012       move.l 0x12(a6), (a7)
          0x005c347e      4878fff8       pea.l 0xfff8
          0x005c3482      4eb9004070e4   jsr p_wti_o
          0x005c3488      504f           addq.w 0x8, a7
          0x005c348a      4eb900404946   jsr p_wtln_o
          0x005c3490      102e0012       move.b 0x12(a6), d0
          0x005c3494      b002           cmp.b d2, d0
      < 0x005c3496      6606           bne.b 0x5c349e
         0x005c3498      1d42fef6       move.b d2, -0x10a(a6)
     < 0x005c349c      601c           bra.b 0x5c34ba
     > 0x005c349e      4280           clr.l d0
         0x005c34a0      102e0013       move.b 0x13(a6), d0
         0x005c34a4      2f00           move.l d0, -(a7)
         0x005c34a6      486efeee       pea.l -0x112(a6)
         0x005c34aa      486efef2       pea.l -0x10e(a6)
         0x005c34ae      486efef6       pea.l -0x10a(a6)
         0x005c34b2      4eb900627c7a   jsr PICTURENET.net_state
         0x005c34b8      dec5           adda.w d5, a7
     > 0x005c34ba      4a2efef6       tst.b -0x10a(a6)
      < 0x005c34be      670002ac       beq.w 0x5c376c
         0x005c34c2      487abc32       pea.l 0x5bf0f6(pc)
         0x005c34c6      48780025       pea.l 0x25
         0x005c34ca      2f17           move.l (a7), -(a7)
         0x005c34cc      4e93           jsr (a3)                    ; fcn.0000000c
         0x005c34ce      dec3           adda.w d3, a7
         0x005c34d0      4eb900404946   jsr p_wtln_o
         0x005c34d6      4a2e0010       tst.b 0x10(a6)
     < 0x005c34da      67000110       beq.w 0x5c35ec
        0x005c34de      554f           subq.w 0x2, a7
        0x005c34e0      2f2e0012       move.l 0x12(a6), -(a7)
        0x005c34e4      1f02           move.b d2, -(a7)
        0x005c34e6      4eb9004712be   jsr F0_MONICA.f0_run_up
        0x005c34ec      5c4f           addq.w 0x6, a7
        0x005c34ee      4a1f           tst.b (a7)+
    < 0x005c34f0      6636           bne.b 0x5c3528
       0x005c34f2      38babc28       move.w 0x5bf11c(pc), (a4)
       0x005c34f6      9ec4           suba.w d4, a7
       0x005c34f8      224f           movea.l a7, a1
       0x005c34fa      45fabc23       lea.l 0x5bf11f(pc), a2
       0x005c34fe      7009           moveq 0x9, d0
   > 0x005c3500      12da           move.b (a2)+, (a1)+
   < 0x005c3502      51c8fffc       dbra d0, 0x5c3500
       0x005c3506      4857           pea.l (a7)
       0x005c3508      48780001       pea.l 0x1
       0x005c350c      4878000a       pea.l 0xa
       0x005c3510      1f02           move.b d2, -(a7)
       0x005c3512      1f02           move.b d2, -(a7)
       0x005c3514      224c           movea.l a4, a1
       0x005c3516      7011           moveq 0x11, d0
   > 0x005c3518      2f21           move.l -(a1), -(a7)
   < 0x005c351a      51c8fffc       dbra d0, 0x5c3518
       0x005c351e      3f21           move.w -(a1), -(a7)
       0x005c3520      4eb9005c6e76   jsr AFS1_UTIL.afs1_abort
       0x005c3526      dec6           adda.w d6, a7
    > 0x005c3528      554f           subq.w 0x2, a7
        0x005c352a      2f2e0012       move.l 0x12(a6), -(a7)
        0x005c352e      48780000       pea.l 0x0
        0x005c3532      48780000       pea.l 0x0
        0x005c3536      4eb90047253a   jsr F0_MONICA.f0_format
        0x005c353c      dec3           adda.w d3, a7
        0x005c353e      4a1f           tst.b (a7)+
    < 0x005c3540      662e           bne.b 0x5c3570
       0x005c3542      2f3abbec       move.l 0x5bf130(pc), -(a7)
       0x005c3546      2f3abbe4       move.l 0x5bf12c(pc), -(a7)
       0x005c354a      3f3abbde       move.w 0x5bf12a(pc), -(a7)
       0x005c354e      4857           pea.l (a7)
       0x005c3550      48780001       pea.l 0x1
       0x005c3554      4878000a       pea.l 0xa
       0x005c3558      1f02           move.b d2, -(a7)
       0x005c355a      1f02           move.b d2, -(a7)
       0x005c355c      224c           movea.l a4, a1
       0x005c355e      7011           moveq 0x11, d0
   > 0x005c3560      2f21           move.l -(a1), -(a7)
   < 0x005c3562      51c8fffc       dbra d0, 0x5c3560
       0x005c3566      3f21           move.w -(a1), -(a7)
       0x005c3568      4eb9005c6e76   jsr AFS1_UTIL.afs1_abort
       0x005c356e      dec6           adda.w d6, a7
    > 0x005c3570      554f           subq.w 0x2, a7
        0x005c3572      486efffc       pea.l -0x4(a6)
        0x005c3576      4eb900628050   jsr PICTURENET.scsi_floppy_dri
        0x005c357c      584f           addq.w 0x4, a7
        0x005c357e      4a1f           tst.b (a7)+
    < 0x005c3580      676a           beq.b 0x5c35ec
       0x005c3582      202e0012       move.l 0x12(a6), d0
       0x005c3586      b0aefffc       cmp.l -0x4(a6), d0
   < 0x005c358a      6660           bne.b 0x5c35ec
      0x005c358c      554f           subq.w 0x2, a7
      0x005c358e      486efffc       pea.l -0x4(a6)
      0x005c3592      4eb900627f9a   jsr PICTURENET.add_floppy
      0x005c3598      584f           addq.w 0x4, a7
      0x005c359a      4a1f           tst.b (a7)+
  < 0x005c359c      6716           beq.b 0x5c35b4
     0x005c359e      487abb95       pea.l 0x5bf135(pc)
     0x005c35a2      48780012       pea.l 0x12
     0x005c35a6      2f17           move.l (a7), -(a7)
     0x005c35a8      4e93           jsr (a3)                    ; fcn.0000000c
     0x005c35aa      dec3           adda.w d3, a7
     0x005c35ac      4eb900404946   jsr p_wtln_o
 < 0x005c35b2      6038           bra.b 0x5c35ec
 > 0x005c35b4      9efc0100       suba.w 0x100, a7
     0x005c35b8      4eb900408ec0   jsr p_err_string
     0x005c35be      487abb88       pea.l 0x5bf148(pc)
     0x005c35c2      4878001b       pea.l 0x1b
     0x005c35c6      2f17           move.l (a7), -(a7)
     0x005c35c8      4e93           jsr (a3)                    ; fcn.0000000c
     0x005c35ca      dec3           adda.w d3, a7
     0x005c35cc      486f0001       pea.l 0x1(a7)
     0x005c35d0      42a7           clr.l -(a7)
     0x005c35d2      1f6f00080003   move.b 0x8(a7), 0x3(a7)
     0x005c35d8      2f17           move.l (a7), -(a7)
     0x005c35da      4e93           jsr (a3)                    ; fcn.0000000c
     0x005c35dc      defc010c       adda.w 0x10c, a7
     0x005c35e0      4eb900404946   jsr p_wtln_o
     0x005c35e6      4eb900404188   jsr p_Unlink
 > 0x005c35ec      594f           subq.w 0x4, a7
         0x005c35ee      2f2e0012       move.l 0x12(a6), -(a7)
         0x005c35f2      594f           subq.w 0x4, a7
         0x005c35f4      1f02           move.b d2, -(a7)
         0x005c35f6      4eb90059862a   jsr K0_DISKMGR.k_filer_num
         0x005c35fc      544f           addq.w 0x2, a7
         0x005c35fe      4eb9005f8458   jsr F6_DRIVE.f_init_drv
         0x005c3604      504f           addq.w 0x8, a7
         0x005c3606      201f           move.l (a7)+, d0
         0x005c3608      2080           move.l d0, (a0)
         0x005c360a      4a80           tst.l d0
     < 0x005c360c      663c           bne.b 0x5c364a
        0x005c360e      9efc0016       suba.w 0x16, a7
        0x005c3612      224f           movea.l a7, a1
        0x005c3614      45fabb4e       lea.l 0x5bf164(pc), a2
        0x005c3618      7204           moveq 0x4, d1
    > 0x005c361a      22da           move.l (a2)+, (a1)+
    < 0x005c361c      51c9fffc       dbra d1, 0x5c361a
        0x005c3620      12da           move.b (a2)+, (a1)+
        0x005c3622      2f2e0012       move.l 0x12(a6), -(a7)
        0x005c3626      486f0004       pea.l 0x4(a7)
        0x005c362a      48780001       pea.l 0x1
        0x005c362e      48780015       pea.l 0x15
        0x005c3632      1f02           move.b d2, -(a7)
        0x005c3634      4eb9005c6f48   jsr AFS1_UTIL.afs1_error
        0x005c363a      defc0028       adda.w 0x28, a7
        0x005c363e      486efe94       pea.l -0x16c(a6)
        0x005c3642      4eb900404468   jsr fcn.00404468
        0x005c3648      584f           addq.w 0x4, a7
     > 0x005c364a      487abb2e       pea.l 0x5bf17a(pc)
         0x005c364e      48780009       pea.l 0x9
         0x005c3652      2f17           move.l (a7), -(a7)
         0x005c3654      4e93           jsr (a3)                    ; fcn.0000000c
         0x005c3656      504f           addq.w 0x8, a7
         0x005c3658      2eae0012       move.l 0x12(a6), (a7)
         0x005c365c      4878ffff       pea.l 0xffff
         0x005c3660      4eb9004070e4   jsr p_wti_o
         0x005c3666      504f           addq.w 0x8, a7
         0x005c3668      487abb1a       pea.l 0x5bf184(pc)
         0x005c366c      4878001a       pea.l 0x1a
         0x005c3670      2f17           move.l (a7), -(a7)
         0x005c3672      4e93           jsr (a3)                    ; fcn.0000000c
         0x005c3674      504f           addq.w 0x8, a7
         0x005c3676      2e80           move.l d0, (a7)
         0x005c3678      4878ffff       pea.l 0xffff
         0x005c367c      4eb9004070e4   jsr p_wti_o
         0x005c3682      504f           addq.w 0x8, a7
         0x005c3684      4eb900404946   jsr p_wtln_o
         0x005c368a      2d40fee0       move.l d0, -0x120(a6)
         0x005c368e      42aefee4       clr.l -0x11c(a6)
         0x005c3692      426efee8       clr.w -0x118(a6)
         0x005c3696      2d42feea       move.l d2, -0x116(a6)
         0x005c369a      554f           subq.w 0x2, a7
         0x005c369c      2f2efee6       move.l -0x11a(a6), -(a7)
         0x005c36a0      2f2efee2       move.l -0x11e(a6), -(a7)
         0x005c36a4      3f2efee0       move.w -0x120(a6), -(a7)
         0x005c36a8      1f02           move.b d2, -(a7)
         0x005c36aa      486efeea       pea.l -0x116(a6)
         0x005c36ae      4eb9006082de   jsr F10_FILELIST.f_get_header
         0x005c36b4      dec5           adda.w d5, a7
         0x005c36b6      4a1f           tst.b (a7)+
     < 0x005c36b8      6634           bne.b 0x5c36ee
        0x005c36ba      9efc000e       suba.w 0xe, a7
        0x005c36be      224f           movea.l a7, a1
        0x005c36c0      45fabadd       lea.l 0x5bf19f(pc), a2
        0x005c36c4      700d           moveq 0xd, d0
    > 0x005c36c6      12da           move.b (a2)+, (a1)+
    < 0x005c36c8      51c8fffc       dbra d0, 0x5c36c6
        0x005c36cc      4857           pea.l (a7)
        0x005c36ce      48780001       pea.l 0x1
        0x005c36d2      4878000e       pea.l 0xe
        0x005c36d6      1f02           move.b d2, -(a7)
        0x005c36d8      1f02           move.b d2, -(a7)
        0x005c36da      224c           movea.l a4, a1
        0x005c36dc      7011           moveq 0x11, d0
    > 0x005c36de      2f21           move.l -(a1), -(a7)
    < 0x005c36e0      51c8fffc       dbra d0, 0x5c36de
        0x005c36e4      3f21           move.w -(a1), -(a7)
        0x005c36e6      4eb9005c6e76   jsr AFS1_UTIL.afs1_abort
        0x005c36ec      dec7           adda.w d7, a7
     > 0x005c36ee      554f           subq.w 0x2, a7
         0x005c36f0      3f3c0014       move.w 0x14, -(a7)
         0x005c36f4      2f2efeea       move.l -0x116(a6), -(a7)
         0x005c36f8      226e000c       movea.l 0xc(a6), a1
         0x005c36fc      4851           pea.l (a1)
         0x005c36fe      4eb9005eedf6   jsr f_put_string
         0x005c3704      dec4           adda.w d4, a7
         0x005c3706      4a1f           tst.b (a7)+
     < 0x005c3708      663a           bne.b 0x5c3744
        0x005c370a      9ec4           suba.w d4, a7
        0x005c370c      2f3abaa0       move.l 0x5bf1ae(pc), -(a7)
        0x005c3710      2f7abaa00004   move.l 0x5bf1b2(pc), 0x4(a7)
        0x005c3716      2f7aba9e0008   move.l 0x5bf1b6(pc), 0x8(a7)
        0x005c371c      1f7aba9c000c   move.b 0x5bf1ba(pc), 0xc(a7)
        0x005c3722      4857           pea.l (a7)
        0x005c3724      48780001       pea.l 0x1
        0x005c3728      4878000d       pea.l 0xd
        0x005c372c      4227           clr.b -(a7)
        0x005c372e      4227           clr.b -(a7)
        0x005c3730      224c           movea.l a4, a1
        0x005c3732      7011           moveq 0x11, d0
    > 0x005c3734      2f21           move.l -(a1), -(a7)
    < 0x005c3736      51c8fffc       dbra d0, 0x5c3734
        0x005c373a      3f21           move.w -(a1), -(a7)
        0x005c373c      4eb9005c6e76   jsr AFS1_UTIL.afs1_abort
        0x005c3742      dec7           adda.w d7, a7
     > 0x005c3744      486efeea       pea.l -0x116(a6)
         0x005c3748      4eb90060500e   jsr F9_FILERDWRT.f_free_block
         0x005c374e      584f           addq.w 0x4, a7
         0x005c3750      38baba6a       move.w 0x5bf1bc(pc), (a4)
         0x005c3754      2f2efee0       move.l -0x120(a6), -(a7)
         0x005c3758      2f2e0012       move.l 0x12(a6), -(a7)
         0x005c375c      4eb9005c7620   jsr AFS1_UTIL.afs1_volume_up
         0x005c3762      504f           addq.w 0x8, a7
         0x005c3764      20aefee0       move.l -0x120(a6), (a0)
     < 0x005c3768      600000ca       bra.w 0x5c3834
     > 0x005c376c      42aefef8       clr.l -0x108(a6)
         0x005c3770      202efef2       move.l -0x10e(a6), d0
         0x005c3774      0c80000000ff   cmpi.l 0xff, d0
     < 0x005c377a      6302           bls.b 0x5c377e
        0x005c377c      4e4f           trap 0xf
     > 0x005c377e      1d40fefa       move.b d0, -0x106(a6)
         0x005c3782      1d6e0013fef9   move.b 0x13(a6), -0x107(a6)
         0x005c3788      487aba35       pea.l 0x5bf1bf(pc)
         0x005c378c      48780017       pea.l 0x17
         0x005c3790      2f17           move.l (a7), -(a7)
         0x005c3792      4e93           jsr (a3)                    ; fcn.0000000c
         0x005c3794      504f           addq.w 0x8, a7
         0x005c3796      2eaefef8       move.l -0x108(a6), (a7)
         0x005c379a      4878ffff       pea.l 0xffff
         0x005c379e      4eb9004070e4   jsr p_wti_o
         0x005c37a4      504f           addq.w 0x8, a7
         0x005c37a6      487aba2f       pea.l 0x5bf1d7(pc)
         0x005c37aa      4878000a       pea.l 0xa
         0x005c37ae      2f17           move.l (a7), -(a7)
         0x005c37b0      4e93           jsr (a3)                    ; fcn.0000000c
         0x005c37b2      dec3           adda.w d3, a7
         0x005c37b4      4eb900404946   jsr p_wtln_o
         0x005c37ba      38baba26       move.w 0x5bf1e2(pc), (a4)
         0x005c37be      226e000c       movea.l 0xc(a6), a1
         0x005c37c2      45eefefc       lea.l -0x104(a6), a2
         0x005c37c6      7050           moveq 0x50, d0
     > 0x005c37c8      14d9           move.b (a1)+, (a2)+
     < 0x005c37ca      51c8fffc       dbra d0, 0x5c37c8
         0x005c37ce      554f           subq.w 0x2, a7
         0x005c37d0      2f2efef8       move.l -0x108(a6), -(a7)
         0x005c37d4      2f2e0012       move.l 0x12(a6), -(a7)
         0x005c37d8      48780001       pea.l 0x1
         0x005c37dc      48780000       pea.l 0x0
         0x005c37e0      486efefc       pea.l -0x104(a6)
         0x005c37e4      4eb90066d79c   jsr N5_PICTURENET.n5_rem_cmd
         0x005c37ea      defc0014       adda.w 0x14, a7
         0x005c37ee      4a1f           tst.b (a7)+
     < 0x005c37f0      6642           bne.b 0x5c3834
        0x005c37f2      9efc0100       suba.w 0x100, a7
        0x005c37f6      4eb900408ec0   jsr p_err_string
        0x005c37fc      487ab9e7       pea.l 0x5bf1e5(pc)
        0x005c3800      48780011       pea.l 0x11
        0x005c3804      2f17           move.l (a7), -(a7)
        0x005c3806      4e93           jsr (a3)                    ; fcn.0000000c
        0x005c3808      dec3           adda.w d3, a7
        0x005c380a      486f0001       pea.l 0x1(a7)
        0x005c380e      42a7           clr.l -(a7)
        0x005c3810      1f6f00080003   move.b 0x8(a7), 0x3(a7)
        0x005c3816      2f17           move.l (a7), -(a7)
        0x005c3818      4e93           jsr (a3)                    ; fcn.0000000c
        0x005c381a      defc010c       adda.w 0x10c, a7
        0x005c381e      4eb900404946   jsr p_wtln_o
        0x005c3824      4eb900404188   jsr p_Unlink
        0x005c382a      18bab9cb       move.b 0x5bf1f7(pc), (a4)
        0x005c382e      1d7ab9c8fedf   move.b 0x5bf1f8(pc), -0x121(a6)
     > 0x005c3834      3d540016       move.w (a4), 0x16(a6)
           0x005c3838      4cdf1fff       movem.l (a7)+, d0-d7/a0-a4
           0x005c383c      4e5e           unlk a6
           0x005c383e      4e75           rts
            ; CALL XREF from K1_AFS_ONLY.k1_space_used @ 0x5ac3b2
 146: AFS_FILER.afs_space_used ();
           ; var int32_t var_46aeh @ a6-0x46ae
           ; var int32_t var_46a8h @ a6-0x46a8
           ; var int32_t var_46a3h @ a6-0x46a3
           ; var int32_t var_8h @ a7+0x8
           0x005c3840      4e56fee8       link.w a6, 0xfee8
           0x005c3844      bfd5           cmpa.l (a5), a7
       < 0x005c3846      6206           bhi.b 0x5c384e
          0x005c3848      44fc0002       move.w 0x2, ccr
          0x005c384c      4e76           trapv
       > 0x005c384e      defc0118       adda.w 0x118, a7
           0x005c3852      48e78080       movem.l d0/a0, -(a7)
           0x005c3856      700c           moveq 0xc, d0
           0x005c3858      554f           subq.w 0x2, a7
           0x005c385a      2f2e0010       move.l 0x10(a6), -(a7)
           0x005c385e      206e000c       movea.l 0xc(a6), a0
           0x005c3862      4850           pea.l (a0)
           0x005c3864      206e0008       movea.l 0x8(a6), a0
           0x005c3868      4850           pea.l (a0)
           0x005c386a      4eb9005fbea6   jsr F6_VOLUME.f_vol_size
           0x005c3870      dec0           adda.w d0, a7
           0x005c3872      4a1f           tst.b (a7)+
       < 0x005c3874      664e           bne.b 0x5c38c4
          0x005c3876      9efc0100       suba.w 0x100, a7
          0x005c387a      4eb900408ec0   jsr p_err_string
          0x005c3880      487ab978       pea.l 0x5bf1fa(pc)
          0x005c3884      4878001a       pea.l 0x1a
          0x005c3888      2f17           move.l (a7), -(a7)
          0x005c388a      4eb9004047ea   jsr p_wts_o
          0x005c3890      dec0           adda.w d0, a7
          0x005c3892      486f0001       pea.l 0x1(a7)
          0x005c3896      42a7           clr.l -(a7)
          0x005c3898      1f6f00080003   move.b 0x8(a7), 0x3(a7)
          0x005c389e      2f17           move.l (a7), -(a7)
          0x005c38a0      4eb9004047ea   jsr p_wts_o
          0x005c38a6      defc010c       adda.w 0x10c, a7
          0x005c38aa      4eb900404946   jsr p_wtln_o
          0x005c38b0      4eb900404188   jsr p_Unlink
          0x005c38b6      1d7ab95d0014   move.b 0x5bf215(pc), 0x14(a6)
          0x005c38bc      1d7ab9580015   move.b 0x5bf216(pc), 0x15(a6)
      < 0x005c38c2      6006           bra.b 0x5c38ca
      > 0x005c38c4      3d7ab9520014   move.w 0x5bf218(pc), 0x14(a6)
      > 0x005c38ca      4cdf0101       movem.l (a7)+, d0/a0
           0x005c38ce      4e5e           unlk a6
           0x005c38d0      4e75           rts
            ; CALL XREF from K1_AFS_ONLY.k1_info @ 0x5ac43a
 126: AFS_FILER.afs_info ();
           ; var int32_t var_46d4h @ a6-0x46d4
           ; var int32_t var_46c8h @ a6-0x46c8
           0x005c38d2      4e56ffe0       link.w a6, 0xffe0
           0x005c38d6      bfd5           cmpa.l (a5), a7
       < 0x005c38d8      6206           bhi.b 0x5c38e0
          0x005c38da      44fc0002       move.w 0x2, ccr
          0x005c38de      4e76           trapv
       > 0x005c38e0      defc001e       adda.w 0x1e, a7
           0x005c38e4      48e7c080       movem.l d0-d1/a0, -(a7)
           0x005c38e8      41ee0016       lea.l 0x16(a6), a0
           0x005c38ec      7201           moveq 0x1, d1
           0x005c38ee      10bab93b       move.b 0x5bf22b(pc), (a0)
           0x005c38f2      1d7ab9380017   move.b 0x5bf22c(pc), 0x17(a6)
           0x005c38f8      1d41fffe       move.b d1, -0x2(a6)
           0x005c38fc      4a2e0014       tst.b 0x14(a6)
       < 0x005c3900      670a           beq.b 0x5c390c
          0x005c3902      102e0014       move.b 0x14(a6), d0
          0x005c3906      b001           cmp.b d1, d0
      < 0x005c3908      6704           beq.b 0x5c390e
         0x005c390a      4e4e           trap 0xe
     > 0x005c390c      603a           bra.b 0x5c3948
     > 0x005c390e      102e000e       move.b 0xe(a6), d0
          0x005c3912      b001           cmp.b d1, d0
      < 0x005c3914      6708           beq.b 0x5c391e
         0x005c3916      0c000003       cmpi.b 0x3, d0
     < 0x005c391a      6728           beq.b 0x5c3944
        0x005c391c      4e4e           trap 0xe
     > 0x005c391e      487ab90e       pea.l 0x5bf22e(pc)
         0x005c3922      4878003a       pea.l 0x3a
         0x005c3926      2f17           move.l (a7), -(a7)
         0x005c3928      4eb9004047ea   jsr p_wts_o
         0x005c392e      defc000c       adda.w 0xc, a7
         0x005c3932      4eb900404946   jsr p_wtln_o
         0x005c3938      10bab92f       move.b 0x5bf269(pc), (a0)
         0x005c393c      1d7ab92c0017   move.b 0x5bf26a(pc), 0x17(a6)
     < 0x005c3942      6004           bra.b 0x5c3948
     > 0x005c3944      30bab926       move.w 0x5bf26c(pc), (a0)
     > 0x005c3948      4cdf0103       movem.l (a7)+, d0-d1/a0
           0x005c394c      4e5e           unlk a6
           0x005c394e      4e75           rts
            ; CALL XREF from K8_DRIVES.add_existing_vo @ 0x5b7498
            ; CALL XREF from K8_DRIVES.add_existing_dr @ 0x5b7634
 104: AFS_FILER.afs_add_drive (int32_t arg_ch);
           ; var int32_t var_470ah @ a6-0x470a
           ; var int32_t var_4705h @ a6-0x4705
           ; arg int32_t arg_ch @ a6+0xc
           0x005c3950      4e56ffea       link.w a6, 0xffea
           0x005c3954      bfd5           cmpa.l (a5), a7
       < 0x005c3956      6206           bhi.b 0x5c395e
          0x005c3958      44fc0002       move.w 0x2, ccr
          0x005c395c      4e76           trapv
       > 0x005c395e      defc0010       adda.w 0x10, a7
           0x005c3962      48e78000       movem.l d0, -(a7)
           0x005c3966      7001           moveq 0x1, d0
           0x005c3968      1f00           move.b d0, -(a7)
           0x005c396a      4eb900597d10   jsr K0_DISKMGR.k_gate_drive_ch
           0x005c3970      544f           addq.w 0x2, a7
           0x005c3972      2d6e000cfffc   move.l 0xc(a6), -0x4(a6)
           0x005c3978      2f2e0008       move.l 0x8(a6), -(a7)
           0x005c397c      2f2efffc       move.l -0x4(a6), -(a7)
           0x005c3980      4eb9005c7620   jsr AFS1_UTIL.afs1_volume_up
           0x005c3986      504f           addq.w 0x8, a7
           0x005c3988      1d7ab8fb0010   move.b 0x5bf285(pc), 0x10(a6)
           0x005c398e      1d7ab8f60011   move.b 0x5bf286(pc), 0x11(a6)
           0x005c3994      1d40fffa       move.b d0, -0x6(a6)
           0x005c3998      1f00           move.b d0, -(a7)
           0x005c399a      486efffa       pea.l -0x6(a6)
           0x005c399e      4eb900597cce   jsr K0_DISKMGR.k_drive_changed
           0x005c39a4      584f           addq.w 0x4, a7
           0x005c39a6      4217           clr.b (a7)
           0x005c39a8      4eb900597d10   jsr K0_DISKMGR.k_gate_drive_ch
           0x005c39ae      544f           addq.w 0x2, a7
           0x005c39b0      4cdf0001       movem.l (a7)+, d0
           0x005c39b4      4e5e           unlk a6
           0x005c39b6      4e75           rts
            ; CALL XREF from K1_AFS_ONLY.k1_same_file @ 0x5ac4be
 120: AFS_FILER.afs_same_file ();
           0x005c39b8      4e56ffc0       link.w a6, 0xffc0
           0x005c39bc      bfd5           cmpa.l (a5), a7
       < 0x005c39be      6206           bhi.b 0x5c39c6
          0x005c39c0      44fc0002       move.w 0x2, ccr
          0x005c39c4      4e76           trapv
       > 0x005c39c6      defc003e       adda.w 0x3e, a7
           0x005c39ca      48e7c1f0       movem.l d0-d1/d7/a0-a3, -(a7)
           0x005c39ce      72ff           moveq 0xff, d1
           0x005c39d0      7e00           moveq 0x0, d7
           0x005c39d2      206e000c       movea.l 0xc(a6), a0
           0x005c39d6      20280004       move.l 0x4(a0), d0
           0x005c39da      b081           cmp.l d1, d0
       < 0x005c39dc      6604           bne.b 0x5c39e2
      > 0x005c39de      7e00           moveq 0x0, d7
     < 0x005c39e0      6042           bra.b 0x5c3a24
     > 0x005c39e2      226e0008       movea.l 0x8(a6), a1
         0x005c39e6      20290004       move.l 0x4(a1), d0
         0x005c39ea      b081           cmp.l d1, d0
     < 0x005c39ec      6602           bne.b 0x5c39f0
     < 0x005c39ee      60ee           bra.b 0x5c39de
      > 0x005c39f0      9efc000c       suba.w 0xc, a7
          0x005c39f4      244f           movea.l a7, a2
          0x005c39f6      2648           movea.l a0, a3
          0x005c39f8      7009           moveq 0x9, d0
      > 0x005c39fa      14db           move.b (a3)+, (a2)+
      < 0x005c39fc      51c8fffc       dbra d0, 0x5c39fa
          0x005c3a00      9efc000a       suba.w 0xa, a7
          0x005c3a04      244f           movea.l a7, a2
          0x005c3a06      2649           movea.l a1, a3
          0x005c3a08      7009           moveq 0x9, d0
      > 0x005c3a0a      14db           move.b (a3)+, (a2)+
      < 0x005c3a0c      51c8fffc       dbra d0, 0x5c3a0a
          0x005c3a10      4eb9005ef3d2   jsr F2_UTILITY.f_fids_eq
          0x005c3a16      defc0014       adda.w 0x14, a7
          0x005c3a1a      101f           move.b (a7)+, d0
          0x005c3a1c      4880           ext.w d0
          0x005c3a1e      41bc0001       chk.w 0x1, d0
          0x005c3a22      1e00           move.b d0, d7
     > 0x005c3a24      1d470010       move.b d7, 0x10(a6)
           0x005c3a28      4cdf0f83       movem.l (a7)+, d0-d1/d7/a0-a3
           0x005c3a2c      4e5e           unlk a6
           0x005c3a2e      4e75           rts
            ; CALL XREF from K1_AFS_ONLY.k1_directory @ 0x5ac564
 60: AFS_FILER.afs_directory ();
           ; var int32_t var_47a6h @ a6-0x47a6
           ; var int32_t var_47a1h @ a6-0x47a1
           0x005c3a30      4e56fff0       link.w a6, 0xfff0
           0x005c3a34      bfd5           cmpa.l (a5), a7
       < 0x005c3a36      6206           bhi.b 0x5c3a3e
          0x005c3a38      44fc0002       move.w 0x2, ccr
          0x005c3a3c      4e76           trapv
       > 0x005c3a3e      defc0010       adda.w 0x10, a7
           0x005c3a42      487ab856       pea.l 0x5bf29a(pc)
           0x005c3a46      48780022       pea.l 0x22
           0x005c3a4a      2f17           move.l (a7), -(a7)
           0x005c3a4c      4eb9004047ea   jsr p_wts_o
           0x005c3a52      defc000c       adda.w 0xc, a7
           0x005c3a56      4eb900404946   jsr p_wtln_o
           0x005c3a5c      1d7ab85f0114   move.b 0x5bf2bd(pc), 0x114(a6)
           0x005c3a62      1d7ab85a0115   move.b 0x5bf2be(pc), 0x115(a6)
           0x005c3a68      4e5e           unlk a6
           0x005c3a6a      4e75           rts
            ; CALL XREF from K1_AFS_ONLY.k1_disk_debug @ 0x5ac5e8
 66: AFS_FILER.afs_disk_debug ();
           0x005c3a6c      4e56ffe0       link.w a6, 0xffe0
           0x005c3a70      bfd5           cmpa.l (a5), a7
       < 0x005c3a72      6206           bhi.b 0x5c3a7a
          0x005c3a74      44fc0002       move.w 0x2, ccr
          0x005c3a78      4e76           trapv
       > 0x005c3a7a      defc0020       adda.w 0x20, a7
           0x005c3a7e      48e7c0c0       movem.l d0-d1/a0-a1, -(a7)
           0x005c3a82      41ee0010       lea.l 0x10(a6), a0
           0x005c3a86      43f9004047ea   lea.l p_wts_o, a1
           0x005c3a8c      720c           moveq 0xc, d1
           0x005c3a8e      30bab830       move.w 0x5bf2c0(pc), (a0)
           0x005c3a92      4a2e000a       tst.b 0xa(a6)
       < 0x005c3a96      670000a6       beq.w 0x5c3b3e
          0x005c3a9a      302e0008       move.w 0x8(a6), d0
          0x005c3a9e      0c400002       cmpi.w 0x2, d0
      < 0x005c3aa2      6276           bhi.b 0x5c3b1a
         0x005c3aa4      d040           add.w d0, d0
         0x005c3aa6      303b0006       move.w 0x5c3aae(pc, d0.w), d0
         0x005c3aaa      4efb0002       jmp 0x5c3aae(pc, d0.w)
          0x005c3aae      00060030       ori.b 0x30, d6
          0x005c3ab2      004c487a       
          0x005c3ab3      4c487ab8       
          0x005c3ab4      487ab80d       pea.l 0x5bf2c3(pc)
          0x005c3ab8      48780019       pea.l 0x19
          0x005c3abc      2f17           move.l (a7), -(a7)
          0x005c3abe      4e91           jsr (a1)                    ; fcn.0000000a
          0x005c3ac0      dec1           adda.w d1, a7
          0x005c3ac2      4eb900404946   jsr p_wtln_o
          0x005c3ac8      487ab813       pea.l 0x5bf2dd(pc)
          0x005c3acc      4878001a       pea.l 0x1a
          0x005c3ad0      2f17           move.l (a7), -(a7)
          0x005c3ad2      4e91           jsr (a1)                    ; fcn.0000000a
          0x005c3ad4      dec1           adda.w d1, a7
          ; CODE XREF from AFS_FILER @ +0x60dc
      > 0x005c3ad6      4eb900404946   jsr p_wtln_o
     < 0x005c3adc      6060           bra.b 0x5c3b3e
        0x005c3ade      554f           subq.w 0x2, a7
        0x005c3ae0      2f2e000c       move.l 0xc(a6), -(a7)
        0x005c3ae4      1f3c0001       move.b 0x1, -(a7)
        0x005c3ae8      4eb9005c8124   jsr AFS1_UTIL.afs1_set_index
        0x005c3aee      5c4f           addq.w 0x6, a7
        0x005c3af0      4a1f           tst.b (a7)+
    < 0x005c3af2      6704           beq.b 0x5c3af8
       0x005c3af4      30bab802       move.w 0x5bf2f8(pc), (a0)
   > 0x005c3af8      6044           bra.b 0x5c3b3e
       0x005c3afa      554f           subq.w 0x2, a7
       0x005c3afc      2f2e000c       move.l 0xc(a6), -(a7)
       0x005c3b00      4227           clr.b -(a7)
       0x005c3b02      4eb9005c8124   jsr AFS1_UTIL.afs1_set_index
       0x005c3b08      5c4f           addq.w 0x6, a7
       0x005c3b0a      4a1f           tst.b (a7)+
   < 0x005c3b0c      670a           beq.b 0x5c3b18
      0x005c3b0e      10bab7eb       move.b 0x5bf2fb(pc), (a0)
      0x005c3b12      1d7ab7e80011   move.b 0x5bf2fc(pc), 0x11(a6)
  > 0x005c3b18      6024           bra.b 0x5c3b3e
   > 0x005c3b1a      487ab7e2       pea.l 0x5bf2fe(pc)
       0x005c3b1e      4878002a       pea.l 0x2a
       0x005c3b22      2f17           move.l (a7), -(a7)
       0x005c3b24      4e91           jsr (a1)                    ; fcn.0000000a
       0x005c3b26      dec1           adda.w d1, a7
       0x005c3b28      4280           clr.l d0
       0x005c3b2a      302e0008       move.w 0x8(a6), d0
       0x005c3b2e      2f00           move.l d0, -(a7)
       0x005c3b30      48780000       pea.l 0x0
       0x005c3b34      4eb9004070e4   jsr p_wti_o
       0x005c3b3a      504f           addq.w 0x8, a7
   < 0x005c3b3c      6098           bra.b 0x5c3ad6
        ; CODE XREF from AFS_FILER @ +0x607c
  > 0x005c3b3e      4cdf0303       movem.l (a7)+, d0-d1/a0-a1
            0x005c3b42      4e5e           unlk a6
            0x005c3b44      4e75           rts
            ; CALL XREFS from AFS_FILER.afs_index @ 0x6492, 0x8020, 0x5c624e
 48: AFS_FILER.get_result ();
           ; var int32_t var_4842h @ a6-0x4842
           ; var int32_t var_483ch @ a6-0x483c
           ; var int32_t var_4837h @ a6-0x4837
           0x005c3b46      4e56fffc       link.w a6, 0xfffc
           0x005c3b4a      bfd5           cmpa.l (a5), a7
       < 0x005c3b4c      6206           bhi.b 0x5c3b54
          0x005c3b4e      44fc0002       move.w 0x2, ccr
          0x005c3b52      4e76           trapv
       > 0x005c3b54      defc0004       adda.w 0x4, a7
           0x005c3b58      4a2e0008       tst.b 0x8(a6)
       < 0x005c3b5c      670e           beq.b 0x5c3b6c
          0x005c3b5e      1d7ab7c9000a   move.b 0x5bf329(pc), 0xa(a6)
          0x005c3b64      1d7ab7c4000b   move.b 0x5bf32a(pc), 0xb(a6)
      < 0x005c3b6a      6006           bra.b 0x5c3b72
      > 0x005c3b6c      3d7ab7be000a   move.w 0x5bf32c(pc), 0xa(a6)
      > 0x005c3b72      4e5e           unlk a6
           0x005c3b74      4e75           rts
 174: AFS_FILER.afs_free_browse ();
           ; var int32_t var_8h @ a7+0x8
           0x005c3b76      4e56fee4       link.w a6, 0xfee4
           0x005c3b7a      bfd5           cmpa.l (a5), a7
       < 0x005c3b7c      6206           bhi.b 0x5c3b84
          0x005c3b7e      44fc0002       move.w 0x2, ccr
          0x005c3b82      4e76           trapv
       > 0x005c3b84      defc0118       adda.w 0x118, a7
           0x005c3b88      48e78080       movem.l d0/a0, -(a7)
           0x005c3b8c      41eefffc       lea.l -0x4(a6), a0
           0x005c3b90      203cffff0001   move.l 0xffff0001, d0
           0x005c3b96      2080           move.l d0, (a0)
           0x005c3b98      554f           subq.w 0x2, a7
           0x005c3b9a      2f2e000e       move.l 0xe(a6), -(a7)
           0x005c3b9e      2f2e000a       move.l 0xa(a6), -(a7)
           0x005c3ba2      3f2e0008       move.w 0x8(a6), -(a7)
           0x005c3ba6      1f00           move.b d0, -(a7)
           0x005c3ba8      4850           pea.l (a0)
           0x005c3baa      4eb9006082de   jsr F10_FILELIST.f_get_header
           0x005c3bb0      defc0010       adda.w 0x10, a7
           0x005c3bb4      4a1f           tst.b (a7)+
       < 0x005c3bb6      671e           beq.b 0x5c3bd6
          0x005c3bb8      1d400012       move.b d0, 0x12(a6)
          0x005c3bbc      3f3c0018       move.w 0x18, -(a7)
          0x005c3bc0      2f10           move.l (a0), -(a7)
          0x005c3bc2      4eb9005eee78   jsr f_delete_field
          0x005c3bc8      5c4f           addq.w 0x6, a7
          0x005c3bca      4850           pea.l (a0)
          0x005c3bcc      4eb90060500e   jsr F9_FILERDWRT.f_free_block
          0x005c3bd2      584f           addq.w 0x4, a7
      < 0x005c3bd4      6046           bra.b 0x5c3c1c
      > 0x005c3bd6      9efc0100       suba.w 0x100, a7
          0x005c3bda      4eb900408ec0   jsr p_err_string
          0x005c3be0      487ab74d       pea.l 0x5bf32f(pc)
          0x005c3be4      4878002f       pea.l 0x2f
          0x005c3be8      2f17           move.l (a7), -(a7)
          0x005c3bea      4eb9004047ea   jsr p_wts_o
          0x005c3bf0      defc000c       adda.w 0xc, a7
          0x005c3bf4      486f0001       pea.l 0x1(a7)
          0x005c3bf8      42a7           clr.l -(a7)
          0x005c3bfa      1f6f00080003   move.b 0x8(a7), 0x3(a7)
          0x005c3c00      2f17           move.l (a7), -(a7)
          0x005c3c02      4eb9004047ea   jsr p_wts_o
          0x005c3c08      defc010c       adda.w 0x10c, a7
          0x005c3c0c      4eb900404946   jsr p_wtln_o
          0x005c3c12      4eb900404188   jsr p_Unlink
          0x005c3c18      422e0012       clr.b 0x12(a6)
      > 0x005c3c1c      4cdf0101       movem.l (a7)+, d0/a0
           0x005c3c20      4e5e           unlk a6
           0x005c3c22      4e75           rts
 160: AFS_FILER.afs0_add_defaul ();
           ; var int32_t var_8h @ a7+0x8
           0x005c3c24      4e56fee8       link.w a6, 0xfee8
           0x005c3c28      bfd5           cmpa.l (a5), a7
       < 0x005c3c2a      6206           bhi.b 0x5c3c32
          0x005c3c2c      44fc0002       move.w 0x2, ccr
          0x005c3c30      4e76           trapv
       > 0x005c3c32      defc0114       adda.w 0x114, a7
           0x005c3c36      48e70080       movem.l a0, -(a7)
           0x005c3c3a      41eefffc       lea.l -0x4(a6), a0
           0x005c3c3e      20bcffff0001   move.l 0xffff0001, (a0)
           0x005c3c44      554f           subq.w 0x2, a7
           0x005c3c46      2f2e000e       move.l 0xe(a6), -(a7)
           0x005c3c4a      2f2e000a       move.l 0xa(a6), -(a7)
           0x005c3c4e      3f2e0008       move.w 0x8(a6), -(a7)
           0x005c3c52      1f3c0001       move.b 0x1, -(a7)
           0x005c3c56      4850           pea.l (a0)
           0x005c3c58      4eb9006082de   jsr F10_FILELIST.f_get_header
           0x005c3c5e      defc0010       adda.w 0x10, a7
           0x005c3c62      4a1f           tst.b (a7)+
       < 0x005c3c64      6714           beq.b 0x5c3c7a
          0x005c3c66      2f10           move.l (a0), -(a7)
          0x005c3c68      4ebad4da       jsr AFS_FILER.afs0_put_defaul(pc)
          0x005c3c6c      584f           addq.w 0x4, a7
          0x005c3c6e      4850           pea.l (a0)
          0x005c3c70      4eb90060500e   jsr F9_FILERDWRT.f_free_block
          0x005c3c76      584f           addq.w 0x4, a7
      < 0x005c3c78      6042           bra.b 0x5c3cbc
      > 0x005c3c7a      9efc0100       suba.w 0x100, a7
          0x005c3c7e      4eb900408ec0   jsr p_err_string
          0x005c3c84      487ab6d9       pea.l 0x5bf35f(pc)
          0x005c3c88      48780031       pea.l 0x31
          0x005c3c8c      2f17           move.l (a7), -(a7)
          0x005c3c8e      4eb9004047ea   jsr p_wts_o
          0x005c3c94      defc000c       adda.w 0xc, a7
          0x005c3c98      486f0001       pea.l 0x1(a7)
          0x005c3c9c      42a7           clr.l -(a7)
          0x005c3c9e      1f6f00080003   move.b 0x8(a7), 0x3(a7)
          0x005c3ca4      2f17           move.l (a7), -(a7)
          0x005c3ca6      4eb9004047ea   jsr p_wts_o
          0x005c3cac      defc010c       adda.w 0x10c, a7
          0x005c3cb0      4eb900404946   jsr p_wtln_o
          0x005c3cb6      4eb900404188   jsr p_Unlink
      > 0x005c3cbc      4cdf0100       movem.l (a7)+, a0
           0x005c3cc0      4e5e           unlk a6
           0x005c3cc2      4e75           rts
 166: AFS_FILER.afs0_rem_picspe ();
           ; var int32_t var_8h @ a7+0x8
           0x005c3cc4      4e56fee8       link.w a6, 0xfee8
           0x005c3cc8      bfd5           cmpa.l (a5), a7
       < 0x005c3cca      6206           bhi.b 0x5c3cd2
          0x005c3ccc      44fc0002       move.w 0x2, ccr
          0x005c3cd0      4e76           trapv
       > 0x005c3cd2      defc0114       adda.w 0x114, a7
           0x005c3cd6      48e70080       movem.l a0, -(a7)
           0x005c3cda      41eefffc       lea.l -0x4(a6), a0
           0x005c3cde      20bcffff0001   move.l 0xffff0001, (a0)
           0x005c3ce4      554f           subq.w 0x2, a7
           0x005c3ce6      2f2e000e       move.l 0xe(a6), -(a7)
           0x005c3cea      2f2e000a       move.l 0xa(a6), -(a7)
           0x005c3cee      3f2e0008       move.w 0x8(a6), -(a7)
           0x005c3cf2      1f3c0001       move.b 0x1, -(a7)
           0x005c3cf6      4850           pea.l (a0)
           0x005c3cf8      4eb9006082de   jsr F10_FILELIST.f_get_header
           0x005c3cfe      defc0010       adda.w 0x10, a7
           0x005c3d02      4a1f           tst.b (a7)+
       < 0x005c3d04      671a           beq.b 0x5c3d20
          0x005c3d06      3f3c0011       move.w 0x11, -(a7)
          0x005c3d0a      2f10           move.l (a0), -(a7)
          0x005c3d0c      4eb9005eee78   jsr f_delete_field
          0x005c3d12      5c4f           addq.w 0x6, a7
          0x005c3d14      4850           pea.l (a0)
          0x005c3d16      4eb90060500e   jsr F9_FILERDWRT.f_free_block
          0x005c3d1c      584f           addq.w 0x4, a7
      < 0x005c3d1e      6042           bra.b 0x5c3d62
      > 0x005c3d20      9efc0100       suba.w 0x100, a7
          0x005c3d24      4eb900408ec0   jsr p_err_string
          0x005c3d2a      487ab665       pea.l 0x5bf391(pc)
          0x005c3d2e      4878002c       pea.l 0x2c
          0x005c3d32      2f17           move.l (a7), -(a7)
          0x005c3d34      4eb9004047ea   jsr p_wts_o
          0x005c3d3a      defc000c       adda.w 0xc, a7
          0x005c3d3e      486f0001       pea.l 0x1(a7)
          0x005c3d42      42a7           clr.l -(a7)
          0x005c3d44      1f6f00080003   move.b 0x8(a7), 0x3(a7)
          0x005c3d4a      2f17           move.l (a7), -(a7)
          0x005c3d4c      4eb9004047ea   jsr p_wts_o
          0x005c3d52      defc010c       adda.w 0x10c, a7
          0x005c3d56      4eb900404946   jsr p_wtln_o
          0x005c3d5c      4eb900404188   jsr p_Unlink
      > 0x005c3d62      4cdf0100       movem.l (a7)+, a0
           0x005c3d66      4e5e           unlk a6
           0x005c3d68      4e75           rts
            ; CALL XREF from K1_AFS_ONLY.k1_file_debug @ 0x5ac668
 76: AFS_FILER.afs_file_debug ();
           0x005c3d6a      4e56ffc4       link.w a6, 0xffc4
           0x005c3d6e      bfd5           cmpa.l (a5), a7
       < 0x005c3d70      6206           bhi.b 0x5c3d78
          0x005c3d72      44fc0002       move.w 0x2, ccr
          0x005c3d76      4e76           trapv
       > 0x005c3d78      defc003a       adda.w 0x3a, a7
           0x005c3d7c      48e7f1f8       movem.l d0-d3/d7/a0-a4, -(a7)
           0x005c3d80      45f9004047ea   lea.l p_wts_o, a2
           0x005c3d86      47f900404946   lea.l p_wtln_o, a3
           0x005c3d8c      49ee000c       lea.l 0xc(a6), a4
           0x005c3d90      720a           moveq 0xa, d1
           0x005c3d92      740c           moveq 0xc, d2
           0x005c3d94      7601           moveq 0x1, d3
           0x005c3d96      7e00           moveq 0x0, d7
           0x005c3d98      4a2e000a       tst.b 0xa(a6)
       < 0x005c3d9c      67000150       beq.w 0x5c3eee
          0x005c3da0      302e0008       move.w 0x8(a6), d0
          0x005c3da4      0c400007       cmpi.w 0x7, d0
      < 0x005c3da8      62000144       bhi.w 0x5c3eee
         0x005c3dac      d040           add.w d0, d0
         0x005c3dae      303b0006       move.w 0x5c3db6(pc, d0.w), d0
         0x005c3db2      4efb0002       jmp 0x5c3db6(pc, d0.w)
          0x005c3db6      00100086       ori.b 0x86, (a0)
          0x005c3dba      00a600be00d4   ori.l 0xbe00d4, -(a6)
          0x005c3dc0      00f8010e       
          0x005c3dc1      f8010e01       fint fp3, fp4
          0x005c3dc5      2248           movea.l a0, a1
          0x005c3dc7      7ab5           moveq 0xb5, d5
          0x005c3dc9      f6487800172f   fdbf d0, 0x5c54fc
          0x005c3dcf      174e92de       
          0x005c3dd0      4e92           jsr (a2)                    ; fcn.00000009+0x2
          0x005c3dd2      dec2           adda.w d2, a7
          0x005c3dd4      4e93           jsr (a3)                    ; fcn.0000000c
          0x005c3dd6      487ab5fe       pea.l 0x5bf3d6(pc)
          0x005c3dda      48780017       pea.l 0x17
          0x005c3dde      2f17           move.l (a7), -(a7)
          0x005c3de0      4e92           jsr (a2)                    ; fcn.00000009+0x2
          0x005c3de2      dec2           adda.w d2, a7
          0x005c3de4      4e93           jsr (a3)                    ; fcn.0000000c
          0x005c3de6      487ab606       pea.l 0x5bf3ee(pc)
          0x005c3dea      48780012       pea.l 0x12
          0x005c3dee      2f17           move.l (a7), -(a7)
          0x005c3df0      4e92           jsr (a2)                    ; fcn.00000009+0x2
          0x005c3df2      dec2           adda.w d2, a7
          0x005c3df4      4e93           jsr (a3)                    ; fcn.0000000c
          0x005c3df6      487ab609       pea.l 0x5bf401(pc)
          0x005c3dfa      4878000e       pea.l 0xe
          0x005c3dfe      2f17           move.l (a7), -(a7)
          0x005c3e00      4e92           jsr (a2)                    ; fcn.00000009+0x2
          0x005c3e02      dec2           adda.w d2, a7
          0x005c3e04      4e93           jsr (a3)                    ; fcn.0000000c
          0x005c3e06      487ab608       pea.l 0x5bf410(pc)
          0x005c3e0a      48780010       pea.l 0x10
          0x005c3e0e      2f17           move.l (a7), -(a7)
          0x005c3e10      4e92           jsr (a2)                    ; fcn.00000009+0x2
          0x005c3e12      dec2           adda.w d2, a7
          0x005c3e14      4e93           jsr (a3)                    ; fcn.0000000c
          0x005c3e16      487ab609       pea.l 0x5bf421(pc)
          0x005c3e1a      4878000e       pea.l 0xe
          0x005c3e1e      2f17           move.l (a7), -(a7)
          0x005c3e20      4e92           jsr (a2)                    ; fcn.00000009+0x2
          0x005c3e22      dec2           adda.w d2, a7
          0x005c3e24      4e93           jsr (a3)                    ; fcn.0000000c
          0x005c3e26      487ab608       pea.l 0x5bf430(pc)
          0x005c3e2a      4878000e       pea.l 0xe
          0x005c3e2e      2f17           move.l (a7), -(a7)
          0x005c3e30      4e92           jsr (a2)                    ; fcn.00000009+0x2
          0x005c3e32      dec2           adda.w d2, a7
          0x005c3e34      4e93           jsr (a3)                    ; fcn.0000000c
          0x005c3e36      7e01           moveq 0x1, d7
      < 0x005c3e38      600000b4       bra.w 0x5c3eee
         0x005c3e3c      554f           subq.w 0x2, a7
         0x005c3e3e      2054           movea.l (a4), a0
         0x005c3e40      9ec1           suba.w d1, a7
         0x005c3e42      224f           movea.l a7, a1
         0x005c3e44      7009           moveq 0x9, d0
     > 0x005c3e46      12d8           move.b (a0)+, (a1)+
     < 0x005c3e48      51c8fffc       dbra d0, 0x5c3e46
         0x005c3e4c      4ebafd28       jsr AFS_FILER.afs_free_browse(pc)
         0x005c3e50      dec1           adda.w d1, a7
         0x005c3e52      4a1f           tst.b (a7)+
     < 0x005c3e54      6702           beq.b 0x5c3e58
        0x005c3e56      7e01           moveq 0x1, d7
    > 0x005c3e58      60000094       bra.w 0x5c3eee
        0x005c3e5c      7e01           moveq 0x1, d7
        0x005c3e5e      2054           movea.l (a4), a0
        0x005c3e60      9ec1           suba.w d1, a7
        0x005c3e62      224f           movea.l a7, a1
        0x005c3e64      7009           moveq 0x9, d0
    > 0x005c3e66      12d8           move.b (a0)+, (a1)+
    < 0x005c3e68      51c8fffc       dbra d0, 0x5c3e66
        0x005c3e6c      4ebafdb6       jsr AFS_FILER.afs0_add_defaul(pc)
    > 0x005c3e70      dec1           adda.w d1, a7
   < 0x005c3e72      607a           bra.b 0x5c3eee
      0x005c3e74      7e01           moveq 0x1, d7
      0x005c3e76      2054           movea.l (a4), a0
      0x005c3e78      9ec1           suba.w d1, a7
      0x005c3e7a      224f           movea.l a7, a1
      0x005c3e7c      7009           moveq 0x9, d0
  > 0x005c3e7e      12d8           move.b (a0)+, (a1)+
  < 0x005c3e80      51c8fffc       dbra d0, 0x5c3e7e
      0x005c3e84      4ebafe3e       jsr AFS_FILER.afs0_rem_picspe(pc)
   < 0x005c3e88      60e6           bra.b 0x5c3e70
       0x005c3e8a      554f           subq.w 0x2, a7
       0x005c3e8c      2054           movea.l (a4), a0
       0x005c3e8e      9ec1           suba.w d1, a7
       0x005c3e90      224f           movea.l a7, a1
       0x005c3e92      7009           moveq 0x9, d0
   > 0x005c3e94      12d8           move.b (a0)+, (a1)+
   < 0x005c3e96      51c8fffc       dbra d0, 0x5c3e94
       0x005c3e9a      4227           clr.b -(a7)
  > 0x005c3e9c      4eb9005c8160   jsr AFS1_UTIL.afs1_index
     0x005c3ea2      dec2           adda.w d2, a7
     0x005c3ea4      101f           move.b (a7)+, d0
     0x005c3ea6      4880           ext.w d0
     0x005c3ea8      4183           chk.w d3, d0
     0x005c3eaa      1e00           move.b d0, d7
  < 0x005c3eac      6040           bra.b 0x5c3eee
     0x005c3eae      554f           subq.w 0x2, a7
     0x005c3eb0      2054           movea.l (a4), a0
     0x005c3eb2      9ec1           suba.w d1, a7
     0x005c3eb4      224f           movea.l a7, a1
     0x005c3eb6      7009           moveq 0x9, d0
  > 0x005c3eb8      12d8           move.b (a0)+, (a1)+
  < 0x005c3eba      51c8fffc       dbra d0, 0x5c3eb8
     0x005c3ebe      1f3c0003       move.b 0x3, -(a7)
  < 0x005c3ec2      60d8           bra.b 0x5c3e9c
     0x005c3ec4      554f           subq.w 0x2, a7
     0x005c3ec6      2054           movea.l (a4), a0
     0x005c3ec8      9ec1           suba.w d1, a7
     0x005c3eca      224f           movea.l a7, a1
     0x005c3ecc      7009           moveq 0x9, d0
  > 0x005c3ece      12d8           move.b (a0)+, (a1)+
  < 0x005c3ed0      51c8fffc       dbra d0, 0x5c3ece
     0x005c3ed4      1f03           move.b d3, -(a7)
  < 0x005c3ed6      60c4           bra.b 0x5c3e9c
      0x005c3ed8      554f           subq.w 0x2, a7
      0x005c3eda      2054           movea.l (a4), a0
      0x005c3edc      9ec1           suba.w d1, a7
      0x005c3ede      224f           movea.l a7, a1
      0x005c3ee0      7009           moveq 0x9, d0
  > 0x005c3ee2      12d8           move.b (a0)+, (a1)+
  < 0x005c3ee4      51c8fffc       dbra d0, 0x5c3ee2
      0x005c3ee8      1f3c0002       move.b 0x2, -(a7)
   < 0x005c3eec      60ae           bra.b 0x5c3e9c
  > 0x005c3eee      554f           subq.w 0x2, a7
            0x005c3ef0      1f07           move.b d7, -(a7)
            0x005c3ef2      4ebafc52       jsr AFS_FILER.get_result(pc)
            0x005c3ef6      544f           addq.w 0x2, a7
            0x005c3ef8      3d5f0010       move.w (a7)+, 0x10(a6)
            0x005c3efc      4cdf1f8f       movem.l (a7)+, d0-d3/d7/a0-a4
            0x005c3f00      4e5e           unlk a6
            0x005c3f02      4e75           rts
            ; CALL XREF from AFS_FILER.afs_get_file_lo @ 0x5c4686
 392: AFS_FILER.afs_get_file_si ();
           0x005c3f04      4e56ff9e       link.w a6, 0xff9e
           0x005c3f08      bfd5           cmpa.l (a5), a7
       < 0x005c3f0a      6206           bhi.b 0x5c3f12
          0x005c3f0c      44fc0002       move.w 0x2, ccr
          0x005c3f10      4e76           trapv
       > 0x005c3f12      defc0048       adda.w 0x48, a7
           0x005c3f16      48e7fff8       movem.l d0-d7/a0-a4, -(a7)
           0x005c3f1a      43f9004047ea   lea.l p_wts_o, a1
           0x005c3f20      45f900404946   lea.l p_wtln_o, a2
           0x005c3f26      47ee0022       lea.l 0x22(a6), a3
           0x005c3f2a      49eeffe6       lea.l -0x1a(a6), a4
           0x005c3f2e      740c           moveq 0xc, d2
           0x005c3f30      7601           moveq 0x1, d3
           0x005c3f32      780a           moveq 0xa, d4
           0x005c3f34      2a3cffff8000   move.l 0xffff8000, d5
           0x005c3f3a      7c10           moveq 0x10, d6
           0x005c3f3c      4213           clr.b (a3)
           0x005c3f3e      4a2e0020       tst.b 0x20(a6)
       < 0x005c3f42      671a           beq.b 0x5c3f5e
          0x005c3f44      487ab512       pea.l 0x5bf458(pc)
          0x005c3f48      48780017       pea.l 0x17
          0x005c3f4c      2f17           move.l (a7), -(a7)
          0x005c3f4e      4e91           jsr (a1)                    ; fcn.0000000a
          0x005c3f50      dec2           adda.w d2, a7
          0x005c3f52      4e92           jsr (a2)                    ; fcn.00000009+0x2
          0x005c3f54      4227           clr.b -(a7)
          0x005c3f56      4eb90040452a   jsr p_Assert
          0x005c3f5c      544f           addq.w 0x2, a7
       > 0x005c3f5e      4254           clr.w (a4)
           0x005c3f60      426effe8       clr.w -0x18(a6)
           0x005c3f64      426effea       clr.w -0x16(a6)
           0x005c3f68      42aeffec       clr.l -0x14(a6)
           0x005c3f6c      554f           subq.w 0x2, a7
           0x005c3f6e      4227           clr.b -(a7)
           0x005c3f70      2f2e001c       move.l 0x1c(a6), -(a7)
           0x005c3f74      486effea       pea.l -0x16(a6)
           0x005c3f78      4eb9005edb64   jsr FILE_STRUCTURE.fs_nplanes
           0x005c3f7e      dec4           adda.w d4, a7
           0x005c3f80      101f           move.b (a7)+, d0
           0x005c3f82      4880           ext.w d0
           0x005c3f84      4183           chk.w d3, d0
           0x005c3f86      1e00           move.b d0, d7
       < 0x005c3f88      6610           bne.b 0x5c3f9a
          0x005c3f8a      487ab4e4       pea.l 0x5bf470(pc)
          0x005c3f8e      48780035       pea.l 0x35
          0x005c3f92      2f17           move.l (a7), -(a7)
          0x005c3f94      4e91           jsr (a1)                    ; fcn.0000000a
          0x005c3f96      dec2           adda.w d2, a7
          0x005c3f98      4e92           jsr (a2)                    ; fcn.00000009+0x2
       > 0x005c3f9a      554f           subq.w 0x2, a7
           0x005c3f9c      4227           clr.b -(a7)
           0x005c3f9e      554f           subq.w 0x2, a7
           0x005c3fa0      1f2e0008       move.b 0x8(a6), -(a7)
           0x005c3fa4      4eb9005aed6a   jsr K2_TYPES.k2_is_video
           0x005c3faa      544f           addq.w 0x2, a7
           0x005c3fac      4a1f           tst.b (a7)+
       < 0x005c3fae      6602           bne.b 0x5c3fb2
          0x005c3fb0      5217           addq.b 0x1, (a7)
       > 0x005c3fb2      2f2e001c       move.l 0x1c(a6), -(a7)
           0x005c3fb6      486effec       pea.l -0x14(a6)
           0x005c3fba      4eb9005e96d4   jsr FILE_STRUCTURE.fs_extrabytes
           0x005c3fc0      dec4           adda.w d4, a7
           0x005c3fc2      101f           move.b (a7)+, d0
           0x005c3fc4      4880           ext.w d0
           0x005c3fc6      4183           chk.w d3, d0
           0x005c3fc8      1e00           move.b d0, d7
       < 0x005c3fca      6610           bne.b 0x5c3fdc
          0x005c3fcc      487ab4d8       pea.l 0x5bf4a6(pc)
          0x005c3fd0      48780039       pea.l 0x39
          0x005c3fd4      2f17           move.l (a7), -(a7)
          0x005c3fd6      4e91           jsr (a1)                    ; fcn.0000000a
          0x005c3fd8      dec2           adda.w d2, a7
          0x005c3fda      4e92           jsr (a2)                    ; fcn.00000009+0x2
       > 0x005c3fdc      102e0008       move.b 0x8(a6), d0
           0x005c3fe0      4880           ext.w d0
           0x005c3fe2      41fab4fc       lea.l 0x5bf4e0(pc), a0
           0x005c3fe6      3200           move.w d0, d1
           0x005c3fe8      e649           lsr.w 0x3, d1
           0x005c3fea      01301000       btst.l d0, (a0, d1.w)
       < 0x005c3fee      6664           bne.b 0x5c4054
          0x005c3ff0      554f           subq.w 0x2, a7
          0x005c3ff2      3f06           move.w d6, -(a7)
          0x005c3ff4      2f2e001c       move.l 0x1c(a6), -(a7)
          0x005c3ff8      41eefff0       lea.l -0x10(a6), a0
          0x005c3ffc      2f08           move.l a0, -(a7)
          0x005c3ffe      3f04           move.w d4, -(a7)
          0x005c4000      4eb9005eed1e   jsr f_get_field
          0x005c4006      dec2           adda.w d2, a7
          0x005c4008      101f           move.b (a7)+, d0
          0x005c400a      4880           ext.w d0
          0x005c400c      4183           chk.w d3, d0
          0x005c400e      1e00           move.b d0, d7
      < 0x005c4010      6730           beq.b 0x5c4042
         0x005c4012      4280           clr.l d0
         0x005c4014      302efff2       move.w -0xe(a6), d0
         0x005c4018      9085           sub.l d5, d0
         0x005c401a      0c800000ffff   cmpi.l 0xffff, d0
     < 0x005c4020      6302           bls.b 0x5c4024
        0x005c4022      4e4f           trap 0xf
     > 0x005c4024      d085           add.l d5, d0
         0x005c4026      3880           move.w d0, (a4)
         0x005c4028      4280           clr.l d0
         0x005c402a      302efff4       move.w -0xc(a6), d0
         0x005c402e      9085           sub.l d5, d0
         0x005c4030      0c800000ffff   cmpi.l 0xffff, d0
     < 0x005c4036      6302           bls.b 0x5c403a
        0x005c4038      4e4f           trap 0xf
     > 0x005c403a      d085           add.l d5, d0
         0x005c403c      3d40ffe8       move.w d0, -0x18(a6)
     < 0x005c4040      6012           bra.b 0x5c4054
     > 0x005c4042      487ab4a9       pea.l 0x5bf4ed(pc)
         0x005c4046      4878002c       pea.l 0x2c
         0x005c404a      2f17           move.l (a7), -(a7)
         0x005c404c      4e91           jsr (a1)                    ; fcn.0000000a
         0x005c404e      dec2           adda.w d2, a7
         0x005c4050      4e92           jsr (a2)                    ; fcn.00000009+0x2
         0x005c4052      7e01           moveq 0x1, d7
     > 0x005c4054      4a07           tst.b d7
       < 0x005c4056      6614           bne.b 0x5c406c
          0x005c4058      487ab4c0       pea.l 0x5bf51a(pc)
          0x005c405c      4878003f       pea.l 0x3f
          0x005c4060      2f17           move.l (a7), -(a7)
          0x005c4062      4e91           jsr (a1)                    ; fcn.0000000a
          0x005c4064      dec2           adda.w d2, a7
          0x005c4066      4e92           jsr (a2)                    ; fcn.00000009+0x2
          0x005c4068      4213           clr.b (a3)
      < 0x005c406a      6018           bra.b 0x5c4084
      > 0x005c406c      1683           move.b d3, (a3)
          0x005c406e      204c           movea.l a4, a0
          0x005c4070      2f08           move.l a0, -(a7)
          0x005c4072      4878000a       pea.l 0xa
          0x005c4076      2f2e000e       move.l 0xe(a6), -(a7)
          0x005c407a      2f2e000a       move.l 0xa(a6), -(a7)
          0x005c407e      4ebabc5c       jsr AFS_FILER.copy_mem(pc)
          0x005c4082      dec6           adda.w d6, a7
      > 0x005c4084      4cdf1fff       movem.l (a7)+, d0-d7/a0-a4
           0x005c4088      4e5e           unlk a6
           0x005c408a      4e75           rts
 188: AFS_FILER.afs_general_dat ();
           0x005c408c      4e56ffd8       link.w a6, 0xffd8
           0x005c4090      bfd5           cmpa.l (a5), a7
       < 0x005c4092      6206           bhi.b 0x5c409a
          0x005c4094      44fc0002       move.w 0x2, ccr
          0x005c4098      4e76           trapv
       > 0x005c409a      defc0026       adda.w 0x26, a7
           0x005c409e      48e7e180       movem.l d0-d2/d7/a0, -(a7)
           0x005c40a2      41ee0010       lea.l 0x10(a6), a0
           0x005c40a6      223c0000ffff   move.l 0xffff, d1
           0x005c40ac      7401           moveq 0x1, d2
           0x005c40ae      4aae0008       tst.l 0x8(a6)
       < 0x005c40b2      6718           beq.b 0x5c40cc
          0x005c40b4      4227           clr.b -(a7)
          0x005c40b6      2010           move.l (a0), d0
      < 0x005c40b8      6a02           bpl.b 0x5c40bc
         0x005c40ba      4480           neg.l d0
      > 0x005c40bc      b0ae0008       cmp.l 0x8(a6), d0
      < 0x005c40c0      6602           bne.b 0x5c40c4
         0x005c40c2      5217           addq.b 0x1, (a7)
      > 0x005c40c4      4eb90040452a   jsr p_Assert
          0x005c40ca      544f           addq.w 0x2, a7
       > 0x005c40cc      4a2e001c       tst.b 0x1c(a6)
       < 0x005c40d0      6728           beq.b 0x5c40fa
          0x005c40d2      554f           subq.w 0x2, a7
          0x005c40d4      202e000c       move.l 0xc(a6), d0
          0x005c40d8      b081           cmp.l d1, d0
      < 0x005c40da      6302           bls.b 0x5c40de
         0x005c40dc      4e4f           trap 0xf
      > 0x005c40de      3f00           move.w d0, -(a7)
          0x005c40e0      2f2e0018       move.l 0x18(a6), -(a7)
          0x005c40e4      2f2e0014       move.l 0x14(a6), -(a7)
          0x005c40e8      2010           move.l (a0), d0
          0x005c40ea      b081           cmp.l d1, d0
      < 0x005c40ec      6302           bls.b 0x5c40f0
         0x005c40ee      4e4f           trap 0xf
      > 0x005c40f0      3f00           move.w d0, -(a7)
          0x005c40f2      4eb9005eed96   jsr f_put_field
      < 0x005c40f8      6032           bra.b 0x5c412c
      > 0x005c40fa      554f           subq.w 0x2, a7
          0x005c40fc      202e000c       move.l 0xc(a6), d0
          0x005c4100      b081           cmp.l d1, d0
      < 0x005c4102      6302           bls.b 0x5c4106
         0x005c4104      4e4f           trap 0xf
      > 0x005c4106      3f00           move.w d0, -(a7)
          0x005c4108      2f2e0018       move.l 0x18(a6), -(a7)
          0x005c410c      2f2e0014       move.l 0x14(a6), -(a7)
          0x005c4110      2010           move.l (a0), d0
          0x005c4112      0480ffff8000   subi.l 0xffff8000, d0
          0x005c4118      b081           cmp.l d1, d0
      < 0x005c411a      6302           bls.b 0x5c411e
         0x005c411c      4e4f           trap 0xf
      > 0x005c411e      0680ffff8000   addi.l 0xffff8000, d0
          0x005c4124      3f00           move.w d0, -(a7)
          0x005c4126      4eb9005eed1e   jsr f_get_field
      > 0x005c412c      defc000c       adda.w 0xc, a7
           0x005c4130      101f           move.b (a7)+, d0
           0x005c4132      4880           ext.w d0
           0x005c4134      4182           chk.w d2, d0
           0x005c4136      1e00           move.b d0, d7
           0x005c4138      4887           ext.w d7
           0x005c413a      4f82           chk.w d2, d7
           0x005c413c      1d47001e       move.b d7, 0x1e(a6)
           0x005c4140      4cdf0187       movem.l (a7)+, d0-d2/d7/a0
           0x005c4144      4e5e           unlk a6
           0x005c4146      4e75           rts
 110: AFS_FILER.check_plane ();
           0x005c4148      4e56ffd4       link.w a6, 0xffd4
           0x005c414c      bfd5           cmpa.l (a5), a7
       < 0x005c414e      6206           bhi.b 0x5c4156
          0x005c4150      44fc0002       move.w 0x2, ccr
          0x005c4154      4e76           trapv
       > 0x005c4156      defc002c       adda.w 0x2c, a7
           0x005c415a      48e78080       movem.l d0/a0, -(a7)
           0x005c415e      41ee000a       lea.l 0xa(a6), a0
           0x005c4162      554f           subq.w 0x2, a7
           0x005c4164      1f2e0008       move.b 0x8(a6), -(a7)
           0x005c4168      4227           clr.b -(a7)
           0x005c416a      48780000       pea.l 0x0
           0x005c416e      4878ffff       pea.l 0xffff
           0x005c4172      486c0026       pea.l 0x26(a4)
           0x005c4176      2f2c0022       move.l 0x22(a4), -(a7)
           0x005c417a      2f2c001e       move.l 0x1e(a4), -(a7)
           0x005c417e      3f2c001c       move.w 0x1c(a4), -(a7)
           0x005c4182      486c0008       pea.l 0x8(a4)
           0x005c4186      4eb9005ed4dc   jsr FILE_STRUCTURE.fs_file_addr
           0x005c418c      defc001e       adda.w 0x1e, a7
           0x005c4190      4a1f           tst.b (a7)+
       < 0x005c4192      660a           bne.b 0x5c419e
          0x005c4194      4210           clr.b (a0)
          0x005c4196      4eb900404188   jsr p_Unlink
      < 0x005c419c      6010           bra.b 0x5c41ae
      > 0x005c419e      4210           clr.b (a0)
          0x005c41a0      202c0008       move.l 0x8(a4), d0
          0x005c41a4      0c80ffffffff   cmpi.l 0xffffffff, d0
      < 0x005c41aa      6702           beq.b 0x5c41ae
         0x005c41ac      5210           addq.b 0x1, (a0)
      > 0x005c41ae      4cdf0101       movem.l (a7)+, d0/a0
           0x005c41b2      4e5e           unlk a6
           0x005c41b4      4e75           rts
 280: AFS_FILER.afs_planes_data ();
           0x005c41b6      4e56ffc8       link.w a6, 0xffc8
           0x005c41ba      bfd5           cmpa.l (a5), a7
       < 0x005c41bc      6206           bhi.b 0x5c41c4
          0x005c41be      44fc0002       move.w 0x2, ccr
          0x005c41c2      4e76           trapv
       > 0x005c41c4      defc002c       adda.w 0x2c, a7
           0x005c41c8      48e7c0e8       movem.l d0-d1/a0-a2/a4, -(a7)
           0x005c41cc      43eefff4       lea.l -0xc(a6), a1
           0x005c41d0      45faff76       lea.l AFS_FILER.check_plane(pc), a2
           0x005c41d4      7201           moveq 0x1, d1
           0x005c41d6      4a2e001e       tst.b 0x1e(a6)
       < 0x005c41da      6724           beq.b 0x5c4200
          0x005c41dc      487ab3c3       pea.l 0x5bf5a1(pc)
          0x005c41e0      48780019       pea.l 0x19
          0x005c41e4      2f17           move.l (a7), -(a7)
          0x005c41e6      4eb9004047ea   jsr p_wts_o
          0x005c41ec      defc000c       adda.w 0xc, a7
          0x005c41f0      4eb900404946   jsr p_wtln_o
          0x005c41f6      4227           clr.b -(a7)
          0x005c41f8      4eb90040452a   jsr p_Assert
          0x005c41fe      544f           addq.w 0x2, a7
       > 0x005c4200      554f           subq.w 0x2, a7
           0x005c4202      4227           clr.b -(a7)
           0x005c4204      2849           movea.l a1, a4
           0x005c4206      4e92           jsr (a2)                    ; fcn.00000009+0x2
           0x005c4208      544f           addq.w 0x2, a7
           0x005c420a      101f           move.b (a7)+, d0
           0x005c420c      4880           ext.w d0
           0x005c420e      4181           chk.w d1, d0
           0x005c4210      1280           move.b d0, (a1)
           0x005c4212      554f           subq.w 0x2, a7
           0x005c4214      1f01           move.b d1, -(a7)
           0x005c4216      2849           movea.l a1, a4
           0x005c4218      4e92           jsr (a2)                    ; fcn.00000009+0x2
           0x005c421a      544f           addq.w 0x2, a7
           0x005c421c      101f           move.b (a7)+, d0
           0x005c421e      4880           ext.w d0
           0x005c4220      4181           chk.w d1, d0
           0x005c4222      1d40fff5       move.b d0, -0xb(a6)
           0x005c4226      554f           subq.w 0x2, a7
           0x005c4228      1f3c0002       move.b 0x2, -(a7)
           0x005c422c      2849           movea.l a1, a4
           0x005c422e      4e92           jsr (a2)                    ; fcn.00000009+0x2
           0x005c4230      544f           addq.w 0x2, a7
           0x005c4232      101f           move.b (a7)+, d0
           0x005c4234      4880           ext.w d0
           0x005c4236      4181           chk.w d1, d0
           0x005c4238      1d40fff6       move.b d0, -0xa(a6)
           0x005c423c      554f           subq.w 0x2, a7
           0x005c423e      1f3c0003       move.b 0x3, -(a7)
           0x005c4242      2849           movea.l a1, a4
           0x005c4244      4e92           jsr (a2)                    ; fcn.00000009+0x2
           0x005c4246      544f           addq.w 0x2, a7
           0x005c4248      101f           move.b (a7)+, d0
           0x005c424a      4880           ext.w d0
           0x005c424c      4181           chk.w d1, d0
           0x005c424e      1d40fff7       move.b d0, -0x9(a6)
           0x005c4252      554f           subq.w 0x2, a7
           0x005c4254      1f3c0008       move.b 0x8, -(a7)
           0x005c4258      2849           movea.l a1, a4
           0x005c425a      4e92           jsr (a2)                    ; fcn.00000009+0x2
           0x005c425c      544f           addq.w 0x2, a7
           0x005c425e      101f           move.b (a7)+, d0
           0x005c4260      4880           ext.w d0
           0x005c4262      4181           chk.w d1, d0
           0x005c4264      1d40fff8       move.b d0, -0x8(a6)
           0x005c4268      554f           subq.w 0x2, a7
           0x005c426a      1f3c0009       move.b 0x9, -(a7)
           0x005c426e      2849           movea.l a1, a4
           0x005c4270      4e92           jsr (a2)                    ; fcn.00000009+0x2
           0x005c4272      544f           addq.w 0x2, a7
           0x005c4274      101f           move.b (a7)+, d0
           0x005c4276      4880           ext.w d0
           0x005c4278      4181           chk.w d1, d0
           0x005c427a      1d40fff9       move.b d0, -0x7(a6)
           0x005c427e      554f           subq.w 0x2, a7
           0x005c4280      1f3c000a       move.b 0xa, -(a7)
           0x005c4284      2849           movea.l a1, a4
           0x005c4286      4e92           jsr (a2)                    ; fcn.00000009+0x2
           0x005c4288      544f           addq.w 0x2, a7
           0x005c428a      101f           move.b (a7)+, d0
           0x005c428c      4880           ext.w d0
           0x005c428e      4181           chk.w d1, d0
           0x005c4290      1d40fffa       move.b d0, -0x6(a6)
           0x005c4294      554f           subq.w 0x2, a7
           0x005c4296      1f3c000b       move.b 0xb, -(a7)
           0x005c429a      2849           movea.l a1, a4
           0x005c429c      4e92           jsr (a2)                    ; fcn.00000009+0x2
           0x005c429e      544f           addq.w 0x2, a7
           0x005c42a0      101f           move.b (a7)+, d0
           0x005c42a2      4880           ext.w d0
           0x005c42a4      4181           chk.w d1, d0
           0x005c42a6      1d40fffb       move.b d0, -0x5(a6)
           0x005c42aa      2049           movea.l a1, a0
           0x005c42ac      2f08           move.l a0, -(a7)
           0x005c42ae      48780008       pea.l 0x8
           0x005c42b2      2f2e000c       move.l 0xc(a6), -(a7)
           0x005c42b6      2f2e0008       move.l 0x8(a6), -(a7)
           0x005c42ba      4ebaba20       jsr AFS_FILER.copy_mem(pc)
           0x005c42be      defc0010       adda.w 0x10, a7
           0x005c42c2      1d410020       move.b d1, 0x20(a6)
           0x005c42c6      4cdf1703       movem.l (a7)+, d0-d1/a0-a2/a4
           0x005c42ca      4e5e           unlk a6
           0x005c42cc      4e75           rts
            ; CALL XREF from AFS_FILER.afs_get_file_lo @ 0x5c46cc
 238: AFS_FILER.afs_get_f_aspec ();
           0x005c42ce      4e56ffbc       link.w a6, 0xffbc
           0x005c42d2      bfd5           cmpa.l (a5), a7
       < 0x005c42d4      6206           bhi.b 0x5c42dc
          0x005c42d6      44fc0002       move.w 0x2, ccr
          0x005c42da      4e76           trapv
       > 0x005c42dc      defc0034       adda.w 0x34, a7
           0x005c42e0      48e7f9c0       movem.l d0-d4/d7/a0-a1, -(a7)
           0x005c42e4      43eefff0       lea.l -0x10(a6), a1
           0x005c42e8      223cffff8000   move.l 0xffff8000, d1
           0x005c42ee      740c           moveq 0xc, d2
           0x005c42f0      7610           moveq 0x10, d3
           0x005c42f2      7801           moveq 0x1, d4
           0x005c42f4      422e0020       clr.b 0x20(a6)
           0x005c42f8      4a2e001e       tst.b 0x1e(a6)
       < 0x005c42fc      6722           beq.b 0x5c4320
          0x005c42fe      487ab2d3       pea.l 0x5bf5d3(pc)
          0x005c4302      48780019       pea.l 0x19
          0x005c4306      2f17           move.l (a7), -(a7)
          0x005c4308      4eb9004047ea   jsr p_wts_o
          0x005c430e      dec2           adda.w d2, a7
          0x005c4310      4eb900404946   jsr p_wtln_o
          0x005c4316      4227           clr.b -(a7)
          0x005c4318      4eb90040452a   jsr p_Assert
          0x005c431e      544f           addq.w 0x2, a7
       > 0x005c4320      554f           subq.w 0x2, a7
           0x005c4322      3f03           move.w d3, -(a7)
           0x005c4324      2f2e001a       move.l 0x1a(a6), -(a7)
           0x005c4328      41eefff4       lea.l -0xc(a6), a0
           0x005c432c      2f08           move.l a0, -(a7)
           0x005c432e      3f3c000a       move.w 0xa, -(a7)
           0x005c4332      4eb9005eed1e   jsr f_get_field
           0x005c4338      dec2           adda.w d2, a7
           0x005c433a      101f           move.b (a7)+, d0
           0x005c433c      4880           ext.w d0
           0x005c433e      4184           chk.w d4, d0
           0x005c4340      1e00           move.b d0, d7
       < 0x005c4342      6746           beq.b 0x5c438a
          0x005c4344      4280           clr.l d0
          0x005c4346      302efffa       move.w -0x6(a6), d0
          0x005c434a      9081           sub.l d1, d0
          0x005c434c      0c800000ffff   cmpi.l 0xffff, d0
      < 0x005c4352      6302           bls.b 0x5c4356
         0x005c4354      4e4f           trap 0xf
      > 0x005c4356      d081           add.l d1, d0
          0x005c4358      3280           move.w d0, (a1)
          0x005c435a      4280           clr.l d0
          0x005c435c      302efffc       move.w -0x4(a6), d0
          0x005c4360      9081           sub.l d1, d0
          0x005c4362      0c800000ffff   cmpi.l 0xffff, d0
      < 0x005c4368      6302           bls.b 0x5c436c
         0x005c436a      4e4f           trap 0xf
      > 0x005c436c      d081           add.l d1, d0
          0x005c436e      3d40fff2       move.w d0, -0xe(a6)
          0x005c4372      3011           move.w (a1), d0
          0x005c4374      0c4002d0       cmpi.w 0x2d0, d0
      < 0x005c4378      6706           beq.b 0x5c4380
         0x005c437a      0c4002c6       cmpi.w 0x2c6, d0
     < 0x005c437e      660a           bne.b 0x5c438a
     > 0x005c4380      594f           subq.w 0x4, a7
         0x005c4382      4eb900633bb2   jsr HANDCOM.get_pixel_aspec
         0x005c4388      229f           move.l (a7)+, (a1)
     > 0x005c438a      4a07           tst.b d7
       < 0x005c438c      660c           bne.b 0x5c439a
          0x005c438e      594f           subq.w 0x4, a7
          0x005c4390      4eb900633bb2   jsr HANDCOM.get_pixel_aspec
          0x005c4396      229f           move.l (a7)+, (a1)
          0x005c4398      7e01           moveq 0x1, d7
       > 0x005c439a      1d440020       move.b d4, 0x20(a6)
           0x005c439e      2049           movea.l a1, a0
           0x005c43a0      2f08           move.l a0, -(a7)
           0x005c43a2      48780004       pea.l 0x4
           0x005c43a6      2f2e000c       move.l 0xc(a6), -(a7)
           0x005c43aa      2f2e0008       move.l 0x8(a6), -(a7)
           0x005c43ae      4ebab92c       jsr AFS_FILER.copy_mem(pc)
           0x005c43b2      dec3           adda.w d3, a7
           0x005c43b4      4cdf039f       movem.l (a7)+, d0-d4/d7/a0-a1
           0x005c43b8      4e5e           unlk a6
           0x005c43ba      4e75           rts
            ; CALL XREF from AFS_FILER.afs_get_file_lo @ 0x5c465a
 544: AFS_FILER.afs_name ();
           0x005c43bc      4e56fccc       link.w a6, 0xfccc
           0x005c43c0      bfd5           cmpa.l (a5), a7
       < 0x005c43c2      6206           bhi.b 0x5c43ca
          0x005c43c4      44fc0002       move.w 0x2, ccr
          0x005c43c8      4e76           trapv
       > 0x005c43ca      defc018a       adda.w 0x18a, a7
           0x005c43ce      48e7f9f8       movem.l d0-d4/d7/a0-a4, -(a7)
           0x005c43d2      45eefef4       lea.l -0x10c(a6), a2
           0x005c43d6      47ee001c       lea.l 0x1c(a6), a3
           0x005c43da      49eefe56       lea.l -0x1aa(a6), a4
           0x005c43de      7201           moveq 0x1, d1
           0x005c43e0      740c           moveq 0xc, d2
           0x005c43e2      363c0100       move.w 0x100, d3
           0x005c43e6      7814           moveq 0x14, d4
           0x005c43e8      422e0020       clr.b 0x20(a6)
           0x005c43ec      554f           subq.w 0x2, a7
           0x005c43ee      486efeaa       pea.l -0x156(a6)
           0x005c43f2      4eb900404434   jsr fcn.00404434
           0x005c43f8      584f           addq.w 0x4, a7
           0x005c43fa      4a1f           tst.b (a7)+
       < 0x005c43fc      670001d2       beq.w 0x5c45d0
          0x005c4400      4a2e001a       tst.b 0x1a(a6)
      < 0x005c4404      670000d2       beq.w 0x5c44d8
         0x005c4408      2f2e000c       move.l 0xc(a6), -(a7)
         0x005c440c      2f2e0008       move.l 0x8(a6), -(a7)
         0x005c4410      204c           movea.l a4, a0
         0x005c4412      2f08           move.l a0, -(a7)
         0x005c4414      48780054       pea.l 0x54
         0x005c4418      4ebab8c2       jsr AFS_FILER.copy_mem(pc)
         0x005c441c      9efc0042       suba.w 0x42, a7
         0x005c4420      204f           movea.l a7, a0
         0x005c4422      224c           movea.l a4, a1
         0x005c4424      7013           moveq 0x13, d0
     > 0x005c4426      20d9           move.l (a1)+, (a0)+
     < 0x005c4428      51c8fffc       dbra d0, 0x5c4426
         0x005c442c      10d9           move.b (a1)+, (a0)+
         0x005c442e      9ec3           suba.w d3, a7
         0x005c4430      486f0100       pea.l 0x100(a7)
         0x005c4434      4267           clr.w -(a7)
         0x005c4436      3f3c0050       move.w 0x50, -(a7)
         0x005c443a      4eb9005b057c   jsr K3_UTILS.k3_string
         0x005c4440      504f           addq.w 0x8, a7
         0x005c4442      204a           movea.l a2, a0
         0x005c4444      703f           moveq 0x3f, d0
     > 0x005c4446      20df           move.l (a7)+, (a0)+
     < 0x005c4448      51c8fffc       dbra d0, 0x5c4446
         0x005c444c      defc004e       adda.w 0x4e, a7
         0x005c4450      3e84           move.w d4, (a7)
         0x005c4452      2f13           move.l (a3), -(a7)
         0x005c4454      4852           pea.l (a2)
         0x005c4456      4eb9005eedf6   jsr f_put_string
         0x005c445c      defc000a       adda.w 0xa, a7
         0x005c4460      101f           move.b (a7)+, d0
         0x005c4462      4880           ext.w d0
         0x005c4464      4181           chk.w d1, d0
         0x005c4466      1e00           move.b d0, d7
     < 0x005c4468      67000138       beq.w 0x5c45a2
        0x005c446c      554f           subq.w 0x2, a7
        0x005c446e      2f2e0016       move.l 0x16(a6), -(a7)
        0x005c4472      2f2e0012       move.l 0x12(a6), -(a7)
        0x005c4476      3f2e0010       move.w 0x10(a6), -(a7)
        0x005c447a      554f           subq.w 0x2, a7
        0x005c447c      102efea7       move.b -0x159(a6), d0
        0x005c4480      4880           ext.w d0
        0x005c4482      41bc0056       chk.w 0x56, d0
        0x005c4486      1f00           move.b d0, -(a7)
        0x005c4488      4eb9005aeda2   jsr K2_TYPES.k2_afs_extn
        0x005c448e      544f           addq.w 0x2, a7
        0x005c4490      4eb900607b8e   jsr F10_FILELIST.f_retype
        0x005c4496      dec2           adda.w d2, a7
        0x005c4498      101f           move.b (a7)+, d0
        0x005c449a      4880           ext.w d0
        0x005c449c      4181           chk.w d1, d0
        0x005c449e      1e00           move.b d0, d7
        0x005c44a0      554f           subq.w 0x2, a7
        0x005c44a2      102efea7       move.b -0x159(a6), d0
        0x005c44a6      4880           ext.w d0
        0x005c44a8      48c0           ext.l d0
        0x005c44aa      2f00           move.l d0, -(a7)
        0x005c44ac      2f13           move.l (a3), -(a7)
        0x005c44ae      4eb9005e9810   jsr FILE_STRUCTURE.fs_set_ftype
        0x005c44b4      504f           addq.w 0x8, a7
        0x005c44b6      4a1f           tst.b (a7)+
    < 0x005c44b8      660000e8       bne.w 0x5c45a2
       0x005c44bc      487ab140       pea.l 0x5bf5fe(pc)
       0x005c44c0      48780030       pea.l 0x30
       0x005c44c4      2f17           move.l (a7), -(a7)
       0x005c44c6      4eb9004047ea   jsr p_wts_o
       0x005c44cc      dec2           adda.w d2, a7
       0x005c44ce      4eb900404946   jsr p_wtln_o
   < 0x005c44d4      600000cc       bra.w 0x5c45a2
   > 0x005c44d8      554f           subq.w 0x2, a7
       0x005c44da      2f13           move.l (a3), -(a7)
       0x005c44dc      486efff5       pea.l -0xb(a6)
       0x005c44e0      486efffe       pea.l -0x2(a6)
       0x005c44e4      4eb9006084e0   jsr F10_FILELIST.f_hdr_time_crea
       0x005c44ea      dec2           adda.w d2, a7
       0x005c44ec      4a1f           tst.b (a7)+
   < 0x005c44ee      6636           bne.b 0x5c4526
      0x005c44f0      9efc0012       suba.w 0x12, a7
      0x005c44f4      204f           movea.l a7, a0
      0x005c44f6      43fab137       lea.l 0x5bf62f(pc), a1
      0x005c44fa      7010           moveq 0x10, d0
  > 0x005c44fc      10d9           move.b (a1)+, (a0)+
  < 0x005c44fe      51c8fffc       dbra d0, 0x5c44fc
      0x005c4502      4857           pea.l (a7)
      0x005c4504      48780001       pea.l 0x1
      0x005c4508      48780011       pea.l 0x11
      0x005c450c      1f01           move.b d1, -(a7)
      0x005c450e      1f01           move.b d1, -(a7)
      0x005c4510      204a           movea.l a2, a0
      0x005c4512      7011           moveq 0x11, d0
  > 0x005c4514      2f20           move.l -(a0), -(a7)
  < 0x005c4516      51c8fffc       dbra d0, 0x5c4514
      0x005c451a      3f20           move.w -(a0), -(a7)
      0x005c451c      4eb9005c6e76   jsr AFS1_UTIL.afs1_abort
      0x005c4522      defc006c       adda.w 0x6c, a7
   > 0x005c4526      9ec3           suba.w d3, a7
       0x005c4528      3f04           move.w d4, -(a7)
       0x005c452a      2f13           move.l (a3), -(a7)
       0x005c452c      4eb9005eed64   jsr f_get_string
       0x005c4532      5c4f           addq.w 0x6, a7
       0x005c4534      204a           movea.l a2, a0
       0x005c4536      703f           moveq 0x3f, d0
   > 0x005c4538      20df           move.l (a7)+, (a0)+
   < 0x005c453a      51c8fffc       dbra d0, 0x5c4538
       0x005c453e      9ec3           suba.w d3, a7
       0x005c4540      204f           movea.l a7, a0
       0x005c4542      224a           movea.l a2, a1
       0x005c4544      703f           moveq 0x3f, d0
   > 0x005c4546      20d9           move.l (a1)+, (a0)+
   < 0x005c4548      51c8fffc       dbra d0, 0x5c4546
       0x005c454c      9efc0052       suba.w 0x52, a7
       0x005c4550      486f0052       pea.l 0x52(a7)
       0x005c4554      4267           clr.w -(a7)
       0x005c4556      3f3c00ff       move.w 0xff, -(a7)
       0x005c455a      4eb9005b04aa   jsr K3_UTILS.k3_make_str
       0x005c4560      504f           addq.w 0x8, a7
       0x005c4562      204c           movea.l a4, a0
       0x005c4564      7013           moveq 0x13, d0
   > 0x005c4566      20df           move.l (a7)+, (a0)+
   < 0x005c4568      51c8fffc       dbra d0, 0x5c4566
       0x005c456c      10df           move.b (a7)+, (a0)+
       0x005c456e      dec3           adda.w d3, a7
       0x005c4570      426efea8       clr.w -0x158(a6)
       0x005c4574      554f           subq.w 0x2, a7
       0x005c4576      2f13           move.l (a3), -(a7)
       0x005c4578      486efea7       pea.l -0x159(a6)
       0x005c457c      4ebab7fc       jsr AFS_FILER.get_ftype(pc)
       0x005c4580      504f           addq.w 0x8, a7
       0x005c4582      101f           move.b (a7)+, d0
       0x005c4584      4880           ext.w d0
       0x005c4586      4181           chk.w d1, d0
       0x005c4588      1e00           move.b d0, d7
       0x005c458a      204c           movea.l a4, a0
       0x005c458c      2f08           move.l a0, -(a7)
       0x005c458e      48780054       pea.l 0x54
       0x005c4592      2f2e000c       move.l 0xc(a6), -(a7)
       0x005c4596      2f2e0008       move.l 0x8(a6), -(a7)
       0x005c459a      4ebab740       jsr AFS_FILER.copy_mem(pc)
       0x005c459e      defc0010       adda.w 0x10, a7
   > 0x005c45a2      4a07           tst.b d7
      < 0x005c45a4      6624           bne.b 0x5c45ca
         0x005c45a6      487ab099       pea.l 0x5bf641(pc)
         0x005c45aa      48780038       pea.l 0x38
         0x005c45ae      2f17           move.l (a7), -(a7)
         0x005c45b0      4eb9004047ea   jsr p_wts_o
         0x005c45b6      dec2           adda.w d2, a7
         0x005c45b8      4eb900404946   jsr p_wtln_o
         0x005c45be      486efeaa       pea.l -0x156(a6)
         0x005c45c2      4eb900404468   jsr fcn.00404468
         0x005c45c8      584f           addq.w 0x4, a7
      > 0x005c45ca      1d410020       move.b d1, 0x20(a6)
      < 0x005c45ce      6004           bra.b 0x5c45d4
      > 0x005c45d0      422e0020       clr.b 0x20(a6)
      > 0x005c45d4      4cdf1f9f       movem.l (a7)+, d0-d4/d7/a0-a4
           0x005c45d8      4e5e           unlk a6
           0x005c45da      4e75           rts
            ; CALL XREF from AFS_FILER.afs_get_file_lo @ 0x5c470a
 54: AFS_FILER.not_resizable ();
           ; var int32_t var_5h @ a6-0x5
           0x005c45dc      4e56ffe6       link.w a6, 0xffe6
           0x005c45e0      bfd5           cmpa.l (a5), a7
       < 0x005c45e2      6206           bhi.b 0x5c45ea
          0x005c45e4      44fc0002       move.w 0x2, ccr
          0x005c45e8      4e76           trapv
       > 0x005c45ea      defc0014       adda.w 0x14, a7
           0x005c45ee      2f2e0008       move.l 0x8(a6), -(a7)
           0x005c45f2      486efffa       pea.l -0x6(a6)
           0x005c45f6      486efffb       pea.l -0x5(a6)
           0x005c45fa      486efffc       pea.l -0x4(a6)
           0x005c45fe      4eb9005e9616   jsr FILE_STRUCTURE.fs_crack_format
           0x005c4604      defc0010       adda.w 0x10, a7
           0x005c4608      1d6efffb000c   move.b -0x5(a6), 0xc(a6)
           0x005c460e      4e5e           unlk a6
           0x005c4610      4e75           rts
 304: AFS_FILER.afs_get_file_lo ();
           ; var int32_t var_dh @ a6-0xd
           0x005c4612      4e56ff48       link.w a6, 0xff48
           0x005c4616      bfd5           cmpa.l (a5), a7
       < 0x005c4618      6206           bhi.b 0x5c4620
          0x005c461a      44fc0002       move.w 0x2, ccr
          0x005c461e      4e76           trapv
       > 0x005c4620      defc0048       adda.w 0x48, a7
           0x005c4624      48e7f1f8       movem.l d0-d3/d7/a0-a4, -(a7)
           0x005c4628      43ee001a       lea.l 0x1a(a6), a1
           0x005c462c      45ee001e       lea.l 0x1e(a6), a2
           0x005c4630      47ee0016       lea.l 0x16(a6), a3
           0x005c4634      49ee0012       lea.l 0x12(a6), a4
           0x005c4638      7201           moveq 0x1, d1
           0x005c463a      7418           moveq 0x18, d2
           0x005c463c      7610           moveq 0x10, d3
           0x005c463e      422eff9f       clr.b -0x61(a6)
           0x005c4642      554f           subq.w 0x2, a7
           0x005c4644      2f11           move.l (a1), -(a7)
           0x005c4646      1f12           move.b (a2), -(a7)
           0x005c4648      2f13           move.l (a3), -(a7)
           0x005c464a      2f14           move.l (a4), -(a7)
           0x005c464c      3f2e0010       move.w 0x10(a6), -(a7)
           0x005c4650      41eeffa2       lea.l -0x5e(a6), a0
           0x005c4654      2f08           move.l a0, -(a7)
           0x005c4656      48780054       pea.l 0x54
           0x005c465a      4ebafd60       jsr AFS_FILER.afs_name(pc)
           0x005c465e      dec2           adda.w d2, a7
           0x005c4660      101f           move.b (a7)+, d0
           0x005c4662      4880           ext.w d0
           0x005c4664      4181           chk.w d1, d0
           0x005c4666      1e00           move.b d0, d7
       < 0x005c4668      672c           beq.b 0x5c4696
          0x005c466a      554f           subq.w 0x2, a7
          0x005c466c      1f12           move.b (a2), -(a7)
          0x005c466e      2f11           move.l (a1), -(a7)
          0x005c4670      2f13           move.l (a3), -(a7)
          0x005c4672      2f14           move.l (a4), -(a7)
          0x005c4674      3f2e0010       move.w 0x10(a6), -(a7)
          0x005c4678      41eeff90       lea.l -0x70(a6), a0
          0x005c467c      2f08           move.l a0, -(a7)
          0x005c467e      4878000a       pea.l 0xa
          0x005c4682      1f2efff3       move.b -0xd(a6), -(a7)
          0x005c4686      4ebaf87c       jsr AFS_FILER.afs_get_file_si(pc)
          0x005c468a      defc001a       adda.w 0x1a, a7
          0x005c468e      101f           move.b (a7)+, d0
          0x005c4690      4880           ext.w d0
          0x005c4692      4181           chk.w d1, d0
          0x005c4694      1e00           move.b d0, d7
       > 0x005c4696      4a07           tst.b d7
       < 0x005c4698      6708           beq.b 0x5c46a2
          0x005c469a      1d6efff3ff9e   move.b -0xd(a6), -0x62(a6)
      < 0x005c46a0      6004           bra.b 0x5c46a6
      > 0x005c46a2      1d41ff9e       move.b d1, -0x62(a6)
      > 0x005c46a6      4a07           tst.b d7
       < 0x005c46a8      6730           beq.b 0x5c46da
          0x005c46aa      102efff3       move.b -0xd(a6), d0
          0x005c46ae      0c000033       cmpi.b 0x33, d0
      < 0x005c46b2      6726           beq.b 0x5c46da
         0x005c46b4      554f           subq.w 0x2, a7
         0x005c46b6      1f12           move.b (a2), -(a7)
         0x005c46b8      2f11           move.l (a1), -(a7)
         0x005c46ba      2f13           move.l (a3), -(a7)
         0x005c46bc      2f14           move.l (a4), -(a7)
         0x005c46be      3f2e0010       move.w 0x10(a6), -(a7)
         0x005c46c2      41eeff9a       lea.l -0x66(a6), a0
         0x005c46c6      2f08           move.l a0, -(a7)
         0x005c46c8      48780004       pea.l 0x4
         0x005c46cc      4ebafc00       jsr AFS_FILER.afs_get_f_aspec(pc)
         0x005c46d0      dec2           adda.w d2, a7
         0x005c46d2      101f           move.b (a7)+, d0
         0x005c46d4      4880           ext.w d0
         0x005c46d6      4181           chk.w d1, d0
         0x005c46d8      1e00           move.b d0, d7
      > 0x005c46da      422effa0       clr.b -0x60(a6)
           0x005c46de      4a07           tst.b d7
       < 0x005c46e0      6738           beq.b 0x5c471a
          0x005c46e2      554f           subq.w 0x2, a7
          0x005c46e4      3f03           move.w d3, -(a7)
          0x005c46e6      2f11           move.l (a1), -(a7)
          0x005c46e8      41eefff6       lea.l -0xa(a6), a0
          0x005c46ec      2f08           move.l a0, -(a7)
          0x005c46ee      3f3c000a       move.w 0xa, -(a7)
          0x005c46f2      4eb9005eed1e   jsr f_get_field
          0x005c46f8      defc000c       adda.w 0xc, a7
          0x005c46fc      4a1f           tst.b (a7)+
      < 0x005c46fe      671a           beq.b 0x5c471a
         0x005c4700      554f           subq.w 0x2, a7
         0x005c4702      4280           clr.l d0
         0x005c4704      302efff6       move.w -0xa(a6), d0
         0x005c4708      2f00           move.l d0, -(a7)
         0x005c470a      4ebafed0       jsr AFS_FILER.not_resizable(pc)
         0x005c470e      584f           addq.w 0x4, a7
         0x005c4710      101f           move.b (a7)+, d0
         0x005c4712      4880           ext.w d0
         0x005c4714      4181           chk.w d1, d0
         0x005c4716      1d40ffa0       move.b d0, -0x60(a6)
      > 0x005c471a      4a07           tst.b d7
       < 0x005c471c      6718           beq.b 0x5c4736
          0x005c471e      41eeff90       lea.l -0x70(a6), a0
          0x005c4722      2f08           move.l a0, -(a7)
          0x005c4724      48780011       pea.l 0x11
          0x005c4728      2f2e000c       move.l 0xc(a6), -(a7)
          0x005c472c      2f2e0008       move.l 0x8(a6), -(a7)
          0x005c4730      4ebab5aa       jsr AFS_FILER.copy_mem(pc)
          0x005c4734      dec3           adda.w d3, a7
       > 0x005c4736      1d470020       move.b d7, 0x20(a6)
           0x005c473a      4cdf1f8f       movem.l (a7)+, d0-d3/d7/a0-a4
           0x005c473e      4e5e           unlk a6
           0x005c4740      4e75           rts
 166: AFS_FILER.afs_font_master ();
           0x005c4742      4e56ffd8       link.w a6, 0xffd8
           0x005c4746      bfd5           cmpa.l (a5), a7
       < 0x005c4748      6206           bhi.b 0x5c4750
          0x005c474a      44fc0002       move.w 0x2, ccr
          0x005c474e      4e76           trapv
       > 0x005c4750      defc0026       adda.w 0x26, a7
           0x005c4754      48e7e180       movem.l d0-d2/d7/a0, -(a7)
           0x005c4758      41ee0008       lea.l 0x8(a6), a0
           0x005c475c      7212           moveq 0x12, d1
           0x005c475e      7401           moveq 0x1, d2
           0x005c4760      4227           clr.b -(a7)
           0x005c4762      2010           move.l (a0), d0
           0x005c4764      0c8000000016   cmpi.l 0x16, d0
       < 0x005c476a      6602           bne.b 0x5c476e
          0x005c476c      5217           addq.b 0x1, (a7)
       > 0x005c476e      4eb90040452a   jsr p_Assert
           0x005c4774      544f           addq.w 0x2, a7
           0x005c4776      4a2e0014       tst.b 0x14(a6)
       < 0x005c477a      6722           beq.b 0x5c479e
          0x005c477c      554f           subq.w 0x2, a7
          0x005c477e      3f01           move.w d1, -(a7)
          0x005c4780      2f2e0010       move.l 0x10(a6), -(a7)
          0x005c4784      2f2e000c       move.l 0xc(a6), -(a7)
          0x005c4788      2010           move.l (a0), d0
          0x005c478a      0c800000ffff   cmpi.l 0xffff, d0
      < 0x005c4790      6302           bls.b 0x5c4794
         0x005c4792      4e4f           trap 0xf
      > 0x005c4794      3f00           move.w d0, -(a7)
          0x005c4796      4eb9005eed96   jsr f_put_field
      < 0x005c479c      602e           bra.b 0x5c47cc
      > 0x005c479e      4490           neg.l (a0)
          0x005c47a0      554f           subq.w 0x2, a7
          0x005c47a2      3f01           move.w d1, -(a7)
          0x005c47a4      2f2e0010       move.l 0x10(a6), -(a7)
          0x005c47a8      2f2e000c       move.l 0xc(a6), -(a7)
          0x005c47ac      2010           move.l (a0), d0
          0x005c47ae      0480ffff8000   subi.l 0xffff8000, d0
          0x005c47b4      0c800000ffff   cmpi.l 0xffff, d0
      < 0x005c47ba      6302           bls.b 0x5c47be
         0x005c47bc      4e4f           trap 0xf
      > 0x005c47be      0680ffff8000   addi.l 0xffff8000, d0
          0x005c47c4      3f00           move.w d0, -(a7)
          0x005c47c6      4eb9005eed1e   jsr f_get_field
      > 0x005c47cc      defc000c       adda.w 0xc, a7
           0x005c47d0      101f           move.b (a7)+, d0
           0x005c47d2      4880           ext.w d0
           0x005c47d4      4182           chk.w d2, d0
           0x005c47d6      1e00           move.b d0, d7
           0x005c47d8      4887           ext.w d7
           0x005c47da      4f82           chk.w d2, d7
           0x005c47dc      1d470016       move.b d7, 0x16(a6)
           0x005c47e0      4cdf0187       movem.l (a7)+, d0-d2/d7/a0
           0x005c47e4      4e5e           unlk a6
           0x005c47e6      4e75           rts
            ; CALL XREF from AFS_FILER.afs_cutout_data @ 0x5c4a6e
 310: AFS_FILER.header_put_cuto (int32_t arg_1h, int32_t arg_2h, int32_t arg_3h, int32_t arg_4h, int32_t arg_5h, int32_t arg_6h, int32_t arg_7h, int32_t arg_8h, int32_t arg_ah, int32_t arg_ch, int32_t arg_eh);
           ; arg int32_t arg_1h @ a6+0x1
           ; arg int32_t arg_2h @ a6+0x2
           ; arg int32_t arg_3h @ a6+0x3
           ; arg int32_t arg_4h @ a6+0x4
           ; arg int32_t arg_5h @ a6+0x5
           ; arg int32_t arg_6h @ a6+0x6
           ; arg int32_t arg_7h @ a6+0x7
           ; arg int32_t arg_8h @ a6+0x8
           ; arg int32_t arg_ah @ a6+0xa
           ; arg int32_t arg_ch @ a6+0xc
           ; arg int32_t arg_eh @ a6+0xe
           0x005c47e8      4e56ffa6       link.w a6, 0xffa6
           0x005c47ec      bfd5           cmpa.l (a5), a7
       < 0x005c47ee      6206           bhi.b 0x5c47f6
          0x005c47f0      44fc0002       move.w 0x2, ccr
          0x005c47f4      4e76           trapv
       > 0x005c47f6      defc0026       adda.w 0x26, a7
           0x005c47fa      48e7e088       movem.l d0-d2/a0/a4, -(a7)
           0x005c47fe      720c           moveq 0xc, d1
           0x005c4800      7412           moveq 0x12, d2
           0x005c4802      422e0014       clr.b 0x14(a6)
           0x005c4806      4227           clr.b -(a7)
           0x005c4808      202e0008       move.l 0x8(a6), d0
           0x005c480c      b082           cmp.l d2, d0
       < 0x005c480e      6602           bne.b 0x5c4812
          0x005c4810      5217           addq.b 0x1, (a7)
       > 0x005c4812      4eb90040452a   jsr p_Assert
           0x005c4818      544f           addq.w 0x2, a7
           0x005c481a      286e000c       movea.l 0xc(a6), a4
           0x005c481e      2d7c00000008.  move.l 0x8, -0x30(a6)
           0x005c4826      41eeffd8       lea.l -0x28(a6), a0
           0x005c482a      2f08           move.l a0, -(a7)
           0x005c482c      2d5fffd4       move.l (a7)+, -0x2c(a6)
           0x005c4830      2d7c00000018.  move.l 0x18, -0x20(a6)
           0x005c4838      41eeffe8       lea.l -0x18(a6), a0
           0x005c483c      2f08           move.l a0, -(a7)
           0x005c483e      2d5fffe4       move.l (a7)+, -0x1c(a6)
           0x005c4842      1d54ffd8       move.b (a4), -0x28(a6)
           0x005c4846      1d6c0001ffd9   move.b 0x1(a4), -0x27(a6)
           0x005c484c      1d6c0002ffda   move.b 0x2(a4), -0x26(a6)
           0x005c4852      1d6c0003ffdb   move.b 0x3(a4), -0x25(a6)
           0x005c4858      1d6c0004ffdc   move.b 0x4(a4), -0x24(a6)
           0x005c485e      1d6c0005ffdd   move.b 0x5(a4), -0x23(a6)
           0x005c4864      1d6c0006ffde   move.b 0x6(a4), -0x22(a6)
           0x005c486a      1d6c0007ffdf   move.b 0x7(a4), -0x21(a6)
           0x005c4870      3d6c0008ffe8   move.w 0x8(a4), -0x18(a6)
           0x005c4876      3d6c000affea   move.w 0xa(a4), -0x16(a6)
           0x005c487c      3d6c000cffec   move.w 0xc(a4), -0x14(a6)
           0x005c4882      3d6c000effee   move.w 0xe(a4), -0x12(a6)
           0x005c4888      426efff0       clr.w -0x10(a6)
           0x005c488c      426efff2       clr.w -0xe(a6)
           0x005c4890      426efff4       clr.w -0xc(a6)
           0x005c4894      426efff6       clr.w -0xa(a6)
           0x005c4898      426efff8       clr.w -0x8(a6)
           0x005c489c      426efffa       clr.w -0x6(a6)
           0x005c48a0      426efffc       clr.w -0x4(a6)
           0x005c48a4      426efffe       clr.w -0x2(a6)
           0x005c48a8      554f           subq.w 0x2, a7
           0x005c48aa      3f02           move.w d2, -(a7)
           0x005c48ac      2f2e0010       move.l 0x10(a6), -(a7)
           0x005c48b0      2f2effd4       move.l -0x2c(a6), -(a7)
           0x005c48b4      7008           moveq 0x8, d0
           0x005c48b6      0c800000ffff   cmpi.l 0xffff, d0
       < 0x005c48bc      6302           bls.b 0x5c48c0
          0x005c48be      4e4f           trap 0xf
       > 0x005c48c0      3f00           move.w d0, -(a7)
           0x005c48c2      4eb9005eed96   jsr f_put_field
           0x005c48c8      dec1           adda.w d1, a7
           0x005c48ca      4a1f           tst.b (a7)+
       < 0x005c48cc      6728           beq.b 0x5c48f6
          0x005c48ce      554f           subq.w 0x2, a7
          0x005c48d0      3f3c0019       move.w 0x19, -(a7)
          0x005c48d4      2f2e0010       move.l 0x10(a6), -(a7)
          0x005c48d8      2f2effe4       move.l -0x1c(a6), -(a7)
          0x005c48dc      7018           moveq 0x18, d0
          0x005c48de      0c800000ffff   cmpi.l 0xffff, d0
      < 0x005c48e4      6302           bls.b 0x5c48e8
         0x005c48e6      4e4f           trap 0xf
      > 0x005c48e8      3f00           move.w d0, -(a7)
          0x005c48ea      4eb9005eed96   jsr f_put_field
          0x005c48f0      dec1           adda.w d1, a7
          0x005c48f2      4a1f           tst.b (a7)+
      < 0x005c48f4      661a           bne.b 0x5c4910
      > 0x005c48f6      487aadbb       pea.l 0x5bf6b3(pc)
          0x005c48fa      48780028       pea.l 0x28
          0x005c48fe      2f17           move.l (a7), -(a7)
          0x005c4900      4eb9004047ea   jsr p_wts_o
          0x005c4906      dec1           adda.w d1, a7
          0x005c4908      4eb900404946   jsr p_wtln_o
      < 0x005c490e      6006           bra.b 0x5c4916
      > 0x005c4910      1d7c00010014   move.b 0x1, 0x14(a6)
       > 0x005c4916      4cdf1107       movem.l (a7)+, d0-d2/a0/a4
           0x005c491a      4e5e           unlk a6
           0x005c491c      4e75           rts
            ; CALL XREF from AFS_FILER.afs_cutout_data @ 0x5c4a82
 292: AFS_FILER.header_get_cuto ();
           0x005c491e      4e56ffa2       link.w a6, 0xffa2
           0x005c4922      bfd5           cmpa.l (a5), a7
       < 0x005c4924      6206           bhi.b 0x5c492c
          0x005c4926      44fc0002       move.w 0x2, ccr
          0x005c492a      4e76           trapv
       > 0x005c492c      defc002a       adda.w 0x2a, a7
           0x005c4930      48e7f088       movem.l d0-d3/a0/a4, -(a7)
           0x005c4934      223cffff8000   move.l 0xffff8000, d1
           0x005c493a      7412           moveq 0x12, d2
           0x005c493c      760c           moveq 0xc, d3
           0x005c493e      422e0014       clr.b 0x14(a6)
           0x005c4942      4227           clr.b -(a7)
           0x005c4944      202e0008       move.l 0x8(a6), d0
           0x005c4948      b082           cmp.l d2, d0
       < 0x005c494a      6602           bne.b 0x5c494e
          0x005c494c      5217           addq.b 0x1, (a7)
       > 0x005c494e      4eb90040452a   jsr p_Assert
           0x005c4954      544f           addq.w 0x2, a7
           0x005c4956      286e000c       movea.l 0xc(a6), a4
           0x005c495a      2d7c00000008.  move.l 0x8, -0x30(a6)
           0x005c4962      41eeffd8       lea.l -0x28(a6), a0
           0x005c4966      2f08           move.l a0, -(a7)
           0x005c4968      2d5fffd4       move.l (a7)+, -0x2c(a6)
           0x005c496c      2d7c00000018.  move.l 0x18, -0x20(a6)
           0x005c4974      41eeffe8       lea.l -0x18(a6), a0
           0x005c4978      2f08           move.l a0, -(a7)
           0x005c497a      2d5fffe4       move.l (a7)+, -0x1c(a6)
           0x005c497e      426c0008       clr.w 0x8(a4)
           0x005c4982      426c000a       clr.w 0xa(a4)
           0x005c4986      426c000c       clr.w 0xc(a4)
           0x005c498a      426c000e       clr.w 0xe(a4)
           0x005c498e      426efff0       clr.w -0x10(a6)
           0x005c4992      554f           subq.w 0x2, a7
           0x005c4994      3f3c0019       move.w 0x19, -(a7)
           0x005c4998      2f2e0010       move.l 0x10(a6), -(a7)
           0x005c499c      2f2effe4       move.l -0x1c(a6), -(a7)
           0x005c49a0      7018           moveq 0x18, d0
           0x005c49a2      4480           neg.l d0
           0x005c49a4      9081           sub.l d1, d0
           0x005c49a6      0c800000ffff   cmpi.l 0xffff, d0
       < 0x005c49ac      6302           bls.b 0x5c49b0
          0x005c49ae      4e4f           trap 0xf
       > 0x005c49b0      d081           add.l d1, d0
           0x005c49b2      3f00           move.w d0, -(a7)
           0x005c49b4      4eb9005eed1e   jsr f_get_field
           0x005c49ba      dec3           adda.w d3, a7
           0x005c49bc      4a1f           tst.b (a7)+
       < 0x005c49be      671c           beq.b 0x5c49dc
          0x005c49c0      396effe80008   move.w -0x18(a6), 0x8(a4)
          0x005c49c6      396effea000a   move.w -0x16(a6), 0xa(a4)
          0x005c49cc      396effec000c   move.w -0x14(a6), 0xc(a4)
          0x005c49d2      396effee000e   move.w -0x12(a6), 0xe(a4)
          0x005c49d8      426c0010       clr.w 0x10(a4)
       > 0x005c49dc      554f           subq.w 0x2, a7
           0x005c49de      3f02           move.w d2, -(a7)
           0x005c49e0      2f2e0010       move.l 0x10(a6), -(a7)
           0x005c49e4      2f2effd4       move.l -0x2c(a6), -(a7)
           0x005c49e8      7008           moveq 0x8, d0
           0x005c49ea      9081           sub.l d1, d0
           0x005c49ec      0c800000ffff   cmpi.l 0xffff, d0
       < 0x005c49f2      6302           bls.b 0x5c49f6
          0x005c49f4      4e4f           trap 0xf
       > 0x005c49f6      d081           add.l d1, d0
           0x005c49f8      3f00           move.w d0, -(a7)
           0x005c49fa      4eb9005eed1e   jsr f_get_field
           0x005c4a00      dec3           adda.w d3, a7
           0x005c4a02      4a1f           tst.b (a7)+
       < 0x005c4a04      6734           beq.b 0x5c4a3a
          0x005c4a06      18aeffd8       move.b -0x28(a6), (a4)
          0x005c4a0a      196effd90001   move.b -0x27(a6), 0x1(a4)
          0x005c4a10      196effda0002   move.b -0x26(a6), 0x2(a4)
          0x005c4a16      196effdb0003   move.b -0x25(a6), 0x3(a4)
          0x005c4a1c      196effdc0004   move.b -0x24(a6), 0x4(a4)
          0x005c4a22      196effdd0005   move.b -0x23(a6), 0x5(a4)
          0x005c4a28      196effde0006   move.b -0x22(a6), 0x6(a4)
          0x005c4a2e      196effdf0007   move.b -0x21(a6), 0x7(a4)
          0x005c4a34      1d7c00010014   move.b 0x1, 0x14(a6)
       > 0x005c4a3a      4cdf110f       movem.l (a7)+, d0-d3/a0/a4
           0x005c4a3e      4e5e           unlk a6
           0x005c4a40      4e75           rts
 96: AFS_FILER.afs_cutout_data ();
           0x005c4a42      4e56ffe0       link.w a6, 0xffe0
           0x005c4a46      bfd5           cmpa.l (a5), a7
       < 0x005c4a48      6206           bhi.b 0x5c4a50
          0x005c4a4a      44fc0002       move.w 0x2, ccr
          0x005c4a4e      4e76           trapv
       > 0x005c4a50      defc001e       adda.w 0x1e, a7
           0x005c4a54      48e7c100       movem.l d0-d1/d7, -(a7)
           0x005c4a58      7201           moveq 0x1, d1
           0x005c4a5a      4a2e0014       tst.b 0x14(a6)
       < 0x005c4a5e      6714           beq.b 0x5c4a74
          0x005c4a60      554f           subq.w 0x2, a7
          0x005c4a62      2f2e0010       move.l 0x10(a6), -(a7)
          0x005c4a66      2f2e000c       move.l 0xc(a6), -(a7)
          0x005c4a6a      2f2e0008       move.l 0x8(a6), -(a7)
          0x005c4a6e      4ebafd78       jsr AFS_FILER.header_put_cuto(pc)
      < 0x005c4a72      6012           bra.b 0x5c4a86
      > 0x005c4a74      554f           subq.w 0x2, a7
          0x005c4a76      2f2e0010       move.l 0x10(a6), -(a7)
          0x005c4a7a      2f2e000c       move.l 0xc(a6), -(a7)
          0x005c4a7e      2f2e0008       move.l 0x8(a6), -(a7)
          0x005c4a82      4ebafe9a       jsr AFS_FILER.header_get_cuto(pc)
      > 0x005c4a86      defc000c       adda.w 0xc, a7
           0x005c4a8a      101f           move.b (a7)+, d0
           0x005c4a8c      4880           ext.w d0
           0x005c4a8e      4181           chk.w d1, d0
           0x005c4a90      1e00           move.b d0, d7
           0x005c4a92      4887           ext.w d7
           0x005c4a94      4f81           chk.w d1, d7
           0x005c4a96      1d470016       move.b d7, 0x16(a6)
           0x005c4a9a      4cdf0083       movem.l (a7)+, d0-d1/d7
           0x005c4a9e      4e5e           unlk a6
           0x005c4aa0      4e75           rts
 144: AFS_FILER.afs_grid_data ();
           0x005c4aa2      4e56ffdc       link.w a6, 0xffdc
           0x005c4aa6      bfd5           cmpa.l (a5), a7
       < 0x005c4aa8      6206           bhi.b 0x5c4ab0
          0x005c4aaa      44fc0002       move.w 0x2, ccr
          0x005c4aae      4e76           trapv
       > 0x005c4ab0      defc0022       adda.w 0x22, a7
           0x005c4ab4      48e7e100       movem.l d0-d2/d7, -(a7)
           0x005c4ab8      7212           moveq 0x12, d1
           0x005c4aba      7401           moveq 0x1, d2
           0x005c4abc      4a2e0014       tst.b 0x14(a6)
       < 0x005c4ac0      6724           beq.b 0x5c4ae6
          0x005c4ac2      554f           subq.w 0x2, a7
          0x005c4ac4      3f01           move.w d1, -(a7)
          0x005c4ac6      2f2e0010       move.l 0x10(a6), -(a7)
          0x005c4aca      2f2e000c       move.l 0xc(a6), -(a7)
          0x005c4ace      202e0008       move.l 0x8(a6), d0
          0x005c4ad2      0c800000ffff   cmpi.l 0xffff, d0
      < 0x005c4ad8      6302           bls.b 0x5c4adc
         0x005c4ada      4e4f           trap 0xf
      > 0x005c4adc      3f00           move.w d0, -(a7)
          0x005c4ade      4eb9005eed96   jsr f_put_field
      < 0x005c4ae4      6030           bra.b 0x5c4b16
      > 0x005c4ae6      554f           subq.w 0x2, a7
          0x005c4ae8      3f01           move.w d1, -(a7)
          0x005c4aea      2f2e0010       move.l 0x10(a6), -(a7)
          0x005c4aee      2f2e000c       move.l 0xc(a6), -(a7)
          0x005c4af2      202e0008       move.l 0x8(a6), d0
          0x005c4af6      4480           neg.l d0
          0x005c4af8      0480ffff8000   subi.l 0xffff8000, d0
          0x005c4afe      0c800000ffff   cmpi.l 0xffff, d0
      < 0x005c4b04      6302           bls.b 0x5c4b08
         0x005c4b06      4e4f           trap 0xf
      > 0x005c4b08      0680ffff8000   addi.l 0xffff8000, d0
          0x005c4b0e      3f00           move.w d0, -(a7)
          0x005c4b10      4eb9005eed1e   jsr f_get_field
      > 0x005c4b16      defc000c       adda.w 0xc, a7
           0x005c4b1a      101f           move.b (a7)+, d0
           0x005c4b1c      4880           ext.w d0
           0x005c4b1e      4182           chk.w d2, d0
           0x005c4b20      1e00           move.b d0, d7
           0x005c4b22      4887           ext.w d7
           0x005c4b24      4f82           chk.w d2, d7
           0x005c4b26      1d470016       move.b d7, 0x16(a6)
           0x005c4b2a      4cdf0087       movem.l (a7)+, d0-d2/d7
           0x005c4b2e      4e5e           unlk a6
           0x005c4b30      4e75           rts
 178: AFS_FILER.afs_desk_data ();
           0x005c4b32      4e56ffcc       link.w a6, 0xffcc
           0x005c4b36      bfd5           cmpa.l (a5), a7
       < 0x005c4b38      6206           bhi.b 0x5c4b40
          0x005c4b3a      44fc0002       move.w 0x2, ccr
          0x005c4b3e      4e76           trapv
       > 0x005c4b40      defc0032       adda.w 0x32, a7
           0x005c4b44      48e7f1c0       movem.l d0-d3/d7/a0-a1, -(a7)
           0x005c4b48      43ee0010       lea.l 0x10(a6), a1
           0x005c4b4c      7246           moveq 0x46, d1
           0x005c4b4e      7401           moveq 0x1, d2
           0x005c4b50      760c           moveq 0xc, d3
           0x005c4b52      4a2e0014       tst.b 0x14(a6)
       < 0x005c4b56      672e           beq.b 0x5c4b86
          0x005c4b58      554f           subq.w 0x2, a7
          0x005c4b5a      3f01           move.w d1, -(a7)
          0x005c4b5c      2f11           move.l (a1), -(a7)
          0x005c4b5e      2f2e000c       move.l 0xc(a6), -(a7)
          0x005c4b62      206e0008       movea.l 0x8(a6), a0
          0x005c4b66      2010           move.l (a0), d0
          0x005c4b68      0c800000ffff   cmpi.l 0xffff, d0
      < 0x005c4b6e      6302           bls.b 0x5c4b72
         0x005c4b70      4e4f           trap 0xf
      > 0x005c4b72      3f00           move.w d0, -(a7)
          0x005c4b74      4eb9005eed96   jsr f_put_field
          0x005c4b7a      dec3           adda.w d3, a7
          0x005c4b7c      101f           move.b (a7)+, d0
          0x005c4b7e      4880           ext.w d0
          0x005c4b80      4182           chk.w d2, d0
          0x005c4b82      1e00           move.b d0, d7
      < 0x005c4b84      604e           bra.b 0x5c4bd4
      > 0x005c4b86      206e0008       movea.l 0x8(a6), a0
          0x005c4b8a      554f           subq.w 0x2, a7
          0x005c4b8c      3f01           move.w d1, -(a7)
          0x005c4b8e      2f11           move.l (a1), -(a7)
          0x005c4b90      2f2e000c       move.l 0xc(a6), -(a7)
          0x005c4b94      2010           move.l (a0), d0
          0x005c4b96      4480           neg.l d0
          0x005c4b98      0480ffff8000   subi.l 0xffff8000, d0
          0x005c4b9e      0c800000ffff   cmpi.l 0xffff, d0
      < 0x005c4ba4      6302           bls.b 0x5c4ba8
         0x005c4ba6      4e4f           trap 0xf
      > 0x005c4ba8      0680ffff8000   addi.l 0xffff8000, d0
          0x005c4bae      3f00           move.w d0, -(a7)
          0x005c4bb0      4eb9005eed1e   jsr f_get_field
          0x005c4bb6      dec3           adda.w d3, a7
          0x005c4bb8      101f           move.b (a7)+, d0
          0x005c4bba      4880           ext.w d0
          0x005c4bbc      4182           chk.w d2, d0
          0x005c4bbe      1e00           move.b d0, d7
          0x005c4bc0      554f           subq.w 0x2, a7
          0x005c4bc2      3f01           move.w d1, -(a7)
          0x005c4bc4      2f11           move.l (a1), -(a7)
          0x005c4bc6      4eb9005eecfc   jsr f_field_size
          0x005c4bcc      5c4f           addq.w 0x6, a7
          0x005c4bce      4280           clr.l d0
          0x005c4bd0      301f           move.w (a7)+, d0
          0x005c4bd2      2080           move.l d0, (a0)
      > 0x005c4bd4      4887           ext.w d7
           0x005c4bd6      4f82           chk.w d2, d7
           0x005c4bd8      1d470016       move.b d7, 0x16(a6)
           0x005c4bdc      4cdf038f       movem.l (a7)+, d0-d3/d7/a0-a1
           0x005c4be0      4e5e           unlk a6
           0x005c4be2      4e75           rts
 240: AFS_FILER.afs_panel_data ();
           0x005c4be4      4e56ffbc       link.w a6, 0xffbc
           0x005c4be8      bfd5           cmpa.l (a5), a7
       < 0x005c4bea      6206           bhi.b 0x5c4bf2
          0x005c4bec      44fc0002       move.w 0x2, ccr
          0x005c4bf0      4e76           trapv
       > 0x005c4bf2      defc003e       adda.w 0x3e, a7
           0x005c4bf6      48e7f1f8       movem.l d0-d3/d7/a0-a4, -(a7)
           0x005c4bfa      45ee000c       lea.l 0xc(a6), a2
           0x005c4bfe      47ee0018       lea.l 0x18(a6), a3
           0x005c4c02      49ee0010       lea.l 0x10(a6), a4
           0x005c4c06      721a           moveq 0x1a, d1
           0x005c4c08      740c           moveq 0xc, d2
           0x005c4c0a      7601           moveq 0x1, d3
           0x005c4c0c      206e0008       movea.l 0x8(a6), a0
           0x005c4c10      4210           clr.b (a0)
           0x005c4c12      4227           clr.b -(a7)
           0x005c4c14      2012           move.l (a2), d0
       < 0x005c4c16      6a02           bpl.b 0x5c4c1a
          0x005c4c18      4480           neg.l d0
       > 0x005c4c1a      0c8000000008   cmpi.l 0x8, d0
       < 0x005c4c20      6602           bne.b 0x5c4c24
          0x005c4c22      5217           addq.b 0x1, (a7)
       > 0x005c4c24      4eb90040452a   jsr p_Assert
           0x005c4c2a      544f           addq.w 0x2, a7
           0x005c4c2c      4a13           tst.b (a3)
       < 0x005c4c2e      6718           beq.b 0x5c4c48
          0x005c4c30      487aaafe       pea.l 0x5bf730(pc)
          0x005c4c34      4878000e       pea.l 0xe
          0x005c4c38      2f17           move.l (a7), -(a7)
          0x005c4c3a      4eb9004047ea   jsr p_wts_o
          0x005c4c40      dec2           adda.w d2, a7
          0x005c4c42      4eb900404946   jsr p_wtln_o
       > 0x005c4c48      7e01           moveq 0x1, d7
           0x005c4c4a      4a13           tst.b (a3)
       < 0x005c4c4c      673c           beq.b 0x5c4c8a
          0x005c4c4e      2d54fffc       move.l (a4), -0x4(a6)
          0x005c4c52      226efffc       movea.l -0x4(a6), a1
          0x005c4c56      4a51           tst.w (a1)
      < 0x005c4c58      6610           bne.b 0x5c4c6a
         0x005c4c5a      3f01           move.w d1, -(a7)
         0x005c4c5c      2f2e0014       move.l 0x14(a6), -(a7)
         0x005c4c60      4eb9005eee78   jsr f_delete_field
         0x005c4c66      5c4f           addq.w 0x6, a7
     < 0x005c4c68      6054           bra.b 0x5c4cbe
     > 0x005c4c6a      554f           subq.w 0x2, a7
         0x005c4c6c      3f01           move.w d1, -(a7)
         0x005c4c6e      2f2e0014       move.l 0x14(a6), -(a7)
         0x005c4c72      2f14           move.l (a4), -(a7)
         0x005c4c74      2012           move.l (a2), d0
         0x005c4c76      0c800000ffff   cmpi.l 0xffff, d0
     < 0x005c4c7c      6302           bls.b 0x5c4c80
        0x005c4c7e      4e4f           trap 0xf
     > 0x005c4c80      3f00           move.w d0, -(a7)
         0x005c4c82      4eb9005eed96   jsr f_put_field
     < 0x005c4c88      602a           bra.b 0x5c4cb4
     > 0x005c4c8a      554f           subq.w 0x2, a7
         0x005c4c8c      3f01           move.w d1, -(a7)
         0x005c4c8e      2f2e0014       move.l 0x14(a6), -(a7)
         0x005c4c92      2f14           move.l (a4), -(a7)
         0x005c4c94      2012           move.l (a2), d0
         0x005c4c96      0480ffff8000   subi.l 0xffff8000, d0
         0x005c4c9c      0c800000ffff   cmpi.l 0xffff, d0
     < 0x005c4ca2      6302           bls.b 0x5c4ca6
        0x005c4ca4      4e4f           trap 0xf
     > 0x005c4ca6      0680ffff8000   addi.l 0xffff8000, d0
         0x005c4cac      3f00           move.w d0, -(a7)
         0x005c4cae      4eb9005eed1e   jsr f_get_field
     > 0x005c4cb4      dec2           adda.w d2, a7
          0x005c4cb6      101f           move.b (a7)+, d0
          0x005c4cb8      4880           ext.w d0
          0x005c4cba      4183           chk.w d3, d0
          0x005c4cbc      1e00           move.b d0, d7
     > 0x005c4cbe      1d47001a       move.b d7, 0x1a(a6)
           0x005c4cc2      4a07           tst.b d7
       < 0x005c4cc4      6606           bne.b 0x5c4ccc
          0x005c4cc6      4a13           tst.b (a3)
      < 0x005c4cc8      6602           bne.b 0x5c4ccc
         0x005c4cca      1083           move.b d3, (a0)
      > 0x005c4ccc      4cdf1f8f       movem.l (a7)+, d0-d3/d7/a0-a4
           0x005c4cd0      4e5e           unlk a6
           0x005c4cd2      4e75           rts
 64: AFS_FILER.pack_udf ();
           0x005c4cd4      4e56fdc8       link.w a6, 0xfdc8
           0x005c4cd8      bfd5           cmpa.l (a5), a7
       < 0x005c4cda      6206           bhi.b 0x5c4ce2
          0x005c4cdc      44fc0002       move.w 0x2, ccr
          0x005c4ce0      4e76           trapv
       > 0x005c4ce2      defc0034       adda.w 0x34, a7
           0x005c4ce6      48e7e0f8       movem.l d0-d2/a0-a4, -(a7)
           0x005c4cea      49eefefc       lea.l -0x104(a6), a4
           0x005c4cee      7403           moveq 0x3, d2
           0x005c4cf0      206e0008       movea.l 0x8(a6), a0
           0x005c4cf4      10baaa48       move.b 0x5bf73e(pc), (a0)
           0x005c4cf8      226e000c       movea.l 0xc(a6), a1
           0x005c4cfc      10290104       move.b 0x104(a1), d0
           0x005c4d00      4880           ext.w d0
           0x005c4d02      3200           move.w d0, d1
           0x005c4d04      b242           cmp.w d2, d1
       < 0x005c4d06      6302           bls.b 0x5c4d0a
          0x005c4d08      4e4e           trap 0xe
       > 0x005c4d0a      d241           add.w d1, d1
           0x005c4d0c      323b1006       move.w 0x5c4d14(pc, d1.w), d1
           0x005c4d10      4efb1002       jmp 0x5c4d14(pc, d1.w)
            0x005c4d14      0008000c       
            0x005c4d15      08000c00       
            0x005c4d16      000c0014       
            0x005c4d17      0c001400       cmpi.b 0x0, d0
            0x005c4d1b      18429460       
            0x005c4d1c      4294           clr.l (a4)
        < 0x005c4d1e      6012           bra.b 0x5c4d32
           0x005c4d20      28bc00000001   move.l 0x1, (a4)
       < 0x005c4d26      600a           bra.b 0x5c4d32
          0x005c4d28      2882           move.l d2, (a4)
      < 0x005c4d2a      6006           bra.b 0x5c4d32
         0x005c4d2c      28bc00000002   move.l 0x2, (a4)
      > 0x005c4d32      45eefdfc       lea.l -0x204(a6), a2
            0x005c4d36      47e90004       lea.l 0x4(a1), a3
            0x005c4d3a      323c00ff       move.w 0xff, d1
        > 0x005c4d3e      14db           move.b (a3)+, (a2)+
        < 0x005c4d40      51c9fffc       dbra d1, 0x5c4d3e
            0x005c4d44      b042           cmp.w d2, d0
        < 0x005c4d46      6302           bls.b 0x5c4d4a
           0x005c4d48      4e4e           trap 0xe
        > 0x005c4d4a      d040           add.w d0, d0
            0x005c4d4c      303b0006       move.w 0x5c4d54(pc, d0.w), d0
            0x005c4d50      4efb0002       jmp 0x5c4d54(pc, d0.w)
            0x005c4d54      0008000a       
            0x005c4d55      08000a00       
            0x005c4d56      000a001e       
            0x005c4d57      0a001e00       eori.b 0x0, d0
            0x005c4d5b      3860           movea.w -(a0), a4
            0x005c4d5d      3445           movea.w d5, a2
            0x005c4d5f      eeff0047       
            0x005c4d60      ff00           invalid
            0x005c4d62      47e90105       lea.l 0x105(a1), a3
            0x005c4d66      303c00ff       move.w 0xff, d0
        > 0x005c4d6a      14db           move.b (a3)+, (a2)+
        < 0x005c4d6c      51c8fffc       dbra d0, 0x5c4d6a
        < 0x005c4d70      6020           bra.b 0x5c4d92
           0x005c4d72      514f           subq.w 0x8, a7
           0x005c4d74      244f           movea.l a7, a2
           0x005c4d76      47e90105       lea.l 0x105(a1), a3
           0x005c4d7a      7007           moveq 0x7, d0
       > 0x005c4d7c      14db           move.b (a3)+, (a2)+
       < 0x005c4d7e      51c8fffc       dbra d0, 0x5c4d7c
           0x005c4d82      2d5fff00       move.l (a7)+, -0x100(a6)
           0x005c4d86      2d5fff04       move.l (a7)+, -0xfc(a6)
       < 0x005c4d8a      6006           bra.b 0x5c4d92
          0x005c4d8c      2d690106ff00   move.l 0x106(a1), -0x100(a6)
       > 0x005c4d92      486efdfc       pea.l -0x204(a6)
            0x005c4d96      4850           pea.l (a0)
            0x005c4d98      4eb9005e72da   jsr FILER_UTILITIES.fu_pack_sys_udf
            0x005c4d9e      504f           addq.w 0x8, a7
            0x005c4da0      4cdf1f07       movem.l (a7)+, d0-d2/a0-a4
            0x005c4da4      4e5e           unlk a6
            0x005c4da6      4e75           rts
 70: AFS_FILER.unpack_udf ();
           0x005c4da8      4e56fdd4       link.w a6, 0xfdd4
           0x005c4dac      bfd5           cmpa.l (a5), a7
       < 0x005c4dae      6206           bhi.b 0x5c4db6
          0x005c4db0      44fc0002       move.w 0x2, ccr
          0x005c4db4      4e76           trapv
       > 0x005c4db6      defc0028       adda.w 0x28, a7
           0x005c4dba      48e7c0f8       movem.l d0-d1/a0-a4, -(a7)
           0x005c4dbe      47ee0008       lea.l 0x8(a6), a3
           0x005c4dc2      49eeff00       lea.l -0x100(a6), a4
           0x005c4dc6      7203           moveq 0x3, d1
           0x005c4dc8      206e000c       movea.l 0xc(a6), a0
           0x005c4dcc      4850           pea.l (a0)
           0x005c4dce      486efdfc       pea.l -0x204(a6)
           0x005c4dd2      4eb9005e70ce   jsr FILER_UTILITIES.fu_unpack_sys_u
           0x005c4dd8      504f           addq.w 0x8, a7
           0x005c4dda      202efefc       move.l -0x104(a6), d0
           0x005c4dde      b081           cmp.l d1, d0
       < 0x005c4de0      6302           bls.b 0x5c4de4
          0x005c4de2      4e4e           trap 0xe
       > 0x005c4de4      d040           add.w d0, d0
           0x005c4de6      303b0006       move.w 0x5c4dee(pc, d0.w), d0
           0x005c4dea      4efb0002       jmp 0x5c4dee(pc, d0.w)
            0x005c4dee      00080010       
            0x005c4def      08001000       
            0x005c4df0      0010001a       ori.b 0x1a, (a0)
            0x005c4df4      00222053       ori.b 0x53, -(a2)
            0x005c4df8      42280104       clr.b 0x104(a0)
        < 0x005c4dfc      601a           bra.b 0x5c4e18
           0x005c4dfe      2053           movea.l (a3), a0
           0x005c4e00      117c00010104   move.b 0x1, 0x104(a0)
       < 0x005c4e06      6010           bra.b 0x5c4e18
          0x005c4e08      2053           movea.l (a3), a0
          0x005c4e0a      11410104       move.b d1, 0x104(a0)
      < 0x005c4e0e      6008           bra.b 0x5c4e18
         0x005c4e10      2053           movea.l (a3), a0
         0x005c4e12      117c00020104   move.b 0x2, 0x104(a0)
      > 0x005c4e18      2053           movea.l (a3), a0
            0x005c4e1a      43e80004       lea.l 0x4(a0), a1
            0x005c4e1e      45eefdfc       lea.l -0x204(a6), a2
            0x005c4e22      303c00ff       move.w 0xff, d0
        > 0x005c4e26      12da           move.b (a2)+, (a1)+
        < 0x005c4e28      51c8fffc       dbra d0, 0x5c4e26
            0x005c4e2c      10280104       move.b 0x104(a0), d0
            0x005c4e30      4880           ext.w d0
            0x005c4e32      b041           cmp.w d1, d0
        < 0x005c4e34      6302           bls.b 0x5c4e38
           0x005c4e36      4e4e           trap 0xe
        > 0x005c4e38      d040           add.w d0, d0
            0x005c4e3a      303b0006       move.w 0x5c4e42(pc, d0.w), d0
            0x005c4e3e      4efb0002       jmp 0x5c4e42(pc, d0.w)
            0x005c4e42      0008000a       
            0x005c4e43      08000a00       
            0x005c4e44      000a001c       
            0x005c4e45      0a001c00       eori.b 0x0, d0
            0x005c4e49      2c60           movea.l -(a0), a6
            0x005c4e4b      2643           movea.l d3, a3
            0x005c4e4d      e801           asr.b 0x4, d1
            0x005c4e4f      0524           btst.l d2, -(a4)
            0x005c4e51      4c303c00ff12.  muls.l ([a0, a7.l * 8], 0xda51), d0:d3
            0x005c4e59      c8fffc60       
            0x005c4e5a      fffc           invalid
        < 0x005c4e5c      6014           bra.b 0x5c4e72
           0x005c4e5e      43e80105       lea.l 0x105(a0), a1
           0x005c4e62      244c           movea.l a4, a2
           0x005c4e64      7007           moveq 0x7, d0
       > 0x005c4e66      12da           move.b (a2)+, (a1)+
       < 0x005c4e68      51c8fffc       dbra d0, 0x5c4e66
       < 0x005c4e6c      6004           bra.b 0x5c4e72
          0x005c4e6e      21540106       move.l (a4), 0x106(a0)
       > 0x005c4e72      4cdf1f03       movem.l (a7)+, d0-d1/a0-a4
            0x005c4e76      4e5e           unlk a6
            0x005c4e78      4e75           rts
 74: AFS_FILER.afs_udf ();
           0x005c4e7a      4e56fbb2       link.w a6, 0xfbb2
           0x005c4e7e      bfd5           cmpa.l (a5), a7
       < 0x005c4e80      6206           bhi.b 0x5c4e88
          0x005c4e82      44fc0002       move.w 0x2, ccr
          0x005c4e86      4e76           trapv
       > 0x005c4e88      defc0140       adda.w 0x140, a7
           0x005c4e8c      48e7fff8       movem.l d0-d7/a0-a4, -(a7)
           0x005c4e90      45eefdfa       lea.l -0x206(a6), a2
           0x005c4e94      47eefcfa       lea.l -0x306(a6), a3
           0x005c4e98      49ee0018       lea.l 0x18(a6), a4
           0x005c4e9c      7401           moveq 0x1, d2
           0x005c4e9e      7603           moveq 0x3, d3
           0x005c4ea0      7814           moveq 0x14, d4
           0x005c4ea2      7a10           moveq 0x10, d5
           0x005c4ea4      2c3c0000ffff   move.l 0xffff, d6
           0x005c4eaa      102e0010       move.b 0x10(a6), d0
           0x005c4eae      4880           ext.w d0
           0x005c4eb0      3200           move.w d0, d1
           0x005c4eb2      9244           sub.w d4, d1
           0x005c4eb4      b243           cmp.w d3, d1
       < 0x005c4eb6      6302           bls.b 0x5c4eba
          0x005c4eb8      4e4e           trap 0xe
       > 0x005c4eba      d241           add.w d1, d1
           0x005c4ebc      323b1006       move.w 0x5c4ec4(pc, d1.w), d1
           0x005c4ec0      4efb1002       jmp 0x5c4ec4(pc, d1.w)
            0x005c4ec4      0008000c       
            0x005c4ec5      08000c00       
            0x005c4ec6      000c0010       
            0x005c4ec7      0c001000       cmpi.b 0x0, d0
            0x005c4ecb      147e2f60       
            0x005c4ecc      7e2f           moveq 0x2f, d7
        < 0x005c4ece      600a           bra.b 0x5c4eda
           0x005c4ed0      7e30           moveq 0x30, d7
       < 0x005c4ed2      6006           bra.b 0x5c4eda
          0x005c4ed4      7e31           moveq 0x31, d7
      < 0x005c4ed6      6002           bra.b 0x5c4eda
         0x005c4ed8      7e32           moveq 0x32, d7
      > 0x005c4eda      4a2e0016       tst.b 0x16(a6)
        < 0x005c4ede      677e           beq.b 0x5c4f5e
           0x005c4ee0      2f2e000c       move.l 0xc(a6), -(a7)
           0x005c4ee4      2f2e0008       move.l 0x8(a6), -(a7)
           0x005c4ee8      204a           movea.l a2, a0
           0x005c4eea      2f08           move.l a0, -(a7)
           0x005c4eec      48780205       pea.l 0x205
           0x005c4ef0      4ebaadea       jsr AFS_FILER.copy_mem(pc)
           0x005c4ef4      dec5           adda.w d5, a7
           0x005c4ef6      4852           pea.l (a2)
           0x005c4ef8      4853           pea.l (a3)
           0x005c4efa      4ebafdd8       jsr AFS_FILER.pack_udf(pc)
           0x005c4efe      504f           addq.w 0x8, a7
           0x005c4f00      1882           move.b d2, (a4)
           0x005c4f02      4241           clr.w d1
           0x005c4f04      1213           move.b (a3), d1
       < 0x005c4f06      6302           bls.b 0x5c4f0a
          0x005c4f08      7200           moveq 0x0, d1
       > 0x005c4f0a      5301           subq.b 0x1, d1
       < 0x005c4f0c      6510           bcs.b 0x5c4f1e
          0x005c4f0e      41eefcfb       lea.l -0x305(a6), a0
          0x005c4f12      43faa83d       lea.l 0x5bf751(pc), a1
      > 0x005c4f16      b109           cmpm.b (a1)+, (a0)+
      < 0x005c4f18      56c9fffc       dbne d1, 0x5c4f16
      < 0x005c4f1c      6602           bne.b 0x5c4f20
      > 0x005c4f1e      1213           move.b (a3), d1
      < 0x005c4f20      6618           bne.b 0x5c4f3a
          0x005c4f22      be86           cmp.l d6, d7
      < 0x005c4f24      6302           bls.b 0x5c4f28
         0x005c4f26      4e4f           trap 0xf
      > 0x005c4f28      3f07           move.w d7, -(a7)
          0x005c4f2a      2f2e0012       move.l 0x12(a6), -(a7)
          0x005c4f2e      4eb9005eee78   jsr f_delete_field
          0x005c4f34      5c4f           addq.w 0x6, a7
      < 0x005c4f36      6000009c       bra.w 0x5c4fd4
      > 0x005c4f3a      554f           subq.w 0x2, a7
          0x005c4f3c      be86           cmp.l d6, d7
      < 0x005c4f3e      6302           bls.b 0x5c4f42
         0x005c4f40      4e4f           trap 0xf
      > 0x005c4f42      3f07           move.w d7, -(a7)
          0x005c4f44      2f2e0012       move.l 0x12(a6), -(a7)
          0x005c4f48      4853           pea.l (a3)
          0x005c4f4a      4eb9005eedf6   jsr f_put_string
          0x005c4f50      defc000a       adda.w 0xa, a7
          0x005c4f54      121f           move.b (a7)+, d1
          0x005c4f56      4881           ext.w d1
          0x005c4f58      4382           chk.w d2, d1
          0x005c4f5a      1881           move.b d1, (a4)
      < 0x005c4f5c      6076           bra.b 0x5c4fd4
      > 0x005c4f5e      1882           move.b d2, (a4)
          0x005c4f60      9efc0100       suba.w 0x100, a7
          0x005c4f64      be86           cmp.l d6, d7
      < 0x005c4f66      6302           bls.b 0x5c4f6a
         0x005c4f68      4e4f           trap 0xf
      > 0x005c4f6a      3f07           move.w d7, -(a7)
          0x005c4f6c      2f2e0012       move.l 0x12(a6), -(a7)
          0x005c4f70      4eb9005eed64   jsr f_get_string
          0x005c4f76      5c4f           addq.w 0x6, a7
          0x005c4f78      204b           movea.l a3, a0
          0x005c4f7a      723f           moveq 0x3f, d1
      > 0x005c4f7c      20df           move.l (a7)+, (a0)+
      < 0x005c4f7e      51c9fffc       dbra d1, 0x5c4f7c
          0x005c4f82      3200           move.w d0, d1
          0x005c4f84      9244           sub.w d4, d1
          0x005c4f86      b243           cmp.w d3, d1
      < 0x005c4f88      6302           bls.b 0x5c4f8c
         0x005c4f8a      4e4e           trap 0xe
      > 0x005c4f8c      d241           add.w d1, d1
          0x005c4f8e      323b1006       move.w 0x5c4f96(pc, d1.w), d1
          0x005c4f92      4efb1002       jmp 0x5c4f96(pc, d1.w)
          0x005c4f96      0008000c       
          0x005c4f97      08000c00       
          0x005c4f98      000c0014       
          0x005c4f99      0c001400       cmpi.b 0x0, d0
          0x005c4f9d      1824           move.b -(a4), d4
          0x005c4f9f      8260           or.w -(a0), d1
          0x005c4fa1      1224           move.b -(a4), d1
          0x005c4fa3      bc00           cmp.b d0, d6
          0x005c4fa5      00000260       ori.b 0x60, d0
          0x005c4fa9      0a248360       eori.b 0x60, -(a4)
          0x005c4fad      0624bc00       addi.b 0x0, -(a4)
          0x005c4fb1      00000448       ori.b 0x48, d0
          0x005c4fb5      5348           subq.w 0x1, a0
          0x005c4fb7      524e           addq.w 0x1, a6
          0x005c4fb9      bafdee50       
          0x005c4fba      fdee           invalid
          0x005c4fbc      504f           addq.w 0x8, a7
          0x005c4fbe      204a           movea.l a2, a0
          0x005c4fc0      2f08           move.l a0, -(a7)
          0x005c4fc2      48780205       pea.l 0x205
          0x005c4fc6      2f2e000c       move.l 0xc(a6), -(a7)
          0x005c4fca      2f2e0008       move.l 0x8(a6), -(a7)
          0x005c4fce      4ebaad0c       jsr AFS_FILER.copy_mem(pc)
          0x005c4fd2      dec5           adda.w d5, a7
      > 0x005c4fd4      4cdf1fff       movem.l (a7)+, d0-d7/a0-a4
            0x005c4fd8      4e5e           unlk a6
            0x005c4fda      4e75           rts
 188: AFS_FILER.afs_browse_stor ();
           0x005c4fdc      4e56ffc8       link.w a6, 0xffc8
           0x005c4fe0      bfd5           cmpa.l (a5), a7
       < 0x005c4fe2      6206           bhi.b 0x5c4fea
          0x005c4fe4      44fc0002       move.w 0x2, ccr
          0x005c4fe8      4e76           trapv
       > 0x005c4fea      defc0030       adda.w 0x30, a7
           0x005c4fee      48e7e1e0       movem.l d0-d2/d7/a0-a2, -(a7)
           0x005c4ff2      43eefffe       lea.l -0x2(a6), a1
           0x005c4ff6      45ee0016       lea.l 0x16(a6), a2
           0x005c4ffa      7010           moveq 0x10, d0
           0x005c4ffc      7218           moveq 0x18, d1
           0x005c4ffe      7401           moveq 0x1, d2
           0x005c5000      4212           clr.b (a2)
           0x005c5002      7e00           moveq 0x0, d7
           0x005c5004      4a2e0014       tst.b 0x14(a6)
       < 0x005c5008      6750           beq.b 0x5c505a
          0x005c500a      2f2e000c       move.l 0xc(a6), -(a7)
          0x005c500e      2f2e0008       move.l 0x8(a6), -(a7)
          0x005c5012      2049           movea.l a1, a0
          0x005c5014      2f08           move.l a0, -(a7)
          0x005c5016      48780002       pea.l 0x2
          0x005c501a      4ebaacc0       jsr AFS_FILER.copy_mem(pc)
          0x005c501e      dec0           adda.w d0, a7
          0x005c5020      4a11           tst.b (a1)
      < 0x005c5022      6724           beq.b 0x5c5048
         0x005c5024      487aa746       pea.l 0x5bf76c(pc)
         0x005c5028      4878001d       pea.l 0x1d
         0x005c502c      2f17           move.l (a7), -(a7)
         0x005c502e      4eb9004047ea   jsr p_wts_o
         0x005c5034      defc000c       adda.w 0xc, a7
         0x005c5038      4eb900404946   jsr p_wtln_o
         0x005c503e      4227           clr.b -(a7)
         0x005c5040      4eb90040452a   jsr p_Assert
         0x005c5046      544f           addq.w 0x2, a7
      > 0x005c5048      3f01           move.w d1, -(a7)
          0x005c504a      2f2e0010       move.l 0x10(a6), -(a7)
          0x005c504e      4eb9005eee78   jsr f_delete_field
          0x005c5054      5c4f           addq.w 0x6, a7
          0x005c5056      1482           move.b d2, (a2)
      < 0x005c5058      6036           bra.b 0x5c5090
      > 0x005c505a      7e00           moveq 0x0, d7
          0x005c505c      554f           subq.w 0x2, a7
          0x005c505e      3f01           move.w d1, -(a7)
          0x005c5060      2f2e0010       move.l 0x10(a6), -(a7)
          0x005c5064      4eb9005eecfc   jsr f_field_size
          0x005c506a      5c4f           addq.w 0x6, a7
          0x005c506c      4a5f           tst.w (a7)+
      < 0x005c506e      6702           beq.b 0x5c5072
         0x005c5070      5207           addq.b 0x1, d7
      > 0x005c5072      1482           move.b d2, (a2)
          0x005c5074      1287           move.b d7, (a1)
          0x005c5076      422effff       clr.b -0x1(a6)
          0x005c507a      2049           movea.l a1, a0
          0x005c507c      2f08           move.l a0, -(a7)
          0x005c507e      48780002       pea.l 0x2
          0x005c5082      2f2e000c       move.l 0xc(a6), -(a7)
          0x005c5086      2f2e0008       move.l 0x8(a6), -(a7)
          0x005c508a      4ebaac50       jsr AFS_FILER.copy_mem(pc)
          0x005c508e      dec0           adda.w d0, a7
      > 0x005c5090      4cdf0787       movem.l (a7)+, d0-d2/d7/a0-a2
           0x005c5094      4e5e           unlk a6
           0x005c5096      4e75           rts
 360: AFS_FILER.afs_get_browse_ ();
           0x005c5098      4e56fef6       link.w a6, 0xfef6
           0x005c509c      bfd5           cmpa.l (a5), a7
       < 0x005c509e      6206           bhi.b 0x5c50a6
          0x005c50a0      44fc0002       move.w 0x2, ccr
          0x005c50a4      4e76           trapv
       > 0x005c50a6      defc00aa       adda.w 0xaa, a7
           0x005c50aa      48e7f1e0       movem.l d0-d3/d7/a0-a2, -(a7)
           0x005c50ae      45ee001a       lea.l 0x1a(a6), a2
           0x005c50b2      7201           moveq 0x1, d1
           0x005c50b4      740c           moveq 0xc, d2
           0x005c50b6      760a           moveq 0xa, d3
           0x005c50b8      554f           subq.w 0x2, a7
           0x005c50ba      486effb6       pea.l -0x4a(a6)
           0x005c50be      4eb900404434   jsr fcn.00404434
           0x005c50c4      584f           addq.w 0x4, a7
           0x005c50c6      4a1f           tst.b (a7)+
       < 0x005c50c8      67000108       beq.w 0x5c51d2
          0x005c50cc      7e01           moveq 0x1, d7
          0x005c50ce      4a2e001e       tst.b 0x1e(a6)
      < 0x005c50d2      6722           beq.b 0x5c50f6
         0x005c50d4      487aa6dc       pea.l 0x5bf7b2(pc)
         0x005c50d8      48780019       pea.l 0x19
         0x005c50dc      2f17           move.l (a7), -(a7)
         0x005c50de      4eb9004047ea   jsr p_wts_o
         0x005c50e4      dec2           adda.w d2, a7
         0x005c50e6      4eb900404946   jsr p_wtln_o
         0x005c50ec      4227           clr.b -(a7)
         0x005c50ee      4eb90040452a   jsr p_Assert
         0x005c50f4      544f           addq.w 0x2, a7
      > 0x005c50f6      554f           subq.w 0x2, a7
          0x005c50f8      1f01           move.b d1, -(a7)
          0x005c50fa      2f12           move.l (a2), -(a7)
          0x005c50fc      486effa4       pea.l -0x5c(a6)
          0x005c5100      4eb9005edb64   jsr FILE_STRUCTURE.fs_nplanes
          0x005c5106      dec3           adda.w d3, a7
          0x005c5108      4a1f           tst.b (a7)+
      < 0x005c510a      6634           bne.b 0x5c5140
         0x005c510c      7e00           moveq 0x0, d7
         0x005c510e      41faa6e6       lea.l 0x5bf7f6(pc), a0
         0x005c5112      7009           moveq 0x9, d0
     > 0x005c5114      2f20           move.l -(a0), -(a7)
     < 0x005c5116      51c8fffc       dbra d0, 0x5c5114
         0x005c511a      3f20           move.w -(a0), -(a7)
         0x005c511c      4857           pea.l (a7)
         0x005c511e      48780001       pea.l 0x1
         0x005c5122      4878002a       pea.l 0x2a
         0x005c5126      4227           clr.b -(a7)
         0x005c5128      1f01           move.b d1, -(a7)
         0x005c512a      204e           movea.l a6, a0
         0x005c512c      7011           moveq 0x11, d0
     > 0x005c512e      2f20           move.l -(a0), -(a7)
     < 0x005c5130      51c8fffc       dbra d0, 0x5c512e
         0x005c5134      3f20           move.w -(a0), -(a7)
         0x005c5136      4eb9005c6e76   jsr AFS1_UTIL.afs1_abort
         0x005c513c      defc0084       adda.w 0x84, a7
      > 0x005c5140      554f           subq.w 0x2, a7
          0x005c5142      4227           clr.b -(a7)
          0x005c5144      2f12           move.l (a2), -(a7)
          0x005c5146      486effa6       pea.l -0x5a(a6)
          0x005c514a      4eb9005e96d4   jsr FILE_STRUCTURE.fs_extrabytes
          0x005c5150      dec3           adda.w d3, a7
          0x005c5152      4a1f           tst.b (a7)+
      < 0x005c5154      6638           bne.b 0x5c518e
         0x005c5156      7e00           moveq 0x0, d7
         0x005c5158      9efc002c       suba.w 0x2c, a7
         0x005c515c      204f           movea.l a7, a0
         0x005c515e      43faa697       lea.l 0x5bf7f7(pc), a1
         0x005c5162      702b           moveq 0x2b, d0
     > 0x005c5164      10d9           move.b (a1)+, (a0)+
     < 0x005c5166      51c8fffc       dbra d0, 0x5c5164
         0x005c516a      4857           pea.l (a7)
         0x005c516c      48780001       pea.l 0x1
         0x005c5170      4878002c       pea.l 0x2c
         0x005c5174      4227           clr.b -(a7)
         0x005c5176      1f01           move.b d1, -(a7)
         0x005c5178      204e           movea.l a6, a0
         0x005c517a      7011           moveq 0x11, d0
     > 0x005c517c      2f20           move.l -(a0), -(a7)
     < 0x005c517e      51c8fffc       dbra d0, 0x5c517c
         0x005c5182      3f20           move.w -(a0), -(a7)
         0x005c5184      4eb9005c6e76   jsr AFS1_UTIL.afs1_abort
         0x005c518a      defc0086       adda.w 0x86, a7
      > 0x005c518e      554f           subq.w 0x2, a7
          0x005c5190      3f3c0018       move.w 0x18, -(a7)
          0x005c5194      2f12           move.l (a2), -(a7)
          0x005c5196      41eeffa0       lea.l -0x60(a6), a0
          0x005c519a      2f08           move.l a0, -(a7)
          0x005c519c      3f3c0004       move.w 0x4, -(a7)
          0x005c51a0      4eb9005eed1e   jsr f_get_field
          0x005c51a6      dec2           adda.w d2, a7
          0x005c51a8      4a1f           tst.b (a7)+
      < 0x005c51aa      6626           bne.b 0x5c51d2
         0x005c51ac      487aa676       pea.l 0x5bf824(pc)
         0x005c51b0      4878003e       pea.l 0x3e
         0x005c51b4      2f17           move.l (a7), -(a7)
         0x005c51b6      4eb9004047ea   jsr p_wts_o
         0x005c51bc      dec2           adda.w d2, a7
         0x005c51be      4eb900404946   jsr p_wtln_o
         0x005c51c4      7e00           moveq 0x0, d7
         0x005c51c6      486effb6       pea.l -0x4a(a6)
         0x005c51ca      4eb900404468   jsr fcn.00404468
         0x005c51d0      584f           addq.w 0x4, a7
      > 0x005c51d2      4a07           tst.b d7
       < 0x005c51d4      671a           beq.b 0x5c51f0
          0x005c51d6      41eeffa0       lea.l -0x60(a6), a0
          0x005c51da      2f08           move.l a0, -(a7)
          0x005c51dc      4878000a       pea.l 0xa
          0x005c51e0      2f2e000c       move.l 0xc(a6), -(a7)
          0x005c51e4      2f2e0008       move.l 0x8(a6), -(a7)
          0x005c51e8      4ebaaaf2       jsr AFS_FILER.copy_mem(pc)
          0x005c51ec      defc0010       adda.w 0x10, a7
       > 0x005c51f0      4887           ext.w d7
           0x005c51f2      4f81           chk.w d1, d7
           0x005c51f4      1d470020       move.b d7, 0x20(a6)
           0x005c51f8      4cdf078f       movem.l (a7)+, d0-d3/d7/a0-a2
           0x005c51fc      4e5e           unlk a6
           0x005c51fe      4e75           rts
            0x005c5200      4e56ff56       link.w a6, 0xff56
            0x005c5204      bfd5           cmpa.l (a5), a7
        < 0x005c5206      6206           bhi.b 0x5c520e
           0x005c5208      44fc0002       move.w 0x2, ccr
           0x005c520c      4e76           trapv
        > 0x005c520e      defc0042       adda.w 0x42, a7
            0x005c5212      48e7e1f8       movem.l d0-d2/d7/a0-a4, -(a7)
            0x005c5216      43ee001e       lea.l 0x1e(a6), a1
            0x005c521a      45ee001a       lea.l 0x1a(a6), a2
            0x005c521e      47ee0016       lea.l 0x16(a6), a3
            0x005c5222      49ee0012       lea.l 0x12(a6), a4
            0x005c5226      7201           moveq 0x1, d1
            0x005c5228      7418           moveq 0x18, d2
            0x005c522a      554f           subq.w 0x2, a7
            0x005c522c      1f11           move.b (a1), -(a7)
            0x005c522e      2f12           move.l (a2), -(a7)
            0x005c5230      2f13           move.l (a3), -(a7)
            0x005c5232      2f14           move.l (a4), -(a7)
            0x005c5234      3f2e0010       move.w 0x10(a6), -(a7)
            0x005c5238      41eeff98       lea.l -0x68(a6), a0
            0x005c523c      2f08           move.l a0, -(a7)
            0x005c523e      4878000a       pea.l 0xa
            0x005c5242      4ebafe54       jsr AFS_FILER.afs_get_browse_(pc)
            0x005c5246      dec2           adda.w d2, a7
            0x005c5248      101f           move.b (a7)+, d0
            0x005c524a      4880           ext.w d0
            0x005c524c      4181           chk.w d1, d0
            0x005c524e      1e00           move.b d0, d7
        < 0x005c5250      6720           beq.b 0x5c5272
           0x005c5252      554f           subq.w 0x2, a7
           0x005c5254      1f11           move.b (a1), -(a7)
           0x005c5256      2f12           move.l (a2), -(a7)
           0x005c5258      41eefffe       lea.l -0x2(a6), a0
           0x005c525c      2f08           move.l a0, -(a7)
           0x005c525e      48780002       pea.l 0x2
           0x005c5262      4ebafd78       jsr AFS_FILER.afs_browse_stor(pc)
           0x005c5266      defc000e       adda.w 0xe, a7
           0x005c526a      101f           move.b (a7)+, d0
           0x005c526c      4880           ext.w d0
           0x005c526e      4181           chk.w d1, d0
           0x005c5270      1e00           move.b d0, d7
        > 0x005c5272      4a07           tst.b d7
        < 0x005c5274      670c           beq.b 0x5c5282
           0x005c5276      102efffe       move.b -0x2(a6), d0
           0x005c527a      4880           ext.w d0
           0x005c527c      4181           chk.w d1, d0
           0x005c527e      1d40ffa7       move.b d0, -0x59(a6)
        > 0x005c5282      4a07           tst.b d7
        < 0x005c5284      6726           beq.b 0x5c52ac
           0x005c5286      554f           subq.w 0x2, a7
           0x005c5288      1f11           move.b (a1), -(a7)
           0x005c528a      2f12           move.l (a2), -(a7)
           0x005c528c      2f13           move.l (a3), -(a7)
           0x005c528e      2f14           move.l (a4), -(a7)
           0x005c5290      3f2e0010       move.w 0x10(a6), -(a7)
           0x005c5294      41eeffa2       lea.l -0x5e(a6), a0
           0x005c5298      2f08           move.l a0, -(a7)
           0x005c529a      48780004       pea.l 0x4
           0x005c529e      4ebaf02e       jsr AFS_FILER.afs_get_f_aspec(pc)
           0x005c52a2      dec2           adda.w d2, a7
           0x005c52a4      101f           move.b (a7)+, d0
           0x005c52a6      4880           ext.w d0
           0x005c52a8      4181           chk.w d1, d0
           0x005c52aa      1e00           move.b d0, d7
        > 0x005c52ac      4a07           tst.b d7
        < 0x005c52ae      6726           beq.b 0x5c52d6
           0x005c52b0      554f           subq.w 0x2, a7
           0x005c52b2      2f12           move.l (a2), -(a7)
           0x005c52b4      1f11           move.b (a1), -(a7)
           0x005c52b6      2f13           move.l (a3), -(a7)
           0x005c52b8      2f14           move.l (a4), -(a7)
           0x005c52ba      3f2e0010       move.w 0x10(a6), -(a7)
           0x005c52be      41eeffaa       lea.l -0x56(a6), a0
           0x005c52c2      2f08           move.l a0, -(a7)
           0x005c52c4      48780054       pea.l 0x54
           0x005c52c8      4ebaf0f2       jsr AFS_FILER.afs_name(pc)
           0x005c52cc      dec2           adda.w d2, a7
           0x005c52ce      101f           move.b (a7)+, d0
           0x005c52d0      4880           ext.w d0
           0x005c52d2      4181           chk.w d1, d0
           0x005c52d4      1e00           move.b d0, d7
        > 0x005c52d6      4a07           tst.b d7
        < 0x005c52d8      670e           beq.b 0x5c52e8
           0x005c52da      102efffb       move.b -0x5(a6), d0
           0x005c52de      4880           ext.w d0
           0x005c52e0      41bc0056       chk.w 0x56, d0
           0x005c52e4      1d40ffa6       move.b d0, -0x5a(a6)
        > 0x005c52e8      422effa8       clr.b -0x58(a6)
            0x005c52ec      1d470020       move.b d7, 0x20(a6)
            0x005c52f0      41eeff98       lea.l -0x68(a6), a0
            0x005c52f4      2f08           move.l a0, -(a7)
            0x005c52f6      48780011       pea.l 0x11
            0x005c52fa      2f2e000c       move.l 0xc(a6), -(a7)
            0x005c52fe      2f2e0008       move.l 0x8(a6), -(a7)
            0x005c5302      4ebaa9d8       jsr AFS_FILER.copy_mem(pc)
            0x005c5306      defc0010       adda.w 0x10, a7
            0x005c530a      4cdf1f87       movem.l (a7)+, d0-d2/d7/a0-a4
            0x005c530e      4e5e           unlk a6
            0x005c5310      4e75           rts
            ; CALL XREFS from AFS_FILER.afs_description @ 0x5c5496, 0x5c54dc
 102: AFS_FILER.fail ();
           ; var int32_t var_8h @ a7+0x8
           0x005c5312      4e56fef0       link.w a6, 0xfef0
           0x005c5316      bfd5           cmpa.l (a5), a7
       < 0x005c5318      6206           bhi.b 0x5c5320
          0x005c531a      44fc0002       move.w 0x2, ccr
          0x005c531e      4e76           trapv
       > 0x005c5320      defc0110       adda.w 0x110, a7
           0x005c5324      9efc0100       suba.w 0x100, a7
           0x005c5328      4eb900408ec0   jsr p_err_string
           0x005c532e      486e0009       pea.l 0x9(a6)
           0x005c5332      42a7           clr.l -(a7)
           0x005c5334      1f6e00080003   move.b 0x8(a6), 0x3(a7)
           0x005c533a      2f17           move.l (a7), -(a7)
           0x005c533c      4eb9004047ea   jsr p_wts_o
           0x005c5342      defc000c       adda.w 0xc, a7
           0x005c5346      486f0001       pea.l 0x1(a7)
           0x005c534a      42a7           clr.l -(a7)
           0x005c534c      1f6f00080003   move.b 0x8(a7), 0x3(a7)
           0x005c5352      2f17           move.l (a7), -(a7)
           0x005c5354      4eb9004047ea   jsr p_wts_o
           0x005c535a      defc010c       adda.w 0x10c, a7
           0x005c535e      4eb900404946   jsr p_wtln_o
           0x005c5364      4eb900404188   jsr p_Unlink
           0x005c536a      4854           pea.l (a4)
           0x005c536c      4eb900404468   jsr fcn.00404468
           0x005c5372      584f           addq.w 0x4, a7
           0x005c5374      4e5e           unlk a6
           0x005c5376      4e75           rts
 374: AFS_FILER.afs_description ();
           0x005c5378      4e56fe7a       link.w a6, 0xfe7a
           0x005c537c      bfd5           cmpa.l (a5), a7
       < 0x005c537e      6206           bhi.b 0x5c5386
          0x005c5380      44fc0002       move.w 0x2, ccr
          0x005c5384      4e76           trapv
       > 0x005c5386      defc0138       adda.w 0x138, a7
           0x005c538a      48e7fcf8       movem.l d0-d5/a0-a4, -(a7)
           0x005c538e      323c0100       move.w 0x100, d1
           0x005c5392      7401           moveq 0x1, d2
           0x005c5394      7605           moveq 0x5, d3
           0x005c5396      781e           moveq 0x1e, d4
           0x005c5398      7a12           moveq 0x12, d5
           0x005c539a      422e0024       clr.b 0x24(a6)
           0x005c539e      206e0008       movea.l 0x8(a6), a0
           0x005c53a2      4210           clr.b (a0)
           0x005c53a4      554f           subq.w 0x2, a7
           0x005c53a6      486effb2       pea.l -0x4e(a6)
           0x005c53aa      4eb900404434   jsr fcn.00404434
           0x005c53b0      584f           addq.w 0x4, a7
           0x005c53b2      4a1f           tst.b (a7)+
       < 0x005c53b4      67000130       beq.w 0x5c54e6
          0x005c53b8      4a2e0022       tst.b 0x22(a6)
      < 0x005c53bc      66000094       bne.w 0x5c5452
         0x005c53c0      554f           subq.w 0x2, a7
         0x005c53c2      1f03           move.b d3, -(a7)
         0x005c53c4      4227           clr.b -(a7)
         0x005c53c6      48780000       pea.l 0x0
         0x005c53ca      48780001       pea.l 0x1
         0x005c53ce      226e001e       movea.l 0x1e(a6), a1
         0x005c53d2      4851           pea.l (a1)
         0x005c53d4      2f2e001a       move.l 0x1a(a6), -(a7)
         0x005c53d8      2f2e0016       move.l 0x16(a6), -(a7)
         0x005c53dc      3f2e0014       move.w 0x14(a6), -(a7)
         0x005c53e0      486efffc       pea.l -0x4(a6)
         0x005c53e4      4eb9005ed4dc   jsr FILE_STRUCTURE.fs_file_addr
         0x005c53ea      dec4           adda.w d4, a7
         0x005c53ec      4a1f           tst.b (a7)+
     < 0x005c53ee      6612           bne.b 0x5c5402
        0x005c53f0      4eb900404188   jsr p_Unlink
        0x005c53f6      486effb2       pea.l -0x4e(a6)
        0x005c53fa      4eb900404468   jsr fcn.00404468
        0x005c5400      584f           addq.w 0x4, a7
     > 0x005c5402      202efffc       move.l -0x4(a6), d0
         0x005c5406      0c80ffffffff   cmpi.l 0xffffffff, d0
     < 0x005c540c      660e           bne.b 0x5c541c
        0x005c540e      1082           move.b d2, (a0)
        0x005c5410      486effb2       pea.l -0x4e(a6)
        0x005c5414      4eb900404468   jsr fcn.00404468
        0x005c541a      584f           addq.w 0x4, a7
     > 0x005c541c      554f           subq.w 0x2, a7
         0x005c541e      2f2e001a       move.l 0x1a(a6), -(a7)
         0x005c5422      2f2e0016       move.l 0x16(a6), -(a7)
         0x005c5426      3f2e0014       move.w 0x14(a6), -(a7)
         0x005c542a      2f00           move.l d0, -(a7)
         0x005c542c      2f2e0010       move.l 0x10(a6), -(a7)
         0x005c5430      4eb9005e6b9e   jsr FILER_UTILITIES.fu_desc_read
         0x005c5436      dec5           adda.w d5, a7
         0x005c5438      4a1f           tst.b (a7)+
     < 0x005c543a      660000a6       bne.w 0x5c54e2
        0x005c543e      9ec1           suba.w d1, a7
        0x005c5440      224f           movea.l a7, a1
        0x005c5442      45faa451       lea.l 0x5bf895(pc), a2
        0x005c5446      7014           moveq 0x14, d0
    > 0x005c5448      12da           move.b (a2)+, (a1)+
    < 0x005c544a      51c8fffc       dbra d0, 0x5c5448
    < 0x005c544e      60000088       bra.w 0x5c54d8
    > 0x005c5452      226e001e       movea.l 0x1e(a6), a1
        0x005c5456      554f           subq.w 0x2, a7
        0x005c5458      1f03           move.b d3, -(a7)
        0x005c545a      1f02           move.b d2, -(a7)
        0x005c545c      48780000       pea.l 0x0
        0x005c5460      48780001       pea.l 0x1
        0x005c5464      4851           pea.l (a1)
        0x005c5466      2f2e001a       move.l 0x1a(a6), -(a7)
        0x005c546a      2f2e0016       move.l 0x16(a6), -(a7)
        0x005c546e      3f2e0014       move.w 0x14(a6), -(a7)
        0x005c5472      486efffc       pea.l -0x4(a6)
        0x005c5476      4eb9005ed4dc   jsr FILE_STRUCTURE.fs_file_addr
        0x005c547c      dec4           adda.w d4, a7
        0x005c547e      4a1f           tst.b (a7)+
    < 0x005c5480      661a           bne.b 0x5c549c
       0x005c5482      9ec1           suba.w d1, a7
       0x005c5484      244f           movea.l a7, a2
       0x005c5486      47faa422       lea.l 0x5bf8aa(pc), a3
       0x005c548a      7008           moveq 0x8, d0
   > 0x005c548c      24db           move.l (a3)+, (a2)+
   < 0x005c548e      51c8fffc       dbra d0, 0x5c548c
       0x005c5492      49eeffb2       lea.l -0x4e(a6), a4
       0x005c5496      4ebafe7a       jsr AFS_FILER.fail(pc)
       0x005c549a      dec1           adda.w d1, a7
    > 0x005c549c      4851           pea.l (a1)
        0x005c549e      4eb90060500e   jsr F9_FILERDWRT.f_free_block
        0x005c54a4      544f           addq.w 0x2, a7
        0x005c54a6      2f2e001a       move.l 0x1a(a6), -(a7)
        0x005c54aa      2f2e0016       move.l 0x16(a6), -(a7)
        0x005c54ae      3f2e0014       move.w 0x14(a6), -(a7)
        0x005c54b2      2f2efffc       move.l -0x4(a6), -(a7)
        0x005c54b6      2f2e0010       move.l 0x10(a6), -(a7)
        0x005c54ba      4eb9005e6fec   jsr FILER_UTILITIES.fu_desc_write
        0x005c54c0      dec5           adda.w d5, a7
        0x005c54c2      4a1f           tst.b (a7)+
    < 0x005c54c4      661c           bne.b 0x5c54e2
       0x005c54c6      9ec1           suba.w d1, a7
       0x005c54c8      224f           movea.l a7, a1
       0x005c54ca      45faa402       lea.l 0x5bf8ce(pc), a2
       0x005c54ce      7004           moveq 0x4, d0
   > 0x005c54d0      22da           move.l (a2)+, (a1)+
   < 0x005c54d2      51c8fffc       dbra d0, 0x5c54d0
       0x005c54d6      32da           move.w (a2)+, (a1)+
    > 0x005c54d8      49eeffb2       lea.l -0x4e(a6), a4
        0x005c54dc      4ebafe34       jsr AFS_FILER.fail(pc)
        0x005c54e0      dec1           adda.w d1, a7
     > 0x005c54e2      1d420024       move.b d2, 0x24(a6)
       > 0x005c54e6      4cdf1f3f       movem.l (a7)+, d0-d5/a0-a4
           0x005c54ea      4e5e           unlk a6
           0x005c54ec      4e75           rts
 182: AFS_FILER.afs_grid_load_d ();
           0x005c54ee      4e56ffd8       link.w a6, 0xffd8
           0x005c54f2      bfd5           cmpa.l (a5), a7
       < 0x005c54f4      6206           bhi.b 0x5c54fc
          0x005c54f6      44fc0002       move.w 0x2, ccr
          0x005c54fa      4e76           trapv
       > 0x005c54fc      defc0026       adda.w 0x26, a7
           0x005c5500      48e7f100       movem.l d0-d3/d7, -(a7)
           0x005c5504      720c           moveq 0xc, d1
           0x005c5506      7401           moveq 0x1, d2
           0x005c5508      761b           moveq 0x1b, d3
           0x005c550a      4a2e0014       tst.b 0x14(a6)
       < 0x005c550e      672e           beq.b 0x5c553e
          0x005c5510      554f           subq.w 0x2, a7
          0x005c5512      3f03           move.w d3, -(a7)
          0x005c5514      2f2e0010       move.l 0x10(a6), -(a7)
          0x005c5518      2f2e000c       move.l 0xc(a6), -(a7)
          0x005c551c      202e0008       move.l 0x8(a6), d0
          0x005c5520      0c800000ffff   cmpi.l 0xffff, d0
      < 0x005c5526      6302           bls.b 0x5c552a
         0x005c5528      4e4f           trap 0xf
      > 0x005c552a      3f00           move.w d0, -(a7)
          0x005c552c      4eb9005eed96   jsr f_put_field
          0x005c5532      dec1           adda.w d1, a7
          0x005c5534      101f           move.b (a7)+, d0
          0x005c5536      4880           ext.w d0
          0x005c5538      4182           chk.w d2, d0
          0x005c553a      1e00           move.b d0, d7
      < 0x005c553c      6056           bra.b 0x5c5594
      > 0x005c553e      554f           subq.w 0x2, a7
          0x005c5540      3f03           move.w d3, -(a7)
          0x005c5542      2f2e0010       move.l 0x10(a6), -(a7)
          0x005c5546      2f2e000c       move.l 0xc(a6), -(a7)
          0x005c554a      202e0008       move.l 0x8(a6), d0
          0x005c554e      4480           neg.l d0
          0x005c5550      0480ffff8000   subi.l 0xffff8000, d0
          0x005c5556      0c800000ffff   cmpi.l 0xffff, d0
      < 0x005c555c      6302           bls.b 0x5c5560
         0x005c555e      4e4f           trap 0xf
      > 0x005c5560      0680ffff8000   addi.l 0xffff8000, d0
          0x005c5566      3f00           move.w d0, -(a7)
          0x005c5568      4eb9005eed1e   jsr f_get_field
          0x005c556e      dec1           adda.w d1, a7
          0x005c5570      101f           move.b (a7)+, d0
          0x005c5572      4880           ext.w d0
          0x005c5574      4182           chk.w d2, d0
          0x005c5576      1e00           move.b d0, d7
      < 0x005c5578      6618           bne.b 0x5c5592
         0x005c557a      487aa369       pea.l 0x5bf8e5(pc)
         0x005c557e      48780017       pea.l 0x17
         0x005c5582      2f17           move.l (a7), -(a7)
         0x005c5584      4eb9004047ea   jsr p_wts_o
         0x005c558a      dec1           adda.w d1, a7
         0x005c558c      4eb900404946   jsr p_wtln_o
      > 0x005c5592      7e01           moveq 0x1, d7
      > 0x005c5594      4887           ext.w d7
           0x005c5596      4f82           chk.w d2, d7
           0x005c5598      1d470016       move.b d7, 0x16(a6)
           0x005c559c      4cdf008f       movem.l (a7)+, d0-d3/d7
           0x005c55a0      4e5e           unlk a6
           0x005c55a2      4e75           rts
 122: AFS_FILER.afs_crop_data ();
           0x005c55a4      4e56ffd0       link.w a6, 0xffd0
           0x005c55a8      bfd5           cmpa.l (a5), a7
       < 0x005c55aa      6206           bhi.b 0x5c55b2
          0x005c55ac      44fc0002       move.w 0x2, ccr
          0x005c55b0      4e76           trapv
       > 0x005c55b2      defc002e       adda.w 0x2e, a7
           0x005c55b6      48e7f180       movem.l d0-d3/d7/a0, -(a7)
           0x005c55ba      7201           moveq 0x1, d1
           0x005c55bc      7423           moveq 0x23, d2
           0x005c55be      7612           moveq 0x12, d3
           0x005c55c0      206e0008       movea.l 0x8(a6), a0
           0x005c55c4      4210           clr.b (a0)
           0x005c55c6      4a2e0018       tst.b 0x18(a6)
       < 0x005c55ca      6716           beq.b 0x5c55e2
          0x005c55cc      554f           subq.w 0x2, a7
          0x005c55ce      3f02           move.w d2, -(a7)
          0x005c55d0      2f2e0014       move.l 0x14(a6), -(a7)
          0x005c55d4      2f2e0010       move.l 0x10(a6), -(a7)
          0x005c55d8      3f03           move.w d3, -(a7)
          0x005c55da      4eb9005eed96   jsr f_put_field
      < 0x005c55e0      6014           bra.b 0x5c55f6
      > 0x005c55e2      554f           subq.w 0x2, a7
          0x005c55e4      3f02           move.w d2, -(a7)
          0x005c55e6      2f2e0014       move.l 0x14(a6), -(a7)
          0x005c55ea      2f2e0010       move.l 0x10(a6), -(a7)
          0x005c55ee      3f03           move.w d3, -(a7)
          0x005c55f0      4eb9005eed1e   jsr f_get_field
      > 0x005c55f6      defc000c       adda.w 0xc, a7
           0x005c55fa      101f           move.b (a7)+, d0
           0x005c55fc      4880           ext.w d0
           0x005c55fe      4181           chk.w d1, d0
           0x005c5600      1e00           move.b d0, d7
           0x005c5602      4887           ext.w d7
           0x005c5604      4f81           chk.w d1, d7
           0x005c5606      1d47001a       move.b d7, 0x1a(a6)
           0x005c560a      4a47           tst.w d7
       < 0x005c560c      6608           bne.b 0x5c5616
          0x005c560e      4a2e0018       tst.b 0x18(a6)
      < 0x005c5612      6602           bne.b 0x5c5616
         0x005c5614      1081           move.b d1, (a0)
      > 0x005c5616      4cdf018f       movem.l (a7)+, d0-d3/d7/a0
           0x005c561a      4e5e           unlk a6
           0x005c561c      4e75           rts
 166: AFS_FILER.afs_font_family ();
           0x005c561e      4e56ffd8       link.w a6, 0xffd8
           0x005c5622      bfd5           cmpa.l (a5), a7
       < 0x005c5624      6206           bhi.b 0x5c562c
          0x005c5626      44fc0002       move.w 0x2, ccr
          0x005c562a      4e76           trapv
       > 0x005c562c      defc0026       adda.w 0x26, a7
           0x005c5630      48e7e180       movem.l d0-d2/d7/a0, -(a7)
           0x005c5634      41ee0008       lea.l 0x8(a6), a0
           0x005c5638      7219           moveq 0x19, d1
           0x005c563a      7401           moveq 0x1, d2
           0x005c563c      4227           clr.b -(a7)
           0x005c563e      2010           move.l (a0), d0
           0x005c5640      0c8000000004   cmpi.l 0x4, d0
       < 0x005c5646      6602           bne.b 0x5c564a
          0x005c5648      5217           addq.b 0x1, (a7)
       > 0x005c564a      4eb90040452a   jsr p_Assert
           0x005c5650      544f           addq.w 0x2, a7
           0x005c5652      4a2e0014       tst.b 0x14(a6)
       < 0x005c5656      6722           beq.b 0x5c567a
          0x005c5658      554f           subq.w 0x2, a7
          0x005c565a      3f01           move.w d1, -(a7)
          0x005c565c      2f2e0010       move.l 0x10(a6), -(a7)
          0x005c5660      2f2e000c       move.l 0xc(a6), -(a7)
          0x005c5664      2010           move.l (a0), d0
          0x005c5666      0c800000ffff   cmpi.l 0xffff, d0
      < 0x005c566c      6302           bls.b 0x5c5670
         0x005c566e      4e4f           trap 0xf
      > 0x005c5670      3f00           move.w d0, -(a7)
          0x005c5672      4eb9005eed96   jsr f_put_field
      < 0x005c5678      602e           bra.b 0x5c56a8
      > 0x005c567a      4490           neg.l (a0)
          0x005c567c      554f           subq.w 0x2, a7
          0x005c567e      3f01           move.w d1, -(a7)
          0x005c5680      2f2e0010       move.l 0x10(a6), -(a7)
          0x005c5684      2f2e000c       move.l 0xc(a6), -(a7)
          0x005c5688      2010           move.l (a0), d0
          0x005c568a      0480ffff8000   subi.l 0xffff8000, d0
          0x005c5690      0c800000ffff   cmpi.l 0xffff, d0
      < 0x005c5696      6302           bls.b 0x5c569a
         0x005c5698      4e4f           trap 0xf
      > 0x005c569a      0680ffff8000   addi.l 0xffff8000, d0
          0x005c56a0      3f00           move.w d0, -(a7)
          0x005c56a2      4eb9005eed1e   jsr f_get_field
      > 0x005c56a8      defc000c       adda.w 0xc, a7
           0x005c56ac      101f           move.b (a7)+, d0
           0x005c56ae      4880           ext.w d0
           0x005c56b0      4182           chk.w d2, d0
           0x005c56b2      1e00           move.b d0, d7
           0x005c56b4      4887           ext.w d7
           0x005c56b6      4f82           chk.w d2, d7
           0x005c56b8      1d470016       move.b d7, 0x16(a6)
           0x005c56bc      4cdf0187       movem.l (a7)+, d0-d2/d7/a0
           0x005c56c0      4e5e           unlk a6
           0x005c56c2      4e75           rts
            ; CALL XREF from AFS_FILER.afs_multi_data @ 0x5c5b02
            ; CALL XREF from AFS_FILER.afs_data @ 0x5c5c96
            ; CALL XREF from AFS_FILER.afs_data_len @ 0x5c5d84
            ; CALL XREF from AFS_FILER.afs_str_data @ 0x5c5e66
            ; CALL XREF from AFS_FILER.afs_passwords @ 0x5c60d6
 40: AFS_FILER.afs0_c_mode ();
           0x005c56c4      4e56fffc       link.w a6, 0xfffc
           0x005c56c8      bfd5           cmpa.l (a5), a7
       < 0x005c56ca      6206           bhi.b 0x5c56d2
          0x005c56cc      44fc0002       move.w 0x2, ccr
          0x005c56d0      4e76           trapv
       > 0x005c56d2      defc0004       adda.w 0x4, a7
           0x005c56d6      4a2e0008       tst.b 0x8(a6)
       < 0x005c56da      6606           bne.b 0x5c56e2
          0x005c56dc      422e000a       clr.b 0xa(a6)
      < 0x005c56e0      6006           bra.b 0x5c56e8
      > 0x005c56e2      1d7c0001000a   move.b 0x1, 0xa(a6)
      > 0x005c56e8      4e5e           unlk a6
           0x005c56ea      4e75           rts
            ; CALL XREF from AFS_FILER.afs_multi_data @ 0x5c5bc0
            ; CALL XREF from AFS_FILER.afs_data @ 0x5c5d0c
            ; CALL XREF from AFS_FILER.afs_data_len @ 0x5c5dfc
 66: AFS_FILER.data_field ();
           ; var int32_t var_6184h @ a6-0x6184
           ; var int32_t var_617fh @ a6-0x617f
           0x005c56ec      4e56ffb2       link.w a6, 0xffb2
           0x005c56f0      bfd5           cmpa.l (a5), a7
       < 0x005c56f2      6206           bhi.b 0x5c56fa
          0x005c56f4      44fc0002       move.w 0x2, ccr
          0x005c56f8      4e76           trapv
       > 0x005c56fa      defc004c       adda.w 0x4c, a7
           0x005c56fe      48e7f1f8       movem.l d0-d3/d7/a0-a4, -(a7)
           0x005c5702      45ee0018       lea.l 0x18(a6), a2
           0x005c5706      47ee0012       lea.l 0x12(a6), a3
           0x005c570a      49ee000c       lea.l 0xc(a6), a4
           0x005c570e      740a           moveq 0xa, d2
           0x005c5710      761c           moveq 0x1c, d3
           0x005c5712      7e00           moveq 0x0, d7
           0x005c5714      102e0010       move.b 0x10(a6), d0
           0x005c5718      4880           ext.w d0
           0x005c571a      3200           move.w d0, d1
           0x005c571c      5541           subq.w 0x2, d1
           0x005c571e      b243           cmp.w d3, d1
       < 0x005c5720      6200032e       bhi.w 0x5c5a50
          0x005c5724      d241           add.w d1, d1
          0x005c5726      323b1006       move.w 0x5c572e(pc, d1.w), d1
          0x005c572a      4efb1002       jmp 0x5c572e(pc, d1.w)
           0x005c572e      003a0322       
           0x005c572f      3a03           move.w d3, d5
           0x005c5731      2200           move.l d0, d1
           0x005c5733      7000           moveq 0x0, d0
           0x005c5735      9200           sub.b d0, d1
           0x005c5737      c600           and.b d0, d3
           0x005c5739      dc00           add.b d0, d6
           0x005c573b      f2020a03       fintrz fp2, fp4
           0x005c573f      2201           move.l d1, d1
           0x005c5741      2401           move.l d1, d2
           0x005c5743      5201           addq.b 0x1, d1
           0x005c5745      a201           invalid
           0x005c5747      7a01           moveq 0x1, d5
           0x005c5749      0800ac01       
           0x005c574a      00ac01ba01e2.  ori.l 0x1ba01e2, 0x22a(a4)
           0x005c5752      02580258       andi.w 0x258, (a0)+
           0x005c5756      02580258       andi.w 0x258, (a0)+
           0x005c575a      027602f2028e   andi.w 0x2f2, -0x72(a6, d0.w)
           0x005c5760      02aa02ae02ca.  andi.l 0x2ae02ca, 0x30a(a2)
           0x005c5768      554f           subq.w 0x2, a7
           0x005c576a      2052           movea.l (a2), a0
           0x005c576c      2f10           move.l (a0), -(a7)
           0x005c576e      1f13           move.b (a3), -(a7)
           0x005c5770      206e0014       movea.l 0x14(a6), a0
           0x005c5774      9ec2           suba.w d2, a7
           0x005c5776      224f           movea.l a7, a1
           0x005c5778      7209           moveq 0x9, d1
       > 0x005c577a      12d8           move.b (a0)+, (a1)+
       < 0x005c577c      51c9fffc       dbra d1, 0x5c577a
           0x005c5780      2f14           move.l (a4), -(a7)
           0x005c5782      206e0008       movea.l 0x8(a6), a0
           0x005c5786      2f10           move.l (a0), -(a7)
           0x005c5788      4ebaec32       jsr AFS_FILER.afs_name(pc)
   > 0x005c578c      defc0018       adda.w 0x18, a7
  > 0x005c5790      121f           move.b (a7)+, d1
     0x005c5792      4881           ext.w d1
     0x005c5794      43bc0001       chk.w 0x1, d1
     0x005c5798      1e01           move.b d1, d7
  < 0x005c579a      600002e0       bra.w 0x5c5a7c
     0x005c579e      554f           subq.w 0x2, a7
     0x005c57a0      1f13           move.b (a3), -(a7)
     0x005c57a2      2052           movea.l (a2), a0
     0x005c57a4      2f10           move.l (a0), -(a7)
     0x005c57a6      2f14           move.l (a4), -(a7)
     0x005c57a8      206e0008       movea.l 0x8(a6), a0
     0x005c57ac      2f10           move.l (a0), -(a7)
     0x005c57ae      48780012       pea.l 0x12
     0x005c57b2      48780006       pea.l 0x6
  > 0x005c57b6      4ebae8d4       jsr AFS_FILER.afs_general_dat(pc)
     0x005c57ba      defc0016       adda.w 0x16, a7
  < 0x005c57be      60d0           bra.b 0x5c5790
     0x005c57c0      554f           subq.w 0x2, a7
     0x005c57c2      1f13           move.b (a3), -(a7)
     0x005c57c4      2052           movea.l (a2), a0
     0x005c57c6      2f10           move.l (a0), -(a7)
     0x005c57c8      2f14           move.l (a4), -(a7)
     0x005c57ca      206e0008       movea.l 0x8(a6), a0
     0x005c57ce      2f10           move.l (a0), -(a7)
     0x005c57d0      4ebaef70       jsr AFS_FILER.afs_font_master(pc)
  > 0x005c57d4      defc000e       adda.w 0xe, a7
  < 0x005c57d8      60b6           bra.b 0x5c5790
     0x005c57da      554f           subq.w 0x2, a7
     0x005c57dc      1f13           move.b (a3), -(a7)
     0x005c57de      2052           movea.l (a2), a0
     0x005c57e0      2f10           move.l (a0), -(a7)
     0x005c57e2      2f14           move.l (a4), -(a7)
     0x005c57e4      206e0008       movea.l 0x8(a6), a0
     0x005c57e8      2f10           move.l (a0), -(a7)
     0x005c57ea      48780019       pea.l 0x19
  > 0x005c57ee      48780004       pea.l 0x4
  < 0x005c57f2      60c2           bra.b 0x5c57b6
     0x005c57f4      554f           subq.w 0x2, a7
     0x005c57f6      1f13           move.b (a3), -(a7)
     0x005c57f8      2052           movea.l (a2), a0
     0x005c57fa      2f10           move.l (a0), -(a7)
     0x005c57fc      2f14           move.l (a4), -(a7)
     0x005c57fe      206e0008       movea.l 0x8(a6), a0
     0x005c5802      2f10           move.l (a0), -(a7)
     0x005c5804      4ebaf23c       jsr AFS_FILER.afs_cutout_data(pc)
  < 0x005c5808      60ca           bra.b 0x5c57d4
     0x005c580a      554f           subq.w 0x2, a7
     0x005c580c      1f13           move.b (a3), -(a7)
     0x005c580e      2052           movea.l (a2), a0
     0x005c5810      2f10           move.l (a0), -(a7)
     0x005c5812      2f14           move.l (a4), -(a7)
     0x005c5814      206e0008       movea.l 0x8(a6), a0
     0x005c5818      2f10           move.l (a0), -(a7)
     0x005c581a      4ebaf286       jsr AFS_FILER.afs_grid_data(pc)
  < 0x005c581e      60b4           bra.b 0x5c57d4
  > 0x005c5820      554f           subq.w 0x2, a7
     0x005c5822      1f13           move.b (a3), -(a7)
     0x005c5824      2052           movea.l (a2), a0
     0x005c5826      2f10           move.l (a0), -(a7)
     0x005c5828      2f14           move.l (a4), -(a7)
     0x005c582a      206e0008       movea.l 0x8(a6), a0
     0x005c582e      2f10           move.l (a0), -(a7)
     0x005c5830      48780012       pea.l 0x12
  < 0x005c5834      60b8           bra.b 0x5c57ee
     0x005c5836      554f           subq.w 0x2, a7
     0x005c5838      1f13           move.b (a3), -(a7)
     0x005c583a      2052           movea.l (a2), a0
     0x005c583c      2f10           move.l (a0), -(a7)
     0x005c583e      2f14           move.l (a4), -(a7)
     0x005c5840      206e0008       movea.l 0x8(a6), a0
     0x005c5844      2f10           move.l (a0), -(a7)
     0x005c5846      48780012       pea.l 0x12
     0x005c584a      48780020       pea.l 0x20
  < 0x005c584e      6000ff66       bra.w 0x5c57b6
     0x005c5852      554f           subq.w 0x2, a7
     0x005c5854      1f13           move.b (a3), -(a7)
     0x005c5856      2052           movea.l (a2), a0
     0x005c5858      2f10           move.l (a0), -(a7)
     0x005c585a      206e0014       movea.l 0x14(a6), a0
     0x005c585e      9ec2           suba.w d2, a7
     0x005c5860      224f           movea.l a7, a1
     0x005c5862      7209           moveq 0x9, d1
  > 0x005c5864      12d8           move.b (a0)+, (a1)+
  < 0x005c5866      51c9fffc       dbra d1, 0x5c5864
     0x005c586a      2f14           move.l (a4), -(a7)
     0x005c586c      206e0008       movea.l 0x8(a6), a0
     0x005c5870      2f10           move.l (a0), -(a7)
     0x005c5872      4227           clr.b -(a7)
     0x005c5874      4ebae68e       jsr AFS_FILER.afs_get_file_si(pc)
     0x005c5878      defc001a       adda.w 0x1a, a7
  < 0x005c587c      6000ff12       bra.w 0x5c5790
     0x005c5880      554f           subq.w 0x2, a7
     0x005c5882      1f13           move.b (a3), -(a7)
     0x005c5884      2052           movea.l (a2), a0
     0x005c5886      2f10           move.l (a0), -(a7)
     0x005c5888      206e0014       movea.l 0x14(a6), a0
     0x005c588c      9ec2           suba.w d2, a7
     0x005c588e      224f           movea.l a7, a1
     0x005c5890      7209           moveq 0x9, d1
  > 0x005c5892      12d8           move.b (a0)+, (a1)+
  < 0x005c5894      51c9fffc       dbra d1, 0x5c5892
     0x005c5898      2f14           move.l (a4), -(a7)
     0x005c589a      206e0008       movea.l 0x8(a6), a0
     0x005c589e      2f10           move.l (a0), -(a7)
     0x005c58a0      4ebaea2c       jsr AFS_FILER.afs_get_f_aspec(pc)
  < 0x005c58a4      6000fee6       bra.w 0x5c578c
      0x005c58a8      554f           subq.w 0x2, a7
      0x005c58aa      1f13           move.b (a3), -(a7)
      0x005c58ac      2052           movea.l (a2), a0
      0x005c58ae      2f10           move.l (a0), -(a7)
      0x005c58b0      206e0014       movea.l 0x14(a6), a0
      0x005c58b4      9ec2           suba.w d2, a7
      0x005c58b6      224f           movea.l a7, a1
      0x005c58b8      7209           moveq 0x9, d1
  > 0x005c58ba      12d8           move.b (a0)+, (a1)+
  < 0x005c58bc      51c9fffc       dbra d1, 0x5c58ba
      0x005c58c0      2f14           move.l (a4), -(a7)
      0x005c58c2      206e0008       movea.l 0x8(a6), a0
      0x005c58c6      2f10           move.l (a0), -(a7)
      0x005c58c8      4ebaf7ce       jsr AFS_FILER.afs_get_browse_(pc)
   < 0x005c58cc      6000febe       bra.w 0x5c578c
       0x005c58d0      554f           subq.w 0x2, a7
       0x005c58d2      1f13           move.b (a3), -(a7)
       0x005c58d4      2052           movea.l (a2), a0
       0x005c58d6      2f10           move.l (a0), -(a7)
       0x005c58d8      2f14           move.l (a4), -(a7)
       0x005c58da      206e0008       movea.l 0x8(a6), a0
       0x005c58de      2f10           move.l (a0), -(a7)
       0x005c58e0      4ebaf6fa       jsr AFS_FILER.afs_browse_stor(pc)
  < 0x005c58e4      6000feee       bra.w 0x5c57d4
       0x005c58e8      554f           subq.w 0x2, a7
       0x005c58ea      1f13           move.b (a3), -(a7)
       0x005c58ec      2052           movea.l (a2), a0
       0x005c58ee      2f10           move.l (a0), -(a7)
       0x005c58f0      206e0014       movea.l 0x14(a6), a0
       0x005c58f4      9ec2           suba.w d2, a7
       0x005c58f6      224f           movea.l a7, a1
       0x005c58f8      7209           moveq 0x9, d1
   > 0x005c58fa      12d8           move.b (a0)+, (a1)+
   < 0x005c58fc      51c9fffc       dbra d1, 0x5c58fa
       0x005c5900      2f14           move.l (a4), -(a7)
       0x005c5902      206e0008       movea.l 0x8(a6), a0
       0x005c5906      2f10           move.l (a0), -(a7)
       0x005c5908      4ebaed08       jsr AFS_FILER.afs_get_file_lo(pc)
    < 0x005c590c      6000fe7e       bra.w 0x5c578c
        0x005c5910      554f           subq.w 0x2, a7
        0x005c5912      1f13           move.b (a3), -(a7)
        0x005c5914      2052           movea.l (a2), a0
        0x005c5916      2f10           move.l (a0), -(a7)
        0x005c5918      206e0014       movea.l 0x14(a6), a0
        0x005c591c      9ec2           suba.w d2, a7
        0x005c591e      224f           movea.l a7, a1
        0x005c5920      7209           moveq 0x9, d1
    > 0x005c5922      12d8           move.b (a0)+, (a1)+
    < 0x005c5924      51c9fffc       dbra d1, 0x5c5922
        0x005c5928      2f14           move.l (a4), -(a7)
        0x005c592a      206e0008       movea.l 0x8(a6), a0
        0x005c592e      2f10           move.l (a0), -(a7)
        0x005c5930      4ebaf8ce       jsr 0x5c5200(pc)
     < 0x005c5934      6000fe56       bra.w 0x5c578c
         0x005c5938      554f           subq.w 0x2, a7
         0x005c593a      1f13           move.b (a3), -(a7)
         0x005c593c      2052           movea.l (a2), a0
         0x005c593e      2f10           move.l (a0), -(a7)
         0x005c5940      2f14           move.l (a4), -(a7)
         0x005c5942      206e0008       movea.l 0x8(a6), a0
         0x005c5946      2f10           move.l (a0), -(a7)
         0x005c5948      486efffe       pea.l -0x2(a6)
         0x005c594c      4ebaf296       jsr AFS_FILER.afs_panel_data(pc)
     > 0x005c5950      defc0012       adda.w 0x12, a7
  < 0x005c5954      6000fe3a       bra.w 0x5c5790
        0x005c5958      554f           subq.w 0x2, a7
        0x005c595a      1f13           move.b (a3), -(a7)
        0x005c595c      2052           movea.l (a2), a0
        0x005c595e      4850           pea.l (a0)
        0x005c5960      206e0014       movea.l 0x14(a6), a0
        0x005c5964      9ec2           suba.w d2, a7
        0x005c5966      224f           movea.l a7, a1
        0x005c5968      7209           moveq 0x9, d1
    > 0x005c596a      12d8           move.b (a0)+, (a1)+
    < 0x005c596c      51c9fffc       dbra d1, 0x5c596a
        0x005c5970      2f14           move.l (a4), -(a7)
        0x005c5972      206e0008       movea.l 0x8(a6), a0
        0x005c5976      2f10           move.l (a0), -(a7)
        0x005c5978      486efffe       pea.l -0x2(a6)
        0x005c597c      4ebaf9fa       jsr AFS_FILER.afs_description(pc)
        0x005c5980      dec3           adda.w d3, a7
  < 0x005c5982      6000fe0c       bra.w 0x5c5790
        0x005c5986      554f           subq.w 0x2, a7
        0x005c5988      1f13           move.b (a3), -(a7)
        0x005c598a      2052           movea.l (a2), a0
        0x005c598c      2f10           move.l (a0), -(a7)
        0x005c598e      1f00           move.b d0, -(a7)
        0x005c5990      2f14           move.l (a4), -(a7)
        0x005c5992      206e0008       movea.l 0x8(a6), a0
        0x005c5996      2f10           move.l (a0), -(a7)
        0x005c5998      4ebaf4e0       jsr AFS_FILER.afs_udf(pc)
        0x005c599c      defc0010       adda.w 0x10, a7
  < 0x005c59a0      6000fdee       bra.w 0x5c5790
         0x005c59a4      554f           subq.w 0x2, a7
         0x005c59a6      1f13           move.b (a3), -(a7)
         0x005c59a8      2052           movea.l (a2), a0
         0x005c59aa      2f10           move.l (a0), -(a7)
         0x005c59ac      2f14           move.l (a4), -(a7)
         0x005c59ae      206e0008       movea.l 0x8(a6), a0
         0x005c59b2      2f10           move.l (a0), -(a7)
         0x005c59b4      4ebafb38       jsr AFS_FILER.afs_grid_load_d(pc)
  < 0x005c59b8      6000fe1a       bra.w 0x5c57d4
         0x005c59bc      554f           subq.w 0x2, a7
         0x005c59be      1f13           move.b (a3), -(a7)
         0x005c59c0      2052           movea.l (a2), a0
         0x005c59c2      2f10           move.l (a0), -(a7)
         0x005c59c4      2f14           move.l (a4), -(a7)
         0x005c59c6      206e0008       movea.l 0x8(a6), a0
         0x005c59ca      2f10           move.l (a0), -(a7)
         0x005c59cc      486efffe       pea.l -0x2(a6)
         0x005c59d0      4ebafbd2       jsr AFS_FILER.afs_crop_data(pc)
      < 0x005c59d4      6000ff7a       bra.w 0x5c5950
  < 0x005c59d8      6000fe46       bra.w 0x5c5820
          0x005c59dc      554f           subq.w 0x2, a7
          0x005c59de      1f13           move.b (a3), -(a7)
          0x005c59e0      2052           movea.l (a2), a0
          0x005c59e2      2f10           move.l (a0), -(a7)
          0x005c59e4      2f14           move.l (a4), -(a7)
          0x005c59e6      206e0008       movea.l 0x8(a6), a0
          0x005c59ea      2f10           move.l (a0), -(a7)
          0x005c59ec      48780045       pea.l 0x45
          0x005c59f0      48780000       pea.l 0x0
  < 0x005c59f4      6000fdc0       bra.w 0x5c57b6
          0x005c59f8      554f           subq.w 0x2, a7
          0x005c59fa      1f13           move.b (a3), -(a7)
          0x005c59fc      2052           movea.l (a2), a0
          0x005c59fe      2f10           move.l (a0), -(a7)
          0x005c5a00      206e0014       movea.l 0x14(a6), a0
          0x005c5a04      9ec2           suba.w d2, a7
          0x005c5a06      224f           movea.l a7, a1
          0x005c5a08      7209           moveq 0x9, d1
      > 0x005c5a0a      12d8           move.b (a0)+, (a1)+
      < 0x005c5a0c      51c9fffc       dbra d1, 0x5c5a0a
          0x005c5a10      2f14           move.l (a4), -(a7)
          0x005c5a12      206e0008       movea.l 0x8(a6), a0
          0x005c5a16      2f10           move.l (a0), -(a7)
          0x005c5a18      4ebae79c       jsr AFS_FILER.afs_planes_data(pc)
       < 0x005c5a1c      6000fd6e       bra.w 0x5c578c
           0x005c5a20      554f           subq.w 0x2, a7
           0x005c5a22      1f13           move.b (a3), -(a7)
           0x005c5a24      2052           movea.l (a2), a0
           0x005c5a26      2f10           move.l (a0), -(a7)
           0x005c5a28      2f14           move.l (a4), -(a7)
           0x005c5a2a      206e0008       movea.l 0x8(a6), a0
           0x005c5a2e      4850           pea.l (a0)
           0x005c5a30      4ebaf100       jsr AFS_FILER.afs_desk_data(pc)
  < 0x005c5a34      6000fd9e       bra.w 0x5c57d4
           0x005c5a38      554f           subq.w 0x2, a7
           0x005c5a3a      1f13           move.b (a3), -(a7)
           0x005c5a3c      2052           movea.l (a2), a0
           0x005c5a3e      2f10           move.l (a0), -(a7)
           0x005c5a40      2f14           move.l (a4), -(a7)
           0x005c5a42      206e0008       movea.l 0x8(a6), a0
           0x005c5a46      2f10           move.l (a0), -(a7)
           0x005c5a48      4ebafbd4       jsr AFS_FILER.afs_font_family(pc)
  < 0x005c5a4c      6000fd86       bra.w 0x5c57d4
        > 0x005c5a50      487a9eab       pea.l 0x5bf8fd(pc)
            0x005c5a54      48780019       pea.l 0x19
            0x005c5a58      2f17           move.l (a7), -(a7)
            0x005c5a5a      4eb9004047ea   jsr p_wts_o
            0x005c5a60      defc000c       adda.w 0xc, a7
            0x005c5a64      48c0           ext.l d0
            0x005c5a66      2f00           move.l d0, -(a7)
            0x005c5a68      48780000       pea.l 0x0
            0x005c5a6c      4eb9004070e4   jsr p_wti_o
            0x005c5a72      504f           addq.w 0x8, a7
            0x005c5a74      4eb900404946   jsr p_wtln_o
            0x005c5a7a      7e00           moveq 0x0, d7
  > 0x005c5a7c      554f           subq.w 0x2, a7
            0x005c5a7e      1f07           move.b d7, -(a7)
            0x005c5a80      4ebae0c4       jsr AFS_FILER.get_result(pc)
            0x005c5a84      544f           addq.w 0x2, a7
            0x005c5a86      3d5f001c       move.w (a7)+, 0x1c(a6)
            0x005c5a8a      4a07           tst.b d7
        < 0x005c5a8c      6612           bne.b 0x5c5aa0
           0x005c5a8e      4a2efffe       tst.b -0x2(a6)
       < 0x005c5a92      670c           beq.b 0x5c5aa0
          0x005c5a94      1d7a9e81001c   move.b 0x5bf917(pc), 0x1c(a6)
          0x005c5a9a      1d7a9e7c001d   move.b 0x5bf918(pc), 0x1d(a6)
       > 0x005c5aa0      4cdf1f8f       movem.l (a7)+, d0-d3/d7/a0-a4
            0x005c5aa4      4e5e           unlk a6
            0x005c5aa6      4e75           rts
            ; CALL XREF from K1_AFS_ONLY.k1_multi_data @ 0x5abe54
 408: AFS_FILER.afs_multi_data (int32_t arg_bh);
           ; var int32_t var_61f2h @ a6-0x61f2
           ; var int32_t var_619eh @ a6-0x619e
           ; arg int32_t arg_bh @ a6+0xb
           0x005c5aa8      4e56ff02       link.w a6, 0xff02
           0x005c5aac      bfd5           cmpa.l (a5), a7
       < 0x005c5aae      6206           bhi.b 0x5c5ab6
          0x005c5ab0      44fc0002       move.w 0x2, ccr
          0x005c5ab4      4e76           trapv
       > 0x005c5ab6      defc00aa       adda.w 0xaa, a7
           0x005c5aba      48e7f9f8       movem.l d0-d4/d7/a0-a4, -(a7)
           0x005c5abe      47eefff6       lea.l -0xa(a6), a3
           0x005c5ac2      49eefffe       lea.l -0x2(a6), a4
           0x005c5ac6      243cffff0001   move.l 0xffff0001, d2
           0x005c5acc      3d7a9e620012   move.w 0x5bf930(pc), 0x12(a6)
           0x005c5ad2      554f           subq.w 0x2, a7
           0x005c5ad4      486effac       pea.l -0x54(a6)
           0x005c5ad8      4eb900404434   jsr fcn.00404434
           0x005c5ade      584f           addq.w 0x4, a7
           0x005c5ae0      4a1f           tst.b (a7)+
       < 0x005c5ae2      67000154       beq.w 0x5c5c38
          0x005c5ae6      2682           move.l d2, (a3)
          0x005c5ae8      554f           subq.w 0x2, a7
          0x005c5aea      206e000e       movea.l 0xe(a6), a0
          0x005c5aee      9efc000a       suba.w 0xa, a7
          0x005c5af2      224f           movea.l a7, a1
          0x005c5af4      7009           moveq 0x9, d0
      > 0x005c5af6      12d8           move.b (a0)+, (a1)+
      < 0x005c5af8      51c8fffc       dbra d0, 0x5c5af6
          0x005c5afc      554f           subq.w 0x2, a7
          0x005c5afe      1f2e000c       move.b 0xc(a6), -(a7)
          0x005c5b02      4ebafbc0       jsr AFS_FILER.afs0_c_mode(pc)
          0x005c5b06      544f           addq.w 0x2, a7
          0x005c5b08      1017           move.b (a7), d0
          0x005c5b0a      4880           ext.w d0
          0x005c5b0c      41bc0004       chk.w 0x4, d0
          0x005c5b10      1e80           move.b d0, (a7)
          0x005c5b12      4853           pea.l (a3)
          0x005c5b14      4eb9006082de   jsr F10_FILELIST.f_get_header
          0x005c5b1a      defc0010       adda.w 0x10, a7
          0x005c5b1e      4a1f           tst.b (a7)+
      < 0x005c5b20      6636           bne.b 0x5c5b58
         0x005c5b22      9efc0020       suba.w 0x20, a7
         0x005c5b26      204f           movea.l a7, a0
         0x005c5b28      43fa9e23       lea.l 0x5bf94d(pc), a1
         0x005c5b2c      701e           moveq 0x1e, d0
     > 0x005c5b2e      10d9           move.b (a1)+, (a0)+
     < 0x005c5b30      51c8fffc       dbra d0, 0x5c5b2e
         0x005c5b34      4857           pea.l (a7)
         0x005c5b36      48780001       pea.l 0x1
         0x005c5b3a      4878001f       pea.l 0x1f
         0x005c5b3e      1f02           move.b d2, -(a7)
         0x005c5b40      1f02           move.b d2, -(a7)
         0x005c5b42      204b           movea.l a3, a0
         0x005c5b44      7011           moveq 0x11, d0
     > 0x005c5b46      2f20           move.l -(a0), -(a7)
     < 0x005c5b48      51c8fffc       dbra d0, 0x5c5b46
         0x005c5b4c      3f20           move.w -(a0), -(a7)
         0x005c5b4e      4eb9005c6e76   jsr AFS1_UTIL.afs1_abort
         0x005c5b54      defc007a       adda.w 0x7a, a7
      > 0x005c5b58      7e01           moveq 0x1, d7
          0x005c5b5a      18ba9e11       move.b 0x5bf96d(pc), (a4)
          0x005c5b5e      1d7a9e0effff   move.b 0x5bf96e(pc), -0x1(a6)
          0x005c5b64      206e000e       movea.l 0xe(a6), a0
          0x005c5b68      226e0008       movea.l 0x8(a6), a1
      > 0x005c5b6c      2007           move.l d7, d0
         0x005c5b6e      5380           subq.l 0x1, d0
         0x005c5b70      0c800000001f   cmpi.l 0x1f, d0
     < 0x005c5b76      6302           bls.b 0x5c5b7a
        0x005c5b78      4e4f           trap 0xf
     > 0x005c5b7a      2800           move.l d0, d4
         0x005c5b7c      760c           moveq 0xc, d3
         0x005c5b7e      4eb900406a74   jsr fcn.00406a74
         0x005c5b84      10314800       move.b (a1, d4.l), d0
         0x005c5b88      4880           ext.w d0
         0x005c5b8a      45fa9de4       lea.l 0x5bf970(pc), a2
         0x005c5b8e      3200           move.w d0, d1
         0x005c5b90      e649           lsr.w 0x3, d1
         0x005c5b92      01321000       btst.l d0, (a2, d1.w)
     < 0x005c5b96      66000092       bne.w 0x5c5c2a
        0x005c5b9a      554f           subq.w 0x2, a7
        0x005c5b9c      4853           pea.l (a3)
        0x005c5b9e      4850           pea.l (a0)
        0x005c5ba0      4227           clr.b -(a7)
        0x005c5ba2      102e000c       move.b 0xc(a6), d0
        0x005c5ba6      b002           cmp.b d2, d0
    < 0x005c5ba8      6602           bne.b 0x5c5bac
       0x005c5baa      5217           addq.b 0x1, (a7)
    > 0x005c5bac      10314800       move.b (a1, d4.l), d0
        0x005c5bb0      4880           ext.w d0
        0x005c5bb2      41bc001e       chk.w 0x1e, d0
        0x005c5bb6      1f00           move.b d0, -(a7)
        0x005c5bb8      2f314802       move.l 0x2(a1, d4.l), -(a7)
        0x005c5bbc      48714806       pea.l 0x6(a1, d4.l)
        0x005c5bc0      4ebafb2a       jsr AFS_FILER.data_field(pc)
        0x005c5bc4      defc0014       adda.w 0x14, a7
        0x005c5bc8      1397480a       move.b (a7), 0xa(a1, d4.l)
        0x005c5bcc      13af0001480b   move.b 0x1(a7), 0xb(a1, d4.l)
        0x005c5bd2      544f           addq.w 0x2, a7
        0x005c5bd4      1031480a       move.b 0xa(a1, d4.l), d0
        0x005c5bd8      b03a9d9b       cmp.b 0x5bf975(pc), d0
    < 0x005c5bdc      6608           bne.b 0x5c5be6
       0x005c5bde      1031480b       move.b 0xb(a1, d4.l), d0
       0x005c5be2      b03a9d92       cmp.b 0x5bf976(pc), d0
   > 0x005c5be6      673c           beq.b 0x5c5c24
       0x005c5be8      1031480a       move.b 0xa(a1, d4.l), d0
       0x005c5bec      b03a9d8a       cmp.b 0x5bf978(pc), d0
   < 0x005c5bf0      6608           bne.b 0x5c5bfa
      0x005c5bf2      1031480b       move.b 0xb(a1, d4.l), d0
      0x005c5bf6      b03a9d81       cmp.b 0x5bf979(pc), d0
  > 0x005c5bfa      6602           bne.b 0x5c5bfe
  < 0x005c5bfc      601c           bra.b 0x5c5c1a
  > 0x005c5bfe      1031480a       move.b 0xa(a1, d4.l), d0
      0x005c5c02      b03a9d77       cmp.b 0x5bf97b(pc), d0
  < 0x005c5c06      6608           bne.b 0x5c5c10
     0x005c5c08      1031480b       move.b 0xb(a1, d4.l), d0
     0x005c5c0c      b03a9d6e       cmp.b 0x5bf97c(pc), d0
 > 0x005c5c10      6612           bne.b 0x5c5c24
     0x005c5c12      3014           move.w (a4), d0
     0x005c5c14      b07a9d68       cmp.w 0x5bf97e(pc), d0
 < 0x005c5c18      660a           bne.b 0x5c5c24
 > 0x005c5c1a      18b1480a       move.b 0xa(a1, d4.l), (a4)
     0x005c5c1e      1d71480bffff   move.b 0xb(a1, d4.l), -0x1(a6)
 > 0x005c5c24      5287           addq.l 0x1, d7
     < 0x005c5c26      6000ff44       bra.w 0x5c5b6c
     > 0x005c5c2a      3d540012       move.w (a4), 0x12(a6)
          0x005c5c2e      4853           pea.l (a3)
          0x005c5c30      4eb90060500e   jsr F9_FILERDWRT.f_free_block
          0x005c5c36      584f           addq.w 0x4, a7
       > 0x005c5c38      4cdf1f9f       movem.l (a7)+, d0-d4/d7/a0-a4
           0x005c5c3c      4e5e           unlk a6
           0x005c5c3e      4e75           rts
            ; CALL XREF from K1_AFS_ONLY.k1_data @ 0x5abdc6
            ; CALL XREF from PANEL_PREFETCH.put_cutout_data @ 0x78bb60
            ; CALL XREF from PANEL_PREFETCH.get_cutout_data @ 0x78bc26
            ; CALL XREF from PANEL_PREFETCH.get_mattenum @ 0x78bd56
            ; CALL XREF from PANEL_PREFETCH.set_mattenum @ 0x78be46
 234: AFS_FILER.afs_data ();
           ; var int32_t var_62a4h @ a6-0x62a4
           0x005c5c40      4e56ff1c       link.w a6, 0xff1c
           0x005c5c44      bfd5           cmpa.l (a5), a7
       < 0x005c5c46      6206           bhi.b 0x5c5c4e
          0x005c5c48      44fc0002       move.w 0x2, ccr
          0x005c5c4c      4e76           trapv
       > 0x005c5c4e      defc0094       adda.w 0x94, a7
           0x005c5c52      48e7c0f0       movem.l d0-d1/a0-a3, -(a7)
           0x005c5c56      47eefffc       lea.l -0x4(a6), a3
           0x005c5c5a      223cffff0001   move.l 0xffff0001, d1
           0x005c5c60      3d7a9d5c0018   move.w 0x5bf9be(pc), 0x18(a6)
           0x005c5c66      554f           subq.w 0x2, a7
           0x005c5c68      486effb0       pea.l -0x50(a6)
           0x005c5c6c      4eb900404434   jsr fcn.00404434
           0x005c5c72      584f           addq.w 0x4, a7
           0x005c5c74      4a1f           tst.b (a7)+
       < 0x005c5c76      670000aa       beq.w 0x5c5d22
          0x005c5c7a      2681           move.l d1, (a3)
          0x005c5c7c      206e0014       movea.l 0x14(a6), a0
          0x005c5c80      9efc000c       suba.w 0xc, a7
          0x005c5c84      224f           movea.l a7, a1
          0x005c5c86      2448           movea.l a0, a2
          0x005c5c88      7009           moveq 0x9, d0
      > 0x005c5c8a      12da           move.b (a2)+, (a1)+
      < 0x005c5c8c      51c8fffc       dbra d0, 0x5c5c8a
          0x005c5c90      554f           subq.w 0x2, a7
          0x005c5c92      1f2e0012       move.b 0x12(a6), -(a7)
          0x005c5c96      4ebafa2c       jsr AFS_FILER.afs0_c_mode(pc)
          0x005c5c9a      544f           addq.w 0x2, a7
          0x005c5c9c      1017           move.b (a7), d0
          0x005c5c9e      4880           ext.w d0
          0x005c5ca0      41bc0004       chk.w 0x4, d0
          0x005c5ca4      1e80           move.b d0, (a7)
          0x005c5ca6      4853           pea.l (a3)
          0x005c5ca8      4eb9006082de   jsr F10_FILELIST.f_get_header
          0x005c5cae      defc0010       adda.w 0x10, a7
          0x005c5cb2      4a1f           tst.b (a7)+
      < 0x005c5cb4      6638           bne.b 0x5c5cee
         0x005c5cb6      9efc001a       suba.w 0x1a, a7
         0x005c5cba      224f           movea.l a7, a1
         0x005c5cbc      45fa9d1d       lea.l 0x5bf9db(pc), a2
         0x005c5cc0      7018           moveq 0x18, d0
     > 0x005c5cc2      12da           move.b (a2)+, (a1)+
     < 0x005c5cc4      51c8fffc       dbra d0, 0x5c5cc2
         0x005c5cc8      4857           pea.l (a7)
         0x005c5cca      48780001       pea.l 0x1
         0x005c5cce      48780019       pea.l 0x19
         0x005c5cd2      1f01           move.b d1, -(a7)
         0x005c5cd4      1f01           move.b d1, -(a7)
         0x005c5cd6      43eefffa       lea.l -0x6(a6), a1
         0x005c5cda      7011           moveq 0x11, d0
     > 0x005c5cdc      2f21           move.l -(a1), -(a7)
     < 0x005c5cde      51c8fffc       dbra d0, 0x5c5cdc
         0x005c5ce2      3f21           move.w -(a1), -(a7)
         0x005c5ce4      4eb9005c6e76   jsr AFS1_UTIL.afs1_abort
         0x005c5cea      defc0074       adda.w 0x74, a7
      > 0x005c5cee      554f           subq.w 0x2, a7
          0x005c5cf0      4853           pea.l (a3)
          0x005c5cf2      4850           pea.l (a0)
          0x005c5cf4      4227           clr.b -(a7)
          0x005c5cf6      102e0012       move.b 0x12(a6), d0
          0x005c5cfa      b001           cmp.b d1, d0
      < 0x005c5cfc      6602           bne.b 0x5c5d00
         0x005c5cfe      5217           addq.b 0x1, (a7)
      > 0x005c5d00      1f2e0010       move.b 0x10(a6), -(a7)
          0x005c5d04      2f2e000c       move.l 0xc(a6), -(a7)
          0x005c5d08      486e0008       pea.l 0x8(a6)
          0x005c5d0c      4ebaf9de       jsr AFS_FILER.data_field(pc)
          0x005c5d10      defc0014       adda.w 0x14, a7
          0x005c5d14      3d5f0018       move.w (a7)+, 0x18(a6)
          0x005c5d18      4853           pea.l (a3)
          0x005c5d1a      4eb90060500e   jsr F9_FILERDWRT.f_free_block
          0x005c5d20      584f           addq.w 0x4, a7
       > 0x005c5d22      4cdf0f03       movem.l (a7)+, d0-d1/a0-a3
           0x005c5d26      4e5e           unlk a6
           0x005c5d28      4e75           rts
            ; CALL XREF from K1_AFS_ONLY.k1_data_len @ 0x5abeda
 240: AFS_FILER.afs_data_len ();
           ; var int32_t var_6326h @ a6-0x6326
           0x005c5d2a      4e56ff1a       link.w a6, 0xff1a
           0x005c5d2e      bfd5           cmpa.l (a5), a7
       < 0x005c5d30      6206           bhi.b 0x5c5d38
          0x005c5d32      44fc0002       move.w 0x2, ccr
          0x005c5d36      4e76           trapv
       > 0x005c5d38      defc0094       adda.w 0x94, a7
           0x005c5d3c      48e7c0f0       movem.l d0-d1/a0-a3, -(a7)
           0x005c5d40      47eefffa       lea.l -0x6(a6), a3
           0x005c5d44      223cffff0001   move.l 0xffff0001, d1
           0x005c5d4a      3d7a9cda0018   move.w 0x5bfa26(pc), 0x18(a6)
           0x005c5d50      422efffe       clr.b -0x2(a6)
           0x005c5d54      554f           subq.w 0x2, a7
           0x005c5d56      486effae       pea.l -0x52(a6)
           0x005c5d5a      4eb900404434   jsr fcn.00404434
           0x005c5d60      584f           addq.w 0x4, a7
           0x005c5d62      4a1f           tst.b (a7)+
       < 0x005c5d64      670000ac       beq.w 0x5c5e12
          0x005c5d68      2681           move.l d1, (a3)
          0x005c5d6a      206e0014       movea.l 0x14(a6), a0
          0x005c5d6e      9efc000c       suba.w 0xc, a7
          0x005c5d72      224f           movea.l a7, a1
          0x005c5d74      2448           movea.l a0, a2
          0x005c5d76      7009           moveq 0x9, d0
      > 0x005c5d78      12da           move.b (a2)+, (a1)+
      < 0x005c5d7a      51c8fffc       dbra d0, 0x5c5d78
          0x005c5d7e      554f           subq.w 0x2, a7
          0x005c5d80      1f2e0012       move.b 0x12(a6), -(a7)
          0x005c5d84      4ebaf93e       jsr AFS_FILER.afs0_c_mode(pc)
          0x005c5d88      544f           addq.w 0x2, a7
          0x005c5d8a      1017           move.b (a7), d0
          0x005c5d8c      4880           ext.w d0
          0x005c5d8e      41bc0004       chk.w 0x4, d0
          0x005c5d92      1e80           move.b d0, (a7)
          0x005c5d94      4853           pea.l (a3)
          0x005c5d96      4eb9006082de   jsr F10_FILELIST.f_get_header
          0x005c5d9c      defc0010       adda.w 0x10, a7
          0x005c5da0      4a1f           tst.b (a7)+
      < 0x005c5da2      6638           bne.b 0x5c5ddc
         0x005c5da4      9efc001a       suba.w 0x1a, a7
         0x005c5da8      224f           movea.l a7, a1
         0x005c5daa      45fa9c97       lea.l 0x5bfa43(pc), a2
         0x005c5dae      7018           moveq 0x18, d0
     > 0x005c5db0      12da           move.b (a2)+, (a1)+
     < 0x005c5db2      51c8fffc       dbra d0, 0x5c5db0
         0x005c5db6      4857           pea.l (a7)
         0x005c5db8      48780001       pea.l 0x1
         0x005c5dbc      48780019       pea.l 0x19
         0x005c5dc0      1f01           move.b d1, -(a7)
         0x005c5dc2      1f01           move.b d1, -(a7)
         0x005c5dc4      43eefff8       lea.l -0x8(a6), a1
         0x005c5dc8      7011           moveq 0x11, d0
     > 0x005c5dca      2f21           move.l -(a1), -(a7)
     < 0x005c5dcc      51c8fffc       dbra d0, 0x5c5dca
         0x005c5dd0      3f21           move.w -(a1), -(a7)
         0x005c5dd2      4eb9005c6e76   jsr AFS1_UTIL.afs1_abort
         0x005c5dd8      defc0074       adda.w 0x74, a7
      > 0x005c5ddc      554f           subq.w 0x2, a7
          0x005c5dde      4853           pea.l (a3)
          0x005c5de0      4850           pea.l (a0)
          0x005c5de2      4227           clr.b -(a7)
          0x005c5de4      102e0012       move.b 0x12(a6), d0
          0x005c5de8      b001           cmp.b d1, d0
      < 0x005c5dea      6602           bne.b 0x5c5dee
         0x005c5dec      5217           addq.b 0x1, (a7)
      > 0x005c5dee      1f2e0010       move.b 0x10(a6), -(a7)
          0x005c5df2      2f2e000c       move.l 0xc(a6), -(a7)
          0x005c5df6      206e0008       movea.l 0x8(a6), a0
          0x005c5dfa      4850           pea.l (a0)
          0x005c5dfc      4ebaf8ee       jsr AFS_FILER.data_field(pc)
          0x005c5e00      defc0014       adda.w 0x14, a7
          0x005c5e04      3d5f0018       move.w (a7)+, 0x18(a6)
          0x005c5e08      4853           pea.l (a3)
          0x005c5e0a      4eb90060500e   jsr F9_FILERDWRT.f_free_block
          0x005c5e10      584f           addq.w 0x4, a7
       > 0x005c5e12      4cdf0f03       movem.l (a7)+, d0-d1/a0-a3
           0x005c5e16      4e5e           unlk a6
           0x005c5e18      4e75           rts
            ; CALL XREF from K1_AFS_ONLY.k1_str_data @ 0x5abf62
 182: AFS_FILER.afs_str_data ();
           ; var int32_t var_63aeh @ a6-0x63ae
           0x005c5e1a      4e56fe70       link.w a6, 0xfe70
           0x005c5e1e      bfd5           cmpa.l (a5), a7
       < 0x005c5e20      6206           bhi.b 0x5c5e28
          0x005c5e22      44fc0002       move.w 0x2, ccr
          0x005c5e26      4e76           trapv
       > 0x005c5e28      defc013a       adda.w 0x13a, a7
           0x005c5e2c      48e7f3f8       movem.l d0-d3/d6-d7/a0-a4, -(a7)
           0x005c5e30      47eeffac       lea.l -0x54(a6), a3
           0x005c5e34      49ee000e       lea.l 0xe(a6), a4
           0x005c5e38      223cffff0001   move.l 0xffff0001, d1
           0x005c5e3e      740a           moveq 0xa, d2
           0x005c5e40      263c0000ffff   move.l 0xffff, d3
           0x005c5e46      3d7a9c520014   move.w 0x5bfa9a(pc), 0x14(a6)
           0x005c5e4c      7c01           moveq 0x1, d6
           0x005c5e4e      2681           move.l d1, (a3)
           0x005c5e50      554f           subq.w 0x2, a7
           0x005c5e52      206e0010       movea.l 0x10(a6), a0
           0x005c5e56      9ec2           suba.w d2, a7
           0x005c5e58      224f           movea.l a7, a1
           0x005c5e5a      7009           moveq 0x9, d0
       > 0x005c5e5c      12d8           move.b (a0)+, (a1)+
       < 0x005c5e5e      51c8fffc       dbra d0, 0x5c5e5c
           0x005c5e62      554f           subq.w 0x2, a7
           0x005c5e64      1f14           move.b (a4), -(a7)
           0x005c5e66      4ebaf85c       jsr AFS_FILER.afs0_c_mode(pc)
           0x005c5e6a      544f           addq.w 0x2, a7
           0x005c5e6c      1017           move.b (a7), d0
           0x005c5e6e      4880           ext.w d0
           0x005c5e70      41bc0004       chk.w 0x4, d0
           0x005c5e74      1e80           move.b d0, (a7)
           0x005c5e76      4853           pea.l (a3)
           0x005c5e78      4eb9006082de   jsr F10_FILELIST.f_get_header
           0x005c5e7e      defc0010       adda.w 0x10, a7
           0x005c5e82      4a1f           tst.b (a7)+
       < 0x005c5e84      6632           bne.b 0x5c5eb8
          0x005c5e86      9efc0024       suba.w 0x24, a7
          0x005c5e8a      204f           movea.l a7, a0
          0x005c5e8c      43fa9c0f       lea.l 0x5bfa9d(pc), a1
          0x005c5e90      7022           moveq 0x22, d0
      > 0x005c5e92      10d9           move.b (a1)+, (a0)+
      < 0x005c5e94      51c8fffc       dbra d0, 0x5c5e92
          0x005c5e98      48780000       pea.l 0x0
          0x005c5e9c      486f0004       pea.l 0x4(a7)
          0x005c5ea0      48780001       pea.l 0x1
          0x005c5ea4      48780023       pea.l 0x23
          0x005c5ea8      1f01           move.b d1, -(a7)
          0x005c5eaa      4eb9005c6f48   jsr AFS1_UTIL.afs1_error
          0x005c5eb0      defc0036       adda.w 0x36, a7
      < 0x005c5eb4      600000d8       bra.w loc.005c5f8e
      > 0x005c5eb8      102e000c       move.b 0xc(a6), d0
          0x005c5ebc      4880           ext.w d0
          0x005c5ebe      0c400003       cmpi.w 0x3, d0
      < 0x005c5ec2      6302           bls.b 0x5c5ec6
         0x005c5ec4      4e4e           trap 0xe
      > 0x005c5ec6      d040           add.w d0, d0
          0x005c5ec8      303b0006       move.w 0x5c5ed0(pc, d0.w), d0
          0x005c5ecc      4efb0002       jmp 0x5c5ed0(pc, d0.w)
           0x005c5ed0      0008000c       
           0x005c5ed1      08000c00       
           0x005c5ed2      000c0010       
           0x005c5ed3      0c001000       cmpi.b 0x0, d0
           0x005c5ed7      147e1460       
           0x005c5ed8      7e14           moveq 0x14, d7
       < 0x005c5eda      600a           bra.b 0x5c5ee6
          0x005c5edc      7e16           moveq 0x16, d7
      < 0x005c5ede      6006           bra.b 0x5c5ee6
         0x005c5ee0      7e15           moveq 0x15, d7
     < 0x005c5ee2      6002           bra.b 0x5c5ee6
        0x005c5ee4      7e17           moveq 0x17, d7
     > 0x005c5ee6      4a14           tst.b (a4)
       < 0x005c5ee8      6708           beq.b 0x5c5ef2
          0x005c5eea      1014           move.b (a4), d0
          0x005c5eec      b001           cmp.b d1, d0
      < 0x005c5eee      672e           beq.b 0x5c5f1e
         0x005c5ef0      4e4e           trap 0xe
      > 0x005c5ef2      206e0008       movea.l 0x8(a6), a0
          0x005c5ef6      9efc0100       suba.w 0x100, a7
          0x005c5efa      be83           cmp.l d3, d7
      < 0x005c5efc      6302           bls.b 0x5c5f00
         0x005c5efe      4e4f           trap 0xf
      > 0x005c5f00      3f07           move.w d7, -(a7)
          0x005c5f02      2f13           move.l (a3), -(a7)
          0x005c5f04      4eb9005eed64   jsr f_get_string
          0x005c5f0a      5c4f           addq.w 0x6, a7
          0x005c5f0c      224f           movea.l a7, a1
          0x005c5f0e      303c00ff       move.w 0xff, d0
      > 0x005c5f12      10d9           move.b (a1)+, (a0)+
      < 0x005c5f14      51c8fffc       dbra d0, 0x5c5f12
          0x005c5f18      defc0100       adda.w 0x100, a7
      < 0x005c5f1c      6058           bra.b 0x5c5f76
      > 0x005c5f1e      206e0008       movea.l 0x8(a6), a0
          0x005c5f22      4240           clr.w d0
          0x005c5f24      1010           move.b (a0), d0
      < 0x005c5f26      6302           bls.b 0x5c5f2a
         0x005c5f28      7000           moveq 0x0, d0
      > 0x005c5f2a      5300           subq.b 0x1, d0
      < 0x005c5f2c      6510           bcs.b 0x5c5f3e
         0x005c5f2e      43e80001       lea.l 0x1(a0), a1
         0x005c5f32      45fa9ba1       lea.l 0x5bfad5(pc), a2
     > 0x005c5f36      b30a           cmpm.b (a2)+, (a1)+
     < 0x005c5f38      56c8fffc       dbne d0, 0x5c5f36
     < 0x005c5f3c      6602           bne.b 0x5c5f40
     > 0x005c5f3e      1010           move.b (a0), d0
     < 0x005c5f40      6614           bne.b 0x5c5f56
         0x005c5f42      be83           cmp.l d3, d7
     < 0x005c5f44      6302           bls.b 0x5c5f48
        0x005c5f46      4e4f           trap 0xf
     > 0x005c5f48      3f07           move.w d7, -(a7)
         0x005c5f4a      2f13           move.l (a3), -(a7)
         0x005c5f4c      4eb9005eee78   jsr f_delete_field
         0x005c5f52      5c4f           addq.w 0x6, a7
     < 0x005c5f54      6020           bra.b 0x5c5f76
     > 0x005c5f56      554f           subq.w 0x2, a7
         0x005c5f58      be83           cmp.l d3, d7
     < 0x005c5f5a      6302           bls.b 0x5c5f5e
        0x005c5f5c      4e4f           trap 0xf
     > 0x005c5f5e      3f07           move.w d7, -(a7)
         0x005c5f60      2f13           move.l (a3), -(a7)
         0x005c5f62      4850           pea.l (a0)
         0x005c5f64      4eb9005eedf6   jsr f_put_string
         0x005c5f6a      dec2           adda.w d2, a7
         0x005c5f6c      101f           move.b (a7)+, d0
         0x005c5f6e      4880           ext.w d0
         0x005c5f70      41bc0001       chk.w 0x1, d0
         0x005c5f74      1c00           move.b d0, d6
     > 0x005c5f76      554f           subq.w 0x2, a7
           0x005c5f78      1f06           move.b d6, -(a7)
           0x005c5f7a      4ebadbca       jsr AFS_FILER.get_result(pc)
           0x005c5f7e      544f           addq.w 0x2, a7
           0x005c5f80      3d5f0014       move.w (a7)+, 0x14(a6)
           0x005c5f84      4853           pea.l (a3)
           0x005c5f86      4eb90060500e   jsr F9_FILERDWRT.f_free_block
           0x005c5f8c      584f           addq.w 0x4, a7
           ; CODE XREF from AFS_FILER.afs_str_data @ 0x5c5eb4
 8: loc.005c5f8e ();
      > 0x005c5f8e      4cdf1fcf       movem.l (a7)+, d0-d3/d6-d7/a0-a4
           0x005c5f92      4e5e           unlk a6
           0x005c5f94      4e75           rts
            ; CALL XREF from AFS_FILER.afs_passwords @ 0x5c6106
 140: AFS_FILER.header_get_pass ();
           ; var int32_t var_64cch @ a6-0x64cc
           0x005c5f96      4e56fede       link.w a6, 0xfede
           0x005c5f9a      bfd5           cmpa.l (a5), a7
       < 0x005c5f9c      6206           bhi.b 0x5c5fa4
          0x005c5f9e      44fc0002       move.w 0x2, ccr
          0x005c5fa2      4e76           trapv
       > 0x005c5fa4      defc0122       adda.w 0x122, a7
           0x005c5fa8      48e7c0e0       movem.l d0-d1/a0-a2, -(a7)
           0x005c5fac      45ee0010       lea.l 0x10(a6), a2
           0x005c5fb0      7226           moveq 0x26, d1
           0x005c5fb2      14ba9b37       move.b 0x5bfaeb(pc), (a2)
           0x005c5fb6      1d7a9b340011   move.b 0x5bfaec(pc), 0x11(a6)
           0x005c5fbc      554f           subq.w 0x2, a7
           0x005c5fbe      3f01           move.w d1, -(a7)
           0x005c5fc0      2f2e000c       move.l 0xc(a6), -(a7)
           0x005c5fc4      4eb9005eecfc   jsr f_field_size
           0x005c5fca      5c4f           addq.w 0x6, a7
           0x005c5fcc      4a5f           tst.w (a7)+
       < 0x005c5fce      6620           bne.b 0x5c5ff0
          0x005c5fd0      34ba9b1c       move.w 0x5bfaee(pc), (a2)
          0x005c5fd4      487a9b1b       pea.l 0x5bfaf1(pc)
          0x005c5fd8      48780026       pea.l 0x26
          0x005c5fdc      2f17           move.l (a7), -(a7)
          0x005c5fde      4eb9004047ea   jsr p_wts_o
          0x005c5fe4      defc000c       adda.w 0xc, a7
          0x005c5fe8      4eb900404946   jsr p_wtln_o
      < 0x005c5fee      602a           bra.b 0x5c601a
      > 0x005c5ff0      206e0008       movea.l 0x8(a6), a0
          0x005c5ff4      9efc0100       suba.w 0x100, a7
          0x005c5ff8      3f01           move.w d1, -(a7)
          0x005c5ffa      2f2e000c       move.l 0xc(a6), -(a7)
          0x005c5ffe      4eb9005eed64   jsr f_get_string
          0x005c6004      5c4f           addq.w 0x6, a7
          0x005c6006      224f           movea.l a7, a1
          0x005c6008      303c00ff       move.w 0xff, d0
      > 0x005c600c      10d9           move.b (a1)+, (a0)+
      < 0x005c600e      51c8fffc       dbra d0, 0x5c600c
          0x005c6012      defc0100       adda.w 0x100, a7
          0x005c6016      34ba9b22       move.w 0x5bfb3a(pc), (a2)
      > 0x005c601a      4cdf0703       movem.l (a7)+, d0-d1/a0-a2
           0x005c601e      4e5e           unlk a6
           0x005c6020      4e75           rts
            ; CALL XREF from AFS_FILER.afs_passwords @ 0x5c6116
 106: AFS_FILER.header_put_pass ();
           ; var int32_t var_6524h @ a6-0x6524
           ; var int32_t var_6502h @ a6-0x6502
           ; var int32_t var_64fdh @ a6-0x64fd
           0x005c6022      4e56ffec       link.w a6, 0xffec
           0x005c6026      bfd5           cmpa.l (a5), a7
       < 0x005c6028      6206           bhi.b 0x5c6030
          0x005c602a      44fc0002       move.w 0x2, ccr
          0x005c602e      4e76           trapv
       > 0x005c6030      defc0014       adda.w 0x14, a7
           0x005c6034      48e70080       movem.l a0, -(a7)
           0x005c6038      1d7a9b030010   move.b 0x5bfb3d(pc), 0x10(a6)
           0x005c603e      1d7a9afe0011   move.b 0x5bfb3e(pc), 0x11(a6)
           0x005c6044      554f           subq.w 0x2, a7
           0x005c6046      3f3c0026       move.w 0x26, -(a7)
           0x005c604a      2f2e000c       move.l 0xc(a6), -(a7)
           0x005c604e      206e0008       movea.l 0x8(a6), a0
           0x005c6052      4850           pea.l (a0)
           0x005c6054      4eb9005eedf6   jsr f_put_string
           0x005c605a      defc000a       adda.w 0xa, a7
           0x005c605e      4a1f           tst.b (a7)+
       < 0x005c6060      6708           beq.b 0x5c606a
          0x005c6062      3d7a9adc0010   move.w 0x5bfb40(pc), 0x10(a6)
      < 0x005c6068      601a           bra.b 0x5c6084
      > 0x005c606a      487a9ad7       pea.l 0x5bfb43(pc)
          0x005c606e      48780026       pea.l 0x26
          0x005c6072      2f17           move.l (a7), -(a7)
          0x005c6074      4eb9004047ea   jsr p_wts_o
          0x005c607a      defc000c       adda.w 0xc, a7
          0x005c607e      4eb900404946   jsr p_wtln_o
      > 0x005c6084      4cdf0100       movem.l (a7)+, a0
           0x005c6088      4e5e           unlk a6
           0x005c608a      4e75           rts
            ; CALL XREF from AFS_FILER.afs_system_pass @ 0x5c6174
 166: AFS_FILER.afs_passwords ();
           ; var int32_t var_6554h @ a6-0x6554
           0x005c608c      4e56ffd0       link.w a6, 0xffd0
           0x005c6090      bfd5           cmpa.l (a5), a7
       < 0x005c6092      6206           bhi.b 0x5c609a
          0x005c6094      44fc0002       move.w 0x2, ccr
          0x005c6098      4e76           trapv
       > 0x005c609a      defc0022       adda.w 0x22, a7
           0x005c609e      48e780c0       movem.l d0/a0-a1, -(a7)
           0x005c60a2      43eefff2       lea.l -0xe(a6), a1
           0x005c60a6      206e000c       movea.l 0xc(a6), a0
           0x005c60aa      2d50fff6       move.l (a0), -0xa(a6)
           0x005c60ae      42aefffa       clr.l -0x6(a6)
           0x005c60b2      426efffe       clr.w -0x2(a6)
           0x005c60b6      22bcffff0001   move.l 0xffff0001, (a1)
           0x005c60bc      3d7a9aac0012   move.w 0x5bfb6a(pc), 0x12(a6)
           0x005c60c2      554f           subq.w 0x2, a7
           0x005c60c4      2f2efffc       move.l -0x4(a6), -(a7)
           0x005c60c8      2f2efff8       move.l -0x8(a6), -(a7)
           0x005c60cc      3f2efff6       move.w -0xa(a6), -(a7)
           0x005c60d0      554f           subq.w 0x2, a7
           0x005c60d2      1f2e0010       move.b 0x10(a6), -(a7)
           0x005c60d6      4ebaf5ec       jsr AFS_FILER.afs0_c_mode(pc)
           0x005c60da      544f           addq.w 0x2, a7
           0x005c60dc      1017           move.b (a7), d0
           0x005c60de      4880           ext.w d0
           0x005c60e0      41bc0004       chk.w 0x4, d0
           0x005c60e4      1e80           move.b d0, (a7)
           0x005c60e6      4851           pea.l (a1)
           0x005c60e8      4eb9006082de   jsr F10_FILELIST.f_get_header
           0x005c60ee      defc0010       adda.w 0x10, a7
           0x005c60f2      4a1f           tst.b (a7)+
       < 0x005c60f4      6734           beq.b 0x5c612a
          0x005c60f6      4a2e0010       tst.b 0x10(a6)
      < 0x005c60fa      6610           bne.b 0x5c610c
         0x005c60fc      554f           subq.w 0x2, a7
         0x005c60fe      2f11           move.l (a1), -(a7)
         0x005c6100      206e0008       movea.l 0x8(a6), a0
         0x005c6104      4850           pea.l (a0)
         0x005c6106      4ebafe8e       jsr AFS_FILER.header_get_pass(pc)
     < 0x005c610a      600e           bra.b 0x5c611a
     > 0x005c610c      554f           subq.w 0x2, a7
         0x005c610e      2f11           move.l (a1), -(a7)
         0x005c6110      206e0008       movea.l 0x8(a6), a0
         0x005c6114      4850           pea.l (a0)
         0x005c6116      4ebaff0a       jsr AFS_FILER.header_put_pass(pc)
     > 0x005c611a      504f           addq.w 0x8, a7
          0x005c611c      3d5f0012       move.w (a7)+, 0x12(a6)
          0x005c6120      4851           pea.l (a1)
          0x005c6122      4eb90060500e   jsr F9_FILERDWRT.f_free_block
          0x005c6128      584f           addq.w 0x4, a7
       > 0x005c612a      4cdf0301       movem.l (a7)+, d0/a0-a1
           0x005c612e      4e5e           unlk a6
           0x005c6130      4e75           rts
 86: AFS_FILER.afs_system_pass ();
           ; var int32_t var_65b2h @ a6-0x65b2
           0x005c6132      4e56ffe2       link.w a6, 0xffe2
           0x005c6136      bfd5           cmpa.l (a5), a7
       < 0x005c6138      6206           bhi.b 0x5c6140
          0x005c613a      44fc0002       move.w 0x2, ccr
          0x005c613e      4e76           trapv
       > 0x005c6140      defc0014       adda.w 0x14, a7
           0x005c6144      48e70080       movem.l a0, -(a7)
           0x005c6148      594f           subq.w 0x4, a7
           0x005c614a      48780064       pea.l 0x64
           0x005c614e      4eb90062788a   jsr PICTURENET.sysvol_wait
           0x005c6154      584f           addq.w 0x4, a7
           0x005c6156      2d5ffff6       move.l (a7)+, -0xa(a6)
       < 0x005c615a      6608           bne.b 0x5c6164
          0x005c615c      3d7a9a4e000e   move.w 0x5bfbac(pc), 0xe(a6)
      < 0x005c6162      601c           bra.b 0x5c6180
      > 0x005c6164      554f           subq.w 0x2, a7
          0x005c6166      1f2e000c       move.b 0xc(a6), -(a7)
          0x005c616a      486efff6       pea.l -0xa(a6)
          0x005c616e      206e0008       movea.l 0x8(a6), a0
          0x005c6172      4850           pea.l (a0)
          0x005c6174      4ebaff16       jsr AFS_FILER.afs_passwords(pc)
          0x005c6178      defc000a       adda.w 0xa, a7
          0x005c617c      3d5f000e       move.w (a7)+, 0xe(a6)
      > 0x005c6180      4cdf0100       movem.l (a7)+, a0
           0x005c6184      4e5e           unlk a6
           0x005c6186      4e75           rts
            ; CALL XREF from K1_AFS_ONLY.k1_soft_protect @ 0x5ac6e6
 138: AFS_FILER.afs_soft_protec ();
           ; var int32_t var_6614h @ a6-0x6614
           ; var int32_t var_660fh @ a6-0x660f
           ; var int32_t var_65d8h @ a6-0x65d8
           0x005c6188      4e56ff6c       link.w a6, 0xff6c
           0x005c618c      bfd5           cmpa.l (a5), a7
       < 0x005c618e      6206           bhi.b 0x5c6196
          0x005c6190      44fc0002       move.w 0x2, ccr
          0x005c6194      4e76           trapv
       > 0x005c6196      defc004a       adda.w 0x4a, a7
           0x005c619a      48e7c0c0       movem.l d0-d1/a0-a1, -(a7)
           0x005c619e      7201           moveq 0x1, d1
           0x005c61a0      3d7a9a280012   move.w 0x5bfbca(pc), 0x12(a6)
           0x005c61a6      4227           clr.b -(a7)
           0x005c61a8      102e000c       move.b 0xc(a6), d0
           0x005c61ac      b001           cmp.b d1, d0
       < 0x005c61ae      6602           bne.b 0x5c61b2
          0x005c61b0      5217           addq.b 0x1, (a7)
       > 0x005c61b2      4eb90040452a   jsr p_Assert
           0x005c61b8      2f2e000e       move.l 0xe(a6), -(a7)
           0x005c61bc      206e0008       movea.l 0x8(a6), a0
           0x005c61c0      1f10           move.b (a0), -(a7)
           0x005c61c2      4eb9005fba30   jsr F6_VOLUME.f_protect
           0x005c61c8      5c4f           addq.w 0x6, a7
           0x005c61ca      4a1f           tst.b (a7)+
       < 0x005c61cc      6630           bne.b 0x5c61fe
          0x005c61ce      9efc0024       suba.w 0x24, a7
          0x005c61d2      204f           movea.l a7, a0
          0x005c61d4      43fa99f7       lea.l 0x5bfbcd(pc), a1
          0x005c61d8      7022           moveq 0x22, d0
      > 0x005c61da      10d9           move.b (a1)+, (a0)+
      < 0x005c61dc      51c8fffc       dbra d0, 0x5c61da
          0x005c61e0      2f2e000e       move.l 0xe(a6), -(a7)
          0x005c61e4      486f0004       pea.l 0x4(a7)
          0x005c61e8      48780001       pea.l 0x1
          0x005c61ec      48780023       pea.l 0x23
          0x005c61f0      1f01           move.b d1, -(a7)
          0x005c61f2      4eb9005c6f48   jsr AFS1_UTIL.afs1_error
          0x005c61f8      defc0036       adda.w 0x36, a7
      < 0x005c61fc      600c           bra.b 0x5c620a
      > 0x005c61fe      1d7a99f10012   move.b 0x5bfbf1(pc), 0x12(a6)
          0x005c6204      1d7a99ec0013   move.b 0x5bfbf2(pc), 0x13(a6)
      > 0x005c620a      4cdf0303       movem.l (a7)+, d0-d1/a0-a1
           0x005c620e      4e5e           unlk a6
           0x005c6210      4e75           rts
            ; CALL XREF from K1_AFS_ONLY.k1_index @ 0x5ac93c
 78: AFS_FILER.afs_index ();
           0x005c6212      4e56ffe8       link.w a6, 0xffe8
           0x005c6216      bfd5           cmpa.l (a5), a7
       < 0x005c6218      6206           bhi.b 0x5c6220
          0x005c621a      44fc0002       move.w 0x2, ccr
          0x005c621e      4e76           trapv
       > 0x005c6220      defc0018       adda.w 0x18, a7
           0x005c6224      48e78000       movem.l d0, -(a7)
           0x005c6228      594f           subq.w 0x4, a7
           0x005c622a      2f2e0010       move.l 0x10(a6), -(a7)
           0x005c622e      2f2e000c       move.l 0xc(a6), -(a7)
           0x005c6232      3f2e000a       move.w 0xa(a6), -(a7)
           0x005c6236      1f2e0008       move.b 0x8(a6), -(a7)
           0x005c623a      4eb9005c8160   jsr AFS1_UTIL.afs1_index
           0x005c6240      defc000c       adda.w 0xc, a7
           0x005c6244      1017           move.b (a7), d0
           0x005c6246      4880           ext.w d0
           0x005c6248      41bc0001       chk.w 0x1, d0
           0x005c624c      1e80           move.b d0, (a7)
           0x005c624e      4ebad8f6       jsr AFS_FILER.get_result(pc)
           0x005c6252      544f           addq.w 0x2, a7
           0x005c6254      3d5f0014       move.w (a7)+, 0x14(a6)
           0x005c6258      4cdf0001       movem.l (a7)+, d0
           0x005c625c      4e5e           unlk a6
           0x005c625e      4e75           rts
            ; CALL XREF from K1_AFS_ONLY.k1_privilege @ 0x5ac996
 184: AFS_FILER.afs_privilege ();
           0x005c6260      4e56fdc4       link.w a6, 0xfdc4
           0x005c6264      bfd5           cmpa.l (a5), a7
       < 0x005c6266      6206           bhi.b 0x5c626e
          0x005c6268      44fc0002       move.w 0x2, ccr
          0x005c626c      4e76           trapv
       > 0x005c626e      defc0134       adda.w 0x134, a7
           0x005c6272      48e7e1f8       movem.l d0-d2/d7/a0-a4, -(a7)
           0x005c6276      45ee0014       lea.l 0x14(a6), a2
           0x005c627a      47eefefa       lea.l -0x106(a6), a3
           0x005c627e      49eefefe       lea.l -0x102(a6), a4
           0x005c6282      323c0102       move.w 0x102, d1
           0x005c6286      7401           moveq 0x1, d2
           0x005c6288      34ba996a       move.w 0x5bfbf4(pc), (a2)
           0x005c628c      26bcffff0001   move.l 0xffff0001, (a3)
           0x005c6292      554f           subq.w 0x2, a7
           0x005c6294      2f2e0010       move.l 0x10(a6), -(a7)
           0x005c6298      2f2e000c       move.l 0xc(a6), -(a7)
           0x005c629c      3f2e000a       move.w 0xa(a6), -(a7)
           0x005c62a0      4227           clr.b -(a7)
           0x005c62a2      4853           pea.l (a3)
           0x005c62a4      4eb9006082de   jsr F10_FILELIST.f_get_header
           0x005c62aa      defc0010       adda.w 0x10, a7
           0x005c62ae      4a1f           tst.b (a7)+
       < 0x005c62b0      6632           bne.b 0x5c62e4
          0x005c62b2      9efc0024       suba.w 0x24, a7
          0x005c62b6      204f           movea.l a7, a0
          0x005c62b8      43fa993d       lea.l 0x5bfbf7(pc), a1
          0x005c62bc      7023           moveq 0x23, d0
      > 0x005c62be      10d9           move.b (a1)+, (a0)+
      < 0x005c62c0      51c8fffc       dbra d0, 0x5c62be
          0x005c62c4      48780000       pea.l 0x0
          0x005c62c8      486f0004       pea.l 0x4(a7)
          0x005c62cc      48780001       pea.l 0x1
          0x005c62d0      48780024       pea.l 0x24
          0x005c62d4      1f02           move.b d2, -(a7)
          0x005c62d6      4eb9005c6f48   jsr AFS1_UTIL.afs1_error
          0x005c62dc      defc0036       adda.w 0x36, a7
      < 0x005c62e0      600000ee       bra.w loc.005c63d0
      > 0x005c62e4      9efc0100       suba.w 0x100, a7
          0x005c62e8      3f3c0016       move.w 0x16, -(a7)
          0x005c62ec      2f13           move.l (a3), -(a7)
          0x005c62ee      4eb9005eed64   jsr f_get_string
          0x005c62f4      5c4f           addq.w 0x6, a7
          0x005c62f6      204c           movea.l a4, a0
          0x005c62f8      703f           moveq 0x3f, d0
      > 0x005c62fa      20df           move.l (a7)+, (a0)+
      < 0x005c62fc      51c8fffc       dbra d0, 0x5c62fa
          0x005c6300      102e0008       move.b 0x8(a6), d0
          0x005c6304      4880           ext.w d0
          0x005c6306      0c400002       cmpi.w 0x2, d0
      < 0x005c630a      6302           bls.b 0x5c630e
         0x005c630c      4e4e           trap 0xe
      > 0x005c630e      d040           add.w d0, d0
          0x005c6310      303b0006       move.w 0x5c6318(pc, d0.w), d0
          0x005c6314      4efb0002       jmp 0x5c6318(pc, d0.w)
           0x005c6318      003a0028       
           0x005c6319      3a00           move.w d0, d5
           0x005c631b      2800           move.l d0, d4
           0x005c631d      069ec1204f22   addi.l 0xc1204f22, (a6)+
           0x005c6323      4c703f20       
           0x005c6324      703f           moveq 0x3f, d0
       > 0x005c6326      20d9           move.l (a1)+, (a0)+
       < 0x005c6328      51c8fffc       dbra d0, 0x5c6326
           0x005c632c      4227           clr.b -(a7)
      > 0x005c632e      4eb90062da22   jsr OWNERS.check_priv
         0x005c6334      dec1           adda.w d1, a7
         0x005c6336      101f           move.b (a7)+, d0
         0x005c6338      4880           ext.w d0
         0x005c633a      4182           chk.w d2, d0
         0x005c633c      1e00           move.b d0, d7
     < 0x005c633e      6024           bra.b 0x5c6364
        0x005c6340      9ec1           suba.w d1, a7
        0x005c6342      204f           movea.l a7, a0
        0x005c6344      224c           movea.l a4, a1
        0x005c6346      703f           moveq 0x3f, d0
    > 0x005c6348      20d9           move.l (a1)+, (a0)+
    < 0x005c634a      51c8fffc       dbra d0, 0x5c6348
        0x005c634e      1f02           move.b d2, -(a7)
     < 0x005c6350      60dc           bra.b 0x5c632e
         0x005c6352      9ec1           suba.w d1, a7
         0x005c6354      204f           movea.l a7, a0
         0x005c6356      224c           movea.l a4, a1
         0x005c6358      703f           moveq 0x3f, d0
     > 0x005c635a      20d9           move.l (a1)+, (a0)+
     < 0x005c635c      51c8fffc       dbra d0, 0x5c635a
         0x005c6360      1f01           move.b d1, -(a7)
      < 0x005c6362      60ca           bra.b 0x5c632e
     > 0x005c6364      4a07           tst.b d7
       < 0x005c6366      670c           beq.b 0x5c6374
          0x005c6368      14ba98c7       move.b 0x5bfc31(pc), (a2)
          0x005c636c      1d7a98c40015   move.b 0x5bfc32(pc), 0x15(a6)
      < 0x005c6372      6052           bra.b 0x5c63c6
      > 0x005c6374      554f           subq.w 0x2, a7
          0x005c6376      4eb90062e3fe   jsr OWNERS.owner_authoriza
          0x005c637c      4a1f           tst.b (a7)+
      < 0x005c637e      6706           beq.b 0x5c6386
         0x005c6380      34ba98b2       move.w 0x5bfc34(pc), (a2)
     < 0x005c6384      6040           bra.b 0x5c63c6
     > 0x005c6386      9efc0100       suba.w 0x100, a7
         0x005c638a      4eb900408ec0   jsr p_err_string
         0x005c6390      487a98a5       pea.l 0x5bfc37(pc)
         0x005c6394      48780014       pea.l 0x14
         0x005c6398      2f17           move.l (a7), -(a7)
         0x005c639a      4eb9004047ea   jsr p_wts_o
         0x005c63a0      defc000c       adda.w 0xc, a7
         0x005c63a4      486f0001       pea.l 0x1(a7)
         0x005c63a8      42a7           clr.l -(a7)
         0x005c63aa      1f6f00080003   move.b 0x8(a7), 0x3(a7)
         0x005c63b0      2f17           move.l (a7), -(a7)
         0x005c63b2      4eb9004047ea   jsr p_wts_o
         0x005c63b8      defc010c       adda.w 0x10c, a7
         0x005c63bc      4eb900404946   jsr p_wtln_o
         0x005c63c2      34ba9888       move.w 0x5bfc4c(pc), (a2)
     > 0x005c63c6      4853           pea.l (a3)
           0x005c63c8      4eb90060500e   jsr F9_FILERDWRT.f_free_block
           0x005c63ce      584f           addq.w 0x4, a7
           ; CODE XREF from AFS_FILER.afs_privilege @ 0x5c62e0
 8: loc.005c63d0 ();
      > 0x005c63d0      4cdf1f87       movem.l (a7)+, d0-d2/d7/a0-a4
           0x005c63d4      4e5e           unlk a6
           0x005c63d6      4e75           rts
            ; CALL XREF from K1_AFS_ONLY.k1_owner_valid @ 0x5ac9e2
 112: AFS_FILER.afs_owner_valid ();
           ; var int32_t var_67d0h @ a6-0x67d0
           ; var int32_t var_67b2h @ a6-0x67b2
           0x005c63d8      4e56feea       link.w a6, 0xfeea
           0x005c63dc      bfd5           cmpa.l (a5), a7
       < 0x005c63de      6206           bhi.b 0x5c63e6
          0x005c63e0      44fc0002       move.w 0x2, ccr
          0x005c63e4      4e76           trapv
       > 0x005c63e6      defc0116       adda.w 0x116, a7
           0x005c63ea      48e780e0       movem.l d0/a0-a2, -(a7)
           0x005c63ee      45ee0108       lea.l 0x108(a6), a2
           0x005c63f2      9efc0102       suba.w 0x102, a7
           0x005c63f6      204f           movea.l a7, a0
           0x005c63f8      43ee0008       lea.l 0x8(a6), a1
           0x005c63fc      703f           moveq 0x3f, d0
       > 0x005c63fe      20d9           move.l (a1)+, (a0)+
       < 0x005c6400      51c8fffc       dbra d0, 0x5c63fe
           0x005c6404      4eb90062db48   jsr OWNERS.owner_valid
           0x005c640a      defc0100       adda.w 0x100, a7
           0x005c640e      4a1f           tst.b (a7)+
       < 0x005c6410      670c           beq.b 0x5c641e
          0x005c6412      14ba9851       move.b 0x5bfc65(pc), (a2)
          0x005c6416      1d7a984e0109   move.b 0x5bfc66(pc), 0x109(a6)
      < 0x005c641c      6022           bra.b 0x5c6440
      > 0x005c641e      554f           subq.w 0x2, a7
          0x005c6420      4eb90062e3b8   jsr OWNERS.owner_unknown
          0x005c6426      4a1f           tst.b (a7)+
      < 0x005c6428      6706           beq.b 0x5c6430
         0x005c642a      34ba983c       move.w 0x5bfc68(pc), (a2)
     < 0x005c642e      6010           bra.b 0x5c6440
     > 0x005c6430      4eb900404188   jsr p_Unlink
         0x005c6436      14ba9833       move.b 0x5bfc6b(pc), (a2)
         0x005c643a      1d7a98300109   move.b 0x5bfc6c(pc), 0x109(a6)
     > 0x005c6440      4cdf0701       movem.l (a7)+, d0/a0-a2
           0x005c6444      4e5e           unlk a6
           0x005c6446      4e75           rts
            ; CALL XREF from AFS_FILER.v1v2_convert @ 0x5c6538
            ; CALL XREF from AFS_FILER.v2v1_convert @ 0x5c65d6
            ; CALL XREF from AFS_FILER.vshow @ 0x5c666a
            ; CALL XREF from AFS_FILER.vedit @ 0x5c6740
            ; CALL XREF from AFS_FILER.vcheck @ 0x5c67e2
 140: AFS_FILER.print_error ();
           ; var int32_t var_8h @ a7+0x8
           0x005c6448      4e56fee8       link.w a6, 0xfee8
           0x005c644c      bfd5           cmpa.l (a5), a7
       < 0x005c644e      6206           bhi.b 0x5c6456
          0x005c6450      44fc0002       move.w 0x2, ccr
          0x005c6454      4e76           trapv
       > 0x005c6456      defc0118       adda.w 0x118, a7
           0x005c645a      48e78080       movem.l d0/a0, -(a7)
           0x005c645e      41f9004047ea   lea.l p_wts_o, a0
           0x005c6464      700c           moveq 0xc, d0
       > 0x005c6466      594f           subq.w 0x4, a7
          0x005c6468      4eb900404366   jsr p_Aux_frames
          0x005c646e      4a9f           tst.l (a7)+
      < 0x005c6470      6f5a           ble.b 0x5c64cc
         0x005c6472      9efc0100       suba.w 0x100, a7
         0x005c6476      4eb900408ec0   jsr p_err_string
         0x005c647c      487a97f0       pea.l 0x5bfc6e(pc)
         0x005c6480      4878000c       pea.l 0xc
         0x005c6484      2f17           move.l (a7), -(a7)
         0x005c6486      4e90           jsr (a0)                    ; fcn.00000009
         0x005c6488      dec0           adda.w d0, a7
         0x005c648a      486e0009       pea.l 0x9(a6)
         0x005c648e      42a7           clr.l -(a7)
         0x005c6490      1f6e00080003   move.b 0x8(a6), 0x3(a7)
         0x005c6496      2f17           move.l (a7), -(a7)
         0x005c6498      4e90           jsr (a0)                    ; fcn.00000009
         0x005c649a      dec0           adda.w d0, a7
         0x005c649c      487a97dd       pea.l 0x5bfc7b(pc)
         0x005c64a0      48780002       pea.l 0x2
         0x005c64a4      2f17           move.l (a7), -(a7)
         0x005c64a6      4e90           jsr (a0)                    ; fcn.00000009
         0x005c64a8      dec0           adda.w d0, a7
         0x005c64aa      486f0001       pea.l 0x1(a7)
         0x005c64ae      42a7           clr.l -(a7)
         0x005c64b0      1f6f00080003   move.b 0x8(a7), 0x3(a7)
         0x005c64b6      2f17           move.l (a7), -(a7)
         0x005c64b8      4e90           jsr (a0)                    ; fcn.00000009
         0x005c64ba      defc010c       adda.w 0x10c, a7
         0x005c64be      4eb900404946   jsr p_wtln_o
         0x005c64c4      4eb900404188   jsr p_Unlink
      < 0x005c64ca      609a           bra.b 0x5c6466
      > 0x005c64cc      4cdf0101       movem.l (a7)+, d0/a0
           0x005c64d0      4e5e           unlk a6
           0x005c64d2      4e75           rts
 154: AFS_FILER.v1v2_convert ();
           0x005c64d4      4e56fd9a       link.w a6, 0xfd9a
           0x005c64d8      bfd5           cmpa.l (a5), a7
       < 0x005c64da      6206           bhi.b 0x5c64e2
          0x005c64dc      44fc0002       move.w 0x2, ccr
          0x005c64e0      4e76           trapv
       > 0x005c64e2      defc0110       adda.w 0x110, a7
           0x005c64e6      48e780c0       movem.l d0/a0-a1, -(a7)
           0x005c64ea      4227           clr.b -(a7)
           0x005c64ec      486efef4       pea.l -0x10c(a6)
           0x005c64f0      486efffe       pea.l -0x2(a6)
           0x005c64f4      4eb9006186e4   jsr F21_COMMAND.read_path
           0x005c64fa      504f           addq.w 0x8, a7
           0x005c64fc      486efeaa       pea.l -0x156(a6)
           0x005c6500      4eb900404434   jsr fcn.00404434
           0x005c6506      584f           addq.w 0x4, a7
           0x005c6508      4a1f           tst.b (a7)+
       < 0x005c650a      675a           beq.b 0x5c6566
          0x005c650c      554f           subq.w 0x2, a7
          0x005c650e      486efef4       pea.l -0x10c(a6)
          0x005c6512      4227           clr.b -(a7)
          0x005c6514      486efff4       pea.l -0xc(a6)
          0x005c6518      4eb9006123d2   jsr F18_DIRECTORY.f_lookup
          0x005c651e      defc000a       adda.w 0xa, a7
          0x005c6522      4a1f           tst.b (a7)+
      < 0x005c6524      6626           bne.b 0x5c654c
         0x005c6526      9efc0100       suba.w 0x100, a7
         0x005c652a      204f           movea.l a7, a0
         0x005c652c      43fa974f       lea.l 0x5bfc7d(pc), a1
         0x005c6530      700c           moveq 0xc, d0
     > 0x005c6532      10d9           move.b (a1)+, (a0)+
     < 0x005c6534      51c8fffc       dbra d0, 0x5c6532
         0x005c6538      4ebaff0e       jsr AFS_FILER.print_error(pc)
         0x005c653c      defc0100       adda.w 0x100, a7
         0x005c6540      486efeaa       pea.l -0x156(a6)
         0x005c6544      4eb900404468   jsr fcn.00404468
         0x005c654a      584f           addq.w 0x4, a7
      > 0x005c654c      2f2efffa       move.l -0x6(a6), -(a7)
          0x005c6550      2f2efff6       move.l -0xa(a6), -(a7)
          0x005c6554      3f2efff4       move.w -0xc(a6), -(a7)
          0x005c6558      1f3c0001       move.b 0x1, -(a7)
          0x005c655c      4eb9005eddb8   jsr FILE_STRUCTURE.fs_convert
          0x005c6562      defc000c       adda.w 0xc, a7
       > 0x005c6566      4cdf0301       movem.l (a7)+, d0/a0-a1
           0x005c656a      4e5e           unlk a6
           0x005c656c      4e75           rts
 152: AFS_FILER.v2v1_convert ();
           0x005c656e      4e56fda6       link.w a6, 0xfda6
           0x005c6572      bfd5           cmpa.l (a5), a7
       < 0x005c6574      6206           bhi.b 0x5c657c
          0x005c6576      44fc0002       move.w 0x2, ccr
          0x005c657a      4e76           trapv
       > 0x005c657c      defc0104       adda.w 0x104, a7
           0x005c6580      4227           clr.b -(a7)
           0x005c6582      486efef4       pea.l -0x10c(a6)
           0x005c6586      486efffe       pea.l -0x2(a6)
           0x005c658a      4eb9006186e4   jsr F21_COMMAND.read_path
           0x005c6590      504f           addq.w 0x8, a7
           0x005c6592      486efeaa       pea.l -0x156(a6)
           0x005c6596      4eb900404434   jsr fcn.00404434
           0x005c659c      584f           addq.w 0x4, a7
           0x005c659e      4a1f           tst.b (a7)+
       < 0x005c65a0      6760           beq.b 0x5c6602
          0x005c65a2      554f           subq.w 0x2, a7
          0x005c65a4      486efef4       pea.l -0x10c(a6)
          0x005c65a8      4227           clr.b -(a7)
          0x005c65aa      486efff4       pea.l -0xc(a6)
          0x005c65ae      4eb9006123d2   jsr F18_DIRECTORY.f_lookup
          0x005c65b4      defc000a       adda.w 0xa, a7
          0x005c65b8      4a1f           tst.b (a7)+
      < 0x005c65ba      662e           bne.b 0x5c65ea
         0x005c65bc      9efc00fc       suba.w 0xfc, a7
         0x005c65c0      2f3a96c8       move.l 0x5bfc8a(pc), -(a7)
         0x005c65c4      2f7a96c80004   move.l 0x5bfc8e(pc), 0x4(a7)
         0x005c65ca      2f7a96c60008   move.l 0x5bfc92(pc), 0x8(a7)
         0x005c65d0      1f7a96c4000c   move.b 0x5bfc96(pc), 0xc(a7)
         0x005c65d6      4ebafe70       jsr AFS_FILER.print_error(pc)
         0x005c65da      defc0100       adda.w 0x100, a7
         0x005c65de      486efeaa       pea.l -0x156(a6)
         0x005c65e2      4eb900404468   jsr fcn.00404468
         0x005c65e8      584f           addq.w 0x4, a7
      > 0x005c65ea      2f2efffa       move.l -0x6(a6), -(a7)
          0x005c65ee      2f2efff6       move.l -0xa(a6), -(a7)
          0x005c65f2      3f2efff4       move.w -0xc(a6), -(a7)
          0x005c65f6      4227           clr.b -(a7)
          0x005c65f8      4eb9005eddb8   jsr FILE_STRUCTURE.fs_convert
          0x005c65fe      defc000c       adda.w 0xc, a7
       > 0x005c6602      4e5e           unlk a6
           0x005c6604      4e75           rts
 148: AFS_FILER.vshow ();
           0x005c6606      4e56fd96       link.w a6, 0xfd96
           0x005c660a      bfd5           cmpa.l (a5), a7
       < 0x005c660c      6206           bhi.b 0x5c6614
          0x005c660e      44fc0002       move.w 0x2, ccr
          0x005c6612      4e76           trapv
       > 0x005c6614      defc0114       adda.w 0x114, a7
           0x005c6618      48e7c0c0       movem.l d0-d1/a0-a1, -(a7)
           0x005c661c      720a           moveq 0xa, d1
           0x005c661e      4227           clr.b -(a7)
           0x005c6620      486efef4       pea.l -0x10c(a6)
           0x005c6624      486efffe       pea.l -0x2(a6)
           0x005c6628      4eb9006186e4   jsr F21_COMMAND.read_path
           0x005c662e      504f           addq.w 0x8, a7
           0x005c6630      486efeaa       pea.l -0x156(a6)
           0x005c6634      4eb900404434   jsr fcn.00404434
           0x005c663a      584f           addq.w 0x4, a7
           0x005c663c      4a1f           tst.b (a7)+
       < 0x005c663e      6752           beq.b 0x5c6692
          0x005c6640      554f           subq.w 0x2, a7
          0x005c6642      486efef4       pea.l -0x10c(a6)
          0x005c6646      4227           clr.b -(a7)
          0x005c6648      486efff4       pea.l -0xc(a6)
          0x005c664c      4eb9006123d2   jsr F18_DIRECTORY.f_lookup
          0x005c6652      dec1           adda.w d1, a7
          0x005c6654      4a1f           tst.b (a7)+
      < 0x005c6656      6626           bne.b 0x5c667e
         0x005c6658      9efc0100       suba.w 0x100, a7
         0x005c665c      204f           movea.l a7, a0
         0x005c665e      43fa9637       lea.l 0x5bfc97(pc), a1
         0x005c6662      700c           moveq 0xc, d0
     > 0x005c6664      10d9           move.b (a1)+, (a0)+
     < 0x005c6666      51c8fffc       dbra d0, 0x5c6664
         0x005c666a      4ebafddc       jsr AFS_FILER.print_error(pc)
         0x005c666e      defc0100       adda.w 0x100, a7
         0x005c6672      486efeaa       pea.l -0x156(a6)
         0x005c6676      4eb900404468   jsr fcn.00404468
         0x005c667c      584f           addq.w 0x4, a7
      > 0x005c667e      2f2efffa       move.l -0x6(a6), -(a7)
          0x005c6682      2f2efff6       move.l -0xa(a6), -(a7)
          0x005c6686      3f2efff4       move.w -0xc(a6), -(a7)
          0x005c668a      4eb9005edeae   jsr FILE_STRUCTURE.fs_show
          0x005c6690      dec1           adda.w d1, a7
       > 0x005c6692      4cdf0303       movem.l (a7)+, d0-d1/a0-a1
           0x005c6696      4e5e           unlk a6
           0x005c6698      4e75           rts
 228: AFS_FILER.vedit ();
           0x005c669a      4e56fd96       link.w a6, 0xfd96
           0x005c669e      bfd5           cmpa.l (a5), a7
       < 0x005c66a0      6206           bhi.b 0x5c66a8
          0x005c66a2      44fc0002       move.w 0x2, ccr
          0x005c66a6      4e76           trapv
       > 0x005c66a8      defc0108       adda.w 0x108, a7
           0x005c66ac      48e70080       movem.l a0, -(a7)
           0x005c66b0      41f90043e376   lea.l G2_EXPRESSION.g_number, a0
           0x005c66b6      4227           clr.b -(a7)
           0x005c66b8      486efee8       pea.l -0x118(a6)
           0x005c66bc      486efff2       pea.l -0xe(a6)
           0x005c66c0      4eb9006186e4   jsr F21_COMMAND.read_path
           0x005c66c6      5c4f           addq.w 0x6, a7
           0x005c66c8      48780001       pea.l 0x1
           0x005c66cc      48780014       pea.l 0x14
           0x005c66d0      4e90           jsr (a0)                    ; fcn.00000009
           0x005c66d2      504f           addq.w 0x8, a7
           0x005c66d4      2d57fff4       move.l (a7), -0xc(a6)
           0x005c66d8      4878ffff       pea.l 0xffff
           0x005c66dc      2f3c000f423f   move.l 0xf423f, -(a7)
           0x005c66e2      4e90           jsr (a0)                    ; fcn.00000009
           0x005c66e4      504f           addq.w 0x8, a7
           0x005c66e6      2d57fff8       move.l (a7), -0x8(a6)
           0x005c66ea      48780000       pea.l 0x0
           0x005c66ee      48780014       pea.l 0x14
           0x005c66f2      4e90           jsr (a0)                    ; fcn.00000009
           0x005c66f4      504f           addq.w 0x8, a7
           0x005c66f6      2d57fffc       move.l (a7), -0x4(a6)
           0x005c66fa      544f           addq.w 0x2, a7
           0x005c66fc      486efe9e       pea.l -0x162(a6)
           0x005c6700      4eb900404434   jsr fcn.00404434
           0x005c6706      584f           addq.w 0x4, a7
           0x005c6708      4a1f           tst.b (a7)+
       < 0x005c670a      676a           beq.b 0x5c6776
          0x005c670c      554f           subq.w 0x2, a7
          0x005c670e      486efee8       pea.l -0x118(a6)
          0x005c6712      4227           clr.b -(a7)
          0x005c6714      486effe8       pea.l -0x18(a6)
          0x005c6718      4eb9006123d2   jsr F18_DIRECTORY.f_lookup
          0x005c671e      defc000a       adda.w 0xa, a7
          0x005c6722      4a1f           tst.b (a7)+
      < 0x005c6724      662e           bne.b 0x5c6754
         0x005c6726      9efc00fc       suba.w 0xfc, a7
         0x005c672a      2f3a9578       move.l 0x5bfca4(pc), -(a7)
         0x005c672e      2f7a95780004   move.l 0x5bfca8(pc), 0x4(a7)
         0x005c6734      2f7a95760008   move.l 0x5bfcac(pc), 0x8(a7)
         0x005c673a      1f7a9574000c   move.b 0x5bfcb0(pc), 0xc(a7)
         0x005c6740      4ebafd06       jsr AFS_FILER.print_error(pc)
         0x005c6744      defc0100       adda.w 0x100, a7
         0x005c6748      486efe9e       pea.l -0x162(a6)
         0x005c674c      4eb900404468   jsr fcn.00404468
         0x005c6752      584f           addq.w 0x4, a7
      > 0x005c6754      2f2effee       move.l -0x12(a6), -(a7)
          0x005c6758      2f2effea       move.l -0x16(a6), -(a7)
          0x005c675c      3f2effe8       move.w -0x18(a6), -(a7)
          0x005c6760      2f2efff4       move.l -0xc(a6), -(a7)
          0x005c6764      2f2efff8       move.l -0x8(a6), -(a7)
          0x005c6768      2f2efffc       move.l -0x4(a6), -(a7)
          0x005c676c      4eb9005ee1fe   jsr FILE_STRUCTURE.fs_edit
          0x005c6772      defc0016       adda.w 0x16, a7
       > 0x005c6776      4cdf0100       movem.l (a7)+, a0
           0x005c677a      4e5e           unlk a6
           0x005c677c      4e75           rts
 148: AFS_FILER.vcheck ();
           0x005c677e      4e56fd96       link.w a6, 0xfd96
           0x005c6782      bfd5           cmpa.l (a5), a7
       < 0x005c6784      6206           bhi.b 0x5c678c
          0x005c6786      44fc0002       move.w 0x2, ccr
          0x005c678a      4e76           trapv
       > 0x005c678c      defc0114       adda.w 0x114, a7
           0x005c6790      48e7c0c0       movem.l d0-d1/a0-a1, -(a7)
           0x005c6794      720a           moveq 0xa, d1
           0x005c6796      4227           clr.b -(a7)
           0x005c6798      486efef4       pea.l -0x10c(a6)
           0x005c679c      486efffe       pea.l -0x2(a6)
           0x005c67a0      4eb9006186e4   jsr F21_COMMAND.read_path
           0x005c67a6      504f           addq.w 0x8, a7
           0x005c67a8      486efeaa       pea.l -0x156(a6)
           0x005c67ac      4eb900404434   jsr fcn.00404434
           0x005c67b2      584f           addq.w 0x4, a7
           0x005c67b4      4a1f           tst.b (a7)+
       < 0x005c67b6      6752           beq.b 0x5c680a
          0x005c67b8      554f           subq.w 0x2, a7
          0x005c67ba      486efef4       pea.l -0x10c(a6)
          0x005c67be      4227           clr.b -(a7)
          0x005c67c0      486efff4       pea.l -0xc(a6)
          0x005c67c4      4eb9006123d2   jsr F18_DIRECTORY.f_lookup
          0x005c67ca      dec1           adda.w d1, a7
          0x005c67cc      4a1f           tst.b (a7)+
      < 0x005c67ce      6626           bne.b 0x5c67f6
         0x005c67d0      9efc0100       suba.w 0x100, a7
         0x005c67d4      204f           movea.l a7, a0
         0x005c67d6      43fa94d9       lea.l 0x5bfcb1(pc), a1
         0x005c67da      700c           moveq 0xc, d0
     > 0x005c67dc      10d9           move.b (a1)+, (a0)+
     < 0x005c67de      51c8fffc       dbra d0, 0x5c67dc
         0x005c67e2      4ebafc64       jsr AFS_FILER.print_error(pc)
         0x005c67e6      defc0100       adda.w 0x100, a7
         0x005c67ea      486efeaa       pea.l -0x156(a6)
         0x005c67ee      4eb900404468   jsr fcn.00404468
         0x005c67f4      584f           addq.w 0x4, a7
      > 0x005c67f6      2f2efffa       move.l -0x6(a6), -(a7)
          0x005c67fa      2f2efff6       move.l -0xa(a6), -(a7)
          0x005c67fe      3f2efff4       move.w -0xc(a6), -(a7)
          0x005c6802      4eb9005ee596   jsr FILE_STRUCTURE.fs_check
          0x005c6808      dec1           adda.w d1, a7
       > 0x005c680a      4cdf0303       movem.l (a7)+, d0-d1/a0-a1
           0x005c680e      4e5e           unlk a6
           0x005c6810      4e75           rts
            ; CALL XREFS from K1_AFS_ONLY.k1_init_filer_s @ 0x5aca46, 0x5aca66
 270: AFS_FILER.afs_init_filer ();
           0x005c6812      4e56ffac       link.w a6, 0xffac
           0x005c6816      bfd5           cmpa.l (a5), a7
       < 0x005c6818      6206           bhi.b 0x5c6820
          0x005c681a      44fc0002       move.w 0x2, ccr
          0x005c681e      4e76           trapv
       > 0x005c6820      defc0050       adda.w 0x50, a7
           0x005c6824      48e7f8f8       movem.l d0-d4/a0-a4, -(a7)
           0x005c6828      45f90084169f   lea.l 0x84169f, a2
           0x005c682e      47f80001       lea.l 0x1, a3
           0x005c6832      7201           moveq 0x1, d1
           0x005c6834      7420           moveq 0x20, d2
           0x005c6836      7612           moveq 0x12, d3
           0x005c6838      7816           moveq 0x16, d4
           0x005c683a      4a2e0008       tst.b 0x8(a6)
       < 0x005c683e      670c           beq.b 0x5c684c
          0x005c6840      4212           clr.b (a2)
          0x005c6842      13c10084169e   move.b d1, 0x84169e
      < 0x005c6848      600000ce       bra.w 0x5c6918
      > 0x005c684c      4a12           tst.b (a2)
      < 0x005c684e      660000c8       bne.w 0x5c6918
         0x005c6852      9ec3           suba.w d3, a7
         0x005c6854      2f3a9468       move.l 0x5bfcbe(pc), -(a7)
         0x005c6858      1f7a94680004   move.b 0x5bfcc2(pc), 0x4(a7)
         0x005c685e      1f01           move.b d1, -(a7)
         0x005c6860      4853           pea.l (a3)
         0x005c6862      486d0010       pea.l 0x10(a5)
         0x005c6866      487afc6c       pea.l AFS_FILER.v1v2_convert(pc)
         0x005c686a      4eb90043b79c   jsr G0_MAIN.g_new_command
         0x005c6870      dec2           adda.w d2, a7
         0x005c6872      285f           movea.l (a7)+, a4
         0x005c6874      9ec4           suba.w d4, a7
         0x005c6876      204f           movea.l a7, a0
         0x005c6878      43fa9449       lea.l 0x5bfcc3(pc), a1
         0x005c687c      7004           moveq 0x4, d0
     > 0x005c687e      10d9           move.b (a1)+, (a0)+
     < 0x005c6880      51c8fffc       dbra d0, 0x5c687e
         0x005c6884      1f01           move.b d1, -(a7)
         0x005c6886      4853           pea.l (a3)
         0x005c6888      486d0010       pea.l 0x10(a5)
         0x005c688c      487afce0       pea.l AFS_FILER.v2v1_convert(pc)
         0x005c6890      4eb90043b79c   jsr G0_MAIN.g_new_command
         0x005c6896      dec2           adda.w d2, a7
         0x005c6898      285f           movea.l (a7)+, a4
         0x005c689a      9ec3           suba.w d3, a7
         0x005c689c      2f3a942a       move.l 0x5bfcc8(pc), -(a7)
         0x005c68a0      3f7a942a0004   move.w 0x5bfccc(pc), 0x4(a7)
         0x005c68a6      1f01           move.b d1, -(a7)
         0x005c68a8      4853           pea.l (a3)
         0x005c68aa      486d0010       pea.l 0x10(a5)
         0x005c68ae      487afd56       pea.l AFS_FILER.vshow(pc)
         0x005c68b2      4eb90043b79c   jsr G0_MAIN.g_new_command
         0x005c68b8      dec2           adda.w d2, a7
         0x005c68ba      285f           movea.l (a7)+, a4
         0x005c68bc      9ec3           suba.w d3, a7
         0x005c68be      2f3a940e       move.l 0x5bfcce(pc), -(a7)
         0x005c68c2      3f7a940e0004   move.w 0x5bfcd2(pc), 0x4(a7)
         0x005c68c8      1f7a940a0006   move.b 0x5bfcd4(pc), 0x6(a7)
         0x005c68ce      1f01           move.b d1, -(a7)
         0x005c68d0      4853           pea.l (a3)
         0x005c68d2      486d0010       pea.l 0x10(a5)
         0x005c68d6      487afea6       pea.l AFS_FILER.vcheck(pc)
         0x005c68da      4eb90043b79c   jsr G0_MAIN.g_new_command
         0x005c68e0      dec2           adda.w d2, a7
         0x005c68e2      285f           movea.l (a7)+, a4
         0x005c68e4      9ec4           suba.w d4, a7
         0x005c68e6      204f           movea.l a7, a0
         0x005c68e8      43fa93eb       lea.l 0x5bfcd5(pc), a1
         0x005c68ec      7005           moveq 0x5, d0
     > 0x005c68ee      10d9           move.b (a1)+, (a0)+
     < 0x005c68f0      51c8fffc       dbra d0, 0x5c68ee
         0x005c68f4      1f01           move.b d1, -(a7)
         0x005c68f6      4853           pea.l (a3)
         0x005c68f8      486d0010       pea.l 0x10(a5)
         0x005c68fc      487afd9c       pea.l AFS_FILER.vedit(pc)
         0x005c6900      4eb90043b79c   jsr G0_MAIN.g_new_command
         0x005c6906      dec2           adda.w d2, a7
         0x005c6908      285f           movea.l (a7)+, a4
         0x005c690a      4eb9005ca06e   jsr AFS2_LIB.afs2_init
         0x005c6910      4eb9005c892a   jsr AFS1_UTIL.afs1_init
         0x005c6916      1481           move.b d1, (a2)
      > 0x005c6918      4cdf1f1f       movem.l (a7)+, d0-d4/a0-a4
           0x005c691c      4e5e           unlk a6
