            ;-- BOOTCOM:
            0x0068bd22      .byte 0x00
            0x0068bd23      .byte 0x00
            0x0068bd24      .byte 0x00
            0x0068bd25      .byte 0x00
            0x0068bd26      .byte 0x00
            0x0068bd27      .byte 0x00
            0x0068bd28      .byte 0x00
            0x0068bd29      .byte 0x00
            0x0068bd2a      .byte 0x00
            0x0068bd2b      .byte 0x00
            0x0068bd2c      .byte 0x00
            0x0068bd2d      .byte 0x80
            0x0068bd2e      .byte 0xf5
            0x0068bd2f      .byte 0x00
            0x0068bd30      .byte 0x00
            0x0068bd31      .byte 0x00
            0x0068bd32      .byte 0x00
            0x0068bd33      .byte 0x80
            0x0068bd34      .byte 0xf5
            0x0068bd35      .byte 0x00
            0x0068bd36      .byte 0x00
            0x0068bd37      .byte 0x00
            0x0068bd38      .byte 0x01
            0x0068bd39      .byte 0x80
            0x0068bd3a      .byte 0xf5
            0x0068bd3b      .byte 0x00
            0x0068bd3c      .byte 0x00
            0x0068bd3d      .byte 0x00
            0x0068bd3e      .byte 0xff
            0x0068bd3f      .byte 0xff
            0x0068bd40      .byte 0xff
            0x0068bd41      .byte 0xff
            0x0068bd42      .byte 0xff
            0x0068bd43      .byte 0xff
            0x0068bd44      .byte 0xff
            0x0068bd45      .byte 0xff
            0x0068bd46      .byte 0x0e
            0x0068bd47     .string "No shared vol." ; len=14
            0x0068bd55      .byte 0x23
            0x0068bd56     .string "failed to find shared vol root dir " ; len=35
            0x0068bd79      .byte 0x11
            0x0068bd7a     .string "No serial number." ; len=17
            0x0068bd8b      .byte 0x07
            0x0068bd8c     .string "SHARED_" ; len=7
            0x0068bd93      .byte 0x25
            0x0068bd94     .string "failed to create shared vol root dir " ; len=37
            0x0068bdb9      .byte 0x28
            0x0068bdba     .string "Couldn't sort out alternate default dir." ; len=40
            0x0068bde2      .byte 0x09
            0x0068bde3     .string "~BOOTLIST" ; len=9
            0x0068bdec      .byte 0x00
            0x0068bded      .byte 0x17
            0x0068bdee     .string "Boot list not opened - " ; len=23
            0x0068be05      .byte 0x09
            0x0068be06     .string "heap full" ; len=9
            0x0068be0f      .byte 0x1f
            0x0068be10     .string "Failed to parse numeric string " ; len=31
            0x0068be2f      .byte 0x16
            0x0068be30     .string "unexpected end of file" ; len=22
            0x0068be46      .byte 0x16
            0x0068be47     .string "unexpected end of file" ; len=22
            0x0068be5d      .byte 0x1a
            0x0068be5e     .string "failed to parse fid string" ; len=26
            0x0068be78      .byte 0x10
            0x0068be79     .string "list to write :-" ; len=16
            0x0068be89      .byte 0x28
            0x0068be8a     .string "Couldn't sort out alternate default dir." ; len=40
            0x0068beb2      .byte 0x09
            0x0068beb3     .string "~BOOTLIST" ; len=9
            0x0068bebc      .byte 0x00
            0x0068bebd      .byte 0x17
            0x0068bebe     .string "Boot list not opened - " ; len=23
            0x0068bed5      .byte 0x06
            0x0068bed6     .string "check " ; len=6
            0x0068bedc      .byte 0x09
            0x0068bedd     .string " present " ; len=9
            0x0068bee6      .byte 0x0e
            0x0068bee7     .string ", with gender " ; len=14
            0x0068bef5      .byte 0x15
            0x0068bef6     .string "Failed to get header " ; len=21
            0x0068bf0b      .byte 0x09
            0x0068bf0c     .string "heap full" ; len=9
            0x0068bf15      .byte 0x16
            0x0068bf16     .string "No s/w gender in file." ; len=22
            0x0068bf2c      .byte 0x0c
            0x0068bf2d     .string "file gender " ; len=12
            0x0068bf39      .byte 0x10
            0x0068bf3a     .string " Already in list" ; len=16
            0x0068bf4a      .byte 0x04
            0x0068bf4b      .byte 0x41
            0x0068bf4c      .byte 0x64
            0x0068bf4d      .byte 0x64
            0x0068bf4e      .byte 0x20
            0x0068bf4f      .byte 0x0f
            0x0068bf50     .string " to end of list" ; len=15
            0x0068bf5f      .byte 0x14
            0x0068bf60     .string "Form new list using " ; len=20
            0x0068bf74      .byte 0x10
            0x0068bf75     .string " Already missing" ; len=16
            0x0068bf85      .byte 0x07
            0x0068bf86     .string "Remove " ; len=7
            0x0068bf8d      .byte 0x0a
            0x0068bf8e     .string " from list" ; len=10
            0x0068bf98      .byte 0x07
            0x0068bf99     .string "Remove " ; len=7
            0x0068bfa0      .byte 0x13
            0x0068bfa1     .string " from start of list" ; len=19
            0x0068bfb4      .byte 0x0a
            0x0068bfb5     .string " isn't on " ; len=10
            0x0068bfbf      .byte 0x10
            0x0068bfc0     .string "Remove from list" ; len=16
            0x0068bfd0      .byte 0x19
            0x0068bfd1     .string "Remove from start of list" ; len=25
            0x0068bfea      .byte 0x0b
            0x0068bfeb     .string " is deleted" ; len=11
            0x0068bff6      .byte 0x10
            0x0068bff7     .string "Remove from list" ; len=16
            0x0068c007      .byte 0x19
            0x0068c008     .string "Remove from start of list" ; len=25
            0x0068c021      .byte 0x15
            0x0068c022     .string "Failed to get header " ; len=21
            0x0068c037      .byte 0x18
            0x0068c038     .string "Failed to get boot list " ; len=24
            0x0068c050      .byte 0x18
            0x0068c051     .string "Failed to get boot list " ; len=24
            0x0068c069      .byte 0x43
            0x0068c06a     .string "Expected BOOT Add|Remove gender file or BOOT Check vol or BOOT List" ; len=67
            0x0068c0ad      .byte 0x15
            0x0068c0ae     .string "Add|Remove|Check|List" ; len=21
            0x0068c0c3      .byte 0x12
            0x0068c0c4     .string "No volume to check" ; len=18
            0x0068c0d6      .byte 0x43
            0x0068c0d7     .string "Expected BOOT Add|Remove gender file or BOOT Check vol or BOOT List" ; len=67
            0x0068c11a      .byte 0x00
            0x0068c11b      .byte 0x00
            0x0068c11c      .byte 0x00
            0x0068c11d      .byte 0x00
            0x0068c11e      .byte 0x00
            0x0068c11f      .byte 0x00
            0x0068c120      .byte 0x00
            0x0068c121      .byte 0x00
            0x0068c122      .byte 0x00
            0x0068c123      .byte 0x00
            0x0068c124      .byte 0x15
            0x0068c125     .string "Failed to get header " ; len=21
            0x0068c13a      .byte 0x00
            0x0068c13b      .byte 0x00
            0x0068c13c      .byte 0x00
            0x0068c13d      .byte 0x00
            0x0068c13e      .byte 0x00
            0x0068c13f      .byte 0x00
            0x0068c140      .byte 0x00
            0x0068c141      .byte 0x00
            0x0068c142      .byte 0x00
            0x0068c143      .byte 0x00
            0x0068c144      .byte 0x15
            0x0068c145     .string "Failed to get header " ; len=21
            0x0068c15a      .byte 0x02
            0x0068c15b      .byte 0x4f
            0x0068c15c      .byte 0x4b
            0x0068c15d      .byte 0x1b
            0x0068c15e     .string "installing illegal password" ; len=27
            0x0068c179      .byte 0x17
            0x0068c17a     .string "act_blocks. num blocks " ; len=23
            0x0068c191      .byte 0x0c
            0x0068c192     .string ", num words " ; len=12
            0x0068c19e      .byte 0x1d
            0x0068c19f     .string "BOOT - failed to read blocks " ; len=29
            0x0068c1bc      .byte 0x18
            0x0068c1bd     .string "error while reading file" ; len=24
            0x0068c1d5      .byte 0x06
            0x0068c1d6     .string "chunk " ; len=6
            0x0068c1dc      .byte 0x0b
            0x0068c1dd     .string ", checksum " ; len=11
            0x0068c1e8      .byte 0x03
            0x0068c1e9      .byte 0x20
            0x0068c1ea      .byte 0x2f
            0x0068c1eb      .byte 0x20
            0x0068c1ec      .byte 0x12
            0x0068c1ed     .string "blocks size error " ; len=18
            0x0068c1ff      .byte 0x1e
            0x0068c200     .string "BOOT - failed to write blocks " ; len=30
            0x0068c21e      .byte 0x18
            0x0068c21f     .string "error while writing file" ; len=24
            0x0068c237      .byte 0x16
            0x0068c238     .string "failed to read file 2 " ; len=22
            0x0068c24e      .byte 0x1f
            0x0068c24f     .string "error while reading system disk" ; len=31
            0x0068c26e      .byte 0x12
            0x0068c26f     .string "blocks size error " ; len=18
            0x0068c281      .byte 0x1d
            0x0068c282     .string "failed checking data at word " ; len=29
            0x0068c29f      .byte 0x1f
            0x0068c2a0     .string "error while checking boot image" ; len=31
            0x0068c2bf      .byte 0x18
            0x0068c2c0     .string "Block checksum mismatch." ; len=24
            0x0068c2d8      .byte 0x1e
            0x0068c2d9     .string "error while checking checksums" ; len=30
            0x0068c2f7      .byte 0x15
            0x0068c2f8     .string "act_blocks. checksum " ; len=21
            0x0068c30d      .byte 0x04
            0x0068c30e      .byte 0x20
            0x0068c30f      .byte 0x74
            0x0068c310      .byte 0x6f
            0x0068c311      .byte 0x20
            0x0068c312      .byte 0x03
            0x0068c313      .byte 0x20
            0x0068c314      .byte 0x2f
            0x0068c315      .byte 0x20
            0x0068c316      .byte 0x08
            0x0068c317     .string "not read" ; len=8
            0x0068c31f      .byte 0x14
            0x0068c320     .string "BOOT - entry missing" ; len=20
            0x0068c334      .byte 0x00
            0x0068c335      .byte 0x0d
            0x0068c336     .string " has no boot " ; len=13
            0x0068c343      .byte 0x1e
            0x0068c344     .string "must use non empty boot number" ; len=30
            0x0068c362      .byte 0x19
            0x0068c363     .string "failed to open from file " ; len=25
            0x0068c37c      .byte 0x15
            0x0068c37d     .string "cannot open boot file" ; len=21
            0x0068c392      .byte 0x1a
            0x0068c393     .string "failed to get file header " ; len=26
            0x0068c3ad      .byte 0x00
            0x0068c3ae      .byte 0x19
            0x0068c3af     .string "cant get boot file header" ; len=25
            0x0068c3c8      .byte 0x15
            0x0068c3c9     .string " has no file in boot " ; len=21
            0x0068c3de      .byte 0x17
            0x0068c3df     .string "failed to get boot data" ; len=23
            0x0068c3f6      .byte 0x14
            0x0068c3f7     .string "cannot get boot data" ; len=20
            0x0068c40b      .byte 0x07
            0x0068c40c     .string "BOOT - " ; len=7
            0x0068c413      .byte 0x09
            0x0068c414     .string " blocks. " ; len=9
            0x0068c41d      .byte 0x07
            0x0068c41e     .string " words " ; len=7
            0x0068c425      .byte 0x0d
            0x0068c426     .string "start_make - " ; len=13
            0x0068c433      .byte 0x02
            0x0068c434      .byte 0x2c
            0x0068c435      .byte 0x20
            0x0068c436      .byte 0x02
            0x0068c437      .byte 0x29
            0x0068c438      .byte 0x20
            0x0068c439      .byte 0x00
            0x0068c43a      .byte 0x12
            0x0068c43b     .string "looking for drive " ; len=18
            0x0068c44d      .byte 0x02
            0x0068c44e      .byte 0x2c
            0x0068c44f      .byte 0x20
            0x0068c450      .byte 0x02
            0x0068c451      .byte 0x2c
            0x0068c452      .byte 0x20
            0x0068c453      .byte 0x03
            0x0068c454      .byte 0x6e
            0x0068c455      .byte 0x6f
            0x0068c456      .byte 0x20
            0x0068c457      .byte 0x0e
            0x0068c458     .string " disk in drive" ; len=14
            0x0068c466      .byte 0x1c
            0x0068c467     .string "BOOT - failed to list boots " ; len=28
            0x0068c483      .byte 0x12
            0x0068c484     .string " has no boot table" ; len=18
            0x0068c496      .byte 0x11
            0x0068c497     .string "failed start_make" ; len=17
            0x0068c4a8      .byte 0x1d
            0x0068c4a9     .string "File has old format checksum." ; len=29
            0x0068c4c6      .byte 0x18
            0x0068c4c7     .string "!!! s/w length problem. " ; len=24
            0x0068c4df      .byte 0x0c
            0x0068c4e0     .string " in cs, but " ; len=12
            0x0068c4ec      .byte 0x13
            0x0068c4ed     .string " from boot data !!!" ; len=19
            0x0068c500      .byte 0x07
            0x0068c501     .string "BOOT - " ; len=7
            0x0068c508      .byte 0x02
            0x0068c509      .byte 0x2c
            0x0068c50a      .byte 0x20
            0x0068c50b      .byte 0x09
            0x0068c50c     .string ", blocks " ; len=9
            0x0068c515      .byte 0x02
            0x0068c516      .byte 0x20
            0x0068c517      .byte 0x28
            0x0068c518      .byte 0x02
            0x0068c519      .byte 0x29
            0x0068c51a      .byte 0x20
            0x0068c51b      .byte 0x02
            0x0068c51c      .byte 0x29
            0x0068c51d      .byte 0x20
            0x0068c51e      .byte 0x11
            0x0068c51f     .string "failed start_read" ; len=17
            0x0068c530      .byte 0x13
            0x0068c531     .string "error while copying" ; len=19
            0x0068c544      .byte 0x1b
            0x0068c545     .string "No checksum in source file." ; len=27
            0x0068c560      .byte 0x1b
            0x0068c561     .string "Checksum failure. Expected " ; len=27
            0x0068c57c      .byte 0x06
            0x0068c57d     .string ", got " ; len=6
            0x0068c583      .byte 0x0e
            0x0068c584     .string "checksum error" ; len=14
            0x0068c592      .byte 0x1c
            0x0068c593     .string "Load removeable - boot file " ; len=28
            0x0068c5af      .byte 0x03
            0x0068c5b0      .byte 0x20
            0x0068c5b1      .byte 0x4f
            0x0068c5b2      .byte 0x4b
            0x0068c5b3      .byte 0x11
            0x0068c5b4     .string "failed start_read" ; len=17
            0x0068c5c5      .byte 0x18
            0x0068c5c6     .string "error while checksumming" ; len=24
            0x0068c5de      .byte 0x18
            0x0068c5df     .string "Removable disk checksum " ; len=24
            0x0068c5f7      .byte 0x0e
            0x0068c5f8     .string "set_headers - " ; len=14
            0x0068c606      .byte 0x02
            0x0068c607      .byte 0x2c
            0x0068c608      .byte 0x20
            0x0068c609      .byte 0x07
            0x0068c60a     .string ", boot " ; len=7
            0x0068c611      .byte 0x02
            0x0068c612      .byte 0x29
            0x0068c613      .byte 0x20
            0x0068c614      .byte 0x12
            0x0068c615     .string "sw_gender_present " ; len=18
            0x0068c627      .byte 0x0c
            0x0068c628     .string ", sw_gender " ; len=12
            0x0068c634      .byte 0x1f
            0x0068c635     .string "Boot - Failed to set boot data " ; len=31
            0x0068c654      .byte 0x0b
            0x0068c655     .string " disk error" ; len=11
            0x0068c660      .byte 0x1a
            0x0068c661     .string "Boot - Failed to set title" ; len=26
            0x0068c67b      .byte 0x0b
            0x0068c67c     .string " disk error" ; len=11
            0x0068c687      .byte 0x14
            0x0068c688     .string "failed to set option" ; len=20
            0x0068c69c      .byte 0x06
            0x0068c69d     .string "failed" ; len=6
            0x0068c6a3      .byte 0x24
            0x0068c6a4     .string "Boot - Failed to make file bootable " ; len=36
            0x0068c6c8      .byte 0x17
            0x0068c6c9     .string "boot file create failed" ; len=23
            0x0068c6e0      .byte 0x13
            0x0068c6e1     .string "No source checksum." ; len=19
            0x0068c6f4      .byte 0x1b
            0x0068c6f5     .string "Checksum failure. Expected " ; len=27
            0x0068c710      .byte 0x06
            0x0068c711     .string ", got " ; len=6
            0x0068c717      .byte 0x0b
            0x0068c718     .string "ic. put cs " ; len=11
            0x0068c723      .byte 0x06
            0x0068c724     .string ", len " ; len=6
            0x0068c72a      .byte 0x28
            0x0068c72b     .string "Failed to put checksum into file header." ; len=40
            0x0068c753      .byte 0x10
            0x0068c754     .string "Source checksum " ; len=16
            0x0068c764      .byte 0x27
            0x0068c765     .string "File has old format checksum. Ignoring." ; len=39
            0x0068c78c      .byte 0x13
            0x0068c78d     .string "No source checksum." ; len=19
            0x0068c7a0      .byte 0x1f
            0x0068c7a1     .string "failed to delete unwanted file " ; len=31
            0x0068c7c0      .byte 0x1d
            0x0068c7c1     .string "Boot - Failed to create file " ; len=29
            0x0068c7de      .byte 0x0f
            0x0068c7df     .string " disk not empty" ; len=15
            0x0068c7ee      .byte 0x1b
            0x0068c7ef     .string "Boot - Failed to open file " ; len=27
            0x0068c80a      .byte 0x12
            0x0068c80b     .string "error opening file" ; len=18
            0x0068c81d      .byte 0x1b
            0x0068c81e     .string "Boot - Failed to copy file " ; len=27
            0x0068c839      .byte 0x13
            0x0068c83a     .string "failed to copy file" ; len=19
            0x0068c84d      .byte 0x12
            0x0068c84e     .string "failed set_headers" ; len=18
            0x0068c860      .byte 0x1c
            0x0068c861     .string "Boot - Failed to do checksum" ; len=28
            0x0068c87d      .byte 0x13
            0x0068c87e     .string "disk checksum error" ; len=19
            0x0068c891      .byte 0x1c
            0x0068c892     .string "Boot - Failed to get header " ; len=28
            0x0068c8ae      .byte 0x1b
            0x0068c8af     .string "floppy disk write protected" ; len=27
            0x0068c8ca      .byte 0x1c
            0x0068c8cb     .string "Boot - Failed to put string " ; len=28
            0x0068c8e7      .byte 0x0b
            0x0068c8e8     .string "header full" ; len=11
            0x0068c8f3      .byte 0x06
            0x0068c8f4     .string " disk " ; len=6
            0x0068c8fa      .byte 0x12
            0x0068c8fb     .string "Makefloppy - disk " ; len=18
            0x0068c90d      .byte 0x02
            0x0068c90e      .byte 0x2c
            0x0068c90f      .byte 0x20
            0x0068c910      .byte 0x0c
            0x0068c911     .string "total words " ; len=12
            0x0068c91d      .byte 0x07
            0x0068c91e     .string ", from " ; len=7
            0x0068c925      .byte 0x06
            0x0068c926     .string ", for " ; len=6
            0x0068c92c      .byte 0x09
            0x0068c92d     .string " blocks, " ; len=9
            0x0068c936      .byte 0x08
            0x0068c937     .string " words, " ; len=8
            0x0068c93f      .byte 0x17
            0x0068c940     .string "making floppy boot file" ; len=23
            0x0068c957      .byte 0x11
            0x0068c958     .string "dismounted floppy" ; len=17
            0x0068c969      .byte 0x18
            0x0068c96a     .string "error dismounting floppy" ; len=24
            0x0068c982      .byte 0x13
            0x0068c983     .string "Mounted floppy vol " ; len=19
            0x0068c996      .byte 0x17
            0x0068c997     .string "no floppy disk in drive" ; len=23
            0x0068c9ae      .byte 0x15
            0x0068c9af     .string "failed to rename disk" ; len=21
            0x0068c9c4      .byte 0x16
            0x0068c9c5     .string "failed create_and_copy" ; len=22
            0x0068c9db      .byte 0x1e
            0x0068c9dc     .string "MakeFloppy - create boot file " ; len=30
            0x0068c9fa      .byte 0x07
            0x0068c9fb     .string ", disk " ; len=7
            0x0068ca02      .byte 0x03
            0x0068ca03      .byte 0x20
            0x0068ca04      .byte 0x4f
            0x0068ca05      .byte 0x4b
            0x0068ca06      .byte 0x11
            0x0068ca07     .string "failed start_read" ; len=17
            0x0068ca18      .byte 0x14
            0x0068ca19     .string "BOOT - check floppy " ; len=20
            0x0068ca2d      .byte 0x16
            0x0068ca2e     .string "failed to check blocks" ; len=22
            0x0068ca44      .byte 0x0d
            0x0068ca45     .string "check failure" ; len=13
            0x0068ca52      .byte 0x27
            0x0068ca53     .string "Type GO to continue or STOP to abort > " ; len=39
            0x0068ca7a      .byte 0x00
            0x0068ca7b      .byte 0x07
            0x0068ca7c     .string "GO|STOP" ; len=7
            0x0068ca83      .byte 0x07
            0x0068ca84     .string "Aborted" ; len=7
            0x0068ca8b      .byte 0x1a
            0x0068ca8c     .string "must use empty boot number" ; len=26
            0x0068caa6      .byte 0x00
            0x0068caa7      .byte 0x11
            0x0068caa8     .string "failed start_make" ; len=17
            0x0068cab9      .byte 0x15
            0x0068caba     .string "BOOT - make_floppies " ; len=21
            0x0068cacf      .byte 0x07
            0x0068cad0     .string " disks " ; len=7
            0x0068cad7      .byte 0x22
            0x0068cad8     .string "insert formatted floppy, hit a key" ; len=34
            0x0068cafa      .byte 0x20
            0x0068cafb     .string "insert formatted floppy, tap pen" ; len=32
            0x0068cb1b      .byte 0x15
            0x0068cb1c     .string "failed to make floppy" ; len=21
            0x0068cb31      .byte 0x15
            0x0068cb32     .string "failed to make floppy" ; len=21
            0x0068cb47      .byte 0x1a
            0x0068cb48     .string "must use empty boot number" ; len=26
            0x0068cb62      .byte 0x16
            0x0068cb63     .string "failed to create file " ; len=22
            0x0068cb79      .byte 0x17
            0x0068cb7a     .string "boot file create failed" ; len=23
            0x0068cb91      .byte 0x14
            0x0068cb92     .string "failed to open file " ; len=20
            0x0068cba6      .byte 0x15
            0x0068cba7     .string "boot file open failed" ; len=21
            0x0068cbbc      .byte 0x12
            0x0068cbbd     .string "loading boot from " ; len=18
            0x0068cbcf      .byte 0x21
            0x0068cbd0     .string "insert bootable floppy, hit a key" ; len=33
            0x0068cbf1      .byte 0x1f
            0x0068cbf2     .string "insert bootable floppy, tap pen" ; len=31
            0x0068cc11      .byte 0x14
            0x0068cc12     .string "failed to load file " ; len=20
            0x0068cc26      .byte 0x06
            0x0068cc27     .string "failed" ; len=6
            0x0068cc2d      .byte 0x1a
            0x0068cc2e     .string "s/w gender mismatch. this " ; len=26
            0x0068cc48      .byte 0x08
            0x0068cc49     .string ", first " ; len=8
            0x0068cc51      .byte 0x15
            0x0068cc52     .string "failed to do checksum" ; len=21
            0x0068cc67      .byte 0x06
            0x0068cc68     .string "failed" ; len=6
            0x0068cc6e      .byte 0x12
            0x0068cc6f     .string "failed set_headers" ; len=18
            0x0068cc81      .byte 0x0b
            0x0068cc82     .string "load failed" ; len=11
            0x0068cc8d      .byte 0x00
            0x0068cc8e      .byte 0x11
            0x0068cc8f     .string "failed start_make" ; len=17
            0x0068cca0      .byte 0x21
            0x0068cca1     .string "insert bootable floppy, hit a key" ; len=33
            0x0068ccc2      .byte 0x1f
            0x0068ccc3     .string "insert bootable floppy, tap pen" ; len=31
            0x0068cce2      .byte 0x18
            0x0068cce3     .string "failed to check floppies" ; len=24
            0x0068ccfb      .byte 0x11
            0x0068ccfc     .string "floppy check fail" ; len=17
            0x0068cd0d      .byte 0x14
            0x0068cd0e     .string "gender present. src " ; len=20
            0x0068cd22      .byte 0x06
            0x0068cd23     .string ", dst " ; len=6
            0x0068cd29      .byte 0x0c
            0x0068cd2a     .string "gender. src " ; len=12
            0x0068cd36      .byte 0x06
            0x0068cd37     .string ", dst " ; len=6
            0x0068cd3d      .byte 0x1a
            0x0068cd3e     .string "must use empty boot number" ; len=26
            0x0068cd58      .byte 0x00
            0x0068cd59      .byte 0x11
            0x0068cd5a     .string "failed start_make" ; len=17
            0x0068cd6b      .byte 0x07
            0x0068cd6c     .string "making " ; len=7
            0x0068cd73      .byte 0x05
            0x0068cd74     .string " boot" ; len=5
            0x0068cd79      .byte 0x03
            0x0068cd7a      .byte 0x6e
            0x0068cd7b      .byte 0x6f
            0x0068cd7c      .byte 0x20
            0x0068cd7d      .byte 0x0e
            0x0068cd7e     .string " disk in drive" ; len=14
            0x0068cd8c      .byte 0x16
            0x0068cd8d     .string "failed create_and_copy" ; len=22
            0x0068cda3      .byte 0x21
            0x0068cda4     .string "Makemagopt - created boot file OK" ; len=33
            0x0068cdc5      .byte 0x0b
            0x0068cdc6     .string " disk error" ; len=11
            0x0068cdd1      .byte 0x16
            0x0068cdd2     .string "checksuming boot from " ; len=22
            0x0068cde8      .byte 0x18
            0x0068cde9     .string "failed to write to file " ; len=24
            0x0068ce01      .byte 0x18
            0x0068ce02     .string "cannot delete empty boot" ; len=24
            0x0068ce1a      .byte 0x16
            0x0068ce1b     .string "failed to delete file " ; len=22
            0x0068ce31      .byte 0x17
            0x0068ce32     .string "delete boot file failed" ; len=23
            0x0068ce49      .byte 0x21
            0x0068ce4a     .string "failed to make file not bootable " ; len=33
            0x0068ce6b      .byte 0x19
            0x0068ce6c     .string "delete boot number failed" ; len=25
            0x0068ce85      .byte 0x1b
            0x0068ce86     .string "cannot boot from empty boot" ; len=27
            0x0068cea1      .byte 0x1a
            0x0068cea2     .string "must use empty boot number" ; len=26
            0x0068cebc      .byte 0x0e
            0x0068cebd     .string "BOOT - unboot " ; len=14
            0x0068cecb      .byte 0x02
            0x0068cecc      .byte 0x2e
            0x0068cecd      .byte 0x20
            0x0068cece      .byte 0x02
            0x0068cecf      .byte 0x2c
            0x0068ced0      .byte 0x20
            0x0068ced1      .byte 0x08
            0x0068ced2     .string " blocks." ; len=8
            0x0068ceda      .byte 0x27
            0x0068cedb     .string "!!!!! Image start address is odd. !!!!!" ; len=39
            0x0068cf02      .byte 0x25
            0x0068cf03     .string "!!!!! Image end address is odd. !!!!!" ; len=37
            0x0068cf28      .byte 0x10
            0x0068cf29     .string "unboot checksum " ; len=16
            0x0068cf39      .byte 0x09
            0x0068cf3a     .string ", length " ; len=9
            0x0068cf43      .byte 0x16
            0x0068cf44     .string "failed to create file " ; len=22
            0x0068cf5a      .byte 0x1f
            0x0068cf5b     .string "unboot create failed, disk full" ; len=31
            0x0068cf7a      .byte 0x14
            0x0068cf7b     .string "failed to open file " ; len=20
            0x0068cf8f      .byte 0x15
            0x0068cf90     .string "cannot open boot file" ; len=21
            0x0068cfa5      .byte 0x15
            0x0068cfa6     .string "failed to unboot file" ; len=21
            0x0068cfbb      .byte 0x12
            0x0068cfbc     .string "cannot unboot file" ; len=18
            0x0068cfce      .byte 0x0b
            0x0068cfcf     .string "ub. put cs " ; len=11
            0x0068cfda      .byte 0x06
            0x0068cfdb     .string ", len " ; len=6
            0x0068cfe1      .byte 0x16
            0x0068cfe2     .string "failed to set checksum" ; len=22
            0x0068cff8      .byte 0x06
            0x0068cff9     .string "failed" ; len=6
            0x0068cfff      .byte 0x06
            0x0068d000     .string "unboot" ; len=6
            0x0068d006      .byte 0x12
            0x0068d007     .string "failed set_headers" ; len=18
            0x0068d019      .byte 0x1a
            0x0068d01a     .string "BOOT - create boot file OK" ; len=26
            0x0068d034      .byte 0x14
            0x0068d035     .string "BOOT - unboot failed" ; len=20
            0x0068d049      .byte 0x0d
            0x0068d04a     .string "unboot failed" ; len=13
            0x0068d057      .byte 0x12
            0x0068d058     .string "copying boot file " ; len=18
            0x0068d06a      .byte 0x0e
            0x0068d06b     .string " to boot file " ; len=14
            0x0068d079      .byte 0x1b
            0x0068d07a     .string "cannot make from empty boot" ; len=27
            0x0068d095      .byte 0x1a
            0x0068d096     .string "must use empty boot number" ; len=26
            0x0068d0b0      .byte 0x12
            0x0068d0b1     .string "copying from boot " ; len=18
            0x0068d0c3      .byte 0x14
            0x0068d0c4     .string "failed to copy file " ; len=20
            0x0068d0d8      .byte 0x10
            0x0068d0d9     .string "copy file failed" ; len=16
            0x0068d0e9      .byte 0x00
            0x0068d0ea      .byte 0x1d
            0x0068d0eb     .string "failed to make file bootable " ; len=29
            0x0068d108      .byte 0x10
            0x0068d109     .string "copy file failed" ; len=16
            0x0068d119      .byte 0x18
            0x0068d11a     .string "BOOT - copy boot file OK" ; len=24
            0x0068d132      .byte 0x12
            0x0068d133     .string "BOOT - copy failed" ; len=18
            0x0068d145      .byte 0x10
            0x0068d146     .string "copy boot failed" ; len=16
            0x0068d156      .byte 0x22
            0x0068d157     .string "unable to save passwords on floppy" ; len=34
            0x0068d179      .byte 0x22
            0x0068d17a     .string "unable to save passwords on floppy" ; len=34
            0x0068d19c      .byte 0x18
            0x0068d19d     .string "Failed to get boot list " ; len=24
            0x0068d1b5      .byte 0x0c
            0x0068d1b6     .string "no boot list" ; len=12
            0x0068d1c2      .byte 0x02
            0x0068d1c3      .byte 0x3a
            0x0068d1c4      .byte 0x20
            0x0068d1c5      .byte 0x05
            0x0068d1c6     .string "empty" ; len=5
            0x0068d1cb      .byte 0x15
            0x0068d1cc     .string "Failed to get header " ; len=21
            0x0068d1e1      .byte 0x05
            0x0068d1e2     .string "fault" ; len=5
            0x0068d1e7      .byte 0x01
            0x0068d1e8      .byte 0x42
            0x0068d1e9      .byte 0x01
            0x0068d1ea      .byte 0x2f
            0x0068d1eb      .byte 0x01
            0x0068d1ec      .byte 0x42
            0x0068d1ed      .byte 0x07
            0x0068d1ee     .string "magopt " ; len=7
            0x0068d1f5      .byte 0x02
            0x0068d1f6      .byte 0x3a
            0x0068d1f7      .byte 0x20
            0x0068d1f8      .byte 0x04
            0x0068d1f9      .byte 0x6e
            0x0068d1fa      .byte 0x65
            0x0068d1fb      .byte 0x74
            0x0068d1fc      .byte 0x20
            0x0068d1fd      .byte 0x02
            0x0068d1fe      .byte 0x3a
            0x0068d1ff      .byte 0x20
            0x0068d200      .byte 0x00
            0x0068d201      .byte 0x06
            0x0068d202     .string "system" ; len=6
            0x0068d208      .byte 0x01
            0x0068d209      .byte 0x42
            0x0068d20a      .byte 0x06
            0x0068d20b     .string "shared" ; len=6
            0x0068d211      .byte 0x02
            0x0068d212      .byte 0x66
            0x0068d213      .byte 0x6c
            0x0068d214      .byte 0x0f
            0x0068d215     .string "floppy simulate" ; len=15
            0x0068d224      .byte 0x06
            0x0068d225     .string "floppy" ; len=6
            0x0068d22b      .byte 0x07
            0x0068d22c     .string "wait..." ; len=7
            0x0068d233      .byte 0x0e
            0x0068d234     .string "Added floppy. " ; len=14
            0x0068d242      .byte 0x07
            0x0068d243      .byte 0x00
            0x0068d244      .byte 0x00
            0x0068d245      .byte 0x00
            0x0068d246      .byte 0x00
            0x0068d247      .byte 0x00
            0x0068d248      .byte 0x00
            0x0068d249      .byte 0x00
            0x0068d24a      .byte 0x00
            0x0068d24b      .byte 0x00
            0x0068d24c      .byte 0x00
            0x0068d24d      .byte 0x00
            0x0068d24e      .byte 0x00
            0x0068d24f      .byte 0x00
            0x0068d250      .byte 0x00
            0x0068d251      .byte 0x00
            0x0068d252      .byte 0x00
            0x0068d253      .byte 0x00
            0x0068d254      .byte 0x00
            0x0068d255      .byte 0x00
            0x0068d256      .byte 0x00
            0x0068d257      .byte 0x00
            0x0068d258      .byte 0x00
            0x0068d259      .byte 0x00
            0x0068d25a      .byte 0x00
            0x0068d25b      .byte 0x00
            0x0068d25c      .byte 0x00
            0x0068d25d      .byte 0x00
            0x0068d25e      .byte 0x00
            0x0068d25f      .byte 0x00
            0x0068d260      .byte 0x00
            0x0068d261      .byte 0x00
            0x0068d262      .byte 0x01
            0x0068d263      .byte 0x00
            0x0068d264      .byte 0x00
            0x0068d265      .byte 0x40
            0x0068d266      .byte 0x00
            0x0068d267      .byte 0x00
            0x0068d268      .byte 0x00
            0x0068d269      .byte 0x00
            0x0068d26a      .byte 0x00
            0x0068d26b      .byte 0x00
            0x0068d26c      .byte 0x00
            0x0068d26d      .byte 0x00
            0x0068d26e      .byte 0x00
            0x0068d26f      .byte 0x00
            0x0068d270      .byte 0x00
            0x0068d271      .byte 0x00
            0x0068d272      .byte 0x00
            0x0068d273      .byte 0x00
            0x0068d274      .byte 0x00
            0x0068d275      .byte 0x00
            0x0068d276      .byte 0x00
            0x0068d277      .byte 0x00
            0x0068d278      .byte 0x00
            0x0068d279      .byte 0x00
            0x0068d27a      .byte 0x00
            0x0068d27b      .byte 0x00
            0x0068d27c      .byte 0x00
            0x0068d27d      .byte 0x00
            0x0068d27e      .byte 0x00
            0x0068d27f      .byte 0x00
            0x0068d280      .byte 0x00
            0x0068d281      .byte 0x00
            0x0068d282      .byte 0x0e
            0x0068d283     .string "Remove floppy." ; len=14
            0x0068d291      .byte 0x0e
            0x0068d292     .string "Remove floppy." ; len=14
            0x0068d2a0      .byte 0x03
            0x0068d2a1      .byte 0x00
            0x0068d2a2      .byte 0x00
            0x0068d2a3      .byte 0x00
            0x0068d2a4      .byte 0x00
            0x0068d2a5      .byte 0x00
            0x0068d2a6      .byte 0x00
            0x0068d2a7      .byte 0x00
            0x0068d2a8      .byte 0x00
            0x0068d2a9      .byte 0x00
            0x0068d2aa      .byte 0x00
            0x0068d2ab      .byte 0x00
            0x0068d2ac      .byte 0x00
            0x0068d2ad      .byte 0x00
            0x0068d2ae      .byte 0x00
            0x0068d2af      .byte 0x00
            0x0068d2b0      .byte 0x00
            0x0068d2b1      .byte 0x00
            0x0068d2b2      .byte 0x00
            0x0068d2b3      .byte 0x00
            0x0068d2b4      .byte 0x00
            0x0068d2b5      .byte 0x00
            0x0068d2b6      .byte 0x00
            0x0068d2b7      .byte 0x00
            0x0068d2b8      .byte 0x00
            0x0068d2b9      .byte 0x00
            0x0068d2ba      .byte 0x00
            0x0068d2bb      .byte 0x00
            0x0068d2bc      .byte 0x00
            0x0068d2bd      .byte 0x00
            0x0068d2be      .byte 0x00
            0x0068d2bf      .byte 0x00
            0x0068d2c0      .byte 0x1e
            0x0068d2c1     .string "Cant delete two things at once" ; len=30
            0x0068d2df      .byte 0x11
            0x0068d2e0     .string "no file to delete" ; len=17
            0x0068d2f1      .byte 0x0f
            0x0068d2f2     .string "no file to copy" ; len=15
            0x0068d301      .byte 0x15
            0x0068d302     .string "no entry to copy into" ; len=21
            0x0068d317      .byte 0x06
            0x0068d318     .string "magopt" ; len=6
            0x0068d31e      .byte 0x03
            0x0068d31f      .byte 0x6e
            0x0068d320      .byte 0x65
            0x0068d321      .byte 0x74
            0x0068d322      .byte 0x06
            0x0068d323     .string "magopt" ; len=6
            0x0068d329      .byte 0x03
            0x0068d32a      .byte 0x6e
            0x0068d32b      .byte 0x65
            0x0068d32c      .byte 0x74
            0x0068d32d      .byte 0x06
            0x0068d32e     .string "floppy" ; len=6
            0x0068d334      .byte 0x0a
            0x0068d335     .string "cant copy " ; len=10
            0x0068d33f      .byte 0x04
            0x0068d340      .byte 0x20
            0x0068d341      .byte 0x74
            0x0068d342      .byte 0x6f
            0x0068d343      .byte 0x20
            0x0068d344      .byte 0x14
            0x0068d345     .string "cant copy floppy to " ; len=20
            0x0068d359      .byte 0x06
            0x0068d35a     .string "floppy" ; len=6
            0x0068d360      .byte 0x0a
            0x0068d361     .string "cant copy " ; len=10
            0x0068d36b      .byte 0x0a
            0x0068d36c     .string " to floppy" ; len=10
            0x0068d376      .byte 0x1a
            0x0068d377     .string "cant copy floppy to floppy" ; len=26
            0x0068d391      .byte 0x1d
            0x0068d392     .string "Cant check two things at once" ; len=29
            0x0068d3af      .byte 0x06
            0x0068d3b0     .string "magopt" ; len=6
            0x0068d3b6      .byte 0x06
            0x0068d3b7     .string "magopt" ; len=6
            0x0068d3bd      .byte 0x13
            0x0068d3be     .string "no file to checksum" ; len=19
            0x0068d3d1      .byte 0x17
            0x0068d3d2     .string "no source file to check" ; len=23
            0x0068d3e9      .byte 0x1a
            0x0068d3ea     .string "no dest file to check with" ; len=26
            0x0068d404      .byte 0x06
            0x0068d405     .string "floppy" ; len=6
            0x0068d40b      .byte 0x27
            0x0068d40c     .string "Must check from system/shared to floppy" ; len=39
            0x0068d433      .byte 0x11
            0x0068d434     .string "no file to reboot" ; len=17
            0x0068d445      .byte 0x17
            0x0068d446     .string "no entry to unboot into" ; len=23
            0x0068d45d      .byte 0x18
            0x0068d45e     .string "Failed to get boot list " ; len=24
            0x0068d476      .byte 0x15
            0x0068d477     .string "Failed to get header " ; len=21
            0x0068d48c      .byte 0x14
            0x0068d48d     .string "No source volume on " ; len=20
            0x0068d4a1      .byte 0x12
            0x0068d4a2     .string "No dest volume on " ; len=18
            0x0068d4b4      .byte 0x18
            0x0068d4b5     .string "failed to get boot file " ; len=24
            0x0068d4cd      .byte 0x08
            0x0068d4ce     .string " on vol " ; len=8
            0x0068d4d6      .byte 0x18
            0x0068d4d7     .string "failed to get boot file " ; len=24
            0x0068d4ef      .byte 0x08
            0x0068d4f0     .string " on vol " ; len=8
            0x0068d4f8      .byte 0x06
            0x0068d4f9     .string "magopt" ; len=6
            0x0068d4ff      .byte 0x03
            0x0068d500      .byte 0x6e
            0x0068d501      .byte 0x65
            0x0068d502      .byte 0x74
            0x0068d503      .byte 0x06
            0x0068d504     .string "magopt" ; len=6
            0x0068d50a      .byte 0x03
            0x0068d50b      .byte 0x6e
            0x0068d50c      .byte 0x65
            0x0068d50d      .byte 0x74
            0x0068d50e      .byte 0x06
            0x0068d50f     .string "floppy" ; len=6
            0x0068d515      .byte 0x0a
            0x0068d516     .string "cant copy " ; len=10
            0x0068d520      .byte 0x04
            0x0068d521      .byte 0x20
            0x0068d522      .byte 0x74
            0x0068d523      .byte 0x6f
            0x0068d524      .byte 0x20
            0x0068d525      .byte 0x14
            0x0068d526     .string "cant copy floppy to " ; len=20
            0x0068d53a      .byte 0x06
            0x0068d53b     .string "floppy" ; len=6
            0x0068d541      .byte 0x0a
            0x0068d542     .string "cant copy " ; len=10
            0x0068d54c      .byte 0x0a
            0x0068d54d     .string " to floppy" ; len=10
            0x0068d557      .byte 0x1a
            0x0068d558     .string "cant copy floppy to floppy" ; len=26
            0x0068d572      .byte 0x00
            0x0068d573      .byte 0x00
            0x0068d574      .byte 0x00
            0x0068d575      .byte 0x00
            0x0068d576      .byte 0x00
            0x0068d577      .byte 0x00
            0x0068d578      .byte 0xff
            0x0068d579      .byte 0x03
            0x0068d57a      .byte 0x06
            0x0068d57b      .byte 0x00
            0x0068d57c      .byte 0x00
            0x0068d57d      .byte 0x00
            0x0068d57e      .byte 0x06
            0x0068d57f      .byte 0x00
            0x0068d580      .byte 0x00
            0x0068d581      .byte 0x00
            0x0068d582      .byte 0x00
            0x0068d583      .byte 0x00
            0x0068d584      .byte 0x00
            0x0068d585      .byte 0x00
            0x0068d586      .byte 0x00
            0x0068d587      .byte 0x00
            0x0068d588      .byte 0x00
            0x0068d589      .byte 0x00
            0x0068d58a      .byte 0x00
            0x0068d58b      .byte 0x00
            0x0068d58c      .byte 0x00
            0x0068d58d      .byte 0x00
            0x0068d58e      .byte 0x00
            0x0068d58f      .byte 0x00
            0x0068d590      .byte 0x00
            0x0068d591      .byte 0x00
            0x0068d592      .byte 0x19
            0x0068d593     .string "Expecting address [A|B] n" ; len=25
            0x0068d5ac      .byte 0x00
            0x0068d5ad      .byte 0x00
            0x0068d5ae      .byte 0x00
            0x0068d5af      .byte 0x00
            0x0068d5b0      .byte 0x00
            0x0068d5b1      .byte 0x00
            0x0068d5b2      .byte 0x00
            0x0068d5b3      .byte 0x00
            0x0068d5b4      .byte 0x02
            0x0068d5b5      .byte 0x00
            0x0068d5b6      .byte 0x00
            0x0068d5b7      .byte 0x00
            0x0068d5b8      .byte 0x02
            0x0068d5b9      .byte 0x00
            0x0068d5ba      .byte 0x00
            0x0068d5bb      .byte 0x00
            0x0068d5bc      .byte 0x00
            0x0068d5bd      .byte 0x00
            0x0068d5be      .byte 0x00
            0x0068d5bf      .byte 0x00
            0x0068d5c0      .byte 0x00
            0x0068d5c1      .byte 0x00
            0x0068d5c2      .byte 0x00
            0x0068d5c3      .byte 0x00
            0x0068d5c4      .byte 0x00
            0x0068d5c5      .byte 0x00
            0x0068d5c6      .byte 0x00
            0x0068d5c7      .byte 0x00
            0x0068d5c8      .byte 0x00
            0x0068d5c9      .byte 0x00
            0x0068d5ca      .byte 0x00
            0x0068d5cb      .byte 0x00
            0x0068d5cc      .byte 0x00
            0x0068d5cd      .byte 0x00
            0x0068d5ce      .byte 0x00
            0x0068d5cf      .byte 0x00
            0x0068d5d0      .byte 0x00
            0x0068d5d1      .byte 0x00
            0x0068d5d2      .byte 0x00
            0x0068d5d3      .byte 0x00
            0x0068d5d4      .byte 0x04
            0x0068d5d5      .byte 0x00
            0x0068d5d6      .byte 0x00
            0x0068d5d7      .byte 0x00
            0x0068d5d8      .byte 0x04
            0x0068d5d9      .byte 0x00
            0x0068d5da      .byte 0x00
            0x0068d5db      .byte 0x00
            0x0068d5dc      .byte 0x00
            0x0068d5dd      .byte 0x00
            0x0068d5de      .byte 0x00
            0x0068d5df      .byte 0x00
            0x0068d5e0      .byte 0x00
            0x0068d5e1      .byte 0x00
            0x0068d5e2      .byte 0x00
            0x0068d5e3      .byte 0x00
            0x0068d5e4      .byte 0x00
            0x0068d5e5      .byte 0x00
            0x0068d5e6      .byte 0x00
            0x0068d5e7      .byte 0x00
            0x0068d5e8      .byte 0x00
            0x0068d5e9      .byte 0x00
            0x0068d5ea      .byte 0x00
            0x0068d5eb      .byte 0x00
            0x0068d5ec      .byte 0x00
            0x0068d5ed      .byte 0x00
            0x0068d5ee      .byte 0x00
            0x0068d5ef      .byte 0x00
            0x0068d5f0      .byte 0x00
            0x0068d5f1      .byte 0x00
            0x0068d5f2      .byte 0xff
            0x0068d5f3      .byte 0x03
            0x0068d5f4      .byte 0x00
            0x0068d5f5      .byte 0x00
            0x0068d5f6      .byte 0x00
            0x0068d5f7      .byte 0x00
            0x0068d5f8      .byte 0x00
            0x0068d5f9      .byte 0x00
            0x0068d5fa      .byte 0x00
            0x0068d5fb      .byte 0x00
            0x0068d5fc      .byte 0x00
            0x0068d5fd      .byte 0x00
            0x0068d5fe      .byte 0x00
            0x0068d5ff      .byte 0x00
            0x0068d600      .byte 0x00
            0x0068d601      .byte 0x00
            0x0068d602      .byte 0x00
            0x0068d603      .byte 0x00
            0x0068d604      .byte 0x00
            0x0068d605      .byte 0x00
            0x0068d606      .byte 0x00
            0x0068d607      .byte 0x00
            0x0068d608      .byte 0x00
            0x0068d609      .byte 0x00
            0x0068d60a      .byte 0x00
            0x0068d60b      .byte 0x00
            0x0068d60c      .byte 0x00
            0x0068d60d      .byte 0x00
            0x0068d60e      .byte 0x00
            0x0068d60f      .byte 0x00
            0x0068d610      .byte 0x00
            0x0068d611      .byte 0x00
            0x0068d612      .byte 0xff
            0x0068d613      .byte 0x03
            0x0068d614      .byte 0x00
            0x0068d615      .byte 0x00
            0x0068d616      .byte 0x00
            0x0068d617      .byte 0x00
            0x0068d618      .byte 0x00
            0x0068d619      .byte 0x00
            0x0068d61a      .byte 0x00
            0x0068d61b      .byte 0x00
            0x0068d61c      .byte 0x00
            0x0068d61d      .byte 0x00
            0x0068d61e      .byte 0x00
            0x0068d61f      .byte 0x00
            0x0068d620      .byte 0x00
            0x0068d621      .byte 0x00
            0x0068d622      .byte 0x00
            0x0068d623      .byte 0x00
            0x0068d624      .byte 0x00
            0x0068d625      .byte 0x00
            0x0068d626      .byte 0x00
            0x0068d627      .byte 0x00
            0x0068d628      .byte 0x00
            0x0068d629      .byte 0x00
            0x0068d62a      .byte 0x00
            0x0068d62b      .byte 0x00
            0x0068d62c      .byte 0x16
            0x0068d62d     .string "Expecting format aa-nn" ; len=22
            0x0068d643      .byte 0x00
            0x0068d644      .byte 0x00
            0x0068d645      .byte 0x00
            0x0068d646      .byte 0x00
            0x0068d647      .byte 0x00
            0x0068d648      .byte 0x00
            0x0068d649      .byte 0x00
            0x0068d64a      .byte 0xff
            0x0068d64b      .byte 0x03
            0x0068d64c      .byte 0x00
            0x0068d64d      .byte 0x00
            0x0068d64e      .byte 0x00
            0x0068d64f      .byte 0x00
            0x0068d650      .byte 0x00
            0x0068d651      .byte 0x00
            0x0068d652      .byte 0x00
            0x0068d653      .byte 0x00
            0x0068d654      .byte 0x00
            0x0068d655      .byte 0x00
            0x0068d656      .byte 0x00
            0x0068d657      .byte 0x00
            0x0068d658      .byte 0x00
            0x0068d659      .byte 0x00
            0x0068d65a      .byte 0x00
            0x0068d65b      .byte 0x00
            0x0068d65c      .byte 0x00
            0x0068d65d      .byte 0x00
            0x0068d65e      .byte 0x00
            0x0068d65f      .byte 0x00
            0x0068d660      .byte 0x00
            0x0068d661      .byte 0x00
            0x0068d662      .byte 0x00
            0x0068d663      .byte 0x00
            0x0068d664      .byte 0x1c
            0x0068d665     .string "Area must be in range 1 - 31" ; len=28
            0x0068d681      .byte 0x26
            0x0068d682     .string "Station number must be in range 1 - 31" ; len=38
            0x0068d6a8      .byte 0x1b
            0x0068d6a9     .string "Expecting format aa-nn/addr" ; len=27
            0x0068d6c4      .byte 0x26
            0x0068d6c5     .string "LOCal|SHAred|MAGopt|MO|NET|FLOppy|FLPy" ; len=38
            0x0068d6eb      .byte 0x0f
            0x0068d6ec     .string "No floppy dive." ; len=15
            0x0068d6fb      .byte 0x2e
            0x0068d6fc     .string "LOCal|SHAred|MAGopt [A|B] n|MO|NET|FLOppy|FLPy" ; len=46
            0x0068d72a      .byte 0x2a
            0x0068d72b     .string "INSTAll <disk> File <n> To <disk> file <n>" ; len=42
            0x0068d755      .byte 0x04
            0x0068d756      .byte 0x46
            0x0068d757      .byte 0x69
            0x0068d758      .byte 0x6c
            0x0068d759      .byte 0x65
            0x0068d75a      .byte 0x0f
            0x0068d75b     .string "Expect File <n>" ; len=15
            0x0068d76a      .byte 0x02
            0x0068d76b      .byte 0x54
            0x0068d76c      .byte 0x6f
            0x0068d76d      .byte 0x0b
            0x0068d76e     .string "Expect \"To\"" ; len=11
            0x0068d779      .byte 0x04
            0x0068d77a      .byte 0x46
            0x0068d77b      .byte 0x69
            0x0068d77c      .byte 0x6c
            0x0068d77d      .byte 0x65
            0x0068d77e      .byte 0x0f
            0x0068d77f     .string "Expect File <n>" ; len=15
            0x0068d78e      .byte 0x0a
            0x0068d78f     .string "add floppy" ; len=10
            0x0068d799      .byte 0x0e
            0x0068d79a     .string "Added floppy. " ; len=14
            0x0068d7a8      .byte 0x14
            0x0068d7a9     .string "Failed to add floppy" ; len=20
            0x0068d7bd      .byte 0x08
            0x0068d7be     .string "install " ; len=8
            0x0068d7c6      .byte 0x05
            0x0068d7c7     .string "local" ; len=5
            0x0068d7cc      .byte 0x06
            0x0068d7cd     .string "shared" ; len=6
            0x0068d7d3      .byte 0x06
            0x0068d7d4     .string "magopt" ; len=6
            0x0068d7da      .byte 0x03
            0x0068d7db      .byte 0x6e
            0x0068d7dc      .byte 0x65
            0x0068d7dd      .byte 0x74
            0x0068d7de      .byte 0x0f
            0x0068d7df     .string "floppy simulate" ; len=15
            0x0068d7ee      .byte 0x06
            0x0068d7ef     .string "floppy" ; len=6
            0x0068d7f5      .byte 0x06
            0x0068d7f6     .string " addr " ; len=6
            0x0068d7fc      .byte 0x06
            0x0068d7fd     .string " file " ; len=6
            0x0068d803      .byte 0x04
            0x0068d804      .byte 0x20
            0x0068d805      .byte 0x74
            0x0068d806      .byte 0x6f
            0x0068d807      .byte 0x20
            0x0068d808      .byte 0x05
            0x0068d809     .string "local" ; len=5
            0x0068d80e      .byte 0x06
            0x0068d80f     .string "shared" ; len=6
            0x0068d815      .byte 0x06
            0x0068d816     .string "magopt" ; len=6
            0x0068d81c      .byte 0x03
            0x0068d81d      .byte 0x6e
            0x0068d81e      .byte 0x65
            0x0068d81f      .byte 0x74
            0x0068d820      .byte 0x0f
            0x0068d821     .string "floppy simulate" ; len=15
            0x0068d830      .byte 0x06
            0x0068d831     .string "floppy" ; len=6
            0x0068d837      .byte 0x06
            0x0068d838     .string " addr " ; len=6
            0x0068d83e      .byte 0x06
            0x0068d83f     .string " file " ; len=6
            0x0068d845      .byte 0x0e
            0x0068d846     .string "Remove floppy." ; len=14
            0x0068d854      .byte 0x04
            0x0068d855      .byte 0x42
            0x0068d856      .byte 0x4f
            0x0068d857      .byte 0x4f
            0x0068d858      .byte 0x74
            0x0068d859      .byte 0x07
            0x0068d85a      .byte 0x49
            0x0068d85b      .byte 0x4e
            0x0068d85c      .byte 0x53
            0x0068d85d      .byte 0x54
            0x0068d85e      .byte 0x61
            0x0068d85f      .byte 0x6c
            0x0068d860      .byte 0x6c
            0x0068d861      .byte 0x69
            ; CALL XREF from BOOTCOM.read_boot_list_ @ 0x68da64
            ; CALL XREF from BOOTCOM.write_boot_list @ 0x68dd68
 430: BOOTCOM.sort_out_dir ();
           ; var int32_t var_8h @ a7+0x8
           0x0068d862      4e56fdd4       link.w a6, 0xfdd4
           0x0068d866      bfd5           cmpa.l (a5), a7
       < 0x0068d868      6206           bhi.b 0x68d870
          0x0068d86a      44fc0002       move.w 0x2, ccr
          0x0068d86e      4e76           trapv
       > 0x0068d870      defc0138       adda.w 0x138, a7
           0x0068d874      48e7f1f8       movem.l d0-d3/d7/a0-a4, -(a7)
           0x0068d878      45f9004047ea   lea.l p_wts_o, a2
           0x0068d87e      47eeff0c       lea.l -0xf4(a6), a3
           0x0068d882      49f900404946   lea.l p_wtln_o, a4
           0x0068d888      740c           moveq 0xc, d2
           0x0068d88a      7601           moveq 0x1, d3
           0x0068d88c      422e0008       clr.b 0x8(a6)
           0x0068d890      554f           subq.w 0x2, a7
           0x0068d892      4853           pea.l (a3)
           0x0068d894      4eb900404434   jsr fcn.00404434
           0x0068d89a      584f           addq.w 0x4, a7
           0x0068d89c      4a1f           tst.b (a7)+
       < 0x0068d89e      67000168       beq.w 0x68da08
          0x0068d8a2      594f           subq.w 0x4, a7
          0x0068d8a4      2f3c00010000   move.l 0x10000, -(a7)
          0x0068d8aa      4eb9005fb938   jsr F6_VOLUME.f_vol_on
          0x0068d8b0      584f           addq.w 0x4, a7
          0x0068d8b2      2e1f           move.l (a7)+, d7
      < 0x0068d8b4      661a           bne.b 0x68d8d0
         0x0068d8b6      487ae48f       pea.l 0x68bd47(pc)
         0x0068d8ba      4878000e       pea.l 0xe
         0x0068d8be      2f17           move.l (a7), -(a7)
         0x0068d8c0      4e92           jsr (a2)                    ; fcn.00000009+0x2
         0x0068d8c2      dec2           adda.w d2, a7
         0x0068d8c4      4e94           jsr (a4)                    ; fcn.0000000d
         0x0068d8c6      4853           pea.l (a3)
         0x0068d8c8      4eb900404468   jsr fcn.00404468
         0x0068d8ce      584f           addq.w 0x4, a7
      > 0x0068d8d0      554f           subq.w 0x2, a7
          0x0068d8d2      2f07           move.l d7, -(a7)
          0x0068d8d4      486effb6       pea.l -0x4a(a6)
          0x0068d8d8      4eb900612f54   jsr F18_DIRECTORY.f_find_root
          0x0068d8de      504f           addq.w 0x8, a7
          0x0068d8e0      4a1f           tst.b (a7)+
      < 0x0068d8e2      6600010a       bne.w 0x68d9ee
         0x0068d8e6      9efc0100       suba.w 0x100, a7
         0x0068d8ea      4eb900408ec0   jsr p_err_string
         0x0068d8f0      487ae464       pea.l 0x68bd56(pc)
         0x0068d8f4      48780023       pea.l 0x23
         0x0068d8f8      2f17           move.l (a7), -(a7)
         0x0068d8fa      4e92           jsr (a2)                    ; fcn.00000009+0x2
         0x0068d8fc      dec2           adda.w d2, a7
         0x0068d8fe      486f0001       pea.l 0x1(a7)
         0x0068d902      42a7           clr.l -(a7)
         0x0068d904      1f6f00080003   move.b 0x8(a7), 0x3(a7)
         0x0068d90a      2f17           move.l (a7), -(a7)
         0x0068d90c      4e92           jsr (a2)                    ; fcn.00000009+0x2
         0x0068d90e      defc010c       adda.w 0x10c, a7
         0x0068d912      4e94           jsr (a4)                    ; fcn.0000000d
         0x0068d914      4eb900404188   jsr p_Unlink
         0x0068d91a      554f           subq.w 0x2, a7
         0x0068d91c      486effc0       pea.l -0x40(a6)
         0x0068d920      4eb900463184   jsr read_id
         0x0068d926      584f           addq.w 0x4, a7
         0x0068d928      4a1f           tst.b (a7)+
     < 0x0068d92a      661a           bne.b 0x68d946
        0x0068d92c      487ae44c       pea.l 0x68bd7a(pc)
        0x0068d930      48780011       pea.l 0x11
        0x0068d934      2f17           move.l (a7), -(a7)
        0x0068d936      4e92           jsr (a2)                    ; fcn.00000009+0x2
        0x0068d938      dec2           adda.w d2, a7
        0x0068d93a      4e94           jsr (a4)                    ; fcn.0000000d
        0x0068d93c      4853           pea.l (a3)
        0x0068d93e      4eb900404468   jsr fcn.00404468
        0x0068d944      584f           addq.w 0x4, a7
     > 0x0068d946      2f2effc4       move.l -0x3c(a6), -(a7)
         0x0068d94a      48780000       pea.l 0x0
         0x0068d94e      486eff56       pea.l -0xaa(a6)
         0x0068d952      3f3c002d       move.w 0x2d, -(a7)
         0x0068d956      4eb900406e56   jsr p_strI1
         0x0068d95c      defc000e       adda.w 0xe, a7
         0x0068d960      7006           moveq 0x6, d0
         0x0068d962      41eeff85       lea.l -0x7b(a6), a0
         0x0068d966      43fae424       lea.l 0x68bd8c(pc), a1
     > 0x0068d96a      10d9           move.b (a1)+, (a0)+
     < 0x0068d96c      51c8fffc       dbra d0, 0x68d96a
         0x0068d970      4240           clr.w d0
         0x0068d972      102eff56       move.b -0xaa(a6), d0
         0x0068d976      722d           moveq 0x2d, d1
         0x0068d978      5f41           subq.w 0x7, d1
         0x0068d97a      b041           cmp.w d1, d0
     < 0x0068d97c      6302           bls.b 0x68d980
        0x0068d97e      3001           move.w d1, d0
     > 0x0068d980      1d7c0007ff84   move.b 0x7, -0x7c(a6)
         0x0068d986      d12eff84       add.b d0, -0x7c(a6)
         0x0068d98a      5300           subq.b 0x1, d0
     < 0x0068d98c      650a           bcs.b 0x68d998
        0x0068d98e      43eeff57       lea.l -0xa9(a6), a1
    > 0x0068d992      10d9           move.b (a1)+, (a0)+
    < 0x0068d994      51c8fffc       dbra d0, 0x68d992
     > 0x0068d998      554f           subq.w 0x2, a7
         0x0068d99a      2f07           move.l d7, -(a7)
         0x0068d99c      486eff84       pea.l -0x7c(a6)
         0x0068d9a0      486effb6       pea.l -0x4a(a6)
         0x0068d9a4      4eb900612ce8   jsr F18_DIRECTORY.f_root_create
         0x0068d9aa      dec2           adda.w d2, a7
         0x0068d9ac      4a1f           tst.b (a7)+
     < 0x0068d9ae      663e           bne.b 0x68d9ee
        0x0068d9b0      9efc0100       suba.w 0x100, a7
        0x0068d9b4      4eb900408ec0   jsr p_err_string
        0x0068d9ba      487ae3d8       pea.l 0x68bd94(pc)
        0x0068d9be      48780025       pea.l 0x25
        0x0068d9c2      2f17           move.l (a7), -(a7)
        0x0068d9c4      4e92           jsr (a2)                    ; fcn.00000009+0x2
        0x0068d9c6      dec2           adda.w d2, a7
        0x0068d9c8      486f0001       pea.l 0x1(a7)
        0x0068d9cc      42a7           clr.l -(a7)
        0x0068d9ce      1f6f00080003   move.b 0x8(a7), 0x3(a7)
        0x0068d9d4      2f17           move.l (a7), -(a7)
        0x0068d9d6      4e92           jsr (a2)                    ; fcn.00000009+0x2
        0x0068d9d8      defc010c       adda.w 0x10c, a7
        0x0068d9dc      4e94           jsr (a4)                    ; fcn.0000000d
        0x0068d9de      4eb900404188   jsr p_Unlink
        0x0068d9e4      4853           pea.l (a3)
        0x0068d9e6      4eb900404468   jsr fcn.00404468
        0x0068d9ec      584f           addq.w 0x4, a7
     > 0x0068d9ee      1f03           move.b d3, -(a7)
          0x0068d9f0      2f2effbc       move.l -0x44(a6), -(a7)
          0x0068d9f4      2f2effb8       move.l -0x48(a6), -(a7)
          0x0068d9f8      3f2effb6       move.w -0x4a(a6), -(a7)
          0x0068d9fc      4eb9006125dc   jsr F18_DIRECTORY.f_set_default
          0x0068da02      dec2           adda.w d2, a7
          0x0068da04      1d430008       move.b d3, 0x8(a6)
       > 0x0068da08      4cdf1f8f       movem.l (a7)+, d0-d3/d7/a0-a4
           0x0068da0c      4e5e           unlk a6
           0x0068da0e      4e75           rts
            ; CALL XREF from BOOTCOM.check_boot_list @ 0x68e744
            ; CALL XREF from fcn.0068e7fa @ 0x68e880
            ; CALL XREF from BOOTCOM.list_boot_list @ 0x68e94a
 796: BOOTCOM.read_boot_list_ ();
           ; var int32_t var_8h @ a7+0x8
           0x0068da10      4e56fc70       link.w a6, 0xfc70
           0x0068da14      bfd5           cmpa.l (a5), a7
       < 0x0068da16      6206           bhi.b 0x68da1e
          0x0068da18      44fc0002       move.w 0x2, ccr
          0x0068da1c      4e76           trapv
       > 0x0068da1e      defc0134       adda.w 0x134, a7
           0x0068da22      48e7e1f8       movem.l d0-d2/d7/a0-a4, -(a7)
           0x0068da26      47eefda4       lea.l -0x25c(a6), a3
           0x0068da2a      7001           moveq 0x1, d0
           0x0068da2c      720c           moveq 0xc, d1
           0x0068da2e      7400           moveq 0x0, d2
           0x0068da30      4227           clr.b -(a7)
           0x0068da32      206e0008       movea.l 0x8(a6), a0
           0x0068da36      2050           movea.l (a0), a0
           0x0068da38      b0c0           cmpa.w d0, a0
       < 0x0068da3a      6602           bne.b 0x68da3e
          0x0068da3c      5217           addq.b 0x1, (a7)
       > 0x0068da3e      4eb90040452a   jsr p_Assert
           0x0068da44      544f           addq.w 0x2, a7
           0x0068da46      7e00           moveq 0x0, d7
           0x0068da48      2d40fffc       move.l d0, -0x4(a6)
           0x0068da4c      3840           movea.w d0, a4
           0x0068da4e      554f           subq.w 0x2, a7
           0x0068da50      486efdac       pea.l -0x254(a6)
           0x0068da54      4eb900404434   jsr fcn.00404434
           0x0068da5a      584f           addq.w 0x4, a7
           0x0068da5c      4a1f           tst.b (a7)+
       < 0x0068da5e      6700028c       beq.w 0x68dcec
          0x0068da62      554f           subq.w 0x2, a7
          0x0068da64      4ebafdfc       jsr BOOTCOM.sort_out_dir(pc)
          0x0068da68      4a1f           tst.b (a7)+
      < 0x0068da6a      6624           bne.b 0x68da90
         0x0068da6c      487ae34c       pea.l 0x68bdba(pc)
         0x0068da70      48780028       pea.l 0x28
         0x0068da74      2f17           move.l (a7), -(a7)
         0x0068da76      4eb9004047ea   jsr p_wts_o
         0x0068da7c      dec1           adda.w d1, a7
         0x0068da7e      4eb900404946   jsr p_wtln_o
         0x0068da84      486efdac       pea.l -0x254(a6)
         0x0068da88      4eb900404468   jsr fcn.00404468
         0x0068da8e      584f           addq.w 0x4, a7
      > 0x0068da90      4853           pea.l (a3)
          0x0068da92      4878ffff       pea.l 0xffff
          0x0068da96      487ae34b       pea.l 0x68bde3(pc)
          0x0068da9a      48780009       pea.l 0x9
          0x0068da9e      487ae34d       pea.l 0x68bded(pc)
          0x0068daa2      48780000       pea.l 0x0
          0x0068daa6      486efda8       pea.l -0x258(a6)
          0x0068daaa      4eb9006147aa   jsr F20_PASCALIO.p_reset
          0x0068dab0      defc001c       adda.w 0x1c, a7
          0x0068dab4      4aaefda8       tst.l -0x258(a6)
      < 0x0068dab8      674c           beq.b 0x68db06
         0x0068daba      9efc0100       suba.w 0x100, a7
         0x0068dabe      4eb900408ec0   jsr p_err_string
         0x0068dac4      487ae328       pea.l 0x68bdee(pc)
         0x0068dac8      48780017       pea.l 0x17
         0x0068dacc      2f17           move.l (a7), -(a7)
         0x0068dace      4eb9004047ea   jsr p_wts_o
         0x0068dad4      dec1           adda.w d1, a7
         0x0068dad6      486f0001       pea.l 0x1(a7)
         0x0068dada      42a7           clr.l -(a7)
         0x0068dadc      1f6f00080003   move.b 0x8(a7), 0x3(a7)
         0x0068dae2      2f17           move.l (a7), -(a7)
         0x0068dae4      4eb9004047ea   jsr p_wts_o
         0x0068daea      defc010c       adda.w 0x10c, a7
         0x0068daee      4eb900404946   jsr p_wtln_o
         0x0068daf4      4eb900404188   jsr p_Unlink
         0x0068dafa      486efdac       pea.l -0x254(a6)
         0x0068dafe      4eb900404468   jsr fcn.00404468
         0x0068db04      584f           addq.w 0x4, a7
      > 0x0068db06      7e01           moveq 0x1, d7
          0x0068db08      206e0008       movea.l 0x8(a6), a0
      > 0x0068db0c      2253           movea.l (a3), a1
         0x0068db0e      b3e9fffc       cmpa.l -0x4(a1), a1
     < 0x0068db12      6702           beq.b 0x68db16
        0x0068db14      4e4d           trap 0xd
     > 0x0068db16      05290004       btst.l d2, 0x4(a1)
     < 0x0068db1a      660a           bne.b 0x68db26
        0x0068db1c      4853           pea.l (a3)
        0x0068db1e      4eb9004053b6   jsr p_define
        0x0068db24      584f           addq.w 0x4, a7
     > 0x0068db26      01290004       btst.l d0, 0x4(a1)
     < 0x0068db2a      660001c0       bne.w 0x68dcec
        0x0068db2e      486efffc       pea.l -0x4(a6)
        0x0068db32      48780112       pea.l 0x112
        0x0068db36      4eb900403a92   jsr p_New
        0x0068db3c      504f           addq.w 0x8, a7
        0x0068db3e      226efffc       movea.l -0x4(a6), a1
        0x0068db42      b2c0           cmpa.w d0, a1
    < 0x0068db44      6624           bne.b 0x68db6a
       0x0068db46      487ae2be       pea.l 0x68be06(pc)
       0x0068db4a      48780009       pea.l 0x9
       0x0068db4e      2f17           move.l (a7), -(a7)
       0x0068db50      4eb9004047ea   jsr p_wts_o
       0x0068db56      dec1           adda.w d1, a7
       0x0068db58      4eb900404946   jsr p_wtln_o
       0x0068db5e      486efdac       pea.l -0x254(a6)
       0x0068db62      4eb900404468   jsr fcn.00404468
       0x0068db68      584f           addq.w 0x4, a7
    > 0x0068db6a      b3e9fffc       cmpa.l -0x4(a1), a1
    < 0x0068db6e      6702           beq.b 0x68db72
       0x0068db70      4e4d           trap 0xd
    > 0x0068db72      2280           move.l d0, (a1)
        0x0068db74      4853           pea.l (a3)
        0x0068db76      486efdf6       pea.l -0x20a(a6)
        0x0068db7a      48780100       pea.l 0x100
        0x0068db7e      4eb900404dd6   jsr p_rdxs
        0x0068db84      504f           addq.w 0x8, a7
        0x0068db86      4eb900404e9e   jsr p_rdln
        0x0068db8c      584f           addq.w 0x4, a7
        0x0068db8e      486efdf6       pea.l -0x20a(a6)
        0x0068db92      48690004       pea.l 0x4(a1)
        0x0068db96      486efda8       pea.l -0x258(a6)
        0x0068db9a      4eb900406ffe   jsr p_vali
        0x0068dba0      dec1           adda.w d1, a7
        0x0068dba2      4aaefda8       tst.l -0x258(a6)
    < 0x0068dba6      6734           beq.b 0x68dbdc
       0x0068dba8      487ae266       pea.l 0x68be10(pc)
       0x0068dbac      4878001f       pea.l 0x1f
       0x0068dbb0      2f17           move.l (a7), -(a7)
       0x0068dbb2      4eb9004047ea   jsr p_wts_o
       0x0068dbb8      504f           addq.w 0x8, a7
       0x0068dbba      2eaefda8       move.l -0x258(a6), (a7)
       0x0068dbbe      48780000       pea.l 0x0
       0x0068dbc2      4eb9004070e4   jsr p_wti_o
       0x0068dbc8      504f           addq.w 0x8, a7
       0x0068dbca      4eb900404946   jsr p_wtln_o
       0x0068dbd0      486efdac       pea.l -0x254(a6)
       0x0068dbd4      4eb900404468   jsr fcn.00404468
       0x0068dbda      584f           addq.w 0x4, a7
    > 0x0068dbdc      2453           movea.l (a3), a2
        0x0068dbde      b5eafffc       cmpa.l -0x4(a2), a2
    < 0x0068dbe2      6702           beq.b 0x68dbe6
       0x0068dbe4      4e4d           trap 0xd
    > 0x0068dbe6      052a0004       btst.l d2, 0x4(a2)
    < 0x0068dbea      660a           bne.b 0x68dbf6
       0x0068dbec      4853           pea.l (a3)
       0x0068dbee      4eb9004053b6   jsr p_define
       0x0068dbf4      584f           addq.w 0x4, a7
    > 0x0068dbf6      012a0004       btst.l d0, 0x4(a2)
    < 0x0068dbfa      6724           beq.b 0x68dc20
       0x0068dbfc      487ae232       pea.l 0x68be30(pc)
       0x0068dc00      48780016       pea.l 0x16
       0x0068dc04      2f17           move.l (a7), -(a7)
       0x0068dc06      4eb9004047ea   jsr p_wts_o
       0x0068dc0c      dec1           adda.w d1, a7
       0x0068dc0e      4eb900404946   jsr p_wtln_o
       0x0068dc14      486efdac       pea.l -0x254(a6)
       0x0068dc18      4eb900404468   jsr fcn.00404468
       0x0068dc1e      584f           addq.w 0x4, a7
    > 0x0068dc20      4853           pea.l (a3)
        0x0068dc22      48690008       pea.l 0x8(a1)
        0x0068dc26      48780100       pea.l 0x100
        0x0068dc2a      4eb900404dd6   jsr p_rdxs
        0x0068dc30      504f           addq.w 0x8, a7
        0x0068dc32      4eb900404e9e   jsr p_rdln
        0x0068dc38      584f           addq.w 0x4, a7
        0x0068dc3a      2453           movea.l (a3), a2
        0x0068dc3c      b5eafffc       cmpa.l -0x4(a2), a2
    < 0x0068dc40      6702           beq.b 0x68dc44
       0x0068dc42      4e4d           trap 0xd
    > 0x0068dc44      052a0004       btst.l d2, 0x4(a2)
    < 0x0068dc48      660a           bne.b 0x68dc54
       0x0068dc4a      4853           pea.l (a3)
       0x0068dc4c      4eb9004053b6   jsr p_define
       0x0068dc52      584f           addq.w 0x4, a7
    > 0x0068dc54      012a0004       btst.l d0, 0x4(a2)
    < 0x0068dc58      6724           beq.b 0x68dc7e
       0x0068dc5a      487ae1eb       pea.l 0x68be47(pc)
       0x0068dc5e      48780016       pea.l 0x16
       0x0068dc62      2f17           move.l (a7), -(a7)
       0x0068dc64      4eb9004047ea   jsr p_wts_o
       0x0068dc6a      dec1           adda.w d1, a7
       0x0068dc6c      4eb900404946   jsr p_wtln_o
       0x0068dc72      486efdac       pea.l -0x254(a6)
       0x0068dc76      4eb900404468   jsr fcn.00404468
       0x0068dc7c      584f           addq.w 0x4, a7
    > 0x0068dc7e      4853           pea.l (a3)
        0x0068dc80      486efef6       pea.l -0x10a(a6)
        0x0068dc84      48780100       pea.l 0x100
        0x0068dc88      4eb900404dd6   jsr p_rdxs
        0x0068dc8e      504f           addq.w 0x8, a7
        0x0068dc90      4eb900404e9e   jsr p_rdln
        0x0068dc96      544f           addq.w 0x2, a7
        0x0068dc98      486efef6       pea.l -0x10a(a6)
        0x0068dc9c      48690108       pea.l 0x108(a1)
        0x0068dca0      4eb9005ef53e   jsr F2_UTILITY.f_string_fid
        0x0068dca6      504f           addq.w 0x8, a7
        0x0068dca8      4a1f           tst.b (a7)+
    < 0x0068dcaa      6624           bne.b 0x68dcd0
       0x0068dcac      487ae1b0       pea.l 0x68be5e(pc)
       0x0068dcb0      4878001a       pea.l 0x1a
       0x0068dcb4      2f17           move.l (a7), -(a7)
       0x0068dcb6      4eb9004047ea   jsr p_wts_o
       0x0068dcbc      dec1           adda.w d1, a7
       0x0068dcbe      4eb900404946   jsr p_wtln_o
       0x0068dcc4      486efdac       pea.l -0x254(a6)
       0x0068dcc8      4eb900404468   jsr fcn.00404468
       0x0068dcce      584f           addq.w 0x4, a7
    > 0x0068dcd0      b8c0           cmpa.w d0, a4
    < 0x0068dcd2      670a           beq.b 0x68dcde
       0x0068dcd4      b9ecfffc       cmpa.l -0x4(a4), a4
   < 0x0068dcd8      6702           beq.b 0x68dcdc
      0x0068dcda      4e4d           trap 0xd
   > 0x0068dcdc      2889           move.l a1, (a4)
    > 0x0068dcde      2450           movea.l (a0), a2
        0x0068dce0      b4c0           cmpa.w d0, a2
    < 0x0068dce2      6602           bne.b 0x68dce6
       0x0068dce4      2089           move.l a1, (a0)
    > 0x0068dce6      2849           movea.l a1, a4
     < 0x0068dce8      6000fe22       bra.w 0x68db0c
     > 0x0068dcec      b9eefffc       cmpa.l -0x4(a6), a4
       < 0x0068dcf0      6710           beq.b 0x68dd02
          0x0068dcf2      486efffc       pea.l -0x4(a6)
          0x0068dcf6      48780112       pea.l 0x112
          0x0068dcfa      4eb900403b98   jsr p_Dispos
          0x0068dd00      504f           addq.w 0x8, a7
       > 0x0068dd02      4a07           tst.b d7
       < 0x0068dd04      670a           beq.b 0x68dd10
          0x0068dd06      4853           pea.l (a3)
          0x0068dd08      4eb90040524a   jsr p_close
          0x0068dd0e      584f           addq.w 0x4, a7
       > 0x0068dd10      486f0024       pea.l 0x24(a7)
           0x0068dd14      2f3c0000025c   move.l 0x25c, -(a7)
           0x0068dd1a      4eb9004053e8   jsr p_ClsRng
           0x0068dd20      defc0008       adda.w 0x8, a7
           0x0068dd24      4cdf1f87       movem.l (a7)+, d0-d2/d7/a0-a4
           0x0068dd28      4e5e           unlk a6
           0x0068dd2a      4e75           rts
            ; CALL XREF from BOOTCOM.check_boot_list @ 0x68e7e4
            ; CALL XREF from fcn.0068e7fa @ 0x68e912
 416: BOOTCOM.write_boot_list ();
           ; var int32_t var_8h @ a7+0x8
           ; var int32_t var_ch @ a7+0xc
           0x0068dd2c      4e56fd74       link.w a6, 0xfd74
           0x0068dd30      bfd5           cmpa.l (a5), a7
       < 0x0068dd32      6206           bhi.b 0x68dd3a
          0x0068dd34      44fc0002       move.w 0x2, ccr
          0x0068dd38      4e76           trapv
       > 0x0068dd3a      defc0130       adda.w 0x130, a7
           0x0068dd3e      48e781f8       movem.l d0/d7/a0-a4, -(a7)
           0x0068dd42      43eefea4       lea.l -0x15c(a6), a1
           0x0068dd46      45eefeb0       lea.l -0x150(a6), a2
           0x0068dd4a      47f9004047ea   lea.l p_wts_o, a3
           0x0068dd50      700c           moveq 0xc, d0
           0x0068dd52      7e00           moveq 0x0, d7
           0x0068dd54      554f           subq.w 0x2, a7
           0x0068dd56      4852           pea.l (a2)
           0x0068dd58      4eb900404434   jsr fcn.00404434
           0x0068dd5e      584f           addq.w 0x4, a7
           0x0068dd60      4a1f           tst.b (a7)+
       < 0x0068dd62      6700013e       beq.w 0x68dea2
          0x0068dd66      554f           subq.w 0x2, a7
          0x0068dd68      4ebafaf8       jsr BOOTCOM.sort_out_dir(pc)
          0x0068dd6c      4a1f           tst.b (a7)+
      < 0x0068dd6e      661e           bne.b 0x68dd8e
         0x0068dd70      487ae118       pea.l 0x68be8a(pc)
         0x0068dd74      48780028       pea.l 0x28
         0x0068dd78      2f17           move.l (a7), -(a7)
         0x0068dd7a      4e93           jsr (a3)                    ; fcn.0000000c
         0x0068dd7c      dec0           adda.w d0, a7
         0x0068dd7e      4eb900404946   jsr p_wtln_o
         0x0068dd84      4852           pea.l (a2)
         0x0068dd86      4eb900404468   jsr fcn.00404468
         0x0068dd8c      584f           addq.w 0x4, a7
      > 0x0068dd8e      4851           pea.l (a1)
          0x0068dd90      4878ffff       pea.l 0xffff
          0x0068dd94      487ae11d       pea.l 0x68beb3(pc)
          0x0068dd98      48780009       pea.l 0x9
          0x0068dd9c      487ae11f       pea.l 0x68bebd(pc)
          0x0068dda0      48780000       pea.l 0x0
          0x0068dda4      486efeac       pea.l -0x154(a6)
          0x0068dda8      4eb90061496c   jsr F20_PASCALIO.p_rewrit
          0x0068ddae      defc001c       adda.w 0x1c, a7
          0x0068ddb2      4aaefeac       tst.l -0x154(a6)
      < 0x0068ddb6      6742           beq.b 0x68ddfa
         0x0068ddb8      9efc0100       suba.w 0x100, a7
         0x0068ddbc      4eb900408ec0   jsr p_err_string
         0x0068ddc2      487ae0fa       pea.l 0x68bebe(pc)
         0x0068ddc6      48780017       pea.l 0x17
         0x0068ddca      2f17           move.l (a7), -(a7)
         0x0068ddcc      4e93           jsr (a3)                    ; fcn.0000000c
         0x0068ddce      dec0           adda.w d0, a7
         0x0068ddd0      486f0001       pea.l 0x1(a7)
         0x0068ddd4      42a7           clr.l -(a7)
         0x0068ddd6      1f6f00080003   move.b 0x8(a7), 0x3(a7)
         0x0068dddc      2f17           move.l (a7), -(a7)
         0x0068ddde      4e93           jsr (a3)                    ; fcn.0000000c
         0x0068dde0      defc010c       adda.w 0x10c, a7
         0x0068dde4      4eb900404946   jsr p_wtln_o
         0x0068ddea      4eb900404188   jsr p_Unlink
         0x0068ddf0      4852           pea.l (a2)
         0x0068ddf2      4eb900404468   jsr fcn.00404468
         0x0068ddf8      584f           addq.w 0x4, a7
      > 0x0068ddfa      7e01           moveq 0x1, d7
          0x0068ddfc      206e0008       movea.l 0x8(a6), a0
          0x0068de00      2850           movea.l (a0), a4
      > 0x0068de02      b8fc0001       cmpa.w 0x1, a4
     < 0x0068de06      6700009a       beq.w 0x68dea2
        0x0068de0a      b9ecfffc       cmpa.l -0x4(a4), a4
    < 0x0068de0e      6702           beq.b 0x68de12
       0x0068de10      4e4d           trap 0xd
    > 0x0068de12      2f2c0004       move.l 0x4(a4), -(a7)
        0x0068de16      48780000       pea.l 0x0
        0x0068de1a      486efefa       pea.l -0x106(a6)
        0x0068de1e      3f3c00ff       move.w 0xff, -(a7)
        0x0068de22      4eb900406e56   jsr p_strI1
        0x0068de28      defc000e       adda.w 0xe, a7
        0x0068de2c      4851           pea.l (a1)
        0x0068de2e      486efefb       pea.l -0x105(a6)
        0x0068de32      42a7           clr.l -(a7)
        0x0068de34      1f6efefa0003   move.b -0x106(a6), 0x3(a7)
        0x0068de3a      2f17           move.l (a7), -(a7)
        0x0068de3c      4eb90040480e   jsr p_wts
        0x0068de42      dec0           adda.w d0, a7
        0x0068de44      4eb900404962   jsr p_wtln
        0x0068de4a      584f           addq.w 0x4, a7
        0x0068de4c      4851           pea.l (a1)
        0x0068de4e      486c0009       pea.l 0x9(a4)
        0x0068de52      42a7           clr.l -(a7)
        0x0068de54      1f6c00080003   move.b 0x8(a4), 0x3(a7)
        0x0068de5a      2f17           move.l (a7), -(a7)
        0x0068de5c      4eb90040480e   jsr p_wts
        0x0068de62      dec0           adda.w d0, a7
        0x0068de64      4eb900404962   jsr p_wtln
        0x0068de6a      9efc00fc       suba.w 0xfc, a7
        0x0068de6e      486c0108       pea.l 0x108(a4)
        0x0068de72      4eb9005ef416   jsr F2_UTILITY.f_fid_string
        0x0068de78      584f           addq.w 0x4, a7
        0x0068de7a      4851           pea.l (a1)
        0x0068de7c      486f0005       pea.l 0x5(a7)
        0x0068de80      42a7           clr.l -(a7)
        0x0068de82      1f6f000c0003   move.b 0xc(a7), 0x3(a7)
        0x0068de88      2f17           move.l (a7), -(a7)
        0x0068de8a      4eb90040480e   jsr p_wts
        0x0068de90      dec0           adda.w d0, a7
        0x0068de92      4eb900404962   jsr p_wtln
        0x0068de98      defc0104       adda.w 0x104, a7
        0x0068de9c      2854           movea.l (a4), a4
     < 0x0068de9e      6000ff62       bra.w 0x68de02
     > 0x0068dea2      4a07           tst.b d7
       < 0x0068dea4      670a           beq.b 0x68deb0
          0x0068dea6      4851           pea.l (a1)
          0x0068dea8      4eb90040524a   jsr p_close
          0x0068deae      584f           addq.w 0x4, a7
       > 0x0068deb0      486f001c       pea.l 0x1c(a7)
           0x0068deb4      2f3c0000015c   move.l 0x15c, -(a7)
           0x0068deba      4eb9004053e8   jsr p_ClsRng
           0x0068dec0      defc0008       adda.w 0x8, a7
           0x0068dec4      4cdf1f81       movem.l (a7)+, d0/d7/a0-a4
           0x0068dec8      4e5e           unlk a6
           0x0068deca      4e75           rts
            ; CALL XREF from BOOTCOM.check_boot_list @ 0x68e7ec
            ; CALL XREF from fcn.0068e7fa @ 0x68e91a
            ; CALL XREF from BOOTCOM.list_boot_list @ 0x68e9d4
 74: BOOTCOM.disp_boot_list ();
           0x0068decc      4e56ffe0       link.w a6, 0xffe0
           0x0068ded0      bfd5           cmpa.l (a5), a7
       < 0x0068ded2      6206           bhi.b 0x68deda
          0x0068ded4      44fc0002       move.w 0x2, ccr
          0x0068ded8      4e76           trapv
       > 0x0068deda      defc001c       adda.w 0x1c, a7
           0x0068dede      48e700c0       movem.l a0-a1, -(a7)
           0x0068dee2      206e0008       movea.l 0x8(a6), a0
       > 0x0068dee6      2250           movea.l (a0), a1
          0x0068dee8      b2fc0001       cmpa.w 0x1, a1
      < 0x0068deec      6720           beq.b 0x68df0e
         0x0068deee      2d49fffc       move.l a1, -0x4(a6)
         0x0068def2      b3e9fffc       cmpa.l -0x4(a1), a1
     < 0x0068def6      6702           beq.b 0x68defa
        0x0068def8      4e4d           trap 0xd
     > 0x0068defa      2091           move.l (a1), (a0)
         0x0068defc      486efffc       pea.l -0x4(a6)
         0x0068df00      48780112       pea.l 0x112
         0x0068df04      4eb900403b98   jsr p_Dispos
         0x0068df0a      504f           addq.w 0x8, a7
      < 0x0068df0c      60d8           bra.b 0x68dee6
      > 0x0068df0e      4cdf0300       movem.l (a7)+, a0-a1
           0x0068df12      4e5e           unlk a6
           0x0068df14      4e75           rts
            ; CALL XREF from BOOTCOM.check_boot_list @ 0x68e7a8
            ; CALL XREF from fcn.0068e7fa @ 0x68e8e6
 1270: BOOTCOM.check_list ();
           ; var int32_t var_8h @ a7+0x8
           0x0068df16      4e56fe56       link.w a6, 0xfe56
           0x0068df1a      bfd5           cmpa.l (a5), a7
       < 0x0068df1c      6206           bhi.b 0x68df24
          0x0068df1e      44fc0002       move.w 0x2, ccr
          0x0068df22      4e76           trapv
       > 0x0068df24      defc014e       adda.w 0x14e, a7
           0x0068df28      48e7fff8       movem.l d0-d7/a0-a4, -(a7)
           0x0068df2c      760c           moveq 0xc, d3
           0x0068df2e      383c0100       move.w 0x100, d4
           0x0068df32      3a3c010c       move.w 0x10c, d5
           0x0068df36      7c01           moveq 0x1, d6
           0x0068df38      2d7cffff0001.  move.l 0xffff0001, -0x5c(a6)
           0x0068df40      9ec4           suba.w d4, a7
           0x0068df42      486e0018       pea.l 0x18(a6)
           0x0068df46      4eb9005ef416   jsr F2_UTILITY.f_fid_string
           0x0068df4c      584f           addq.w 0x4, a7
           0x0068df4e      487adf86       pea.l 0x68bed6(pc)
           0x0068df52      48780006       pea.l 0x6
           0x0068df56      2f17           move.l (a7), -(a7)
           0x0068df58      4eb9004047ea   jsr p_wts_o
           0x0068df5e      dec3           adda.w d3, a7
           0x0068df60      486f0001       pea.l 0x1(a7)
           0x0068df64      42a7           clr.l -(a7)
           0x0068df66      1f6f00080003   move.b 0x8(a7), 0x3(a7)
           0x0068df6c      2f17           move.l (a7), -(a7)
           0x0068df6e      4eb9004047ea   jsr p_wts_o
           0x0068df74      dec5           adda.w d5, a7
           0x0068df76      487adf65       pea.l 0x68bedd(pc)
           0x0068df7a      48780009       pea.l 0x9
           0x0068df7e      2f17           move.l (a7), -(a7)
           0x0068df80      4eb9004047ea   jsr p_wts_o
           0x0068df86      defc000a       adda.w 0xa, a7
           0x0068df8a      1eae0010       move.b 0x10(a6), (a7)
           0x0068df8e      48780005       pea.l 0x5
           0x0068df92      4eb90040718c   jsr p_wtb_o
           0x0068df98      5c4f           addq.w 0x6, a7
           0x0068df9a      102e0012       move.b 0x12(a6), d0
           0x0068df9e      b006           cmp.b d6, d0
       < 0x0068dfa0      6622           bne.b 0x68dfc4
          0x0068dfa2      487adf43       pea.l 0x68bee7(pc)
          0x0068dfa6      4878000e       pea.l 0xe
          0x0068dfaa      2f17           move.l (a7), -(a7)
          0x0068dfac      4eb9004047ea   jsr p_wts_o
          0x0068dfb2      504f           addq.w 0x8, a7
          0x0068dfb4      2eae0014       move.l 0x14(a6), (a7)
          0x0068dfb8      48780000       pea.l 0x0
          0x0068dfbc      4eb9004070e4   jsr p_wti_o
          0x0068dfc2      504f           addq.w 0x8, a7
       > 0x0068dfc4      4eb900404946   jsr p_wtln_o
           0x0068dfca      554f           subq.w 0x2, a7
           0x0068dfcc      486effb4       pea.l -0x4c(a6)
           0x0068dfd0      4eb900404434   jsr fcn.00404434
           0x0068dfd6      584f           addq.w 0x4, a7
           0x0068dfd8      4a1f           tst.b (a7)+
       < 0x0068dfda      6700041c       beq.w 0x68e3f8
          0x0068dfde      554f           subq.w 0x2, a7
          0x0068dfe0      2f2e001e       move.l 0x1e(a6), -(a7)
          0x0068dfe4      2f2e001a       move.l 0x1a(a6), -(a7)
          0x0068dfe8      3f2e0018       move.w 0x18(a6), -(a7)
          0x0068dfec      4227           clr.b -(a7)
          0x0068dfee      486effa4       pea.l -0x5c(a6)
          0x0068dff2      4eb9006082de   jsr F10_FILELIST.f_get_header
          0x0068dff8      defc0010       adda.w 0x10, a7
          0x0068dffc      4a1f           tst.b (a7)+
      < 0x0068dffe      664e           bne.b 0x68e04e
         0x0068e000      9ec4           suba.w d4, a7
         0x0068e002      4eb900408ec0   jsr p_err_string
         0x0068e008      487adeec       pea.l 0x68bef6(pc)
         0x0068e00c      48780015       pea.l 0x15
         0x0068e010      2f17           move.l (a7), -(a7)
         0x0068e012      4eb9004047ea   jsr p_wts_o
         0x0068e018      dec3           adda.w d3, a7
         0x0068e01a      486f0001       pea.l 0x1(a7)
         0x0068e01e      42a7           clr.l -(a7)
         0x0068e020      1f6f00080003   move.b 0x8(a7), 0x3(a7)
         0x0068e026      2f17           move.l (a7), -(a7)
         0x0068e028      4eb9004047ea   jsr p_wts_o
         0x0068e02e      dec5           adda.w d5, a7
         0x0068e030      4eb900404946   jsr p_wtln_o
         0x0068e036      4eb900404188   jsr p_Unlink
         0x0068e03c      4a2e0010       tst.b 0x10(a6)
     < 0x0068e040      670c           beq.b 0x68e04e
        0x0068e042      486effb4       pea.l -0x4c(a6)
        0x0068e046      4eb900404468   jsr fcn.00404468
        0x0068e04c      584f           addq.w 0x4, a7
     > 0x0068e04e      486effac       pea.l -0x54(a6)
          0x0068e052      48780112       pea.l 0x112
          0x0068e056      4eb900403a92   jsr p_New
          0x0068e05c      504f           addq.w 0x8, a7
          0x0068e05e      206effac       movea.l -0x54(a6), a0
          0x0068e062      b0c6           cmpa.w d6, a0
      < 0x0068e064      6624           bne.b 0x68e08a
         0x0068e066      487adea4       pea.l 0x68bf0c(pc)
         0x0068e06a      48780009       pea.l 0x9
         0x0068e06e      2f17           move.l (a7), -(a7)
         0x0068e070      4eb9004047ea   jsr p_wts_o
         0x0068e076      dec3           adda.w d3, a7
         0x0068e078      4eb900404946   jsr p_wtln_o
         0x0068e07e      486effb4       pea.l -0x4c(a6)
         0x0068e082      4eb900404468   jsr fcn.00404468
         0x0068e088      584f           addq.w 0x4, a7
      > 0x0068e08a      b1e8fffc       cmpa.l -0x4(a0), a0
      < 0x0068e08e      6702           beq.b 0x68e092
         0x0068e090      4e4d           trap 0xd
      > 0x0068e092      2086           move.l d6, (a0)
          0x0068e094      42a80004       clr.l 0x4(a0)
          0x0068e098      222effa4       move.l -0x5c(a6), d1
          0x0068e09c      0c81ffff0001   cmpi.l 0xffff0001, d1
      < 0x0068e0a2      6748           beq.b 0x68e0ec
         0x0068e0a4      554f           subq.w 0x2, a7
         0x0068e0a6      3f3c0050       move.w 0x50, -(a7)
         0x0068e0aa      2f01           move.l d1, -(a7)
         0x0068e0ac      43e80004       lea.l 0x4(a0), a1
         0x0068e0b0      2f09           move.l a1, -(a7)
         0x0068e0b2      5497           addq.l 0x2, (a7)
         0x0068e0b4      3f3c0002       move.w 0x2, -(a7)
         0x0068e0b8      4eb9005eed1e   jsr f_get_field
         0x0068e0be      dec3           adda.w d3, a7
         0x0068e0c0      4a1f           tst.b (a7)+
     < 0x0068e0c2      6628           bne.b 0x68e0ec
        0x0068e0c4      487ade50       pea.l 0x68bf16(pc)
        0x0068e0c8      48780016       pea.l 0x16
        0x0068e0cc      2f17           move.l (a7), -(a7)
        0x0068e0ce      4eb9004047ea   jsr p_wts_o
        0x0068e0d4      dec3           adda.w d3, a7
        0x0068e0d6      4eb900404946   jsr p_wtln_o
        0x0068e0dc      4a00           tst.b d0
    < 0x0068e0de      660c           bne.b 0x68e0ec
       0x0068e0e0      486effb4       pea.l -0x4c(a6)
       0x0068e0e4      4eb900404468   jsr fcn.00404468
       0x0068e0ea      584f           addq.w 0x4, a7
    > 0x0068e0ec      487ade3f       pea.l 0x68bf2d(pc)
          0x0068e0f0      4878000c       pea.l 0xc
          0x0068e0f4      2f17           move.l (a7), -(a7)
          0x0068e0f6      4eb9004047ea   jsr p_wts_o
          0x0068e0fc      504f           addq.w 0x8, a7
          0x0068e0fe      2ea80004       move.l 0x4(a0), (a7)
          0x0068e102      48780000       pea.l 0x0
          0x0068e106      4eb9004070e4   jsr p_wti_o
          0x0068e10c      504f           addq.w 0x8, a7
          0x0068e10e      4eb900404946   jsr p_wtln_o
          0x0068e114      b006           cmp.b d6, d0
      < 0x0068e116      6606           bne.b 0x68e11e
         0x0068e118      216e00140004   move.l 0x14(a6), 0x4(a0)
      > 0x0068e11e      43e80108       lea.l 0x108(a0), a1
          0x0068e122      45ee0018       lea.l 0x18(a6), a2
          0x0068e126      7409           moveq 0x9, d2
      > 0x0068e128      12da           move.b (a2)+, (a1)+
      < 0x0068e12a      51cafffc       dbra d2, 0x68e128
          0x0068e12e      9ec4           suba.w d4, a7
          0x0068e130      3f3c0014       move.w 0x14, -(a7)
          0x0068e134      2f01           move.l d1, -(a7)
          0x0068e136      4eb9005eed64   jsr f_get_string
          0x0068e13c      5c4f           addq.w 0x6, a7
          0x0068e13e      41e80008       lea.l 0x8(a0), a0
          0x0068e142      224f           movea.l a7, a1
          0x0068e144      323c00ff       move.w 0xff, d1
      > 0x0068e148      10d9           move.b (a1)+, (a0)+
      < 0x0068e14a      51c9fffc       dbra d1, 0x68e148
          0x0068e14e      dec4           adda.w d4, a7
          0x0068e150      7e00           moveq 0x0, d7
          0x0068e152      3846           movea.w d6, a4
          0x0068e154      206e000c       movea.l 0xc(a6), a0
          0x0068e158      2d50ffb0       move.l (a0), -0x50(a6)
      > 0x0068e15c      206effb0       movea.l -0x50(a6), a0
         0x0068e160      b0c6           cmpa.w d6, a0
     < 0x0068e162      676a           beq.b 0x68e1ce
        0x0068e164      4a07           tst.b d7
    < 0x0068e166      6666           bne.b 0x68e1ce
       0x0068e168      b1e8fffc       cmpa.l -0x4(a0), a0
   < 0x0068e16c      6702           beq.b 0x68e170
      0x0068e16e      4e4d           trap 0xd
   > 0x0068e170      226effac       movea.l -0x54(a6), a1
       0x0068e174      b3e9fffc       cmpa.l -0x4(a1), a1
   < 0x0068e178      6702           beq.b 0x68e17c
      0x0068e17a      4e4d           trap 0xd
   > 0x0068e17c      9ec3           suba.w d3, a7
       0x0068e17e      244f           movea.l a7, a2
       0x0068e180      47e80108       lea.l 0x108(a0), a3
       0x0068e184      7209           moveq 0x9, d1
   > 0x0068e186      14db           move.b (a3)+, (a2)+
   < 0x0068e188      51c9fffc       dbra d1, 0x68e186
       0x0068e18c      9efc000a       suba.w 0xa, a7
       0x0068e190      244f           movea.l a7, a2
       0x0068e192      47e90108       lea.l 0x108(a1), a3
       0x0068e196      7209           moveq 0x9, d1
   > 0x0068e198      14db           move.b (a3)+, (a2)+
   < 0x0068e19a      51c9fffc       dbra d1, 0x68e198
       0x0068e19e      4eb9005ef3d2   jsr F2_UTILITY.f_fids_eq
       0x0068e1a4      defc0014       adda.w 0x14, a7
       0x0068e1a8      4a1f           tst.b (a7)+
   < 0x0068e1aa      6716           beq.b 0x68e1c2
      0x0068e1ac      22280004       move.l 0x4(a0), d1
      0x0068e1b0      b2a90004       cmp.l 0x4(a1), d1
  < 0x0068e1b4      670a           beq.b 0x68e1c0
     0x0068e1b6      122e0012       move.b 0x12(a6), d1
     0x0068e1ba      0c010002       cmpi.b 0x2, d1
 < 0x0068e1be      6602           bne.b 0x68e1c2
 > 0x0068e1c0      7e01           moveq 0x1, d7
 > 0x0068e1c2      4a07           tst.b d7
   < 0x0068e1c4      6606           bne.b 0x68e1cc
      0x0068e1c6      2848           movea.l a0, a4
      0x0068e1c8      2d50ffb0       move.l (a0), -0x50(a6)
   < 0x0068e1cc      608e           bra.b 0x68e15c
    > 0x0068e1ce      226e0008       movea.l 0x8(a6), a1
          0x0068e1d2      4211           clr.b (a1)
          0x0068e1d4      be2e0010       cmp.b 0x10(a6), d7
      < 0x0068e1d8      6702           beq.b 0x68e1dc
         0x0068e1da      5211           addq.b 0x1, (a1)
      > 0x0068e1dc      4a2e0010       tst.b 0x10(a6)
      < 0x0068e1e0      670000f0       beq.w 0x68e2d2
         0x0068e1e4      4a07           tst.b d7
     < 0x0068e1e6      6740           beq.b 0x68e228
        0x0068e1e8      9ec4           suba.w d4, a7
        0x0068e1ea      486e0018       pea.l 0x18(a6)
        0x0068e1ee      4eb9005ef416   jsr F2_UTILITY.f_fid_string
        0x0068e1f4      584f           addq.w 0x4, a7
        0x0068e1f6      486f0001       pea.l 0x1(a7)
        0x0068e1fa      42a7           clr.l -(a7)
        0x0068e1fc      1f6f00080003   move.b 0x8(a7), 0x3(a7)
        0x0068e202      2f17           move.l (a7), -(a7)
        0x0068e204      4eb9004047ea   jsr p_wts_o
        0x0068e20a      dec5           adda.w d5, a7
        0x0068e20c      487add2c       pea.l 0x68bf3a(pc)
        0x0068e210      48780010       pea.l 0x10
        0x0068e214      2f17           move.l (a7), -(a7)
        0x0068e216      4eb9004047ea   jsr p_wts_o
        0x0068e21c      dec3           adda.w d3, a7
        0x0068e21e      4eb900404946   jsr p_wtln_o
    < 0x0068e224      600001c2       bra.w 0x68e3e8
    > 0x0068e228      b8c6           cmpa.w d6, a4
    < 0x0068e22a      675e           beq.b 0x68e28a
       0x0068e22c      9ec4           suba.w d4, a7
       0x0068e22e      486e0018       pea.l 0x18(a6)
       0x0068e232      4eb9005ef416   jsr F2_UTILITY.f_fid_string
       0x0068e238      584f           addq.w 0x4, a7
       0x0068e23a      487add0f       pea.l 0x68bf4b(pc)
       0x0068e23e      48780004       pea.l 0x4
       0x0068e242      2f17           move.l (a7), -(a7)
       0x0068e244      4eb9004047ea   jsr p_wts_o
       0x0068e24a      dec3           adda.w d3, a7
       0x0068e24c      486f0001       pea.l 0x1(a7)
       0x0068e250      42a7           clr.l -(a7)
       0x0068e252      1f6f00080003   move.b 0x8(a7), 0x3(a7)
       0x0068e258      2f17           move.l (a7), -(a7)
       0x0068e25a      4eb9004047ea   jsr p_wts_o
       0x0068e260      dec5           adda.w d5, a7
       0x0068e262      487adcec       pea.l 0x68bf50(pc)
       0x0068e266      4878000f       pea.l 0xf
       0x0068e26a      2f17           move.l (a7), -(a7)
       0x0068e26c      4eb9004047ea   jsr p_wts_o
       0x0068e272      dec3           adda.w d3, a7
       0x0068e274      4eb900404946   jsr p_wtln_o
       0x0068e27a      b9ecfffc       cmpa.l -0x4(a4), a4
   < 0x0068e27e      6702           beq.b 0x68e282
      0x0068e280      4e4d           trap 0xd
   > 0x0068e282      28aeffac       move.l -0x54(a6), (a4)
   < 0x0068e286      60000170       bra.w 0x68e3f8
   > 0x0068e28a      9ec4           suba.w d4, a7
       0x0068e28c      486e0018       pea.l 0x18(a6)
       0x0068e290      4eb9005ef416   jsr F2_UTILITY.f_fid_string
       0x0068e296      584f           addq.w 0x4, a7
       0x0068e298      487adcc6       pea.l 0x68bf60(pc)
       0x0068e29c      48780014       pea.l 0x14
       0x0068e2a0      2f17           move.l (a7), -(a7)
       0x0068e2a2      4eb9004047ea   jsr p_wts_o
       0x0068e2a8      dec3           adda.w d3, a7
       0x0068e2aa      486f0001       pea.l 0x1(a7)
       0x0068e2ae      42a7           clr.l -(a7)
       0x0068e2b0      1f6f00080003   move.b 0x8(a7), 0x3(a7)
       0x0068e2b6      2f17           move.l (a7), -(a7)
       0x0068e2b8      4eb9004047ea   jsr p_wts_o
       0x0068e2be      dec5           adda.w d5, a7
       0x0068e2c0      4eb900404946   jsr p_wtln_o
       0x0068e2c6      226e000c       movea.l 0xc(a6), a1
       0x0068e2ca      22aeffac       move.l -0x54(a6), (a1)
   < 0x0068e2ce      60000128       bra.w 0x68e3f8
   > 0x0068e2d2      4a07           tst.b d7
   < 0x0068e2d4      6640           bne.b 0x68e316
      0x0068e2d6      9ec4           suba.w d4, a7
      0x0068e2d8      486e0018       pea.l 0x18(a6)
      0x0068e2dc      4eb9005ef416   jsr F2_UTILITY.f_fid_string
      0x0068e2e2      584f           addq.w 0x4, a7
      0x0068e2e4      486f0001       pea.l 0x1(a7)
      0x0068e2e8      42a7           clr.l -(a7)
      0x0068e2ea      1f6f00080003   move.b 0x8(a7), 0x3(a7)
      0x0068e2f0      2f17           move.l (a7), -(a7)
      0x0068e2f2      4eb9004047ea   jsr p_wts_o
      0x0068e2f8      dec5           adda.w d5, a7
      0x0068e2fa      487adc79       pea.l 0x68bf75(pc)
      0x0068e2fe      48780010       pea.l 0x10
      0x0068e302      2f17           move.l (a7), -(a7)
      0x0068e304      4eb9004047ea   jsr p_wts_o
      0x0068e30a      dec3           adda.w d3, a7
      0x0068e30c      4eb900404946   jsr p_wtln_o
  < 0x0068e312      600000c4       bra.w 0x68e3d8
  > 0x0068e316      b8c6           cmpa.w d6, a4
  < 0x0068e318      6762           beq.b 0x68e37c
     0x0068e31a      9ec4           suba.w d4, a7
     0x0068e31c      486e0018       pea.l 0x18(a6)
     0x0068e320      4eb9005ef416   jsr F2_UTILITY.f_fid_string
     0x0068e326      584f           addq.w 0x4, a7
     0x0068e328      487adc5c       pea.l 0x68bf86(pc)
     0x0068e32c      48780007       pea.l 0x7
     0x0068e330      2f17           move.l (a7), -(a7)
     0x0068e332      4eb9004047ea   jsr p_wts_o
     0x0068e338      dec3           adda.w d3, a7
     0x0068e33a      486f0001       pea.l 0x1(a7)
     0x0068e33e      42a7           clr.l -(a7)
     0x0068e340      1f6f00080003   move.b 0x8(a7), 0x3(a7)
     0x0068e346      2f17           move.l (a7), -(a7)
     0x0068e348      4eb9004047ea   jsr p_wts_o
     0x0068e34e      dec5           adda.w d5, a7
     0x0068e350      487adc3c       pea.l 0x68bf8e(pc)
     0x0068e354      4878000a       pea.l 0xa
     0x0068e358      2f17           move.l (a7), -(a7)
     0x0068e35a      4eb9004047ea   jsr p_wts_o
     0x0068e360      dec3           adda.w d3, a7
     0x0068e362      4eb900404946   jsr p_wtln_o
     0x0068e368      b9ecfffc       cmpa.l -0x4(a4), a4
 < 0x0068e36c      6702           beq.b 0x68e370
    0x0068e36e      4e4d           trap 0xd
 > 0x0068e370      b1e8fffc       cmpa.l -0x4(a0), a0
 < 0x0068e374      6702           beq.b 0x68e378
    0x0068e376      4e4d           trap 0xd
 > 0x0068e378      2890           move.l (a0), (a4)
 < 0x0068e37a      605c           bra.b 0x68e3d8
 > 0x0068e37c      9ec4           suba.w d4, a7
     0x0068e37e      486e0018       pea.l 0x18(a6)
     0x0068e382      4eb9005ef416   jsr F2_UTILITY.f_fid_string
     0x0068e388      584f           addq.w 0x4, a7
     0x0068e38a      487adc0d       pea.l 0x68bf99(pc)
     0x0068e38e      48780007       pea.l 0x7
     0x0068e392      2f17           move.l (a7), -(a7)
     0x0068e394      4eb9004047ea   jsr p_wts_o
     0x0068e39a      dec3           adda.w d3, a7
     0x0068e39c      486f0001       pea.l 0x1(a7)
     0x0068e3a0      42a7           clr.l -(a7)
     0x0068e3a2      1f6f00080003   move.b 0x8(a7), 0x3(a7)
     0x0068e3a8      2f17           move.l (a7), -(a7)
     0x0068e3aa      4eb9004047ea   jsr p_wts_o
     0x0068e3b0      dec5           adda.w d5, a7
     0x0068e3b2      487adbed       pea.l 0x68bfa1(pc)
     0x0068e3b6      48780013       pea.l 0x13
     0x0068e3ba      2f17           move.l (a7), -(a7)
     0x0068e3bc      4eb9004047ea   jsr p_wts_o
     0x0068e3c2      dec3           adda.w d3, a7
     0x0068e3c4      4eb900404946   jsr p_wtln_o
     0x0068e3ca      226e000c       movea.l 0xc(a6), a1
     0x0068e3ce      b1e8fffc       cmpa.l -0x4(a0), a0
 < 0x0068e3d2      6702           beq.b 0x68e3d6
    0x0068e3d4      4e4d           trap 0xd
 > 0x0068e3d6      2290           move.l (a0), (a1)
 > 0x0068e3d8      486effb0       pea.l -0x50(a6)
       0x0068e3dc      48780112       pea.l 0x112
       0x0068e3e0      4eb900403b98   jsr p_Dispos
       0x0068e3e6      504f           addq.w 0x8, a7
   > 0x0068e3e8      486effac       pea.l -0x54(a6)
        0x0068e3ec      48780112       pea.l 0x112
        0x0068e3f0      4eb900403b98   jsr p_Dispos
        0x0068e3f6      504f           addq.w 0x8, a7
   > 0x0068e3f8      486effa4       pea.l -0x5c(a6)
           0x0068e3fc      4eb90060500e   jsr F9_FILERDWRT.f_free_block
           0x0068e402      584f           addq.w 0x4, a7
           0x0068e404      4cdf1fff       movem.l (a7)+, d0-d7/a0-a4
           0x0068e408      4e5e           unlk a6
           0x0068e40a      4e75           rts
            ; CALL XREF from BOOTCOM.check_boot_list @ 0x68e7d2
            ; CALL XREF from fcn.0068e7fa @ 0x68e900
 284: BOOTCOM.check_list_loca ();
           ; var int32_t var_8h @ a7+0x8
           0x0068e40c      4e56feb2       link.w a6, 0xfeb2
           0x0068e410      bfd5           cmpa.l (a5), a7
       < 0x0068e412      6206           bhi.b 0x68e41a
          0x0068e414      44fc0002       move.w 0x2, ccr
          0x0068e418      4e76           trapv
       > 0x0068e41a      defc0144       adda.w 0x144, a7
           0x0068e41e      48e7e1f8       movem.l d0-d2/d7/a0-a4, -(a7)
           0x0068e422      47eefffa       lea.l -0x6(a6), a3
           0x0068e426      7201           moveq 0x1, d1
           0x0068e428      740c           moveq 0xc, d2
           0x0068e42a      422e0010       clr.b 0x10(a6)
           0x0068e42e      206e000c       movea.l 0xc(a6), a0
       > 0x0068e432      7e00           moveq 0x0, d7
          0x0068e434      3841           movea.w d1, a4
          0x0068e436      2690           move.l (a0), (a3)
      > 0x0068e438      2253           movea.l (a3), a1
         0x0068e43a      b2c1           cmpa.w d1, a1
     < 0x0068e43c      670000dc       beq.w 0x68e51a
        0x0068e440      4a07           tst.b d7
    < 0x0068e442      660000d6       bne.w 0x68e51a
       0x0068e446      b3e9fffc       cmpa.l -0x4(a1), a1
   < 0x0068e44a      6702           beq.b 0x68e44e
      0x0068e44c      4e4d           trap 0xd
   > 0x0068e44e      20290108       move.l 0x108(a1), d0
       0x0068e452      b0ae0008       cmp.l 0x8(a6), d0
   < 0x0068e456      670000ac       beq.w 0x68e504
      0x0068e45a      9efc0100       suba.w 0x100, a7
      0x0068e45e      48690108       pea.l 0x108(a1)
      0x0068e462      4eb9005ef416   jsr F2_UTILITY.f_fid_string
      0x0068e468      584f           addq.w 0x4, a7
      0x0068e46a      486f0001       pea.l 0x1(a7)
      0x0068e46e      42a7           clr.l -(a7)
      0x0068e470      1f6f00080003   move.b 0x8(a7), 0x3(a7)
      0x0068e476      2f17           move.l (a7), -(a7)
      0x0068e478      4eb9004047ea   jsr p_wts_o
      0x0068e47e      defc010c       adda.w 0x10c, a7
      0x0068e482      487adb31       pea.l 0x68bfb5(pc)
      0x0068e486      4878000a       pea.l 0xa
      0x0068e48a      2f17           move.l (a7), -(a7)
      0x0068e48c      4eb9004047ea   jsr p_wts_o
      0x0068e492      504f           addq.w 0x8, a7
      0x0068e494      2eae0008       move.l 0x8(a6), (a7)
      0x0068e498      4878ffff       pea.l 0xffff
      0x0068e49c      4eb9004070e4   jsr p_wti_o
      0x0068e4a2      504f           addq.w 0x8, a7
      0x0068e4a4      4eb900404946   jsr p_wtln_o
      0x0068e4aa      7e01           moveq 0x1, d7
      0x0068e4ac      1d410010       move.b d1, 0x10(a6)
      0x0068e4b0      b8c1           cmpa.w d1, a4
  < 0x0068e4b2      6724           beq.b 0x68e4d8
     0x0068e4b4      487adb0a       pea.l 0x68bfc0(pc)
     0x0068e4b8      48780010       pea.l 0x10
     0x0068e4bc      2f17           move.l (a7), -(a7)
     0x0068e4be      4eb9004047ea   jsr p_wts_o
     0x0068e4c4      dec2           adda.w d2, a7
     0x0068e4c6      4eb900404946   jsr p_wtln_o
     0x0068e4cc      b9ecfffc       cmpa.l -0x4(a4), a4
 < 0x0068e4d0      6702           beq.b 0x68e4d4
    0x0068e4d2      4e4d           trap 0xd
 > 0x0068e4d4      2891           move.l (a1), (a4)
 < 0x0068e4d6      601e           bra.b 0x68e4f6
 > 0x0068e4d8      487adaf7       pea.l 0x68bfd1(pc)
     0x0068e4dc      48780019       pea.l 0x19
     0x0068e4e0      2f17           move.l (a7), -(a7)
     0x0068e4e2      4eb9004047ea   jsr p_wts_o
     0x0068e4e8      dec2           adda.w d2, a7
     0x0068e4ea      4eb900404946   jsr p_wtln_o
     0x0068e4f0      246e000c       movea.l 0xc(a6), a2
     0x0068e4f4      2491           move.l (a1), (a2)
 > 0x0068e4f6      4853           pea.l (a3)
      0x0068e4f8      48780112       pea.l 0x112
      0x0068e4fc      4eb900403b98   jsr p_Dispos
      0x0068e502      504f           addq.w 0x8, a7
   > 0x0068e504      4a07           tst.b d7
   < 0x0068e506      660e           bne.b 0x68e516
      0x0068e508      2853           movea.l (a3), a4
      0x0068e50a      2453           movea.l (a3), a2
      0x0068e50c      b5eafffc       cmpa.l -0x4(a2), a2
  < 0x0068e510      6702           beq.b 0x68e514
     0x0068e512      4e4d           trap 0xd
  > 0x0068e514      2692           move.l (a2), (a3)
   < 0x0068e516      6000ff20       bra.w 0x68e438
    > 0x0068e51a      4a07           tst.b d7
       < 0x0068e51c      6600ff14       bne.w 0x68e432
           0x0068e520      4cdf1f87       movem.l (a7)+, d0-d2/d7/a0-a4
           0x0068e524      4e5e           unlk a6
           0x0068e526      4e75           rts
            ; CALL XREF from BOOTCOM.check_boot_list @ 0x68e7be
 406: BOOTCOM.check_list_not_ ();
           ; var int32_t var_8h @ a7+0x8
           0x0068e528      4e56feae       link.w a6, 0xfeae
           0x0068e52c      bfd5           cmpa.l (a5), a7
       < 0x0068e52e      6206           bhi.b 0x68e536
          0x0068e530      44fc0002       move.w 0x2, ccr
          0x0068e534      4e76           trapv
       > 0x0068e536      defc0144       adda.w 0x144, a7
           0x0068e53a      48e7e1f8       movem.l d0-d2/d7/a0-a4, -(a7)
           0x0068e53e      7201           moveq 0x1, d1
           0x0068e540      740c           moveq 0xc, d2
           0x0068e542      422e000c       clr.b 0xc(a6)
           0x0068e546      2d7cffff0001.  move.l 0xffff0001, -0x4(a6)
           0x0068e54e      206e0008       movea.l 0x8(a6), a0
       > 0x0068e552      7e00           moveq 0x0, d7
          0x0068e554      3841           movea.w d1, a4
          0x0068e556      2d50fff6       move.l (a0), -0xa(a6)
      > 0x0068e55a      226efff6       movea.l -0xa(a6), a1
         0x0068e55e      b2c1           cmpa.w d1, a1
     < 0x0068e560      6700014e       beq.w 0x68e6b0
        0x0068e564      4a07           tst.b d7
    < 0x0068e566      66000148       bne.w 0x68e6b0
       0x0068e56a      b3e9fffc       cmpa.l -0x4(a1), a1
   < 0x0068e56e      6702           beq.b 0x68e572
      0x0068e570      4e4d           trap 0xd
   > 0x0068e572      9ec2           suba.w d2, a7
       0x0068e574      244f           movea.l a7, a2
       0x0068e576      47e90108       lea.l 0x108(a1), a3
       0x0068e57a      7009           moveq 0x9, d0
   > 0x0068e57c      14db           move.b (a3)+, (a2)+
   < 0x0068e57e      51c8fffc       dbra d0, 0x68e57c
       0x0068e582      4227           clr.b -(a7)
       0x0068e584      486efffc       pea.l -0x4(a6)
       0x0068e588      4eb9006082de   jsr F10_FILELIST.f_get_header
       0x0068e58e      defc0010       adda.w 0x10, a7
       0x0068e592      4a1f           tst.b (a7)+
   < 0x0068e594      660000f2       bne.w 0x68e688
      0x0068e598      554f           subq.w 0x2, a7
      0x0068e59a      1f01           move.b d1, -(a7)
      0x0068e59c      4eb9005efa0c   jsr F2_UTILITY.f_deleted
      0x0068e5a2      544f           addq.w 0x2, a7
      0x0068e5a4      4a1f           tst.b (a7)+
  < 0x0068e5a6      670000a0       beq.w 0x68e648
     0x0068e5aa      9efc0100       suba.w 0x100, a7
     0x0068e5ae      48690108       pea.l 0x108(a1)
     0x0068e5b2      4eb9005ef416   jsr F2_UTILITY.f_fid_string
     0x0068e5b8      584f           addq.w 0x4, a7
     0x0068e5ba      486f0001       pea.l 0x1(a7)
     0x0068e5be      42a7           clr.l -(a7)
     0x0068e5c0      1f6f00080003   move.b 0x8(a7), 0x3(a7)
     0x0068e5c6      2f17           move.l (a7), -(a7)
     0x0068e5c8      4eb9004047ea   jsr p_wts_o
     0x0068e5ce      defc010c       adda.w 0x10c, a7
     0x0068e5d2      487ada17       pea.l 0x68bfeb(pc)
     0x0068e5d6      4878000b       pea.l 0xb
     0x0068e5da      2f17           move.l (a7), -(a7)
     0x0068e5dc      4eb9004047ea   jsr p_wts_o
     0x0068e5e2      dec2           adda.w d2, a7
     0x0068e5e4      4eb900404946   jsr p_wtln_o
     0x0068e5ea      7e01           moveq 0x1, d7
     0x0068e5ec      1d41000c       move.b d1, 0xc(a6)
     0x0068e5f0      b8c1           cmpa.w d1, a4
 < 0x0068e5f2      6724           beq.b 0x68e618
    0x0068e5f4      487ada01       pea.l 0x68bff7(pc)
    0x0068e5f8      48780010       pea.l 0x10
    0x0068e5fc      2f17           move.l (a7), -(a7)
    0x0068e5fe      4eb9004047ea   jsr p_wts_o
    0x0068e604      dec2           adda.w d2, a7
    0x0068e606      4eb900404946   jsr p_wtln_o
    0x0068e60c      b9ecfffc       cmpa.l -0x4(a4), a4
 < 0x0068e610      6702           beq.b 0x68e614
    0x0068e612      4e4d           trap 0xd
 > 0x0068e614      2891           move.l (a1), (a4)
 < 0x0068e616      601e           bra.b 0x68e636
 > 0x0068e618      487ad9ee       pea.l 0x68c008(pc)
     0x0068e61c      48780019       pea.l 0x19
     0x0068e620      2f17           move.l (a7), -(a7)
     0x0068e622      4eb9004047ea   jsr p_wts_o
     0x0068e628      dec2           adda.w d2, a7
     0x0068e62a      4eb900404946   jsr p_wtln_o
     0x0068e630      246e0008       movea.l 0x8(a6), a2
     0x0068e634      2491           move.l (a1), (a2)
 > 0x0068e636      486efff6       pea.l -0xa(a6)
     0x0068e63a      48780112       pea.l 0x112
     0x0068e63e      4eb900403b98   jsr p_Dispos
     0x0068e644      504f           addq.w 0x8, a7
 < 0x0068e646      6040           bra.b 0x68e688
 > 0x0068e648      9efc0100       suba.w 0x100, a7
     0x0068e64c      4eb900408ec0   jsr p_err_string
     0x0068e652      487ad9ce       pea.l 0x68c022(pc)
     0x0068e656      48780015       pea.l 0x15
     0x0068e65a      2f17           move.l (a7), -(a7)
     0x0068e65c      4eb9004047ea   jsr p_wts_o
     0x0068e662      dec2           adda.w d2, a7
     0x0068e664      486f0001       pea.l 0x1(a7)
     0x0068e668      42a7           clr.l -(a7)
     0x0068e66a      1f6f00080003   move.b 0x8(a7), 0x3(a7)
     0x0068e670      2f17           move.l (a7), -(a7)
     0x0068e672      4eb9004047ea   jsr p_wts_o
     0x0068e678      defc010c       adda.w 0x10c, a7
     0x0068e67c      4eb900404946   jsr p_wtln_o
     0x0068e682      4eb900404188   jsr p_Unlink
 > 0x0068e688      486efffc       pea.l -0x4(a6)
       0x0068e68c      4eb90060500e   jsr F9_FILERDWRT.f_free_block
       0x0068e692      584f           addq.w 0x4, a7
       0x0068e694      4a07           tst.b d7
   < 0x0068e696      6614           bne.b 0x68e6ac
      0x0068e698      286efff6       movea.l -0xa(a6), a4
      0x0068e69c      246efff6       movea.l -0xa(a6), a2
      0x0068e6a0      b5eafffc       cmpa.l -0x4(a2), a2
  < 0x0068e6a4      6702           beq.b 0x68e6a8
     0x0068e6a6      4e4d           trap 0xd
  > 0x0068e6a8      2d52fff6       move.l (a2), -0xa(a6)
   < 0x0068e6ac      6000feac       bra.w 0x68e55a
    > 0x0068e6b0      4a07           tst.b d7
       < 0x0068e6b2      6600fe9e       bne.w 0x68e552
           0x0068e6b6      4cdf1f87       movem.l (a7)+, d0-d2/d7/a0-a4
           0x0068e6ba      4e5e           unlk a6
           0x0068e6bc      4e75           rts
            ; CALL XREFS from BOOTCOM.boot_files @ 0x693f2a, 0x694850
            ; CALL XREF from BOOTCOM.sw_install @ 0x694c44
 316: BOOTCOM.check_boot_list ();
           ; var int32_t var_8h @ a7+0x8
           0x0068e6be      4e56fe16       link.w a6, 0xfe16
           0x0068e6c2      bfd5           cmpa.l (a5), a7
       < 0x0068e6c4      6206           bhi.b 0x68e6cc
          0x0068e6c6      44fc0002       move.w 0x2, ccr
          0x0068e6ca      4e76           trapv
       > 0x0068e6cc      defc0140       adda.w 0x140, a7
           0x0068e6d0      48e7fdf8       movem.l d0-d5/d7/a0-a4, -(a7)
           0x0068e6d4      47eeff56       lea.l -0xaa(a6), a3
           0x0068e6d8      49eefffe       lea.l -0x2(a6), a4
           0x0068e6dc      7201           moveq 0x1, d1
           0x0068e6de      740c           moveq 0xc, d2
           0x0068e6e0      7a0f           moveq 0xf, d5
           0x0068e6e2      554f           subq.w 0x2, a7
           0x0068e6e4      2f2e0008       move.l 0x8(a6), -(a7)
           0x0068e6e8      486eff5a       pea.l -0xa6(a6)
           0x0068e6ec      4267           clr.w -(a7)
           0x0068e6ee      3f05           move.w d5, -(a7)
           0x0068e6f0      4eb900608f40   jsr F10_FILELIST.f_list_boots
           0x0068e6f6      dec2           adda.w d2, a7
           0x0068e6f8      4a1f           tst.b (a7)+
       < 0x0068e6fa      6644           bne.b 0x68e740
          0x0068e6fc      9efc0100       suba.w 0x100, a7
          0x0068e700      4eb900408ec0   jsr p_err_string
          0x0068e706      487ad930       pea.l 0x68c038(pc)
          0x0068e70a      48780018       pea.l 0x18
          0x0068e70e      2f17           move.l (a7), -(a7)
          0x0068e710      4eb9004047ea   jsr p_wts_o
          0x0068e716      dec2           adda.w d2, a7
          0x0068e718      486f0001       pea.l 0x1(a7)
          0x0068e71c      42a7           clr.l -(a7)
          0x0068e71e      1f6f00080003   move.b 0x8(a7), 0x3(a7)
          0x0068e724      2f17           move.l (a7), -(a7)
          0x0068e726      4eb9004047ea   jsr p_wts_o
          0x0068e72c      defc010c       adda.w 0x10c, a7
          0x0068e730      4eb900404946   jsr p_wtln_o
          0x0068e736      4eb900404188   jsr p_Unlink
      < 0x0068e73c      600000b4       bra.w 0x68e7f2
      > 0x0068e740      2681           move.l d1, (a3)
          0x0068e742      4853           pea.l (a3)
          0x0068e744      4ebaf2ca       jsr BOOTCOM.read_boot_list_(pc)
          0x0068e748      584f           addq.w 0x4, a7
          0x0068e74a      4214           clr.b (a4)
          0x0068e74c      7e01           moveq 0x1, d7
      > 0x0068e74e      be85           cmp.l d5, d7
     < 0x0068e750      6302           bls.b 0x68e754
        0x0068e752      4e4f           trap 0xf
     > 0x0068e754      2807           move.l d7, d4
         0x0068e756      760a           moveq 0xa, d3
         0x0068e758      4eb900406a74   jsr fcn.00406a74
         0x0068e75e      204b           movea.l a3, a0
         0x0068e760      9ec2           suba.w d2, a7
         0x0068e762      224f           movea.l a7, a1
         0x0068e764      45f04804       lea.l 0x4(a0, d4.l), a2
         0x0068e768      7009           moveq 0x9, d0
     > 0x0068e76a      12da           move.b (a2)+, (a1)+
     < 0x0068e76c      51c8fffc       dbra d0, 0x68e76a
         0x0068e770      2f3ad5b6       move.l 0x68bd28(pc), -(a7)
         0x0068e774      2f3ad5ae       move.l 0x68bd24(pc), -(a7)
         0x0068e778      3f3ad5a8       move.w 0x68bd22(pc), -(a7)
         0x0068e77c      4eb9005ef3d2   jsr F2_UTILITY.f_fids_eq
         0x0068e782      defc0014       adda.w 0x14, a7
         0x0068e786      4a1f           tst.b (a7)+
     < 0x0068e788      6626           bne.b 0x68e7b0
        0x0068e78a      9efc000a       suba.w 0xa, a7
        0x0068e78e      224f           movea.l a7, a1
        0x0068e790      45f04804       lea.l 0x4(a0, d4.l), a2
        0x0068e794      7009           moveq 0x9, d0
    > 0x0068e796      12da           move.b (a2)+, (a1)+
    < 0x0068e798      51c8fffc       dbra d0, 0x68e796
        0x0068e79c      48780000       pea.l 0x0
        0x0068e7a0      4227           clr.b -(a7)
        0x0068e7a2      1f01           move.b d1, -(a7)
        0x0068e7a4      4853           pea.l (a3)
        0x0068e7a6      4854           pea.l (a4)
        0x0068e7a8      4ebaf76c       jsr BOOTCOM.check_list(pc)
        0x0068e7ac      defc001a       adda.w 0x1a, a7
     > 0x0068e7b0      5287           addq.l 0x1, d7
         0x0068e7b2      0c8700000007   cmpi.l 0x7, d7
      < 0x0068e7b8      6f94           ble.b 0x68e74e
          0x0068e7ba      554f           subq.w 0x2, a7
          0x0068e7bc      4853           pea.l (a3)
          0x0068e7be      4ebafd68       jsr BOOTCOM.check_list_not_(pc)
          0x0068e7c2      584f           addq.w 0x4, a7
          0x0068e7c4      4a1f           tst.b (a7)+
      < 0x0068e7c6      6702           beq.b 0x68e7ca
         0x0068e7c8      1881           move.b d1, (a4)
      > 0x0068e7ca      554f           subq.w 0x2, a7
          0x0068e7cc      4853           pea.l (a3)
          0x0068e7ce      2f2e0008       move.l 0x8(a6), -(a7)
          0x0068e7d2      4ebafc38       jsr BOOTCOM.check_list_loca(pc)
          0x0068e7d6      504f           addq.w 0x8, a7
          0x0068e7d8      4a1f           tst.b (a7)+
      < 0x0068e7da      6702           beq.b 0x68e7de
         0x0068e7dc      1881           move.b d1, (a4)
      > 0x0068e7de      4a14           tst.b (a4)
      < 0x0068e7e0      6708           beq.b 0x68e7ea
         0x0068e7e2      4853           pea.l (a3)
         0x0068e7e4      4ebaf546       jsr BOOTCOM.write_boot_list(pc)
         0x0068e7e8      584f           addq.w 0x4, a7
      > 0x0068e7ea      4853           pea.l (a3)
          0x0068e7ec      4ebaf6de       jsr BOOTCOM.disp_boot_list(pc)
          0x0068e7f0      584f           addq.w 0x4, a7
      > 0x0068e7f2      4cdf1fbf       movem.l (a7)+, d0-d5/d7/a0-a4
           0x0068e7f6      4e5e           unlk a6
           0x0068e7f8      4e75           rts
            ; CALL XREFS from BOOTCOM.boot_files @ 0x693af0, 0x693b84
 302: fcn.0068e7fa ();
           ; var int32_t var_8h @ a7+0x8
           0x0068e7fa      4e56fe16       link.w a6, 0xfe16
           0x0068e7fe      bfd5           cmpa.l (a5), a7
       < 0x0068e800      6206           bhi.b 0x68e808
          0x0068e802      44fc0002       move.w 0x2, ccr
          0x0068e806      4e76           trapv
       > 0x0068e808      defc0140       adda.w 0x140, a7
           0x0068e80c      48e7fdf8       movem.l d0-d5/d7/a0-a4, -(a7)
           0x0068e810      47eeff56       lea.l -0xaa(a6), a3
           0x0068e814      49eefffe       lea.l -0x2(a6), a4
           0x0068e818      720c           moveq 0xc, d1
           0x0068e81a      740f           moveq 0xf, d2
           0x0068e81c      7a01           moveq 0x1, d5
           0x0068e81e      554f           subq.w 0x2, a7
           0x0068e820      2f2e0012       move.l 0x12(a6), -(a7)
           0x0068e824      486eff5a       pea.l -0xa6(a6)
           0x0068e828      4267           clr.w -(a7)
           0x0068e82a      3f02           move.w d2, -(a7)
           0x0068e82c      4eb900608f40   jsr F10_FILELIST.f_list_boots
           0x0068e832      dec1           adda.w d1, a7
           0x0068e834      4a1f           tst.b (a7)+
       < 0x0068e836      6644           bne.b 0x68e87c
          0x0068e838      9efc0100       suba.w 0x100, a7
          0x0068e83c      4eb900408ec0   jsr p_err_string
          0x0068e842      487ad80d       pea.l 0x68c051(pc)
          0x0068e846      48780018       pea.l 0x18
          0x0068e84a      2f17           move.l (a7), -(a7)
          0x0068e84c      4eb9004047ea   jsr p_wts_o
          0x0068e852      dec1           adda.w d1, a7
          0x0068e854      486f0001       pea.l 0x1(a7)
          0x0068e858      42a7           clr.l -(a7)
          0x0068e85a      1f6f00080003   move.b 0x8(a7), 0x3(a7)
          0x0068e860      2f17           move.l (a7), -(a7)
          0x0068e862      4eb9004047ea   jsr p_wts_o
          0x0068e868      defc010c       adda.w 0x10c, a7
          0x0068e86c      4eb900404946   jsr p_wtln_o
          0x0068e872      4eb900404188   jsr p_Unlink
      < 0x0068e878      600000a6       bra.w 0x68e920
      > 0x0068e87c      2685           move.l d5, (a3)
          0x0068e87e      4853           pea.l (a3)
          0x0068e880      4ebaf18e       jsr BOOTCOM.read_boot_list_(pc)
          0x0068e884      584f           addq.w 0x4, a7
          0x0068e886      4214           clr.b (a4)
          0x0068e888      7e01           moveq 0x1, d7
      > 0x0068e88a      be82           cmp.l d2, d7
     < 0x0068e88c      6302           bls.b 0x68e890
        0x0068e88e      4e4f           trap 0xf
     > 0x0068e890      2807           move.l d7, d4
         0x0068e892      760a           moveq 0xa, d3
         0x0068e894      4eb900406a74   jsr fcn.00406a74
         0x0068e89a      204b           movea.l a3, a0
         0x0068e89c      9ec1           suba.w d1, a7
         0x0068e89e      224f           movea.l a7, a1
         0x0068e8a0      45f04804       lea.l 0x4(a0, d4.l), a2
         0x0068e8a4      7009           moveq 0x9, d0
     > 0x0068e8a6      12da           move.b (a2)+, (a1)+
     < 0x0068e8a8      51c8fffc       dbra d0, 0x68e8a6
         0x0068e8ac      2f2e000e       move.l 0xe(a6), -(a7)
         0x0068e8b0      2f2e000a       move.l 0xa(a6), -(a7)
         0x0068e8b4      3f2e0008       move.w 0x8(a6), -(a7)
         0x0068e8b8      4eb9005ef3d2   jsr F2_UTILITY.f_fids_eq
         0x0068e8be      defc0014       adda.w 0x14, a7
         0x0068e8c2      4a1f           tst.b (a7)+
     < 0x0068e8c4      6728           beq.b 0x68e8ee
        0x0068e8c6      9efc000a       suba.w 0xa, a7
        0x0068e8ca      224f           movea.l a7, a1
        0x0068e8cc      45f04804       lea.l 0x4(a0, d4.l), a2
        0x0068e8d0      7009           moveq 0x9, d0
    > 0x0068e8d2      12da           move.b (a2)+, (a1)+
    < 0x0068e8d4      51c8fffc       dbra d0, 0x68e8d2
        0x0068e8d8      48780000       pea.l 0x0
        0x0068e8dc      1f3c0002       move.b 0x2, -(a7)
        0x0068e8e0      4227           clr.b -(a7)
        0x0068e8e2      4853           pea.l (a3)
        0x0068e8e4      4854           pea.l (a4)
        0x0068e8e6      4ebaf62e       jsr BOOTCOM.check_list(pc)
        0x0068e8ea      defc001a       adda.w 0x1a, a7
     > 0x0068e8ee      5287           addq.l 0x1, d7
         0x0068e8f0      0c8700000007   cmpi.l 0x7, d7
      < 0x0068e8f6      6f92           ble.b 0x68e88a
          0x0068e8f8      554f           subq.w 0x2, a7
          0x0068e8fa      4853           pea.l (a3)
          0x0068e8fc      2f2e0012       move.l 0x12(a6), -(a7)
          0x0068e900      4ebafb0a       jsr BOOTCOM.check_list_loca(pc)
          0x0068e904      504f           addq.w 0x8, a7
          0x0068e906      4a1f           tst.b (a7)+
      < 0x0068e908      6702           beq.b 0x68e90c
         0x0068e90a      1885           move.b d5, (a4)
      > 0x0068e90c      4a14           tst.b (a4)
      < 0x0068e90e      6708           beq.b 0x68e918
         0x0068e910      4853           pea.l (a3)
         0x0068e912      4ebaf418       jsr BOOTCOM.write_boot_list(pc)
         0x0068e916      584f           addq.w 0x4, a7
      > 0x0068e918      4853           pea.l (a3)
          0x0068e91a      4ebaf5b0       jsr BOOTCOM.disp_boot_list(pc)
          0x0068e91e      584f           addq.w 0x4, a7
      > 0x0068e920      4cdf1fbf       movem.l (a7)+, d0-d5/d7/a0-a4
           0x0068e924      4e5e           unlk a6
           0x0068e926      4e75           rts
 186: BOOTCOM.list_boot_list ();
           ; var int32_t var_8h @ a7+0x8
           0x0068e928      4e56fe34       link.w a6, 0xfe34
           0x0068e92c      bfd5           cmpa.l (a5), a7
       < 0x0068e92e      6206           bhi.b 0x68e936
          0x0068e930      44fc0002       move.w 0x2, ccr
          0x0068e934      4e76           trapv
       > 0x0068e936      defc0120       adda.w 0x120, a7
           0x0068e93a      48e7c088       movem.l d0-d1/a0/a4, -(a7)
           0x0068e93e      41eeff58       lea.l -0xa8(a6), a0
           0x0068e942      7001           moveq 0x1, d0
           0x0068e944      7220           moveq 0x20, d1
           0x0068e946      2080           move.l d0, (a0)
           0x0068e948      4850           pea.l (a0)
           0x0068e94a      4ebaf0c4       jsr BOOTCOM.read_boot_list_(pc)
           0x0068e94e      584f           addq.w 0x4, a7
           0x0068e950      2850           movea.l (a0), a4
       > 0x0068e952      b8c0           cmpa.w d0, a4
      < 0x0068e954      677c           beq.b 0x68e9d2
         0x0068e956      b9ecfffc       cmpa.l -0x4(a4), a4
     < 0x0068e95a      6702           beq.b 0x68e95e
        0x0068e95c      4e4d           trap 0xd
     > 0x0068e95e      9efc0100       suba.w 0x100, a7
         0x0068e962      486c0108       pea.l 0x108(a4)
         0x0068e966      4eb9005ef416   jsr F2_UTILITY.f_fid_string
         0x0068e96c      2eac0004       move.l 0x4(a4), (a7)
         0x0068e970      48780002       pea.l 0x2
         0x0068e974      4eb9004070e4   jsr p_wti_o
         0x0068e97a      5c4f           addq.w 0x6, a7
         0x0068e97c      1e81           move.b d1, (a7)
         0x0068e97e      48780001       pea.l 0x1
         0x0068e982      4eb9004048b4   jsr p_wtc_o
         0x0068e988      5c4f           addq.w 0x6, a7
         0x0068e98a      486f0001       pea.l 0x1(a7)
         0x0068e98e      42a7           clr.l -(a7)
         0x0068e990      1f6f00080003   move.b 0x8(a7), 0x3(a7)
         0x0068e996      2f17           move.l (a7), -(a7)
         0x0068e998      4eb9004047ea   jsr p_wts_o
         0x0068e99e      defc010a       adda.w 0x10a, a7
         0x0068e9a2      1e81           move.b d1, (a7)
         0x0068e9a4      48780001       pea.l 0x1
         0x0068e9a8      4eb9004048b4   jsr p_wtc_o
         0x0068e9ae      5c4f           addq.w 0x6, a7
         0x0068e9b0      486c0009       pea.l 0x9(a4)
         0x0068e9b4      42a7           clr.l -(a7)
         0x0068e9b6      1f6c00080003   move.b 0x8(a4), 0x3(a7)
         0x0068e9bc      2f17           move.l (a7), -(a7)
         0x0068e9be      4eb9004047ea   jsr p_wts_o
         0x0068e9c4      defc000c       adda.w 0xc, a7
         0x0068e9c8      4eb900404946   jsr p_wtln_o
         0x0068e9ce      2854           movea.l (a4), a4
      < 0x0068e9d0      6080           bra.b 0x68e952
      > 0x0068e9d2      4850           pea.l (a0)
           0x0068e9d4      4ebaf4f6       jsr BOOTCOM.disp_boot_list(pc)
           0x0068e9d8      584f           addq.w 0x4, a7
           0x0068e9da      4cdf1103       movem.l (a7)+, d0-d1/a0/a4
           0x0068e9de      4e5e           unlk a6
           0x0068e9e0      4e75           rts
 214: BOOTCOM.boot_command ();
           0x0068e9e2      4e56ff5a       link.w a6, 0xff5a
           0x0068e9e6      bfd5           cmpa.l (a5), a7
       < 0x0068e9e8      6206           bhi.b 0x68e9f0
          0x0068e9ea      44fc0002       move.w 0x2, ccr
          0x0068e9ee      4e76           trapv
       > 0x0068e9f0      defc007c       adda.w 0x7c, a7
           0x0068e9f4      48e7ffe0       movem.l d0-d7/a0-a2, -(a7)
           0x0068e9f8      45f90043cd18   lea.l G1_INPUT.g_error, a2
           0x0068e9fe      7201           moveq 0x1, d1
           0x0068ea00      7444           moveq 0x44, d2
           0x0068ea02      7643           moveq 0x43, d3
           0x0068ea04      784c           moveq 0x4c, d4
           0x0068ea06      7a12           moveq 0x12, d5
           0x0068ea08      7c10           moveq 0x10, d6
           0x0068ea0a      554f           subq.w 0x2, a7
           0x0068ea0c      4eb90043cc02   jsr G1_INPUT.g_end_of_line
           0x0068ea12      4a1f           tst.b (a7)+
       < 0x0068ea14      671e           beq.b 0x68ea34
          0x0068ea16      9ec2           suba.w d2, a7
          0x0068ea18      204f           movea.l a7, a0
          0x0068ea1a      43fad64e       lea.l 0x68c06a(pc), a1
          0x0068ea1e      700f           moveq 0xf, d0
      > 0x0068ea20      20d9           move.l (a1)+, (a0)+
      < 0x0068ea22      51c8fffc       dbra d0, 0x68ea20
          0x0068ea26      30d9           move.w (a1)+, (a0)+
          0x0068ea28      10d9           move.b (a1)+, (a0)+
          0x0068ea2a      4857           pea.l (a7)
          0x0068ea2c      3f01           move.w d1, -(a7)
          0x0068ea2e      3f03           move.w d3, -(a7)
          0x0068ea30      4e92           jsr (a2)                    ; fcn.00000009+0x2
          0x0068ea32      dec4           adda.w d4, a7
       > 0x0068ea34      9ec5           suba.w d5, a7
           0x0068ea36      4eb90043cefe   jsr G1_INPUT.g_name
           0x0068ea3c      2d5fffe2       move.l (a7)+, -0x1e(a6)
           0x0068ea40      2d5fffe6       move.l (a7)+, -0x1a(a6)
           0x0068ea44      2d5fffea       move.l (a7)+, -0x16(a6)
           0x0068ea48      2d5fffee       move.l (a7)+, -0x12(a6)
           0x0068ea4c      1d57fff2       move.b (a7), -0xe(a6)
           0x0068ea50      9efc0014       suba.w 0x14, a7
           0x0068ea54      204f           movea.l a7, a0
           0x0068ea56      43fad656       lea.l 0x68c0ae(pc), a1
           0x0068ea5a      7004           moveq 0x4, d0
       > 0x0068ea5c      20d9           move.l (a1)+, (a0)+
       < 0x0068ea5e      51c8fffc       dbra d0, 0x68ea5c
           0x0068ea62      10d9           move.b (a1)+, (a0)+
           0x0068ea64      9efc000e       suba.w 0xe, a7
           0x0068ea68      2f2effe2       move.l -0x1e(a6), -(a7)
           0x0068ea6c      2f6effe60004   move.l -0x1a(a6), 0x4(a7)
           0x0068ea72      2f6effea0008   move.l -0x16(a6), 0x8(a7)
           0x0068ea78      2f6effee000c   move.l -0x12(a6), 0xc(a7)
           0x0068ea7e      1f6efff20010   move.b -0xe(a6), 0x10(a7)
           0x0068ea84      554f           subq.w 0x2, a7
           0x0068ea86      486f0014       pea.l 0x14(a7)
           0x0068ea8a      3f01           move.w d1, -(a7)
           0x0068ea8c      3f3c0015       move.w 0x15, -(a7)
           0x0068ea90      486f000a       pea.l 0xa(a7)
           0x0068ea94      4267           clr.w -(a7)
           0x0068ea96      3f06           move.w d6, -(a7)
           0x0068ea98      4eb9004401ac   jsr G4_LEXICAL.g_compare
           0x0068ea9e      dec6           adda.w d6, a7
           0x0068eaa0      301f           move.w (a7)+, d0
           0x0068eaa2      defc0028       adda.w 0x28, a7
           0x0068eaa6      0c400004       cmpi.w 0x4, d0
       < 0x0068eaaa      6302           bls.b 0x68eaae
          0x0068eaac      4e4e           trap 0xe
       > 0x0068eaae      d040           add.w d0, d0
           0x0068eab0      303b0006       move.w 0x68eab8(pc, d0.w), d0
           0x0068eab4      4efb0002       jmp 0x68eab8(pc, d0.w)
            0x0068eab8      000a000e       
            0x0068eab9      0a000e00       eori.b 0x0, d0
            0x0068eabd      1200           move.b d0, d1
            0x0068eabf      1600           move.b d0, d3
            0x0068eac1      1a7e0460       
            0x0068eac2      7e04           moveq 0x4, d7
        < 0x0068eac4      600e           bra.b 0x68ead4
           0x0068eac6      7e00           moveq 0x0, d7
       < 0x0068eac8      600a           bra.b 0x68ead4
          0x0068eaca      7e01           moveq 0x1, d7
      < 0x0068eacc      6006           bra.b 0x68ead4
         0x0068eace      7e02           moveq 0x2, d7
     < 0x0068ead0      6002           bra.b 0x68ead4
        0x0068ead2      7e03           moveq 0x3, d7
     > 0x0068ead4      4887           ext.w d7
            0x0068ead6      3007           move.w d7, d0
            0x0068ead8      0c400004       cmpi.w 0x4, d0
        < 0x0068eadc      6302           bls.b 0x68eae0
           0x0068eade      4e4e           trap 0xe
        > 0x0068eae0      d040           add.w d0, d0
            0x0068eae2      303b0006       move.w 0x68eaea(pc, d0.w), d0
            0x0068eae6      4efb0002       jmp 0x68eaea(pc, d0.w)
            0x0068eaea      00660066       ori.w 0x66, -(a6)
            0x0068eaee      000a00de       
            0x0068eaef      0a00de00       eori.b 0x0, d0
            0x0068eaf3      e455           roxr.w 0x2, d5
            0x0068eaf5      4f4eb900       
            0x0068eaf6      4eb90043cc02   jsr G1_INPUT.g_end_of_line
            0x0068eafc      4a1f           tst.b (a7)+
        < 0x0068eafe      6712           beq.b 0x68eb12
           0x0068eb00      594f           subq.w 0x4, a7
           0x0068eb02      2f3c00010000   move.l 0x10000, -(a7)
           0x0068eb08      4eb9005fb938   jsr F6_VOLUME.f_vol_on
           0x0068eb0e      584f           addq.w 0x4, a7
       < 0x0068eb10      600c           bra.b 0x68eb1e
       > 0x0068eb12      594f           subq.w 0x4, a7
           0x0068eb14      4227           clr.b -(a7)
           0x0068eb16      4eb9006183e6   jsr F21_COMMAND.read_vol
           0x0068eb1c      544f           addq.w 0x2, a7
       > 0x0068eb1e      2e1f           move.l (a7)+, d7
            0x0068eb20      4a87           tst.l d7
        < 0x0068eb22      6620           bne.b 0x68eb44
           0x0068eb24      2f3ad5ac       move.l 0x68c0d2(pc), -(a7)
           0x0068eb28      2f3ad5a4       move.l 0x68c0ce(pc), -(a7)
           0x0068eb2c      2f3ad59c       move.l 0x68c0ca(pc), -(a7)
           0x0068eb30      2f3ad594       move.l 0x68c0c6(pc), -(a7)
           0x0068eb34      3f3ad58e       move.w 0x68c0c4(pc), -(a7)
           0x0068eb38      4857           pea.l (a7)
           0x0068eb3a      3f01           move.w d1, -(a7)
           0x0068eb3c      3f05           move.w d5, -(a7)
           0x0068eb3e      4e92           jsr (a2)                    ; fcn.00000009+0x2
           0x0068eb40      defc001a       adda.w 0x1a, a7
        > 0x0068eb44      2f07           move.l d7, -(a7)
            0x0068eb46      4ebafb76       jsr BOOTCOM.check_boot_list(pc)
            0x0068eb4a      584f           addq.w 0x4, a7
        < 0x0068eb4c      6000009e       bra.w 0x68ebec
           0x0068eb50      594f           subq.w 0x4, a7
           0x0068eb52      48780001       pea.l 0x1
           0x0068eb56      48780000       pea.l 0x0
           0x0068eb5a      4eb90043e376   jsr G2_EXPRESSION.g_number
           0x0068eb60      504f           addq.w 0x8, a7
           0x0068eb62      2d57ffda       move.l (a7), -0x26(a6)
           0x0068eb66      5d4f           subq.w 0x6, a7
           0x0068eb68      4eb90061885c   jsr F21_COMMAND.f_get_fid
           0x0068eb6e      2d5ffff4       move.l (a7)+, -0xc(a6)
           0x0068eb72      2d5ffff8       move.l (a7)+, -0x8(a6)
           0x0068eb76      3d5ffffc       move.w (a7)+, -0x4(a6)
           0x0068eb7a      2d41ffd6       move.l d1, -0x2a(a6)
           0x0068eb7e      486effd6       pea.l -0x2a(a6)
           0x0068eb82      4ebaee8c       jsr BOOTCOM.read_boot_list_(pc)
           0x0068eb86      584f           addq.w 0x4, a7
           0x0068eb88      422effff       clr.b -0x1(a6)
           0x0068eb8c      2f2efffa       move.l -0x6(a6), -(a7)
           0x0068eb90      2f2efff6       move.l -0xa(a6), -(a7)
           0x0068eb94      3f2efff4       move.w -0xc(a6), -(a7)
           0x0068eb98      2f2effda       move.l -0x26(a6), -(a7)
           0x0068eb9c      1f01           move.b d1, -(a7)
           0x0068eb9e      4227           clr.b -(a7)
           0x0068eba0      4a47           tst.w d7
       < 0x0068eba2      6602           bne.b 0x68eba6
          0x0068eba4      5217           addq.b 0x1, (a7)
       > 0x0068eba6      486effd6       pea.l -0x2a(a6)
           0x0068ebaa      486effff       pea.l -0x1(a6)
           0x0068ebae      4ebaf366       jsr BOOTCOM.check_list(pc)
           0x0068ebb2      defc001a       adda.w 0x1a, a7
           0x0068ebb6      4a2effff       tst.b -0x1(a6)
       < 0x0068ebba      670a           beq.b 0x68ebc6
          0x0068ebbc      486effd6       pea.l -0x2a(a6)
          0x0068ebc0      4ebaf16a       jsr BOOTCOM.write_boot_list(pc)
          0x0068ebc4      584f           addq.w 0x4, a7
      > 0x0068ebc6      6024           bra.b 0x68ebec
          0x0068ebc8      4ebafd5e       jsr BOOTCOM.list_boot_list(pc)
      < 0x0068ebcc      601e           bra.b 0x68ebec
         0x0068ebce      4ebafd58       jsr BOOTCOM.list_boot_list(pc)
         0x0068ebd2      9ec2           suba.w d2, a7
         0x0068ebd4      204f           movea.l a7, a0
         0x0068ebd6      43fad4ff       lea.l 0x68c0d7(pc), a1
         0x0068ebda      7042           moveq 0x42, d0
     > 0x0068ebdc      10d9           move.b (a1)+, (a0)+
     < 0x0068ebde      51c8fffc       dbra d0, 0x68ebdc
         0x0068ebe2      4857           pea.l (a7)
         0x0068ebe4      3f01           move.w d1, -(a7)
         0x0068ebe6      3f03           move.w d3, -(a7)
         0x0068ebe8      4e92           jsr (a2)                    ; fcn.00000009+0x2
         0x0068ebea      dec4           adda.w d4, a7
      > 0x0068ebec      4cdf07ff       movem.l (a7)+, d0-d7/a0-a2
            0x0068ebf0      4e5e           unlk a6
            0x0068ebf2      4e75           rts
            ; XREFS(46)
 112: BOOTCOM.my_box_error ();
           ; var int32_t var_8h @ a7+0x8
           0x0068ebf4      4e56fee2       link.w a6, 0xfee2
           0x0068ebf8      bfd5           cmpa.l (a5), a7
       < 0x0068ebfa      6206           bhi.b 0x68ec02
          0x0068ebfc      44fc0002       move.w 0x2, ccr
          0x0068ec00      4e76           trapv
       > 0x0068ec02      defc011e       adda.w 0x11e, a7
           0x0068ec06      48e780c0       movem.l d0/a0-a1, -(a7)
           0x0068ec0a      4a6e0108       tst.w 0x108(a6)
       < 0x0068ec0e      6620           bne.b 0x68ec30
          0x0068ec10      486e0009       pea.l 0x9(a6)
          0x0068ec14      42a7           clr.l -(a7)
          0x0068ec16      1f6e00080003   move.b 0x8(a6), 0x3(a7)
          0x0068ec1c      2f17           move.l (a7), -(a7)
          0x0068ec1e      4eb9004047ea   jsr p_wts_o
          0x0068ec24      defc000c       adda.w 0xc, a7
          0x0068ec28      4eb900404946   jsr p_wtln_o
      < 0x0068ec2e      602c           bra.b 0x68ec5c
      > 0x0068ec30      9efc0100       suba.w 0x100, a7
          0x0068ec34      204f           movea.l a7, a0
          0x0068ec36      43ee0008       lea.l 0x8(a6), a1
          0x0068ec3a      703f           moveq 0x3f, d0
      > 0x0068ec3c      20d9           move.l (a1)+, (a0)+
      < 0x0068ec3e      51c8fffc       dbra d0, 0x68ec3c
          0x0068ec42      3f2e0108       move.w 0x108(a6), -(a7)
          0x0068ec46      486f0002       pea.l 0x2(a7)
          0x0068ec4a      48780000       pea.l 0x0
          0x0068ec4e      487800ff       pea.l 0xff
          0x0068ec52      4eb900483af8   jsr MENUCOM.box_error
          0x0068ec58      defc010e       adda.w 0x10e, a7
      > 0x0068ec5c      4cdf0301       movem.l (a7)+, d0/a0-a1
           0x0068ec60      4e5e           unlk a6
           0x0068ec62      4e75           rts
            ; CALL XREF from BOOTCOM.make_floppy @ 0x690d8c
            ; CALL XREF from BOOTCOM.load_sw @ 0x6917a2
            ; CALL XREF from BOOTCOM.make_magopt @ 0x691ea6
            ; CALL XREF from BOOTCOM.copy_boot @ 0x692b0e
 110: BOOTCOM.my_text_all ();
           ; var int32_t var_8h @ a7+0x8
           0x0068ec64      4e56fee6       link.w a6, 0xfee6
           0x0068ec68      bfd5           cmpa.l (a5), a7
       < 0x0068ec6a      6206           bhi.b 0x68ec72
          0x0068ec6c      44fc0002       move.w 0x2, ccr
          0x0068ec70      4e76           trapv
       > 0x0068ec72      defc011a       adda.w 0x11a, a7
           0x0068ec76      48e780c0       movem.l d0/a0-a1, -(a7)
           0x0068ec7a      4a6e0108       tst.w 0x108(a6)
       < 0x0068ec7e      6620           bne.b 0x68eca0
          0x0068ec80      486e0009       pea.l 0x9(a6)
          0x0068ec84      42a7           clr.l -(a7)
          0x0068ec86      1f6e00080003   move.b 0x8(a6), 0x3(a7)
          0x0068ec8c      2f17           move.l (a7), -(a7)
          0x0068ec8e      4eb9004047ea   jsr p_wts_o
          0x0068ec94      defc000c       adda.w 0xc, a7
          0x0068ec98      4eb900404946   jsr p_wtln_o
      < 0x0068ec9e      602a           bra.b 0x68ecca
      > 0x0068eca0      9efc0100       suba.w 0x100, a7
          0x0068eca4      204f           movea.l a7, a0
          0x0068eca6      43ee0008       lea.l 0x8(a6), a1
          0x0068ecaa      703f           moveq 0x3f, d0
      > 0x0068ecac      20d9           move.l (a1)+, (a0)+
      < 0x0068ecae      51c8fffc       dbra d0, 0x68ecac
          0x0068ecb2      3f2e0108       move.w 0x108(a6), -(a7)
          0x0068ecb6      486f0002       pea.l 0x2(a7)
          0x0068ecba      4267           clr.w -(a7)
          0x0068ecbc      3f3c00ff       move.w 0xff, -(a7)
          0x0068ecc0      4eb900481c8e   jsr MENUCOM.add_text_all
          0x0068ecc6      defc010a       adda.w 0x10a, a7
      > 0x0068ecca      4cdf0301       movem.l (a7)+, d0/a0-a1
           0x0068ecce      4e5e           unlk a6
           0x0068ecd0      4e75           rts
            ; CALL XREF from BOOTCOM.write_floppy_pa @ 0x692c9e
 222: BOOTCOM.get_passwords ();
           ; var int32_t var_2be8h @ a6-0x2be8
           ; var int32_t var_2be6h @ a6-0x2be6
           ; var int32_t var_8h @ a7+0x8
           0x0068ecd2      4e56fec2       link.w a6, 0xfec2
           0x0068ecd6      bfd5           cmpa.l (a5), a7
       < 0x0068ecd8      6206           bhi.b 0x68ece0
          0x0068ecda      44fc0002       move.w 0x2, ccr
          0x0068ecde      4e76           trapv
       > 0x0068ece0      defc0130       adda.w 0x130, a7
           0x0068ece4      48e7c0f8       movem.l d0-d1/a0-a4, -(a7)
           0x0068ece8      47eefffc       lea.l -0x4(a6), a3
           0x0068ecec      49eefff2       lea.l -0xe(a6), a4
           0x0068ecf0      323c0100       move.w 0x100, d1
           0x0068ecf4      422e0010       clr.b 0x10(a6)
           0x0068ecf8      206e0008       movea.l 0x8(a6), a0
           0x0068ecfc      4210           clr.b (a0)
           0x0068ecfe      28bad41a       move.l 0x68c11a(pc), (a4)
           0x0068ed02      2d7ad41afff6   move.l 0x68c11e(pc), -0xa(a6)
           0x0068ed08      3d7ad418fffa   move.w 0x68c122(pc), -0x6(a6)
           0x0068ed0e      28ae000c       move.l 0xc(a6), (a4)
           0x0068ed12      26bcffff0001   move.l 0xffff0001, (a3)
           0x0068ed18      554f           subq.w 0x2, a7
           0x0068ed1a      2f2efff8       move.l -0x8(a6), -(a7)
           0x0068ed1e      2f2efff4       move.l -0xc(a6), -(a7)
           0x0068ed22      3f14           move.w (a4), -(a7)
           0x0068ed24      4227           clr.b -(a7)
           0x0068ed26      4853           pea.l (a3)
           0x0068ed28      4eb9006082de   jsr F10_FILELIST.f_get_header
           0x0068ed2e      defc0010       adda.w 0x10, a7
           0x0068ed32      4a1f           tst.b (a7)+
       < 0x0068ed34      6642           bne.b 0x68ed78
          0x0068ed36      9ec1           suba.w d1, a7
          0x0068ed38      4eb900408ec0   jsr p_err_string
          0x0068ed3e      487ad3e5       pea.l 0x68c125(pc)
          0x0068ed42      48780015       pea.l 0x15
          0x0068ed46      2f17           move.l (a7), -(a7)
          0x0068ed48      4eb9004047ea   jsr p_wts_o
          0x0068ed4e      defc000c       adda.w 0xc, a7
          0x0068ed52      486f0001       pea.l 0x1(a7)
          0x0068ed56      42a7           clr.l -(a7)
          0x0068ed58      1f6f00080003   move.b 0x8(a7), 0x3(a7)
          0x0068ed5e      2f17           move.l (a7), -(a7)
          0x0068ed60      4eb9004047ea   jsr p_wts_o
          0x0068ed66      defc010c       adda.w 0x10c, a7
          0x0068ed6a      4eb900404946   jsr p_wtln_o
          0x0068ed70      4eb900404188   jsr p_Unlink
      < 0x0068ed76      6026           bra.b 0x68ed9e
      > 0x0068ed78      9ec1           suba.w d1, a7
          0x0068ed7a      3f3c0026       move.w 0x26, -(a7)
          0x0068ed7e      2f13           move.l (a3), -(a7)
          0x0068ed80      4eb9005eed64   jsr f_get_string
          0x0068ed86      5c4f           addq.w 0x6, a7
          0x0068ed88      2248           movea.l a0, a1
          0x0068ed8a      244f           movea.l a7, a2
          0x0068ed8c      303c00ff       move.w 0xff, d0
      > 0x0068ed90      12da           move.b (a2)+, (a1)+
      < 0x0068ed92      51c8fffc       dbra d0, 0x68ed90
          0x0068ed96      dec1           adda.w d1, a7
          0x0068ed98      1d7c00010010   move.b 0x1, 0x10(a6)
      > 0x0068ed9e      4853           pea.l (a3)
           0x0068eda0      4eb90060500e   jsr F9_FILERDWRT.f_free_block
           0x0068eda6      584f           addq.w 0x4, a7
           0x0068eda8      4cdf1f03       movem.l (a7)+, d0-d1/a0-a4
           0x0068edac      4e5e           unlk a6
           0x0068edae      4e75           rts
            ; CALL XREF from BOOTCOM.write_floppy_pa @ 0x692cd2
 214: BOOTCOM.set_passwords ();
           ; var int32_t var_2c9ch @ a6-0x2c9c
           ; var int32_t var_2c9ah @ a6-0x2c9a
           ; var int32_t var_8h @ a7+0x8
           0x0068edb0      4e56fed2       link.w a6, 0xfed2
           0x0068edb4      bfd5           cmpa.l (a5), a7
       < 0x0068edb6      6206           bhi.b 0x68edbe
          0x0068edb8      44fc0002       move.w 0x2, ccr
          0x0068edbc      4e76           trapv
       > 0x0068edbe      defc0120       adda.w 0x120, a7
           0x0068edc2      48e780e0       movem.l d0/a0-a2, -(a7)
           0x0068edc6      43eefffc       lea.l -0x4(a6), a1
           0x0068edca      45eefff2       lea.l -0xe(a6), a2
           0x0068edce      422e0010       clr.b 0x10(a6)
           0x0068edd2      24bad366       move.l 0x68c13a(pc), (a2)
           0x0068edd6      2d7ad366fff6   move.l 0x68c13e(pc), -0xa(a6)
           0x0068eddc      3d7ad364fffa   move.w 0x68c142(pc), -0x6(a6)
           0x0068ede2      24ae000c       move.l 0xc(a6), (a2)
           0x0068ede6      22bcffff0001   move.l 0xffff0001, (a1)
           0x0068edec      554f           subq.w 0x2, a7
           0x0068edee      2f2efff8       move.l -0x8(a6), -(a7)
           0x0068edf2      2f2efff4       move.l -0xc(a6), -(a7)
           0x0068edf6      3f12           move.w (a2), -(a7)
           0x0068edf8      1f3c0001       move.b 0x1, -(a7)
           0x0068edfc      4851           pea.l (a1)
           0x0068edfe      4eb9006082de   jsr F10_FILELIST.f_get_header
           0x0068ee04      defc0010       adda.w 0x10, a7
           0x0068ee08      4a1f           tst.b (a7)+
       < 0x0068ee0a      6644           bne.b 0x68ee50
          0x0068ee0c      9efc0100       suba.w 0x100, a7
          0x0068ee10      4eb900408ec0   jsr p_err_string
          0x0068ee16      487ad32d       pea.l 0x68c145(pc)
          0x0068ee1a      48780015       pea.l 0x15
          0x0068ee1e      2f17           move.l (a7), -(a7)
          0x0068ee20      4eb9004047ea   jsr p_wts_o
          0x0068ee26      defc000c       adda.w 0xc, a7
          0x0068ee2a      486f0001       pea.l 0x1(a7)
          0x0068ee2e      42a7           clr.l -(a7)
          0x0068ee30      1f6f00080003   move.b 0x8(a7), 0x3(a7)
          0x0068ee36      2f17           move.l (a7), -(a7)
          0x0068ee38      4eb9004047ea   jsr p_wts_o
          0x0068ee3e      defc010c       adda.w 0x10c, a7
          0x0068ee42      4eb900404946   jsr p_wtln_o
          0x0068ee48      4eb900404188   jsr p_Unlink
      < 0x0068ee4e      6024           bra.b 0x68ee74
      > 0x0068ee50      554f           subq.w 0x2, a7
          0x0068ee52      3f3c0026       move.w 0x26, -(a7)
          0x0068ee56      2f11           move.l (a1), -(a7)
          0x0068ee58      206e0008       movea.l 0x8(a6), a0
          0x0068ee5c      4850           pea.l (a0)
          0x0068ee5e      4eb9005eedf6   jsr f_put_string
          0x0068ee64      defc000a       adda.w 0xa, a7
          0x0068ee68      101f           move.b (a7)+, d0
          0x0068ee6a      4880           ext.w d0
          0x0068ee6c      41bc0001       chk.w 0x1, d0
          0x0068ee70      1d400010       move.b d0, 0x10(a6)
      > 0x0068ee74      4851           pea.l (a1)
           0x0068ee76      4eb90060500e   jsr F9_FILERDWRT.f_free_block
           0x0068ee7c      584f           addq.w 0x4, a7
           0x0068ee7e      4cdf0701       movem.l (a7)+, d0/a0-a2
           0x0068ee82      4e5e           unlk a6
           0x0068ee84      4e75           rts
 220: BOOTCOM.install_passwor ();
           0x0068ee86      4e56fd74       link.w a6, 0xfd74
           0x0068ee8a      bfd5           cmpa.l (a5), a7
       < 0x0068ee8c      6206           bhi.b 0x68ee94
          0x0068ee8e      44fc0002       move.w 0x2, ccr
          0x0068ee92      4e76           trapv
       > 0x0068ee94      defc013a       adda.w 0x13a, a7
           0x0068ee98      48e7dbf0       movem.l d0-d1/d3-d4/d6-d7/a0-a3, -(a7)
           0x0068ee9c      47eefeae       lea.l -0x152(a6), a3
           0x0068eea0      7212           moveq 0x12, d1
           0x0068eea2      554f           subq.w 0x2, a7
           0x0068eea4      486effb6       pea.l -0x4a(a6)
           0x0068eea8      4eb900404434   jsr fcn.00404434
           0x0068eeae      584f           addq.w 0x4, a7
           0x0068eeb0      4a1f           tst.b (a7)+
       < 0x0068eeb2      670000a6       beq.w 0x68ef5a
          0x0068eeb6      206e000a       movea.l 0xa(a6), a0
          0x0068eeba      226e000a       movea.l 0xa(a6), a1
          0x0068eebe      4280           clr.l d0
          0x0068eec0      1011           move.b (a1), d0
          0x0068eec2      81c1           divs.w d1, d0
          0x0068eec4      5340           subq.w 0x1, d0
          0x0068eec6      48c0           ext.l d0
          0x0068eec8      2f00           move.l d0, -(a7)
          0x0068eeca      7c00           moveq 0x0, d6
      > 0x0068eecc      bc97           cmp.l (a7), d6
     < 0x0068eece      6e000088       bgt.w 0x68ef58
        0x0068eed2      2806           move.l d6, d4
        0x0068eed4      7612           moveq 0x12, d3
        0x0068eed6      4eb900406a74   jsr fcn.00406a74
        0x0068eedc      7e01           moveq 0x1, d7
    > 0x0068eede      0c87000000ff   cmpi.l 0xff, d7
   < 0x0068eee4      6302           bls.b 0x68eee8
      0x0068eee6      4e4f           trap 0xf
   > 0x0068eee8      224b           movea.l a3, a1
       0x0068eeea      2004           move.l d4, d0
       0x0068eeec      d087           add.l d7, d0
       0x0068eeee      0c80000000ff   cmpi.l 0xff, d0
   < 0x0068eef4      6302           bls.b 0x68eef8
      0x0068eef6      4e4f           trap 0xf
   > 0x0068eef8      13b008007800   move.b (a0, d0.l), (a1, d7.l)
       0x0068eefe      5287           addq.l 0x1, d7
       0x0068ef00      be81           cmp.l d1, d7
    < 0x0068ef02      6fda           ble.b 0x68eede
        0x0068ef04      1681           move.b d1, (a3)
        0x0068ef06      554f           subq.w 0x2, a7
        0x0068ef08      4853           pea.l (a3)
        0x0068ef0a      4eb9004660ec   jsr S8_SECURITY.enter_password
        0x0068ef10      584f           addq.w 0x4, a7
        0x0068ef12      1017           move.b (a7), d0
        0x0068ef14      b03ad245       cmp.b 0x68c15b(pc), d0
    < 0x0068ef18      6608           bne.b 0x68ef22
       0x0068ef1a      102f0001       move.b 0x1(a7), d0
       0x0068ef1e      b03ad23c       cmp.b 0x68c15c(pc), d0
   > 0x0068ef22      6604           bne.b 0x68ef28
       0x0068ef24      544f           addq.w 0x2, a7
   < 0x0068ef26      602a           bra.b 0x68ef52
   > 0x0068ef28      3f2e0008       move.w 0x8(a6), -(a7)
       0x0068ef2c      9efc0100       suba.w 0x100, a7
       0x0068ef30      224f           movea.l a7, a1
       0x0068ef32      45fad229       lea.l 0x68c15d(pc), a2
       0x0068ef36      701b           moveq 0x1b, d0
   > 0x0068ef38      12da           move.b (a2)+, (a1)+
   < 0x0068ef3a      51c8fffc       dbra d0, 0x68ef38
       0x0068ef3e      4ebafcb4       jsr BOOTCOM.my_box_error(pc)
       0x0068ef42      defc0102       adda.w 0x102, a7
       0x0068ef46      486effb6       pea.l -0x4a(a6)
       0x0068ef4a      4eb900404468   jsr fcn.00404468
       0x0068ef50      5c4f           addq.w 0x6, a7
    > 0x0068ef52      5286           addq.l 0x1, d6
     < 0x0068ef54      6800ff76       bvc.w 0x68eecc
     > 0x0068ef58      584f           addq.w 0x4, a7
       > 0x0068ef5a      4cdf0fdb       movem.l (a7)+, d0-d1/d3-d4/d6-d7/a0-a3
           0x0068ef5e      4e5e           unlk a6
           0x0068ef60      4e75           rts
            ; CALL XREF from BOOTCOM.act_blocks @ 0x68f138
            ; CALL XREF from BOOTCOM.unboot @ 0x6925fe
 144: BOOTCOM.get_checksum ();
           0x0068ef62      4e56ffb8       link.w a6, 0xffb8
           0x0068ef66      bfd5           cmpa.l (a5), a7
       < 0x0068ef68      6206           bhi.b 0x68ef70
          0x0068ef6a      44fc0002       move.w 0x2, ccr
          0x0068ef6e      4e76           trapv
       > 0x0068ef70      defc0030       adda.w 0x30, a7
           0x0068ef74      48e7df00       movem.l d0-d1/d3-d7, -(a7)
           0x0068ef78      223c00010000   move.l 0x10000, d1
           0x0068ef7e      594f           subq.w 0x4, a7
           0x0068ef80      4eb900402e30   jsr p_Cur_Ticks
           0x0068ef86      2d5ffff4       move.l (a7)+, -0xc(a6)
           0x0068ef8a      282e0008       move.l 0x8(a6), d4
           0x0068ef8e      2601           move.l d1, d3
           0x0068ef90      4eb900406b50   jsr fcn.00406b50
           0x0068ef96      2d44ffe8       move.l d4, -0x18(a6)
           0x0068ef9a      2f04           move.l d4, -(a7)
           0x0068ef9c      7c00           moveq 0x0, d6
           0x0068ef9e      7a00           moveq 0x0, d5
       > 0x0068efa0      ba84           cmp.l d4, d5
      < 0x0068efa2      6e40           bgt.b 0x68efe4
         0x0068efa4      baaeffe8       cmp.l -0x18(a6), d5
     < 0x0068efa8      6610           bne.b 0x68efba
        0x0068efaa      282e0008       move.l 0x8(a6), d4
        0x0068efae      2601           move.l d1, d3
        0x0068efb0      4eb900406b50   jsr fcn.00406b50
        0x0068efb6      2e03           move.l d3, d7
    < 0x0068efb8      6002           bra.b 0x68efbc
    > 0x0068efba      2e01           move.l d1, d7
    > 0x0068efbc      594f           subq.w 0x4, a7
         0x0068efbe      2005           move.l d5, d0
         0x0068efc0      e180           asl.l 0x8, d0
         0x0068efc2      e180           asl.l 0x8, d0
         0x0068efc4      e380           asl.l 0x1, d0
         0x0068efc6      d0ae000c       add.l 0xc(a6), d0
         0x0068efca      2f00           move.l d0, -(a7)
         0x0068efcc      2f07           move.l d7, -(a7)
         0x0068efce      4eb9006d1be6   jsr ADDWORDS
         0x0068efd4      504f           addq.w 0x8, a7
         0x0068efd6      2d5ffff8       move.l (a7)+, -0x8(a6)
         0x0068efda      dcaefff8       add.l -0x8(a6), d6
         0x0068efde      2817           move.l (a7), d4
         0x0068efe0      5285           addq.l 0x1, d5
      < 0x0068efe2      68bc           bvc.b 0x68efa0
      > 0x0068efe4      584f           addq.w 0x4, a7
           0x0068efe6      2d460010       move.l d6, 0x10(a6)
           0x0068efea      4cdf00fb       movem.l (a7)+, d0-d1/d3-d7
           0x0068efee      4e5e           unlk a6
           0x0068eff0      4e75           rts
            ; CALL XREF from BOOTCOM.load_removable_ @ 0x68fd94
            ; CALL XREF from BOOTCOM.checksum_remova @ 0x68ff96
            ; CALL XREF from BOOTCOM.create_and_copy @ 0x690866
            ; CALL XREF from BOOTCOM.check_floppy @ 0x6910bc
 436: BOOTCOM.act_blocks ();
           ; var int32_t var_8h @ a7+0x8
           0x0068eff2      4e56fe44       link.w a6, 0xfe44
           0x0068eff6      bfd5           cmpa.l (a5), a7
       < 0x0068eff8      6206           bhi.b 0x68f000
          0x0068effa      44fc0002       move.w 0x2, ccr
          0x0068effe      4e76           trapv
       > 0x0068f000      defc014e       adda.w 0x14e, a7
           0x0068f004      48e7fff8       movem.l d0-d7/a0-a4, -(a7)
           0x0068f008      49f9004047ea   lea.l p_wts_o, a4
           0x0068f00e      343c0100       move.w 0x100, d2
           0x0068f012      363c0102       move.w 0x102, d3
           0x0068f016      780c           moveq 0xc, d4
           0x0068f018      422e0026       clr.b 0x26(a6)
           0x0068f01c      486effa2       pea.l -0x5e(a6)
           0x0068f020      2f3c00010000   move.l 0x10000, -(a7)
           0x0068f026      4eb900403a92   jsr p_New
           0x0068f02c      504f           addq.w 0x8, a7
           0x0068f02e      102e0024       move.b 0x24(a6), d0
           0x0068f032      b003           cmp.b d3, d0
       < 0x0068f034      6612           bne.b 0x68f048
          0x0068f036      486effa6       pea.l -0x5a(a6)
          0x0068f03a      2f3c00010000   move.l 0x10000, -(a7)
          0x0068f040      4eb900403a92   jsr p_New
          0x0068f046      504f           addq.w 0x8, a7
       > 0x0068f048      206e000c       movea.l 0xc(a6), a0
           0x0068f04c      4290           clr.l (a0)
           0x0068f04e      206e0008       movea.l 0x8(a6), a0
           0x0068f052      4290           clr.l (a0)
           0x0068f054      2d7c00000001.  move.l 0x1, -0x6a(a6)
           0x0068f05c      554f           subq.w 0x2, a7
           0x0068f05e      486effb6       pea.l -0x4a(a6)
           0x0068f062      4eb900404434   jsr fcn.00404434
           0x0068f068      584f           addq.w 0x4, a7
           0x0068f06a      4a1f           tst.b (a7)+
       < 0x0068f06c      670003a6       beq.w 0x68f414
          0x0068f070      206e000c       movea.l 0xc(a6), a0
          0x0068f074      226e0020       movea.l 0x20(a6), a1
      > 0x0068f078      4aae0018       tst.l 0x18(a6)
     < 0x0068f07c      6f000390       ble.w 0x68f40e
        0x0068f080      202e0018       move.l 0x18(a6), d0
        0x0068f084      0c8000000040   cmpi.l 0x40, d0
    < 0x0068f08a      6c04           bge.b 0x68f090
       0x0068f08c      2e00           move.l d0, d7
   < 0x0068f08e      6002           bra.b 0x68f092
   > 0x0068f090      7e40           moveq 0x40, d7
   > 0x0068f092      202e0014       move.l 0x14(a6), d0
        0x0068f096      0c8000008000   cmpi.l 0x8000, d0
    < 0x0068f09c      6c04           bge.b 0x68f0a2
       0x0068f09e      2c00           move.l d0, d6
   < 0x0068f0a0      6006           bra.b 0x68f0a8
   > 0x0068f0a2      2c3c00008000   move.l 0x8000, d6
   > 0x0068f0a8      42aeff9e       clr.l -0x62(a6)
        0x0068f0ac      554f           subq.w 0x2, a7
        0x0068f0ae      2f11           move.l (a1), -(a7)
        0x0068f0b0      2f07           move.l d7, -(a7)
        0x0068f0b2      2f2effa2       move.l -0x5e(a6), -(a7)
        0x0068f0b6      48780000       pea.l 0x0
        0x0068f0ba      486eff9e       pea.l -0x62(a6)
        0x0068f0be      4eb900604854   jsr F9_FILERDWRT.f_read_blocks
        0x0068f0c4      defc0014       adda.w 0x14, a7
        0x0068f0c8      4a1f           tst.b (a7)+
    < 0x0068f0ca      6664           bne.b 0x68f130
       0x0068f0cc      9ec2           suba.w d2, a7
       0x0068f0ce      4eb900408ec0   jsr p_err_string
       0x0068f0d4      487ad0c9       pea.l 0x68c19f(pc)
       0x0068f0d8      4878001d       pea.l 0x1d
       0x0068f0dc      2f17           move.l (a7), -(a7)
       0x0068f0de      4e94           jsr (a4)                    ; fcn.0000000d
       0x0068f0e0      dec4           adda.w d4, a7
       0x0068f0e2      486f0001       pea.l 0x1(a7)
       0x0068f0e6      42a7           clr.l -(a7)
       0x0068f0e8      1f6f00080003   move.b 0x8(a7), 0x3(a7)
       0x0068f0ee      2f17           move.l (a7), -(a7)
       0x0068f0f0      4e94           jsr (a4)                    ; fcn.0000000d
       0x0068f0f2      defc010c       adda.w 0x10c, a7
       0x0068f0f6      4eb900404946   jsr p_wtln_o
       0x0068f0fc      4eb900404188   jsr p_Unlink
       0x0068f102      4a6e0012       tst.w 0x12(a6)
   < 0x0068f106      671c           beq.b 0x68f124
      0x0068f108      3f2e0012       move.w 0x12(a6), -(a7)
      0x0068f10c      9ec2           suba.w d2, a7
      0x0068f10e      244f           movea.l a7, a2
      0x0068f110      47fad0aa       lea.l 0x68c1bc(pc), a3
      0x0068f114      7005           moveq 0x5, d0
  > 0x0068f116      24db           move.l (a3)+, (a2)+
  < 0x0068f118      51c8fffc       dbra d0, 0x68f116
      0x0068f11c      14db           move.b (a3)+, (a2)+
      0x0068f11e      4ebafad4       jsr BOOTCOM.my_box_error(pc)
      0x0068f122      dec3           adda.w d3, a7
   > 0x0068f124      486effb6       pea.l -0x4a(a6)
       0x0068f128      4eb900404468   jsr fcn.00404468
       0x0068f12e      584f           addq.w 0x4, a7
    > 0x0068f130      594f           subq.w 0x4, a7
        0x0068f132      2f2effa2       move.l -0x5e(a6), -(a7)
        0x0068f136      2f06           move.l d6, -(a7)
        0x0068f138      4ebafe28       jsr BOOTCOM.get_checksum(pc)
        0x0068f13c      504f           addq.w 0x8, a7
        0x0068f13e      2d5fffaa       move.l (a7)+, -0x56(a6)
        0x0068f142      2010           move.l (a0), d0
        0x0068f144      d0aeffaa       add.l -0x56(a6), d0
        0x0068f148      2080           move.l d0, (a0)
        0x0068f14a      beaeff9e       cmp.l -0x62(a6), d7
    < 0x0068f14e      673e           beq.b 0x68f18e
       0x0068f150      487ad09b       pea.l 0x68c1ed(pc)
       0x0068f154      48780012       pea.l 0x12
       0x0068f158      2f17           move.l (a7), -(a7)
       0x0068f15a      4e94           jsr (a4)                    ; fcn.0000000d
       0x0068f15c      504f           addq.w 0x8, a7
       0x0068f15e      2eaeff9e       move.l -0x62(a6), (a7)
       0x0068f162      4878000c       pea.l 0xc
       0x0068f166      4eb9004070e4   jsr p_wti_o
       0x0068f16c      584f           addq.w 0x4, a7
       0x0068f16e      2e87           move.l d7, (a7)
       0x0068f170      4878000c       pea.l 0xc
       0x0068f174      4eb9004070e4   jsr p_wti_o
       0x0068f17a      504f           addq.w 0x8, a7
       0x0068f17c      4eb900404946   jsr p_wtln_o
       0x0068f182      486effb6       pea.l -0x4a(a6)
       0x0068f186      4eb900404468   jsr fcn.00404468
       0x0068f18c      584f           addq.w 0x4, a7
    > 0x0068f18e      102e0024       move.b 0x24(a6), d0
        0x0068f192      4880           ext.w d0
        0x0068f194      0c400002       cmpi.w 0x2, d0
    < 0x0068f198      6302           bls.b 0x68f19c
       0x0068f19a      4e4e           trap 0xe
    > 0x0068f19c      d040           add.w d0, d0
        0x0068f19e      303b0006       move.w 0x68f1a6(pc, d0.w), d0
        0x0068f1a2      4efb0002       jmp 0x68f1a6(pc, d0.w)
         0x0068f1a6      0006008e       ori.b 0x8e, d6
         0x0068f1aa      0092554f246e   ori.l 0x554f246e, (a2)
         0x0068f1b0      001c2f12       ori.b 0x12, (a4)+
         0x0068f1b4      2f07           move.l d7, -(a7)
         0x0068f1b6      2f2effa2       move.l -0x5e(a6), -(a7)
         0x0068f1ba      48780000       pea.l 0x0
         0x0068f1be      4eb9006049ac   jsr F9_FILERDWRT.f_write_blocks
         0x0068f1c4      defc0010       adda.w 0x10, a7
         0x0068f1c8      4a1f           tst.b (a7)+
     < 0x0068f1ca      6664           bne.b 0x68f230
        0x0068f1cc      9ec2           suba.w d2, a7
        0x0068f1ce      4eb900408ec0   jsr p_err_string
        0x0068f1d4      487ad02a       pea.l 0x68c200(pc)
        0x0068f1d8      4878001e       pea.l 0x1e
        0x0068f1dc      2f17           move.l (a7), -(a7)
        0x0068f1de      4e94           jsr (a4)                    ; fcn.0000000d
        0x0068f1e0      dec4           adda.w d4, a7
        0x0068f1e2      486f0001       pea.l 0x1(a7)
        0x0068f1e6      42a7           clr.l -(a7)
        0x0068f1e8      1f6f00080003   move.b 0x8(a7), 0x3(a7)
        0x0068f1ee      2f17           move.l (a7), -(a7)
        0x0068f1f0      4e94           jsr (a4)                    ; fcn.0000000d
        0x0068f1f2      defc010c       adda.w 0x10c, a7
        0x0068f1f6      4eb900404946   jsr p_wtln_o
        0x0068f1fc      4eb900404188   jsr p_Unlink
        0x0068f202      4a6e0012       tst.w 0x12(a6)
    < 0x0068f206      671c           beq.b 0x68f224
       0x0068f208      3f2e0010       move.w 0x10(a6), -(a7)
       0x0068f20c      9ec2           suba.w d2, a7
       0x0068f20e      244f           movea.l a7, a2
       0x0068f210      47fad00c       lea.l 0x68c21e(pc), a3
       0x0068f214      7005           moveq 0x5, d0
   > 0x0068f216      24db           move.l (a3)+, (a2)+
   < 0x0068f218      51c8fffc       dbra d0, 0x68f216
       0x0068f21c      14db           move.b (a3)+, (a2)+
       0x0068f21e      4ebaf9d4       jsr BOOTCOM.my_box_error(pc)
       0x0068f222      dec3           adda.w d3, a7
    > 0x0068f224      486effb6       pea.l -0x4a(a6)
        0x0068f228      4eb900404468   jsr fcn.00404468
        0x0068f22e      584f           addq.w 0x4, a7
    > 0x0068f230      600001cc       bra.w 0x68f3fe
    < 0x0068f234      600001c8       bra.w 0x68f3fe
       0x0068f238      42aeff9e       clr.l -0x62(a6)
       0x0068f23c      554f           subq.w 0x2, a7
       0x0068f23e      246e001c       movea.l 0x1c(a6), a2
       0x0068f242      2f12           move.l (a2), -(a7)
       0x0068f244      2f07           move.l d7, -(a7)
       0x0068f246      2f2effa6       move.l -0x5a(a6), -(a7)
       0x0068f24a      48780000       pea.l 0x0
       0x0068f24e      486eff9e       pea.l -0x62(a6)
       0x0068f252      4eb900604854   jsr F9_FILERDWRT.f_read_blocks
       0x0068f258      defc0014       adda.w 0x14, a7
       0x0068f25c      4a1f           tst.b (a7)+
   < 0x0068f25e      6662           bne.b 0x68f2c2
      0x0068f260      9ec2           suba.w d2, a7
      0x0068f262      4eb900408ec0   jsr p_err_string
      0x0068f268      487acfce       pea.l 0x68c238(pc)
      0x0068f26c      48780016       pea.l 0x16
      0x0068f270      2f17           move.l (a7), -(a7)
      0x0068f272      4e94           jsr (a4)                    ; fcn.0000000d
      0x0068f274      dec4           adda.w d4, a7
      0x0068f276      486f0001       pea.l 0x1(a7)
      0x0068f27a      42a7           clr.l -(a7)
      0x0068f27c      1f6f00080003   move.b 0x8(a7), 0x3(a7)
      0x0068f282      2f17           move.l (a7), -(a7)
      0x0068f284      4e94           jsr (a4)                    ; fcn.0000000d
      0x0068f286      defc010c       adda.w 0x10c, a7
      0x0068f28a      4eb900404946   jsr p_wtln_o
      0x0068f290      4eb900404188   jsr p_Unlink
      0x0068f296      4a6e0012       tst.w 0x12(a6)
  < 0x0068f29a      671a           beq.b 0x68f2b6
     0x0068f29c      3f2e0012       move.w 0x12(a6), -(a7)
     0x0068f2a0      9ec2           suba.w d2, a7
     0x0068f2a2      244f           movea.l a7, a2
     0x0068f2a4      47facfa8       lea.l 0x68c24e(pc), a3
     0x0068f2a8      7007           moveq 0x7, d0
  > 0x0068f2aa      24db           move.l (a3)+, (a2)+
  < 0x0068f2ac      51c8fffc       dbra d0, 0x68f2aa
     0x0068f2b0      4ebaf942       jsr BOOTCOM.my_box_error(pc)
     0x0068f2b4      dec3           adda.w d3, a7
  > 0x0068f2b6      486effb6       pea.l -0x4a(a6)
      0x0068f2ba      4eb900404468   jsr fcn.00404468
      0x0068f2c0      584f           addq.w 0x4, a7
   > 0x0068f2c2      beaeff9e       cmp.l -0x62(a6), d7
   < 0x0068f2c6      673e           beq.b 0x68f306
      0x0068f2c8      487acfa5       pea.l 0x68c26f(pc)
      0x0068f2cc      48780012       pea.l 0x12
      0x0068f2d0      2f17           move.l (a7), -(a7)
      0x0068f2d2      4e94           jsr (a4)                    ; fcn.0000000d
      0x0068f2d4      504f           addq.w 0x8, a7
      0x0068f2d6      2eaeff9e       move.l -0x62(a6), (a7)
      0x0068f2da      4878000c       pea.l 0xc
      0x0068f2de      4eb9004070e4   jsr p_wti_o
      0x0068f2e4      584f           addq.w 0x4, a7
      0x0068f2e6      2e87           move.l d7, (a7)
      0x0068f2e8      4878000c       pea.l 0xc
      0x0068f2ec      4eb9004070e4   jsr p_wti_o
      0x0068f2f2      504f           addq.w 0x8, a7
      0x0068f2f4      4eb900404946   jsr p_wtln_o
      0x0068f2fa      486effb6       pea.l -0x4a(a6)
      0x0068f2fe      4eb900404468   jsr fcn.00404468
      0x0068f304      584f           addq.w 0x4, a7
   > 0x0068f306      594f           subq.w 0x4, a7
       0x0068f308      2f2effa6       move.l -0x5a(a6), -(a7)
       0x0068f30c      2f06           move.l d6, -(a7)
       0x0068f30e      4ebafc52       jsr BOOTCOM.get_checksum(pc)
       0x0068f312      504f           addq.w 0x8, a7
       0x0068f314      2d5fffae       move.l (a7)+, -0x52(a6)
       0x0068f318      246e0008       movea.l 0x8(a6), a2
       0x0068f31c      2012           move.l (a2), d0
       0x0068f31e      d0aeffae       add.l -0x52(a6), d0
       0x0068f322      2480           move.l d0, (a2)
       0x0068f324      2007           move.l d7, d0
       0x0068f326      e180           asl.l 0x8, d0
       0x0068f328      e380           asl.l 0x1, d0
       0x0068f32a      2f00           move.l d0, -(a7)
       0x0068f32c      7a01           moveq 0x1, d5
   > 0x0068f32e      ba97           cmp.l (a7), d5
  < 0x0068f330      6e000082       bgt.w 0x68f3b4
     0x0068f334      2005           move.l d5, d0
     0x0068f336      5380           subq.l 0x1, d0
     0x0068f338      0c8000007fff   cmpi.l 0x7fff, d0
  < 0x0068f33e      6302           bls.b 0x68f342
     0x0068f340      4e4f           trap 0xf
  > 0x0068f342      e380           asl.l 0x1, d0
     0x0068f344      246effa2       movea.l -0x5e(a6), a2
     0x0068f348      b5eafffc       cmpa.l -0x4(a2), a2
  < 0x0068f34c      6702           beq.b 0x68f350
     0x0068f34e      4e4d           trap 0xd
  > 0x0068f350      266effa6       movea.l -0x5a(a6), a3
     0x0068f354      b7ebfffc       cmpa.l -0x4(a3), a3
  < 0x0068f358      6702           beq.b 0x68f35c
     0x0068f35a      4e4d           trap 0xd
  > 0x0068f35c      32320800       move.w (a2, d0.l), d1
     0x0068f360      b2730800       cmp.w (a3, d0.l), d1
  < 0x0068f364      6748           beq.b 0x68f3ae
     0x0068f366      487acf1a       pea.l 0x68c282(pc)
     0x0068f36a      4878001d       pea.l 0x1d
     0x0068f36e      2f17           move.l (a7), -(a7)
     0x0068f370      4e94           jsr (a4)                    ; fcn.0000000d
     0x0068f372      504f           addq.w 0x8, a7
     0x0068f374      2e85           move.l d5, (a7)
     0x0068f376      48780000       pea.l 0x0
     0x0068f37a      4eb9004070e4   jsr p_wti_o
     0x0068f380      504f           addq.w 0x8, a7
     0x0068f382      4eb900404946   jsr p_wtln_o
     0x0068f388      3f2e0010       move.w 0x10(a6), -(a7)
     0x0068f38c      9ec2           suba.w d2, a7
     0x0068f38e      244f           movea.l a7, a2
     0x0068f390      47facf0d       lea.l 0x68c29f(pc), a3
     0x0068f394      701f           moveq 0x1f, d0
  > 0x0068f396      14db           move.b (a3)+, (a2)+
  < 0x0068f398      51c8fffc       dbra d0, 0x68f396
     0x0068f39c      4ebaf856       jsr BOOTCOM.my_box_error(pc)
     0x0068f3a0      dec3           adda.w d3, a7
     0x0068f3a2      486effb6       pea.l -0x4a(a6)
     0x0068f3a6      4eb900404468   jsr fcn.00404468
     0x0068f3ac      584f           addq.w 0x4, a7
  > 0x0068f3ae      5285           addq.l 0x1, d5
  < 0x0068f3b0      6800ff7c       bvc.w 0x68f32e
  > 0x0068f3b4      584f           addq.w 0x4, a7
       0x0068f3b6      202effaa       move.l -0x56(a6), d0
       0x0068f3ba      b0aeffae       cmp.l -0x52(a6), d0
   < 0x0068f3be      673e           beq.b 0x68f3fe
      0x0068f3c0      487acefe       pea.l 0x68c2c0(pc)
      0x0068f3c4      48780018       pea.l 0x18
      0x0068f3c8      2f17           move.l (a7), -(a7)
      0x0068f3ca      4e94           jsr (a4)                    ; fcn.0000000d
      0x0068f3cc      dec4           adda.w d4, a7
      0x0068f3ce      4eb900404946   jsr p_wtln_o
      0x0068f3d4      3f2e0010       move.w 0x10(a6), -(a7)
      0x0068f3d8      9ec2           suba.w d2, a7
      0x0068f3da      244f           movea.l a7, a2
      0x0068f3dc      47facefa       lea.l 0x68c2d8(pc), a3
      0x0068f3e0      7006           moveq 0x6, d0
  > 0x0068f3e2      24db           move.l (a3)+, (a2)+
  < 0x0068f3e4      51c8fffc       dbra d0, 0x68f3e2
      0x0068f3e8      34db           move.w (a3)+, (a2)+
      0x0068f3ea      14db           move.b (a3)+, (a2)+
      0x0068f3ec      4ebaf806       jsr BOOTCOM.my_box_error(pc)
      0x0068f3f0      dec3           adda.w d3, a7
      0x0068f3f2      486effb6       pea.l -0x4a(a6)
      0x0068f3f6      4eb900404468   jsr fcn.00404468
      0x0068f3fc      584f           addq.w 0x4, a7
   > 0x0068f3fe      9dae0014       sub.l d6, 0x14(a6)
         0x0068f402      9fae0018       sub.l d7, 0x18(a6)
         0x0068f406      52aeff96       addq.l 0x1, -0x6a(a6)
      < 0x0068f40a      6000fc6c       bra.w 0x68f078              ; BOOTCOM.act_blocks+0x86
      > 0x0068f40e      1d7c00010026   move.b 0x1, 0x26(a6)
        > 0x0068f414      486effa2       pea.l -0x5e(a6)
            0x0068f418      2f3c00010000   move.l 0x10000, -(a7)
            0x0068f41e      4eb900403b98   jsr p_Dispos
            0x0068f424      504f           addq.w 0x8, a7
            0x0068f426      102e0024       move.b 0x24(a6), d0
            0x0068f42a      b003           cmp.b d3, d0
        < 0x0068f42c      6612           bne.b 0x68f440
           0x0068f42e      486effa6       pea.l -0x5a(a6)
           0x0068f432      2f3c00010000   move.l 0x10000, -(a7)
           0x0068f438      4eb900403b98   jsr p_Dispos
           0x0068f43e      504f           addq.w 0x8, a7
        > 0x0068f440      4cdf1fff       movem.l (a7)+, d0-d7/a0-a4
            0x0068f444      4e5e           unlk a6
            0x0068f446      4e75           rts
            ; CALL XREF from BOOTCOM.start_read @ 0x68fb8c
            ; CALL XREF from BOOTCOM.make_floppies @ 0x691300
            ; CALL XREF from BOOTCOM.check_floppies @ 0x691b3a
            ; CALL XREF from BOOTCOM.make_magopt @ 0x691e06
 1122: BOOTCOM.start_make ();
           ; var int32_t var_8h @ a7+0x8
           0x0068f448      4e56fe6a       link.w a6, 0xfe6a
           0x0068f44c      bfd5           cmpa.l (a5), a7
       < 0x0068f44e      6206           bhi.b 0x68f456
          0x0068f450      44fc0002       move.w 0x2, ccr
          0x0068f454      4e76           trapv
       > 0x0068f456      defc014c       adda.w 0x14c, a7
           0x0068f45a      48e7fff8       movem.l d0-d7/a0-a4, -(a7)
           0x0068f45e      7a0c           moveq 0xc, d5
           0x0068f460      3c3c0100       move.w 0x100, d6
           0x0068f464      3e3c00ff       move.w 0xff, d7
           0x0068f468      422e0234       clr.b 0x234(a6)
           0x0068f46c      554f           subq.w 0x2, a7
           0x0068f46e      486effb6       pea.l -0x4a(a6)
           0x0068f472      4eb900404434   jsr fcn.00404434
           0x0068f478      584f           addq.w 0x4, a7
           0x0068f47a      4a1f           tst.b (a7)+
       < 0x0068f47c      67000424       beq.w 0x68f8a2
          0x0068f480      206e0018       movea.l 0x18(a6), a0
          0x0068f484      2248           movea.l a0, a1
          0x0068f486      45face8e       lea.l 0x68c316(pc), a2
          0x0068f48a      7008           moveq 0x8, d0
      > 0x0068f48c      12da           move.b (a2)+, (a1)+
      < 0x0068f48e      51c8fffc       dbra d0, 0x68f48c
          0x0068f492      554f           subq.w 0x2, a7
          0x0068f494      2f2e0230       move.l 0x230(a6), -(a7)
          0x0068f498      2f2e022c       move.l 0x22c(a6), -(a7)
          0x0068f49c      3f2e022a       move.w 0x22a(a6), -(a7)
          0x0068f4a0      2f3ac886       move.l 0x68bd28(pc), -(a7)
          0x0068f4a4      2f3ac87e       move.l 0x68bd24(pc), -(a7)
          0x0068f4a8      3f3ac878       move.w 0x68bd22(pc), -(a7)
          0x0068f4ac      4eb9005ef3d2   jsr F2_UTILITY.f_fids_eq
          0x0068f4b2      defc0014       adda.w 0x14, a7
          0x0068f4b6      4a1f           tst.b (a7)+
      < 0x0068f4b8      670000ea       beq.w 0x68f5a4
         0x0068f4bc      487ace62       pea.l 0x68c320(pc)
         0x0068f4c0      48780014       pea.l 0x14
         0x0068f4c4      2f17           move.l (a7), -(a7)
         0x0068f4c6      4eb9004047ea   jsr p_wts_o
         0x0068f4cc      dec5           adda.w d5, a7
         0x0068f4ce      4eb900404946   jsr p_wtln_o
         0x0068f4d4      4240           clr.w d0
         0x0068f4d6      102e0028       move.b 0x28(a6), d0
     < 0x0068f4da      6302           bls.b 0x68f4de
        0x0068f4dc      7000           moveq 0x0, d0
     > 0x0068f4de      5300           subq.b 0x1, d0
     < 0x0068f4e0      6510           bcs.b 0x68f4f2
        0x0068f4e2      43ee0029       lea.l 0x29(a6), a1
        0x0068f4e6      45face4d       lea.l 0x68c335(pc), a2
    > 0x0068f4ea      b30a           cmpm.b (a2)+, (a1)+
    < 0x0068f4ec      56c8fffc       dbne d0, 0x68f4ea
    < 0x0068f4f0      6604           bne.b 0x68f4f6
    > 0x0068f4f2      102e0028       move.b 0x28(a6), d0
    < 0x0068f4f6      67000084       beq.w 0x68f57c
        0x0068f4fa      3f2e0228       move.w 0x228(a6), -(a7)
        0x0068f4fe      9ec6           suba.w d6, a7
        0x0068f500      4240           clr.w d0
        0x0068f502      102e0128       move.b 0x128(a6), d0
        0x0068f506      3200           move.w d0, d1
        0x0068f508      43ef0001       lea.l 0x1(a7), a1
        0x0068f50c      5301           subq.b 0x1, d1
    < 0x0068f50e      650a           bcs.b 0x68f51a
       0x0068f510      45ee0129       lea.l 0x129(a6), a2
   > 0x0068f514      12da           move.b (a2)+, (a1)+
   < 0x0068f516      51c9fffc       dbra d1, 0x68f514
    > 0x0068f51a      720d           moveq 0xd, d1
        0x0068f51c      d200           add.b d0, d1
    < 0x0068f51e      6406           bcc.b 0x68f526
       0x0068f520      4eb900406c8a   jsr p_strovr
    > 0x0068f526      720d           moveq 0xd, d1
        0x0068f528      3407           move.w d7, d2
        0x0068f52a      9440           sub.w d0, d2
        0x0068f52c      b242           cmp.w d2, d1
    < 0x0068f52e      6302           bls.b 0x68f532
       0x0068f530      3202           move.w d2, d1
    > 0x0068f532      1e80           move.b d0, (a7)
        0x0068f534      d317           add.b d1, (a7)
        0x0068f536      45facdfe       lea.l 0x68c336(pc), a2
    > 0x0068f53a      12da           move.b (a2)+, (a1)+
    < 0x0068f53c      51c9fffc       dbra d1, 0x68f53a
        0x0068f540      4240           clr.w d0
        0x0068f542      1017           move.b (a7), d0
        0x0068f544      43ef0001       lea.l 0x1(a7), a1
        0x0068f548      d2c0           adda.w d0, a1
        0x0068f54a      4241           clr.w d1
        0x0068f54c      122e0028       move.b 0x28(a6), d1
        0x0068f550      d200           add.b d0, d1
    < 0x0068f552      6406           bcc.b 0x68f55a
       0x0068f554      4eb900406c8a   jsr p_strovr
    > 0x0068f55a      4241           clr.w d1
        0x0068f55c      122e0028       move.b 0x28(a6), d1
        0x0068f560      3407           move.w d7, d2
        0x0068f562      9440           sub.w d0, d2
        0x0068f564      b242           cmp.w d2, d1
    < 0x0068f566      6302           bls.b 0x68f56a
       0x0068f568      3202           move.w d2, d1
    > 0x0068f56a      d317           add.b d1, (a7)
        0x0068f56c      5301           subq.b 0x1, d1
    < 0x0068f56e      650a           bcs.b 0x68f57a
       0x0068f570      45ee0029       lea.l 0x29(a6), a2
   > 0x0068f574      12da           move.b (a2)+, (a1)+
   < 0x0068f576      51c9fffc       dbra d1, 0x68f574
   > 0x0068f57a      6014           bra.b 0x68f590
    > 0x0068f57c      3f2e0228       move.w 0x228(a6), -(a7)
        0x0068f580      9ec6           suba.w d6, a7
        0x0068f582      224f           movea.l a7, a1
        0x0068f584      45facdbd       lea.l 0x68c343(pc), a2
        0x0068f588      701e           moveq 0x1e, d0
    > 0x0068f58a      12da           move.b (a2)+, (a1)+
    < 0x0068f58c      51c8fffc       dbra d0, 0x68f58a
   > 0x0068f590      4ebaf662       jsr BOOTCOM.my_box_error(pc)
         0x0068f594      defc0102       adda.w 0x102, a7
         0x0068f598      486effb6       pea.l -0x4a(a6)
         0x0068f59c      4eb900404468   jsr fcn.00404468
         0x0068f5a2      584f           addq.w 0x4, a7
      > 0x0068f5a4      554f           subq.w 0x2, a7
          0x0068f5a6      2f2e0230       move.l 0x230(a6), -(a7)
          0x0068f5aa      2f2e022c       move.l 0x22c(a6), -(a7)
          0x0068f5ae      3f2e022a       move.w 0x22a(a6), -(a7)
          0x0068f5b2      4227           clr.b -(a7)
          0x0068f5b4      226e0024       movea.l 0x24(a6), a1
          0x0068f5b8      4851           pea.l (a1)
          0x0068f5ba      4eb90060477a   jsr F9_FILERDWRT.f_op_block
          0x0068f5c0      defc0010       adda.w 0x10, a7
          0x0068f5c4      4a1f           tst.b (a7)+
      < 0x0068f5c6      6668           bne.b 0x68f630
         0x0068f5c8      9ec6           suba.w d6, a7
         0x0068f5ca      4eb900408ec0   jsr p_err_string
         0x0068f5d0      487acd91       pea.l 0x68c363(pc)
         0x0068f5d4      48780019       pea.l 0x19
         0x0068f5d8      2f17           move.l (a7), -(a7)
         0x0068f5da      4eb9004047ea   jsr p_wts_o
         0x0068f5e0      dec5           adda.w d5, a7
         0x0068f5e2      486f0001       pea.l 0x1(a7)
         0x0068f5e6      42a7           clr.l -(a7)
         0x0068f5e8      1f6f00080003   move.b 0x8(a7), 0x3(a7)
         0x0068f5ee      2f17           move.l (a7), -(a7)
         0x0068f5f0      4eb9004047ea   jsr p_wts_o
         0x0068f5f6      defc010c       adda.w 0x10c, a7
         0x0068f5fa      4eb900404946   jsr p_wtln_o
         0x0068f600      4eb900404188   jsr p_Unlink
         0x0068f606      3f2e0228       move.w 0x228(a6), -(a7)
         0x0068f60a      9ec6           suba.w d6, a7
         0x0068f60c      224f           movea.l a7, a1
         0x0068f60e      45facd6c       lea.l 0x68c37c(pc), a2
         0x0068f612      7004           moveq 0x4, d0
     > 0x0068f614      22da           move.l (a2)+, (a1)+
     < 0x0068f616      51c8fffc       dbra d0, 0x68f614
         0x0068f61a      32da           move.w (a2)+, (a1)+
         0x0068f61c      4ebaf5d6       jsr BOOTCOM.my_box_error(pc)
         0x0068f620      defc0102       adda.w 0x102, a7
         0x0068f624      486effb6       pea.l -0x4a(a6)
         0x0068f628      4eb900404468   jsr fcn.00404468
         0x0068f62e      584f           addq.w 0x4, a7
      > 0x0068f630      226e0020       movea.l 0x20(a6), a1
          0x0068f634      554f           subq.w 0x2, a7
          0x0068f636      2f2e0230       move.l 0x230(a6), -(a7)
          0x0068f63a      2f2e022c       move.l 0x22c(a6), -(a7)
          0x0068f63e      3f2e022a       move.w 0x22a(a6), -(a7)
          0x0068f642      4227           clr.b -(a7)
          0x0068f644      4851           pea.l (a1)
          0x0068f646      4eb9006082de   jsr F10_FILELIST.f_get_header
          0x0068f64c      defc0010       adda.w 0x10, a7
          0x0068f650      4a1f           tst.b (a7)+
      < 0x0068f652      66000112       bne.w 0x68f766
         0x0068f656      9ec6           suba.w d6, a7
         0x0068f658      4eb900408ec0   jsr p_err_string
         0x0068f65e      487acd33       pea.l 0x68c393(pc)
         0x0068f662      4878001a       pea.l 0x1a
         0x0068f666      2f17           move.l (a7), -(a7)
         0x0068f668      4eb9004047ea   jsr p_wts_o
         0x0068f66e      dec5           adda.w d5, a7
         0x0068f670      486f0001       pea.l 0x1(a7)
         0x0068f674      42a7           clr.l -(a7)
         0x0068f676      1f6f00080003   move.b 0x8(a7), 0x3(a7)
         0x0068f67c      2f17           move.l (a7), -(a7)
         0x0068f67e      4eb9004047ea   jsr p_wts_o
         0x0068f684      defc010c       adda.w 0x10c, a7
         0x0068f688      4eb900404946   jsr p_wtln_o
         0x0068f68e      4eb900404188   jsr p_Unlink
         0x0068f694      4240           clr.w d0
         0x0068f696      102e0028       move.b 0x28(a6), d0
     < 0x0068f69a      6302           bls.b 0x68f69e
        0x0068f69c      7000           moveq 0x0, d0
     > 0x0068f69e      5300           subq.b 0x1, d0
     < 0x0068f6a0      6510           bcs.b 0x68f6b2
        0x0068f6a2      45ee0029       lea.l 0x29(a6), a2
        0x0068f6a6      47facd06       lea.l 0x68c3ae(pc), a3
    > 0x0068f6aa      b50b           cmpm.b (a3)+, (a2)+
    < 0x0068f6ac      56c8fffc       dbne d0, 0x68f6aa
    < 0x0068f6b0      6604           bne.b 0x68f6b6
    > 0x0068f6b2      102e0028       move.b 0x28(a6), d0
    < 0x0068f6b6      661a           bne.b 0x68f6d2
        0x0068f6b8      3f2e0228       move.w 0x228(a6), -(a7)
        0x0068f6bc      9ec6           suba.w d6, a7
        0x0068f6be      244f           movea.l a7, a2
        0x0068f6c0      47faccec       lea.l 0x68c3ae(pc), a3
        0x0068f6c4      7005           moveq 0x5, d0
    > 0x0068f6c6      24db           move.l (a3)+, (a2)+
    < 0x0068f6c8      51c8fffc       dbra d0, 0x68f6c6
        0x0068f6cc      34db           move.w (a3)+, (a2)+
    < 0x0068f6ce      60000082       bra.w 0x68f752
    > 0x0068f6d2      3f2e0228       move.w 0x228(a6), -(a7)
        0x0068f6d6      9ec6           suba.w d6, a7
        0x0068f6d8      4240           clr.w d0
        0x0068f6da      102e0128       move.b 0x128(a6), d0
        0x0068f6de      3200           move.w d0, d1
        0x0068f6e0      45ef0001       lea.l 0x1(a7), a2
        0x0068f6e4      5301           subq.b 0x1, d1
    < 0x0068f6e6      650a           bcs.b 0x68f6f2
       0x0068f6e8      47ee0129       lea.l 0x129(a6), a3
   > 0x0068f6ec      14db           move.b (a3)+, (a2)+
   < 0x0068f6ee      51c9fffc       dbra d1, 0x68f6ec
    > 0x0068f6f2      7215           moveq 0x15, d1
        0x0068f6f4      d200           add.b d0, d1
    < 0x0068f6f6      6406           bcc.b 0x68f6fe
       0x0068f6f8      4eb900406c8a   jsr p_strovr
    > 0x0068f6fe      7215           moveq 0x15, d1
        0x0068f700      3407           move.w d7, d2
        0x0068f702      9440           sub.w d0, d2
        0x0068f704      b242           cmp.w d2, d1
    < 0x0068f706      6302           bls.b 0x68f70a
       0x0068f708      3202           move.w d2, d1
    > 0x0068f70a      1e80           move.b d0, (a7)
        0x0068f70c      d317           add.b d1, (a7)
        0x0068f70e      47faccb9       lea.l 0x68c3c9(pc), a3
    > 0x0068f712      14db           move.b (a3)+, (a2)+
    < 0x0068f714      51c9fffc       dbra d1, 0x68f712
        0x0068f718      4240           clr.w d0
        0x0068f71a      1017           move.b (a7), d0
        0x0068f71c      45ef0001       lea.l 0x1(a7), a2
        0x0068f720      d4c0           adda.w d0, a2
        0x0068f722      4241           clr.w d1
        0x0068f724      122e0028       move.b 0x28(a6), d1
        0x0068f728      d200           add.b d0, d1
    < 0x0068f72a      6406           bcc.b 0x68f732
       0x0068f72c      4eb900406c8a   jsr p_strovr
    > 0x0068f732      4241           clr.w d1
        0x0068f734      122e0028       move.b 0x28(a6), d1
        0x0068f738      3407           move.w d7, d2
        0x0068f73a      9440           sub.w d0, d2
        0x0068f73c      b242           cmp.w d2, d1
    < 0x0068f73e      6302           bls.b 0x68f742
       0x0068f740      3202           move.w d2, d1
    > 0x0068f742      d317           add.b d1, (a7)
        0x0068f744      5301           subq.b 0x1, d1
    < 0x0068f746      650a           bcs.b 0x68f752
       0x0068f748      47ee0029       lea.l 0x29(a6), a3
   > 0x0068f74c      14db           move.b (a3)+, (a2)+
   < 0x0068f74e      51c9fffc       dbra d1, 0x68f74c
    > 0x0068f752      4ebaf4a0       jsr BOOTCOM.my_box_error(pc)
         0x0068f756      defc0102       adda.w 0x102, a7
         0x0068f75a      486effb6       pea.l -0x4a(a6)
         0x0068f75e      4eb900404468   jsr fcn.00404468
         0x0068f764      584f           addq.w 0x4, a7
      > 0x0068f766      246e001c       movea.l 0x1c(a6), a2
          0x0068f76a      554f           subq.w 0x2, a7
          0x0068f76c      3f3c0003       move.w 0x3, -(a7)
          0x0068f770      2f11           move.l (a1), -(a7)
          0x0068f772      264a           movea.l a2, a3
          0x0068f774      2f0b           move.l a3, -(a7)
          0x0068f776      3f3c0018       move.w 0x18, -(a7)
          0x0068f77a      4eb9005eed1e   jsr f_get_field
          0x0068f780      dec5           adda.w d5, a7
          0x0068f782      4a1f           tst.b (a7)+
      < 0x0068f784      6642           bne.b 0x68f7c8
         0x0068f786      487acc57       pea.l 0x68c3df(pc)
         0x0068f78a      48780017       pea.l 0x17
         0x0068f78e      2f17           move.l (a7), -(a7)
         0x0068f790      4eb9004047ea   jsr p_wts_o
         0x0068f796      dec5           adda.w d5, a7
         0x0068f798      4eb900404946   jsr p_wtln_o
         0x0068f79e      3f2e0228       move.w 0x228(a6), -(a7)
         0x0068f7a2      9ec6           suba.w d6, a7
         0x0068f7a4      264f           movea.l a7, a3
         0x0068f7a6      49facc4e       lea.l 0x68c3f6(pc), a4
         0x0068f7aa      7004           moveq 0x4, d0
     > 0x0068f7ac      26dc           move.l (a4)+, (a3)+
     < 0x0068f7ae      51c8fffc       dbra d0, 0x68f7ac
         0x0068f7b2      16dc           move.b (a4)+, (a3)+
         0x0068f7b4      4ebaf43e       jsr BOOTCOM.my_box_error(pc)
         0x0068f7b8      defc0102       adda.w 0x102, a7
         0x0068f7bc      486effb6       pea.l -0x4a(a6)
         0x0068f7c0      4eb900404468   jsr fcn.00404468
         0x0068f7c6      584f           addq.w 0x4, a7
      > 0x0068f7c8      266e0014       movea.l 0x14(a6), a3
          0x0068f7cc      554f           subq.w 0x2, a7
          0x0068f7ce      3f3c0050       move.w 0x50, -(a7)
          0x0068f7d2      2f11           move.l (a1), -(a7)
          0x0068f7d4      286e0010       movea.l 0x10(a6), a4
          0x0068f7d8      2f0c           move.l a4, -(a7)
          0x0068f7da      3f3c0002       move.w 0x2, -(a7)
          0x0068f7de      4eb9005eed1e   jsr f_get_field
          0x0068f7e4      dec5           adda.w d5, a7
          0x0068f7e6      101f           move.b (a7)+, d0
          0x0068f7e8      4880           ext.w d0
          0x0068f7ea      41bc0001       chk.w 0x1, d0
          0x0068f7ee      1680           move.b d0, (a3)
          0x0068f7f0      9ec6           suba.w d6, a7
          0x0068f7f2      3f3c0014       move.w 0x14, -(a7)
          0x0068f7f6      2f11           move.l (a1), -(a7)
          0x0068f7f8      4eb9005eed64   jsr f_get_string
          0x0068f7fe      5c4f           addq.w 0x6, a7
          0x0068f800      224f           movea.l a7, a1
          0x0068f802      3007           move.w d7, d0
      > 0x0068f804      10d9           move.b (a1)+, (a0)+
      < 0x0068f806      51c8fffc       dbra d0, 0x68f804
          0x0068f80a      dec6           adda.w d6, a7
          0x0068f80c      206e000c       movea.l 0xc(a6), a0
          0x0068f810      202a0004       move.l 0x4(a2), d0
          0x0068f814      9092           sub.l (a2), d0
          0x0068f816      2080           move.l d0, (a0)
          0x0068f818      0690000003ff   addi.l 0x3ff, (a0)
          0x0068f81e      2810           move.l (a0), d4
          0x0068f820      263c00000400   move.l 0x400, d3
          0x0068f826      4eb900406b50   jsr fcn.00406b50
          0x0068f82c      2084           move.l d4, (a0)
          0x0068f82e      2f04           move.l d4, -(a7)
          0x0068f830      206e0008       movea.l 0x8(a6), a0
          0x0068f834      5280           addq.l 0x1, d0
          0x0068f836      2800           move.l d0, d4
          0x0068f838      7602           moveq 0x2, d3
          0x0068f83a      4eb900406b50   jsr fcn.00406b50
          0x0068f840      2084           move.l d4, (a0)
          0x0068f842      487acbc8       pea.l 0x68c40c(pc)
          0x0068f846      48780007       pea.l 0x7
          0x0068f84a      2f17           move.l (a7), -(a7)
          0x0068f84c      4eb9004047ea   jsr p_wts_o
          0x0068f852      dec5           adda.w d5, a7
          0x0068f854      2017           move.l (a7), d0
          0x0068f856      2f00           move.l d0, -(a7)
          0x0068f858      48780005       pea.l 0x5
          0x0068f85c      4eb9004070e4   jsr p_wti_o
          0x0068f862      504f           addq.w 0x8, a7
          0x0068f864      487acbae       pea.l 0x68c414(pc)
          0x0068f868      48780009       pea.l 0x9
          0x0068f86c      2f17           move.l (a7), -(a7)
          0x0068f86e      4eb9004047ea   jsr p_wts_o
          0x0068f874      504f           addq.w 0x8, a7
          0x0068f876      2e84           move.l d4, (a7)
          0x0068f878      4878ffff       pea.l 0xffff
          0x0068f87c      4eb9004070e4   jsr p_wti_o
          0x0068f882      dec5           adda.w d5, a7
          0x0068f884      487acb98       pea.l 0x68c41e(pc)
          0x0068f888      48780007       pea.l 0x7
          0x0068f88c      2f17           move.l (a7), -(a7)
          0x0068f88e      4eb9004047ea   jsr p_wts_o
          0x0068f894      dec5           adda.w d5, a7
          0x0068f896      4eb900404946   jsr p_wtln_o
          0x0068f89c      1d7c00010234   move.b 0x1, 0x234(a6)
       > 0x0068f8a2      4cdf1fff       movem.l (a7)+, d0-d7/a0-a4
           0x0068f8a6      4e5e           unlk a6
           0x0068f8a8      4e75           rts
            ; CALL XREF from BOOTCOM.load_removable_ @ 0x68fd42
            ; CALL XREF from BOOTCOM.checksum_remova @ 0x68ff44
            ; CALL XREF from BOOTCOM.check_floppy @ 0x69103e
 1026: BOOTCOM.start_read ();
           ; var int32_t var_8h @ a7+0x8
           0x0068f8aa      4e56fb8a       link.w a6, 0xfb8a
           0x0068f8ae      bfd5           cmpa.l (a5), a7
       < 0x0068f8b0      6206           bhi.b 0x68f8b8
          0x0068f8b2      44fc0002       move.w 0x2, ccr
          0x0068f8b6      4e76           trapv
       > 0x0068f8b8      defc027e       adda.w 0x27e, a7
           0x0068f8bc      48e7fff8       movem.l d0-d7/a0-a4, -(a7)
           0x0068f8c0      7a0c           moveq 0xc, d5
           0x0068f8c2      3c3c0100       move.w 0x100, d6
           0x0068f8c6      422e013e       clr.b 0x13e(a6)
           0x0068f8ca      4227           clr.b -(a7)
           0x0068f8cc      4eb900627d08   jsr PICTURENET.rescan_net
           0x0068f8d2      1ebc0001       move.b 0x1, (a7)
           0x0068f8d6      4eb9004e3b98   jsr MENUDISKSCOM.update_drives
           0x0068f8dc      544f           addq.w 0x2, a7
           0x0068f8de      206e0024       movea.l 0x24(a6), a0
           0x0068f8e2      2f08           move.l a0, -(a7)
           0x0068f8e4      10bacb53       move.b 0x68c439(pc), (a0)
           0x0068f8e8      226e0028       movea.l 0x28(a6), a1
           0x0068f8ec      2f09           move.l a1, -(a7)
           0x0068f8ee      22bc00000001   move.l 0x1, (a1)
           0x0068f8f4      246e0030       movea.l 0x30(a6), a2
           0x0068f8f8      24bcffff0001   move.l 0xffff0001, (a2)
           0x0068f8fe      266e0010       movea.l 0x10(a6), a3
           0x0068f902      2f0b           move.l a3, -(a7)
           0x0068f904      4213           clr.b (a3)
           0x0068f906      554f           subq.w 0x2, a7
           0x0068f908      486efe08       pea.l -0x1f8(a6)
           0x0068f90c      4eb900404434   jsr fcn.00404434
           0x0068f912      584f           addq.w 0x4, a7
           0x0068f914      4a1f           tst.b (a7)+
       < 0x0068f916      6700038a       beq.w 0x68fca2
          0x0068f91a      594f           subq.w 0x4, a7
          0x0068f91c      2f2e013a       move.l 0x13a(a6), -(a7)
          0x0068f920      4eb9005fb938   jsr F6_VOLUME.f_vol_on
          0x0068f926      584f           addq.w 0x4, a7
          0x0068f928      2e1f           move.l (a7)+, d7
          0x0068f92a      487acb0f       pea.l 0x68c43b(pc)
          0x0068f92e      48780012       pea.l 0x12
          0x0068f932      2f17           move.l (a7), -(a7)
          0x0068f934      4eb9004047ea   jsr p_wts_o
          0x0068f93a      504f           addq.w 0x8, a7
          0x0068f93c      2eae013a       move.l 0x13a(a6), (a7)
          0x0068f940      4878fff8       pea.l 0xfff8
          0x0068f944      4eb9004070e4   jsr p_wti_o
          0x0068f94a      504f           addq.w 0x8, a7
          0x0068f94c      487acb00       pea.l 0x68c44e(pc)
          0x0068f950      48780002       pea.l 0x2
          0x0068f954      2f17           move.l (a7), -(a7)
          0x0068f956      4eb9004047ea   jsr p_wts_o
          0x0068f95c      504f           addq.w 0x8, a7
          0x0068f95e      2e87           move.l d7, (a7)
          0x0068f960      4878fff8       pea.l 0xfff8
          0x0068f964      4eb9004070e4   jsr p_wti_o
          0x0068f96a      504f           addq.w 0x8, a7
          0x0068f96c      487acae3       pea.l 0x68c451(pc)
          0x0068f970      48780002       pea.l 0x2
          0x0068f974      2f17           move.l (a7), -(a7)
          0x0068f976      4eb9004047ea   jsr p_wts_o
          0x0068f97c      504f           addq.w 0x8, a7
          0x0068f97e      48780000       pea.l 0x0
          0x0068f982      4eb9005fb938   jsr F6_VOLUME.f_vol_on
          0x0068f988      584f           addq.w 0x4, a7
          0x0068f98a      4878fff8       pea.l 0xfff8
          0x0068f98e      4eb9004070e4   jsr p_wti_o
          0x0068f994      504f           addq.w 0x8, a7
          0x0068f996      4eb900404946   jsr p_wtln_o
          0x0068f99c      4a87           tst.l d7
      < 0x0068f99e      66000092       bne.w 0x68fa32
         0x0068f9a2      3f2e0134       move.w 0x134(a6), -(a7)
         0x0068f9a6      9ec6           suba.w d6, a7
         0x0068f9a8      7002           moveq 0x2, d0
         0x0068f9aa      49ef0001       lea.l 0x1(a7), a4
         0x0068f9ae      41facaa4       lea.l 0x68c454(pc), a0
     > 0x0068f9b2      18d8           move.b (a0)+, (a4)+
     < 0x0068f9b4      51c8fffc       dbra d0, 0x68f9b2
         0x0068f9b8      4240           clr.w d0
         0x0068f9ba      102e0034       move.b 0x34(a6), d0
         0x0068f9be      5600           addq.b 0x3, d0
     < 0x0068f9c0      6406           bcc.b 0x68f9c8
        0x0068f9c2      4eb900406c8a   jsr p_strovr
     > 0x0068f9c8      4240           clr.w d0
         0x0068f9ca      102e0034       move.b 0x34(a6), d0
         0x0068f9ce      323c00ff       move.w 0xff, d1
         0x0068f9d2      5741           subq.w 0x3, d1
         0x0068f9d4      b041           cmp.w d1, d0
     < 0x0068f9d6      6302           bls.b 0x68f9da
        0x0068f9d8      3001           move.w d1, d0
     > 0x0068f9da      1ebc0003       move.b 0x3, (a7)
         0x0068f9de      d117           add.b d0, (a7)
         0x0068f9e0      5300           subq.b 0x1, d0
     < 0x0068f9e2      650a           bcs.b 0x68f9ee
        0x0068f9e4      41ee0035       lea.l 0x35(a6), a0
    > 0x0068f9e8      18d8           move.b (a0)+, (a4)+
    < 0x0068f9ea      51c8fffc       dbra d0, 0x68f9e8
     > 0x0068f9ee      4240           clr.w d0
         0x0068f9f0      1017           move.b (a7), d0
         0x0068f9f2      41ef0001       lea.l 0x1(a7), a0
         0x0068f9f6      d0c0           adda.w d0, a0
         0x0068f9f8      720e           moveq 0xe, d1
         0x0068f9fa      d200           add.b d0, d1
     < 0x0068f9fc      6406           bcc.b 0x68fa04
        0x0068f9fe      4eb900406c8a   jsr p_strovr
     > 0x0068fa04      720e           moveq 0xe, d1
         0x0068fa06      343c00ff       move.w 0xff, d2
         0x0068fa0a      9440           sub.w d0, d2
         0x0068fa0c      b242           cmp.w d2, d1
     < 0x0068fa0e      6302           bls.b 0x68fa12
        0x0068fa10      3202           move.w d2, d1
     > 0x0068fa12      d317           add.b d1, (a7)
         0x0068fa14      49faca42       lea.l 0x68c458(pc), a4
     > 0x0068fa18      10dc           move.b (a4)+, (a0)+
     < 0x0068fa1a      51c9fffc       dbra d1, 0x68fa18
         0x0068fa1e      4ebaf1d4       jsr BOOTCOM.my_box_error(pc)
         0x0068fa22      defc0102       adda.w 0x102, a7
         0x0068fa26      486efe08       pea.l -0x1f8(a6)
         0x0068fa2a      4eb900404468   jsr fcn.00404468
         0x0068fa30      584f           addq.w 0x4, a7
      > 0x0068fa32      554f           subq.w 0x2, a7
          0x0068fa34      2f07           move.l d7, -(a7)
          0x0068fa36      486efe52       pea.l -0x1ae(a6)
          0x0068fa3a      4267           clr.w -(a7)
          0x0068fa3c      3f3c000f       move.w 0xf, -(a7)
          0x0068fa40      4eb900608f40   jsr F10_FILELIST.f_list_boots
          0x0068fa46      dec5           adda.w d5, a7
          0x0068fa48      4a1f           tst.b (a7)+
      < 0x0068fa4a      6600009c       bne.w 0x68fae8
         0x0068fa4e      9ec6           suba.w d6, a7
         0x0068fa50      4eb900408ec0   jsr p_err_string
         0x0068fa56      487aca0f       pea.l 0x68c467(pc)
         0x0068fa5a      4878001c       pea.l 0x1c
         0x0068fa5e      2f17           move.l (a7), -(a7)
         0x0068fa60      4eb9004047ea   jsr p_wts_o
         0x0068fa66      dec5           adda.w d5, a7
         0x0068fa68      486f0001       pea.l 0x1(a7)
         0x0068fa6c      42a7           clr.l -(a7)
         0x0068fa6e      1f6f00080003   move.b 0x8(a7), 0x3(a7)
         0x0068fa74      2f17           move.l (a7), -(a7)
         0x0068fa76      4eb9004047ea   jsr p_wts_o
         0x0068fa7c      defc010c       adda.w 0x10c, a7
         0x0068fa80      4eb900404946   jsr p_wtln_o
         0x0068fa86      4eb900404188   jsr p_Unlink
         0x0068fa8c      3f2e0134       move.w 0x134(a6), -(a7)
         0x0068fa90      9ec6           suba.w d6, a7
         0x0068fa92      4240           clr.w d0
         0x0068fa94      102e0034       move.b 0x34(a6), d0
         0x0068fa98      3200           move.w d0, d1
         0x0068fa9a      49ef0001       lea.l 0x1(a7), a4
         0x0068fa9e      5301           subq.b 0x1, d1
     < 0x0068faa0      650a           bcs.b 0x68faac
        0x0068faa2      41ee0035       lea.l 0x35(a6), a0
    > 0x0068faa6      18d8           move.b (a0)+, (a4)+
    < 0x0068faa8      51c9fffc       dbra d1, 0x68faa6
     > 0x0068faac      7212           moveq 0x12, d1
         0x0068faae      d200           add.b d0, d1
     < 0x0068fab0      6406           bcc.b 0x68fab8
        0x0068fab2      4eb900406c8a   jsr p_strovr
     > 0x0068fab8      7212           moveq 0x12, d1
         0x0068faba      343c00ff       move.w 0xff, d2
         0x0068fabe      9440           sub.w d0, d2
         0x0068fac0      b242           cmp.w d2, d1
     < 0x0068fac2      6302           bls.b 0x68fac6
        0x0068fac4      3202           move.w d2, d1
     > 0x0068fac6      1e80           move.b d0, (a7)
         0x0068fac8      d317           add.b d1, (a7)
         0x0068faca      41fac9b8       lea.l 0x68c484(pc), a0
     > 0x0068face      18d8           move.b (a0)+, (a4)+
     < 0x0068fad0      51c9fffc       dbra d1, 0x68face
         0x0068fad4      4ebaf11e       jsr BOOTCOM.my_box_error(pc)
         0x0068fad8      defc0102       adda.w 0x102, a7
         0x0068fadc      486efe08       pea.l -0x1f8(a6)
         0x0068fae0      4eb900404468   jsr fcn.00404468
         0x0068fae6      584f           addq.w 0x4, a7
      > 0x0068fae8      202e0136       move.l 0x136(a6), d0
          0x0068faec      0c800000000f   cmpi.l 0xf, d0
      < 0x0068faf2      6302           bls.b 0x68faf6
         0x0068faf4      4e4f           trap 0xf
      > 0x0068faf6      2800           move.l d0, d4
          0x0068faf8      760a           moveq 0xa, d3
          0x0068fafa      4eb900406a74   jsr fcn.00406a74
          0x0068fb00      49eefe08       lea.l -0x1f8(a6), a4
          0x0068fb04      41eefef2       lea.l -0x10e(a6), a0
          0x0068fb08      49f4484a       lea.l 0x4a(a4, d4.l), a4
          0x0068fb0c      7009           moveq 0x9, d0
      > 0x0068fb0e      10dc           move.b (a4)+, (a0)+
      < 0x0068fb10      51c8fffc       dbra d0, 0x68fb0e
          0x0068fb14      2f2e0136       move.l 0x136(a6), -(a7)
          0x0068fb18      48780000       pea.l 0x0
          0x0068fb1c      486eff00       pea.l -0x100(a6)
          0x0068fb20      3f3c00ff       move.w 0xff, -(a7)
          0x0068fb24      4eb900406e56   jsr p_strI1
          0x0068fb2a      defc000e       adda.w 0xe, a7
          0x0068fb2e      206e002c       movea.l 0x2c(a6), a0
          0x0068fb32      286e0020       movea.l 0x20(a6), a4
          0x0068fb36      554f           subq.w 0x2, a7
          0x0068fb38      2f2efef8       move.l -0x108(a6), -(a7)
          0x0068fb3c      2f2efef4       move.l -0x10c(a6), -(a7)
          0x0068fb40      3f2efef2       move.w -0x10e(a6), -(a7)
          0x0068fb44      3f2e0134       move.w 0x134(a6), -(a7)
          0x0068fb48      9ec6           suba.w d6, a7
          0x0068fb4a      224f           movea.l a7, a1
          0x0068fb4c      47ee0034       lea.l 0x34(a6), a3
          0x0068fb50      703f           moveq 0x3f, d0
      > 0x0068fb52      22db           move.l (a3)+, (a1)+
      < 0x0068fb54      51c8fffc       dbra d0, 0x68fb52
          0x0068fb58      9ec6           suba.w d6, a7
          0x0068fb5a      224f           movea.l a7, a1
          0x0068fb5c      47eeff00       lea.l -0x100(a6), a3
          0x0068fb60      703f           moveq 0x3f, d0
      > 0x0068fb62      22db           move.l (a3)+, (a1)+
      < 0x0068fb64      51c8fffc       dbra d0, 0x68fb62
          0x0068fb68      226f0212       movea.l 0x212(a7), a1
          0x0068fb6c      4851           pea.l (a1)
          0x0068fb6e      4852           pea.l (a2)
          0x0068fb70      4850           pea.l (a0)
          0x0068fb72      226f0222       movea.l 0x222(a7), a1
          0x0068fb76      4851           pea.l (a1)
          0x0068fb78      226e000c       movea.l 0xc(a6), a1
          0x0068fb7c      4851           pea.l (a1)
          0x0068fb7e      226e0008       movea.l 0x8(a6), a1
          0x0068fb82      4851           pea.l (a1)
          0x0068fb84      226e001c       movea.l 0x1c(a6), a1
          0x0068fb88      4851           pea.l (a1)
          0x0068fb8a      4854           pea.l (a4)
          0x0068fb8c      4ebaf8ba       jsr BOOTCOM.start_make(pc)
          0x0068fb90      defc022c       adda.w 0x22c, a7
          0x0068fb94      4a1f           tst.b (a7)+
      < 0x0068fb96      6624           bne.b 0x68fbbc
         0x0068fb98      487ac8fd       pea.l 0x68c497(pc)
         0x0068fb9c      48780011       pea.l 0x11
         0x0068fba0      2f17           move.l (a7), -(a7)
         0x0068fba2      4eb9004047ea   jsr p_wts_o
         0x0068fba8      dec5           adda.w d5, a7
         0x0068fbaa      4eb900404946   jsr p_wtln_o
         0x0068fbb0      486efe08       pea.l -0x1f8(a6)
         0x0068fbb4      4eb900404468   jsr fcn.00404468
         0x0068fbba      584f           addq.w 0x4, a7
      > 0x0068fbbc      20280004       move.l 0x4(a0), d0
          0x0068fbc0      9090           sub.l (a0), d0
          0x0068fbc2      2f00           move.l d0, -(a7)
          0x0068fbc4      48780400       pea.l 0x400
          0x0068fbc8      2f3c00010000   move.l 0x10000, -(a7)
          0x0068fbce      4eb900455bb4   jsr CURSORCOM.set_horiz_therm
          0x0068fbd4      dec5           adda.w d5, a7
          0x0068fbd6      206e0018       movea.l 0x18(a6), a0
          0x0068fbda      2010           move.l (a0), d0
          0x0068fbdc      d094           add.l (a4), d0
          0x0068fbde      2080           move.l d0, (a0)
          0x0068fbe0      554f           subq.w 0x2, a7
          0x0068fbe2      3f3c0036       move.w 0x36, -(a7)
          0x0068fbe6      2f12           move.l (a2), -(a7)
          0x0068fbe8      4eb9005eecfc   jsr f_field_size
          0x0068fbee      5c4f           addq.w 0x6, a7
          0x0068fbf0      321f           move.w (a7)+, d1
          0x0068fbf2      0c410004       cmpi.w 0x4, d1
      < 0x0068fbf6      6618           bne.b 0x68fc10
         0x0068fbf8      487ac8af       pea.l 0x68c4a9(pc)
         0x0068fbfc      4878001d       pea.l 0x1d
         0x0068fc00      2f17           move.l (a7), -(a7)
         0x0068fc02      4eb9004047ea   jsr p_wts_o
         0x0068fc08      dec5           adda.w d5, a7
         0x0068fc0a      4eb900404946   jsr p_wtln_o
      > 0x0068fc10      206e0014       movea.l 0x14(a6), a0
          0x0068fc14      554f           subq.w 0x2, a7
          0x0068fc16      3f3c0036       move.w 0x36, -(a7)
          0x0068fc1a      2f12           move.l (a2), -(a7)
          0x0068fc1c      2248           movea.l a0, a1
          0x0068fc1e      2f09           move.l a1, -(a7)
          0x0068fc20      3f3c0008       move.w 0x8, -(a7)
          0x0068fc24      4eb9005eed1e   jsr f_get_field
          0x0068fc2a      dec5           adda.w d5, a7
          0x0068fc2c      121f           move.b (a7)+, d1
          0x0068fc2e      4881           ext.w d1
          0x0068fc30      43bc0001       chk.w 0x1, d1
          0x0068fc34      2257           movea.l (a7), a1
          0x0068fc36      1281           move.b d1, (a1)
          0x0068fc38      4a01           tst.b d1
      < 0x0068fc3a      6760           beq.b 0x68fc9c
         0x0068fc3c      b0a80004       cmp.l 0x4(a0), d0
     < 0x0068fc40      675a           beq.b 0x68fc9c
        0x0068fc42      487ac883       pea.l 0x68c4c7(pc)
        0x0068fc46      48780018       pea.l 0x18
        0x0068fc4a      2f17           move.l (a7), -(a7)
        0x0068fc4c      4eb9004047ea   jsr p_wts_o
        0x0068fc52      504f           addq.w 0x8, a7
        0x0068fc54      2ea80004       move.l 0x4(a0), (a7)
        0x0068fc58      4878ffff       pea.l 0xffff
        0x0068fc5c      4eb9004070e4   jsr p_wti_o
        0x0068fc62      504f           addq.w 0x8, a7
        0x0068fc64      487ac87a       pea.l 0x68c4e0(pc)
        0x0068fc68      4878000c       pea.l 0xc
        0x0068fc6c      2f17           move.l (a7), -(a7)
        0x0068fc6e      4eb9004047ea   jsr p_wts_o
        0x0068fc74      504f           addq.w 0x8, a7
        0x0068fc76      2e80           move.l d0, (a7)
        0x0068fc78      4878ffff       pea.l 0xffff
        0x0068fc7c      4eb9004070e4   jsr p_wti_o
        0x0068fc82      504f           addq.w 0x8, a7
        0x0068fc84      487ac867       pea.l 0x68c4ed(pc)
        0x0068fc88      48780013       pea.l 0x13
        0x0068fc8c      2f17           move.l (a7), -(a7)
        0x0068fc8e      4eb9004047ea   jsr p_wts_o
        0x0068fc94      dec5           adda.w d5, a7
        0x0068fc96      4eb900404946   jsr p_wtln_o
     > 0x0068fc9c      1d7c0001013e   move.b 0x1, 0x13e(a6)
       > 0x0068fca2      dec5           adda.w d5, a7
           0x0068fca4      4cdf1fff       movem.l (a7)+, d0-d7/a0-a4
           0x0068fca8      4e5e           unlk a6
           0x0068fcaa      4e75           rts
            ; CALL XREF from BOOTCOM.load_sw @ 0x691858
 518: BOOTCOM.load_removable_ ();
           0x0068fcac      4e56fe36       link.w a6, 0xfe36
           0x0068fcb0      bfd5           cmpa.l (a5), a7
       < 0x0068fcb2      6206           bhi.b 0x68fcba
          0x0068fcb4      44fc0002       move.w 0x2, ccr
          0x0068fcb8      4e76           trapv
       > 0x0068fcba      defc0168       adda.w 0x168, a7
           0x0068fcbe      48e7f0f8       movem.l d0-d3/a0-a4, -(a7)
           0x0068fcc2      49f9004047ea   lea.l p_wts_o, a4
           0x0068fcc8      740c           moveq 0xc, d2
           0x0068fcca      363c0100       move.w 0x100, d3
           0x0068fcce      422e0136       clr.b 0x136(a6)
           0x0068fcd2      554f           subq.w 0x2, a7
           0x0068fcd4      486effb6       pea.l -0x4a(a6)
           0x0068fcd8      4eb900404434   jsr fcn.00404434
           0x0068fcde      584f           addq.w 0x4, a7
           0x0068fce0      4a1f           tst.b (a7)+
       < 0x0068fce2      670001ae       beq.w 0x68fe92
          0x0068fce6      206e0014       movea.l 0x14(a6), a0
          0x0068fcea      226e0010       movea.l 0x10(a6), a1
          0x0068fcee      554f           subq.w 0x2, a7
          0x0068fcf0      2f2e0132       move.l 0x132(a6), -(a7)
          0x0068fcf4      302e0130       move.w 0x130(a6), d0
          0x0068fcf8      48c0           ext.l d0
          0x0068fcfa      2f00           move.l d0, -(a7)
          0x0068fcfc      3f2e0126       move.w 0x126(a6), -(a7)
          0x0068fd00      9ec3           suba.w d3, a7
          0x0068fd02      244f           movea.l a7, a2
          0x0068fd04      47ee0024       lea.l 0x24(a6), a3
          0x0068fd08      703f           moveq 0x3f, d0
      > 0x0068fd0a      24db           move.l (a3)+, (a2)+
      < 0x0068fd0c      51c8fffc       dbra d0, 0x68fd0a
          0x0068fd10      486eff9e       pea.l -0x62(a6)
          0x0068fd14      246e0020       movea.l 0x20(a6), a2
          0x0068fd18      4852           pea.l (a2)
          0x0068fd1a      486effa2       pea.l -0x5e(a6)
          0x0068fd1e      246e0128       movea.l 0x128(a6), a2
          0x0068fd22      4852           pea.l (a2)
          0x0068fd24      486effa6       pea.l -0x5a(a6)
          0x0068fd28      486effaa       pea.l -0x56(a6)
          0x0068fd2c      246e012c       movea.l 0x12c(a6), a2
          0x0068fd30      4852           pea.l (a2)
          0x0068fd32      4850           pea.l (a0)
          0x0068fd34      4851           pea.l (a1)
          0x0068fd36      246e000c       movea.l 0xc(a6), a2
          0x0068fd3a      4852           pea.l (a2)
          0x0068fd3c      246e0008       movea.l 0x8(a6), a2
          0x0068fd40      4852           pea.l (a2)
          0x0068fd42      4ebafb66       jsr BOOTCOM.start_read(pc)
          0x0068fd46      defc0136       adda.w 0x136, a7
          0x0068fd4a      4a1f           tst.b (a7)+
      < 0x0068fd4c      6620           bne.b 0x68fd6e
         0x0068fd4e      487ac7cf       pea.l 0x68c51f(pc)
         0x0068fd52      48780011       pea.l 0x11
         0x0068fd56      2f17           move.l (a7), -(a7)
         0x0068fd58      4e94           jsr (a4)                    ; fcn.0000000d
         0x0068fd5a      dec2           adda.w d2, a7
         0x0068fd5c      4eb900404946   jsr p_wtln_o
         0x0068fd62      486effb6       pea.l -0x4a(a6)
         0x0068fd66      4eb900404468   jsr fcn.00404468
         0x0068fd6c      584f           addq.w 0x4, a7
      > 0x0068fd6e      554f           subq.w 0x2, a7
          0x0068fd70      4227           clr.b -(a7)
          0x0068fd72      486effa2       pea.l -0x5e(a6)
          0x0068fd76      246e001c       movea.l 0x1c(a6), a2
          0x0068fd7a      4852           pea.l (a2)
          0x0068fd7c      2f2effaa       move.l -0x56(a6), -(a7)
          0x0068fd80      2f2effa6       move.l -0x5a(a6), -(a7)
          0x0068fd84      3f2e0126       move.w 0x126(a6), -(a7)
          0x0068fd88      3f2e0124       move.w 0x124(a6), -(a7)
          0x0068fd8c      486effb2       pea.l -0x4e(a6)
          0x0068fd90      486effae       pea.l -0x52(a6)
          0x0068fd94      4ebaf25c       jsr BOOTCOM.act_blocks(pc)
          0x0068fd98      defc001e       adda.w 0x1e, a7
          0x0068fd9c      4a1f           tst.b (a7)+
      < 0x0068fd9e      6628           bne.b 0x68fdc8
         0x0068fda0      3f2e0126       move.w 0x126(a6), -(a7)
         0x0068fda4      9ec3           suba.w d3, a7
         0x0068fda6      244f           movea.l a7, a2
         0x0068fda8      47fac786       lea.l 0x68c530(pc), a3
         0x0068fdac      7004           moveq 0x4, d0
     > 0x0068fdae      24db           move.l (a3)+, (a2)+
     < 0x0068fdb0      51c8fffc       dbra d0, 0x68fdae
         0x0068fdb4      4ebaee3e       jsr BOOTCOM.my_box_error(pc)
         0x0068fdb8      defc0102       adda.w 0x102, a7
         0x0068fdbc      486effb6       pea.l -0x4a(a6)
         0x0068fdc0      4eb900404468   jsr fcn.00404468
         0x0068fdc6      584f           addq.w 0x4, a7
      > 0x0068fdc8      246e0018       movea.l 0x18(a6), a2
          0x0068fdcc      2012           move.l (a2), d0
          0x0068fdce      d0aeffb2       add.l -0x4e(a6), d0
          0x0068fdd2      2480           move.l d0, (a2)
          0x0068fdd4      4a11           tst.b (a1)
      < 0x0068fdd6      6612           bne.b 0x68fdea
         0x0068fdd8      487ac76b       pea.l 0x68c545(pc)
         0x0068fddc      4878001b       pea.l 0x1b
         0x0068fde0      2f17           move.l (a7), -(a7)
         0x0068fde2      4e94           jsr (a4)                    ; fcn.0000000d
         0x0068fde4      dec2           adda.w d2, a7
     < 0x0068fde6      6000009e       bra.w 0x68fe86
     > 0x0068fdea      b090           cmp.l (a0), d0
     < 0x0068fdec      6768           beq.b 0x68fe56
        0x0068fdee      487ac771       pea.l 0x68c561(pc)
        0x0068fdf2      4878001b       pea.l 0x1b
        0x0068fdf6      2f17           move.l (a7), -(a7)
        0x0068fdf8      4e94           jsr (a4)                    ; fcn.0000000d
        0x0068fdfa      504f           addq.w 0x8, a7
        0x0068fdfc      2e90           move.l (a0), (a7)
        0x0068fdfe      4878ffff       pea.l 0xffff
        0x0068fe02      4eb9004070e4   jsr p_wti_o
        0x0068fe08      504f           addq.w 0x8, a7
        0x0068fe0a      487ac771       pea.l 0x68c57d(pc)
        0x0068fe0e      48780006       pea.l 0x6
        0x0068fe12      2f17           move.l (a7), -(a7)
        0x0068fe14      4e94           jsr (a4)                    ; fcn.0000000d
        0x0068fe16      504f           addq.w 0x8, a7
        0x0068fe18      2e80           move.l d0, (a7)
        0x0068fe1a      4878ffff       pea.l 0xffff
        0x0068fe1e      4eb9004070e4   jsr p_wti_o
        0x0068fe24      504f           addq.w 0x8, a7
        0x0068fe26      4eb900404946   jsr p_wtln_o
        0x0068fe2c      3f2e0126       move.w 0x126(a6), -(a7)
        0x0068fe30      9ec3           suba.w d3, a7
        0x0068fe32      224f           movea.l a7, a1
        0x0068fe34      45fac74d       lea.l 0x68c583(pc), a2
        0x0068fe38      720e           moveq 0xe, d1
    > 0x0068fe3a      12da           move.b (a2)+, (a1)+
    < 0x0068fe3c      51c9fffc       dbra d1, 0x68fe3a
        0x0068fe40      4ebaedb2       jsr BOOTCOM.my_box_error(pc)
        0x0068fe44      defc0102       adda.w 0x102, a7
        0x0068fe48      486effb6       pea.l -0x4a(a6)
        0x0068fe4c      4eb900404468   jsr fcn.00404468
        0x0068fe52      584f           addq.w 0x4, a7
    < 0x0068fe54      6036           bra.b 0x68fe8c
    > 0x0068fe56      487ac73b       pea.l 0x68c593(pc)
        0x0068fe5a      4878001c       pea.l 0x1c
        0x0068fe5e      2f17           move.l (a7), -(a7)
        0x0068fe60      4e94           jsr (a4)                    ; fcn.0000000d
        0x0068fe62      dec2           adda.w d2, a7
        0x0068fe64      322e0130       move.w 0x130(a6), d1
        0x0068fe68      48c1           ext.l d1
        0x0068fe6a      2f01           move.l d1, -(a7)
        0x0068fe6c      48780000       pea.l 0x0
        0x0068fe70      4eb9004070e4   jsr p_wti_o
        0x0068fe76      504f           addq.w 0x8, a7
        0x0068fe78      487ac736       pea.l 0x68c5b0(pc)
        0x0068fe7c      48780003       pea.l 0x3
        0x0068fe80      2f17           move.l (a7), -(a7)
        0x0068fe82      4e94           jsr (a4)                    ; fcn.0000000d
        0x0068fe84      dec2           adda.w d2, a7
    > 0x0068fe86      4eb900404946   jsr p_wtln_o
    > 0x0068fe8c      1d7c00010136   move.b 0x1, 0x136(a6)
       > 0x0068fe92      486effa2       pea.l -0x5e(a6)
           0x0068fe96      4eb90060470a   jsr F9_FILERDWRT.f_close
           0x0068fe9c      584f           addq.w 0x4, a7
           0x0068fe9e      486eff9e       pea.l -0x62(a6)
           0x0068fea2      4eb90060500e   jsr F9_FILERDWRT.f_free_block
           0x0068fea8      584f           addq.w 0x4, a7
           0x0068feaa      4cdf1f0f       movem.l (a7)+, d0-d3/a0-a4
           0x0068feae      4e5e           unlk a6
           0x0068feb0      4e75           rts
            ; CALL XREF from BOOTCOM.checksum_magopt @ 0x692140
 352: BOOTCOM.checksum_remova ();
           0x0068feb2      4e56fe4a       link.w a6, 0xfe4a
           0x0068feb6      bfd5           cmpa.l (a5), a7
       < 0x0068feb8      6206           bhi.b 0x68fec0
          0x0068feba      44fc0002       move.w 0x2, ccr
          0x0068febe      4e76           trapv
       > 0x0068fec0      defc0158       adda.w 0x158, a7
           0x0068fec4      48e7c0f8       movem.l d0-d1/a0-a4, -(a7)
           0x0068fec8      47eeffa6       lea.l -0x5a(a6), a3
           0x0068fecc      49eeffb2       lea.l -0x4e(a6), a4
           0x0068fed0      7201           moveq 0x1, d1
           0x0068fed2      422e0132       clr.b 0x132(a6)
           0x0068fed6      554f           subq.w 0x2, a7
           0x0068fed8      4854           pea.l (a4)
           0x0068feda      4eb900404434   jsr fcn.00404434
           0x0068fee0      584f           addq.w 0x4, a7
           0x0068fee2      4a1f           tst.b (a7)+
       < 0x0068fee4      6700010e       beq.w 0x68fff4
          0x0068fee8      554f           subq.w 0x2, a7
          0x0068feea      2f2e012e       move.l 0x12e(a6), -(a7)
          0x0068feee      302e012c       move.w 0x12c(a6), d0
          0x0068fef2      48c0           ext.l d0
          0x0068fef4      2f00           move.l d0, -(a7)
          0x0068fef6      3f2e0122       move.w 0x122(a6), -(a7)
          0x0068fefa      9efc0100       suba.w 0x100, a7
          0x0068fefe      204f           movea.l a7, a0
          0x0068ff00      43ee0020       lea.l 0x20(a6), a1
          0x0068ff04      703f           moveq 0x3f, d0
      > 0x0068ff06      20d9           move.l (a1)+, (a0)+
      < 0x0068ff08      51c8fffc       dbra d0, 0x68ff06
          0x0068ff0c      486effa2       pea.l -0x5e(a6)
          0x0068ff10      206e001c       movea.l 0x1c(a6), a0
          0x0068ff14      4850           pea.l (a0)
          0x0068ff16      4853           pea.l (a3)
          0x0068ff18      206e0124       movea.l 0x124(a6), a0
          0x0068ff1c      4850           pea.l (a0)
          0x0068ff1e      486effaa       pea.l -0x56(a6)
          0x0068ff22      486effae       pea.l -0x52(a6)
          0x0068ff26      206e0128       movea.l 0x128(a6), a0
          0x0068ff2a      4850           pea.l (a0)
          0x0068ff2c      206e0014       movea.l 0x14(a6), a0
          0x0068ff30      4850           pea.l (a0)
          0x0068ff32      206e0010       movea.l 0x10(a6), a0
          0x0068ff36      4850           pea.l (a0)
          0x0068ff38      206e000c       movea.l 0xc(a6), a0
          0x0068ff3c      4850           pea.l (a0)
          0x0068ff3e      206e0008       movea.l 0x8(a6), a0
          0x0068ff42      4850           pea.l (a0)
          0x0068ff44      4ebaf964       jsr BOOTCOM.start_read(pc)
          0x0068ff48      defc0136       adda.w 0x136, a7
          0x0068ff4c      4a1f           tst.b (a7)+
      < 0x0068ff4e      6624           bne.b 0x68ff74
         0x0068ff50      487ac662       pea.l 0x68c5b4(pc)
         0x0068ff54      48780011       pea.l 0x11
         0x0068ff58      2f17           move.l (a7), -(a7)
         0x0068ff5a      4eb9004047ea   jsr p_wts_o
         0x0068ff60      defc000c       adda.w 0xc, a7
         0x0068ff64      4eb900404946   jsr p_wtln_o
         0x0068ff6a      4854           pea.l (a4)
         0x0068ff6c      4eb900404468   jsr fcn.00404468
         0x0068ff72      584f           addq.w 0x4, a7
      > 0x0068ff74      206e0018       movea.l 0x18(a6), a0
          0x0068ff78      554f           subq.w 0x2, a7
          0x0068ff7a      1f01           move.b d1, -(a7)
          0x0068ff7c      4853           pea.l (a3)
          0x0068ff7e      4853           pea.l (a3)
          0x0068ff80      2f2effae       move.l -0x52(a6), -(a7)
          0x0068ff84      2f2effaa       move.l -0x56(a6), -(a7)
          0x0068ff88      3f2e0122       move.w 0x122(a6), -(a7)
          0x0068ff8c      3f2e0120       move.w 0x120(a6), -(a7)
          0x0068ff90      4850           pea.l (a0)
          0x0068ff92      486efffc       pea.l -0x4(a6)
          0x0068ff96      4ebaf05a       jsr BOOTCOM.act_blocks(pc)
          0x0068ff9a      defc001e       adda.w 0x1e, a7
          0x0068ff9e      4a1f           tst.b (a7)+
      < 0x0068ffa0      6628           bne.b 0x68ffca
         0x0068ffa2      3f2e0122       move.w 0x122(a6), -(a7)
         0x0068ffa6      9efc0100       suba.w 0x100, a7
         0x0068ffaa      224f           movea.l a7, a1
         0x0068ffac      45fac617       lea.l 0x68c5c5(pc), a2
         0x0068ffb0      7018           moveq 0x18, d0
     > 0x0068ffb2      12da           move.b (a2)+, (a1)+
     < 0x0068ffb4      51c8fffc       dbra d0, 0x68ffb2
         0x0068ffb8      4ebaec3a       jsr BOOTCOM.my_box_error(pc)
         0x0068ffbc      defc0102       adda.w 0x102, a7
         0x0068ffc0      4854           pea.l (a4)
         0x0068ffc2      4eb900404468   jsr fcn.00404468
         0x0068ffc8      584f           addq.w 0x4, a7
      > 0x0068ffca      487ac613       pea.l 0x68c5df(pc)
          0x0068ffce      48780018       pea.l 0x18
          0x0068ffd2      2f17           move.l (a7), -(a7)
          0x0068ffd4      4eb9004047ea   jsr p_wts_o
          0x0068ffda      504f           addq.w 0x8, a7
          0x0068ffdc      2e90           move.l (a0), (a7)
          0x0068ffde      4878ffff       pea.l 0xffff
          0x0068ffe2      4eb9004070e4   jsr p_wti_o
          0x0068ffe8      504f           addq.w 0x8, a7
          0x0068ffea      4eb900404946   jsr p_wtln_o
          0x0068fff0      1d410132       move.b d1, 0x132(a6)
       > 0x0068fff4      4853           pea.l (a3)
           0x0068fff6      4eb90060470a   jsr F9_FILERDWRT.f_close
           0x0068fffc      584f           addq.w 0x4, a7
           0x0068fffe      486effa2       pea.l -0x5e(a6)
           0x00690002      4eb90060500e   jsr F9_FILERDWRT.f_free_block
           0x00690008      584f           addq.w 0x4, a7
           0x0069000a      4cdf1f03       movem.l (a7)+, d0-d1/a0-a4
           0x0069000e      4e5e           unlk a6
           0x00690010      4e75           rts
            ; CALL XREF from BOOTCOM.create_and_copy @ 0x6908f0
            ; CALL XREF from BOOTCOM.load_sw @ 0x691a18
            ; CALL XREF from BOOTCOM.unboot @ 0x6928ae
 912: BOOTCOM.set_headers ();
           ; var int32_t var_8h @ a7+0x8
           ; var int32_t var_112h @ a7+0x112
           0x00690012      4e56fe56       link.w a6, 0xfe56
           0x00690016      bfd5           cmpa.l (a5), a7
       < 0x00690018      6206           bhi.b 0x690020
          0x0069001a      44fc0002       move.w 0x2, ccr
          0x0069001e      4e76           trapv
       > 0x00690020      defc0148       adda.w 0x148, a7
           0x00690024      48e7fff8       movem.l d0-d7/a0-a4, -(a7)
           0x00690028      45f9004047ea   lea.l p_wts_o, a2
           0x0069002e      47f900404946   lea.l p_wtln_o, a3
           0x00690034      49f9004070e4   lea.l p_wti_o, a4
           0x0069003a      760c           moveq 0xc, d3
           0x0069003c      383c0100       move.w 0x100, d4
           0x00690040      3a3c0102       move.w 0x102, d5
           0x00690044      3c3c010c       move.w 0x10c, d6
           0x00690048      7e0a           moveq 0xa, d7
           0x0069004a      2f2e0212       move.l 0x212(a6), -(a7)
           0x0069004e      41eeffe8       lea.l -0x18(a6), a0
           0x00690052      2f08           move.l a0, -(a7)
           0x00690054      48780018       pea.l 0x18
           0x00690058      4eb9006d1c4e   jsr MEM_COPY
           0x0069005e      9efc00f4       suba.w 0xf4, a7
           0x00690062      486e0216       pea.l 0x216(a6)
           0x00690066      4eb9005ef416   jsr F2_UTILITY.f_fid_string
           0x0069006c      584f           addq.w 0x4, a7
           0x0069006e      487ac588       pea.l 0x68c5f8(pc)
           0x00690072      4878000e       pea.l 0xe
           0x00690076      2f17           move.l (a7), -(a7)
           0x00690078      4e92           jsr (a2)                    ; fcn.00000009+0x2
           0x0069007a      dec3           adda.w d3, a7
           0x0069007c      486f0001       pea.l 0x1(a7)
           0x00690080      42a7           clr.l -(a7)
           0x00690082      1f6f00080003   move.b 0x8(a7), 0x3(a7)
           0x00690088      2f17           move.l (a7), -(a7)
           0x0069008a      4e92           jsr (a2)                    ; fcn.00000009+0x2
           0x0069008c      dec6           adda.w d6, a7
           0x0069008e      487ac577       pea.l 0x68c607(pc)
           0x00690092      48780002       pea.l 0x2
           0x00690096      2f17           move.l (a7), -(a7)
           0x00690098      4e92           jsr (a2)                    ; fcn.00000009+0x2
           0x0069009a      dec3           adda.w d3, a7
           0x0069009c      486e0113       pea.l 0x113(a6)
           0x006900a0      42a7           clr.l -(a7)
           0x006900a2      1f6e01120003   move.b 0x112(a6), 0x3(a7)
           0x006900a8      2f17           move.l (a7), -(a7)
           0x006900aa      4e92           jsr (a2)                    ; fcn.00000009+0x2
           0x006900ac      dec3           adda.w d3, a7
           0x006900ae      487ac55a       pea.l 0x68c60a(pc)
           0x006900b2      48780007       pea.l 0x7
           0x006900b6      2f17           move.l (a7), -(a7)
           0x006900b8      4e92           jsr (a2)                    ; fcn.00000009+0x2
           0x006900ba      504f           addq.w 0x8, a7
           0x006900bc      2eae000a       move.l 0xa(a6), (a7)
           0x006900c0      48780000       pea.l 0x0
           0x006900c4      4e94           jsr (a4)                    ; fcn.0000000d
           0x006900c6      504f           addq.w 0x8, a7
           0x006900c8      4e93           jsr (a3)                    ; fcn.0000000c
           0x006900ca      2f2effe8       move.l -0x18(a6), -(a7)
           0x006900ce      4878ffff       pea.l 0xffff
           0x006900d2      4e94           jsr (a4)                    ; fcn.0000000d
           0x006900d4      5c4f           addq.w 0x6, a7
           0x006900d6      1ebc002d       move.b 0x2d, (a7)
           0x006900da      48780001       pea.l 0x1
           0x006900de      4eb9004048b4   jsr p_wtc_o
           0x006900e4      544f           addq.w 0x2, a7
           0x006900e6      2eaeffec       move.l -0x14(a6), (a7)
           0x006900ea      4878ffff       pea.l 0xffff
           0x006900ee      4e94           jsr (a4)                    ; fcn.0000000d
           0x006900f0      5c4f           addq.w 0x6, a7
           0x006900f2      1ebc0028       move.b 0x28, (a7)
           0x006900f6      48780001       pea.l 0x1
           0x006900fa      4eb9004048b4   jsr p_wtc_o
           0x00690100      5c4f           addq.w 0x6, a7
           0x00690102      202effec       move.l -0x14(a6), d0
           0x00690106      90aeffe8       sub.l -0x18(a6), d0
           0x0069010a      2f00           move.l d0, -(a7)
           0x0069010c      4878ffff       pea.l 0xffff
           0x00690110      4e94           jsr (a4)                    ; fcn.0000000d
           0x00690112      504f           addq.w 0x8, a7
           0x00690114      487ac4fc       pea.l 0x68c612(pc)
           0x00690118      48780002       pea.l 0x2
           0x0069011c      2f17           move.l (a7), -(a7)
           0x0069011e      4e92           jsr (a2)                    ; fcn.00000009+0x2
           0x00690120      504f           addq.w 0x8, a7
           0x00690122      2eaefff4       move.l -0xc(a6), (a7)
           0x00690126      4878ffff       pea.l 0xffff
           0x0069012a      4e94           jsr (a4)                    ; fcn.0000000d
           0x0069012c      504f           addq.w 0x8, a7
           0x0069012e      4e93           jsr (a3)                    ; fcn.0000000c
           0x00690130      487ac4e3       pea.l 0x68c615(pc)
           0x00690134      48780012       pea.l 0x12
           0x00690138      2f17           move.l (a7), -(a7)
           0x0069013a      4e92           jsr (a2)                    ; fcn.00000009+0x2
           0x0069013c      dec7           adda.w d7, a7
           0x0069013e      1eae0010       move.b 0x10(a6), (a7)
           0x00690142      48780005       pea.l 0x5
           0x00690146      4eb90040718c   jsr p_wtb_o
           0x0069014c      5c4f           addq.w 0x6, a7
           0x0069014e      487ac4d8       pea.l 0x68c628(pc)
           0x00690152      4878000c       pea.l 0xc
           0x00690156      2f17           move.l (a7), -(a7)
           0x00690158      4e92           jsr (a2)                    ; fcn.00000009+0x2
           0x0069015a      dec3           adda.w d3, a7
           0x0069015c      4280           clr.l d0
           0x0069015e      302e000e       move.w 0xe(a6), d0
           0x00690162      2f00           move.l d0, -(a7)
           0x00690164      48780000       pea.l 0x0
           0x00690168      4e94           jsr (a4)                    ; fcn.0000000d
           0x0069016a      504f           addq.w 0x8, a7
           0x0069016c      4e93           jsr (a3)                    ; fcn.0000000c
           0x0069016e      422e0224       clr.b 0x224(a6)
           0x00690172      554f           subq.w 0x2, a7
           0x00690174      486eff9e       pea.l -0x62(a6)
           0x00690178      4eb900404434   jsr fcn.00404434
           0x0069017e      584f           addq.w 0x4, a7
           0x00690180      4a1f           tst.b (a7)+
       < 0x00690182      67000216       beq.w 0x69039a
          0x00690186      554f           subq.w 0x2, a7
          0x00690188      3f3c0003       move.w 0x3, -(a7)
          0x0069018c      2f2e0220       move.l 0x220(a6), -(a7)
          0x00690190      2f2e0212       move.l 0x212(a6), -(a7)
          0x00690194      3f3c0018       move.w 0x18, -(a7)
          0x00690198      4eb9005eed96   jsr f_put_field
          0x0069019e      dec3           adda.w d3, a7
          0x006901a0      4a1f           tst.b (a7)+
      < 0x006901a2      66000086       bne.w 0x69022a
         0x006901a6      9ec4           suba.w d4, a7
         0x006901a8      4eb900408ec0   jsr p_err_string
         0x006901ae      487ac485       pea.l 0x68c635(pc)
         0x006901b2      4878001f       pea.l 0x1f
         0x006901b6      2f17           move.l (a7), -(a7)
         0x006901b8      4e92           jsr (a2)                    ; fcn.00000009+0x2
         0x006901ba      dec3           adda.w d3, a7
         0x006901bc      486f0001       pea.l 0x1(a7)
         0x006901c0      42a7           clr.l -(a7)
         0x006901c2      1f6f00080003   move.b 0x8(a7), 0x3(a7)
         0x006901c8      2f17           move.l (a7), -(a7)
         0x006901ca      4e92           jsr (a2)                    ; fcn.00000009+0x2
         0x006901cc      dec6           adda.w d6, a7
         0x006901ce      4e93           jsr (a3)                    ; fcn.0000000c
         0x006901d0      3f2e0008       move.w 0x8(a6), -(a7)
         0x006901d4      9ec4           suba.w d4, a7
         0x006901d6      4240           clr.w d0
         0x006901d8      102e0012       move.b 0x12(a6), d0
         0x006901dc      3200           move.w d0, d1
         0x006901de      41ef0001       lea.l 0x1(a7), a0
         0x006901e2      5301           subq.b 0x1, d1
     < 0x006901e4      650a           bcs.b 0x6901f0
        0x006901e6      43ee0013       lea.l 0x13(a6), a1
    > 0x006901ea      10d9           move.b (a1)+, (a0)+
    < 0x006901ec      51c9fffc       dbra d1, 0x6901ea
     > 0x006901f0      720b           moveq 0xb, d1
         0x006901f2      d200           add.b d0, d1
     < 0x006901f4      6406           bcc.b 0x6901fc
        0x006901f6      4eb900406c8a   jsr p_strovr
     > 0x006901fc      720b           moveq 0xb, d1
         0x006901fe      343c00ff       move.w 0xff, d2
         0x00690202      9440           sub.w d0, d2
         0x00690204      b242           cmp.w d2, d1
     < 0x00690206      6302           bls.b 0x69020a
        0x00690208      3202           move.w d2, d1
     > 0x0069020a      1e80           move.b d0, (a7)
         0x0069020c      d317           add.b d1, (a7)
         0x0069020e      43fac445       lea.l 0x68c655(pc), a1
     > 0x00690212      10d9           move.b (a1)+, (a0)+
     < 0x00690214      51c9fffc       dbra d1, 0x690212
         0x00690218      4ebae9da       jsr BOOTCOM.my_box_error(pc)
         0x0069021c      dec5           adda.w d5, a7
         0x0069021e      486eff9e       pea.l -0x62(a6)
         0x00690222      4eb900404468   jsr fcn.00404468
         0x00690228      584f           addq.w 0x4, a7
      > 0x0069022a      554f           subq.w 0x2, a7
          0x0069022c      3f3c0014       move.w 0x14, -(a7)
          0x00690230      2f2e0220       move.l 0x220(a6), -(a7)
          0x00690234      486e0112       pea.l 0x112(a6)
          0x00690238      4eb9005eedf6   jsr f_put_string
          0x0069023e      dec7           adda.w d7, a7
          0x00690240      4a1f           tst.b (a7)+
      < 0x00690242      666a           bne.b 0x6902ae
         0x00690244      487ac41b       pea.l 0x68c661(pc)
         0x00690248      4878001a       pea.l 0x1a
         0x0069024c      2f17           move.l (a7), -(a7)
         0x0069024e      4e92           jsr (a2)                    ; fcn.00000009+0x2
         0x00690250      dec3           adda.w d3, a7
         0x00690252      4e93           jsr (a3)                    ; fcn.0000000c
         0x00690254      3f2e0008       move.w 0x8(a6), -(a7)
         0x00690258      9ec4           suba.w d4, a7
         0x0069025a      4240           clr.w d0
         0x0069025c      102e0012       move.b 0x12(a6), d0
         0x00690260      3200           move.w d0, d1
         0x00690262      41ef0001       lea.l 0x1(a7), a0
         0x00690266      5301           subq.b 0x1, d1
     < 0x00690268      650a           bcs.b 0x690274
        0x0069026a      43ee0013       lea.l 0x13(a6), a1
    > 0x0069026e      10d9           move.b (a1)+, (a0)+
    < 0x00690270      51c9fffc       dbra d1, 0x69026e
     > 0x00690274      720b           moveq 0xb, d1
         0x00690276      d200           add.b d0, d1
     < 0x00690278      6406           bcc.b 0x690280
        0x0069027a      4eb900406c8a   jsr p_strovr
     > 0x00690280      720b           moveq 0xb, d1
         0x00690282      343c00ff       move.w 0xff, d2
         0x00690286      9440           sub.w d0, d2
         0x00690288      b242           cmp.w d2, d1
     < 0x0069028a      6302           bls.b 0x69028e
        0x0069028c      3202           move.w d2, d1
     > 0x0069028e      1e80           move.b d0, (a7)
         0x00690290      d317           add.b d1, (a7)
         0x00690292      43fac3e8       lea.l 0x68c67c(pc), a1
     > 0x00690296      10d9           move.b (a1)+, (a0)+
     < 0x00690298      51c9fffc       dbra d1, 0x690296
         0x0069029c      4ebae956       jsr BOOTCOM.my_box_error(pc)
         0x006902a0      dec5           adda.w d5, a7
         0x006902a2      486eff9e       pea.l -0x62(a6)
         0x006902a6      4eb900404468   jsr fcn.00404468
         0x006902ac      584f           addq.w 0x4, a7
      > 0x006902ae      4a2e0010       tst.b 0x10(a6)
      < 0x006902b2      675a           beq.b 0x69030e
         0x006902b4      554f           subq.w 0x2, a7
         0x006902b6      3f3c0050       move.w 0x50, -(a7)
         0x006902ba      2f2e0220       move.l 0x220(a6), -(a7)
         0x006902be      41ee000e       lea.l 0xe(a6), a0
         0x006902c2      2f08           move.l a0, -(a7)
         0x006902c4      3f3c0002       move.w 0x2, -(a7)
         0x006902c8      4eb9005eed96   jsr f_put_field
         0x006902ce      dec3           adda.w d3, a7
         0x006902d0      4a1f           tst.b (a7)+
     < 0x006902d2      663a           bne.b 0x69030e
        0x006902d4      487ac3b2       pea.l 0x68c688(pc)
        0x006902d8      48780014       pea.l 0x14
        0x006902dc      2f17           move.l (a7), -(a7)
        0x006902de      4e92           jsr (a2)                    ; fcn.00000009+0x2
        0x006902e0      dec3           adda.w d3, a7
        0x006902e2      4e93           jsr (a3)                    ; fcn.0000000c
        0x006902e4      3f2e0008       move.w 0x8(a6), -(a7)
        0x006902e8      9efc00fc       suba.w 0xfc, a7
        0x006902ec      2f3ac3ae       move.l 0x68c69c(pc), -(a7)
        0x006902f0      3f7ac3ae0004   move.w 0x68c6a0(pc), 0x4(a7)
        0x006902f6      1f7ac3aa0006   move.b 0x68c6a2(pc), 0x6(a7)
        0x006902fc      4ebae8f6       jsr BOOTCOM.my_box_error(pc)
        0x00690300      dec5           adda.w d5, a7
        0x00690302      486eff9e       pea.l -0x62(a6)
        0x00690306      4eb900404468   jsr fcn.00404468
        0x0069030c      584f           addq.w 0x4, a7
     > 0x0069030e      554f           subq.w 0x2, a7
          0x00690310      2f2e000a       move.l 0xa(a6), -(a7)
          0x00690314      2f2e021c       move.l 0x21c(a6), -(a7)
          0x00690318      2f2e0218       move.l 0x218(a6), -(a7)
          0x0069031c      3f2e0216       move.w 0x216(a6), -(a7)
          0x00690320      9ec4           suba.w d4, a7
          0x00690322      204f           movea.l a7, a0
          0x00690324      43ee0112       lea.l 0x112(a6), a1
          0x00690328      703f           moveq 0x3f, d0
      > 0x0069032a      20d9           move.l (a1)+, (a0)+
      < 0x0069032c      51c8fffc       dbra d0, 0x69032a
          0x00690330      4eb900608dbc   jsr F10_FILELIST.f_make_boot
          0x00690336      defc010e       adda.w 0x10e, a7
          0x0069033a      4a1f           tst.b (a7)+
      < 0x0069033c      6656           bne.b 0x690394
         0x0069033e      9ec4           suba.w d4, a7
         0x00690340      4eb900408ec0   jsr p_err_string
         0x00690346      487ac35c       pea.l 0x68c6a4(pc)
         0x0069034a      48780024       pea.l 0x24
         0x0069034e      2f17           move.l (a7), -(a7)
         0x00690350      4e92           jsr (a2)                    ; fcn.00000009+0x2
         0x00690352      dec3           adda.w d3, a7
         0x00690354      486f0001       pea.l 0x1(a7)
         0x00690358      42a7           clr.l -(a7)
         0x0069035a      1f6f00080003   move.b 0x8(a7), 0x3(a7)
         0x00690360      2f17           move.l (a7), -(a7)
         0x00690362      4e92           jsr (a2)                    ; fcn.00000009+0x2
         0x00690364      dec6           adda.w d6, a7
         0x00690366      4e93           jsr (a3)                    ; fcn.0000000c
         0x00690368      4eb900404188   jsr p_Unlink
         0x0069036e      3f2e0008       move.w 0x8(a6), -(a7)
         0x00690372      9ec4           suba.w d4, a7
         0x00690374      204f           movea.l a7, a0
         0x00690376      43fac350       lea.l 0x68c6c8(pc), a1
         0x0069037a      7005           moveq 0x5, d0
     > 0x0069037c      20d9           move.l (a1)+, (a0)+
     < 0x0069037e      51c8fffc       dbra d0, 0x69037c
         0x00690382      4ebae870       jsr BOOTCOM.my_box_error(pc)
         0x00690386      dec5           adda.w d5, a7
         0x00690388      486eff9e       pea.l -0x62(a6)
         0x0069038c      4eb900404468   jsr fcn.00404468
         0x00690392      584f           addq.w 0x4, a7
      > 0x00690394      1d7c00010224   move.b 0x1, 0x224(a6)
       > 0x0069039a      4cdf1fff       movem.l (a7)+, d0-d7/a0-a4
           0x0069039e      4e5e           unlk a6
           0x006903a0      4e75           rts
            ; CALL XREF from BOOTCOM.copy_checksum @ 0x6905ac
            ; CALL XREF from BOOTCOM.load_sw @ 0x69198a
 310: BOOTCOM.insert_checksum ();
           0x006903a2      4e56ff82       link.w a6, 0xff82
           0x006903a6      bfd5           cmpa.l (a5), a7
       < 0x006903a8      6206           bhi.b 0x6903b0
          0x006903aa      44fc0002       move.w 0x2, ccr
          0x006903ae      4e76           trapv
       > 0x006903b0      defc0034       adda.w 0x34, a7
           0x006903b4      48e7e0f8       movem.l d0-d2/a0-a4, -(a7)
           0x006903b8      43f9004047ea   lea.l p_wts_o, a1
           0x006903be      45eeffb6       lea.l -0x4a(a6), a2
           0x006903c2      47f900404946   lea.l p_wtln_o, a3
           0x006903c8      49ee001a       lea.l 0x1a(a6), a4
           0x006903cc      720c           moveq 0xc, d1
           0x006903ce      7401           moveq 0x1, d2
           0x006903d0      554f           subq.w 0x2, a7
           0x006903d2      4852           pea.l (a2)
           0x006903d4      4eb900404434   jsr fcn.00404434
           0x006903da      584f           addq.w 0x4, a7
           0x006903dc      4a1f           tst.b (a7)+
       < 0x006903de      670000f0       beq.w 0x6904d0
          0x006903e2      4a2e000c       tst.b 0xc(a6)
      < 0x006903e6      661c           bne.b 0x690404
         0x006903e8      487ac2f7       pea.l 0x68c6e1(pc)
         0x006903ec      48780013       pea.l 0x13
         0x006903f0      2f17           move.l (a7), -(a7)
         0x006903f2      4e91           jsr (a1)                    ; fcn.0000000a
         0x006903f4      dec1           adda.w d1, a7
         0x006903f6      4e93           jsr (a3)                    ; fcn.0000000c
         0x006903f8      1882           move.b d2, (a4)
         0x006903fa      4852           pea.l (a2)
         0x006903fc      4eb900404468   jsr fcn.00404468
         0x00690402      584f           addq.w 0x4, a7
      > 0x00690404      202e000e       move.l 0xe(a6), d0
          0x00690408      b0ae0016       cmp.l 0x16(a6), d0
      < 0x0069040c      6748           beq.b 0x690456
         0x0069040e      487ac2e5       pea.l 0x68c6f5(pc)
         0x00690412      4878001b       pea.l 0x1b
         0x00690416      2f17           move.l (a7), -(a7)
         0x00690418      4e91           jsr (a1)                    ; fcn.0000000a
         0x0069041a      504f           addq.w 0x8, a7
         0x0069041c      2e80           move.l d0, (a7)
         0x0069041e      4878ffff       pea.l 0xffff
         0x00690422      4eb9004070e4   jsr p_wti_o
         0x00690428      504f           addq.w 0x8, a7
         0x0069042a      487ac2e5       pea.l 0x68c711(pc)
         0x0069042e      48780006       pea.l 0x6
         0x00690432      2f17           move.l (a7), -(a7)
         0x00690434      4e91           jsr (a1)                    ; fcn.0000000a
         0x00690436      504f           addq.w 0x8, a7
         0x00690438      2eae0016       move.l 0x16(a6), (a7)
         0x0069043c      4878ffff       pea.l 0xffff
         0x00690440      4eb9004070e4   jsr p_wti_o
         0x00690446      504f           addq.w 0x8, a7
         0x00690448      4e93           jsr (a3)                    ; fcn.0000000c
         0x0069044a      4214           clr.b (a4)
         0x0069044c      4852           pea.l (a2)
         0x0069044e      4eb900404468   jsr fcn.00404468
         0x00690454      584f           addq.w 0x4, a7
      > 0x00690456      487ac2c0       pea.l 0x68c718(pc)
          0x0069045a      4878000b       pea.l 0xb
          0x0069045e      2f17           move.l (a7), -(a7)
          0x00690460      4e91           jsr (a1)                    ; fcn.0000000a
          0x00690462      504f           addq.w 0x8, a7
          0x00690464      2e80           move.l d0, (a7)
          0x00690466      4878ffff       pea.l 0xffff
          0x0069046a      4eb9004070e4   jsr p_wti_o
          0x00690470      504f           addq.w 0x8, a7
          0x00690472      487ac2b0       pea.l 0x68c724(pc)
          0x00690476      48780006       pea.l 0x6
          0x0069047a      2f17           move.l (a7), -(a7)
          0x0069047c      4e91           jsr (a1)                    ; fcn.0000000a
          0x0069047e      504f           addq.w 0x8, a7
          0x00690480      2eae0012       move.l 0x12(a6), (a7)
          0x00690484      4878ffff       pea.l 0xffff
          0x00690488      4eb9004070e4   jsr p_wti_o
          0x0069048e      504f           addq.w 0x8, a7
          0x00690490      4e93           jsr (a3)                    ; fcn.0000000c
          0x00690492      554f           subq.w 0x2, a7
          0x00690494      3f3c0036       move.w 0x36, -(a7)
          0x00690498      2f2e0008       move.l 0x8(a6), -(a7)
          0x0069049c      41ee000e       lea.l 0xe(a6), a0
          0x006904a0      2f08           move.l a0, -(a7)
          0x006904a2      3f3c0008       move.w 0x8, -(a7)
          0x006904a6      4eb9005eed96   jsr f_put_field
          0x006904ac      dec1           adda.w d1, a7
          0x006904ae      4a1f           tst.b (a7)+
      < 0x006904b0      661c           bne.b 0x6904ce
         0x006904b2      487ac277       pea.l 0x68c72b(pc)
         0x006904b6      48780028       pea.l 0x28
         0x006904ba      2f17           move.l (a7), -(a7)
         0x006904bc      4e91           jsr (a1)                    ; fcn.0000000a
         0x006904be      dec1           adda.w d1, a7
         0x006904c0      4e93           jsr (a3)                    ; fcn.0000000c
         0x006904c2      4214           clr.b (a4)
         0x006904c4      4852           pea.l (a2)
         0x006904c6      4eb900404468   jsr fcn.00404468
         0x006904cc      584f           addq.w 0x4, a7
      > 0x006904ce      1882           move.b d2, (a4)
       > 0x006904d0      4cdf1f07       movem.l (a7)+, d0-d2/a0-a4
           0x006904d4      4e5e           unlk a6
           0x006904d6      4e75           rts
            ; CALL XREF from BOOTCOM.create_and_copy @ 0x69093a
 238: BOOTCOM.copy_checksum ();
           0x006904d8      4e56ff82       link.w a6, 0xff82
           0x006904dc      bfd5           cmpa.l (a5), a7
       < 0x006904de      6206           bhi.b 0x6904e6
          0x006904e0      44fc0002       move.w 0x2, ccr
          0x006904e4      4e76           trapv
       > 0x006904e6      defc002c       adda.w 0x2c, a7
           0x006904ea      48e7f080       movem.l d0-d3/a0, -(a7)
           0x006904ee      7201           moveq 0x1, d1
           0x006904f0      7436           moveq 0x36, d2
           0x006904f2      760c           moveq 0xc, d3
           0x006904f4      487ac25e       pea.l 0x68c754(pc)
           0x006904f8      48780010       pea.l 0x10
           0x006904fc      2f17           move.l (a7), -(a7)
           0x006904fe      4eb9004047ea   jsr p_wts_o
           0x00690504      504f           addq.w 0x8, a7
           0x00690506      2eae0014       move.l 0x14(a6), (a7)
           0x0069050a      4878ffff       pea.l 0xffff
           0x0069050e      4eb9004070e4   jsr p_wti_o
           0x00690514      504f           addq.w 0x8, a7
           0x00690516      4eb900404946   jsr p_wtln_o
           0x0069051c      554f           subq.w 0x2, a7
           0x0069051e      486effb6       pea.l -0x4a(a6)
           0x00690522      4eb900404434   jsr fcn.00404434
           0x00690528      584f           addq.w 0x4, a7
           0x0069052a      4a1f           tst.b (a7)+
       < 0x0069052c      67000090       beq.w 0x6905be
          0x00690530      554f           subq.w 0x2, a7
          0x00690532      3f02           move.w d2, -(a7)
          0x00690534      2f2e0010       move.l 0x10(a6), -(a7)
          0x00690538      41eeffae       lea.l -0x52(a6), a0
          0x0069053c      2f08           move.l a0, -(a7)
          0x0069053e      3f3c0008       move.w 0x8, -(a7)
          0x00690542      4eb9005eed1e   jsr f_get_field
          0x00690548      dec3           adda.w d3, a7
          0x0069054a      4a1f           tst.b (a7)+
      < 0x0069054c      664a           bne.b 0x690598
         0x0069054e      554f           subq.w 0x2, a7
         0x00690550      3f02           move.w d2, -(a7)
         0x00690552      2f2e0010       move.l 0x10(a6), -(a7)
         0x00690556      4eb9005eecfc   jsr f_field_size
         0x0069055c      5c4f           addq.w 0x6, a7
         0x0069055e      301f           move.w (a7)+, d0
         0x00690560      0c400004       cmpi.w 0x4, d0
     < 0x00690564      660a           bne.b 0x690570
        0x00690566      487ac1fd       pea.l 0x68c765(pc)
        0x0069056a      48780027       pea.l 0x27
    < 0x0069056e      6008           bra.b 0x690578
    > 0x00690570      487ac21b       pea.l 0x68c78d(pc)
        0x00690574      48780013       pea.l 0x13
    > 0x00690578      2f17           move.l (a7), -(a7)
         0x0069057a      4eb9004047ea   jsr p_wts_o
         0x00690580      dec3           adda.w d3, a7
         0x00690582      4eb900404946   jsr p_wtln_o
         0x00690588      1d410018       move.b d1, 0x18(a6)
         0x0069058c      486effb6       pea.l -0x4a(a6)
         0x00690590      4eb900404468   jsr fcn.00404468
         0x00690596      584f           addq.w 0x4, a7
      > 0x00690598      554f           subq.w 0x2, a7
          0x0069059a      2f2e0014       move.l 0x14(a6), -(a7)
          0x0069059e      2f2effb2       move.l -0x4e(a6), -(a7)
          0x006905a2      2f2effae       move.l -0x52(a6), -(a7)
          0x006905a6      1f01           move.b d1, -(a7)
          0x006905a8      2f2e000c       move.l 0xc(a6), -(a7)
          0x006905ac      4ebafdf4       jsr BOOTCOM.insert_checksum(pc)
          0x006905b0      defc0012       adda.w 0x12, a7
          0x006905b4      101f           move.b (a7)+, d0
          0x006905b6      4880           ext.w d0
          0x006905b8      4181           chk.w d1, d0
          0x006905ba      1d400018       move.b d0, 0x18(a6)
       > 0x006905be      4cdf010f       movem.l (a7)+, d0-d3/a0
           0x006905c2      4e5e           unlk a6
           0x006905c4      4e75           rts
            ; CALL XREF from BOOTCOM.create_and_copy @ 0x6909a4
            ; CALL XREF from BOOTCOM.load_sw @ 0x691a6a
            ; CALL XREF from BOOTCOM.unboot @ 0x692916
 156: BOOTCOM.delete_if_not_n ();
           ; var int32_t var_8h @ a7+0x8
           0x006905c6      4e56fef0       link.w a6, 0xfef0
           0x006905ca      bfd5           cmpa.l (a5), a7
       < 0x006905cc      6206           bhi.b 0x6905d4
          0x006905ce      44fc0002       move.w 0x2, ccr
          0x006905d2      4e76           trapv
       > 0x006905d4      defc0110       adda.w 0x110, a7
           0x006905d8      554f           subq.w 0x2, a7
           0x006905da      2f2e000e       move.l 0xe(a6), -(a7)
           0x006905de      2f2e000a       move.l 0xa(a6), -(a7)
           0x006905e2      3f2e0008       move.w 0x8(a6), -(a7)
           0x006905e6      2f3ab740       move.l 0x68bd28(pc), -(a7)
           0x006905ea      2f3ab738       move.l 0x68bd24(pc), -(a7)
           0x006905ee      3f3ab732       move.w 0x68bd22(pc), -(a7)
           0x006905f2      4eb9005ef3d2   jsr F2_UTILITY.f_fids_eq
           0x006905f8      defc0014       adda.w 0x14, a7
           0x006905fc      4a1f           tst.b (a7)+
       < 0x006905fe      665e           bne.b 0x69065e
          0x00690600      554f           subq.w 0x2, a7
          0x00690602      2f2e000e       move.l 0xe(a6), -(a7)
          0x00690606      2f2e000a       move.l 0xa(a6), -(a7)
          0x0069060a      3f2e0008       move.w 0x8(a6), -(a7)
          0x0069060e      4eb900605066   jsr F9_FILERDWRT.f_delete
          0x00690614      defc000a       adda.w 0xa, a7
          0x00690618      4a1f           tst.b (a7)+
      < 0x0069061a      6642           bne.b 0x69065e
         0x0069061c      9efc0100       suba.w 0x100, a7
         0x00690620      4eb900408ec0   jsr p_err_string
         0x00690626      487ac179       pea.l 0x68c7a1(pc)
         0x0069062a      4878001f       pea.l 0x1f
         0x0069062e      2f17           move.l (a7), -(a7)
         0x00690630      4eb9004047ea   jsr p_wts_o
         0x00690636      defc000c       adda.w 0xc, a7
         0x0069063a      486f0001       pea.l 0x1(a7)
         0x0069063e      42a7           clr.l -(a7)
         0x00690640      1f6f00080003   move.b 0x8(a7), 0x3(a7)
         0x00690646      2f17           move.l (a7), -(a7)
         0x00690648      4eb9004047ea   jsr p_wts_o
         0x0069064e      defc010c       adda.w 0x10c, a7
         0x00690652      4eb900404946   jsr p_wtln_o
         0x00690658      4eb900404188   jsr p_Unlink
      > 0x0069065e      4e5e           unlk a6
           0x00690660      4e75           rts
            ; CALL XREF from BOOTCOM.make_floppy @ 0x690f34
            ; CALL XREF from BOOTCOM.make_magopt @ 0x691fb2
 872: BOOTCOM.create_and_copy ();
           ; var int32_t var_4984h @ a6-0x4984
           ; var int32_t var_4982h @ a6-0x4982
           ; var int32_t var_4980h @ a6-0x4980
           ; var int32_t var_8h @ a7+0x8
           0x00690662      4e56fd42       link.w a6, 0xfd42
           0x00690666      bfd5           cmpa.l (a5), a7
       < 0x00690668      6206           bhi.b 0x690670
          0x0069066a      44fc0002       move.w 0x2, ccr
          0x0069066e      4e76           trapv
       > 0x00690670      defc0256       adda.w 0x256, a7
           0x00690674      48e7fff8       movem.l d0-d7/a0-a4, -(a7)
           0x00690678      45f9004047ea   lea.l p_wts_o, a2
           0x0069067e      47eefff4       lea.l -0xc(a6), a3
           0x00690682      49eeff98       lea.l -0x68(a6), a4
           0x00690686      363c0100       move.w 0x100, d3
           0x0069068a      780c           moveq 0xc, d4
           0x0069068c      3a3c0102       move.w 0x102, d5
           0x00690690      2c3cffff0001   move.l 0xffff0001, d6
           0x00690696      2d7c00000001.  move.l 0x1, -0x14(a6)
           0x0069069e      2686           move.l d6, (a3)
           0x006906a0      2d7ab680ffe2   move.l 0x68bd22(pc), -0x1e(a6)
           0x006906a6      2d7ab67effe6   move.l 0x68bd26(pc), -0x1a(a6)
           0x006906ac      3d7ab67cffea   move.w 0x68bd2a(pc), -0x16(a6)
           0x006906b2      422e024c       clr.b 0x24c(a6)
           0x006906b6      554f           subq.w 0x2, a7
           0x006906b8      4854           pea.l (a4)
           0x006906ba      4eb900404434   jsr fcn.00404434
           0x006906c0      584f           addq.w 0x4, a7
           0x006906c2      4a1f           tst.b (a7)+
       < 0x006906c4      670002be       beq.w 0x690984
          0x006906c8      4a2e0016       tst.b 0x16(a6)
      < 0x006906cc      6718           beq.b 0x6906e6
         0x006906ce      202e0244       move.l 0x244(a6), d0
         0x006906d2      0c8000000634   cmpi.l 0x634, d0
     < 0x006906d8      6c04           bge.b 0x6906de
        0x006906da      2e00           move.l d0, d7
    < 0x006906dc      6020           bra.b 0x6906fe
    > 0x006906de      2e3c00000634   move.l 0x634, d7
    < 0x006906e4      6018           bra.b 0x6906fe
    > 0x006906e6      202e0244       move.l 0x244(a6), d0
        0x006906ea      0c80000001f4   cmpi.l 0x1f4, d0
    < 0x006906f0      6c06           bge.b 0x6906f8
       0x006906f2      2e00           move.l d0, d7
       0x006906f4      4487           neg.l d7
   < 0x006906f6      6006           bra.b 0x6906fe
   > 0x006906f8      2e3cfffffe0c   move.l 0xfffffe0c, d7
   > 0x006906fe      554f           subq.w 0x2, a7
          0x00690700      2f2e0248       move.l 0x248(a6), -(a7)
          0x00690704      3f3c0020       move.w 0x20, -(a7)
          0x00690708      2f07           move.l d7, -(a7)
          0x0069070a      486effe2       pea.l -0x1e(a6)
          0x0069070e      4853           pea.l (a3)
          0x00690710      4eb900607936   jsr F10_FILELIST.f_create
          0x00690716      defc0012       adda.w 0x12, a7
          0x0069071a      4a1f           tst.b (a7)+
      < 0x0069071c      66000090       bne.w 0x6907ae
         0x00690720      9ec3           suba.w d3, a7
         0x00690722      4eb900408ec0   jsr p_err_string
         0x00690728      487ac097       pea.l 0x68c7c1(pc)
         0x0069072c      4878001d       pea.l 0x1d
         0x00690730      2f17           move.l (a7), -(a7)
         0x00690732      4e92           jsr (a2)                    ; fcn.00000009+0x2
         0x00690734      dec4           adda.w d4, a7
         0x00690736      486f0001       pea.l 0x1(a7)
         0x0069073a      42a7           clr.l -(a7)
         0x0069073c      1f6f00080003   move.b 0x8(a7), 0x3(a7)
         0x00690742      2f17           move.l (a7), -(a7)
         0x00690744      4e92           jsr (a2)                    ; fcn.00000009+0x2
         0x00690746      defc010c       adda.w 0x10c, a7
         0x0069074a      4eb900404946   jsr p_wtln_o
         0x00690750      4eb900404188   jsr p_Unlink
         0x00690756      3f2e0234       move.w 0x234(a6), -(a7)
         0x0069075a      9ec3           suba.w d3, a7
         0x0069075c      4240           clr.w d0
         0x0069075e      102e0134       move.b 0x134(a6), d0
         0x00690762      3200           move.w d0, d1
         0x00690764      41ef0001       lea.l 0x1(a7), a0
         0x00690768      5301           subq.b 0x1, d1
     < 0x0069076a      650a           bcs.b 0x690776
        0x0069076c      43ee0135       lea.l 0x135(a6), a1
    > 0x00690770      10d9           move.b (a1)+, (a0)+
    < 0x00690772      51c9fffc       dbra d1, 0x690770
     > 0x00690776      720f           moveq 0xf, d1
         0x00690778      d200           add.b d0, d1
     < 0x0069077a      6406           bcc.b 0x690782
        0x0069077c      4eb900406c8a   jsr p_strovr
     > 0x00690782      720f           moveq 0xf, d1
         0x00690784      343c00ff       move.w 0xff, d2
         0x00690788      9440           sub.w d0, d2
         0x0069078a      b242           cmp.w d2, d1
     < 0x0069078c      6302           bls.b 0x690790
        0x0069078e      3202           move.w d2, d1
     > 0x00690790      1e80           move.b d0, (a7)
         0x00690792      d317           add.b d1, (a7)
         0x00690794      43fac049       lea.l 0x68c7df(pc), a1
     > 0x00690798      10d9           move.b (a1)+, (a0)+
     < 0x0069079a      51c9fffc       dbra d1, 0x690798
         0x0069079e      4ebae454       jsr BOOTCOM.my_box_error(pc)
         0x006907a2      dec5           adda.w d5, a7
         0x006907a4      4854           pea.l (a4)
         0x006907a6      4eb900404468   jsr fcn.00404468
         0x006907ac      584f           addq.w 0x4, a7
      > 0x006907ae      554f           subq.w 0x2, a7
          0x006907b0      2f2effe8       move.l -0x18(a6), -(a7)
          0x006907b4      2f2effe4       move.l -0x1c(a6), -(a7)
          0x006907b8      3f2effe2       move.w -0x1e(a6), -(a7)
          0x006907bc      1f06           move.b d6, -(a7)
          0x006907be      486effec       pea.l -0x14(a6)
          0x006907c2      4eb90060477a   jsr F9_FILERDWRT.f_op_block
          0x006907c8      defc0010       adda.w 0x10, a7
          0x006907cc      4a1f           tst.b (a7)+
      < 0x006907ce      6670           bne.b 0x690840
         0x006907d0      9ec3           suba.w d3, a7
         0x006907d2      4eb900408ec0   jsr p_err_string
         0x006907d8      487ac015       pea.l 0x68c7ef(pc)
         0x006907dc      4878001b       pea.l 0x1b
         0x006907e0      2f17           move.l (a7), -(a7)
         0x006907e2      4e92           jsr (a2)                    ; fcn.00000009+0x2
         0x006907e4      dec4           adda.w d4, a7
         0x006907e6      486f0001       pea.l 0x1(a7)
         0x006907ea      42a7           clr.l -(a7)
         0x006907ec      1f6f00080003   move.b 0x8(a7), 0x3(a7)
         0x006907f2      2f17           move.l (a7), -(a7)
         0x006907f4      4e92           jsr (a2)                    ; fcn.00000009+0x2
         0x006907f6      defc010c       adda.w 0x10c, a7
         0x006907fa      4eb900404946   jsr p_wtln_o
         0x00690800      4eb900404188   jsr p_Unlink
         0x00690806      3f2e0234       move.w 0x234(a6), -(a7)
         0x0069080a      9efc00fc       suba.w 0xfc, a7
         0x0069080e      2f3abffa       move.l 0x68c80a(pc), -(a7)
         0x00690812      2f7abffa0004   move.l 0x68c80e(pc), 0x4(a7)
         0x00690818      2f7abff80008   move.l 0x68c812(pc), 0x8(a7)
         0x0069081e      2f7abff6000c   move.l 0x68c816(pc), 0xc(a7)
         0x00690824      3f7abff40010   move.w 0x68c81a(pc), 0x10(a7)
         0x0069082a      1f7abff00012   move.b 0x68c81c(pc), 0x12(a7)
         0x00690830      4ebae3c2       jsr BOOTCOM.my_box_error(pc)
         0x00690834      dec5           adda.w d5, a7
         0x00690836      4854           pea.l (a4)
         0x00690838      4eb900404468   jsr fcn.00404468
         0x0069083e      584f           addq.w 0x4, a7
      > 0x00690840      554f           subq.w 0x2, a7
          0x00690842      4227           clr.b -(a7)
          0x00690844      206e0010       movea.l 0x10(a6), a0
          0x00690848      4850           pea.l (a0)
          0x0069084a      486effec       pea.l -0x14(a6)
          0x0069084e      2f2e0244       move.l 0x244(a6), -(a7)
          0x00690852      2f2e0240       move.l 0x240(a6), -(a7)
          0x00690856      3f2e0236       move.w 0x236(a6), -(a7)
          0x0069085a      3f2e0234       move.w 0x234(a6), -(a7)
          0x0069085e      486efffc       pea.l -0x4(a6)
          0x00690862      486efff8       pea.l -0x8(a6)
          0x00690866      4ebae78a       jsr BOOTCOM.act_blocks(pc)
          0x0069086a      defc001e       adda.w 0x1e, a7
          0x0069086e      4a1f           tst.b (a7)+
      < 0x00690870      6638           bne.b 0x6908aa
         0x00690872      487abfaa       pea.l 0x68c81e(pc)
         0x00690876      4878001b       pea.l 0x1b
         0x0069087a      2f17           move.l (a7), -(a7)
         0x0069087c      4e92           jsr (a2)                    ; fcn.00000009+0x2
         0x0069087e      dec4           adda.w d4, a7
         0x00690880      4eb900404946   jsr p_wtln_o
         0x00690886      3f2e0236       move.w 0x236(a6), -(a7)
         0x0069088a      9ec3           suba.w d3, a7
         0x0069088c      204f           movea.l a7, a0
         0x0069088e      43fabfa9       lea.l 0x68c839(pc), a1
         0x00690892      7013           moveq 0x13, d0
     > 0x00690894      10d9           move.b (a1)+, (a0)+
     < 0x00690896      51c8fffc       dbra d0, 0x690894
         0x0069089a      4ebae358       jsr BOOTCOM.my_box_error(pc)
         0x0069089e      dec5           adda.w d5, a7
         0x006908a0      4854           pea.l (a4)
         0x006908a2      4eb900404468   jsr fcn.00404468
         0x006908a8      584f           addq.w 0x4, a7
      > 0x006908aa      554f           subq.w 0x2, a7
          0x006908ac      2f13           move.l (a3), -(a7)
          0x006908ae      2f2effe8       move.l -0x18(a6), -(a7)
          0x006908b2      2f2effe4       move.l -0x1c(a6), -(a7)
          0x006908b6      3f2effe2       move.w -0x1e(a6), -(a7)
          0x006908ba      41ee011c       lea.l 0x11c(a6), a0
          0x006908be      2f08           move.l a0, -(a7)
          0x006908c0      9ec3           suba.w d3, a7
          0x006908c2      204f           movea.l a7, a0
          0x006908c4      43ee001c       lea.l 0x1c(a6), a1
          0x006908c8      703f           moveq 0x3f, d0
      > 0x006908ca      20d9           move.l (a1)+, (a0)+
      < 0x006908cc      51c8fffc       dbra d0, 0x6908ca
          0x006908d0      9ec3           suba.w d3, a7
          0x006908d2      204f           movea.l a7, a0
          0x006908d4      43ee0134       lea.l 0x134(a6), a1
          0x006908d8      703f           moveq 0x3f, d0
      > 0x006908da      20d9           move.l (a1)+, (a0)+
      < 0x006908dc      51c8fffc       dbra d0, 0x6908da
          0x006908e0      1f2e001a       move.b 0x1a(a6), -(a7)
          0x006908e4      3f2e0018       move.w 0x18(a6), -(a7)
          0x006908e8      2f2e0238       move.l 0x238(a6), -(a7)
          0x006908ec      3f2e0234       move.w 0x234(a6), -(a7)
          0x006908f0      4ebaf720       jsr BOOTCOM.set_headers(pc)
          0x006908f4      defc021c       adda.w 0x21c, a7
          0x006908f8      4a1f           tst.b (a7)+
      < 0x006908fa      661e           bne.b 0x69091a
         0x006908fc      487abf50       pea.l 0x68c84e(pc)
         0x00690900      48780012       pea.l 0x12
         0x00690904      2f17           move.l (a7), -(a7)
         0x00690906      4e92           jsr (a2)                    ; fcn.00000009+0x2
         0x00690908      dec4           adda.w d4, a7
         0x0069090a      4eb900404946   jsr p_wtln_o
         0x00690910      4854           pea.l (a4)
         0x00690912      4eb900404468   jsr fcn.00404468
         0x00690918      584f           addq.w 0x4, a7
      > 0x0069091a      206e0008       movea.l 0x8(a6), a0
          0x0069091e      2010           move.l (a0), d0
          0x00690920      d0aefffc       add.l -0x4(a6), d0
          0x00690924      2080           move.l d0, (a0)
          0x00690926      4a2e0014       tst.b 0x14(a6)
      < 0x0069092a      6752           beq.b 0x69097e
         0x0069092c      554f           subq.w 0x2, a7
         0x0069092e      2f00           move.l d0, -(a7)
         0x00690930      2f2e000c       move.l 0xc(a6), -(a7)
         0x00690934      2f13           move.l (a3), -(a7)
         0x00690936      2f2e023c       move.l 0x23c(a6), -(a7)
         0x0069093a      4ebafb9c       jsr BOOTCOM.copy_checksum(pc)
         0x0069093e      defc0010       adda.w 0x10, a7
         0x00690942      4a1f           tst.b (a7)+
     < 0x00690944      6638           bne.b 0x69097e
        0x00690946      487abf19       pea.l 0x68c861(pc)
        0x0069094a      4878001c       pea.l 0x1c
        0x0069094e      2f17           move.l (a7), -(a7)
        0x00690950      4e92           jsr (a2)                    ; fcn.00000009+0x2
        0x00690952      dec4           adda.w d4, a7
        0x00690954      4eb900404946   jsr p_wtln_o
        0x0069095a      3f2e0236       move.w 0x236(a6), -(a7)
        0x0069095e      9ec3           suba.w d3, a7
        0x00690960      204f           movea.l a7, a0
        0x00690962      43fabf19       lea.l 0x68c87d(pc), a1
        0x00690966      7213           moveq 0x13, d1
    > 0x00690968      10d9           move.b (a1)+, (a0)+
    < 0x0069096a      51c9fffc       dbra d1, 0x690968
        0x0069096e      4ebae284       jsr BOOTCOM.my_box_error(pc)
        0x00690972      dec5           adda.w d5, a7
        0x00690974      4854           pea.l (a4)
        0x00690976      4eb900404468   jsr fcn.00404468
        0x0069097c      584f           addq.w 0x4, a7
     > 0x0069097e      1d46024c       move.b d6, 0x24c(a6)
      < 0x00690982      6028           bra.b 0x6909ac
      > 0x00690984      486effec       pea.l -0x14(a6)
          0x00690988      4eb90060470a   jsr F9_FILERDWRT.f_close
          0x0069098e      584f           addq.w 0x4, a7
          0x00690990      4853           pea.l (a3)
          0x00690992      4eb90060500e   jsr F9_FILERDWRT.f_free_block
          0x00690998      2eaeffe8       move.l -0x18(a6), (a7)
          0x0069099c      2f2effe4       move.l -0x1c(a6), -(a7)
          0x006909a0      3f2effe2       move.w -0x1e(a6), -(a7)
          0x006909a4      4ebafc20       jsr BOOTCOM.delete_if_not_n(pc)
          0x006909a8      defc000a       adda.w 0xa, a7
      > 0x006909ac      4853           pea.l (a3)
           0x006909ae      4eb90060500e   jsr F9_FILERDWRT.f_free_block
           0x006909b4      584f           addq.w 0x4, a7
           0x006909b6      486effec       pea.l -0x14(a6)
           0x006909ba      4eb90060470a   jsr F9_FILERDWRT.f_close
           0x006909c0      584f           addq.w 0x4, a7
           0x006909c2      4cdf1fff       movem.l (a7)+, d0-d7/a0-a4
           0x006909c6      4e5e           unlk a6
           0x006909c8      4e75           rts
            ; CALL XREF from BOOTCOM.make_floppy @ 0x690e8c
 360: BOOTCOM.rename_disk (int32_t arg_10ah);
           ; var int32_t var_4cf4h @ a6-0x4cf4
           ; var int32_t var_4cf2h @ a6-0x4cf2
           ; var int32_t var_4cf0h @ a6-0x4cf0
           ; arg int32_t arg_10ah @ a6+0x10a
           ; var int32_t var_8h @ a7+0x8
           0x006909ca      4e56fe74       link.w a6, 0xfe74
           0x006909ce      bfd5           cmpa.l (a5), a7
       < 0x006909d0      6206           bhi.b 0x6909d8
          0x006909d2      44fc0002       move.w 0x2, ccr
          0x006909d6      4e76           trapv
       > 0x006909d8      defc0134       adda.w 0x134, a7
           0x006909dc      48e7f0f8       movem.l d0-d3/a0-a4, -(a7)
           0x006909e0      45eeffb2       lea.l -0x4e(a6), a2
           0x006909e4      47f9004047ea   lea.l p_wts_o, a3
           0x006909ea      49eeffb6       lea.l -0x4a(a6), a4
           0x006909ee      323c0100       move.w 0x100, d1
           0x006909f2      243cffff0001   move.l 0xffff0001, d2
           0x006909f8      760c           moveq 0xc, d3
           0x006909fa      422e010e       clr.b 0x10e(a6)
           0x006909fe      554f           subq.w 0x2, a7
           0x00690a00      4854           pea.l (a4)
           0x00690a02      4eb900404434   jsr fcn.00404434
           0x00690a08      584f           addq.w 0x4, a7
           0x00690a0a      4a1f           tst.b (a7)+
       < 0x00690a0c      6700011c       beq.w 0x690b2a
          0x00690a10      2d7ab310ffa8   move.l 0x68bd22(pc), -0x58(a6)
          0x00690a16      2d7ab30effac   move.l 0x68bd26(pc), -0x54(a6)
          0x00690a1c      3d7ab30cffb0   move.w 0x68bd2a(pc), -0x50(a6)
          0x00690a22      2d6e010affa8   move.l 0x10a(a6), -0x58(a6)
          0x00690a28      2482           move.l d2, (a2)
          0x00690a2a      554f           subq.w 0x2, a7
          0x00690a2c      2f2effae       move.l -0x52(a6), -(a7)
          0x00690a30      2f2effaa       move.l -0x56(a6), -(a7)
          0x00690a34      3f2effa8       move.w -0x58(a6), -(a7)
          0x00690a38      1f02           move.b d2, -(a7)
          0x00690a3a      4852           pea.l (a2)
          0x00690a3c      4eb9006082de   jsr F10_FILELIST.f_get_header
          0x00690a42      defc0010       adda.w 0x10, a7
          0x00690a46      4a1f           tst.b (a7)+
      < 0x00690a48      665c           bne.b 0x690aa6
         0x00690a4a      9ec1           suba.w d1, a7
         0x00690a4c      4eb900408ec0   jsr p_err_string
         0x00690a52      487abe3e       pea.l 0x68c892(pc)
         0x00690a56      4878001c       pea.l 0x1c
         0x00690a5a      2f17           move.l (a7), -(a7)
         0x00690a5c      4e93           jsr (a3)                    ; fcn.0000000c
         0x00690a5e      dec3           adda.w d3, a7
         0x00690a60      486f0001       pea.l 0x1(a7)
         0x00690a64      42a7           clr.l -(a7)
         0x00690a66      1f6f00080003   move.b 0x8(a7), 0x3(a7)
         0x00690a6c      2f17           move.l (a7), -(a7)
         0x00690a6e      4e93           jsr (a3)                    ; fcn.0000000c
         0x00690a70      defc010c       adda.w 0x10c, a7
         0x00690a74      4eb900404946   jsr p_wtln_o
         0x00690a7a      4eb900404188   jsr p_Unlink
         0x00690a80      3f2e0008       move.w 0x8(a6), -(a7)
         0x00690a84      9ec1           suba.w d1, a7
         0x00690a86      204f           movea.l a7, a0
         0x00690a88      43fabe24       lea.l 0x68c8ae(pc), a1
         0x00690a8c      7006           moveq 0x6, d0
     > 0x00690a8e      20d9           move.l (a1)+, (a0)+
     < 0x00690a90      51c8fffc       dbra d0, 0x690a8e
         0x00690a94      4ebae15e       jsr BOOTCOM.my_box_error(pc)
         0x00690a98      defc0102       adda.w 0x102, a7
         0x00690a9c      4854           pea.l (a4)
         0x00690a9e      4eb900404468   jsr fcn.00404468
         0x00690aa4      584f           addq.w 0x4, a7
      > 0x00690aa6      554f           subq.w 0x2, a7
          0x00690aa8      3f3c0014       move.w 0x14, -(a7)
          0x00690aac      2f12           move.l (a2), -(a7)
          0x00690aae      486e000a       pea.l 0xa(a6)
          0x00690ab2      4eb9005eedf6   jsr f_put_string
          0x00690ab8      defc000a       adda.w 0xa, a7
          0x00690abc      4a1f           tst.b (a7)+
      < 0x00690abe      665c           bne.b 0x690b1c
         0x00690ac0      9ec1           suba.w d1, a7
         0x00690ac2      4eb900408ec0   jsr p_err_string
         0x00690ac8      487abe01       pea.l 0x68c8cb(pc)
         0x00690acc      4878001c       pea.l 0x1c
         0x00690ad0      2f17           move.l (a7), -(a7)
         0x00690ad2      4e93           jsr (a3)                    ; fcn.0000000c
         0x00690ad4      dec3           adda.w d3, a7
         0x00690ad6      486f0001       pea.l 0x1(a7)
         0x00690ada      42a7           clr.l -(a7)
         0x00690adc      1f6f00080003   move.b 0x8(a7), 0x3(a7)
         0x00690ae2      2f17           move.l (a7), -(a7)
         0x00690ae4      4e93           jsr (a3)                    ; fcn.0000000c
         0x00690ae6      defc010c       adda.w 0x10c, a7
         0x00690aea      4eb900404946   jsr p_wtln_o
         0x00690af0      4eb900404188   jsr p_Unlink
         0x00690af6      3f2e0008       move.w 0x8(a6), -(a7)
         0x00690afa      9ec1           suba.w d1, a7
         0x00690afc      204f           movea.l a7, a0
         0x00690afe      43fabde7       lea.l 0x68c8e7(pc), a1
         0x00690b02      700b           moveq 0xb, d0
     > 0x00690b04      10d9           move.b (a1)+, (a0)+
     < 0x00690b06      51c8fffc       dbra d0, 0x690b04
         0x00690b0a      4ebae0e8       jsr BOOTCOM.my_box_error(pc)
         0x00690b0e      defc0102       adda.w 0x102, a7
         0x00690b12      4854           pea.l (a4)
         0x00690b14      4eb900404468   jsr fcn.00404468
         0x00690b1a      584f           addq.w 0x4, a7
      > 0x00690b1c      4852           pea.l (a2)
          0x00690b1e      4eb90060500e   jsr F9_FILERDWRT.f_free_block
          0x00690b24      584f           addq.w 0x4, a7
          0x00690b26      1d42010e       move.b d2, 0x10e(a6)
       > 0x00690b2a      4cdf1f0f       movem.l (a7)+, d0-d3/a0-a4
           0x00690b2e      4e5e           unlk a6
           0x00690b30      4e75           rts
            ; CALL XREF from BOOTCOM.make_floppy @ 0x690c20
 126: BOOTCOM.section_boot_da (int32_t arg_16h, int32_t arg_1eh, int32_t arg_22h);
           ; arg int32_t arg_16h @ a6+0x16
           ; arg int32_t arg_1eh @ a6+0x1e
           ; arg int32_t arg_22h @ a6+0x22
           0x00690b32      4e56ffd0       link.w a6, 0xffd0
           0x00690b36      bfd5           cmpa.l (a5), a7
       < 0x00690b38      6206           bhi.b 0x690b40
          0x00690b3a      44fc0002       move.w 0x2, ccr
          0x00690b3e      4e76           trapv
       > 0x00690b40      defc0018       adda.w 0x18, a7
           0x00690b44      48e7c0c0       movem.l d0-d1/a0-a1, -(a7)
           0x00690b48      202e000e       move.l 0xe(a6), d0
           0x00690b4c      e180           asl.l 0x8, d0
           0x00690b4e      e580           asl.l 0x2, d0
           0x00690b50      d0ae0012       add.l 0x12(a6), d0
           0x00690b54      2d40ffe8       move.l d0, -0x18(a6)
           0x00690b58      222e000a       move.l 0xa(a6), d1
           0x00690b5c      e181           asl.l 0x8, d1
           0x00690b5e      e581           asl.l 0x2, d1
           0x00690b60      d280           add.l d0, d1
           0x00690b62      5381           subq.l 0x1, d1
           0x00690b64      2d41ffec       move.l d1, -0x14(a6)
           0x00690b68      b2ae0016       cmp.l 0x16(a6), d1
       < 0x00690b6c      6f06           ble.b 0x690b74
          0x00690b6e      2d6e0016ffec   move.l 0x16(a6), -0x14(a6)
       > 0x00690b74      42aefff0       clr.l -0x10(a6)
           0x00690b78      4a2e0008       tst.b 0x8(a6)
       < 0x00690b7c      670e           beq.b 0x690b8c
          0x00690b7e      2d6e001efff4   move.l 0x1e(a6), -0xc(a6)
          0x00690b84      2d6e0022fff8   move.l 0x22(a6), -0x8(a6)
      < 0x00690b8a      6008           bra.b 0x690b94
      > 0x00690b8c      42aefff4       clr.l -0xc(a6)
          0x00690b90      42aefff8       clr.l -0x8(a6)
      > 0x00690b94      42aefffc       clr.l -0x4(a6)
           0x00690b98      41ee002a       lea.l 0x2a(a6), a0
           0x00690b9c      43eeffe8       lea.l -0x18(a6), a1
           0x00690ba0      7005           moveq 0x5, d0
       > 0x00690ba2      20d9           move.l (a1)+, (a0)+
       < 0x00690ba4      51c8fffc       dbra d0, 0x690ba2
           0x00690ba8      4cdf0303       movem.l (a7)+, d0-d1/a0-a1
           0x00690bac      4e5e           unlk a6
           0x00690bae      4e75           rts
            ; CALL XREF from BOOTCOM.make_floppies @ 0x691502
 1028: BOOTCOM.make_floppy ();
           0x00690bb0      4e56fc0e       link.w a6, 0xfc0e
           0x00690bb4      bfd5           cmpa.l (a5), a7
       < 0x00690bb6      6206           bhi.b 0x690bbe
          0x00690bb8      44fc0002       move.w 0x2, ccr
          0x00690bbc      4e76           trapv
       > 0x00690bbe      defc027e       adda.w 0x27e, a7
           0x00690bc2      48e7fff8       movem.l d0-d7/a0-a4, -(a7)
           0x00690bc6      45f9004047ea   lea.l p_wts_o, a2
           0x00690bcc      47f9004070e4   lea.l p_wti_o, a3
           0x00690bd2      49eefea8       lea.l -0x158(a6), a4
           0x00690bd6      7601           moveq 0x1, d3
           0x00690bd8      780c           moveq 0xc, d4
           0x00690bda      3a3c0100       move.w 0x100, d5
           0x00690bde      7c18           moveq 0x18, d6
           0x00690be0      422e0242       clr.b 0x242(a6)
           0x00690be4      554f           subq.w 0x2, a7
           0x00690be6      486effb6       pea.l -0x4a(a6)
           0x00690bea      4eb900404434   jsr fcn.00404434
           0x00690bf0      584f           addq.w 0x4, a7
           0x00690bf2      4a1f           tst.b (a7)+
       < 0x00690bf4      670003b6       beq.w 0x690fac
          0x00690bf8      9ec6           suba.w d6, a7
          0x00690bfa      206e0014       movea.l 0x14(a6), a0
          0x00690bfe      9ec6           suba.w d6, a7
          0x00690c00      224f           movea.l a7, a1
          0x00690c02      7017           moveq 0x17, d0
      > 0x00690c04      12d8           move.b (a0)+, (a1)+
      < 0x00690c06      51c8fffc       dbra d0, 0x690c04
          0x00690c0a      2f2e0132       move.l 0x132(a6), -(a7)
          0x00690c0e      2f2e012e       move.l 0x12e(a6), -(a7)
          0x00690c12      4227           clr.b -(a7)
          0x00690c14      202e013a       move.l 0x13a(a6), d0
          0x00690c18      b0ae0136       cmp.l 0x136(a6), d0
      < 0x00690c1c      6602           bne.b 0x690c20
         0x00690c1e      5217           addq.b 0x1, (a7)
      > 0x00690c20      4ebaff10       jsr BOOTCOM.section_boot_da(pc)
          0x00690c24      defc0022       adda.w 0x22, a7
          0x00690c28      41eefe90       lea.l -0x170(a6), a0
          0x00690c2c      7005           moveq 0x5, d0
      > 0x00690c2e      20df           move.l (a7)+, (a0)+
      < 0x00690c30      51c8fffc       dbra d0, 0x690c2e
          0x00690c34      4240           clr.w d0
          0x00690c36      102e0142       move.b 0x142(a6), d0
          0x00690c3a      3200           move.w d0, d1
          0x00690c3c      41eefea9       lea.l -0x157(a6), a0
          0x00690c40      5301           subq.b 0x1, d1
      < 0x00690c42      650a           bcs.b 0x690c4e
         0x00690c44      43ee0143       lea.l 0x143(a6), a1
     > 0x00690c48      10d9           move.b (a1)+, (a0)+
     < 0x00690c4a      51c9fffc       dbra d1, 0x690c48
      > 0x00690c4e      7206           moveq 0x6, d1
          0x00690c50      d200           add.b d0, d1
      < 0x00690c52      6406           bcc.b 0x690c5a
         0x00690c54      4eb900406c8a   jsr p_strovr
      > 0x00690c5a      7206           moveq 0x6, d1
          0x00690c5c      343c00ff       move.w 0xff, d2
          0x00690c60      9440           sub.w d0, d2
          0x00690c62      b242           cmp.w d2, d1
      < 0x00690c64      6302           bls.b 0x690c68
         0x00690c66      3202           move.w d2, d1
      > 0x00690c68      1880           move.b d0, (a4)
          0x00690c6a      d314           add.b d1, (a4)
          0x00690c6c      43fabc86       lea.l 0x68c8f4(pc), a1
      > 0x00690c70      10d9           move.b (a1)+, (a0)+
      < 0x00690c72      51c9fffc       dbra d1, 0x690c70
          0x00690c76      7030           moveq 0x30, d0
          0x00690c78      d0ae013a       add.l 0x13a(a6), d0
          0x00690c7c      554f           subq.w 0x2, a7
          0x00690c7e      1e83           move.b d3, (a7)
          0x00690c80      1f400001       move.b d0, 0x1(a7)
          0x00690c84      4240           clr.w d0
          0x00690c86      1014           move.b (a4), d0
          0x00690c88      41eefea9       lea.l -0x157(a6), a0
          0x00690c8c      d0c0           adda.w d0, a0
          0x00690c8e      4241           clr.w d1
          0x00690c90      1217           move.b (a7), d1
          0x00690c92      d200           add.b d0, d1
      < 0x00690c94      6406           bcc.b 0x690c9c
         0x00690c96      4eb900406c8a   jsr p_strovr
      > 0x00690c9c      4241           clr.w d1
          0x00690c9e      1217           move.b (a7), d1
          0x00690ca0      343c00ff       move.w 0xff, d2
          0x00690ca4      9440           sub.w d0, d2
          0x00690ca6      b242           cmp.w d2, d1
      < 0x00690ca8      6302           bls.b 0x690cac
         0x00690caa      3202           move.w d2, d1
      > 0x00690cac      d314           add.b d1, (a4)
          0x00690cae      5301           subq.b 0x1, d1
      < 0x00690cb0      650a           bcs.b 0x690cbc
         0x00690cb2      43ef0001       lea.l 0x1(a7), a1
     > 0x00690cb6      10d9           move.b (a1)+, (a0)+
     < 0x00690cb8      51c9fffc       dbra d1, 0x690cb6
      > 0x00690cbc      544f           addq.w 0x2, a7
          0x00690cbe      487abc3b       pea.l 0x68c8fb(pc)
          0x00690cc2      48780012       pea.l 0x12
          0x00690cc6      2f17           move.l (a7), -(a7)
          0x00690cc8      4e92           jsr (a2)                    ; fcn.00000009+0x2
          0x00690cca      504f           addq.w 0x8, a7
          0x00690ccc      2eae013a       move.l 0x13a(a6), (a7)
          0x00690cd0      48780000       pea.l 0x0
          0x00690cd4      4e93           jsr (a3)                    ; fcn.0000000c
          0x00690cd6      5c4f           addq.w 0x6, a7
          0x00690cd8      1ebc002f       move.b 0x2f, (a7)
          0x00690cdc      48780001       pea.l 0x1
          0x00690ce0      4eb9004048b4   jsr p_wtc_o
          0x00690ce6      544f           addq.w 0x2, a7
          0x00690ce8      2eae0136       move.l 0x136(a6), (a7)
          0x00690cec      48780000       pea.l 0x0
          0x00690cf0      4e93           jsr (a3)                    ; fcn.0000000c
          0x00690cf2      504f           addq.w 0x8, a7
          0x00690cf4      487abc18       pea.l 0x68c90e(pc)
          0x00690cf8      48780002       pea.l 0x2
          0x00690cfc      2f17           move.l (a7), -(a7)
          0x00690cfe      4e92           jsr (a2)                    ; fcn.00000009+0x2
          0x00690d00      dec4           adda.w d4, a7
          0x00690d02      486efea9       pea.l -0x157(a6)
          0x00690d06      42a7           clr.l -(a7)
          0x00690d08      1f540003       move.b (a4), 0x3(a7)
          0x00690d0c      2f17           move.l (a7), -(a7)
          0x00690d0e      4e92           jsr (a2)                    ; fcn.00000009+0x2
          0x00690d10      dec4           adda.w d4, a7
          0x00690d12      4eb900404946   jsr p_wtln_o
          0x00690d18      2f2efe90       move.l -0x170(a6), -(a7)
          0x00690d1c      4878ffff       pea.l 0xffff
          0x00690d20      4e93           jsr (a3)                    ; fcn.0000000c
          0x00690d22      5c4f           addq.w 0x6, a7
          0x00690d24      1ebc002d       move.b 0x2d, (a7)
          0x00690d28      48780001       pea.l 0x1
          0x00690d2c      4eb9004048b4   jsr p_wtc_o
          0x00690d32      544f           addq.w 0x2, a7
          0x00690d34      2eaefe94       move.l -0x16c(a6), (a7)
          0x00690d38      4878ffff       pea.l 0xffff
          0x00690d3c      4e93           jsr (a3)                    ; fcn.0000000c
          0x00690d3e      5c4f           addq.w 0x6, a7
          0x00690d40      1ebc0028       move.b 0x28, (a7)
          0x00690d44      48780001       pea.l 0x1
          0x00690d48      4eb9004048b4   jsr p_wtc_o
          0x00690d4e      5c4f           addq.w 0x6, a7
          0x00690d50      202efe94       move.l -0x16c(a6), d0
          0x00690d54      90aefe90       sub.l -0x170(a6), d0
          0x00690d58      2f00           move.l d0, -(a7)
          0x00690d5a      4878ffff       pea.l 0xffff
          0x00690d5e      4e93           jsr (a3)                    ; fcn.0000000c
          0x00690d60      5c4f           addq.w 0x6, a7
          0x00690d62      1ebc0029       move.b 0x29, (a7)
          0x00690d66      48780001       pea.l 0x1
          0x00690d6a      4eb9004048b4   jsr p_wtc_o
          0x00690d70      5c4f           addq.w 0x6, a7
          0x00690d72      4eb900404946   jsr p_wtln_o
          0x00690d78      3f2e011e       move.w 0x11e(a6), -(a7)
          0x00690d7c      9ec5           suba.w d5, a7
          0x00690d7e      204f           movea.l a7, a0
          0x00690d80      43fabbbd       lea.l 0x68c93f(pc), a1
          0x00690d84      7017           moveq 0x17, d0
      > 0x00690d86      10d9           move.b (a1)+, (a0)+
      < 0x00690d88      51c8fffc       dbra d0, 0x690d86
          0x00690d8c      4ebaded6       jsr BOOTCOM.my_text_all(pc)
          0x00690d90      defc0102       adda.w 0x102, a7
          0x00690d94      202efe94       move.l -0x16c(a6), d0
          0x00690d98      90aefe90       sub.l -0x170(a6), d0
          0x00690d9c      2f00           move.l d0, -(a7)
          0x00690d9e      48780400       pea.l 0x400
          0x00690da2      2f3c00010000   move.l 0x10000, -(a7)
          0x00690da8      4eb900455bb4   jsr CURSORCOM.set_horiz_therm
          0x00690dae      544f           addq.w 0x2, a7
          0x00690db0      2f2e013e       move.l 0x13e(a6), -(a7)
          0x00690db4      4eb9005f8748   jsr F6_DRIVE.f_drv_status
          0x00690dba      584f           addq.w 0x4, a7
          0x00690dbc      2d5fffa8       move.l (a7)+, -0x58(a6)
          0x00690dc0      2d5fffac       move.l (a7)+, -0x54(a6)
          0x00690dc4      3d5fffb0       move.w (a7)+, -0x50(a6)
          0x00690dc8      4a2effa9       tst.b -0x57(a6)
      < 0x00690dcc      6734           beq.b 0x690e02
         0x00690dce      554f           subq.w 0x2, a7
         0x00690dd0      2f2e013e       move.l 0x13e(a6), -(a7)
         0x00690dd4      1f03           move.b d3, -(a7)
         0x00690dd6      4227           clr.b -(a7)
         0x00690dd8      4eb9005f83e0   jsr F6_DRIVE.f_dismount
         0x00690dde      504f           addq.w 0x8, a7
         0x00690de0      4a1f           tst.b (a7)+
     < 0x00690de2      670a           beq.b 0x690dee
        0x00690de4      487abb72       pea.l 0x68c958(pc)
        0x00690de8      48780011       pea.l 0x11
    < 0x00690dec      6008           bra.b 0x690df6
    > 0x00690dee      487abb7a       pea.l 0x68c96a(pc)
        0x00690df2      48780018       pea.l 0x18
    > 0x00690df6      2f17           move.l (a7), -(a7)
         0x00690df8      4e92           jsr (a2)                    ; fcn.00000009+0x2
         0x00690dfa      dec4           adda.w d4, a7
         0x00690dfc      4eb900404946   jsr p_wtln_o
      > 0x00690e02      487abb7f       pea.l 0x68c983(pc)
          0x00690e06      48780013       pea.l 0x13
          0x00690e0a      2f17           move.l (a7), -(a7)
          0x00690e0c      4e92           jsr (a2)                    ; fcn.00000009+0x2
          0x00690e0e      584f           addq.w 0x4, a7
          0x00690e10      2eae013e       move.l 0x13e(a6), (a7)
          0x00690e14      48780001       pea.l 0x1
          0x00690e18      4eb9005f8374   jsr F6_DRIVE.f_mount
          0x00690e1e      504f           addq.w 0x8, a7
          0x00690e20      4878ffff       pea.l 0xffff
          0x00690e24      4e93           jsr (a3)                    ; fcn.0000000c
          0x00690e26      504f           addq.w 0x8, a7
          0x00690e28      4eb900404946   jsr p_wtln_o
          0x00690e2e      1f03           move.b d3, -(a7)
          0x00690e30      4eb9004e3b98   jsr MENUDISKSCOM.update_drives
          0x00690e36      554f           subq.w 0x2, a7
          0x00690e38      2f2e013e       move.l 0x13e(a6), -(a7)
          0x00690e3c      4eb9005fb938   jsr F6_VOLUME.f_vol_on
          0x00690e42      584f           addq.w 0x4, a7
          0x00690e44      2e1f           move.l (a7)+, d7
      < 0x00690e46      6628           bne.b 0x690e70
         0x00690e48      3f2e0120       move.w 0x120(a6), -(a7)
         0x00690e4c      9ec5           suba.w d5, a7
         0x00690e4e      204f           movea.l a7, a0
         0x00690e50      43fabb44       lea.l 0x68c996(pc), a1
         0x00690e54      7005           moveq 0x5, d0
     > 0x00690e56      20d9           move.l (a1)+, (a0)+
     < 0x00690e58      51c8fffc       dbra d0, 0x690e56
         0x00690e5c      4ebadd96       jsr BOOTCOM.my_box_error(pc)
         0x00690e60      defc0102       adda.w 0x102, a7
         0x00690e64      486effb6       pea.l -0x4a(a6)
         0x00690e68      4eb900404468   jsr fcn.00404468
         0x00690e6e      584f           addq.w 0x4, a7
      > 0x00690e70      4a2e001c       tst.b 0x1c(a6)
      < 0x00690e74      6642           bne.b 0x690eb8
         0x00690e76      554f           subq.w 0x2, a7
         0x00690e78      2f07           move.l d7, -(a7)
         0x00690e7a      9ec5           suba.w d5, a7
         0x00690e7c      204f           movea.l a7, a0
         0x00690e7e      224c           movea.l a4, a1
         0x00690e80      703f           moveq 0x3f, d0
     > 0x00690e82      20d9           move.l (a1)+, (a0)+
     < 0x00690e84      51c8fffc       dbra d0, 0x690e82
         0x00690e88      3f2e011e       move.w 0x11e(a6), -(a7)
         0x00690e8c      4ebafb3c       jsr BOOTCOM.rename_disk(pc)
         0x00690e90      defc0106       adda.w 0x106, a7
         0x00690e94      4a1f           tst.b (a7)+
     < 0x00690e96      6620           bne.b 0x690eb8
        0x00690e98      487abb15       pea.l 0x68c9af(pc)
        0x00690e9c      48780015       pea.l 0x15
        0x00690ea0      2f17           move.l (a7), -(a7)
        0x00690ea2      4e92           jsr (a2)                    ; fcn.00000009+0x2
        0x00690ea4      dec4           adda.w d4, a7
        0x00690ea6      4eb900404946   jsr p_wtln_o
        0x00690eac      486effb6       pea.l -0x4a(a6)
        0x00690eb0      4eb900404468   jsr fcn.00404468
        0x00690eb6      584f           addq.w 0x4, a7
     > 0x00690eb8      4227           clr.b -(a7)
          0x00690eba      4eb900627d08   jsr PICTURENET.rescan_net
          0x00690ec0      1e83           move.b d3, (a7)
          0x00690ec2      4eb9004e3b98   jsr MENUDISKSCOM.update_drives
          0x00690ec8      2f07           move.l d7, -(a7)
          0x00690eca      2f2e012e       move.l 0x12e(a6), -(a7)
          0x00690ece      2f2e012a       move.l 0x12a(a6), -(a7)
          0x00690ed2      2f2e0126       move.l 0x126(a6), -(a7)
          0x00690ed6      2f2e0122       move.l 0x122(a6), -(a7)
          0x00690eda      3f2e0120       move.w 0x120(a6), -(a7)
          0x00690ede      3f2e011e       move.w 0x11e(a6), -(a7)
          0x00690ee2      9ec5           suba.w d5, a7
          0x00690ee4      204f           movea.l a7, a0
          0x00690ee6      43ee001e       lea.l 0x1e(a6), a1
          0x00690eea      703f           moveq 0x3f, d0
      > 0x00690eec      20d9           move.l (a1)+, (a0)+
      < 0x00690eee      51c8fffc       dbra d0, 0x690eec
          0x00690ef2      204c           movea.l a4, a0
          0x00690ef4      7005           moveq 0x5, d0
      > 0x00690ef6      2f20           move.l -(a0), -(a7)
      < 0x00690ef8      51c8fffc       dbra d0, 0x690ef6
          0x00690efc      9ec5           suba.w d5, a7
          0x00690efe      204f           movea.l a7, a0
          0x00690f00      43ee0142       lea.l 0x142(a6), a1
          0x00690f04      703f           moveq 0x3f, d0
      > 0x00690f06      20d9           move.l (a1)+, (a0)+
      < 0x00690f08      51c8fffc       dbra d0, 0x690f06
          0x00690f0c      1f2e001a       move.b 0x1a(a6), -(a7)
          0x00690f10      3f2e0018       move.w 0x18(a6), -(a7)
          0x00690f14      1f03           move.b d3, -(a7)
          0x00690f16      4227           clr.b -(a7)
          0x00690f18      202e013a       move.l 0x13a(a6), d0
          0x00690f1c      b0ae0136       cmp.l 0x136(a6), d0
      < 0x00690f20      6602           bne.b 0x690f24
         0x00690f22      5217           addq.b 0x1, (a7)
      > 0x00690f24      206e0010       movea.l 0x10(a6), a0
          0x00690f28      4850           pea.l (a0)
          0x00690f2a      2f2e000c       move.l 0xc(a6), -(a7)
          0x00690f2e      206e0008       movea.l 0x8(a6), a0
          0x00690f32      4850           pea.l (a0)
          0x00690f34      4ebaf72c       jsr BOOTCOM.create_and_copy(pc)
          0x00690f38      defc0244       adda.w 0x244, a7
          0x00690f3c      4a1f           tst.b (a7)+
      < 0x00690f3e      6620           bne.b 0x690f60
         0x00690f40      487aba83       pea.l 0x68c9c5(pc)
         0x00690f44      48780016       pea.l 0x16
         0x00690f48      2f17           move.l (a7), -(a7)
         0x00690f4a      4e92           jsr (a2)                    ; fcn.00000009+0x2
         0x00690f4c      dec4           adda.w d4, a7
         0x00690f4e      4eb900404946   jsr p_wtln_o
         0x00690f54      486effb6       pea.l -0x4a(a6)
         0x00690f58      4eb900404468   jsr fcn.00404468
         0x00690f5e      584f           addq.w 0x4, a7
      > 0x00690f60      487aba7a       pea.l 0x68c9dc(pc)
          0x00690f64      4878001e       pea.l 0x1e
          0x00690f68      2f17           move.l (a7), -(a7)
          0x00690f6a      4e92           jsr (a2)                    ; fcn.00000009+0x2
          0x00690f6c      504f           addq.w 0x8, a7
          0x00690f6e      2eae0122       move.l 0x122(a6), (a7)
          0x00690f72      48780000       pea.l 0x0
          0x00690f76      4e93           jsr (a3)                    ; fcn.0000000c
          0x00690f78      504f           addq.w 0x8, a7
          0x00690f7a      487aba7f       pea.l 0x68c9fb(pc)
          0x00690f7e      48780007       pea.l 0x7
          0x00690f82      2f17           move.l (a7), -(a7)
          0x00690f84      4e92           jsr (a2)                    ; fcn.00000009+0x2
          0x00690f86      504f           addq.w 0x8, a7
          0x00690f88      2eae013a       move.l 0x13a(a6), (a7)
          0x00690f8c      48780000       pea.l 0x0
          0x00690f90      4e93           jsr (a3)                    ; fcn.0000000c
          0x00690f92      504f           addq.w 0x8, a7
          0x00690f94      487aba6d       pea.l 0x68ca03(pc)
          0x00690f98      48780003       pea.l 0x3
          0x00690f9c      2f17           move.l (a7), -(a7)
          0x00690f9e      4e92           jsr (a2)                    ; fcn.00000009+0x2
          0x00690fa0      dec4           adda.w d4, a7
          0x00690fa2      4eb900404946   jsr p_wtln_o
          0x00690fa8      1d430242       move.b d3, 0x242(a6)
       > 0x00690fac      4cdf1fff       movem.l (a7)+, d0-d7/a0-a4
           0x00690fb0      4e5e           unlk a6
           0x00690fb2      4e75           rts
            ; CALL XREF from BOOTCOM.check_floppies @ 0x691bf4
 382: BOOTCOM.check_floppy ();
           0x00690fb4      4e56fd40       link.w a6, 0xfd40
           0x00690fb8      bfd5           cmpa.l (a5), a7
       < 0x00690fba      6206           bhi.b 0x690fc2
          0x00690fbc      44fc0002       move.w 0x2, ccr
          0x00690fc0      4e76           trapv
       > 0x00690fc2      defc0158       adda.w 0x158, a7
           0x00690fc6      48e7c0f8       movem.l d0-d1/a0-a4, -(a7)
           0x00690fca      45eeffac       lea.l -0x54(a6), a2
           0x00690fce      47ee0126       lea.l 0x126(a6), a3
           0x00690fd2      49eefe9c       lea.l -0x164(a6), a4
           0x00690fd6      720c           moveq 0xc, d1
           0x00690fd8      422e0130       clr.b 0x130(a6)
           0x00690fdc      554f           subq.w 0x2, a7
           0x00690fde      4852           pea.l (a2)
           0x00690fe0      4eb900404434   jsr fcn.00404434
           0x00690fe6      584f           addq.w 0x4, a7
           0x00690fe8      4a1f           tst.b (a7)+
       < 0x00690fea      67000128       beq.w 0x691114
          0x00690fee      554f           subq.w 0x2, a7
          0x00690ff0      2f2e012c       move.l 0x12c(a6), -(a7)
          0x00690ff4      2f2e0128       move.l 0x128(a6), -(a7)
          0x00690ff8      3f13           move.w (a3), -(a7)
          0x00690ffa      9efc0100       suba.w 0x100, a7
          0x00690ffe      204f           movea.l a7, a0
          0x00691000      43ee0024       lea.l 0x24(a6), a1
          0x00691004      703f           moveq 0x3f, d0
      > 0x00691006      20d9           move.l (a1)+, (a0)+
      < 0x00691008      51c8fffc       dbra d0, 0x691006
          0x0069100c      486efe98       pea.l -0x168(a6)
          0x00691010      206e0020       movea.l 0x20(a6), a0
          0x00691014      4850           pea.l (a0)
          0x00691016      4854           pea.l (a4)
          0x00691018      486efeac       pea.l -0x154(a6)
          0x0069101c      486efea0       pea.l -0x160(a6)
          0x00691020      486efea8       pea.l -0x158(a6)
          0x00691024      206e0018       movea.l 0x18(a6), a0
          0x00691028      4850           pea.l (a0)
          0x0069102a      486efff6       pea.l -0xa(a6)
          0x0069102e      486efffe       pea.l -0x2(a6)
          0x00691032      206e000c       movea.l 0xc(a6), a0
          0x00691036      4850           pea.l (a0)
          0x00691038      206e0008       movea.l 0x8(a6), a0
          0x0069103c      4850           pea.l (a0)
          0x0069103e      4ebae86a       jsr BOOTCOM.start_read(pc)
          0x00691042      defc0136       adda.w 0x136, a7
          0x00691046      4a1f           tst.b (a7)+
      < 0x00691048      6622           bne.b 0x69106c
         0x0069104a      487ab9bb       pea.l 0x68ca07(pc)
         0x0069104e      48780011       pea.l 0x11
         0x00691052      2f17           move.l (a7), -(a7)
         0x00691054      4eb9004047ea   jsr p_wts_o
         0x0069105a      dec1           adda.w d1, a7
         0x0069105c      4eb900404946   jsr p_wtln_o
         0x00691062      4852           pea.l (a2)
         0x00691064      4eb900404468   jsr fcn.00404468
         0x0069106a      584f           addq.w 0x4, a7
      > 0x0069106c      487ab9ab       pea.l 0x68ca19(pc)
          0x00691070      48780014       pea.l 0x14
          0x00691074      2f17           move.l (a7), -(a7)
          0x00691076      4eb9004047ea   jsr p_wts_o
          0x0069107c      504f           addq.w 0x8, a7
          0x0069107e      2eaefea8       move.l -0x158(a6), (a7)
          0x00691082      4878000c       pea.l 0xc
          0x00691086      4eb9004070e4   jsr p_wti_o
          0x0069108c      504f           addq.w 0x8, a7
          0x0069108e      4eb900404946   jsr p_wtln_o
          0x00691094      554f           subq.w 0x2, a7
          0x00691096      1f3c0002       move.b 0x2, -(a7)
          0x0069109a      4854           pea.l (a4)
          0x0069109c      206e001c       movea.l 0x1c(a6), a0
          0x006910a0      4850           pea.l (a0)
          0x006910a2      2f2efea8       move.l -0x158(a6), -(a7)
          0x006910a6      2f2efea0       move.l -0x160(a6), -(a7)
          0x006910aa      3f13           move.w (a3), -(a7)
          0x006910ac      3f2e0124       move.w 0x124(a6), -(a7)
          0x006910b0      206e0014       movea.l 0x14(a6), a0
          0x006910b4      4850           pea.l (a0)
          0x006910b6      206e0010       movea.l 0x10(a6), a0
          0x006910ba      4850           pea.l (a0)
          0x006910bc      4ebadf34       jsr BOOTCOM.act_blocks(pc)
          0x006910c0      defc001e       adda.w 0x1e, a7
          0x006910c4      4a1f           tst.b (a7)+
      < 0x006910c6      6646           bne.b 0x69110e
         0x006910c8      487ab964       pea.l 0x68ca2e(pc)
         0x006910cc      48780016       pea.l 0x16
         0x006910d0      2f17           move.l (a7), -(a7)
         0x006910d2      4eb9004047ea   jsr p_wts_o
         0x006910d8      dec1           adda.w d1, a7
         0x006910da      4eb900404946   jsr p_wtln_o
         0x006910e0      3f13           move.w (a3), -(a7)
         0x006910e2      9efc00fc       suba.w 0xfc, a7
         0x006910e6      2f3ab95c       move.l 0x68ca44(pc), -(a7)
         0x006910ea      2f7ab95c0004   move.l 0x68ca48(pc), 0x4(a7)
         0x006910f0      2f7ab95a0008   move.l 0x68ca4c(pc), 0x8(a7)
         0x006910f6      3f7ab958000c   move.w 0x68ca50(pc), 0xc(a7)
         0x006910fc      4ebadaf6       jsr BOOTCOM.my_box_error(pc)
         0x00691100      defc0102       adda.w 0x102, a7
         0x00691104      4852           pea.l (a2)
         0x00691106      4eb900404468   jsr fcn.00404468
         0x0069110c      584f           addq.w 0x4, a7
      > 0x0069110e      1d7c00010130   move.b 0x1, 0x130(a6)
       > 0x00691114      4854           pea.l (a4)
           0x00691116      4eb90060470a   jsr F9_FILERDWRT.f_close
           0x0069111c      584f           addq.w 0x4, a7
           0x0069111e      486efe98       pea.l -0x168(a6)
           0x00691122      4eb90060500e   jsr F9_FILERDWRT.f_free_block
           0x00691128      584f           addq.w 0x4, a7
           0x0069112a      4cdf1f03       movem.l (a7)+, d0-d1/a0-a4
           0x0069112e      4e5e           unlk a6
           0x00691130      4e75           rts
            ; CALL XREF from BOOTCOM.make_floppies @ 0x69145c
            ; CALL XREF from BOOTCOM.load_sw @ 0x6917f8
            ; CALL XREF from BOOTCOM.check_floppies @ 0x691bb4
 244: BOOTCOM.wait_for_cue ();
           0x00691132      4e56ff92       link.w a6, 0xff92
           0x00691136      bfd5           cmpa.l (a5), a7
       < 0x00691138      6206           bhi.b 0x691140
          0x0069113a      44fc0002       move.w 0x2, ccr
          0x0069113e      4e76           trapv
       > 0x00691140      defc005c       adda.w 0x5c, a7
           0x00691144      48e7fde0       movem.l d0-d5/d7/a0-a2, -(a7)
           0x00691148      45eeffef       lea.l -0x11(a6), a2
           0x0069114c      7201           moveq 0x1, d1
           0x0069114e      7412           moveq 0x12, d2
           0x00691150      761c           moveq 0x1c, d3
           0x00691152      7807           moveq 0x7, d4
           0x00691154      7a10           moveq 0x10, d5
           0x00691156      7e00           moveq 0x0, d7
       > 0x00691158      9efc0028       suba.w 0x28, a7
          0x0069115c      204f           movea.l a7, a0
          0x0069115e      43fab8f3       lea.l 0x68ca53(pc), a1
          0x00691162      7026           moveq 0x26, d0
      > 0x00691164      10d9           move.b (a1)+, (a0)+
      < 0x00691166      51c8fffc       dbra d0, 0x691164
          0x0069116a      4857           pea.l (a7)
          0x0069116c      3f01           move.w d1, -(a7)
          0x0069116e      3f3c0027       move.w 0x27, -(a7)
          0x00691172      4eb90043d116   jsr G1_INPUT.g_read_paramete
          0x00691178      defc0030       adda.w 0x30, a7
          0x0069117c      14bab8fc       move.b 0x68ca7a(pc), (a2)
          0x00691180      554f           subq.w 0x2, a7
          0x00691182      4eb90043cc02   jsr G1_INPUT.g_end_of_line
          0x00691188      4a1f           tst.b (a7)+
      < 0x0069118a      6616           bne.b 0x6911a2
         0x0069118c      9ec2           suba.w d2, a7
         0x0069118e      4eb90043cefe   jsr G1_INPUT.g_name
         0x00691194      204a           movea.l a2, a0
         0x00691196      224f           movea.l a7, a1
         0x00691198      7010           moveq 0x10, d0
     > 0x0069119a      10d9           move.b (a1)+, (a0)+
     < 0x0069119c      51c8fffc       dbra d0, 0x69119a
         0x006911a0      dec2           adda.w d2, a7
      > 0x006911a2      594f           subq.w 0x4, a7
          0x006911a4      2f3ab8d6       move.l 0x68ca7c(pc), -(a7)
          0x006911a8      3f7ab8d60004   move.w 0x68ca80(pc), 0x4(a7)
          0x006911ae      1f7ab8d20006   move.b 0x68ca82(pc), 0x6(a7)
          0x006911b4      9ec2           suba.w d2, a7
          0x006911b6      204f           movea.l a7, a0
          0x006911b8      224a           movea.l a2, a1
          0x006911ba      7010           moveq 0x10, d0
      > 0x006911bc      10d9           move.b (a1)+, (a0)+
      < 0x006911be      51c8fffc       dbra d0, 0x6911bc
          0x006911c2      554f           subq.w 0x2, a7
          0x006911c4      486f0014       pea.l 0x14(a7)
          0x006911c8      3f01           move.w d1, -(a7)
          0x006911ca      3f04           move.w d4, -(a7)
          0x006911cc      486f000a       pea.l 0xa(a7)
          0x006911d0      4267           clr.w -(a7)
          0x006911d2      3f05           move.w d5, -(a7)
          0x006911d4      4eb9004401ac   jsr G4_LEXICAL.g_compare
          0x006911da      dec5           adda.w d5, a7
          0x006911dc      3017           move.w (a7), d0
          0x006911de      b041           cmp.w d1, d0
      < 0x006911e0      6708           beq.b 0x6911ea
         0x006911e2      0c400002       cmpi.w 0x2, d0
     < 0x006911e6      6708           beq.b 0x6911f0
    < 0x006911e8      602a           bra.b 0x691214
    > 0x006911ea      7e01           moveq 0x1, d7
        0x006911ec      dec3           adda.w d3, a7
    < 0x006911ee      602a           bra.b 0x69121a
    > 0x006911f0      594f           subq.w 0x4, a7
        0x006911f2      2f3ab890       move.l 0x68ca84(pc), -(a7)
        0x006911f6      3f7ab8900004   move.w 0x68ca88(pc), 0x4(a7)
        0x006911fc      1f7ab88c0006   move.b 0x68ca8a(pc), 0x6(a7)
        0x00691202      4857           pea.l (a7)
        0x00691204      3f01           move.w d1, -(a7)
        0x00691206      3f04           move.w d4, -(a7)
        0x00691208      4eb90043cd18   jsr G1_INPUT.g_error
        0x0069120e      defc002c       adda.w 0x2c, a7
    < 0x00691212      6006           bra.b 0x69121a
    > 0x00691214      dec3           adda.w d3, a7
    < 0x00691216      6002           bra.b 0x69121a
        0x00691218      dec3           adda.w d3, a7
    > 0x0069121a      4a07           tst.b d7
       < 0x0069121c      6700ff3a       beq.w 0x691158
           0x00691220      4cdf07bf       movem.l (a7)+, d0-d5/d7/a0-a2
           0x00691224      4e5e           unlk a6
           0x00691226      4e75           rts
            ; CALL XREF from BOOTCOM.boot_files @ 0x6942a8
            ; CALL XREF from BOOTCOM.sw_install @ 0x694d34
 880: BOOTCOM.make_floppies ();
           ; var int32_t var_192h @ a6-0x192
           ; var int32_t var_166h @ a6-0x166
           ; var int32_t var_162h @ a6-0x162
           ; var int32_t var_15ah @ a6-0x15a
           0x00691228      4e56fbf2       link.w a6, 0xfbf2
           0x0069122c      bfd5           cmpa.l (a5), a7
       < 0x0069122e      6206           bhi.b 0x691236
          0x00691230      44fc0002       move.w 0x2, ccr
          0x00691234      4e76           trapv
       > 0x00691236      defc0274       adda.w 0x274, a7
           0x0069123a      48e7fff8       movem.l d0-d7/a0-a4, -(a7)
           0x0069123e      45eefe76       lea.l -0x18a(a6), a2
           0x00691242      47eefe72       lea.l -0x18e(a6), a3
           0x00691246      49eeffb2       lea.l -0x4e(a6), a4
           0x0069124a      323c0100       move.w 0x100, d1
           0x0069124e      740c           moveq 0xc, d2
           0x00691250      24bc00000001   move.l 0x1, (a2)
           0x00691256      26bcffff0001   move.l 0xffff0001, (a3)
           0x0069125c      554f           subq.w 0x2, a7
           0x0069125e      4854           pea.l (a4)
           0x00691260      4eb900404434   jsr fcn.00404434
           0x00691266      584f           addq.w 0x4, a7
           0x00691268      4a1f           tst.b (a7)+
       < 0x0069126a      67000310       beq.w 0x69157c
          0x0069126e      554f           subq.w 0x2, a7
          0x00691270      2f2e0012       move.l 0x12(a6), -(a7)
          0x00691274      2f2e000e       move.l 0xe(a6), -(a7)
          0x00691278      3f2e000c       move.w 0xc(a6), -(a7)
          0x0069127c      2f3aaaaa       move.l 0x68bd28(pc), -(a7)
          0x00691280      2f3aaaa2       move.l 0x68bd24(pc), -(a7)
          0x00691284      3f3aaa9c       move.w 0x68bd22(pc), -(a7)
          0x00691288      4eb9005ef3d2   jsr F2_UTILITY.f_fids_eq
          0x0069128e      defc0014       adda.w 0x14, a7
          0x00691292      4a1f           tst.b (a7)+
      < 0x00691294      6626           bne.b 0x6912bc
         0x00691296      3f2e0128       move.w 0x128(a6), -(a7)
         0x0069129a      9ec1           suba.w d1, a7
         0x0069129c      204f           movea.l a7, a0
         0x0069129e      43fab7eb       lea.l 0x68ca8b(pc), a1
         0x006912a2      701a           moveq 0x1a, d0
     > 0x006912a4      10d9           move.b (a1)+, (a0)+
     < 0x006912a6      51c8fffc       dbra d0, 0x6912a4
         0x006912aa      4ebad948       jsr BOOTCOM.my_box_error(pc)
         0x006912ae      defc0102       adda.w 0x102, a7
         0x006912b2      4854           pea.l (a4)
         0x006912b4      4eb900404468   jsr fcn.00404468
         0x006912ba      584f           addq.w 0x4, a7
      > 0x006912bc      554f           subq.w 0x2, a7
          0x006912be      2f2e001c       move.l 0x1c(a6), -(a7)
          0x006912c2      2f2e0018       move.l 0x18(a6), -(a7)
          0x006912c6      3f2e0016       move.w 0x16(a6), -(a7)
          0x006912ca      3f2e012a       move.w 0x12a(a6), -(a7)
          0x006912ce      9ec1           suba.w d1, a7
          0x006912d0      204f           movea.l a7, a0
          0x006912d2      43ee0028       lea.l 0x28(a6), a1
          0x006912d6      703f           moveq 0x3f, d0
      > 0x006912d8      20d9           move.l (a1)+, (a0)+
      < 0x006912da      51c8fffc       dbra d0, 0x6912d8
          0x006912de      9ec1           suba.w d1, a7
          0x006912e0      1ebab7c4       move.b 0x68caa6(pc), (a7)
          0x006912e4      4852           pea.l (a2)
          0x006912e6      4853           pea.l (a3)
          0x006912e8      486efe7a       pea.l -0x186(a6)
          0x006912ec      486efeae       pea.l -0x152(a6)
          0x006912f0      486efffc       pea.l -0x4(a6)
          0x006912f4      486efffe       pea.l -0x2(a6)
          0x006912f8      486efea6       pea.l -0x15a(a6)
          0x006912fc      486efe9e       pea.l -0x162(a6)
          0x00691300      4ebae146       jsr BOOTCOM.start_make(pc)
          0x00691304      defc022c       adda.w 0x22c, a7
          0x00691308      4a1f           tst.b (a7)+
      < 0x0069130a      6622           bne.b 0x69132e
         0x0069130c      487ab79a       pea.l 0x68caa8(pc)
         0x00691310      48780011       pea.l 0x11
         0x00691314      2f17           move.l (a7), -(a7)
         0x00691316      4eb9004047ea   jsr p_wts_o
         0x0069131c      dec2           adda.w d2, a7
         0x0069131e      4eb900404946   jsr p_wtln_o
         0x00691324      4854           pea.l (a4)
         0x00691326      4eb900404468   jsr fcn.00404468
         0x0069132c      584f           addq.w 0x4, a7
      > 0x0069132e      202efea6       move.l -0x15a(a6), d0
          0x00691332      5380           subq.l 0x1, d0
          0x00691334      2800           move.l d0, d4
          0x00691336      263c00000634   move.l 0x634, d3
          0x0069133c      4eb900406b50   jsr fcn.00406b50
          0x00691342      5284           addq.l 0x1, d4
          0x00691344      2d44fe6a       move.l d4, -0x196(a6)
          0x00691348      2f04           move.l d4, -(a7)
          0x0069134a      2604           move.l d4, d3
          0x0069134c      2800           move.l d0, d4
          0x0069134e      4eb900406b50   jsr fcn.00406b50
          0x00691354      5284           addq.l 0x1, d4
          0x00691356      2d44fe6e       move.l d4, -0x192(a6)
          0x0069135a      e184           asl.l 0x8, d4
          0x0069135c      e384           asl.l 0x1, d4
          0x0069135e      2d44fe9a       move.l d4, -0x166(a6)
          0x00691362      487ab756       pea.l 0x68caba(pc)
          0x00691366      48780015       pea.l 0x15
          0x0069136a      2f17           move.l (a7), -(a7)
          0x0069136c      4eb9004047ea   jsr p_wts_o
          0x00691372      dec2           adda.w d2, a7
          0x00691374      2017           move.l (a7), d0
          0x00691376      2f00           move.l d0, -(a7)
          0x00691378      48780000       pea.l 0x0
          0x0069137c      4eb9004070e4   jsr p_wti_o
          0x00691382      dec2           adda.w d2, a7
          0x00691384      487ab74a       pea.l 0x68cad0(pc)
          0x00691388      48780007       pea.l 0x7
          0x0069138c      2f17           move.l (a7), -(a7)
          0x0069138e      4eb9004047ea   jsr p_wts_o
          0x00691394      dec2           adda.w d2, a7
          0x00691396      4eb900404946   jsr p_wtln_o
          0x0069139c      2f2efe7a       move.l -0x186(a6), -(a7)
          0x006913a0      4878ffff       pea.l 0xffff
          0x006913a4      4eb9004070e4   jsr p_wti_o
          0x006913aa      5c4f           addq.w 0x6, a7
          0x006913ac      1ebc002d       move.b 0x2d, (a7)
          0x006913b0      48780001       pea.l 0x1
          0x006913b4      4eb9004048b4   jsr p_wtc_o
          0x006913ba      544f           addq.w 0x2, a7
          0x006913bc      2eaefe7e       move.l -0x182(a6), (a7)
          0x006913c0      4878ffff       pea.l 0xffff
          0x006913c4      4eb9004070e4   jsr p_wti_o
          0x006913ca      5c4f           addq.w 0x6, a7
          0x006913cc      1ebc0028       move.b 0x28, (a7)
          0x006913d0      48780001       pea.l 0x1
          0x006913d4      4eb9004048b4   jsr p_wtc_o
          0x006913da      5c4f           addq.w 0x6, a7
          0x006913dc      202efe7e       move.l -0x182(a6), d0
          0x006913e0      90aefe7a       sub.l -0x186(a6), d0
          0x006913e4      2f00           move.l d0, -(a7)
          0x006913e6      4878ffff       pea.l 0xffff
          0x006913ea      4eb9004070e4   jsr p_wti_o
          0x006913f0      5c4f           addq.w 0x6, a7
          0x006913f2      1ebc0029       move.b 0x29, (a7)
          0x006913f6      48780001       pea.l 0x1
          0x006913fa      4eb9004048b4   jsr p_wtc_o
          0x00691400      5c4f           addq.w 0x6, a7
          0x00691402      4eb900404946   jsr p_wtln_o
          0x00691408      7e00           moveq 0x0, d7
          0x0069140a      7a00           moveq 0x0, d5
          0x0069140c      7c01           moveq 0x1, d6
          0x0069140e      42aeffae       clr.l -0x52(a6)
      > 0x00691412      554f           subq.w 0x2, a7
         0x00691414      4eb9004755c2   jsr CONFIG.cfg_gender
         0x0069141a      101f           move.b (a7)+, d0
         0x0069141c      0c000003       cmpi.b 0x3, d0
     < 0x00691420      6616           bne.b 0x691438
        0x00691422      3f2e0128       move.w 0x128(a6), -(a7)
        0x00691426      9ec1           suba.w d1, a7
        0x00691428      204f           movea.l a7, a0
        0x0069142a      43fab6ab       lea.l 0x68cad7(pc), a1
        0x0069142e      7022           moveq 0x22, d0
    > 0x00691430      10d9           move.b (a1)+, (a0)+
    < 0x00691432      51c8fffc       dbra d0, 0x691430
    < 0x00691436      6016           bra.b 0x69144e
    > 0x00691438      3f2e0128       move.w 0x128(a6), -(a7)
        0x0069143c      9ec1           suba.w d1, a7
        0x0069143e      204f           movea.l a7, a0
        0x00691440      43fab6b8       lea.l 0x68cafa(pc), a1
        0x00691444      7007           moveq 0x7, d0
    > 0x00691446      20d9           move.l (a1)+, (a0)+
    < 0x00691448      51c8fffc       dbra d0, 0x691446
        0x0069144c      10d9           move.b (a1)+, (a0)+
    > 0x0069144e      4ebad7a4       jsr BOOTCOM.my_box_error(pc)
         0x00691452      defc0102       adda.w 0x102, a7
         0x00691456      4a2e0024       tst.b 0x24(a6)
     < 0x0069145a      6704           beq.b 0x691460
        0x0069145c      4ebafcd4       jsr BOOTCOM.wait_for_cue(pc)
     > 0x00691460      2007           move.l d7, d0
         0x00691462      d0aefe6e       add.l -0x192(a6), d0
         0x00691466      b0aefea6       cmp.l -0x15a(a6), d0
     < 0x0069146a      6f0c           ble.b 0x691478
        0x0069146c      2d6efea6feaa   move.l -0x15a(a6), -0x156(a6)
        0x00691472      9faefeaa       sub.l d7, -0x156(a6)
    < 0x00691476      6006           bra.b 0x69147e
    > 0x00691478      2d6efe6efeaa   move.l -0x192(a6), -0x156(a6)
    > 0x0069147e      2005           move.l d5, d0
         0x00691480      d0aefe9a       add.l -0x166(a6), d0
         0x00691484      b0aefe9e       cmp.l -0x162(a6), d0
     < 0x00691488      6f0c           ble.b 0x691496
        0x0069148a      2d6efe9efe96   move.l -0x162(a6), -0x16a(a6)
        0x00691490      9baefe96       sub.l d5, -0x16a(a6)
    < 0x00691494      6006           bra.b 0x69149c
    > 0x00691496      2d6efe9afe96   move.l -0x166(a6), -0x16a(a6)
    > 0x0069149c      9efc0102       suba.w 0x102, a7
         0x006914a0      204f           movea.l a7, a0
         0x006914a2      43eefeae       lea.l -0x152(a6), a1
         0x006914a6      703f           moveq 0x3f, d0
     > 0x006914a8      20d9           move.l (a1)+, (a0)+
     < 0x006914aa      51c8fffc       dbra d0, 0x6914a8
         0x006914ae      2f2e0020       move.l 0x20(a6), -(a7)
         0x006914b2      2f06           move.l d6, -(a7)
         0x006914b4      2f2efe6a       move.l -0x196(a6), -(a7)
         0x006914b8      2f07           move.l d7, -(a7)
         0x006914ba      2f2efeaa       move.l -0x156(a6), -(a7)
         0x006914be      2f2efe96       move.l -0x16a(a6), -(a7)
         0x006914c2      2f2efe9e       move.l -0x162(a6), -(a7)
         0x006914c6      2f2e0008       move.l 0x8(a6), -(a7)
         0x006914ca      3f2e012a       move.w 0x12a(a6), -(a7)
         0x006914ce      3f2e0128       move.w 0x128(a6), -(a7)
         0x006914d2      9ec1           suba.w d1, a7
         0x006914d4      204f           movea.l a7, a0
         0x006914d6      43ee0028       lea.l 0x28(a6), a1
         0x006914da      703f           moveq 0x3f, d0
     > 0x006914dc      20d9           move.l (a1)+, (a0)+
     < 0x006914de      51c8fffc       dbra d0, 0x6914dc
         0x006914e2      1f2e0026       move.b 0x26(a6), -(a7)
         0x006914e6      102efffc       move.b -0x4(a6), d0
         0x006914ea      4880           ext.w d0
         0x006914ec      41bc0001       chk.w 0x1, d0
         0x006914f0      1f00           move.b d0, -(a7)
         0x006914f2      3f2efffe       move.w -0x2(a6), -(a7)
         0x006914f6      486efe7a       pea.l -0x186(a6)
         0x006914fa      4852           pea.l (a2)
         0x006914fc      2f13           move.l (a3), -(a7)
         0x006914fe      486effae       pea.l -0x52(a6)
         0x00691502      4ebaf6ac       jsr BOOTCOM.make_floppy(pc)
         0x00691506      defc023a       adda.w 0x23a, a7
         0x0069150a      4a1f           tst.b (a7)+
     < 0x0069150c      663e           bne.b 0x69154c
        0x0069150e      487ab60c       pea.l 0x68cb1c(pc)
        0x00691512      48780015       pea.l 0x15
        0x00691516      2f17           move.l (a7), -(a7)
        0x00691518      4eb9004047ea   jsr p_wts_o
        0x0069151e      dec2           adda.w d2, a7
        0x00691520      4eb900404946   jsr p_wtln_o
        0x00691526      3f2e012a       move.w 0x12a(a6), -(a7)
        0x0069152a      9ec1           suba.w d1, a7
        0x0069152c      204f           movea.l a7, a0
        0x0069152e      43fab601       lea.l 0x68cb31(pc), a1
        0x00691532      7015           moveq 0x15, d0
    > 0x00691534      10d9           move.b (a1)+, (a0)+
    < 0x00691536      51c8fffc       dbra d0, 0x691534
        0x0069153a      4ebad6b8       jsr BOOTCOM.my_box_error(pc)
        0x0069153e      defc0102       adda.w 0x102, a7
        0x00691542      4854           pea.l (a4)
        0x00691544      4eb900404468   jsr fcn.00404468
        0x0069154a      584f           addq.w 0x4, a7
     > 0x0069154c      daaefe96       add.l -0x16a(a6), d5
         0x00691550      deaefeaa       add.l -0x156(a6), d7
         0x00691554      5286           addq.l 0x1, d6
         0x00691556      4a2e0026       tst.b 0x26(a6)
     < 0x0069155a      6718           beq.b 0x691574
        0x0069155c      52ae0008       addq.l 0x1, 0x8(a6)
        0x00691560      202e0008       move.l 0x8(a6), d0
        0x00691564      0c8000000008   cmpi.l 0x8, d0
    < 0x0069156a      6608           bne.b 0x691574
       0x0069156c      2d7c00000001.  move.l 0x1, 0x8(a6)
    > 0x00691574      bcaefe6a       cmp.l -0x196(a6), d6
      < 0x00691578      6f00fe98       ble.w 0x691412
       > 0x0069157c      4852           pea.l (a2)
           0x0069157e      4eb90060470a   jsr F9_FILERDWRT.f_close
           0x00691584      584f           addq.w 0x4, a7
           0x00691586      4853           pea.l (a3)
           0x00691588      4eb90060500e   jsr F9_FILERDWRT.f_free_block
           0x0069158e      584f           addq.w 0x4, a7
           0x00691590      4cdf1fff       movem.l (a7)+, d0-d7/a0-a4
           0x00691594      4e5e           unlk a6
           0x00691596      4e75           rts
            ; CALL XREF from BOOTCOM.boot_files @ 0x693f0e
            ; CALL XREF from BOOTCOM.sw_install @ 0x694c34
 1294: BOOTCOM.load_sw ();
           ; var int32_t var_58b8h @ a6-0x58b8
           ; var int32_t var_58b6h @ a6-0x58b6
           ; var int32_t var_58b4h @ a6-0x58b4
           ; var int32_t var_1b0h @ a6-0x1b0
           ; var int32_t var_194h @ a6-0x194
           ; var int32_t var_8h @ a7+0x8
           0x00691598      4e56fbfa       link.w a6, 0xfbfa
           0x0069159c      bfd5           cmpa.l (a5), a7
       < 0x0069159e      6206           bhi.b 0x6915a6
          0x006915a0      44fc0002       move.w 0x2, ccr
          0x006915a4      4e76           trapv
       > 0x006915a6      defc0256       adda.w 0x256, a7
           0x006915aa      48e7fff8       movem.l d0-d7/a0-a4, -(a7)
           0x006915ae      45ee0126       lea.l 0x126(a6), a2
           0x006915b2      47eeffa4       lea.l -0x5c(a6), a3
           0x006915b6      49fad63c       lea.l BOOTCOM.my_box_error(pc), a4
           0x006915ba      343c0100       move.w 0x100, d2
           0x006915be      363c0102       move.w 0x102, d3
           0x006915c2      780c           moveq 0xc, d4
           0x006915c4      2d7c00000001.  move.l 0x1, -0x178(a6)
           0x006915cc      2d7cffff0001.  move.l 0xffff0001, -0x17c(a6)
           0x006915d4      2d7aa74cffee   move.l 0x68bd22(pc), -0x12(a6)
           0x006915da      2d7aa74afff2   move.l 0x68bd26(pc), -0xe(a6)
           0x006915e0      3d7aa748fff6   move.w 0x68bd2a(pc), -0xa(a6)
           0x006915e6      554f           subq.w 0x2, a7
           0x006915e8      4853           pea.l (a3)
           0x006915ea      4eb900404434   jsr fcn.00404434
           0x006915f0      584f           addq.w 0x4, a7
           0x006915f2      4a1f           tst.b (a7)+
       < 0x006915f4      67000452       beq.w 0x691a48
          0x006915f8      2e3cfffffe0c   move.l 0xfffffe0c, d7
          0x006915fe      554f           subq.w 0x2, a7
          0x00691600      2f2e000e       move.l 0xe(a6), -(a7)
          0x00691604      2f2e000a       move.l 0xa(a6), -(a7)
          0x00691608      3f2e0008       move.w 0x8(a6), -(a7)
          0x0069160c      2f3aa71a       move.l 0x68bd28(pc), -(a7)
          0x00691610      2f3aa712       move.l 0x68bd24(pc), -(a7)
          0x00691614      3f3aa70c       move.w 0x68bd22(pc), -(a7)
          0x00691618      4eb9005ef3d2   jsr F2_UTILITY.f_fids_eq
          0x0069161e      defc0014       adda.w 0x14, a7
          0x00691622      4a1f           tst.b (a7)+
      < 0x00691624      6620           bne.b 0x691646
         0x00691626      3f12           move.w (a2), -(a7)
         0x00691628      9ec2           suba.w d2, a7
         0x0069162a      204f           movea.l a7, a0
         0x0069162c      43fab519       lea.l 0x68cb47(pc), a1
         0x00691630      701a           moveq 0x1a, d0
     > 0x00691632      10d9           move.b (a1)+, (a0)+
     < 0x00691634      51c8fffc       dbra d0, 0x691632
         0x00691638      4e94           jsr (a4)                    ; fcn.0000000d
         0x0069163a      dec3           adda.w d3, a7
         0x0069163c      4853           pea.l (a3)
         0x0069163e      4eb900404468   jsr fcn.00404468
         0x00691644      584f           addq.w 0x4, a7
      > 0x00691646      554f           subq.w 0x2, a7
          0x00691648      2f2e001a       move.l 0x1a(a6), -(a7)
          0x0069164c      3f3c0020       move.w 0x20, -(a7)
          0x00691650      4878fe0c       pea.l 0xfe0c
          0x00691654      486effee       pea.l -0x12(a6)
          0x00691658      486efe84       pea.l -0x17c(a6)
          0x0069165c      4eb900607936   jsr F10_FILELIST.f_create
          0x00691662      defc0012       adda.w 0x12, a7
          0x00691666      4a1f           tst.b (a7)+
      < 0x00691668      665e           bne.b 0x6916c8
         0x0069166a      9ec2           suba.w d2, a7
         0x0069166c      4eb900408ec0   jsr p_err_string
         0x00691672      487ab4ef       pea.l 0x68cb63(pc)
         0x00691676      48780016       pea.l 0x16
         0x0069167a      2f17           move.l (a7), -(a7)
         0x0069167c      4eb9004047ea   jsr p_wts_o
         0x00691682      dec4           adda.w d4, a7
         0x00691684      486f0001       pea.l 0x1(a7)
         0x00691688      42a7           clr.l -(a7)
         0x0069168a      1f6f00080003   move.b 0x8(a7), 0x3(a7)
         0x00691690      2f17           move.l (a7), -(a7)
         0x00691692      4eb9004047ea   jsr p_wts_o
         0x00691698      defc010c       adda.w 0x10c, a7
         0x0069169c      4eb900404946   jsr p_wtln_o
         0x006916a2      4eb900404188   jsr p_Unlink
         0x006916a8      3f12           move.w (a2), -(a7)
         0x006916aa      9ec2           suba.w d2, a7
         0x006916ac      204f           movea.l a7, a0
         0x006916ae      43fab4c9       lea.l 0x68cb79(pc), a1
         0x006916b2      7017           moveq 0x17, d0
     > 0x006916b4      10d9           move.b (a1)+, (a0)+
     < 0x006916b6      51c8fffc       dbra d0, 0x6916b4
         0x006916ba      4e94           jsr (a4)                    ; fcn.0000000d
         0x006916bc      dec3           adda.w d3, a7
         0x006916be      4853           pea.l (a3)
         0x006916c0      4eb900404468   jsr fcn.00404468
         0x006916c6      584f           addq.w 0x4, a7
      > 0x006916c8      554f           subq.w 0x2, a7
          0x006916ca      2f2efff4       move.l -0xc(a6), -(a7)
          0x006916ce      2f2efff0       move.l -0x10(a6), -(a7)
          0x006916d2      3f2effee       move.w -0x12(a6), -(a7)
          0x006916d6      1f3c0001       move.b 0x1, -(a7)
          0x006916da      486efe88       pea.l -0x178(a6)
          0x006916de      4eb90060477a   jsr F9_FILERDWRT.f_op_block
          0x006916e4      defc0010       adda.w 0x10, a7
          0x006916e8      4a1f           tst.b (a7)+
      < 0x006916ea      6660           bne.b 0x69174c
         0x006916ec      9ec2           suba.w d2, a7
         0x006916ee      4eb900408ec0   jsr p_err_string
         0x006916f4      487ab49c       pea.l 0x68cb92(pc)
         0x006916f8      48780014       pea.l 0x14
         0x006916fc      2f17           move.l (a7), -(a7)
         0x006916fe      4eb9004047ea   jsr p_wts_o
         0x00691704      dec4           adda.w d4, a7
         0x00691706      486f0001       pea.l 0x1(a7)
         0x0069170a      42a7           clr.l -(a7)
         0x0069170c      1f6f00080003   move.b 0x8(a7), 0x3(a7)
         0x00691712      2f17           move.l (a7), -(a7)
         0x00691714      4eb9004047ea   jsr p_wts_o
         0x0069171a      defc010c       adda.w 0x10c, a7
         0x0069171e      4eb900404946   jsr p_wtln_o
         0x00691724      4eb900404188   jsr p_Unlink
         0x0069172a      3f12           move.w (a2), -(a7)
         0x0069172c      9ec2           suba.w d2, a7
         0x0069172e      204f           movea.l a7, a0
         0x00691730      43fab474       lea.l 0x68cba6(pc), a1
         0x00691734      7004           moveq 0x4, d0
     > 0x00691736      20d9           move.l (a1)+, (a0)+
     < 0x00691738      51c8fffc       dbra d0, 0x691736
         0x0069173c      30d9           move.w (a1)+, (a0)+
         0x0069173e      4e94           jsr (a4)                    ; fcn.0000000d
         0x00691740      dec3           adda.w d3, a7
         0x00691742      4853           pea.l (a3)
         0x00691744      4eb900404468   jsr fcn.00404468
         0x0069174a      584f           addq.w 0x4, a7
      > 0x0069174c      7a01           moveq 0x1, d5
          0x0069174e      4a2e012a       tst.b 0x12a(a6)
      < 0x00691752      6654           bne.b 0x6917a8
         0x00691754      3f12           move.w (a2), -(a7)
         0x00691756      9ec2           suba.w d2, a7
         0x00691758      7011           moveq 0x11, d0
         0x0069175a      41ef0001       lea.l 0x1(a7), a0
         0x0069175e      43fab45d       lea.l 0x68cbbd(pc), a1
     > 0x00691762      10d9           move.b (a1)+, (a0)+
     < 0x00691764      51c8fffc       dbra d0, 0x691762
         0x00691768      4240           clr.w d0
         0x0069176a      102e0026       move.b 0x26(a6), d0
         0x0069176e      06000012       addi.b 0x12, d0
     < 0x00691772      6406           bcc.b 0x69177a
        0x00691774      4eb900406c8a   jsr p_strovr
     > 0x0069177a      4240           clr.w d0
         0x0069177c      102e0026       move.b 0x26(a6), d0
         0x00691780      323c00ff       move.w 0xff, d1
         0x00691784      04410012       subi.w 0x12, d1
         0x00691788      b041           cmp.w d1, d0
     < 0x0069178a      6302           bls.b 0x69178e
        0x0069178c      3001           move.w d1, d0
     > 0x0069178e      1ebc0012       move.b 0x12, (a7)
         0x00691792      d117           add.b d0, (a7)
         0x00691794      5300           subq.b 0x1, d0
     < 0x00691796      650a           bcs.b 0x6917a2
        0x00691798      43ee0027       lea.l 0x27(a6), a1
    > 0x0069179c      10d9           move.b (a1)+, (a0)+
    < 0x0069179e      51c8fffc       dbra d0, 0x69179c
     > 0x006917a2      4ebad4c0       jsr BOOTCOM.my_text_all(pc)
         0x006917a6      dec3           adda.w d3, a7
      > 0x006917a8      42aeff8e       clr.l -0x72(a6)
          0x006917ac      42aeff9c       clr.l -0x64(a6)
          0x006917b0      7e00           moveq 0x0, d7
      > 0x006917b2      4a2e012a       tst.b 0x12a(a6)
     < 0x006917b6      6744           beq.b 0x6917fc
        0x006917b8      554f           subq.w 0x2, a7
        0x006917ba      4eb9004755c2   jsr CONFIG.cfg_gender
        0x006917c0      101f           move.b (a7)+, d0
        0x006917c2      0c000003       cmpi.b 0x3, d0
    < 0x006917c6      6614           bne.b 0x6917dc
       0x006917c8      3f12           move.w (a2), -(a7)
       0x006917ca      9ec2           suba.w d2, a7
       0x006917cc      204f           movea.l a7, a0
       0x006917ce      43fab3ff       lea.l 0x68cbcf(pc), a1
       0x006917d2      7021           moveq 0x21, d0
   > 0x006917d4      10d9           move.b (a1)+, (a0)+
   < 0x006917d6      51c8fffc       dbra d0, 0x6917d4
   < 0x006917da      6012           bra.b 0x6917ee
   > 0x006917dc      3f12           move.w (a2), -(a7)
       0x006917de      9ec2           suba.w d2, a7
       0x006917e0      204f           movea.l a7, a0
       0x006917e2      43fab40d       lea.l 0x68cbf1(pc), a1
       0x006917e6      701f           moveq 0x1f, d0
   > 0x006917e8      10d9           move.b (a1)+, (a0)+
   < 0x006917ea      51c8fffc       dbra d0, 0x6917e8
   > 0x006917ee      4e94           jsr (a4)                    ; fcn.0000000d
        0x006917f0      dec3           adda.w d3, a7
        0x006917f2      4a2e0022       tst.b 0x22(a6)
    < 0x006917f6      6704           beq.b 0x6917fc
       0x006917f8      4ebaf938       jsr BOOTCOM.wait_for_cue(pc)
    > 0x006917fc      554f           subq.w 0x2, a7
         0x006917fe      2f2e001e       move.l 0x1e(a6), -(a7)
         0x00691802      202e0016       move.l 0x16(a6), d0
         0x00691806      0480ffff8000   subi.l 0xffff8000, d0
         0x0069180c      0c800000ffff   cmpi.l 0xffff, d0
     < 0x00691812      6302           bls.b 0x691816
        0x00691814      4e4f           trap 0xf
     > 0x00691816      0680ffff8000   addi.l 0xffff8000, d0
         0x0069181c      3f00           move.w d0, -(a7)
         0x0069181e      486eff9c       pea.l -0x64(a6)
         0x00691822      486efe8d       pea.l -0x173(a6)
         0x00691826      3f2e0128       move.w 0x128(a6), -(a7)
         0x0069182a      3f12           move.w (a2), -(a7)
         0x0069182c      9ec2           suba.w d2, a7
         0x0069182e      204f           movea.l a7, a0
         0x00691830      43ee0026       lea.l 0x26(a6), a1
         0x00691834      703f           moveq 0x3f, d0
     > 0x00691836      20d9           move.l (a1)+, (a0)+
     < 0x00691838      51c8fffc       dbra d0, 0x691836
         0x0069183c      486efe6c       pea.l -0x194(a6)
         0x00691840      486efe88       pea.l -0x178(a6)
         0x00691844      486eff8e       pea.l -0x72(a6)
         0x00691848      486eff92       pea.l -0x6e(a6)
         0x0069184c      486eff9a       pea.l -0x66(a6)
         0x00691850      486efffc       pea.l -0x4(a6)
         0x00691854      486efffe       pea.l -0x2(a6)
         0x00691858      4ebae452       jsr BOOTCOM.load_removable_(pc)
         0x0069185c      defc012e       adda.w 0x12e, a7
         0x00691860      4a1f           tst.b (a7)+
     < 0x00691862      663e           bne.b 0x6918a2
        0x00691864      487ab3ac       pea.l 0x68cc12(pc)
        0x00691868      48780014       pea.l 0x14
        0x0069186c      2f17           move.l (a7), -(a7)
        0x0069186e      4eb9004047ea   jsr p_wts_o
        0x00691874      dec4           adda.w d4, a7
        0x00691876      4eb900404946   jsr p_wtln_o
        0x0069187c      3f2e0128       move.w 0x128(a6), -(a7)
        0x00691880      9efc00fc       suba.w 0xfc, a7
        0x00691884      2f3ab3a0       move.l 0x68cc26(pc), -(a7)
        0x00691888      3f7ab3a00004   move.w 0x68cc2a(pc), 0x4(a7)
        0x0069188e      1f7ab39c0006   move.b 0x68cc2c(pc), 0x6(a7)
        0x00691894      4e94           jsr (a4)                    ; fcn.0000000d
        0x00691896      dec3           adda.w d3, a7
        0x00691898      4853           pea.l (a3)
        0x0069189a      4eb900404468   jsr fcn.00404468
        0x006918a0      584f           addq.w 0x4, a7
     > 0x006918a2      4a2efffc       tst.b -0x4(a6)
     < 0x006918a6      6766           beq.b 0x69190e
        0x006918a8      4a07           tst.b d7
    < 0x006918aa      6758           beq.b 0x691904
       0x006918ac      bc6efffe       cmp.w -0x2(a6), d6
   < 0x006918b0      6752           beq.b 0x691904
      0x006918b2      487ab37a       pea.l 0x68cc2e(pc)
      0x006918b6      4878001a       pea.l 0x1a
      0x006918ba      2f17           move.l (a7), -(a7)
      0x006918bc      4eb9004047ea   jsr p_wts_o
      0x006918c2      dec4           adda.w d4, a7
      0x006918c4      4280           clr.l d0
      0x006918c6      302efffe       move.w -0x2(a6), d0
      0x006918ca      2f00           move.l d0, -(a7)
      0x006918cc      48780000       pea.l 0x0
      0x006918d0      4eb9004070e4   jsr p_wti_o
      0x006918d6      504f           addq.w 0x8, a7
      0x006918d8      487ab36f       pea.l 0x68cc49(pc)
      0x006918dc      48780008       pea.l 0x8
      0x006918e0      2f17           move.l (a7), -(a7)
      0x006918e2      4eb9004047ea   jsr p_wts_o
      0x006918e8      dec4           adda.w d4, a7
      0x006918ea      02860000ffff   andi.l 0xffff, d6
      0x006918f0      2f06           move.l d6, -(a7)
      0x006918f2      48780000       pea.l 0x0
      0x006918f6      4eb9004070e4   jsr p_wti_o
      0x006918fc      504f           addq.w 0x8, a7
      0x006918fe      4eb900404946   jsr p_wtln_o
   > 0x00691904      4a07           tst.b d7
    < 0x00691906      6604           bne.b 0x69190c
       0x00691908      3c2efffe       move.w -0x2(a6), d6
    > 0x0069190c      7e01           moveq 0x1, d7
     > 0x0069190e      4a05           tst.b d5
     < 0x00691910      6708           beq.b 0x69191a
        0x00691912      2d6efe6cfe50   move.l -0x194(a6), -0x1b0(a6)
        0x00691918      7a00           moveq 0x0, d5
     > 0x0069191a      4a2e0024       tst.b 0x24(a6)
     < 0x0069191e      6718           beq.b 0x691938
        0x00691920      52ae0016       addq.l 0x1, 0x16(a6)
        0x00691924      202e0016       move.l 0x16(a6), d0
        0x00691928      0c8000000008   cmpi.l 0x8, d0
    < 0x0069192e      6608           bne.b 0x691938
       0x00691930      2d7c00000001.  move.l 0x1, 0x16(a6)
    > 0x00691938      4aaefe7c       tst.l -0x184(a6)
     < 0x0069193c      6608           bne.b 0x691946
        0x0069193e      4a2e012a       tst.b 0x12a(a6)
     < 0x00691942      6600fe6e       bne.w 0x6917b2
     > 0x00691946      41eefe54       lea.l -0x1ac(a6), a0
          0x0069194a      43eefe6c       lea.l -0x194(a6), a1
          0x0069194e      7005           moveq 0x5, d0
      > 0x00691950      20d9           move.l (a1)+, (a0)+
      < 0x00691952      51c8fffc       dbra d0, 0x691950
          0x00691956      4a2e012a       tst.b 0x12a(a6)
      < 0x0069195a      6706           beq.b 0x691962
         0x0069195c      2d6efe50fe54   move.l -0x1b0(a6), -0x1ac(a6)
      > 0x00691962      486efe88       pea.l -0x178(a6)
          0x00691966      4eb90060470a   jsr F9_FILERDWRT.f_close
          0x0069196c      544f           addq.w 0x2, a7
          0x0069196e      2f2eff8e       move.l -0x72(a6), -(a7)
          0x00691972      2f2eff96       move.l -0x6a(a6), -(a7)
          0x00691976      2f2eff92       move.l -0x6e(a6), -(a7)
          0x0069197a      102eff9a       move.b -0x66(a6), d0
          0x0069197e      4880           ext.w d0
          0x00691980      41bc0001       chk.w 0x1, d0
          0x00691984      1f00           move.b d0, -(a7)
          0x00691986      2f2efe84       move.l -0x17c(a6), -(a7)
          0x0069198a      4ebaea16       jsr BOOTCOM.insert_checksum(pc)
          0x0069198e      defc0012       adda.w 0x12, a7
          0x00691992      4a1f           tst.b (a7)+
      < 0x00691994      6638           bne.b 0x6919ce
         0x00691996      487ab2ba       pea.l 0x68cc52(pc)
         0x0069199a      48780015       pea.l 0x15
         0x0069199e      2f17           move.l (a7), -(a7)
         0x006919a0      4eb9004047ea   jsr p_wts_o
         0x006919a6      dec4           adda.w d4, a7
         0x006919a8      4eb900404946   jsr p_wtln_o
         0x006919ae      3f12           move.w (a2), -(a7)
         0x006919b0      9ec2           suba.w d2, a7
         0x006919b2      204f           movea.l a7, a0
         0x006919b4      43fab2b1       lea.l 0x68cc67(pc), a1
         0x006919b8      7006           moveq 0x6, d0
     > 0x006919ba      10d9           move.b (a1)+, (a0)+
     < 0x006919bc      51c8fffc       dbra d0, 0x6919ba
         0x006919c0      4e94           jsr (a4)                    ; fcn.0000000d
         0x006919c2      dec3           adda.w d3, a7
         0x006919c4      4853           pea.l (a3)
         0x006919c6      4eb900404468   jsr fcn.00404468
         0x006919cc      584f           addq.w 0x4, a7
      > 0x006919ce      554f           subq.w 0x2, a7
          0x006919d0      2f2efe84       move.l -0x17c(a6), -(a7)
          0x006919d4      2f2efff4       move.l -0xc(a6), -(a7)
          0x006919d8      2f2efff0       move.l -0x10(a6), -(a7)
          0x006919dc      3f2effee       move.w -0x12(a6), -(a7)
          0x006919e0      41eefe54       lea.l -0x1ac(a6), a0
          0x006919e4      2f08           move.l a0, -(a7)
          0x006919e6      9ec2           suba.w d2, a7
          0x006919e8      204f           movea.l a7, a0
          0x006919ea      43eefe8d       lea.l -0x173(a6), a1
          0x006919ee      303c00ff       move.w 0xff, d0
      > 0x006919f2      10d9           move.b (a1)+, (a0)+
      < 0x006919f4      51c8fffc       dbra d0, 0x6919f2
          0x006919f8      9ec2           suba.w d2, a7
          0x006919fa      204f           movea.l a7, a0
          0x006919fc      43ee0026       lea.l 0x26(a6), a1
          0x00691a00      703f           moveq 0x3f, d0
      > 0x00691a02      20d9           move.l (a1)+, (a0)+
      < 0x00691a04      51c8fffc       dbra d0, 0x691a02
          0x00691a08      4887           ext.w d7
          0x00691a0a      4fbc0001       chk.w 0x1, d7
          0x00691a0e      1f07           move.b d7, -(a7)
          0x00691a10      3f06           move.w d6, -(a7)
          0x00691a12      2f2e0012       move.l 0x12(a6), -(a7)
          0x00691a16      3f12           move.w (a2), -(a7)
          0x00691a18      4ebae5f8       jsr BOOTCOM.set_headers(pc)
          0x00691a1c      defc021c       adda.w 0x21c, a7
          0x00691a20      4a1f           tst.b (a7)+
      < 0x00691a22      6662           bne.b 0x691a86
         0x00691a24      487ab249       pea.l 0x68cc6f(pc)
         0x00691a28      48780012       pea.l 0x12
         0x00691a2c      2f17           move.l (a7), -(a7)
         0x00691a2e      4eb9004047ea   jsr p_wts_o
         0x00691a34      dec4           adda.w d4, a7
         0x00691a36      4eb900404946   jsr p_wtln_o
         0x00691a3c      4853           pea.l (a3)
         0x00691a3e      4eb900404468   jsr fcn.00404468
         0x00691a44      584f           addq.w 0x4, a7
     < 0x00691a46      603e           bra.b 0x691a86
     > 0x00691a48      486efe88       pea.l -0x178(a6)
         0x00691a4c      4eb90060470a   jsr F9_FILERDWRT.f_close
         0x00691a52      584f           addq.w 0x4, a7
         0x00691a54      486efe84       pea.l -0x17c(a6)
         0x00691a58      4eb90060500e   jsr F9_FILERDWRT.f_free_block
         0x00691a5e      2eaefff4       move.l -0xc(a6), (a7)
         0x00691a62      2f2efff0       move.l -0x10(a6), -(a7)
         0x00691a66      3f2effee       move.w -0x12(a6), -(a7)
         0x00691a6a      4ebaeb5a       jsr BOOTCOM.delete_if_not_n(pc)
         0x00691a6e      504f           addq.w 0x8, a7
         0x00691a70      3e92           move.w (a2), (a7)
         0x00691a72      9ec2           suba.w d2, a7
         0x00691a74      204f           movea.l a7, a0
         0x00691a76      43fab209       lea.l 0x68cc81(pc), a1
         0x00691a7a      700b           moveq 0xb, d0
     > 0x00691a7c      10d9           move.b (a1)+, (a0)+
     < 0x00691a7e      51c8fffc       dbra d0, 0x691a7c
         0x00691a82      4e94           jsr (a4)                    ; fcn.0000000d
         0x00691a84      dec3           adda.w d3, a7
     > 0x00691a86      486efe88       pea.l -0x178(a6)
           0x00691a8a      4eb90060470a   jsr F9_FILERDWRT.f_close
           0x00691a90      584f           addq.w 0x4, a7
           0x00691a92      486efe84       pea.l -0x17c(a6)
           0x00691a96      4eb90060500e   jsr F9_FILERDWRT.f_free_block
           0x00691a9c      584f           addq.w 0x4, a7
           0x00691a9e      4cdf1fff       movem.l (a7)+, d0-d7/a0-a4
           0x00691aa2      4e5e           unlk a6
           0x00691aa4      4e75           rts
            ; CALL XREF from BOOTCOM.boot_files @ 0x6946b8
 624: BOOTCOM.check_floppies ();
           0x00691aa6      4e56fc0c       link.w a6, 0xfc0c
           0x00691aaa      bfd5           cmpa.l (a5), a7
       < 0x00691aac      6206           bhi.b 0x691ab4
          0x00691aae      44fc0002       move.w 0x2, ccr
          0x00691ab2      4e76           trapv
       > 0x00691ab4      defc0266       adda.w 0x266, a7
           0x00691ab8      48e7fff8       movem.l d0-d7/a0-a4, -(a7)
           0x00691abc      45f9004047ea   lea.l p_wts_o, a2
           0x00691ac2      47eefe8e       lea.l -0x172(a6), a3
           0x00691ac6      49f900404946   lea.l p_wtln_o, a4
           0x00691acc      343c0100       move.w 0x100, d2
           0x00691ad0      760c           moveq 0xc, d3
           0x00691ad2      7801           moveq 0x1, d4
           0x00691ad4      7a0a           moveq 0xa, d5
           0x00691ad6      2684           move.l d4, (a3)
           0x00691ad8      2d7cffff0001.  move.l 0xffff0001, -0x176(a6)
           0x00691ae0      554f           subq.w 0x2, a7
           0x00691ae2      486efea2       pea.l -0x15e(a6)
           0x00691ae6      4eb900404434   jsr fcn.00404434
           0x00691aec      584f           addq.w 0x4, a7
           0x00691aee      4a1f           tst.b (a7)+
       < 0x00691af0      67000206       beq.w 0x691cf8
          0x00691af4      554f           subq.w 0x2, a7
          0x00691af6      2f2e000e       move.l 0xe(a6), -(a7)
          0x00691afa      2f2e000a       move.l 0xa(a6), -(a7)
          0x00691afe      3f2e0008       move.w 0x8(a6), -(a7)
          0x00691b02      3f2e0120       move.w 0x120(a6), -(a7)
          0x00691b06      9ec2           suba.w d2, a7
          0x00691b08      204f           movea.l a7, a0
          0x00691b0a      43ee001e       lea.l 0x1e(a6), a1
          0x00691b0e      703f           moveq 0x3f, d0
      > 0x00691b10      20d9           move.l (a1)+, (a0)+
      < 0x00691b12      51c8fffc       dbra d0, 0x691b10
          0x00691b16      9ec2           suba.w d2, a7
          0x00691b18      1ebab173       move.b 0x68cc8d(pc), (a7)
          0x00691b1c      4853           pea.l (a3)
          0x00691b1e      486efe8a       pea.l -0x176(a6)
          0x00691b22      486efe72       pea.l -0x18e(a6)
          0x00691b26      486efeec       pea.l -0x114(a6)
          0x00691b2a      486efff8       pea.l -0x8(a6)
          0x00691b2e      486efffa       pea.l -0x6(a6)
          0x00691b32      486efff0       pea.l -0x10(a6)
          0x00691b36      486efff4       pea.l -0xc(a6)
          0x00691b3a      4ebad90c       jsr BOOTCOM.start_make(pc)
          0x00691b3e      defc022c       adda.w 0x22c, a7
          0x00691b42      4a1f           tst.b (a7)+
      < 0x00691b44      661c           bne.b 0x691b62
         0x00691b46      487ab147       pea.l 0x68cc8f(pc)
         0x00691b4a      48780011       pea.l 0x11
         0x00691b4e      2f17           move.l (a7), -(a7)
         0x00691b50      4e92           jsr (a2)                    ; fcn.00000009+0x2
         0x00691b52      dec3           adda.w d3, a7
         0x00691b54      4e94           jsr (a4)                    ; fcn.0000000d
         0x00691b56      486efea2       pea.l -0x15e(a6)
         0x00691b5a      4eb900404468   jsr fcn.00404468
         0x00691b60      584f           addq.w 0x4, a7
      > 0x00691b62      7e00           moveq 0x0, d7
          0x00691b64      7c00           moveq 0x0, d6
          0x00691b66      42aeffec       clr.l -0x14(a6)
      > 0x00691b6a      554f           subq.w 0x2, a7
         0x00691b6c      4eb9004755c2   jsr CONFIG.cfg_gender
         0x00691b72      101f           move.b (a7)+, d0
         0x00691b74      0c000003       cmpi.b 0x3, d0
     < 0x00691b78      6618           bne.b 0x691b92
        0x00691b7a      3f2e011e       move.w 0x11e(a6), -(a7)
        0x00691b7e      9ec2           suba.w d2, a7
        0x00691b80      204f           movea.l a7, a0
        0x00691b82      43fab11c       lea.l 0x68cca0(pc), a1
        0x00691b86      7007           moveq 0x7, d0
    > 0x00691b88      20d9           move.l (a1)+, (a0)+
    < 0x00691b8a      51c8fffc       dbra d0, 0x691b88
        0x00691b8e      30d9           move.w (a1)+, (a0)+
    < 0x00691b90      6014           bra.b 0x691ba6
    > 0x00691b92      3f2e011e       move.w 0x11e(a6), -(a7)
        0x00691b96      9ec2           suba.w d2, a7
        0x00691b98      204f           movea.l a7, a0
        0x00691b9a      43fab126       lea.l 0x68ccc2(pc), a1
        0x00691b9e      7007           moveq 0x7, d0
    > 0x00691ba0      20d9           move.l (a1)+, (a0)+
    < 0x00691ba2      51c8fffc       dbra d0, 0x691ba0
    > 0x00691ba6      4ebad04c       jsr BOOTCOM.my_box_error(pc)
         0x00691baa      defc0102       adda.w 0x102, a7
         0x00691bae      4a2e001a       tst.b 0x1a(a6)
     < 0x00691bb2      6704           beq.b 0x691bb8
        0x00691bb4      4ebaf57c       jsr BOOTCOM.wait_for_cue(pc)
     > 0x00691bb8      554f           subq.w 0x2, a7
         0x00691bba      2f2e0016       move.l 0x16(a6), -(a7)
         0x00691bbe      2f2e0012       move.l 0x12(a6), -(a7)
         0x00691bc2      3f2e0120       move.w 0x120(a6), -(a7)
         0x00691bc6      3f2e011e       move.w 0x11e(a6), -(a7)
         0x00691bca      9ec2           suba.w d2, a7
         0x00691bcc      204f           movea.l a7, a0
         0x00691bce      43ee001e       lea.l 0x1e(a6), a1
         0x00691bd2      703f           moveq 0x3f, d0
     > 0x00691bd4      20d9           move.l (a1)+, (a0)+
     < 0x00691bd6      51c8fffc       dbra d0, 0x691bd4
         0x00691bda      486efe72       pea.l -0x18e(a6)
         0x00691bde      4853           pea.l (a3)
         0x00691be0      486effec       pea.l -0x14(a6)
         0x00691be4      486efe9a       pea.l -0x166(a6)
         0x00691be8      486efe9e       pea.l -0x162(a6)
         0x00691bec      486efffc       pea.l -0x4(a6)
         0x00691bf0      486efffe       pea.l -0x2(a6)
         0x00691bf4      4ebaf3be       jsr BOOTCOM.check_floppy(pc)
         0x00691bf8      defc0128       adda.w 0x128, a7
         0x00691bfc      4a1f           tst.b (a7)+
     < 0x00691bfe      6638           bne.b 0x691c38
        0x00691c00      487ab0e1       pea.l 0x68cce3(pc)
        0x00691c04      48780018       pea.l 0x18
        0x00691c08      2f17           move.l (a7), -(a7)
        0x00691c0a      4e92           jsr (a2)                    ; fcn.00000009+0x2
        0x00691c0c      dec3           adda.w d3, a7
        0x00691c0e      4e94           jsr (a4)                    ; fcn.0000000d
        0x00691c10      3f2e011e       move.w 0x11e(a6), -(a7)
        0x00691c14      9ec2           suba.w d2, a7
        0x00691c16      204f           movea.l a7, a0
        0x00691c18      43fab0e1       lea.l 0x68ccfb(pc), a1
        0x00691c1c      7011           moveq 0x11, d0
    > 0x00691c1e      10d9           move.b (a1)+, (a0)+
    < 0x00691c20      51c8fffc       dbra d0, 0x691c1e
        0x00691c24      4ebacfce       jsr BOOTCOM.my_box_error(pc)
        0x00691c28      defc0102       adda.w 0x102, a7
        0x00691c2c      486efea2       pea.l -0x15e(a6)
        0x00691c30      4eb900404468   jsr fcn.00404468
        0x00691c36      584f           addq.w 0x4, a7
     > 0x00691c38      102efffc       move.b -0x4(a6), d0
         0x00691c3c      b02efff8       cmp.b -0x8(a6), d0
     < 0x00691c40      673c           beq.b 0x691c7e
        0x00691c42      487ab0ca       pea.l 0x68cd0e(pc)
        0x00691c46      48780014       pea.l 0x14
        0x00691c4a      2f17           move.l (a7), -(a7)
        0x00691c4c      4e92           jsr (a2)                    ; fcn.00000009+0x2
        0x00691c4e      dec5           adda.w d5, a7
        0x00691c50      1eaefff8       move.b -0x8(a6), (a7)
        0x00691c54      48780005       pea.l 0x5
        0x00691c58      4eb90040718c   jsr p_wtb_o
        0x00691c5e      5c4f           addq.w 0x6, a7
        0x00691c60      487ab0c1       pea.l 0x68cd23(pc)
        0x00691c64      48780006       pea.l 0x6
        0x00691c68      2f17           move.l (a7), -(a7)
        0x00691c6a      4e92           jsr (a2)                    ; fcn.00000009+0x2
        0x00691c6c      dec5           adda.w d5, a7
        0x00691c6e      1e80           move.b d0, (a7)
        0x00691c70      48780005       pea.l 0x5
        0x00691c74      4eb90040718c   jsr p_wtb_o
        0x00691c7a      5c4f           addq.w 0x6, a7
        0x00691c7c      4e94           jsr (a4)                    ; fcn.0000000d
     > 0x00691c7e      302efffe       move.w -0x2(a6), d0
         0x00691c82      b06efffa       cmp.w -0x6(a6), d0
     < 0x00691c86      6746           beq.b 0x691cce
        0x00691c88      487ab0a0       pea.l 0x68cd2a(pc)
        0x00691c8c      4878000c       pea.l 0xc
        0x00691c90      2f17           move.l (a7), -(a7)
        0x00691c92      4e92           jsr (a2)                    ; fcn.00000009+0x2
        0x00691c94      dec3           adda.w d3, a7
        0x00691c96      4281           clr.l d1
        0x00691c98      322efffa       move.w -0x6(a6), d1
        0x00691c9c      2f01           move.l d1, -(a7)
        0x00691c9e      48780000       pea.l 0x0
        0x00691ca2      4eb9004070e4   jsr p_wti_o
        0x00691ca8      504f           addq.w 0x8, a7
        0x00691caa      487ab08b       pea.l 0x68cd37(pc)
        0x00691cae      48780006       pea.l 0x6
        0x00691cb2      2f17           move.l (a7), -(a7)
        0x00691cb4      4e92           jsr (a2)                    ; fcn.00000009+0x2
        0x00691cb6      dec3           adda.w d3, a7
        0x00691cb8      02800000ffff   andi.l 0xffff, d0
        0x00691cbe      2f00           move.l d0, -(a7)
        0x00691cc0      48780000       pea.l 0x0
        0x00691cc4      4eb9004070e4   jsr p_wti_o
        0x00691cca      504f           addq.w 0x8, a7
        0x00691ccc      4e94           jsr (a4)                    ; fcn.0000000d
     > 0x00691cce      deaefe9a       add.l -0x166(a6), d7
         0x00691cd2      dcaefe9e       add.l -0x162(a6), d6
         0x00691cd6      4a2e001c       tst.b 0x1c(a6)
     < 0x00691cda      6714           beq.b 0x691cf0
        0x00691cdc      52ae0012       addq.l 0x1, 0x12(a6)
        0x00691ce0      202e0012       move.l 0x12(a6), d0
        0x00691ce4      0c8000000008   cmpi.l 0x8, d0
    < 0x00691cea      6604           bne.b 0x691cf0
       0x00691cec      2d440012       move.l d4, 0x12(a6)
    > 0x00691cf0      4aaefe82       tst.l -0x17e(a6)
      < 0x00691cf4      6700fe74       beq.w 0x691b6a
       > 0x00691cf8      486efe8a       pea.l -0x176(a6)
           0x00691cfc      4eb90060500e   jsr F9_FILERDWRT.f_free_block
           0x00691d02      584f           addq.w 0x4, a7
           0x00691d04      4853           pea.l (a3)
           0x00691d06      4eb90060470a   jsr F9_FILERDWRT.f_close
           0x00691d0c      584f           addq.w 0x4, a7
           0x00691d0e      4cdf1fff       movem.l (a7)+, d0-d7/a0-a4
           0x00691d12      4e5e           unlk a6
           0x00691d14      4e75           rts
            ; CALL XREF from BOOTCOM.boot_files @ 0x693fee
            ; CALL XREF from BOOTCOM.sw_install @ 0x694c82
 846: BOOTCOM.make_magopt ();
           0x00691d16      4e56fc04       link.w a6, 0xfc04
           0x00691d1a      bfd5           cmpa.l (a5), a7
       < 0x00691d1c      6206           bhi.b 0x691d24
          0x00691d1e      44fc0002       move.w 0x2, ccr
          0x00691d22      4e76           trapv
       > 0x00691d24      defc027e       adda.w 0x27e, a7
           0x00691d28      48e7fff8       movem.l d0-d7/a0-a4, -(a7)
           0x00691d2c      45ee0018       lea.l 0x18(a6), a2
           0x00691d30      47eeffb2       lea.l -0x4e(a6), a3
           0x00691d34      49ee0118       lea.l 0x118(a6), a4
           0x00691d38      363c0100       move.w 0x100, d3
           0x00691d3c      383c00ff       move.w 0xff, d4
           0x00691d40      2a3cffff0001   move.l 0xffff0001, d5
           0x00691d46      7c0c           moveq 0xc, d6
           0x00691d48      7e01           moveq 0x1, d7
           0x00691d4a      2d47fe8a       move.l d7, -0x176(a6)
           0x00691d4e      2d45fe86       move.l d5, -0x17a(a6)
           0x00691d52      2d45fe82       move.l d5, -0x17e(a6)
           0x00691d56      554f           subq.w 0x2, a7
           0x00691d58      4853           pea.l (a3)
           0x00691d5a      4eb900404434   jsr fcn.00404434
           0x00691d60      584f           addq.w 0x4, a7
           0x00691d62      4a1f           tst.b (a7)+
       < 0x00691d64      67000294       beq.w 0x691ffa
          0x00691d68      554f           subq.w 0x2, a7
          0x00691d6a      206e0008       movea.l 0x8(a6), a0
          0x00691d6e      9efc000a       suba.w 0xa, a7
          0x00691d72      224f           movea.l a7, a1
          0x00691d74      7009           moveq 0x9, d0
      > 0x00691d76      12d8           move.b (a0)+, (a1)+
      < 0x00691d78      51c8fffc       dbra d0, 0x691d76
          0x00691d7c      2f3a9faa       move.l 0x68bd28(pc), -(a7)
          0x00691d80      2f3a9fa2       move.l 0x68bd24(pc), -(a7)
          0x00691d84      3f3a9f9c       move.w 0x68bd22(pc), -(a7)
          0x00691d88      4eb9005ef3d2   jsr F2_UTILITY.f_fids_eq
          0x00691d8e      defc0014       adda.w 0x14, a7
          0x00691d92      4a1f           tst.b (a7)+
      < 0x00691d94      6624           bne.b 0x691dba
         0x00691d96      3f14           move.w (a4), -(a7)
         0x00691d98      9ec3           suba.w d3, a7
         0x00691d9a      204f           movea.l a7, a0
         0x00691d9c      43faaf9f       lea.l 0x68cd3d(pc), a1
         0x00691da0      701a           moveq 0x1a, d0
     > 0x00691da2      10d9           move.b (a1)+, (a0)+
     < 0x00691da4      51c8fffc       dbra d0, 0x691da2
         0x00691da8      4ebace4a       jsr BOOTCOM.my_box_error(pc)
         0x00691dac      defc0102       adda.w 0x102, a7
         0x00691db0      4853           pea.l (a3)
         0x00691db2      4eb900404468   jsr fcn.00404468
         0x00691db8      584f           addq.w 0x4, a7
      > 0x00691dba      554f           subq.w 0x2, a7
          0x00691dbc      206e000c       movea.l 0xc(a6), a0
          0x00691dc0      9efc000a       suba.w 0xa, a7
          0x00691dc4      224f           movea.l a7, a1
          0x00691dc6      7009           moveq 0x9, d0
      > 0x00691dc8      12d8           move.b (a0)+, (a1)+
      < 0x00691dca      51c8fffc       dbra d0, 0x691dc8
          0x00691dce      3f2e011a       move.w 0x11a(a6), -(a7)
          0x00691dd2      9ec3           suba.w d3, a7
          0x00691dd4      204f           movea.l a7, a0
          0x00691dd6      224a           movea.l a2, a1
          0x00691dd8      703f           moveq 0x3f, d0
      > 0x00691dda      20d9           move.l (a1)+, (a0)+
      < 0x00691ddc      51c8fffc       dbra d0, 0x691dda
          0x00691de0      9ec3           suba.w d3, a7
          0x00691de2      1ebaaf74       move.b 0x68cd58(pc), (a7)
          0x00691de6      486efe8a       pea.l -0x176(a6)
          0x00691dea      486efe86       pea.l -0x17a(a6)
          0x00691dee      486efe8e       pea.l -0x172(a6)
          0x00691df2      486efeae       pea.l -0x152(a6)
          0x00691df6      486efffc       pea.l -0x4(a6)
          0x00691dfa      486efffe       pea.l -0x2(a6)
          0x00691dfe      486efeaa       pea.l -0x156(a6)
          0x00691e02      486efea6       pea.l -0x15a(a6)
          0x00691e06      4ebad640       jsr BOOTCOM.start_make(pc)
          0x00691e0a      defc022c       adda.w 0x22c, a7
          0x00691e0e      4a1f           tst.b (a7)+
      < 0x00691e10      6622           bne.b 0x691e34
         0x00691e12      487aaf46       pea.l 0x68cd5a(pc)
         0x00691e16      48780011       pea.l 0x11
         0x00691e1a      2f17           move.l (a7), -(a7)
         0x00691e1c      4eb9004047ea   jsr p_wts_o
         0x00691e22      dec6           adda.w d6, a7
         0x00691e24      4eb900404946   jsr p_wtln_o
         0x00691e2a      4853           pea.l (a3)
         0x00691e2c      4eb900404468   jsr fcn.00404468
         0x00691e32      584f           addq.w 0x4, a7
      > 0x00691e34      3f14           move.w (a4), -(a7)
          0x00691e36      9ec3           suba.w d3, a7
          0x00691e38      7006           moveq 0x6, d0
          0x00691e3a      41ef0001       lea.l 0x1(a7), a0
          0x00691e3e      43faaf2c       lea.l 0x68cd6c(pc), a1
      > 0x00691e42      10d9           move.b (a1)+, (a0)+
      < 0x00691e44      51c8fffc       dbra d0, 0x691e42
          0x00691e48      4240           clr.w d0
          0x00691e4a      1012           move.b (a2), d0
          0x00691e4c      5e00           addq.b 0x7, d0
      < 0x00691e4e      6406           bcc.b 0x691e56
         0x00691e50      4eb900406c8a   jsr p_strovr
      > 0x00691e56      4240           clr.w d0
          0x00691e58      1012           move.b (a2), d0
          0x00691e5a      3204           move.w d4, d1
          0x00691e5c      5f41           subq.w 0x7, d1
          0x00691e5e      b041           cmp.w d1, d0
      < 0x00691e60      6302           bls.b 0x691e64
         0x00691e62      3001           move.w d1, d0
      > 0x00691e64      1ebc0007       move.b 0x7, (a7)
          0x00691e68      d117           add.b d0, (a7)
          0x00691e6a      5300           subq.b 0x1, d0
      < 0x00691e6c      650a           bcs.b 0x691e78
         0x00691e6e      43ee0019       lea.l 0x19(a6), a1
     > 0x00691e72      10d9           move.b (a1)+, (a0)+
     < 0x00691e74      51c8fffc       dbra d0, 0x691e72
      > 0x00691e78      4240           clr.w d0
          0x00691e7a      1017           move.b (a7), d0
          0x00691e7c      41ef0001       lea.l 0x1(a7), a0
          0x00691e80      d0c0           adda.w d0, a0
          0x00691e82      7205           moveq 0x5, d1
          0x00691e84      d200           add.b d0, d1
      < 0x00691e86      6406           bcc.b 0x691e8e
         0x00691e88      4eb900406c8a   jsr p_strovr
      > 0x00691e8e      7205           moveq 0x5, d1
          0x00691e90      3404           move.w d4, d2
          0x00691e92      9440           sub.w d0, d2
          0x00691e94      b242           cmp.w d2, d1
      < 0x00691e96      6302           bls.b 0x691e9a
         0x00691e98      3202           move.w d2, d1
      > 0x00691e9a      d317           add.b d1, (a7)
          0x00691e9c      43faaed6       lea.l 0x68cd74(pc), a1
      > 0x00691ea0      10d9           move.b (a1)+, (a0)+
      < 0x00691ea2      51c9fffc       dbra d1, 0x691ea0
          0x00691ea6      4ebacdbc       jsr BOOTCOM.my_text_all(pc)
          0x00691eaa      dec3           adda.w d3, a7
          0x00691eac      4217           clr.b (a7)
          0x00691eae      4eb900627d08   jsr PICTURENET.rescan_net
          0x00691eb4      1e87           move.b d7, (a7)
          0x00691eb6      4eb9004e3b98   jsr MENUDISKSCOM.update_drives
          0x00691ebc      544f           addq.w 0x2, a7
          0x00691ebe      4aae0014       tst.l 0x14(a6)
      < 0x00691ec2      66000086       bne.w 0x691f4a
         0x00691ec6      3f14           move.w (a4), -(a7)
         0x00691ec8      9ec3           suba.w d3, a7
         0x00691eca      7002           moveq 0x2, d0
         0x00691ecc      41ef0001       lea.l 0x1(a7), a0
         0x00691ed0      43faaea8       lea.l 0x68cd7a(pc), a1
     > 0x00691ed4      10d9           move.b (a1)+, (a0)+
     < 0x00691ed6      51c8fffc       dbra d0, 0x691ed4
         0x00691eda      4240           clr.w d0
         0x00691edc      1012           move.b (a2), d0
         0x00691ede      5600           addq.b 0x3, d0
     < 0x00691ee0      6406           bcc.b 0x691ee8
        0x00691ee2      4eb900406c8a   jsr p_strovr
     > 0x00691ee8      4240           clr.w d0
         0x00691eea      1012           move.b (a2), d0
         0x00691eec      3204           move.w d4, d1
         0x00691eee      5741           subq.w 0x3, d1
         0x00691ef0      b041           cmp.w d1, d0
     < 0x00691ef2      6302           bls.b 0x691ef6
        0x00691ef4      3001           move.w d1, d0
     > 0x00691ef6      1ebc0003       move.b 0x3, (a7)
         0x00691efa      d117           add.b d0, (a7)
         0x00691efc      5300           subq.b 0x1, d0
     < 0x00691efe      650a           bcs.b 0x691f0a
        0x00691f00      43ee0019       lea.l 0x19(a6), a1
    > 0x00691f04      10d9           move.b (a1)+, (a0)+
    < 0x00691f06      51c8fffc       dbra d0, 0x691f04
     > 0x00691f0a      4240           clr.w d0
         0x00691f0c      1017           move.b (a7), d0
         0x00691f0e      41ef0001       lea.l 0x1(a7), a0
         0x00691f12      d0c0           adda.w d0, a0
         0x00691f14      720e           moveq 0xe, d1
         0x00691f16      d200           add.b d0, d1
     < 0x00691f18      6406           bcc.b 0x691f20
        0x00691f1a      4eb900406c8a   jsr p_strovr
     > 0x00691f20      720e           moveq 0xe, d1
         0x00691f22      3404           move.w d4, d2
         0x00691f24      9440           sub.w d0, d2
         0x00691f26      b242           cmp.w d2, d1
     < 0x00691f28      6302           bls.b 0x691f2c
        0x00691f2a      3202           move.w d2, d1
     > 0x00691f2c      d317           add.b d1, (a7)
         0x00691f2e      43faae4e       lea.l 0x68cd7e(pc), a1
     > 0x00691f32      10d9           move.b (a1)+, (a0)+
     < 0x00691f34      51c9fffc       dbra d1, 0x691f32
         0x00691f38      4ebaccba       jsr BOOTCOM.my_box_error(pc)
         0x00691f3c      defc0102       adda.w 0x102, a7
         0x00691f40      4853           pea.l (a3)
         0x00691f42      4eb900404468   jsr fcn.00404468
         0x00691f48      584f           addq.w 0x4, a7
      > 0x00691f4a      42aeffae       clr.l -0x52(a6)
          0x00691f4e      554f           subq.w 0x2, a7
          0x00691f50      2f2e0014       move.l 0x14(a6), -(a7)
          0x00691f54      2f2efeaa       move.l -0x156(a6), -(a7)
          0x00691f58      2f2efea6       move.l -0x15a(a6), -(a7)
          0x00691f5c      2f2efea6       move.l -0x15a(a6), -(a7)
          0x00691f60      2f2e0010       move.l 0x10(a6), -(a7)
          0x00691f64      3f2e011a       move.w 0x11a(a6), -(a7)
          0x00691f68      3f14           move.w (a4), -(a7)
          0x00691f6a      9ec3           suba.w d3, a7
          0x00691f6c      204f           movea.l a7, a0
          0x00691f6e      224a           movea.l a2, a1
          0x00691f70      703f           moveq 0x3f, d0
      > 0x00691f72      20d9           move.l (a1)+, (a0)+
      < 0x00691f74      51c8fffc       dbra d0, 0x691f72
          0x00691f78      41eefea6       lea.l -0x15a(a6), a0
          0x00691f7c      7005           moveq 0x5, d0
      > 0x00691f7e      2f20           move.l -(a0), -(a7)
      < 0x00691f80      51c8fffc       dbra d0, 0x691f7e
          0x00691f84      9ec3           suba.w d3, a7
          0x00691f86      204f           movea.l a7, a0
          0x00691f88      43eefeae       lea.l -0x152(a6), a1
          0x00691f8c      703f           moveq 0x3f, d0
      > 0x00691f8e      20d9           move.l (a1)+, (a0)+
      < 0x00691f90      51c8fffc       dbra d0, 0x691f8e
          0x00691f94      102efffc       move.b -0x4(a6), d0
          0x00691f98      4880           ext.w d0
          0x00691f9a      4187           chk.w d7, d0
          0x00691f9c      1f00           move.b d0, -(a7)
          0x00691f9e      3f2efffe       move.w -0x2(a6), -(a7)
          0x00691fa2      4227           clr.b -(a7)
          0x00691fa4      1f07           move.b d7, -(a7)
          0x00691fa6      486efe8a       pea.l -0x176(a6)
          0x00691faa      2f2efe86       move.l -0x17a(a6), -(a7)
          0x00691fae      486effae       pea.l -0x52(a6)
          0x00691fb2      4ebae6ae       jsr BOOTCOM.create_and_copy(pc)
          0x00691fb6      defc0244       adda.w 0x244, a7
          0x00691fba      4a1f           tst.b (a7)+
      < 0x00691fbc      6622           bne.b 0x691fe0
         0x00691fbe      487aadcd       pea.l 0x68cd8d(pc)
         0x00691fc2      48780016       pea.l 0x16
         0x00691fc6      2f17           move.l (a7), -(a7)
         0x00691fc8      4eb9004047ea   jsr p_wts_o
         0x00691fce      dec6           adda.w d6, a7
         0x00691fd0      4eb900404946   jsr p_wtln_o
         0x00691fd6      4853           pea.l (a3)
         0x00691fd8      4eb900404468   jsr fcn.00404468
         0x00691fde      584f           addq.w 0x4, a7
      > 0x00691fe0      487aadc2       pea.l 0x68cda4(pc)
          0x00691fe4      48780021       pea.l 0x21
          0x00691fe8      2f17           move.l (a7), -(a7)
          0x00691fea      4eb9004047ea   jsr p_wts_o
          0x00691ff0      dec6           adda.w d6, a7
          0x00691ff2      4eb900404946   jsr p_wtln_o
      < 0x00691ff8      604a           bra.b 0x692044
      > 0x00691ffa      3f14           move.w (a4), -(a7)
          0x00691ffc      9ec3           suba.w d3, a7
          0x00691ffe      4240           clr.w d0
          0x00692000      1012           move.b (a2), d0
          0x00692002      3200           move.w d0, d1
          0x00692004      41ef0001       lea.l 0x1(a7), a0
          0x00692008      5301           subq.b 0x1, d1
      < 0x0069200a      650a           bcs.b 0x692016
         0x0069200c      43ee0019       lea.l 0x19(a6), a1
     > 0x00692010      10d9           move.b (a1)+, (a0)+
     < 0x00692012      51c9fffc       dbra d1, 0x692010
      > 0x00692016      720b           moveq 0xb, d1
          0x00692018      d200           add.b d0, d1
      < 0x0069201a      6406           bcc.b 0x692022
         0x0069201c      4eb900406c8a   jsr p_strovr
      > 0x00692022      720b           moveq 0xb, d1
          0x00692024      3404           move.w d4, d2
          0x00692026      9440           sub.w d0, d2
          0x00692028      b242           cmp.w d2, d1
      < 0x0069202a      6302           bls.b 0x69202e
         0x0069202c      3202           move.w d2, d1
      > 0x0069202e      1e80           move.b d0, (a7)
          0x00692030      d317           add.b d1, (a7)
          0x00692032      43faad92       lea.l 0x68cdc6(pc), a1
      > 0x00692036      10d9           move.b (a1)+, (a0)+
      < 0x00692038      51c9fffc       dbra d1, 0x692036
          0x0069203c      4ebacbb6       jsr BOOTCOM.my_box_error(pc)
          0x00692040      defc0102       adda.w 0x102, a7
      > 0x00692044      486efe8a       pea.l -0x176(a6)
           0x00692048      4eb90060470a   jsr F9_FILERDWRT.f_close
           0x0069204e      584f           addq.w 0x4, a7
           0x00692050      486efe86       pea.l -0x17a(a6)
           0x00692054      4eb90060500e   jsr F9_FILERDWRT.f_free_block
           0x0069205a      584f           addq.w 0x4, a7
           0x0069205c      4cdf1fff       movem.l (a7)+, d0-d7/a0-a4
           0x00692060      4e5e           unlk a6
           0x00692062      4e75           rts
            ; CALL XREFS from BOOTCOM.boot_files @ 0x6944c4, 0x694522
 238: BOOTCOM.checksum_magopt ();
           0x00692064      4e56fca8       link.w a6, 0xfca8
           0x00692068      bfd5           cmpa.l (a5), a7
       < 0x0069206a      6206           bhi.b 0x692072
          0x0069206c      44fc0002       move.w 0x2, ccr
          0x00692070      4e76           trapv
       > 0x00692072      defc022a       adda.w 0x22a, a7
           0x00692076      48e7f0e0       movem.l d0-d3/a0-a2, -(a7)
           0x0069207a      45ee0010       lea.l 0x10(a6), a2
           0x0069207e      343c0100       move.w 0x100, d2
           0x00692082      7616           moveq 0x16, d3
           0x00692084      9ec2           suba.w d2, a7
           0x00692086      7015           moveq 0x15, d0
           0x00692088      41ef0001       lea.l 0x1(a7), a0
           0x0069208c      43faad44       lea.l 0x68cdd2(pc), a1
       > 0x00692090      10d9           move.b (a1)+, (a0)+
       < 0x00692092      51c8fffc       dbra d0, 0x692090
           0x00692096      4240           clr.w d0
           0x00692098      1012           move.b (a2), d0
           0x0069209a      d003           add.b d3, d0
       < 0x0069209c      6406           bcc.b 0x6920a4
          0x0069209e      4eb900406c8a   jsr p_strovr
       > 0x006920a4      4240           clr.w d0
           0x006920a6      1012           move.b (a2), d0
           0x006920a8      323c00ff       move.w 0xff, d1
           0x006920ac      9243           sub.w d3, d1
           0x006920ae      b041           cmp.w d1, d0
       < 0x006920b0      6302           bls.b 0x6920b4
          0x006920b2      3001           move.w d1, d0
       > 0x006920b4      1e83           move.b d3, (a7)
           0x006920b6      d117           add.b d0, (a7)
           0x006920b8      5300           subq.b 0x1, d0
       < 0x006920ba      650a           bcs.b 0x6920c6
          0x006920bc      43ee0011       lea.l 0x11(a6), a1
      > 0x006920c0      10d9           move.b (a1)+, (a0)+
      < 0x006920c2      51c8fffc       dbra d0, 0x6920c0
       > 0x006920c6      9ec2           suba.w d2, a7
           0x006920c8      204f           movea.l a7, a0
           0x006920ca      43ef0100       lea.l 0x100(a7), a1
           0x006920ce      703f           moveq 0x3f, d0
       > 0x006920d0      20d9           move.l (a1)+, (a0)+
       < 0x006920d2      51c8fffc       dbra d0, 0x6920d0
           0x006920d6      3f2e0110       move.w 0x110(a6), -(a7)
           0x006920da      486f0002       pea.l 0x2(a7)
           0x006920de      4267           clr.w -(a7)
           0x006920e0      3f02           move.w d2, -(a7)
           0x006920e2      4eb900481c8e   jsr MENUCOM.add_text_all
           0x006920e8      defc0204       adda.w 0x204, a7
           0x006920ec      2eae000c       move.l 0xc(a6), (a7)
           0x006920f0      202e0008       move.l 0x8(a6), d0
           0x006920f4      0480ffff8000   subi.l 0xffff8000, d0
           0x006920fa      0c800000ffff   cmpi.l 0xffff, d0
       < 0x00692100      6302           bls.b 0x692104
          0x00692102      4e4f           trap 0xf
       > 0x00692104      0680ffff8000   addi.l 0xffff8000, d0
           0x0069210a      3f00           move.w d0, -(a7)
           0x0069210c      486efff8       pea.l -0x8(a6)
           0x00692110      486efeeb       pea.l -0x115(a6)
           0x00692114      3f2e0110       move.w 0x110(a6), -(a7)
           0x00692118      4267           clr.w -(a7)
           0x0069211a      9ec2           suba.w d2, a7
           0x0069211c      204f           movea.l a7, a0
           0x0069211e      224a           movea.l a2, a1
           0x00692120      703f           moveq 0x3f, d0
       > 0x00692122      20d9           move.l (a1)+, (a0)+
       < 0x00692124      51c8fffc       dbra d0, 0x692122
           0x00692128      486efed2       pea.l -0x12e(a6)
           0x0069212c      486effec       pea.l -0x14(a6)
           0x00692130      486efff0       pea.l -0x10(a6)
           0x00692134      486efeea       pea.l -0x116(a6)
           0x00692138      486efffc       pea.l -0x4(a6)
           0x0069213c      486efffe       pea.l -0x2(a6)
           0x00692140      4ebadd70       jsr BOOTCOM.checksum_remova(pc)
           0x00692144      defc012a       adda.w 0x12a, a7
           0x00692148      4a1f           tst.b (a7)+
           0x0069214a      4cdf070f       movem.l (a7)+, d0-d3/a0-a2
           0x0069214e      4e5e           unlk a6
           0x00692150      4e75           rts
            ; CALL XREF from BOOTCOM.unboot @ 0x69275e
 214: BOOTCOM.unboot_image ();
           ; var int32_t var_8h @ a7+0x8
           0x00692152      4e56fe8e       link.w a6, 0xfe8e
           0x00692156      bfd5           cmpa.l (a5), a7
       < 0x00692158      6206           bhi.b 0x692160
          0x0069215a      44fc0002       move.w 0x2, ccr
          0x0069215e      4e76           trapv
       > 0x00692160      defc0120       adda.w 0x120, a7
           0x00692164      48e78380       movem.l d0/d6-d7/a0, -(a7)
           0x00692168      41ee0008       lea.l 0x8(a6), a0
           0x0069216c      422e0010       clr.b 0x10(a6)
           0x00692170      554f           subq.w 0x2, a7
           0x00692172      486effb6       pea.l -0x4a(a6)
           0x00692176      4eb900404434   jsr fcn.00404434
           0x0069217c      584f           addq.w 0x4, a7
           0x0069217e      4a1f           tst.b (a7)+
       < 0x00692180      6700009e       beq.w 0x692220
          0x00692184      2c3c00400000   move.l unknown_0000, d6
      > 0x0069218a      4a90           tst.l (a0)
     < 0x0069218c      6f00008c       ble.w 0x69221a
        0x00692190      2010           move.l (a0), d0
        0x00692192      048000000020   subi.l 0x20, d0
        0x00692198      4a80           tst.l d0
    < 0x0069219a      6f04           ble.b 0x6921a0
       0x0069219c      7e20           moveq 0x20, d7
   < 0x0069219e      6002           bra.b 0x6921a2
   > 0x006921a0      2e10           move.l (a0), d7
   > 0x006921a2      554f           subq.w 0x2, a7
        0x006921a4      2f2e000c       move.l 0xc(a6), -(a7)
        0x006921a8      2f07           move.l d7, -(a7)
        0x006921aa      2f06           move.l d6, -(a7)
        0x006921ac      48780000       pea.l 0x0
        0x006921b0      4eb9006049ac   jsr F9_FILERDWRT.f_write_blocks
        0x006921b6      defc0010       adda.w 0x10, a7
        0x006921ba      4a1f           tst.b (a7)+
    < 0x006921bc      664e           bne.b 0x69220c
       0x006921be      9efc0100       suba.w 0x100, a7
       0x006921c2      4eb900408ec0   jsr p_err_string
       0x006921c8      487aac1f       pea.l 0x68cde9(pc)
       0x006921cc      48780018       pea.l 0x18
       0x006921d0      2f17           move.l (a7), -(a7)
       0x006921d2      4eb9004047ea   jsr p_wts_o
       0x006921d8      defc000c       adda.w 0xc, a7
       0x006921dc      486f0001       pea.l 0x1(a7)
       0x006921e0      42a7           clr.l -(a7)
       0x006921e2      1f6f00080003   move.b 0x8(a7), 0x3(a7)
       0x006921e8      2f17           move.l (a7), -(a7)
       0x006921ea      4eb9004047ea   jsr p_wts_o
       0x006921f0      defc010c       adda.w 0x10c, a7
       0x006921f4      4eb900404946   jsr p_wtln_o
       0x006921fa      4eb900404188   jsr p_Unlink
       0x00692200      486effb6       pea.l -0x4a(a6)
       0x00692204      4eb900404468   jsr fcn.00404468
       0x0069220a      584f           addq.w 0x4, a7
    > 0x0069220c      9f90           sub.l d7, (a0)
        0x0069220e      2007           move.l d7, d0
        0x00692210      e180           asl.l 0x8, d0
        0x00692212      e580           asl.l 0x2, d0
        0x00692214      dc80           add.l d0, d6
     < 0x00692216      6000ff72       bra.w 0x69218a
     > 0x0069221a      1d7c00010010   move.b 0x1, 0x10(a6)
       > 0x00692220      4cdf01c1       movem.l (a7)+, d0/d6-d7/a0
           0x00692224      4e5e           unlk a6
           0x00692226      4e75           rts
            ; CALL XREF from BOOTCOM.boot_files @ 0x693b2c
 322: BOOTCOM.delete_boot ();
           ; var int32_t var_8h @ a7+0x8
           0x00692228      4e56fecc       link.w a6, 0xfecc
           0x0069222c      bfd5           cmpa.l (a5), a7
       < 0x0069222e      6206           bhi.b 0x692236
          0x00692230      44fc0002       move.w 0x2, ccr
          0x00692234      4e76           trapv
       > 0x00692236      defc0134       adda.w 0x134, a7
           0x0069223a      48e7e0f8       movem.l d0-d2/a0-a4, -(a7)
           0x0069223e      47f9004047ea   lea.l p_wts_o, a3
           0x00692244      49ee0014       lea.l 0x14(a6), a4
           0x00692248      720c           moveq 0xc, d1
           0x0069224a      343c0100       move.w 0x100, d2
           0x0069224e      206e0008       movea.l 0x8(a6), a0
           0x00692252      9ec1           suba.w d1, a7
           0x00692254      224f           movea.l a7, a1
           0x00692256      2448           movea.l a0, a2
           0x00692258      7009           moveq 0x9, d0
       > 0x0069225a      12da           move.b (a2)+, (a1)+
       < 0x0069225c      51c8fffc       dbra d0, 0x69225a
           0x00692260      2f3a9ac6       move.l 0x68bd28(pc), -(a7)
           0x00692264      2f3a9abe       move.l 0x68bd24(pc), -(a7)
           0x00692268      3f3a9ab8       move.w 0x68bd22(pc), -(a7)
           0x0069226c      4eb9005ef3d2   jsr F2_UTILITY.f_fids_eq
           0x00692272      defc0014       adda.w 0x14, a7
           0x00692276      4a1f           tst.b (a7)+
       < 0x00692278      6716           beq.b 0x692290
          0x0069227a      3f14           move.w (a4), -(a7)
          0x0069227c      9ec2           suba.w d2, a7
          0x0069227e      224f           movea.l a7, a1
          0x00692280      45faab7f       lea.l 0x68ce01(pc), a2
          0x00692284      7018           moveq 0x18, d0
      > 0x00692286      12da           move.b (a2)+, (a1)+
      < 0x00692288      51c8fffc       dbra d0, 0x692286
      < 0x0069228c      600000cc       bra.w 0x69235a
      > 0x00692290      9ec1           suba.w d1, a7
          0x00692292      224f           movea.l a7, a1
          0x00692294      2448           movea.l a0, a2
          0x00692296      7009           moveq 0x9, d0
      > 0x00692298      12da           move.b (a2)+, (a1)+
      < 0x0069229a      51c8fffc       dbra d0, 0x692298
          0x0069229e      4eb900605066   jsr F9_FILERDWRT.f_delete
          0x006922a4      defc000a       adda.w 0xa, a7
          0x006922a8      4a1f           tst.b (a7)+
      < 0x006922aa      6650           bne.b 0x6922fc
         0x006922ac      9ec2           suba.w d2, a7
         0x006922ae      4eb900408ec0   jsr p_err_string
         0x006922b4      487aab65       pea.l 0x68ce1b(pc)
         0x006922b8      48780016       pea.l 0x16
         0x006922bc      2f17           move.l (a7), -(a7)
         0x006922be      4e93           jsr (a3)                    ; fcn.0000000c
         0x006922c0      dec1           adda.w d1, a7
         0x006922c2      486f0001       pea.l 0x1(a7)
         0x006922c6      42a7           clr.l -(a7)
         0x006922c8      1f6f00080003   move.b 0x8(a7), 0x3(a7)
         0x006922ce      2f17           move.l (a7), -(a7)
         0x006922d0      4e93           jsr (a3)                    ; fcn.0000000c
         0x006922d2      defc010c       adda.w 0x10c, a7
         0x006922d6      4eb900404946   jsr p_wtln_o
         0x006922dc      4eb900404188   jsr p_Unlink
         0x006922e2      3f14           move.w (a4), -(a7)
         0x006922e4      9ec2           suba.w d2, a7
         0x006922e6      224f           movea.l a7, a1
         0x006922e8      45faab47       lea.l 0x68ce31(pc), a2
         0x006922ec      7017           moveq 0x17, d0
     > 0x006922ee      12da           move.b (a2)+, (a1)+
     < 0x006922f0      51c8fffc       dbra d0, 0x6922ee
         0x006922f4      4ebac8fe       jsr BOOTCOM.my_box_error(pc)
         0x006922f8      defc0102       adda.w 0x102, a7
      > 0x006922fc      554f           subq.w 0x2, a7
          0x006922fe      2f2e000c       move.l 0xc(a6), -(a7)
          0x00692302      2f2e0010       move.l 0x10(a6), -(a7)
          0x00692306      4eb9006090d2   jsr F10_FILELIST.f_make_unboot
          0x0069230c      504f           addq.w 0x8, a7
          0x0069230e      4a1f           tst.b (a7)+
      < 0x00692310      6650           bne.b 0x692362
         0x00692312      9ec2           suba.w d2, a7
         0x00692314      4eb900408ec0   jsr p_err_string
         0x0069231a      487aab2e       pea.l 0x68ce4a(pc)
         0x0069231e      48780021       pea.l 0x21
         0x00692322      2f17           move.l (a7), -(a7)
         0x00692324      4e93           jsr (a3)                    ; fcn.0000000c
         0x00692326      dec1           adda.w d1, a7
         0x00692328      486f0001       pea.l 0x1(a7)
         0x0069232c      42a7           clr.l -(a7)
         0x0069232e      1f6f00080003   move.b 0x8(a7), 0x3(a7)
         0x00692334      2f17           move.l (a7), -(a7)
         0x00692336      4e93           jsr (a3)                    ; fcn.0000000c
         0x00692338      defc010c       adda.w 0x10c, a7
         0x0069233c      4eb900404946   jsr p_wtln_o
         0x00692342      4eb900404188   jsr p_Unlink
         0x00692348      3f14           move.w (a4), -(a7)
         0x0069234a      9ec2           suba.w d2, a7
         0x0069234c      224f           movea.l a7, a1
         0x0069234e      45faab1b       lea.l 0x68ce6b(pc), a2
         0x00692352      7019           moveq 0x19, d0
     > 0x00692354      12da           move.b (a2)+, (a1)+
     < 0x00692356      51c8fffc       dbra d0, 0x692354
      > 0x0069235a      4ebac898       jsr BOOTCOM.my_box_error(pc)
          0x0069235e      defc0102       adda.w 0x102, a7
       > 0x00692362      4cdf1f07       movem.l (a7)+, d0-d2/a0-a4
           0x00692366      4e5e           unlk a6
           0x00692368      4e75           rts
            ; CALL XREF from BOOTCOM.boot_files @ 0x694792
 194: BOOTCOM.reboot ();
           0x0069236a      4e56feea       link.w a6, 0xfeea
           0x0069236e      bfd5           cmpa.l (a5), a7
       < 0x00692370      6206           bhi.b 0x692378
          0x00692372      44fc0002       move.w 0x2, ccr
          0x00692376      4e76           trapv
       > 0x00692378      defc0112       adda.w 0x112, a7
           0x0069237c      48e780c0       movem.l d0/a0-a1, -(a7)
           0x00692380      554f           subq.w 0x2, a7
           0x00692382      206e0008       movea.l 0x8(a6), a0
           0x00692386      9efc000a       suba.w 0xa, a7
           0x0069238a      224f           movea.l a7, a1
           0x0069238c      7009           moveq 0x9, d0
       > 0x0069238e      12d8           move.b (a0)+, (a1)+
       < 0x00692390      51c8fffc       dbra d0, 0x69238e
           0x00692394      2f3a9992       move.l 0x68bd28(pc), -(a7)
           0x00692398      2f3a998a       move.l 0x68bd24(pc), -(a7)
           0x0069239c      3f3a9984       move.w 0x68bd22(pc), -(a7)
           0x006923a0      4eb9005ef3d2   jsr F2_UTILITY.f_fids_eq
           0x006923a6      defc0014       adda.w 0x14, a7
           0x006923aa      4a1f           tst.b (a7)+
       < 0x006923ac      6720           beq.b 0x6923ce
          0x006923ae      3f2e0010       move.w 0x10(a6), -(a7)
          0x006923b2      9efc0100       suba.w 0x100, a7
          0x006923b6      204f           movea.l a7, a0
          0x006923b8      43faaacb       lea.l 0x68ce85(pc), a1
          0x006923bc      701b           moveq 0x1b, d0
      > 0x006923be      10d9           move.b (a1)+, (a0)+
      < 0x006923c0      51c8fffc       dbra d0, 0x6923be
          0x006923c4      4ebac82e       jsr BOOTCOM.my_box_error(pc)
          0x006923c8      defc0102       adda.w 0x102, a7
      < 0x006923cc      6056           bra.b 0x692424
      > 0x006923ce      202e000c       move.l 0xc(a6), d0
          0x006923d2      0480ffff8000   subi.l 0xffff8000, d0
          0x006923d8      0c800000ffff   cmpi.l 0xffff, d0
      < 0x006923de      6302           bls.b 0x6923e2
         0x006923e0      4e4f           trap 0xf
      > 0x006923e2      0680ffff8000   addi.l 0xffff8000, d0
          0x006923e8      3d40fffc       move.w d0, -0x4(a6)
          0x006923ec      554f           subq.w 0x2, a7
          0x006923ee      486efffc       pea.l -0x4(a6)
          0x006923f2      4eb900475498   jsr CONFIG.put_temp_boot_c
          0x006923f8      584f           addq.w 0x4, a7
          0x006923fa      3d5ffffe       move.w (a7)+, -0x2(a6)
          0x006923fe      1f3c0001       move.b 0x1, -(a7)
          0x00692402      4eb900475506   jsr CONFIG.cfg_set_autosta
          0x00692408      48780013       pea.l 0x13
          0x0069240c      4eb900474af8   jsr CONFIG.cfg_option
          0x00692412      584f           addq.w 0x4, a7
          0x00692414      4a1f           tst.b (a7)+
      < 0x00692416      6706           beq.b 0x69241e
         0x00692418      4eb9006d196e   jsr bridge_reboot
      > 0x0069241e      4eb9006d1956   jsr sys_reboot
      > 0x00692424      4cdf0301       movem.l (a7)+, d0/a0-a1
           0x00692428      4e5e           unlk a6
           0x0069242a      4e75           rts
            ; CALL XREF from BOOTCOM.boot_files @ 0x694836
 1344: BOOTCOM.unboot ();
           ; var int32_t var_6748h @ a6-0x6748
           ; var int32_t var_6746h @ a6-0x6746
           ; var int32_t var_6744h @ a6-0x6744
           ; var int32_t var_8h @ a7+0x8
           0x0069242c      4e56fc3e       link.w a6, 0xfc3e
           0x00692430      bfd5           cmpa.l (a5), a7
       < 0x00692432      6206           bhi.b 0x69243a
          0x00692434      44fc0002       move.w 0x2, ccr
          0x00692438      4e76           trapv
       > 0x0069243a      defc0256       adda.w 0x256, a7
           0x0069243e      48e7fff8       movem.l d0-d7/a0-a4, -(a7)
           0x00692442      45eeffa8       lea.l -0x58(a6), a2
           0x00692446      47ee001a       lea.l 0x1a(a6), a3
           0x0069244a      49eefe94       lea.l -0x16c(a6), a4
           0x0069244e      720c           moveq 0xc, d1
           0x00692450      343c0100       move.w 0x100, d2
           0x00692454      3a3c0102       move.w 0x102, d5
           0x00692458      7c01           moveq 0x1, d6
           0x0069245a      2d46fe98       move.l d6, -0x168(a6)
           0x0069245e      28bcffff0001   move.l 0xffff0001, (a4)
           0x00692464      2d7a98bcfff2   move.l 0x68bd22(pc), -0xe(a6)
           0x0069246a      2d7a98bafff6   move.l 0x68bd26(pc), -0xa(a6)
           0x00692470      3d7a98b8fffa   move.w 0x68bd2a(pc), -0x6(a6)
           0x00692476      554f           subq.w 0x2, a7
           0x00692478      4852           pea.l (a2)
           0x0069247a      4eb900404434   jsr fcn.00404434
           0x00692480      584f           addq.w 0x4, a7
           0x00692482      4a1f           tst.b (a7)+
       < 0x00692484      67000470       beq.w 0x6928f6
          0x00692488      554f           subq.w 0x2, a7
          0x0069248a      2f2e000e       move.l 0xe(a6), -(a7)
          0x0069248e      2f2e000a       move.l 0xa(a6), -(a7)
          0x00692492      3f2e0008       move.w 0x8(a6), -(a7)
          0x00692496      2f3a9890       move.l 0x68bd28(pc), -(a7)
          0x0069249a      2f3a9888       move.l 0x68bd24(pc), -(a7)
          0x0069249e      3f3a9882       move.w 0x68bd22(pc), -(a7)
          0x006924a2      4eb9005ef3d2   jsr F2_UTILITY.f_fids_eq
          0x006924a8      defc0014       adda.w 0x14, a7
          0x006924ac      4a1f           tst.b (a7)+
      < 0x006924ae      6622           bne.b 0x6924d2
         0x006924b0      3f13           move.w (a3), -(a7)
         0x006924b2      9ec2           suba.w d2, a7
         0x006924b4      204f           movea.l a7, a0
         0x006924b6      43faa9e9       lea.l 0x68cea1(pc), a1
         0x006924ba      701a           moveq 0x1a, d0
     > 0x006924bc      10d9           move.b (a1)+, (a0)+
     < 0x006924be      51c8fffc       dbra d0, 0x6924bc
         0x006924c2      4ebac730       jsr BOOTCOM.my_box_error(pc)
         0x006924c6      dec5           adda.w d5, a7
         0x006924c8      4852           pea.l (a2)
         0x006924ca      4eb900404468   jsr fcn.00404468
         0x006924d0      584f           addq.w 0x4, a7
      > 0x006924d2      9ec2           suba.w d2, a7
          0x006924d4      3f3c0003       move.w 0x3, -(a7)
          0x006924d8      4eb900409350   jsr p_buildstr
          0x006924de      544f           addq.w 0x2, a7
          0x006924e0      41eefea0       lea.l -0x160(a6), a0
          0x006924e4      703f           moveq 0x3f, d0
      > 0x006924e6      20df           move.l (a7)+, (a0)+
      < 0x006924e8      51c8fffc       dbra d0, 0x6924e6
          0x006924ec      2e3900400024   move.l 0x400024, d7
          0x006924f2      9eb900400020   sub.l 0x400020, d7
          0x006924f8      0687000003ff   addi.l 0x3ff, d7
          0x006924fe      2807           move.l d7, d4
          0x00692500      263c00000400   move.l 0x400, d3
          0x00692506      4eb900406b50   jsr fcn.00406b50
          0x0069250c      2e04           move.l d4, d7
          0x0069250e      487aa9ad       pea.l 0x68cebd(pc)
          0x00692512      4878000e       pea.l 0xe
          0x00692516      2f17           move.l (a7), -(a7)
          0x00692518      4eb9004047ea   jsr p_wts_o
          0x0069251e      504f           addq.w 0x8, a7
          0x00692520      2eae0012       move.l 0x12(a6), (a7)
          0x00692524      48780000       pea.l 0x0
          0x00692528      4eb9004070e4   jsr p_wti_o
          0x0069252e      504f           addq.w 0x8, a7
          0x00692530      487aa99a       pea.l 0x68cecc(pc)
          0x00692534      48780002       pea.l 0x2
          0x00692538      2f17           move.l (a7), -(a7)
          0x0069253a      4eb9004047ea   jsr p_wts_o
          0x00692540      dec1           adda.w d1, a7
          0x00692542      486efea1       pea.l -0x15f(a6)
          0x00692546      42a7           clr.l -(a7)
          0x00692548      1f6efea00003   move.b -0x160(a6), 0x3(a7)
          0x0069254e      2f17           move.l (a7), -(a7)
          0x00692550      4eb9004047ea   jsr p_wts_o
          0x00692556      dec1           adda.w d1, a7
          0x00692558      487aa975       pea.l 0x68cecf(pc)
          0x0069255c      48780002       pea.l 0x2
          0x00692560      2f17           move.l (a7), -(a7)
          0x00692562      4eb9004047ea   jsr p_wts_o
          0x00692568      504f           addq.w 0x8, a7
          0x0069256a      2e87           move.l d7, (a7)
          0x0069256c      48780000       pea.l 0x0
          0x00692570      4eb9004070e4   jsr p_wti_o
          0x00692576      504f           addq.w 0x8, a7
          0x00692578      487aa958       pea.l 0x68ced2(pc)
          0x0069257c      48780008       pea.l 0x8
          0x00692580      2f17           move.l (a7), -(a7)
          0x00692582      4eb9004047ea   jsr p_wts_o
          0x00692588      dec1           adda.w d1, a7
          0x0069258a      4eb900404946   jsr p_wtln_o
          0x00692590      203900400020   move.l 0x400020, d0
          0x00692596      08000000       btst.b 0x0, d0
      < 0x0069259a      6718           beq.b 0x6925b4
         0x0069259c      487aa93d       pea.l 0x68cedb(pc)
         0x006925a0      48780027       pea.l 0x27
         0x006925a4      2f17           move.l (a7), -(a7)
         0x006925a6      4eb9004047ea   jsr p_wts_o
         0x006925ac      dec1           adda.w d1, a7
         0x006925ae      4eb900404946   jsr p_wtln_o
      > 0x006925b4      203900400024   move.l 0x400024, d0
          0x006925ba      08000000       btst.b 0x0, d0
      < 0x006925be      6718           beq.b 0x6925d8
         0x006925c0      487aa941       pea.l 0x68cf03(pc)
         0x006925c4      48780025       pea.l 0x25
         0x006925c8      2f17           move.l (a7), -(a7)
         0x006925ca      4eb9004047ea   jsr p_wts_o
         0x006925d0      dec1           adda.w d1, a7
         0x006925d2      4eb900404946   jsr p_wtln_o
      > 0x006925d8      203900400024   move.l 0x400024, d0
          0x006925de      90b900400020   sub.l 0x400020, d0
          0x006925e4      5280           addq.l 0x1, d0
          0x006925e6      2800           move.l d0, d4
          0x006925e8      7602           moveq 0x2, d3
          0x006925ea      4eb900406b50   jsr fcn.00406b50
          0x006925f0      2d44ffa4       move.l d4, -0x5c(a6)
          0x006925f4      594f           subq.w 0x4, a7
          0x006925f6      2f3900400020   move.l 0x400020, -(a7)
          0x006925fc      2f04           move.l d4, -(a7)
          0x006925fe      4ebac962       jsr BOOTCOM.get_checksum(pc)
          0x00692602      504f           addq.w 0x8, a7
          0x00692604      2d5fffa0       move.l (a7)+, -0x60(a6)
          0x00692608      487aa91f       pea.l 0x68cf29(pc)
          0x0069260c      48780010       pea.l 0x10
          0x00692610      2f17           move.l (a7), -(a7)
          0x00692612      4eb9004047ea   jsr p_wts_o
          0x00692618      504f           addq.w 0x8, a7
          0x0069261a      2eaeffa0       move.l -0x60(a6), (a7)
          0x0069261e      4878ffff       pea.l 0xffff
          0x00692622      4eb9004070e4   jsr p_wti_o
          0x00692628      504f           addq.w 0x8, a7
          0x0069262a      487aa90e       pea.l 0x68cf3a(pc)
          0x0069262e      48780009       pea.l 0x9
          0x00692632      2f17           move.l (a7), -(a7)
          0x00692634      4eb9004047ea   jsr p_wts_o
          0x0069263a      504f           addq.w 0x8, a7
          0x0069263c      2eaeffa4       move.l -0x5c(a6), (a7)
          0x00692640      4878ffff       pea.l 0xffff
          0x00692644      4eb9004070e4   jsr p_wti_o
          0x0069264a      504f           addq.w 0x8, a7
          0x0069264c      4eb900404946   jsr p_wtln_o
          0x00692652      554f           subq.w 0x2, a7
          0x00692654      2f2e0016       move.l 0x16(a6), -(a7)
          0x00692658      3f3c0020       move.w 0x20, -(a7)
          0x0069265c      2f07           move.l d7, -(a7)
          0x0069265e      4497           neg.l (a7)
          0x00692660      486efff2       pea.l -0xe(a6)
          0x00692664      4854           pea.l (a4)
          0x00692666      4eb900607936   jsr F10_FILELIST.f_create
          0x0069266c      defc0012       adda.w 0x12, a7
          0x00692670      4a1f           tst.b (a7)+
      < 0x00692672      6660           bne.b 0x6926d4
         0x00692674      9ec2           suba.w d2, a7
         0x00692676      4eb900408ec0   jsr p_err_string
         0x0069267c      487aa8c6       pea.l 0x68cf44(pc)
         0x00692680      48780016       pea.l 0x16
         0x00692684      2f17           move.l (a7), -(a7)
         0x00692686      4eb9004047ea   jsr p_wts_o
         0x0069268c      dec1           adda.w d1, a7
         0x0069268e      486f0001       pea.l 0x1(a7)
         0x00692692      42a7           clr.l -(a7)
         0x00692694      1f6f00080003   move.b 0x8(a7), 0x3(a7)
         0x0069269a      2f17           move.l (a7), -(a7)
         0x0069269c      4eb9004047ea   jsr p_wts_o
         0x006926a2      defc010c       adda.w 0x10c, a7
         0x006926a6      4eb900404946   jsr p_wtln_o
         0x006926ac      4eb900404188   jsr p_Unlink
         0x006926b2      3f13           move.w (a3), -(a7)
         0x006926b4      9ec2           suba.w d2, a7
         0x006926b6      204f           movea.l a7, a0
         0x006926b8      43faa8a0       lea.l 0x68cf5a(pc), a1
         0x006926bc      7007           moveq 0x7, d0
     > 0x006926be      20d9           move.l (a1)+, (a0)+
     < 0x006926c0      51c8fffc       dbra d0, 0x6926be
         0x006926c4      4ebac52e       jsr BOOTCOM.my_box_error(pc)
         0x006926c8      dec5           adda.w d5, a7
         0x006926ca      4852           pea.l (a2)
         0x006926cc      4eb900404468   jsr fcn.00404468
         0x006926d2      584f           addq.w 0x4, a7
      > 0x006926d4      554f           subq.w 0x2, a7
          0x006926d6      2f2efff8       move.l -0x8(a6), -(a7)
          0x006926da      2f2efff4       move.l -0xc(a6), -(a7)
          0x006926de      3f2efff2       move.w -0xe(a6), -(a7)
          0x006926e2      1f06           move.b d6, -(a7)
          0x006926e4      486efe98       pea.l -0x168(a6)
          0x006926e8      4eb90060477a   jsr F9_FILERDWRT.f_op_block
          0x006926ee      defc0010       adda.w 0x10, a7
          0x006926f2      4a1f           tst.b (a7)+
      < 0x006926f4      6660           bne.b 0x692756
         0x006926f6      9ec2           suba.w d2, a7
         0x006926f8      4eb900408ec0   jsr p_err_string
         0x006926fe      487aa87b       pea.l 0x68cf7b(pc)
         0x00692702      48780014       pea.l 0x14
         0x00692706      2f17           move.l (a7), -(a7)
         0x00692708      4eb9004047ea   jsr p_wts_o
         0x0069270e      dec1           adda.w d1, a7
         0x00692710      486f0001       pea.l 0x1(a7)
         0x00692714      42a7           clr.l -(a7)
         0x00692716      1f6f00080003   move.b 0x8(a7), 0x3(a7)
         0x0069271c      2f17           move.l (a7), -(a7)
         0x0069271e      4eb9004047ea   jsr p_wts_o
         0x00692724      defc010c       adda.w 0x10c, a7
         0x00692728      4eb900404946   jsr p_wtln_o
         0x0069272e      4eb900404188   jsr p_Unlink
         0x00692734      3f13           move.w (a3), -(a7)
         0x00692736      9ec2           suba.w d2, a7
         0x00692738      204f           movea.l a7, a0
         0x0069273a      43faa853       lea.l 0x68cf8f(pc), a1
         0x0069273e      7015           moveq 0x15, d0
     > 0x00692740      10d9           move.b (a1)+, (a0)+
     < 0x00692742      51c8fffc       dbra d0, 0x692740
         0x00692746      4ebac4ac       jsr BOOTCOM.my_box_error(pc)
         0x0069274a      dec5           adda.w d5, a7
         0x0069274c      4852           pea.l (a2)
         0x0069274e      4eb900404468   jsr fcn.00404468
         0x00692754      584f           addq.w 0x4, a7
      > 0x00692756      554f           subq.w 0x2, a7
          0x00692758      2f2efe98       move.l -0x168(a6), -(a7)
          0x0069275c      2f07           move.l d7, -(a7)
          0x0069275e      4ebaf9f2       jsr BOOTCOM.unboot_image(pc)
          0x00692762      504f           addq.w 0x8, a7
          0x00692764      4a1f           tst.b (a7)+
      < 0x00692766      663a           bne.b 0x6927a2
         0x00692768      487aa83c       pea.l 0x68cfa6(pc)
         0x0069276c      48780015       pea.l 0x15
         0x00692770      2f17           move.l (a7), -(a7)
         0x00692772      4eb9004047ea   jsr p_wts_o
         0x00692778      dec1           adda.w d1, a7
         0x0069277a      4eb900404946   jsr p_wtln_o
         0x00692780      3f13           move.w (a3), -(a7)
         0x00692782      9ec2           suba.w d2, a7
         0x00692784      204f           movea.l a7, a0
         0x00692786      43faa833       lea.l 0x68cfbb(pc), a1
         0x0069278a      7012           moveq 0x12, d0
     > 0x0069278c      10d9           move.b (a1)+, (a0)+
     < 0x0069278e      51c8fffc       dbra d0, 0x69278c
         0x00692792      4ebac460       jsr BOOTCOM.my_box_error(pc)
         0x00692796      dec5           adda.w d5, a7
         0x00692798      4852           pea.l (a2)
         0x0069279a      4eb900404468   jsr fcn.00404468
         0x006927a0      584f           addq.w 0x4, a7
      > 0x006927a2      487aa82b       pea.l 0x68cfcf(pc)
          0x006927a6      4878000b       pea.l 0xb
          0x006927aa      2f17           move.l (a7), -(a7)
          0x006927ac      4eb9004047ea   jsr p_wts_o
          0x006927b2      504f           addq.w 0x8, a7
          0x006927b4      2eaeffa0       move.l -0x60(a6), (a7)
          0x006927b8      4878ffff       pea.l 0xffff
          0x006927bc      4eb9004070e4   jsr p_wti_o
          0x006927c2      504f           addq.w 0x8, a7
          0x006927c4      487aa815       pea.l 0x68cfdb(pc)
          0x006927c8      48780006       pea.l 0x6
          0x006927cc      2f17           move.l (a7), -(a7)
          0x006927ce      4eb9004047ea   jsr p_wts_o
          0x006927d4      504f           addq.w 0x8, a7
          0x006927d6      2eaeffa4       move.l -0x5c(a6), (a7)
          0x006927da      4878ffff       pea.l 0xffff
          0x006927de      4eb9004070e4   jsr p_wti_o
          0x006927e4      504f           addq.w 0x8, a7
          0x006927e6      4eb900404946   jsr p_wtln_o
          0x006927ec      554f           subq.w 0x2, a7
          0x006927ee      3f3c0036       move.w 0x36, -(a7)
          0x006927f2      2f14           move.l (a4), -(a7)
          0x006927f4      41eeffa0       lea.l -0x60(a6), a0
          0x006927f8      2f08           move.l a0, -(a7)
          0x006927fa      3f3c0008       move.w 0x8, -(a7)
          0x006927fe      4eb9005eed96   jsr f_put_field
          0x00692804      dec1           adda.w d1, a7
          0x00692806      4a1f           tst.b (a7)+
      < 0x00692808      663e           bne.b 0x692848
         0x0069280a      487aa7d6       pea.l 0x68cfe2(pc)
         0x0069280e      48780016       pea.l 0x16
         0x00692812      2f17           move.l (a7), -(a7)
         0x00692814      4eb9004047ea   jsr p_wts_o
         0x0069281a      dec1           adda.w d1, a7
         0x0069281c      4eb900404946   jsr p_wtln_o
         0x00692822      3f13           move.w (a3), -(a7)
         0x00692824      9efc00fc       suba.w 0xfc, a7
         0x00692828      2f3aa7ce       move.l 0x68cff8(pc), -(a7)
         0x0069282c      3f7aa7ce0004   move.w 0x68cffc(pc), 0x4(a7)
         0x00692832      1f7aa7ca0006   move.b 0x68cffe(pc), 0x6(a7)
         0x00692838      4ebac3ba       jsr BOOTCOM.my_box_error(pc)
         0x0069283c      dec5           adda.w d5, a7
         0x0069283e      4852           pea.l (a2)
         0x00692840      4eb900404468   jsr fcn.00404468
         0x00692846      584f           addq.w 0x4, a7
      > 0x00692848      1d46fffe       move.b d6, -0x2(a6)
          0x0069284c      554f           subq.w 0x2, a7
          0x0069284e      4eb9004755c2   jsr CONFIG.cfg_gender
          0x00692854      101f           move.b (a7)+, d0
          0x00692856      4880           ext.w d0
          0x00692858      48c0           ext.l d0
          0x0069285a      0c800000ffff   cmpi.l 0xffff, d0
      < 0x00692860      6302           bls.b 0x692864
         0x00692862      4e4f           trap 0xf
      > 0x00692864      3e00           move.w d0, d7
          0x00692866      554f           subq.w 0x2, a7
          0x00692868      2f14           move.l (a4), -(a7)
          0x0069286a      2f2efff8       move.l -0x8(a6), -(a7)
          0x0069286e      2f2efff4       move.l -0xc(a6), -(a7)
          0x00692872      3f2efff2       move.w -0xe(a6), -(a7)
          0x00692876      2f3c00400020   move.l 0x400020, -(a7)
          0x0069287c      9ec2           suba.w d2, a7
          0x0069287e      204f           movea.l a7, a0
          0x00692880      43eefea0       lea.l -0x160(a6), a1
          0x00692884      703f           moveq 0x3f, d0
      > 0x00692886      20d9           move.l (a1)+, (a0)+
      < 0x00692888      51c8fffc       dbra d0, 0x692886
          0x0069288c      9ec2           suba.w d2, a7
          0x0069288e      204f           movea.l a7, a0
          0x00692890      43faa76d       lea.l 0x68cfff(pc), a1
          0x00692894      7006           moveq 0x6, d0
      > 0x00692896      10d9           move.b (a1)+, (a0)+
      < 0x00692898      51c8fffc       dbra d0, 0x692896
          0x0069289c      102efffe       move.b -0x2(a6), d0
          0x006928a0      4880           ext.w d0
          0x006928a2      4186           chk.w d6, d0
          0x006928a4      1f00           move.b d0, -(a7)
          0x006928a6      3f07           move.w d7, -(a7)
          0x006928a8      2f2e0012       move.l 0x12(a6), -(a7)
          0x006928ac      3f13           move.w (a3), -(a7)
          0x006928ae      4ebad762       jsr BOOTCOM.set_headers(pc)
          0x006928b2      defc021c       adda.w 0x21c, a7
          0x006928b6      4a1f           tst.b (a7)+
      < 0x006928b8      6622           bne.b 0x6928dc
         0x006928ba      487aa74b       pea.l 0x68d007(pc)
         0x006928be      48780012       pea.l 0x12
         0x006928c2      2f17           move.l (a7), -(a7)
         0x006928c4      4eb9004047ea   jsr p_wts_o
         0x006928ca      dec1           adda.w d1, a7
         0x006928cc      4eb900404946   jsr p_wtln_o
         0x006928d2      4852           pea.l (a2)
         0x006928d4      4eb900404468   jsr fcn.00404468
         0x006928da      584f           addq.w 0x4, a7
      > 0x006928dc      487aa73c       pea.l 0x68d01a(pc)
          0x006928e0      4878001a       pea.l 0x1a
          0x006928e4      2f17           move.l (a7), -(a7)
          0x006928e6      4eb9004047ea   jsr p_wts_o
          0x006928ec      dec1           adda.w d1, a7
          0x006928ee      4eb900404946   jsr p_wtln_o
      < 0x006928f4      6058           bra.b 0x69294e
      > 0x006928f6      486efe98       pea.l -0x168(a6)
          0x006928fa      4eb90060470a   jsr F9_FILERDWRT.f_close
          0x00692900      584f           addq.w 0x4, a7
          0x00692902      4854           pea.l (a4)
          0x00692904      4eb90060500e   jsr F9_FILERDWRT.f_free_block
          0x0069290a      2eaefff8       move.l -0x8(a6), (a7)
          0x0069290e      2f2efff4       move.l -0xc(a6), -(a7)
          0x00692912      3f2efff2       move.w -0xe(a6), -(a7)
          0x00692916      4ebadcae       jsr BOOTCOM.delete_if_not_n(pc)
          0x0069291a      defc000a       adda.w 0xa, a7
          0x0069291e      487aa715       pea.l 0x68d035(pc)
          0x00692922      48780014       pea.l 0x14
          0x00692926      2f17           move.l (a7), -(a7)
          0x00692928      4eb9004047ea   jsr p_wts_o
          0x0069292e      dec1           adda.w d1, a7
          0x00692930      4eb900404946   jsr p_wtln_o
          0x00692936      3f13           move.w (a3), -(a7)
          0x00692938      9ec2           suba.w d2, a7
          0x0069293a      204f           movea.l a7, a0
          0x0069293c      43faa70b       lea.l 0x68d049(pc), a1
          0x00692940      700d           moveq 0xd, d0
      > 0x00692942      10d9           move.b (a1)+, (a0)+
      < 0x00692944      51c8fffc       dbra d0, 0x692942
          0x00692948      4ebac2aa       jsr BOOTCOM.my_box_error(pc)
          0x0069294c      dec5           adda.w d5, a7
      > 0x0069294e      486efe98       pea.l -0x168(a6)
           0x00692952      4eb90060470a   jsr F9_FILERDWRT.f_close
           0x00692958      584f           addq.w 0x4, a7
           0x0069295a      4854           pea.l (a4)
           0x0069295c      4eb90060500e   jsr F9_FILERDWRT.f_free_block
           0x00692962      584f           addq.w 0x4, a7
           0x00692964      4cdf1fff       movem.l (a7)+, d0-d7/a0-a4
           0x00692968      4e5e           unlk a6
           0x0069296a      4e75           rts
            ; CALL XREF from BOOTCOM.boot_files @ 0x693de0
            ; CALL XREF from BOOTCOM.sw_install @ 0x694bc8
 786: BOOTCOM.copy_boot ();
           ; var int32_t var_8h @ a7+0x8
           0x0069296c      4e56fd5e       link.w a6, 0xfd5e
           0x00692970      bfd5           cmpa.l (a5), a7
       < 0x00692972      6206           bhi.b 0x69297a
          0x00692974      44fc0002       move.w 0x2, ccr
          0x00692978      4e76           trapv
       > 0x0069297a      defc0150       adda.w 0x150, a7
           0x0069297e      48e7fff8       movem.l d0-d7/a0-a4, -(a7)
           0x00692982      49f9004047ea   lea.l p_wts_o, a4
           0x00692988      740c           moveq 0xc, d2
           0x0069298a      363c0100       move.w 0x100, d3
           0x0069298e      383c0102       move.w 0x102, d4
           0x00692992      7a12           moveq 0x12, d5
           0x00692994      2e2e0018       move.l 0x18(a6), d7
           0x00692998      2c2e0014       move.l 0x14(a6), d6
           0x0069299c      487aa6ba       pea.l 0x68d058(pc)
           0x006929a0      48780012       pea.l 0x12
           0x006929a4      2f17           move.l (a7), -(a7)
           0x006929a6      4e94           jsr (a4)                    ; fcn.0000000d
           0x006929a8      504f           addq.w 0x8, a7
           0x006929aa      2e87           move.l d7, (a7)
           0x006929ac      48780000       pea.l 0x0
           0x006929b0      4eb9004070e4   jsr p_wti_o
           0x006929b6      504f           addq.w 0x8, a7
           0x006929b8      487aa6b1       pea.l 0x68d06b(pc)
           0x006929bc      4878000e       pea.l 0xe
           0x006929c0      2f17           move.l (a7), -(a7)
           0x006929c2      4e94           jsr (a4)                    ; fcn.0000000d
           0x006929c4      504f           addq.w 0x8, a7
           0x006929c6      2e86           move.l d6, (a7)
           0x006929c8      48780000       pea.l 0x0
           0x006929cc      4eb9004070e4   jsr p_wti_o
           0x006929d2      504f           addq.w 0x8, a7
           0x006929d4      4eb900404946   jsr p_wtln_o
           0x006929da      554f           subq.w 0x2, a7
           0x006929dc      486effb6       pea.l -0x4a(a6)
           0x006929e0      4eb900404434   jsr fcn.00404434
           0x006929e6      584f           addq.w 0x4, a7
           0x006929e8      4a1f           tst.b (a7)+
       < 0x006929ea      6700025c       beq.w 0x692c48
          0x006929ee      206e000c       movea.l 0xc(a6), a0
          0x006929f2      9ec2           suba.w d2, a7
          0x006929f4      224f           movea.l a7, a1
          0x006929f6      2448           movea.l a0, a2
          0x006929f8      7009           moveq 0x9, d0
      > 0x006929fa      12da           move.b (a2)+, (a1)+
      < 0x006929fc      51c8fffc       dbra d0, 0x6929fa
          0x00692a00      2f3a9326       move.l 0x68bd28(pc), -(a7)
          0x00692a04      2f3a931e       move.l 0x68bd24(pc), -(a7)
          0x00692a08      3f3a9318       move.w 0x68bd22(pc), -(a7)
          0x00692a0c      4eb9005ef3d2   jsr F2_UTILITY.f_fids_eq
          0x00692a12      defc0014       adda.w 0x14, a7
          0x00692a16      4a1f           tst.b (a7)+
      < 0x00692a18      6726           beq.b 0x692a40
         0x00692a1a      3f2e001e       move.w 0x1e(a6), -(a7)
         0x00692a1e      9ec3           suba.w d3, a7
         0x00692a20      224f           movea.l a7, a1
         0x00692a22      45faa655       lea.l 0x68d079(pc), a2
         0x00692a26      701b           moveq 0x1b, d0
     > 0x00692a28      12da           move.b (a2)+, (a1)+
     < 0x00692a2a      51c8fffc       dbra d0, 0x692a28
         0x00692a2e      4ebac1c4       jsr BOOTCOM.my_box_error(pc)
         0x00692a32      dec4           adda.w d4, a7
         0x00692a34      486effb6       pea.l -0x4a(a6)
         0x00692a38      4eb900404468   jsr fcn.00404468
         0x00692a3e      584f           addq.w 0x4, a7
      > 0x00692a40      226e0008       movea.l 0x8(a6), a1
          0x00692a44      9ec2           suba.w d2, a7
          0x00692a46      244f           movea.l a7, a2
          0x00692a48      2649           movea.l a1, a3
          0x00692a4a      7009           moveq 0x9, d0
      > 0x00692a4c      14db           move.b (a3)+, (a2)+
      < 0x00692a4e      51c8fffc       dbra d0, 0x692a4c
          0x00692a52      2f3a92d4       move.l 0x68bd28(pc), -(a7)
          0x00692a56      2f3a92cc       move.l 0x68bd24(pc), -(a7)
          0x00692a5a      3f3a92c6       move.w 0x68bd22(pc), -(a7)
          0x00692a5e      4eb9005ef3d2   jsr F2_UTILITY.f_fids_eq
          0x00692a64      defc0014       adda.w 0x14, a7
          0x00692a68      4a1f           tst.b (a7)+
      < 0x00692a6a      6626           bne.b 0x692a92
         0x00692a6c      3f2e001c       move.w 0x1c(a6), -(a7)
         0x00692a70      9ec3           suba.w d3, a7
         0x00692a72      244f           movea.l a7, a2
         0x00692a74      47faa61f       lea.l 0x68d095(pc), a3
         0x00692a78      701a           moveq 0x1a, d0
     > 0x00692a7a      14db           move.b (a3)+, (a2)+
     < 0x00692a7c      51c8fffc       dbra d0, 0x692a7a
         0x00692a80      4ebac172       jsr BOOTCOM.my_box_error(pc)
         0x00692a84      dec4           adda.w d4, a7
         0x00692a86      486effb6       pea.l -0x4a(a6)
         0x00692a8a      4eb900404468   jsr fcn.00404468
         0x00692a90      584f           addq.w 0x4, a7
      > 0x00692a92      2f07           move.l d7, -(a7)
          0x00692a94      48780000       pea.l 0x0
          0x00692a98      486efeb6       pea.l -0x14a(a6)
          0x00692a9c      3f3c00ff       move.w 0xff, -(a7)
          0x00692aa0      4eb900406e56   jsr p_strI1
          0x00692aa6      9efc00f2       suba.w 0xf2, a7
          0x00692aaa      7011           moveq 0x11, d0
          0x00692aac      45ef0001       lea.l 0x1(a7), a2
          0x00692ab0      47faa5ff       lea.l 0x68d0b1(pc), a3
      > 0x00692ab4      14db           move.b (a3)+, (a2)+
      < 0x00692ab6      51c8fffc       dbra d0, 0x692ab4
          0x00692aba      4240           clr.w d0
          0x00692abc      102efeb6       move.b -0x14a(a6), d0
          0x00692ac0      d005           add.b d5, d0
      < 0x00692ac2      6406           bcc.b 0x692aca
         0x00692ac4      4eb900406c8a   jsr p_strovr
      > 0x00692aca      4240           clr.w d0
          0x00692acc      102efeb6       move.b -0x14a(a6), d0
          0x00692ad0      323c00ff       move.w 0xff, d1
          0x00692ad4      9245           sub.w d5, d1
          0x00692ad6      b041           cmp.w d1, d0
      < 0x00692ad8      6302           bls.b 0x692adc
         0x00692ada      3001           move.w d1, d0
      > 0x00692adc      1e85           move.b d5, (a7)
          0x00692ade      d117           add.b d0, (a7)
          0x00692ae0      5300           subq.b 0x1, d0
      < 0x00692ae2      650a           bcs.b 0x692aee
         0x00692ae4      47eefeb7       lea.l -0x149(a6), a3
     > 0x00692ae8      14db           move.b (a3)+, (a2)+
     < 0x00692aea      51c8fffc       dbra d0, 0x692ae8
      > 0x00692aee      45eefeb6       lea.l -0x14a(a6), a2
          0x00692af2      703f           moveq 0x3f, d0
      > 0x00692af4      24df           move.l (a7)+, (a2)+
      < 0x00692af6      51c8fffc       dbra d0, 0x692af4
          0x00692afa      3f2e001c       move.w 0x1c(a6), -(a7)
          0x00692afe      9ec3           suba.w d3, a7
          0x00692b00      244f           movea.l a7, a2
          0x00692b02      47eefeb6       lea.l -0x14a(a6), a3
          0x00692b06      703f           moveq 0x3f, d0
      > 0x00692b08      24db           move.l (a3)+, (a2)+
      < 0x00692b0a      51c8fffc       dbra d0, 0x692b08
          0x00692b0e      4ebac154       jsr BOOTCOM.my_text_all(pc)
          0x00692b12      dec4           adda.w d4, a7
          0x00692b14      22ae0010       move.l 0x10(a6), (a1)
          0x00692b18      9ec2           suba.w d2, a7
          0x00692b1a      244f           movea.l a7, a2
          0x00692b1c      7009           moveq 0x9, d0
      > 0x00692b1e      14d8           move.b (a0)+, (a2)+
      < 0x00692b20      51c8fffc       dbra d0, 0x692b1e
          0x00692b24      4851           pea.l (a1)
          0x00692b26      4eb900608292   jsr F10_FILELIST.f_duplicate
          0x00692b2c      defc000e       adda.w 0xe, a7
          0x00692b30      4a1f           tst.b (a7)+
      < 0x00692b32      666c           bne.b 0x692ba0
         0x00692b34      9ec3           suba.w d3, a7
         0x00692b36      4eb900408ec0   jsr p_err_string
         0x00692b3c      487aa586       pea.l 0x68d0c4(pc)
         0x00692b40      48780014       pea.l 0x14
         0x00692b44      2f17           move.l (a7), -(a7)
         0x00692b46      4e94           jsr (a4)                    ; fcn.0000000d
         0x00692b48      dec2           adda.w d2, a7
         0x00692b4a      486f0001       pea.l 0x1(a7)
         0x00692b4e      42a7           clr.l -(a7)
         0x00692b50      1f6f00080003   move.b 0x8(a7), 0x3(a7)
         0x00692b56      2f17           move.l (a7), -(a7)
         0x00692b58      4e94           jsr (a4)                    ; fcn.0000000d
         0x00692b5a      defc010c       adda.w 0x10c, a7
         0x00692b5e      4eb900404946   jsr p_wtln_o
         0x00692b64      4eb900404188   jsr p_Unlink
         0x00692b6a      3f2e001c       move.w 0x1c(a6), -(a7)
         0x00692b6e      9efc00fc       suba.w 0xfc, a7
         0x00692b72      2f3aa564       move.l 0x68d0d8(pc), -(a7)
         0x00692b76      2f7aa5640004   move.l 0x68d0dc(pc), 0x4(a7)
         0x00692b7c      2f7aa5620008   move.l 0x68d0e0(pc), 0x8(a7)
         0x00692b82      2f7aa560000c   move.l 0x68d0e4(pc), 0xc(a7)
         0x00692b88      1f7aa55e0010   move.b 0x68d0e8(pc), 0x10(a7)
         0x00692b8e      4ebac064       jsr BOOTCOM.my_box_error(pc)
         0x00692b92      dec4           adda.w d4, a7
         0x00692b94      486effb6       pea.l -0x4a(a6)
         0x00692b98      4eb900404468   jsr fcn.00404468
         0x00692b9e      584f           addq.w 0x4, a7
      > 0x00692ba0      554f           subq.w 0x2, a7
          0x00692ba2      2f06           move.l d6, -(a7)
          0x00692ba4      9efc000a       suba.w 0xa, a7
          0x00692ba8      204f           movea.l a7, a0
          0x00692baa      7009           moveq 0x9, d0
      > 0x00692bac      10d9           move.b (a1)+, (a0)+
      < 0x00692bae      51c8fffc       dbra d0, 0x692bac
          0x00692bb2      9ec3           suba.w d3, a7
          0x00692bb4      1ebaa533       move.b 0x68d0e9(pc), (a7)
          0x00692bb8      4eb900608dbc   jsr F10_FILELIST.f_make_boot
          0x00692bbe      defc010e       adda.w 0x10e, a7
          0x00692bc2      4a1f           tst.b (a7)+
      < 0x00692bc4      666c           bne.b 0x692c32
         0x00692bc6      9ec3           suba.w d3, a7
         0x00692bc8      4eb900408ec0   jsr p_err_string
         0x00692bce      487aa51b       pea.l 0x68d0eb(pc)
         0x00692bd2      4878001d       pea.l 0x1d
         0x00692bd6      2f17           move.l (a7), -(a7)
         0x00692bd8      4e94           jsr (a4)                    ; fcn.0000000d
         0x00692bda      dec2           adda.w d2, a7
         0x00692bdc      486f0001       pea.l 0x1(a7)
         0x00692be0      42a7           clr.l -(a7)
         0x00692be2      1f6f00080003   move.b 0x8(a7), 0x3(a7)
         0x00692be8      2f17           move.l (a7), -(a7)
         0x00692bea      4e94           jsr (a4)                    ; fcn.0000000d
         0x00692bec      defc010c       adda.w 0x10c, a7
         0x00692bf0      4eb900404946   jsr p_wtln_o
         0x00692bf6      4eb900404188   jsr p_Unlink
         0x00692bfc      3f2e001c       move.w 0x1c(a6), -(a7)
         0x00692c00      9efc00fc       suba.w 0xfc, a7
         0x00692c04      2f3aa502       move.l 0x68d108(pc), -(a7)
         0x00692c08      2f7aa5020004   move.l 0x68d10c(pc), 0x4(a7)
         0x00692c0e      2f7aa5000008   move.l 0x68d110(pc), 0x8(a7)
         0x00692c14      2f7aa4fe000c   move.l 0x68d114(pc), 0xc(a7)
         0x00692c1a      1f7aa4fc0010   move.b 0x68d118(pc), 0x10(a7)
         0x00692c20      4ebabfd2       jsr BOOTCOM.my_box_error(pc)
         0x00692c24      dec4           adda.w d4, a7
         0x00692c26      486effb6       pea.l -0x4a(a6)
         0x00692c2a      4eb900404468   jsr fcn.00404468
         0x00692c30      584f           addq.w 0x4, a7
      > 0x00692c32      487aa4e6       pea.l 0x68d11a(pc)
          0x00692c36      48780018       pea.l 0x18
          0x00692c3a      2f17           move.l (a7), -(a7)
          0x00692c3c      4e94           jsr (a4)                    ; fcn.0000000d
          0x00692c3e      dec2           adda.w d2, a7
          0x00692c40      4eb900404946   jsr p_wtln_o
      < 0x00692c46      602e           bra.b 0x692c76
      > 0x00692c48      487aa4e9       pea.l 0x68d133(pc)
          0x00692c4c      48780012       pea.l 0x12
          0x00692c50      2f17           move.l (a7), -(a7)
          0x00692c52      4e94           jsr (a4)                    ; fcn.0000000d
          0x00692c54      dec2           adda.w d2, a7
          0x00692c56      4eb900404946   jsr p_wtln_o
          0x00692c5c      3f2e001c       move.w 0x1c(a6), -(a7)
          0x00692c60      9ec3           suba.w d3, a7
          0x00692c62      204f           movea.l a7, a0
          0x00692c64      43faa4df       lea.l 0x68d145(pc), a1
          0x00692c68      7010           moveq 0x10, d0
      > 0x00692c6a      10d9           move.b (a1)+, (a0)+
      < 0x00692c6c      51c8fffc       dbra d0, 0x692c6a
          0x00692c70      4ebabf82       jsr BOOTCOM.my_box_error(pc)
          0x00692c74      dec4           adda.w d4, a7
      > 0x00692c76      4cdf1fff       movem.l (a7)+, d0-d7/a0-a4
           0x00692c7a      4e5e           unlk a6
           0x00692c7c      4e75           rts
 160: BOOTCOM.write_floppy_pa ();
           0x00692c7e      4e56fde2       link.w a6, 0xfde2
           0x00692c82      bfd5           cmpa.l (a5), a7
       < 0x00692c84      6206           bhi.b 0x692c8c
          0x00692c86      44fc0002       move.w 0x2, ccr
          0x00692c8a      4e76           trapv
       > 0x00692c8c      defc0116       adda.w 0x116, a7
           0x00692c90      48e781c0       movem.l d0/d7/a0-a1, -(a7)
           0x00692c94      554f           subq.w 0x2, a7
           0x00692c96      2f2e0008       move.l 0x8(a6), -(a7)
           0x00692c9a      486eff00       pea.l -0x100(a6)
           0x00692c9e      4ebac032       jsr BOOTCOM.get_passwords(pc)
           0x00692ca2      504f           addq.w 0x8, a7
           0x00692ca4      4a1f           tst.b (a7)+
       < 0x00692ca6      6750           beq.b 0x692cf8
          0x00692ca8      554f           subq.w 0x2, a7
          0x00692caa      486efefc       pea.l -0x104(a6)
          0x00692cae      4eb900628050   jsr PICTURENET.scsi_floppy_dri
          0x00692cb4      584f           addq.w 0x4, a7
          0x00692cb6      4a1f           tst.b (a7)+
          0x00692cb8      594f           subq.w 0x4, a7
          0x00692cba      2f2efefc       move.l -0x104(a6), -(a7)
          0x00692cbe      4eb9005fb938   jsr F6_VOLUME.f_vol_on
          0x00692cc4      584f           addq.w 0x4, a7
          0x00692cc6      2e1f           move.l (a7)+, d7
      < 0x00692cc8      674c           beq.b 0x692d16
         0x00692cca      554f           subq.w 0x2, a7
         0x00692ccc      2f07           move.l d7, -(a7)
         0x00692cce      486eff00       pea.l -0x100(a6)
         0x00692cd2      4ebac0dc       jsr BOOTCOM.set_passwords(pc)
         0x00692cd6      504f           addq.w 0x8, a7
         0x00692cd8      4a1f           tst.b (a7)+
     < 0x00692cda      663a           bne.b 0x692d16
        0x00692cdc      3f2e000c       move.w 0xc(a6), -(a7)
        0x00692ce0      9efc0100       suba.w 0x100, a7
        0x00692ce4      204f           movea.l a7, a0
        0x00692ce6      43faa46e       lea.l 0x68d156(pc), a1
        0x00692cea      7007           moveq 0x7, d0
    > 0x00692cec      20d9           move.l (a1)+, (a0)+
    < 0x00692cee      51c8fffc       dbra d0, 0x692cec
        0x00692cf2      30d9           move.w (a1)+, (a0)+
        0x00692cf4      10d9           move.b (a1)+, (a0)+
    < 0x00692cf6      6016           bra.b 0x692d0e
    > 0x00692cf8      3f2e000c       move.w 0xc(a6), -(a7)
        0x00692cfc      9efc0100       suba.w 0x100, a7
        0x00692d00      204f           movea.l a7, a0
        0x00692d02      43faa475       lea.l 0x68d179(pc), a1
        0x00692d06      7022           moveq 0x22, d0
    > 0x00692d08      10d9           move.b (a1)+, (a0)+
    < 0x00692d0a      51c8fffc       dbra d0, 0x692d08
    > 0x00692d0e      4ebabee4       jsr BOOTCOM.my_box_error(pc)
         0x00692d12      defc0102       adda.w 0x102, a7
     > 0x00692d16      4cdf0381       movem.l (a7)+, d0/d7/a0-a1
           0x00692d1a      4e5e           unlk a6
           0x00692d1c      4e75           rts
            ; XREFS: CALL 0x0069388c  CALL 0x006938a4  CALL 0x00693c12  
            ; XREFS: CALL 0x00693c2a  CALL 0x006943fe  CALL 0x00694416  
            ; XREFS: CALL 0x006944dc  CALL 0x00694866  CALL 0x0069487e  
 814: BOOTCOM.update_boot_lis ();
           ; var int32_t var_8h @ a7+0x8
           0x00692d1e      4e56fba0       link.w a6, 0xfba0
           0x00692d22      bfd5           cmpa.l (a5), a7
       < 0x00692d24      6206           bhi.b 0x692d2c
          0x00692d26      44fc0002       move.w 0x2, ccr
          0x00692d2a      4e76           trapv
       > 0x00692d2c      defc0158       adda.w 0x158, a7
           0x00692d30      48e7fff8       movem.l d0-d7/a0-a4, -(a7)
           0x00692d34      7a0c           moveq 0xc, d5
           0x00692d36      3c3c00ff       move.w 0xff, d6
           0x00692d3a      554f           subq.w 0x2, a7
           0x00692d3c      2f2e0014       move.l 0x14(a6), -(a7)
           0x00692d40      206e000c       movea.l 0xc(a6), a0
           0x00692d44      4850           pea.l (a0)
           0x00692d46      4267           clr.w -(a7)
           0x00692d48      3f3c000f       move.w 0xf, -(a7)
           0x00692d4c      4eb900608f40   jsr F10_FILELIST.f_list_boots
           0x00692d52      dec5           adda.w d5, a7
           0x00692d54      4a1f           tst.b (a7)+
       < 0x00692d56      66000088       bne.w 0x692de0
          0x00692d5a      9efc0100       suba.w 0x100, a7
          0x00692d5e      4eb900408ec0   jsr p_err_string
          0x00692d64      487aa437       pea.l 0x68d19d(pc)
          0x00692d68      48780018       pea.l 0x18
          0x00692d6c      2f17           move.l (a7), -(a7)
          0x00692d6e      4eb9004047ea   jsr p_wts_o
          0x00692d74      dec5           adda.w d5, a7
          0x00692d76      486f0001       pea.l 0x1(a7)
          0x00692d7a      42a7           clr.l -(a7)
          0x00692d7c      1f6f00080003   move.b 0x8(a7), 0x3(a7)
          0x00692d82      2f17           move.l (a7), -(a7)
          0x00692d84      4eb9004047ea   jsr p_wts_o
          0x00692d8a      defc010c       adda.w 0x10c, a7
          0x00692d8e      4eb900404946   jsr p_wtln_o
          0x00692d94      4eb900404188   jsr p_Unlink
          0x00692d9a      206e0010       movea.l 0x10(a6), a0
          0x00692d9e      7e01           moveq 0x1, d7
      > 0x00692da0      2f3aa41c       move.l 0x68d1be(pc), -(a7)
         0x00692da4      2f3aa414       move.l 0x68d1ba(pc), -(a7)
         0x00692da8      2f3aa40c       move.l 0x68d1b6(pc), -(a7)
         0x00692dac      0c8700000007   cmpi.l 0x7, d7
     < 0x00692db2      6302           bls.b 0x692db6
        0x00692db4      4e4f           trap 0xf
     > 0x00692db6      2007           move.l d7, d0
         0x00692db8      e380           asl.l 0x1, d0
         0x00692dba      3f300800       move.w (a0, d0.l), -(a7)
         0x00692dbe      486f0002       pea.l 0x2(a7)
         0x00692dc2      3f3c0001       move.w 0x1, -(a7)
         0x00692dc6      3f05           move.w d5, -(a7)
         0x00692dc8      4eb900481c8e   jsr MENUCOM.add_text_all
         0x00692dce      defc0016       adda.w 0x16, a7
         0x00692dd2      5287           addq.l 0x1, d7
         0x00692dd4      0c8700000007   cmpi.l 0x7, d7
      < 0x00692dda      6fc4           ble.b 0x692da0
      < 0x00692ddc      60000266       bra.w 0x693044
      > 0x00692de0      206e0010       movea.l 0x10(a6), a0
          0x00692de4      226e0008       movea.l 0x8(a6), a1
          0x00692de8      246e000c       movea.l 0xc(a6), a2
          0x00692dec      7e01           moveq 0x1, d7
      > 0x00692dee      2f07           move.l d7, -(a7)
         0x00692df0      48780000       pea.l 0x0
         0x00692df4      486efdfc       pea.l -0x204(a6)
         0x00692df8      3f06           move.w d6, -(a7)
         0x00692dfa      4eb900406e56   jsr p_strI1
         0x00692e00      defc000e       adda.w 0xe, a7
         0x00692e04      4240           clr.w d0
         0x00692e06      1011           move.b (a1), d0
         0x00692e08      3200           move.w d0, d1
         0x00692e0a      47eefefd       lea.l -0x103(a6), a3
         0x00692e0e      5301           subq.b 0x1, d1
     < 0x00692e10      650a           bcs.b 0x692e1c
        0x00692e12      49e90001       lea.l 0x1(a1), a4
    > 0x00692e16      16dc           move.b (a4)+, (a3)+
    < 0x00692e18      51c9fffc       dbra d1, 0x692e16
     > 0x00692e1c      4241           clr.w d1
         0x00692e1e      122efdfc       move.b -0x204(a6), d1
         0x00692e22      d200           add.b d0, d1
     < 0x00692e24      6406           bcc.b 0x692e2c
        0x00692e26      4eb900406c8a   jsr p_strovr
     > 0x00692e2c      4241           clr.w d1
         0x00692e2e      122efdfc       move.b -0x204(a6), d1
         0x00692e32      3406           move.w d6, d2
         0x00692e34      9440           sub.w d0, d2
         0x00692e36      b242           cmp.w d2, d1
     < 0x00692e38      6302           bls.b 0x692e3c
        0x00692e3a      3202           move.w d2, d1
     > 0x00692e3c      1d40fefc       move.b d0, -0x104(a6)
         0x00692e40      d32efefc       add.b d1, -0x104(a6)
         0x00692e44      5301           subq.b 0x1, d1
     < 0x00692e46      650a           bcs.b 0x692e52
        0x00692e48      49eefdfd       lea.l -0x203(a6), a4
    > 0x00692e4c      16dc           move.b (a4)+, (a3)+
    < 0x00692e4e      51c9fffc       dbra d1, 0x692e4c
     > 0x00692e52      4240           clr.w d0
         0x00692e54      102efefc       move.b -0x104(a6), d0
         0x00692e58      47eefefd       lea.l -0x103(a6), a3
         0x00692e5c      d6c0           adda.w d0, a3
         0x00692e5e      7202           moveq 0x2, d1
         0x00692e60      d200           add.b d0, d1
     < 0x00692e62      6406           bcc.b 0x692e6a
        0x00692e64      4eb900406c8a   jsr p_strovr
     > 0x00692e6a      7202           moveq 0x2, d1
         0x00692e6c      3406           move.w d6, d2
         0x00692e6e      9440           sub.w d0, d2
         0x00692e70      b242           cmp.w d2, d1
     < 0x00692e72      6302           bls.b 0x692e76
        0x00692e74      3202           move.w d2, d1
     > 0x00692e76      d32efefc       add.b d1, -0x104(a6)
         0x00692e7a      49faa347       lea.l 0x68d1c3(pc), a4
     > 0x00692e7e      16dc           move.b (a4)+, (a3)+
     < 0x00692e80      51c9fffc       dbra d1, 0x692e7e
         0x00692e84      0c870000000f   cmpi.l 0xf, d7
     < 0x00692e8a      6302           bls.b 0x692e8e
        0x00692e8c      4e4f           trap 0xf
     > 0x00692e8e      2807           move.l d7, d4
         0x00692e90      760a           moveq 0xa, d3
         0x00692e92      4eb900406a74   jsr fcn.00406a74
         0x00692e98      9ec5           suba.w d5, a7
         0x00692e9a      264f           movea.l a7, a3
         0x00692e9c      49f24800       lea.l (a2, d4.l), a4
         0x00692ea0      7009           moveq 0x9, d0
     > 0x00692ea2      16dc           move.b (a4)+, (a3)+
     < 0x00692ea4      51c8fffc       dbra d0, 0x692ea2
         0x00692ea8      2f3a8e7e       move.l 0x68bd28(pc), -(a7)
         0x00692eac      2f3a8e76       move.l 0x68bd24(pc), -(a7)
         0x00692eb0      3f3a8e70       move.w 0x68bd22(pc), -(a7)
         0x00692eb4      4eb9005ef3d2   jsr F2_UTILITY.f_fids_eq
         0x00692eba      defc0014       adda.w 0x14, a7
         0x00692ebe      4a1f           tst.b (a7)+
     < 0x00692ec0      6736           beq.b 0x692ef8
        0x00692ec2      4240           clr.w d0
        0x00692ec4      102efefc       move.b -0x104(a6), d0
        0x00692ec8      47eefefd       lea.l -0x103(a6), a3
        0x00692ecc      d6c0           adda.w d0, a3
        0x00692ece      7205           moveq 0x5, d1
        0x00692ed0      d200           add.b d0, d1
    < 0x00692ed2      6406           bcc.b 0x692eda
       0x00692ed4      4eb900406c8a   jsr p_strovr
    > 0x00692eda      7205           moveq 0x5, d1
        0x00692edc      3406           move.w d6, d2
        0x00692ede      9440           sub.w d0, d2
        0x00692ee0      b242           cmp.w d2, d1
    < 0x00692ee2      6302           bls.b 0x692ee6
       0x00692ee4      3202           move.w d2, d1
    > 0x00692ee6      d32efefc       add.b d1, -0x104(a6)
        0x00692eea      49faa2da       lea.l 0x68d1c6(pc), a4
    > 0x00692eee      16dc           move.b (a4)+, (a3)+
    < 0x00692ef0      51c9fffc       dbra d1, 0x692eee
    < 0x00692ef4      6000010c       bra.w 0x693002
    > 0x00692ef8      2d7cffff0001.  move.l 0xffff0001, -0x4(a6)
        0x00692f00      9ec5           suba.w d5, a7
        0x00692f02      264f           movea.l a7, a3
        0x00692f04      49f24800       lea.l (a2, d4.l), a4
        0x00692f08      7009           moveq 0x9, d0
    > 0x00692f0a      16dc           move.b (a4)+, (a3)+
    < 0x00692f0c      51c8fffc       dbra d0, 0x692f0a
        0x00692f10      4227           clr.b -(a7)
        0x00692f12      486efffc       pea.l -0x4(a6)
        0x00692f16      4eb9006082de   jsr F10_FILELIST.f_get_header
        0x00692f1c      defc0010       adda.w 0x10, a7
        0x00692f20      4a1f           tst.b (a7)+
    < 0x00692f22      676c           beq.b 0x692f90
       0x00692f24      9efc0100       suba.w 0x100, a7
       0x00692f28      3f3c0014       move.w 0x14, -(a7)
       0x00692f2c      2f2efffc       move.l -0x4(a6), -(a7)
       0x00692f30      4eb9005eed64   jsr f_get_string
       0x00692f36      5c4f           addq.w 0x6, a7
       0x00692f38      47eefcfc       lea.l -0x304(a6), a3
       0x00692f3c      703f           moveq 0x3f, d0
   > 0x00692f3e      26df           move.l (a7)+, (a3)+
   < 0x00692f40      51c8fffc       dbra d0, 0x692f3e
       0x00692f44      4240           clr.w d0
       0x00692f46      102efefc       move.b -0x104(a6), d0
       0x00692f4a      47eefefd       lea.l -0x103(a6), a3
       0x00692f4e      d6c0           adda.w d0, a3
       0x00692f50      4241           clr.w d1
       0x00692f52      122efcfc       move.b -0x304(a6), d1
       0x00692f56      d200           add.b d0, d1
   < 0x00692f58      6406           bcc.b 0x692f60
      0x00692f5a      4eb900406c8a   jsr p_strovr
   > 0x00692f60      4241           clr.w d1
       0x00692f62      122efcfc       move.b -0x304(a6), d1
       0x00692f66      3406           move.w d6, d2
       0x00692f68      9440           sub.w d0, d2
       0x00692f6a      b242           cmp.w d2, d1
   < 0x00692f6c      6302           bls.b 0x692f70
      0x00692f6e      3202           move.w d2, d1
   > 0x00692f70      d32efefc       add.b d1, -0x104(a6)
       0x00692f74      5301           subq.b 0x1, d1
   < 0x00692f76      650a           bcs.b 0x692f82
      0x00692f78      49eefcfd       lea.l -0x303(a6), a4
  > 0x00692f7c      16dc           move.b (a4)+, (a3)+
  < 0x00692f7e      51c9fffc       dbra d1, 0x692f7c
   > 0x00692f82      486efffc       pea.l -0x4(a6)
       0x00692f86      4eb90060500e   jsr F9_FILERDWRT.f_free_block
       0x00692f8c      584f           addq.w 0x4, a7
   < 0x00692f8e      6072           bra.b 0x693002
   > 0x00692f90      9efc0100       suba.w 0x100, a7
       0x00692f94      4eb900408ec0   jsr p_err_string
       0x00692f9a      487aa230       pea.l 0x68d1cc(pc)
       0x00692f9e      48780015       pea.l 0x15
       0x00692fa2      2f17           move.l (a7), -(a7)
       0x00692fa4      4eb9004047ea   jsr p_wts_o
       0x00692faa      dec5           adda.w d5, a7
       0x00692fac      486f0001       pea.l 0x1(a7)
       0x00692fb0      42a7           clr.l -(a7)
       0x00692fb2      1f6f00080003   move.b 0x8(a7), 0x3(a7)
       0x00692fb8      2f17           move.l (a7), -(a7)
       0x00692fba      4eb9004047ea   jsr p_wts_o
       0x00692fc0      defc010c       adda.w 0x10c, a7
       0x00692fc4      4eb900404946   jsr p_wtln_o
       0x00692fca      4eb900404188   jsr p_Unlink
       0x00692fd0      4240           clr.w d0
       0x00692fd2      102efefc       move.b -0x104(a6), d0
       0x00692fd6      47eefefd       lea.l -0x103(a6), a3
       0x00692fda      d6c0           adda.w d0, a3
       0x00692fdc      7205           moveq 0x5, d1
       0x00692fde      d200           add.b d0, d1
   < 0x00692fe0      6406           bcc.b 0x692fe8
      0x00692fe2      4eb900406c8a   jsr p_strovr
   > 0x00692fe8      7205           moveq 0x5, d1
       0x00692fea      3406           move.w d6, d2
       0x00692fec      9440           sub.w d0, d2
       0x00692fee      b242           cmp.w d2, d1
   < 0x00692ff0      6302           bls.b 0x692ff4
      0x00692ff2      3202           move.w d2, d1
   > 0x00692ff4      d32efefc       add.b d1, -0x104(a6)
       0x00692ff8      49faa1e8       lea.l 0x68d1e2(pc), a4
   > 0x00692ffc      16dc           move.b (a4)+, (a3)+
   < 0x00692ffe      51c9fffc       dbra d1, 0x692ffc
   > 0x00693002      9efc0100       suba.w 0x100, a7
         0x00693006      264f           movea.l a7, a3
         0x00693008      49eefefc       lea.l -0x104(a6), a4
         0x0069300c      703f           moveq 0x3f, d0
     > 0x0069300e      26dc           move.l (a4)+, (a3)+
     < 0x00693010      51c8fffc       dbra d0, 0x69300e
         0x00693014      0c8700000007   cmpi.l 0x7, d7
     < 0x0069301a      6302           bls.b 0x69301e
        0x0069301c      4e4f           trap 0xf
     > 0x0069301e      2007           move.l d7, d0
         0x00693020      e380           asl.l 0x1, d0
         0x00693022      3f300800       move.w (a0, d0.l), -(a7)
         0x00693026      486f0002       pea.l 0x2(a7)
         0x0069302a      4267           clr.w -(a7)
         0x0069302c      3f06           move.w d6, -(a7)
         0x0069302e      4eb900481c8e   jsr MENUCOM.add_text_all
         0x00693034      defc010a       adda.w 0x10a, a7
         0x00693038      5287           addq.l 0x1, d7
         0x0069303a      0c8700000007   cmpi.l 0x7, d7
      < 0x00693040      6f00fdac       ble.w 0x692dee
      > 0x00693044      4cdf1fff       movem.l (a7)+, d0-d7/a0-a4
           0x00693048      4e5e           unlk a6
           0x0069304a      4e75           rts
            ; CALL XREF from BOOTCOM.get_drive @ 0x6933a0
 126: BOOTCOM.magopt_device ();
           ; var int32_t var_4h @ a6-0x4
           0x0069304c      4e56ffe4       link.w a6, 0xffe4
           0x00693050      bfd5           cmpa.l (a5), a7
       < 0x00693052      6206           bhi.b 0x69305a
          0x00693054      44fc0002       move.w 0x2, ccr
          0x00693058      4e76           trapv
       > 0x0069305a      defc0018       adda.w 0x18, a7
           0x0069305e      48e78880       movem.l d0/d4/a0, -(a7)
           0x00693062      422efffc       clr.b -0x4(a6)
           0x00693066      102e0008       move.b 0x8(a6), d0
           0x0069306a      4880           ext.w d0
           0x0069306c      e340           asl.w 0x1, d0
           0x0069306e      554f           subq.w 0x2, a7
           0x00693070      41f40000       lea.l (a4, d0.w), a0
           0x00693074      3f2805ae       move.w 0x5ae(a0), -(a7)
           0x00693078      4eb900480fc2   jsr MENUCOM.get_boxon
           0x0069307e      544f           addq.w 0x2, a7
           0x00693080      4a1f           tst.b (a7)+
       < 0x00693082      6708           beq.b 0x69308c
          0x00693084      1d7c0001fffd   move.b 0x1, -0x3(a6)
      < 0x0069308a      6004           bra.b 0x693090
      > 0x0069308c      422efffd       clr.b -0x3(a6)
      > 0x00693090      594f           subq.w 0x4, a7
           0x00693092      41f40000       lea.l (a4, d0.w), a0
           0x00693096      3f2805b2       move.w 0x5b2(a0), -(a7)
           0x0069309a      4eb90048d992   jsr MENU2COM.get_numeric_val
           0x006930a0      544f           addq.w 0x2, a7
           0x006930a2      281f           move.l (a7)+, d4
           0x006930a4      4eb90040832a   jsr fcn.0040832a
           0x006930aa      0c84000000ff   cmpi.l 0xff, d4
       < 0x006930b0      6302           bls.b 0x6930b4
          0x006930b2      4e4f           trap 0xf
       > 0x006930b4      1d44fffe       move.b d4, -0x2(a6)
           0x006930b8      422effff       clr.b -0x1(a6)
           0x006930bc      2d6efffc000a   move.l -0x4(a6), 0xa(a6)
           0x006930c2      4cdf0111       movem.l (a7)+, d0/d4/a0
           0x006930c6      4e5e           unlk a6
           0x006930c8      4e75           rts
            ; CALL XREF from BOOTCOM.get_drive @ 0x693464
 506: BOOTCOM.net_device ();
           ; var int32_t var_6h @ a6-0x6
           0x006930ca      4e56fcc0       link.w a6, 0xfcc0
           0x006930ce      bfd5           cmpa.l (a5), a7
       < 0x006930d0      6206           bhi.b 0x6930d8
          0x006930d2      44fc0002       move.w 0x2, ccr
          0x006930d6      4e76           trapv
       > 0x006930d8      defc033a       adda.w 0x33a, a7
           0x006930dc      48e7fef0       movem.l d0-d6/a0-a3, -(a7)
           0x006930e0      47f90048d992   lea.l MENU2COM.get_numeric_val, a3
           0x006930e6      263c000000ff   move.l 0xff, d3
           0x006930ec      3a3c0100       move.w 0x100, d5
           0x006930f0      7c01           moveq 0x1, d6
           0x006930f2      102e000c       move.b 0xc(a6), d0
           0x006930f6      4880           ext.w d0
           0x006930f8      e340           asl.w 0x1, d0
           0x006930fa      594f           subq.w 0x4, a7
           0x006930fc      41f40000       lea.l (a4, d0.w), a0
           0x00693100      3f2805a6       move.w 0x5a6(a0), -(a7)
           0x00693104      4e93           jsr (a3)                    ; fcn.0000000c
           0x00693106      544f           addq.w 0x2, a7
           0x00693108      281f           move.l (a7)+, d4
           0x0069310a      4eb90040832a   jsr fcn.0040832a
           0x00693110      b883           cmp.l d3, d4
       < 0x00693112      6302           bls.b 0x693116
          0x00693114      4e4f           trap 0xf
       > 0x00693116      1d44fffe       move.b d4, -0x2(a6)
           0x0069311a      594f           subq.w 0x4, a7
           0x0069311c      41f40000       lea.l (a4, d0.w), a0
           0x00693120      3f2805a2       move.w 0x5a2(a0), -(a7)
           0x00693124      4e93           jsr (a3)                    ; fcn.0000000c
           0x00693126      544f           addq.w 0x2, a7
           0x00693128      281f           move.l (a7)+, d4
           0x0069312a      4eb90040832a   jsr fcn.0040832a
           0x00693130      b883           cmp.l d3, d4
       < 0x00693132      6302           bls.b 0x693136
          0x00693134      4e4f           trap 0xf
       > 0x00693136      1d44ffff       move.b d4, -0x1(a6)
           0x0069313a      594f           subq.w 0x4, a7
           0x0069313c      3f2efffe       move.w -0x2(a6), -(a7)
           0x00693140      4eb90066e8bc   jsr N10_UTILS.n_drive_id
           0x00693146      544f           addq.w 0x2, a7
           0x00693148      2d5ffffa       move.l (a7)+, -0x6(a6)
           0x0069314c      41f40000       lea.l (a4, d0.w), a0
           0x00693150      554f           subq.w 0x2, a7
           0x00693152      3f28059e       move.w 0x59e(a0), -(a7)
           0x00693156      4eb900480fc2   jsr MENUCOM.get_boxon
           0x0069315c      544f           addq.w 0x2, a7
           0x0069315e      4a1f           tst.b (a7)+
       < 0x00693160      670c           beq.b 0x69316e
          0x00693162      4280           clr.l d0
          0x00693164      102efffb       move.b -0x5(a6), d0
          0x00693168      8046           or.w d6, d0
          0x0069316a      1d40fffb       move.b d0, -0x5(a6)
       > 0x0069316e      594f           subq.w 0x4, a7
           0x00693170      3f28059a       move.w 0x59a(a0), -(a7)
           0x00693174      4e93           jsr (a3)                    ; fcn.0000000c
           0x00693176      544f           addq.w 0x2, a7
           0x00693178      281f           move.l (a7)+, d4
           0x0069317a      4eb90040832a   jsr fcn.0040832a
           0x00693180      b883           cmp.l d3, d4
       < 0x00693182      6302           bls.b 0x693186
          0x00693184      4e4f           trap 0xf
       > 0x00693186      1d44fffc       move.b d4, -0x4(a6)
           0x0069318a      422efffd       clr.b -0x3(a6)
           0x0069318e      2d6efffa000e   move.l -0x6(a6), 0xe(a6)
           0x00693194      226e0008       movea.l 0x8(a6), a1
           0x00693198      594f           subq.w 0x4, a7
           0x0069319a      3f28059a       move.w 0x59a(a0), -(a7)
           0x0069319e      4e93           jsr (a3)                    ; fcn.0000000c
           0x006931a0      544f           addq.w 0x2, a7
           0x006931a2      2817           move.l (a7), d4
           0x006931a4      4eb90040832a   jsr fcn.0040832a
           0x006931aa      2e84           move.l d4, (a7)
           0x006931ac      48780000       pea.l 0x0
           0x006931b0      4851           pea.l (a1)
           0x006931b2      3f03           move.w d3, -(a7)
           0x006931b4      4eb900406e56   jsr p_strI1
           0x006931ba      defc000a       adda.w 0xa, a7
           0x006931be      3ea8059e       move.w 0x59e(a0), (a7)
           0x006931c2      4eb900480fc2   jsr MENUCOM.get_boxon
           0x006931c8      544f           addq.w 0x2, a7
           0x006931ca      4a1f           tst.b (a7)+
       < 0x006931cc      674e           beq.b 0x69321c
          0x006931ce      9ec5           suba.w d5, a7
          0x006931d0      7000           moveq 0x0, d0
          0x006931d2      41ef0001       lea.l 0x1(a7), a0
          0x006931d6      45faa010       lea.l 0x68d1e8(pc), a2
      > 0x006931da      10da           move.b (a2)+, (a0)+
      < 0x006931dc      51c8fffc       dbra d0, 0x6931da
          0x006931e0      4240           clr.w d0
          0x006931e2      1011           move.b (a1), d0
          0x006931e4      5200           addq.b 0x1, d0
      < 0x006931e6      6406           bcc.b 0x6931ee
         0x006931e8      4eb900406c8a   jsr p_strovr
      > 0x006931ee      4240           clr.w d0
          0x006931f0      1011           move.b (a1), d0
          0x006931f2      3203           move.w d3, d1
          0x006931f4      5341           subq.w 0x1, d1
          0x006931f6      b041           cmp.w d1, d0
      < 0x006931f8      6302           bls.b 0x6931fc
         0x006931fa      3001           move.w d1, d0
      > 0x006931fc      1e86           move.b d6, (a7)
          0x006931fe      d117           add.b d0, (a7)
          0x00693200      5300           subq.b 0x1, d0
      < 0x00693202      650a           bcs.b 0x69320e
         0x00693204      45e90001       lea.l 0x1(a1), a2
     > 0x00693208      10da           move.b (a2)+, (a0)+
     < 0x0069320a      51c8fffc       dbra d0, 0x693208
      > 0x0069320e      2049           movea.l a1, a0
          0x00693210      244f           movea.l a7, a2
          0x00693212      3003           move.w d3, d0
      > 0x00693214      10da           move.b (a2)+, (a0)+
      < 0x00693216      51c8fffc       dbra d0, 0x693214
          0x0069321a      dec5           adda.w d5, a7
       > 0x0069321c      9ec5           suba.w d5, a7
           0x0069321e      3f2efffe       move.w -0x2(a6), -(a7)
           0x00693222      48780000       pea.l 0x0
           0x00693226      4eb90066e95e   jsr N10_UTILS.n_stn_str1
           0x0069322c      9efc00fa       suba.w 0xfa, a7
           0x00693230      4240           clr.w d0
           0x00693232      102f0100       move.b 0x100(a7), d0
           0x00693236      3200           move.w d0, d1
           0x00693238      41ef0001       lea.l 0x1(a7), a0
           0x0069323c      5301           subq.b 0x1, d1
       < 0x0069323e      650a           bcs.b 0x69324a
          0x00693240      45ef0101       lea.l 0x101(a7), a2
      > 0x00693244      10da           move.b (a2)+, (a0)+
      < 0x00693246      51c9fffc       dbra d1, 0x693244
       > 0x0069324a      7201           moveq 0x1, d1
           0x0069324c      3403           move.w d3, d2
           0x0069324e      9440           sub.w d0, d2
           0x00693250      b242           cmp.w d2, d1
       < 0x00693252      6302           bls.b 0x693256
          0x00693254      3202           move.w d2, d1
       > 0x00693256      1e80           move.b d0, (a7)
           0x00693258      d317           add.b d1, (a7)
           0x0069325a      45fa9f8e       lea.l 0x68d1ea(pc), a2
       > 0x0069325e      10da           move.b (a2)+, (a0)+
       < 0x00693260      51c9fffc       dbra d1, 0x69325e
           0x00693264      9ec5           suba.w d5, a7
           0x00693266      4240           clr.w d0
           0x00693268      102f0100       move.b 0x100(a7), d0
           0x0069326c      3200           move.w d0, d1
           0x0069326e      41ef0001       lea.l 0x1(a7), a0
           0x00693272      5301           subq.b 0x1, d1
       < 0x00693274      650a           bcs.b 0x693280
          0x00693276      45ef0101       lea.l 0x101(a7), a2
      > 0x0069327a      10da           move.b (a2)+, (a0)+
      < 0x0069327c      51c9fffc       dbra d1, 0x69327a
       > 0x00693280      4241           clr.w d1
           0x00693282      1211           move.b (a1), d1
           0x00693284      d200           add.b d0, d1
       < 0x00693286      6406           bcc.b 0x69328e
          0x00693288      4eb900406c8a   jsr p_strovr
       > 0x0069328e      4241           clr.w d1
           0x00693290      1211           move.b (a1), d1
           0x00693292      3403           move.w d3, d2
           0x00693294      9440           sub.w d0, d2
           0x00693296      b242           cmp.w d2, d1
       < 0x00693298      6302           bls.b 0x69329c
          0x0069329a      3202           move.w d2, d1
       > 0x0069329c      1e80           move.b d0, (a7)
           0x0069329e      d317           add.b d1, (a7)
           0x006932a0      5301           subq.b 0x1, d1
       < 0x006932a2      650a           bcs.b 0x6932ae
          0x006932a4      45e90001       lea.l 0x1(a1), a2
      > 0x006932a8      10da           move.b (a2)+, (a0)+
      < 0x006932aa      51c9fffc       dbra d1, 0x6932a8
       > 0x006932ae      204f           movea.l a7, a0
           0x006932b0      3003           move.w d3, d0
       > 0x006932b2      12d8           move.b (a0)+, (a1)+
       < 0x006932b4      51c8fffc       dbra d0, 0x6932b2
           0x006932b8      defc0300       adda.w 0x300, a7
           0x006932bc      4cdf0f7f       movem.l (a7)+, d0-d6/a0-a3
           0x006932c0      4e5e           unlk a6
           0x006932c2      4e75           rts
            ; CALL XREFS from BOOTCOM.boot_files @ 0x69383c, 0x693856
 800: BOOTCOM.get_drive ();
           0x006932c4      4e56fdba       link.w a6, 0xfdba
           0x006932c8      bfd5           cmpa.l (a5), a7
       < 0x006932ca      6206           bhi.b 0x6932d2
          0x006932cc      44fc0002       move.w 0x2, ccr
          0x006932d0      4e76           trapv
       > 0x006932d2      defc0246       adda.w 0x246, a7
           0x006932d6      48e7fff0       movem.l d0-d7/a0-a3, -(a7)
           0x006932da      47f900480fc2   lea.l MENUCOM.get_boxon, a3
           0x006932e0      3a3c00ff       move.w 0xff, d5
           0x006932e4      3c3c0100       move.w 0x100, d6
           0x006932e8      7e01           moveq 0x1, d7
           0x006932ea      102e0012       move.b 0x12(a6), d0
           0x006932ee      4880           ext.w d0
           0x006932f0      3200           move.w d0, d1
           0x006932f2      e341           asl.w 0x1, d1
           0x006932f4      554f           subq.w 0x2, a7
           0x006932f6      41f41000       lea.l (a4, d1.w), a0
           0x006932fa      3f2805ba       move.w 0x5ba(a0), -(a7)
           0x006932fe      4e93           jsr (a3)                    ; fcn.0000000c
           0x00693300      544f           addq.w 0x2, a7
           0x00693302      4a1f           tst.b (a7)+
       < 0x00693304      6700013c       beq.w 0x693442
          0x00693308      206e000a       movea.l 0xa(a6), a0
          0x0069330c      594f           subq.w 0x4, a7
          0x0069330e      43f41000       lea.l (a4, d1.w), a1
          0x00693312      3f2905b2       move.w 0x5b2(a1), -(a7)
          0x00693316      4eb90048d992   jsr MENU2COM.get_numeric_val
          0x0069331c      544f           addq.w 0x2, a7
          0x0069331e      2817           move.l (a7), d4
          0x00693320      4eb90040832a   jsr fcn.0040832a
          0x00693326      2e84           move.l d4, (a7)
          0x00693328      48780000       pea.l 0x0
          0x0069332c      4850           pea.l (a0)
          0x0069332e      3f05           move.w d5, -(a7)
          0x00693330      4eb900406e56   jsr p_strI1
          0x00693336      defc000c       adda.w 0xc, a7
          0x0069333a      43f41000       lea.l (a4, d1.w), a1
          0x0069333e      3f2905ae       move.w 0x5ae(a1), -(a7)
          0x00693342      4e93           jsr (a3)                    ; fcn.0000000c
          0x00693344      544f           addq.w 0x2, a7
          0x00693346      4a1f           tst.b (a7)+
      < 0x00693348      674e           beq.b 0x693398
         0x0069334a      9ec6           suba.w d6, a7
         0x0069334c      7400           moveq 0x0, d2
         0x0069334e      43ef0001       lea.l 0x1(a7), a1
         0x00693352      45fa9e98       lea.l 0x68d1ec(pc), a2
     > 0x00693356      12da           move.b (a2)+, (a1)+
     < 0x00693358      51cafffc       dbra d2, 0x693356
         0x0069335c      4242           clr.w d2
         0x0069335e      1410           move.b (a0), d2
         0x00693360      5202           addq.b 0x1, d2
     < 0x00693362      6406           bcc.b 0x69336a
        0x00693364      4eb900406c8a   jsr p_strovr
     > 0x0069336a      4242           clr.w d2
         0x0069336c      1410           move.b (a0), d2
         0x0069336e      3605           move.w d5, d3
         0x00693370      5343           subq.w 0x1, d3
         0x00693372      b443           cmp.w d3, d2
     < 0x00693374      6302           bls.b 0x693378
        0x00693376      3403           move.w d3, d2
     > 0x00693378      1e87           move.b d7, (a7)
         0x0069337a      d517           add.b d2, (a7)
         0x0069337c      5302           subq.b 0x1, d2
     < 0x0069337e      650a           bcs.b 0x69338a
        0x00693380      45e80001       lea.l 0x1(a0), a2
    > 0x00693384      12da           move.b (a2)+, (a1)+
    < 0x00693386      51cafffc       dbra d2, 0x693384
     > 0x0069338a      2248           movea.l a0, a1
         0x0069338c      244f           movea.l a7, a2
         0x0069338e      3405           move.w d5, d2
     > 0x00693390      12da           move.b (a2)+, (a1)+
     < 0x00693392      51cafffc       dbra d2, 0x693390
         0x00693396      dec6           adda.w d6, a7
      > 0x00693398      226e000e       movea.l 0xe(a6), a1
          0x0069339c      594f           subq.w 0x4, a7
          0x0069339e      1f00           move.b d0, -(a7)
          0x006933a0      4ebafcaa       jsr BOOTCOM.magopt_device(pc)
          0x006933a4      544f           addq.w 0x2, a7
          0x006933a6      2297           move.l (a7), (a1)
          0x006933a8      9efc00fc       suba.w 0xfc, a7
          0x006933ac      7406           moveq 0x6, d2
          0x006933ae      43ef0001       lea.l 0x1(a7), a1
          0x006933b2      45fa9e3a       lea.l 0x68d1ee(pc), a2
      > 0x006933b6      12da           move.b (a2)+, (a1)+
      < 0x006933b8      51cafffc       dbra d2, 0x6933b6
          0x006933bc      4242           clr.w d2
          0x006933be      1410           move.b (a0), d2
          0x006933c0      5e02           addq.b 0x7, d2
      < 0x006933c2      6406           bcc.b 0x6933ca
         0x006933c4      4eb900406c8a   jsr p_strovr
      > 0x006933ca      4242           clr.w d2
          0x006933cc      1410           move.b (a0), d2
          0x006933ce      3605           move.w d5, d3
          0x006933d0      5f43           subq.w 0x7, d3
          0x006933d2      b443           cmp.w d3, d2
      < 0x006933d4      6302           bls.b 0x6933d8
         0x006933d6      3403           move.w d3, d2
      > 0x006933d8      1ebc0007       move.b 0x7, (a7)
          0x006933dc      d517           add.b d2, (a7)
          0x006933de      5302           subq.b 0x1, d2
      < 0x006933e0      650a           bcs.b 0x6933ec
         0x006933e2      45e80001       lea.l 0x1(a0), a2
     > 0x006933e6      12da           move.b (a2)+, (a1)+
     < 0x006933e8      51cafffc       dbra d2, 0x6933e6
      > 0x006933ec      9ec6           suba.w d6, a7
          0x006933ee      224f           movea.l a7, a1
          0x006933f0      45ef0100       lea.l 0x100(a7), a2
          0x006933f4      743f           moveq 0x3f, d2
      > 0x006933f6      22da           move.l (a2)+, (a1)+
      < 0x006933f8      51cafffc       dbra d2, 0x6933f6
          0x006933fc      3f2e0008       move.w 0x8(a6), -(a7)
          0x00693400      486f0002       pea.l 0x2(a7)
          0x00693404      4267           clr.w -(a7)
          0x00693406      3f06           move.w d6, -(a7)
          0x00693408      4eb900481c8e   jsr MENUCOM.add_text_all
          0x0069340e      defc020a       adda.w 0x20a, a7
          0x00693412      4242           clr.w d2
          0x00693414      1410           move.b (a0), d2
          0x00693416      43f02001       lea.l 0x1(a0, d2.w), a1
          0x0069341a      7602           moveq 0x2, d3
          0x0069341c      d602           add.b d2, d3
      < 0x0069341e      6406           bcc.b 0x693426
         0x00693420      4eb900406c8a   jsr p_strovr
      > 0x00693426      7602           moveq 0x2, d3
          0x00693428      3805           move.w d5, d4
          0x0069342a      9842           sub.w d2, d4
          0x0069342c      b644           cmp.w d4, d3
      < 0x0069342e      6302           bls.b 0x693432
         0x00693430      3604           move.w d4, d3
      > 0x00693432      d710           add.b d3, (a0)
          0x00693434      45fa9dc0       lea.l 0x68d1f6(pc), a2
      > 0x00693438      12da           move.b (a2)+, (a1)+
      < 0x0069343a      51cbfffc       dbra d3, 0x693438
      < 0x0069343e      6000019c       bra.w 0x6935dc
      > 0x00693442      554f           subq.w 0x2, a7
          0x00693444      41f41000       lea.l (a4, d1.w), a0
          0x00693448      3f2805aa       move.w 0x5aa(a0), -(a7)
          0x0069344c      4e93           jsr (a3)                    ; fcn.0000000c
          0x0069344e      544f           addq.w 0x2, a7
          0x00693450      4a1f           tst.b (a7)+
      < 0x00693452      670000b2       beq.w 0x693506
         0x00693456      206e000e       movea.l 0xe(a6), a0
         0x0069345a      226e000a       movea.l 0xa(a6), a1
         0x0069345e      594f           subq.w 0x4, a7
         0x00693460      1f00           move.b d0, -(a7)
         0x00693462      4851           pea.l (a1)
         0x00693464      4ebafc64       jsr BOOTCOM.net_device(pc)
         0x00693468      5c4f           addq.w 0x6, a7
         0x0069346a      2097           move.l (a7), (a0)
         0x0069346c      9efc00fc       suba.w 0xfc, a7
         0x00693470      7403           moveq 0x3, d2
         0x00693472      41ef0001       lea.l 0x1(a7), a0
         0x00693476      45fa9d81       lea.l 0x68d1f9(pc), a2
     > 0x0069347a      10da           move.b (a2)+, (a0)+
     < 0x0069347c      51cafffc       dbra d2, 0x69347a
         0x00693480      4242           clr.w d2
         0x00693482      1411           move.b (a1), d2
         0x00693484      5802           addq.b 0x4, d2
     < 0x00693486      6406           bcc.b 0x69348e
        0x00693488      4eb900406c8a   jsr p_strovr
     > 0x0069348e      4242           clr.w d2
         0x00693490      1411           move.b (a1), d2
         0x00693492      3605           move.w d5, d3
         0x00693494      5943           subq.w 0x4, d3
         0x00693496      b443           cmp.w d3, d2
     < 0x00693498      6302           bls.b 0x69349c
        0x0069349a      3403           move.w d3, d2
     > 0x0069349c      1ebc0004       move.b 0x4, (a7)
         0x006934a0      d517           add.b d2, (a7)
         0x006934a2      5302           subq.b 0x1, d2
     < 0x006934a4      650a           bcs.b 0x6934b0
        0x006934a6      45e90001       lea.l 0x1(a1), a2
    > 0x006934aa      10da           move.b (a2)+, (a0)+
    < 0x006934ac      51cafffc       dbra d2, 0x6934aa
     > 0x006934b0      9ec6           suba.w d6, a7
         0x006934b2      204f           movea.l a7, a0
         0x006934b4      45ef0100       lea.l 0x100(a7), a2
         0x006934b8      743f           moveq 0x3f, d2
     > 0x006934ba      20da           move.l (a2)+, (a0)+
     < 0x006934bc      51cafffc       dbra d2, 0x6934ba
         0x006934c0      3f2e0008       move.w 0x8(a6), -(a7)
         0x006934c4      486f0002       pea.l 0x2(a7)
         0x006934c8      4267           clr.w -(a7)
         0x006934ca      3f06           move.w d6, -(a7)
         0x006934cc      4eb900481c8e   jsr MENUCOM.add_text_all
         0x006934d2      defc020a       adda.w 0x20a, a7
         0x006934d6      4242           clr.w d2
         0x006934d8      1411           move.b (a1), d2
         0x006934da      41f12001       lea.l 0x1(a1, d2.w), a0
         0x006934de      7602           moveq 0x2, d3
         0x006934e0      d602           add.b d2, d3
     < 0x006934e2      6406           bcc.b 0x6934ea
        0x006934e4      4eb900406c8a   jsr p_strovr
     > 0x006934ea      7602           moveq 0x2, d3
         0x006934ec      3805           move.w d5, d4
         0x006934ee      9842           sub.w d2, d4
         0x006934f0      b644           cmp.w d4, d3
     < 0x006934f2      6302           bls.b 0x6934f6
        0x006934f4      3604           move.w d4, d3
     > 0x006934f6      d711           add.b d3, (a1)
         0x006934f8      45fa9d04       lea.l 0x68d1fe(pc), a2
     > 0x006934fc      10da           move.b (a2)+, (a0)+
     < 0x006934fe      51cbfffc       dbra d3, 0x6934fc
     < 0x00693502      600000d8       bra.w 0x6935dc
     > 0x00693506      554f           subq.w 0x2, a7
         0x00693508      41f41000       lea.l (a4, d1.w), a0
         0x0069350c      3f2805c2       move.w 0x5c2(a0), -(a7)
         0x00693510      4e93           jsr (a3)                    ; fcn.0000000c
         0x00693512      544f           addq.w 0x2, a7
         0x00693514      4a1f           tst.b (a7)+
     < 0x00693516      6732           beq.b 0x69354a
        0x00693518      206e000a       movea.l 0xa(a6), a0
        0x0069351c      10ba9ce2       move.b 0x68d200(pc), (a0)
        0x00693520      206e000e       movea.l 0xe(a6), a0
        0x00693524      4290           clr.l (a0)
        0x00693526      2f3a9cdc       move.l 0x68d204(pc), -(a7)
        0x0069352a      3f3a9cd6       move.w 0x68d202(pc), -(a7)
   > 0x0069352e      3f2e0008       move.w 0x8(a6), -(a7)
      0x00693532      486f0002       pea.l 0x2(a7)
      0x00693536      3f07           move.w d7, -(a7)
      0x00693538      3f3c0006       move.w 0x6, -(a7)
      0x0069353c      4eb900481c8e   jsr MENUCOM.add_text_all
      0x00693542      defc0010       adda.w 0x10, a7
  < 0x00693546      60000094       bra.w 0x6935dc
  > 0x0069354a      554f           subq.w 0x2, a7
      0x0069354c      41f41000       lea.l (a4, d1.w), a0
      0x00693550      3f2805be       move.w 0x5be(a0), -(a7)
      0x00693554      4e93           jsr (a3)                    ; fcn.0000000c
      0x00693556      544f           addq.w 0x2, a7
      0x00693558      4a1f           tst.b (a7)+
  < 0x0069355a      672a           beq.b 0x693586
     0x0069355c      206e000a       movea.l 0xa(a6), a0
     0x00693560      10ba9ca6       move.b 0x68d208(pc), (a0)
     0x00693564      117a9ca30001   move.b 0x68d209(pc), 0x1(a0)
     0x0069356a      206e000e       movea.l 0xe(a6), a0
     0x0069356e      20bc00010000   move.l 0x10000, (a0)
     0x00693574      5d4f           subq.w 0x6, a7
     0x00693576      204f           movea.l a7, a0
     0x00693578      43fa9c91       lea.l 0x68d20b(pc), a1
     0x0069357c      7405           moveq 0x5, d2
 > 0x0069357e      10d9           move.b (a1)+, (a0)+
 < 0x00693580      51cafffc       dbra d2, 0x69357e
  < 0x00693584      60a8           bra.b 0x69352e
   > 0x00693586      554f           subq.w 0x2, a7
       0x00693588      41f41000       lea.l (a4, d1.w), a0
       0x0069358c      3f2805b6       move.w 0x5b6(a0), -(a7)
       0x00693590      4e93           jsr (a3)                    ; fcn.0000000c
       0x00693592      544f           addq.w 0x2, a7
       0x00693594      4a1f           tst.b (a7)+
   < 0x00693596      673a           beq.b 0x6935d2
      0x00693598      206e000a       movea.l 0xa(a6), a0
      0x0069359c      10ba9c73       move.b 0x68d211(pc), (a0)
      0x006935a0      117a9c700001   move.b 0x68d212(pc), 0x1(a0)
      0x006935a6      117a9c6b0002   move.b 0x68d213(pc), 0x2(a0)
      0x006935ac      554f           subq.w 0x2, a7
      0x006935ae      206e000e       movea.l 0xe(a6), a0
      0x006935b2      4850           pea.l (a0)
      0x006935b4      4eb900628050   jsr PICTURENET.scsi_floppy_dri
      0x006935ba      584f           addq.w 0x4, a7
      0x006935bc      4a1f           tst.b (a7)+
      0x006935be      5d4f           subq.w 0x6, a7
      0x006935c0      204f           movea.l a7, a0
      0x006935c2      43fa9c61       lea.l 0x68d225(pc), a1
      0x006935c6      7405           moveq 0x5, d2
  > 0x006935c8      10d9           move.b (a1)+, (a0)+
  < 0x006935ca      51cafffc       dbra d2, 0x6935c8
   < 0x006935ce      6000ff5e       bra.w 0x69352e
    > 0x006935d2      4227           clr.b -(a7)
        0x006935d4      4eb90040452a   jsr p_Assert
        0x006935da      544f           addq.w 0x2, a7
  > 0x006935dc      4cdf0fff       movem.l (a7)+, d0-d7/a0-a3
           0x006935e0      4e5e           unlk a6
           0x006935e2      4e75           rts
            ; CALL XREFS from BOOTCOM.boot_files @ 0x693776, 0x69379e
 198: BOOTCOM.floppy_on ();
           0x006935e4      4e56fdde       link.w a6, 0xfdde
           0x006935e8      bfd5           cmpa.l (a5), a7
       < 0x006935ea      6206           bhi.b 0x6935f2
          0x006935ec      44fc0002       move.w 0x2, ccr
          0x006935f0      4e76           trapv
       > 0x006935f2      defc0122       adda.w 0x122, a7
           0x006935f6      48e7c0e0       movem.l d0-d1/a0-a2, -(a7)
           0x006935fa      45ee000a       lea.l 0xa(a6), a2
           0x006935fe      7201           moveq 0x1, d1
           0x00693600      3f12           move.w (a2), -(a7)
           0x00693602      486eff00       pea.l -0x100(a6)
           0x00693606      4eb900483f6a   jsr MENUCOM.get_boxtext
           0x0069360c      554f           subq.w 0x2, a7
           0x0069360e      2eba9c1c       move.l 0x68d22c(pc), (a7)
           0x00693612      3f7a9c1c0004   move.w 0x68d230(pc), 0x4(a7)
           0x00693618      1f7a9c180006   move.b 0x68d232(pc), 0x6(a7)
           0x0069361e      3f12           move.w (a2), -(a7)
           0x00693620      486f0002       pea.l 0x2(a7)
           0x00693624      3f01           move.w d1, -(a7)
           0x00693626      3f3c0007       move.w 0x7, -(a7)
           0x0069362a      4eb900483da2   jsr MENUCOM.set_boxtext
           0x00693630      defc0010       adda.w 0x10, a7
           0x00693634      486c0004       pea.l 0x4(a4)
           0x00693638      4eb900627f9a   jsr PICTURENET.add_floppy
           0x0069363e      584f           addq.w 0x4, a7
           0x00693640      4a1f           tst.b (a7)+
       < 0x00693642      660e           bne.b 0x693652
          0x00693644      3f2e0008       move.w 0x8(a6), -(a7)
          0x00693648      1f01           move.b d1, -(a7)
          0x0069364a      4eb900483776   jsr MENUCOM.swtch_box
          0x00693650      584f           addq.w 0x4, a7
       > 0x00693652      487a9be0       pea.l 0x68d234(pc)
           0x00693656      4878000e       pea.l 0xe
           0x0069365a      2f17           move.l (a7), -(a7)
           0x0069365c      4eb9004047ea   jsr p_wts_o
           0x00693662      504f           addq.w 0x8, a7
           0x00693664      2eac0004       move.l 0x4(a4), (a7)
           0x00693668      4878ffff       pea.l 0xffff
           0x0069366c      4eb9004070e4   jsr p_wti_o
           0x00693672      504f           addq.w 0x8, a7
           0x00693674      4eb900404946   jsr p_wtln_o
           0x0069367a      9efc0100       suba.w 0x100, a7
           0x0069367e      204f           movea.l a7, a0
           0x00693680      43eeff00       lea.l -0x100(a6), a1
           0x00693684      703f           moveq 0x3f, d0
       > 0x00693686      20d9           move.l (a1)+, (a0)+
       < 0x00693688      51c8fffc       dbra d0, 0x693686
           0x0069368c      3f12           move.w (a2), -(a7)
           0x0069368e      486f0002       pea.l 0x2(a7)
           0x00693692      4267           clr.w -(a7)
           0x00693694      3f3c00ff       move.w 0xff, -(a7)
           0x00693698      4eb900483da2   jsr MENUCOM.set_boxtext
           0x0069369e      defc010a       adda.w 0x10a, a7
           0x006936a2      4cdf0703       movem.l (a7)+, d0-d1/a0-a2
           0x006936a6      4e5e           unlk a6
           0x006936a8      4e75           rts
            ; CALL XREF from MENUBOOTCOM.hit_boot @ 0x4df112
 4642: BOOTCOM.boot_files ();
           ; var int32_t var_6a02h @ a6-0x6a02
           ; var int32_t var_69fdh @ a6-0x69fd
           ; var int32_t var_69f8h @ a6-0x69f8
           ; var int32_t var_69f3h @ a6-0x69f3
           ; var int32_t var_69ech @ a6-0x69ec
           ; var int32_t var_69e8h @ a6-0x69e8
           ; var int32_t var_69e6h @ a6-0x69e6
           ; var int32_t var_69d6h @ a6-0x69d6
           0x006936aa      4e56f64e       link.w a6, 0xf64e
           0x006936ae      bfd5           cmpa.l (a5), a7
       < 0x006936b0      6206           bhi.b 0x6936b8
          0x006936b2      44fc0002       move.w 0x2, ccr
          0x006936b6      4e76           trapv
       > 0x006936b8      defc0450       adda.w 0x450, a7
           0x006936bc      48e7fff8       movem.l d0-d7/a0-a4, -(a7)
           0x006936c0      45f900480fc2   lea.l MENUCOM.get_boxon, a2
           0x006936c6      47eefa9e       lea.l -0x562(a6), a3
           0x006936ca      7c07           moveq 0x7, d6
           0x006936cc      302e0074       move.w 0x74(a6), d0
           0x006936d0      0c401000       cmpi.w 0x1000, d0
       < 0x006936d4      6610           bne.b 0x6936e6
          0x006936d6      3f2e0076       move.w 0x76(a6), -(a7)
          0x006936da      4eb9004836a4   jsr MENUCOM.push_box
          0x006936e0      544f           addq.w 0x2, a7
      < 0x006936e2      600011e0       bra.w 0x6948c4
      > 0x006936e6      41fa9b5a       lea.l 0x68d242(pc), a0
          0x006936ea      3200           move.w d0, d1
          0x006936ec      e649           lsr.w 0x3, d1
          0x006936ee      0c410020       cmpi.w 0x20, d1
      < 0x006936f2      6d04           blt.b 0x6936f8
         0x006936f4      7200           moveq 0x0, d1
     < 0x006936f6      6004           bra.b 0x6936fc
     > 0x006936f8      01301000       btst.l d0, (a0, d1.w)
     < 0x006936fc      670011c6       beq.w 0x6948c4
         0x00693700      0c400002       cmpi.w 0x2, d0
     < 0x00693704      6648           bne.b 0x69374e
        0x00693706      554f           subq.w 0x2, a7
        0x00693708      486efaa2       pea.l -0x55e(a6)
        0x0069370c      4eb900628050   jsr PICTURENET.scsi_floppy_dri
        0x00693712      584f           addq.w 0x4, a7
        0x00693714      4a1f           tst.b (a7)+
        0x00693716      3f2e0054       move.w 0x54(a6), -(a7)
        0x0069371a      4227           clr.b -(a7)
        0x0069371c      222efaa2       move.l -0x55e(a6), d1
        0x00693720      0c81ffffffff   cmpi.l 0xffffffff, d1
    < 0x00693726      6702           beq.b 0x69372a
       0x00693728      5217           addq.b 0x1, (a7)
    > 0x0069372a      4eb900483972   jsr MENUCOM.set_enable_box
        0x00693730      544f           addq.w 0x2, a7
        0x00693732      3eae0056       move.w 0x56(a6), (a7)
        0x00693736      4227           clr.b -(a7)
        0x00693738      222efaa2       move.l -0x55e(a6), d1
        0x0069373c      0c81ffffffff   cmpi.l 0xffffffff, d1
    < 0x00693742      6702           beq.b 0x693746
       0x00693744      5217           addq.b 0x1, (a7)
    > 0x00693746      4eb900483972   jsr MENUCOM.set_enable_box
        0x0069374c      584f           addq.w 0x4, a7
     > 0x0069374e      0c400001       cmpi.w 0x1, d0
     < 0x00693752      6650           bne.b 0x6937a4
        0x00693754      322e0076       move.w 0x76(a6), d1
        0x00693758      b26e0054       cmp.w 0x54(a6), d1
    < 0x0069375c      661e           bne.b 0x69377c
       0x0069375e      554f           subq.w 0x2, a7
       0x00693760      3f2e0056       move.w 0x56(a6), -(a7)
       0x00693764      4e92           jsr (a2)                    ; fcn.00000009+0x2
       0x00693766      544f           addq.w 0x2, a7
       0x00693768      4a1f           tst.b (a7)+
   < 0x0069376a      6610           bne.b 0x69377c
      0x0069376c      3f2e0054       move.w 0x54(a6), -(a7)
      0x00693770      3f2e0060       move.w 0x60(a6), -(a7)
      0x00693774      284b           movea.l a3, a4
      0x00693776      4ebafe6c       jsr BOOTCOM.floppy_on(pc)
      0x0069377a      584f           addq.w 0x4, a7
   > 0x0069377c      322e0076       move.w 0x76(a6), d1
        0x00693780      b26e0056       cmp.w 0x56(a6), d1
    < 0x00693784      661e           bne.b 0x6937a4
       0x00693786      554f           subq.w 0x2, a7
       0x00693788      3f2e0054       move.w 0x54(a6), -(a7)
       0x0069378c      4e92           jsr (a2)                    ; fcn.00000009+0x2
       0x0069378e      544f           addq.w 0x2, a7
       0x00693790      4a1f           tst.b (a7)+
   < 0x00693792      6610           bne.b 0x6937a4
      0x00693794      3f2e0056       move.w 0x56(a6), -(a7)
      0x00693798      3f2e0062       move.w 0x62(a6), -(a7)
      0x0069379c      284b           movea.l a3, a4
      0x0069379e      4ebafe44       jsr BOOTCOM.floppy_on(pc)
      0x006937a2      584f           addq.w 0x4, a7
   > 0x006937a4      322e0074       move.w 0x74(a6), d1
         0x006937a8      41fa9ab8       lea.l 0x68d262(pc), a0
         0x006937ac      3401           move.w d1, d2
         0x006937ae      e64a           lsr.w 0x3, d2
         0x006937b0      0c420020       cmpi.w 0x20, d2
     < 0x006937b4      6d04           blt.b 0x6937ba
        0x006937b6      7400           moveq 0x0, d2
    < 0x006937b8      6004           bra.b 0x6937be
    > 0x006937ba      03302000       btst.l d1, (a0, d2.w)
    < 0x006937be      676c           beq.b 0x69382c
        0x006937c0      322e0076       move.w 0x76(a6), d1
        0x006937c4      b26e0054       cmp.w 0x54(a6), d1
    < 0x006937c8      662e           bne.b 0x6937f8
       0x006937ca      554f           subq.w 0x2, a7
       0x006937cc      3f2e0056       move.w 0x56(a6), -(a7)
       0x006937d0      4e92           jsr (a2)                    ; fcn.00000009+0x2
       0x006937d2      544f           addq.w 0x2, a7
       0x006937d4      4a1f           tst.b (a7)+
   < 0x006937d6      6620           bne.b 0x6937f8
      0x006937d8      487a9aa9       pea.l 0x68d283(pc)
      0x006937dc      4878000e       pea.l 0xe
      0x006937e0      2f17           move.l (a7), -(a7)
      0x006937e2      4eb9004047ea   jsr p_wts_o
      0x006937e8      defc000c       adda.w 0xc, a7
      0x006937ec      4eb900404946   jsr p_wtln_o
      0x006937f2      4eb900628032   jsr PICTURENET.remove_floppy
   > 0x006937f8      b26e0056       cmp.w 0x56(a6), d1
    < 0x006937fc      662e           bne.b 0x69382c
       0x006937fe      554f           subq.w 0x2, a7
       0x00693800      3f2e0054       move.w 0x54(a6), -(a7)
       0x00693804      4e92           jsr (a2)                    ; fcn.00000009+0x2
       0x00693806      544f           addq.w 0x2, a7
       0x00693808      4a1f           tst.b (a7)+
   < 0x0069380a      6620           bne.b 0x69382c
      0x0069380c      487a9a84       pea.l 0x68d292(pc)
      0x00693810      4878000e       pea.l 0xe
      0x00693814      2f17           move.l (a7), -(a7)
      0x00693816      4eb9004047ea   jsr p_wts_o
      0x0069381c      defc000c       adda.w 0xc, a7
      0x00693820      4eb900404946   jsr p_wtln_o
      0x00693826      4eb900628032   jsr PICTURENET.remove_floppy
   > 0x0069382c      4227           clr.b -(a7)
         0x0069382e      486efaae       pea.l -0x552(a6)
         0x00693832      486efbfe       pea.l -0x402(a6)
         0x00693836      3f2e0064       move.w 0x64(a6), -(a7)
         0x0069383a      284b           movea.l a3, a4
         0x0069383c      4ebafa86       jsr BOOTCOM.get_drive(pc)
         0x00693840      defc000a       adda.w 0xa, a7
         0x00693844      1ebc0001       move.b 0x1, (a7)
         0x00693848      486efab2       pea.l -0x54e(a6)
         0x0069384c      486efcfe       pea.l -0x302(a6)
         0x00693850      3f2e0066       move.w 0x66(a6), -(a7)
         0x00693854      284b           movea.l a3, a4
         0x00693856      4ebafa6c       jsr BOOTCOM.get_drive(pc)
         0x0069385a      584f           addq.w 0x4, a7
         0x0069385c      2eaefaae       move.l -0x552(a6), (a7)
         0x00693860      4eb9005fb938   jsr F6_VOLUME.f_vol_on
         0x00693866      584f           addq.w 0x4, a7
         0x00693868      2d57faa6       move.l (a7), -0x55a(a6)
         0x0069386c      2f2efab2       move.l -0x54e(a6), -(a7)
         0x00693870      4eb9005fb938   jsr F6_VOLUME.f_vol_on
         0x00693876      584f           addq.w 0x4, a7
         0x00693878      2d5ffaaa       move.l (a7)+, -0x556(a6)
         0x0069387c      2f2efaa6       move.l -0x55a(a6), -(a7)
         0x00693880      486e0018       pea.l 0x18(a6)
         0x00693884      486efabe       pea.l -0x542(a6)
         0x00693888      486efbfe       pea.l -0x402(a6)
         0x0069388c      4ebaf490       jsr BOOTCOM.update_boot_lis(pc)
         0x00693890      defc000c       adda.w 0xc, a7
         0x00693894      2eaefaaa       move.l -0x556(a6), (a7)
         0x00693898      486e0028       pea.l 0x28(a6)
         0x0069389c      486efb5e       pea.l -0x4a2(a6)
         0x006938a0      486efcfe       pea.l -0x302(a6)
         0x006938a4      4ebaf478       jsr BOOTCOM.update_boot_lis(pc)
         0x006938a8      defc0010       adda.w 0x10, a7
         0x006938ac      2d7cffffffff.  move.l 0xffffffff, -0x54a(a6)
         0x006938b4      7e01           moveq 0x1, d7
     > 0x006938b6      554f           subq.w 0x2, a7
        0x006938b8      be86           cmp.l d6, d7
    < 0x006938ba      6302           bls.b 0x6938be
       0x006938bc      4e4f           trap 0xf
    > 0x006938be      2207           move.l d7, d1
        0x006938c0      e381           asl.l 0x1, d1
        0x006938c2      204b           movea.l a3, a0
        0x006938c4      41f01800       lea.l (a0, d1.l), a0
        0x006938c8      3f28057a       move.w 0x57a(a0), -(a7)
        0x006938cc      4e92           jsr (a2)                    ; fcn.00000009+0x2
        0x006938ce      544f           addq.w 0x2, a7
        0x006938d0      4a1f           tst.b (a7)+
    < 0x006938d2      6704           beq.b 0x6938d8
       0x006938d4      2d47fab6       move.l d7, -0x54a(a6)
    > 0x006938d8      5287           addq.l 0x1, d7
        0x006938da      be86           cmp.l d6, d7
     < 0x006938dc      6fd8           ble.b 0x6938b6
         0x006938de      2d7cffffffff.  move.l 0xffffffff, -0x546(a6)
         0x006938e6      7e01           moveq 0x1, d7
     > 0x006938e8      554f           subq.w 0x2, a7
        0x006938ea      be86           cmp.l d6, d7
    < 0x006938ec      6302           bls.b 0x6938f0
       0x006938ee      4e4f           trap 0xf
    > 0x006938f0      2207           move.l d7, d1
        0x006938f2      e381           asl.l 0x1, d1
        0x006938f4      204b           movea.l a3, a0
        0x006938f6      41f01800       lea.l (a0, d1.l), a0
        0x006938fa      3f28058a       move.w 0x58a(a0), -(a7)
        0x006938fe      4e92           jsr (a2)                    ; fcn.00000009+0x2
        0x00693900      544f           addq.w 0x2, a7
        0x00693902      4a1f           tst.b (a7)+
    < 0x00693904      6704           beq.b 0x69390a
       0x00693906      2d47faba       move.l d7, -0x546(a6)
    > 0x0069390a      5287           addq.l 0x1, d7
        0x0069390c      be86           cmp.l d6, d7
     < 0x0069390e      6fd8           ble.b 0x6938e8
         0x00693910      3f2e000c       move.w 0xc(a6), -(a7)
         0x00693914      554f           subq.w 0x2, a7
         0x00693916      3f2e0056       move.w 0x56(a6), -(a7)
         0x0069391a      4e92           jsr (a2)                    ; fcn.00000009+0x2
         0x0069391c      544f           addq.w 0x2, a7
         0x0069391e      1217           move.b (a7), d1
         0x00693920      4881           ext.w d1
         0x00693922      43bc0001       chk.w 0x1, d1
         0x00693926      1e81           move.b d1, (a7)
         0x00693928      4eb900483972   jsr MENUCOM.set_enable_box
         0x0069392e      3eae0056       move.w 0x56(a6), (a7)
         0x00693932      4e92           jsr (a2)                    ; fcn.00000009+0x2
         0x00693934      544f           addq.w 0x2, a7
         0x00693936      4a1f           tst.b (a7)+
     < 0x00693938      660e           bne.b 0x693948
        0x0069393a      3f2e000c       move.w 0xc(a6), -(a7)
        0x0069393e      4227           clr.b -(a7)
        0x00693940      4eb900483776   jsr MENUCOM.swtch_box
        0x00693946      584f           addq.w 0x4, a7
     > 0x00693948      322e0074       move.w 0x74(a6), d1
         0x0069394c      41fa9952       lea.l 0x68d2a0(pc), a0
         0x00693950      3401           move.w d1, d2
         0x00693952      e64a           lsr.w 0x3, d2
         0x00693954      0c420020       cmpi.w 0x20, d2
     < 0x00693958      6d04           blt.b 0x69395e
        0x0069395a      7400           moveq 0x0, d2
    < 0x0069395c      6004           bra.b 0x693962
    > 0x0069395e      03302000       btst.l d1, (a0, d2.w)
    < 0x00693962      67000f60       beq.w 0x6948c4
        0x00693966      554f           subq.w 0x2, a7
        0x00693968      3f2e0014       move.w 0x14(a6), -(a7)
        0x0069396c      4e92           jsr (a2)                    ; fcn.00000009+0x2
        0x0069396e      544f           addq.w 0x2, a7
        0x00693970      4a1f           tst.b (a7)+
    < 0x00693972      6704           beq.b 0x693978
   < 0x00693974      60000086       bra.w 0x6939fc
   > 0x00693978      554f           subq.w 0x2, a7
       0x0069397a      3f2e0012       move.w 0x12(a6), -(a7)
       0x0069397e      4e92           jsr (a2)                    ; fcn.00000009+0x2
       0x00693980      544f           addq.w 0x2, a7
       0x00693982      4a1f           tst.b (a7)+
   < 0x00693984      6714           beq.b 0x69399a
      0x00693986      3f2e0070       move.w 0x70(a6), -(a7)
      0x0069398a      4227           clr.b -(a7)
      0x0069398c      4eb900483776   jsr MENUCOM.swtch_box
      0x00693992      544f           addq.w 0x2, a7
      0x00693994      3eae0018       move.w 0x18(a6), (a7)
  < 0x00693998      6066           bra.b 0x693a00
  > 0x0069399a      554f           subq.w 0x2, a7
      0x0069399c      3f2e0010       move.w 0x10(a6), -(a7)
      0x006939a0      4e92           jsr (a2)                    ; fcn.00000009+0x2
      0x006939a2      544f           addq.w 0x2, a7
      0x006939a4      4a1f           tst.b (a7)+
  < 0x006939a6      6724           beq.b 0x6939cc
 > 0x006939a8      3f2e0070       move.w 0x70(a6), -(a7)
    0x006939ac      1f3c0001       move.b 0x1, -(a7)
    0x006939b0      4eb900483776   jsr MENUCOM.swtch_box
    0x006939b6      544f           addq.w 0x2, a7
    0x006939b8      3eae0072       move.w 0x72(a6), (a7)
    0x006939bc      4227           clr.b -(a7)
    0x006939be      4eb900483776   jsr MENUCOM.swtch_box
    0x006939c4      544f           addq.w 0x2, a7
    0x006939c6      3eae0028       move.w 0x28(a6), (a7)
 < 0x006939ca      6044           bra.b 0x693a10
 > 0x006939cc      554f           subq.w 0x2, a7
     0x006939ce      3f2e000e       move.w 0xe(a6), -(a7)
     0x006939d2      4e92           jsr (a2)                    ; fcn.00000009+0x2
     0x006939d4      544f           addq.w 0x2, a7
     0x006939d6      4a1f           tst.b (a7)+
 < 0x006939d8      6702           beq.b 0x6939dc
 < 0x006939da      6020           bra.b 0x6939fc
 > 0x006939dc      554f           subq.w 0x2, a7
     0x006939de      3f2e000c       move.w 0xc(a6), -(a7)
     0x006939e2      4e92           jsr (a2)                    ; fcn.00000009+0x2
     0x006939e4      544f           addq.w 0x2, a7
     0x006939e6      4a1f           tst.b (a7)+
 < 0x006939e8      6702           beq.b 0x6939ec
 < 0x006939ea      6010           bra.b 0x6939fc
 > 0x006939ec      554f           subq.w 0x2, a7
     0x006939ee      3f2e000a       move.w 0xa(a6), -(a7)
     0x006939f2      4e92           jsr (a2)                    ; fcn.00000009+0x2
     0x006939f4      544f           addq.w 0x2, a7
     0x006939f6      4a1f           tst.b (a7)+
 < 0x006939f8      6702           beq.b 0x6939fc
 < 0x006939fa      60ac           bra.b 0x6939a8
 > 0x006939fc      3f2e0070       move.w 0x70(a6), -(a7)
  > 0x00693a00      1f3c0001       move.b 0x1, -(a7)
        0x00693a04      4eb900483776   jsr MENUCOM.swtch_box
        0x00693a0a      544f           addq.w 0x2, a7
        0x00693a0c      3eae0072       move.w 0x72(a6), (a7)
 > 0x00693a10      1f3c0001       move.b 0x1, -(a7)
        0x00693a14      4eb900483776   jsr MENUCOM.swtch_box
        0x00693a1a      584f           addq.w 0x4, a7
        0x00693a1c      322e0076       move.w 0x76(a6), d1
        0x00693a20      b26e0008       cmp.w 0x8(a6), d1
    < 0x00693a24      66000e9e       bne.w 0x6948c4
       0x00693a28      3f2e0068       move.w 0x68(a6), -(a7)
       0x00693a2c      1f3c0001       move.b 0x1, -(a7)
       0x00693a30      4eb900483776   jsr MENUCOM.swtch_box
       0x00693a36      544f           addq.w 0x2, a7
       0x00693a38      3eae006a       move.w 0x6a(a6), (a7)
       0x00693a3c      1f3c0001       move.b 0x1, -(a7)
       0x00693a40      4eb900483776   jsr MENUCOM.swtch_box
       0x00693a46      3eae000e       move.w 0xe(a6), (a7)
       0x00693a4a      4e92           jsr (a2)                    ; fcn.00000009+0x2
       0x00693a4c      544f           addq.w 0x2, a7
       0x00693a4e      4a1f           tst.b (a7)+
   < 0x00693a50      670001ea       beq.w 0x693c3c
      0x00693a54      222efab6       move.l -0x54a(a6), d1
      0x00693a58      0c81ffffffff   cmpi.l 0xffffffff, d1
  < 0x00693a5e      674c           beq.b 0x693aac
     0x00693a60      242efaba       move.l -0x546(a6), d2
     0x00693a64      0c82ffffffff   cmpi.l 0xffffffff, d2
 < 0x00693a6a      6740           beq.b 0x693aac
    0x00693a6c      9efc001e       suba.w 0x1e, a7
    0x00693a70      204f           movea.l a7, a0
    0x00693a72      43fa984d       lea.l 0x68d2c1(pc), a1
    0x00693a76      741d           moveq 0x1d, d2
 > 0x00693a78      10d9           move.b (a1)+, (a0)+
 < 0x00693a7a      51cafffc       dbra d2, 0x693a78
    0x00693a7e      b286           cmp.l d6, d1
 < 0x00693a80      6302           bls.b 0x693a84
    0x00693a82      4e4f           trap 0xf
 > 0x00693a84      2401           move.l d1, d2
    0x00693a86      e382           asl.l 0x1, d2
    0x00693a88      204b           movea.l a3, a0
    0x00693a8a      41f02800       lea.l (a0, d2.l), a0
    0x00693a8e      3f28057a       move.w 0x57a(a0), -(a7)
    0x00693a92      486f0002       pea.l 0x2(a7)
    0x00693a96      48780001       pea.l 0x1
    0x00693a9a      4878001e       pea.l 0x1e
    0x00693a9e      4eb900483af8   jsr MENUCOM.box_error
    0x00693aa4      defc002c       adda.w 0x2c, a7
 < 0x00693aa8      60000158       bra.w 0x693c02
 > 0x00693aac      0c81ffffffff   cmpi.l 0xffffffff, d1
  < 0x00693ab2      67000084       beq.w 0x693b38
     0x00693ab6      554f           subq.w 0x2, a7
     0x00693ab8      3f2e005c       move.w 0x5c(a6), -(a7)
     0x00693abc      4e92           jsr (a2)                    ; fcn.00000009+0x2
     0x00693abe      544f           addq.w 0x2, a7
     0x00693ac0      4a1f           tst.b (a7)+
 < 0x00693ac2      6734           beq.b 0x693af8
    0x00693ac4      0c810000000f   cmpi.l 0xf, d1
 < 0x00693aca      6302           bls.b 0x693ace
    0x00693acc      4e4f           trap 0xf
 > 0x00693ace      2801           move.l d1, d4
    0x00693ad0      760a           moveq 0xa, d3
    0x00693ad2      4eb900406a74   jsr fcn.00406a74
    0x00693ad8      2f2efaa6       move.l -0x55a(a6), -(a7)
    0x00693adc      204b           movea.l a3, a0
    0x00693ade      9efc000a       suba.w 0xa, a7
    0x00693ae2      224f           movea.l a7, a1
    0x00693ae4      41f04820       lea.l 0x20(a0, d4.l), a0
    0x00693ae8      7409           moveq 0x9, d2
 > 0x00693aea      12d8           move.b (a0)+, (a1)+
 < 0x00693aec      51cafffc       dbra d2, 0x693aea
    0x00693af0      4ebaad08       jsr fcn.0068e7fa(pc)
    0x00693af4      defc000e       adda.w 0xe, a7
 > 0x00693af8      0c810000000f   cmpi.l 0xf, d1
 < 0x00693afe      6302           bls.b 0x693b02
    0x00693b00      4e4f           trap 0xf
 > 0x00693b02      2801           move.l d1, d4
     0x00693b04      760a           moveq 0xa, d3
     0x00693b06      4eb900406a74   jsr fcn.00406a74
     0x00693b0c      b286           cmp.l d6, d1
 < 0x00693b0e      6302           bls.b 0x693b12
    0x00693b10      4e4f           trap 0xf
 > 0x00693b12      2401           move.l d1, d2
     0x00693b14      e382           asl.l 0x1, d2
     0x00693b16      204b           movea.l a3, a0
     0x00693b18      41f02800       lea.l (a0, d2.l), a0
     0x00693b1c      3f28057a       move.w 0x57a(a0), -(a7)
     0x00693b20      2f2efaa6       move.l -0x55a(a6), -(a7)
     0x00693b24      2f01           move.l d1, -(a7)
     0x00693b26      204b           movea.l a3, a0
     0x00693b28      48704820       pea.l 0x20(a0, d4.l)
 > 0x00693b2c      4ebae6fa       jsr BOOTCOM.delete_boot(pc)
    0x00693b30      defc000e       adda.w 0xe, a7
 < 0x00693b34      600000cc       bra.w 0x693c02
 > 0x00693b38      242efaba       move.l -0x546(a6), d2
     0x00693b3c      0c82ffffffff   cmpi.l 0xffffffff, d2
 < 0x00693b42      67000084       beq.w 0x693bc8
    0x00693b46      554f           subq.w 0x2, a7
    0x00693b48      3f2e005e       move.w 0x5e(a6), -(a7)
    0x00693b4c      4e92           jsr (a2)                    ; fcn.00000009+0x2
    0x00693b4e      544f           addq.w 0x2, a7
    0x00693b50      4a1f           tst.b (a7)+
 < 0x00693b52      6738           beq.b 0x693b8c
    0x00693b54      0c820000000f   cmpi.l 0xf, d2
 < 0x00693b5a      6302           bls.b 0x693b5e
    0x00693b5c      4e4f           trap 0xf
 > 0x00693b5e      2802           move.l d2, d4
    0x00693b60      760a           moveq 0xa, d3
    0x00693b62      4eb900406a74   jsr fcn.00406a74
    0x00693b68      2f2efaaa       move.l -0x556(a6), -(a7)
    0x00693b6c      204b           movea.l a3, a0
    0x00693b6e      41f04800       lea.l (a0, d4.l), a0
    0x00693b72      9efc000a       suba.w 0xa, a7
    0x00693b76      224f           movea.l a7, a1
    0x00693b78      41e800c0       lea.l 0xc0(a0), a0
    0x00693b7c      7609           moveq 0x9, d3
 > 0x00693b7e      12d8           move.b (a0)+, (a1)+
 < 0x00693b80      51cbfffc       dbra d3, 0x693b7e
    0x00693b84      4ebaac74       jsr fcn.0068e7fa(pc)
    0x00693b88      defc000e       adda.w 0xe, a7
 > 0x00693b8c      0c820000000f   cmpi.l 0xf, d2
 < 0x00693b92      6302           bls.b 0x693b96
    0x00693b94      4e4f           trap 0xf
 > 0x00693b96      2802           move.l d2, d4
    0x00693b98      760a           moveq 0xa, d3
    0x00693b9a      4eb900406a74   jsr fcn.00406a74
    0x00693ba0      b486           cmp.l d6, d2
 < 0x00693ba2      6302           bls.b 0x693ba6
    0x00693ba4      4e4f           trap 0xf
 > 0x00693ba6      2602           move.l d2, d3
    0x00693ba8      e383           asl.l 0x1, d3
    0x00693baa      204b           movea.l a3, a0
    0x00693bac      41f03800       lea.l (a0, d3.l), a0
    0x00693bb0      3f28058a       move.w 0x58a(a0), -(a7)
    0x00693bb4      2f2efaaa       move.l -0x556(a6), -(a7)
    0x00693bb8      2f02           move.l d2, -(a7)
    0x00693bba      204b           movea.l a3, a0
    0x00693bbc      41f04800       lea.l (a0, d4.l), a0
    0x00693bc0      486800c0       pea.l 0xc0(a0)
 < 0x00693bc4      6000ff66       bra.w 0x693b2c
  > 0x00693bc8      9efc000e       suba.w 0xe, a7
      0x00693bcc      2f3a9712       move.l 0x68d2e0(pc), -(a7)
      0x00693bd0      2f7a97120004   move.l 0x68d2e4(pc), 0x4(a7)
      0x00693bd6      2f7a97100008   move.l 0x68d2e8(pc), 0x8(a7)
      0x00693bdc      2f7a970e000c   move.l 0x68d2ec(pc), 0xc(a7)
      0x00693be2      1f7a970c0010   move.b 0x68d2f0(pc), 0x10(a7)
      0x00693be8      3f2e0064       move.w 0x64(a6), -(a7)
      0x00693bec      486f0002       pea.l 0x2(a7)
      0x00693bf0      48780001       pea.l 0x1
      0x00693bf4      48780011       pea.l 0x11
      0x00693bf8      4eb900483af8   jsr MENUCOM.box_error
      0x00693bfe      defc0020       adda.w 0x20, a7
 > 0x00693c02      2f2efaa6       move.l -0x55a(a6), -(a7)
      0x00693c06      486e0018       pea.l 0x18(a6)
      0x00693c0a      486efabe       pea.l -0x542(a6)
      0x00693c0e      486efbfe       pea.l -0x402(a6)
      0x00693c12      4ebaf10a       jsr BOOTCOM.update_boot_lis(pc)
      0x00693c16      defc000c       adda.w 0xc, a7
      0x00693c1a      2eaefaaa       move.l -0x556(a6), (a7)
      0x00693c1e      486e0028       pea.l 0x28(a6)
      0x00693c22      486efb5e       pea.l -0x4a2(a6)
      0x00693c26      486efcfe       pea.l -0x302(a6)
      0x00693c2a      4ebaf0f2       jsr BOOTCOM.update_boot_lis(pc)
      0x00693c2e      defc000e       adda.w 0xe, a7
      0x00693c32      3eae000e       move.w 0xe(a6), (a7)
 > 0x00693c36      4227           clr.b -(a7)
 < 0x00693c38      60000c62       bra.w 0x69489c
 > 0x00693c3c      554f           subq.w 0x2, a7
     0x00693c3e      3f2e0014       move.w 0x14(a6), -(a7)
     0x00693c42      4e92           jsr (a2)                    ; fcn.00000009+0x2
     0x00693c44      544f           addq.w 0x2, a7
     0x00693c46      4a1f           tst.b (a7)+
 < 0x00693c48      670007dc       beq.w 0x694426
    0x00693c4c      7e01           moveq 0x1, d7
    0x00693c4e      222efab6       move.l -0x54a(a6), d1
    0x00693c52      0c81ffffffff   cmpi.l 0xffffffff, d1
 < 0x00693c58      663c           bne.b 0x693c96
    0x00693c5a      9efc000c       suba.w 0xc, a7
    0x00693c5e      2f3a9692       move.l 0x68d2f2(pc), -(a7)
    0x00693c62      2f7a96920004   move.l 0x68d2f6(pc), 0x4(a7)
    0x00693c68      2f7a96900008   move.l 0x68d2fa(pc), 0x8(a7)
    0x00693c6e      3f7a968e000c   move.w 0x68d2fe(pc), 0xc(a7)
    0x00693c74      1f7a968a000e   move.b 0x68d300(pc), 0xe(a7)
    0x00693c7a      3f2e0064       move.w 0x64(a6), -(a7)
    0x00693c7e      486f0002       pea.l 0x2(a7)
    0x00693c82      48780001       pea.l 0x1
    0x00693c86      4878000f       pea.l 0xf
    0x00693c8a      4eb900483af8   jsr MENUCOM.box_error
    0x00693c90      defc001e       adda.w 0x1e, a7
    0x00693c94      7e00           moveq 0x0, d7
 > 0x00693c96      242efaba       move.l -0x546(a6), d2
    0x00693c9a      0c82ffffffff   cmpi.l 0xffffffff, d2
 < 0x00693ca0      6630           bne.b 0x693cd2
    0x00693ca2      9efc0016       suba.w 0x16, a7
    0x00693ca6      204f           movea.l a7, a0
    0x00693ca8      43fa9658       lea.l 0x68d302(pc), a1
    0x00693cac      7604           moveq 0x4, d3
 > 0x00693cae      20d9           move.l (a1)+, (a0)+
 < 0x00693cb0      51cbfffc       dbra d3, 0x693cae
    0x00693cb4      10d9           move.b (a1)+, (a0)+
    0x00693cb6      3f2e0066       move.w 0x66(a6), -(a7)
    0x00693cba      486f0002       pea.l 0x2(a7)
    0x00693cbe      48780001       pea.l 0x1
    0x00693cc2      48780015       pea.l 0x15
    0x00693cc6      4eb900483af8   jsr MENUCOM.box_error
    0x00693ccc      defc0024       adda.w 0x24, a7
    0x00693cd0      7e00           moveq 0x0, d7
 > 0x00693cd2      554f           subq.w 0x2, a7
    0x00693cd4      3f2e0058       move.w 0x58(a6), -(a7)
    0x00693cd8      4e92           jsr (a2)                    ; fcn.00000009+0x2
    0x00693cda      544f           addq.w 0x2, a7
    0x00693cdc      4a1f           tst.b (a7)+
 < 0x00693cde      6712           beq.b 0x693cf2
    0x00693ce0      41eefdfe       lea.l -0x202(a6), a0
    0x00693ce4      43fa9631       lea.l 0x68d317(pc), a1
    0x00693ce8      7606           moveq 0x6, d3
 > 0x00693cea      10d9           move.b (a1)+, (a0)+
 < 0x00693cec      51cbfffc       dbra d3, 0x693cea
 < 0x00693cf0      6006           bra.b 0x693cf8
 > 0x00693cf2      2d7a962afdfe   move.l 0x68d31e(pc), -0x202(a6)
 > 0x00693cf8      554f           subq.w 0x2, a7
    0x00693cfa      3f2e005a       move.w 0x5a(a6), -(a7)
    0x00693cfe      4e92           jsr (a2)                    ; fcn.00000009+0x2
    0x00693d00      544f           addq.w 0x2, a7
    0x00693d02      4a1f           tst.b (a7)+
 < 0x00693d04      6714           beq.b 0x693d1a
    0x00693d06      2d7a961afefe   move.l 0x68d322(pc), -0x102(a6)
    0x00693d0c      3d7a9618ff02   move.w 0x68d326(pc), -0xfe(a6)
    0x00693d12      1d7a9614ff04   move.b 0x68d328(pc), -0xfc(a6)
 < 0x00693d18      6018           bra.b 0x693d32
 > 0x00693d1a      1d7a960dfefe   move.b 0x68d329(pc), -0x102(a6)
    0x00693d20      1d7a9608feff   move.b 0x68d32a(pc), -0x101(a6)
    0x00693d26      1d7a9603ff00   move.b 0x68d32b(pc), -0x100(a6)
    0x00693d2c      1d7a95feff01   move.b 0x68d32c(pc), -0xff(a6)
 > 0x00693d32      4a07           tst.b d7
 < 0x00693d34      670006b8       beq.w 0x6943ee
    0x00693d38      554f           subq.w 0x2, a7
    0x00693d3a      3f2e0062       move.w 0x62(a6), -(a7)
    0x00693d3e      4e92           jsr (a2)                    ; fcn.00000009+0x2
    0x00693d40      544f           addq.w 0x2, a7
    0x00693d42      4a1f           tst.b (a7)+
 < 0x00693d44      6610           bne.b 0x693d56
    0x00693d46      554f           subq.w 0x2, a7
    0x00693d48      3f2e005e       move.w 0x5e(a6), -(a7)
    0x00693d4c      4e92           jsr (a2)                    ; fcn.00000009+0x2
    0x00693d4e      544f           addq.w 0x2, a7
    0x00693d50      4a1f           tst.b (a7)+
 < 0x00693d52      670001e0       beq.w 0x693f34
 > 0x00693d56      554f           subq.w 0x2, a7
    0x00693d58      3f2e0060       move.w 0x60(a6), -(a7)
    0x00693d5c      4e92           jsr (a2)                    ; fcn.00000009+0x2
    0x00693d5e      544f           addq.w 0x2, a7
    0x00693d60      4a1f           tst.b (a7)+
 < 0x00693d62      660e           bne.b 0x693d72
    0x00693d64      554f           subq.w 0x2, a7
    0x00693d66      3f2e005c       move.w 0x5c(a6), -(a7)
    0x00693d6a      4e92           jsr (a2)                    ; fcn.00000009+0x2
    0x00693d6c      544f           addq.w 0x2, a7
    0x00693d6e      4a1f           tst.b (a7)+
 < 0x00693d70      677a           beq.b 0x693dec
 > 0x00693d72      0c810000000f   cmpi.l 0xf, d1
 < 0x00693d78      6302           bls.b 0x693d7c
    0x00693d7a      4e4f           trap 0xf
 > 0x00693d7c      2801           move.l d1, d4
    0x00693d7e      760a           moveq 0xa, d3
    0x00693d80      4eb900406a74   jsr fcn.00406a74
    0x00693d86      2f04           move.l d4, -(a7)
    0x00693d88      0c820000000f   cmpi.l 0xf, d2
 < 0x00693d8e      6302           bls.b 0x693d92
    0x00693d90      4e4f           trap 0xf
 > 0x00693d92      2802           move.l d2, d4
    0x00693d94      760a           moveq 0xa, d3
    0x00693d96      4eb900406a74   jsr fcn.00406a74
    0x00693d9c      b286           cmp.l d6, d1
 < 0x00693d9e      6302           bls.b 0x693da2
    0x00693da0      4e4f           trap 0xf
 > 0x00693da2      2601           move.l d1, d3
    0x00693da4      e383           asl.l 0x1, d3
    0x00693da6      204b           movea.l a3, a0
    0x00693da8      41f03800       lea.l (a0, d3.l), a0
    0x00693dac      3f28057a       move.w 0x57a(a0), -(a7)
    0x00693db0      b486           cmp.l d6, d2
 < 0x00693db2      6302           bls.b 0x693db6
    0x00693db4      4e4f           trap 0xf
 > 0x00693db6      2602           move.l d2, d3
    0x00693db8      e383           asl.l 0x1, d3
    0x00693dba      204b           movea.l a3, a0
    0x00693dbc      41f03800       lea.l (a0, d3.l), a0
    0x00693dc0      3f28058a       move.w 0x58a(a0), -(a7)
    0x00693dc4      2f01           move.l d1, -(a7)
    0x00693dc6      2f02           move.l d2, -(a7)
    0x00693dc8      2f2efaaa       move.l -0x556(a6), -(a7)
    0x00693dcc      262f0010       move.l 0x10(a7), d3
    0x00693dd0      204b           movea.l a3, a0
    0x00693dd2      48703820       pea.l 0x20(a0, d3.l)
    0x00693dd6      204b           movea.l a3, a0
    0x00693dd8      41f04800       lea.l (a0, d4.l), a0
    0x00693ddc      486800c0       pea.l 0xc0(a0)
    0x00693de0      4ebaeb8a       jsr BOOTCOM.copy_boot(pc)
    0x00693de4      defc001c       adda.w 0x1c, a7
 < 0x00693de8      6000012c       bra.w 0x693f16
 > 0x00693dec      554f           subq.w 0x2, a7
    0x00693dee      3f2e0058       move.w 0x58(a6), -(a7)
    0x00693df2      4e92           jsr (a2)                    ; fcn.00000009+0x2
    0x00693df4      544f           addq.w 0x2, a7
    0x00693df6      4a1f           tst.b (a7)+
 < 0x00693df8      660e           bne.b 0x693e08
    0x00693dfa      554f           subq.w 0x2, a7
    0x00693dfc      3f2e0048       move.w 0x48(a6), -(a7)
    0x00693e00      4e92           jsr (a2)                    ; fcn.00000009+0x2
    0x00693e02      544f           addq.w 0x2, a7
    0x00693e04      4a1f           tst.b (a7)+
 < 0x00693e06      677c           beq.b 0x693e84
 > 0x00693e08      0c820000000f   cmpi.l 0xf, d2
 < 0x00693e0e      6302           bls.b 0x693e12
    0x00693e10      4e4f           trap 0xf
 > 0x00693e12      2802           move.l d2, d4
    0x00693e14      760a           moveq 0xa, d3
    0x00693e16      4eb900406a74   jsr fcn.00406a74
    0x00693e1c      4227           clr.b -(a7)
    0x00693e1e      b286           cmp.l d6, d1
 < 0x00693e20      6302           bls.b 0x693e24
    0x00693e22      4e4f           trap 0xf
 > 0x00693e24      2601           move.l d1, d3
    0x00693e26      e383           asl.l 0x1, d3
    0x00693e28      204b           movea.l a3, a0
    0x00693e2a      41f03800       lea.l (a0, d3.l), a0
    0x00693e2e      3f28057a       move.w 0x57a(a0), -(a7)
    0x00693e32      b486           cmp.l d6, d2
 < 0x00693e34      6302           bls.b 0x693e38
    0x00693e36      4e4f           trap 0xf
 > 0x00693e38      2602           move.l d2, d3
    0x00693e3a      e383           asl.l 0x1, d3
    0x00693e3c      204b           movea.l a3, a0
    0x00693e3e      41f03800       lea.l (a0, d3.l), a0
    0x00693e42      3f28058a       move.w 0x58a(a0), -(a7)
    0x00693e46      9efc0100       suba.w 0x100, a7
    0x00693e4a      204f           movea.l a7, a0
    0x00693e4c      43eefdfe       lea.l -0x202(a6), a1
    0x00693e50      763f           moveq 0x3f, d3
 > 0x00693e52      20d9           move.l (a1)+, (a0)+
 < 0x00693e54      51cbfffc       dbra d3, 0x693e52
    0x00693e58      4227           clr.b -(a7)
    0x00693e5a      4227           clr.b -(a7)
    0x00693e5c      2f2efaae       move.l -0x552(a6), -(a7)
    0x00693e60      2f2efaaa       move.l -0x556(a6), -(a7)
    0x00693e64      2f01           move.l d1, -(a7)
    0x00693e66      2f02           move.l d2, -(a7)
    0x00693e68      204b           movea.l a3, a0
    0x00693e6a      41f04800       lea.l (a0, d4.l), a0
    0x00693e6e      9efc000a       suba.w 0xa, a7
    0x00693e72      224f           movea.l a7, a1
    0x00693e74      41e800c0       lea.l 0xc0(a0), a0
    0x00693e78      7609           moveq 0x9, d3
 > 0x00693e7a      12d8           move.b (a0)+, (a1)+
 < 0x00693e7c      51cbfffc       dbra d3, 0x693e7a
 < 0x00693e80      6000008c       bra.w 0x693f0e
 > 0x00693e84      554f           subq.w 0x2, a7
    0x00693e86      3f2e0054       move.w 0x54(a6), -(a7)
    0x00693e8a      4e92           jsr (a2)                    ; fcn.00000009+0x2
    0x00693e8c      544f           addq.w 0x2, a7
    0x00693e8e      4a1f           tst.b (a7)+
 < 0x00693e90      67000084       beq.w 0x693f16
    0x00693e94      0c820000000f   cmpi.l 0xf, d2
 < 0x00693e9a      6302           bls.b 0x693e9e
    0x00693e9c      4e4f           trap 0xf
 > 0x00693e9e      2802           move.l d2, d4
    0x00693ea0      760a           moveq 0xa, d3
    0x00693ea2      4eb900406a74   jsr fcn.00406a74
    0x00693ea8      1f3c0001       move.b 0x1, -(a7)
    0x00693eac      b286           cmp.l d6, d1
 < 0x00693eae      6302           bls.b 0x693eb2
    0x00693eb0      4e4f           trap 0xf
 > 0x00693eb2      2601           move.l d1, d3
    0x00693eb4      e383           asl.l 0x1, d3
    0x00693eb6      204b           movea.l a3, a0
    0x00693eb8      41f03800       lea.l (a0, d3.l), a0
    0x00693ebc      3f28057a       move.w 0x57a(a0), -(a7)
    0x00693ec0      b486           cmp.l d6, d2
 < 0x00693ec2      6302           bls.b 0x693ec6
    0x00693ec4      4e4f           trap 0xf
 > 0x00693ec6      2602           move.l d2, d3
    0x00693ec8      e383           asl.l 0x1, d3
    0x00693eca      204b           movea.l a3, a0
    0x00693ecc      41f03800       lea.l (a0, d3.l), a0
    0x00693ed0      3f28058a       move.w 0x58a(a0), -(a7)
    0x00693ed4      9efc0100       suba.w 0x100, a7
    0x00693ed8      204f           movea.l a7, a0
    0x00693eda      43fa9451       lea.l 0x68d32d(pc), a1
    0x00693ede      7606           moveq 0x6, d3
 > 0x00693ee0      10d9           move.b (a1)+, (a0)+
 < 0x00693ee2      51cbfffc       dbra d3, 0x693ee0
    0x00693ee6      4227           clr.b -(a7)
    0x00693ee8      4227           clr.b -(a7)
    0x00693eea      2f2efaae       move.l -0x552(a6), -(a7)
    0x00693eee      2f2efaaa       move.l -0x556(a6), -(a7)
    0x00693ef2      2f01           move.l d1, -(a7)
    0x00693ef4      2f02           move.l d2, -(a7)
    0x00693ef6      204b           movea.l a3, a0
    0x00693ef8      41f04800       lea.l (a0, d4.l), a0
    0x00693efc      9efc000a       suba.w 0xa, a7
    0x00693f00      224f           movea.l a7, a1
    0x00693f02      41e800c0       lea.l 0xc0(a0), a0
    0x00693f06      7609           moveq 0x9, d3
 > 0x00693f08      12d8           move.b (a0)+, (a1)+
 < 0x00693f0a      51cbfffc       dbra d3, 0x693f08
 > 0x00693f0e      4ebad688       jsr BOOTCOM.load_sw(pc)
    0x00693f12      defc0124       adda.w 0x124, a7
 > 0x00693f16      554f           subq.w 0x2, a7
    0x00693f18      3f2e005e       move.w 0x5e(a6), -(a7)
    0x00693f1c      4e92           jsr (a2)                    ; fcn.00000009+0x2
    0x00693f1e      544f           addq.w 0x2, a7
    0x00693f20      4a1f           tst.b (a7)+
 < 0x00693f22      670004ca       beq.w 0x6943ee
    0x00693f26      2f2efaaa       move.l -0x556(a6), -(a7)
    0x00693f2a      4ebaa792       jsr BOOTCOM.check_boot_list(pc)
 > 0x00693f2e      584f           addq.w 0x4, a7
 < 0x00693f30      600004bc       bra.w 0x6943ee
 > 0x00693f34      554f           subq.w 0x2, a7
    0x00693f36      3f2e005a       move.w 0x5a(a6), -(a7)
    0x00693f3a      4e92           jsr (a2)                    ; fcn.00000009+0x2
    0x00693f3c      544f           addq.w 0x2, a7
    0x00693f3e      4a1f           tst.b (a7)+
 < 0x00693f40      6610           bne.b 0x693f52
    0x00693f42      554f           subq.w 0x2, a7
    0x00693f44      3f2e004a       move.w 0x4a(a6), -(a7)
    0x00693f48      4e92           jsr (a2)                    ; fcn.00000009+0x2
    0x00693f4a      544f           addq.w 0x2, a7
    0x00693f4c      4a1f           tst.b (a7)+
 < 0x00693f4e      6700028c       beq.w 0x6941dc
 > 0x00693f52      554f           subq.w 0x2, a7
    0x00693f54      3f2e0060       move.w 0x60(a6), -(a7)
    0x00693f58      4e92           jsr (a2)                    ; fcn.00000009+0x2
    0x00693f5a      544f           addq.w 0x2, a7
    0x00693f5c      4a1f           tst.b (a7)+
 < 0x00693f5e      6610           bne.b 0x693f70
    0x00693f60      554f           subq.w 0x2, a7
    0x00693f62      3f2e005c       move.w 0x5c(a6), -(a7)
    0x00693f66      4e92           jsr (a2)                    ; fcn.00000009+0x2
    0x00693f68      544f           addq.w 0x2, a7
    0x00693f6a      4a1f           tst.b (a7)+
 < 0x00693f6c      6700008c       beq.w 0x693ffa
 > 0x00693f70      0c810000000f   cmpi.l 0xf, d1
 < 0x00693f76      6302           bls.b 0x693f7a
    0x00693f78      4e4f           trap 0xf
 > 0x00693f7a      2801           move.l d1, d4
    0x00693f7c      760a           moveq 0xa, d3
    0x00693f7e      4eb900406a74   jsr fcn.00406a74
    0x00693f84      2f04           move.l d4, -(a7)
    0x00693f86      0c820000000f   cmpi.l 0xf, d2
 < 0x00693f8c      6302           bls.b 0x693f90
    0x00693f8e      4e4f           trap 0xf
 > 0x00693f90      2802           move.l d2, d4
    0x00693f92      760a           moveq 0xa, d3
    0x00693f94      4eb900406a74   jsr fcn.00406a74
    0x00693f9a      b286           cmp.l d6, d1
 < 0x00693f9c      6302           bls.b 0x693fa0
    0x00693f9e      4e4f           trap 0xf
 > 0x00693fa0      2601           move.l d1, d3
    0x00693fa2      e383           asl.l 0x1, d3
    0x00693fa4      204b           movea.l a3, a0
    0x00693fa6      41f03800       lea.l (a0, d3.l), a0
    0x00693faa      3f28057a       move.w 0x57a(a0), -(a7)
    0x00693fae      b486           cmp.l d6, d2
 < 0x00693fb0      6302           bls.b 0x693fb4
    0x00693fb2      4e4f           trap 0xf
 > 0x00693fb4      2602           move.l d2, d3
    0x00693fb6      e383           asl.l 0x1, d3
    0x00693fb8      204b           movea.l a3, a0
    0x00693fba      41f03800       lea.l (a0, d3.l), a0
    0x00693fbe      3f28058a       move.w 0x58a(a0), -(a7)
    0x00693fc2      9efc0100       suba.w 0x100, a7
    0x00693fc6      204f           movea.l a7, a0
    0x00693fc8      43eefefe       lea.l -0x102(a6), a1
    0x00693fcc      763f           moveq 0x3f, d3
 > 0x00693fce      20d9           move.l (a1)+, (a0)+
 < 0x00693fd0      51cbfffc       dbra d3, 0x693fce
    0x00693fd4      2f2efaaa       move.l -0x556(a6), -(a7)
    0x00693fd8      2f02           move.l d2, -(a7)
    0x00693fda      262f010c       move.l 0x10c(a7), d3
    0x00693fde      204b           movea.l a3, a0
    0x00693fe0      48703820       pea.l 0x20(a0, d3.l)
    0x00693fe4      204b           movea.l a3, a0
    0x00693fe6      41f04800       lea.l (a0, d4.l), a0
    0x00693fea      486800c0       pea.l 0xc0(a0)
    0x00693fee      4ebadd26       jsr BOOTCOM.make_magopt(pc)
    0x00693ff2      defc0114       adda.w 0x114, a7
 < 0x00693ff6      6000ff36       bra.w 0x693f2e
 > 0x00693ffa      554f           subq.w 0x2, a7
    0x00693ffc      3f2e0058       move.w 0x58(a6), -(a7)
    0x00694000      4e92           jsr (a2)                    ; fcn.00000009+0x2
    0x00694002      544f           addq.w 0x2, a7
    0x00694004      4a1f           tst.b (a7)+
 < 0x00694006      6610           bne.b 0x694018
    0x00694008      554f           subq.w 0x2, a7
    0x0069400a      3f2e0048       move.w 0x48(a6), -(a7)
    0x0069400e      4e92           jsr (a2)                    ; fcn.00000009+0x2
    0x00694010      544f           addq.w 0x2, a7
    0x00694012      4a1f           tst.b (a7)+
 < 0x00694014      67000128       beq.w 0x69413e
 > 0x00694018      9efc0100       suba.w 0x100, a7
    0x0069401c      7609           moveq 0x9, d3
    0x0069401e      41ef0001       lea.l 0x1(a7), a0
    0x00694022      43fa9311       lea.l 0x68d335(pc), a1
 > 0x00694026      10d9           move.b (a1)+, (a0)+
 < 0x00694028      51cbfffc       dbra d3, 0x694026
    0x0069402c      4243           clr.w d3
    0x0069402e      162efdfe       move.b -0x202(a6), d3
    0x00694032      0603000a       addi.b 0xa, d3
 < 0x00694036      6406           bcc.b 0x69403e
    0x00694038      4eb900406c8a   jsr p_strovr
 > 0x0069403e      4243           clr.w d3
    0x00694040      162efdfe       move.b -0x202(a6), d3
    0x00694044      383c00ff       move.w 0xff, d4
    0x00694048      0444000a       subi.w 0xa, d4
    0x0069404c      b644           cmp.w d4, d3
 < 0x0069404e      6302           bls.b 0x694052
    0x00694050      3604           move.w d4, d3
 > 0x00694052      1ebc000a       move.b 0xa, (a7)
    0x00694056      d717           add.b d3, (a7)
    0x00694058      5303           subq.b 0x1, d3
 < 0x0069405a      650a           bcs.b 0x694066
    0x0069405c      43eefdff       lea.l -0x201(a6), a1
 > 0x00694060      10d9           move.b (a1)+, (a0)+
 < 0x00694062      51cbfffc       dbra d3, 0x694060
 > 0x00694066      9efc0100       suba.w 0x100, a7
    0x0069406a      4243           clr.w d3
    0x0069406c      162f0100       move.b 0x100(a7), d3
    0x00694070      3803           move.w d3, d4
    0x00694072      41ef0001       lea.l 0x1(a7), a0
    0x00694076      5304           subq.b 0x1, d4
 < 0x00694078      650a           bcs.b 0x694084
    0x0069407a      43ef0101       lea.l 0x101(a7), a1
 > 0x0069407e      10d9           move.b (a1)+, (a0)+
 < 0x00694080      51ccfffc       dbra d4, 0x69407e
 > 0x00694084      7804           moveq 0x4, d4
    0x00694086      d803           add.b d3, d4
 < 0x00694088      6406           bcc.b 0x694090
    0x0069408a      4eb900406c8a   jsr p_strovr
 > 0x00694090      7804           moveq 0x4, d4
    0x00694092      3a3c00ff       move.w 0xff, d5
    0x00694096      9a43           sub.w d3, d5
    0x00694098      b845           cmp.w d5, d4
 < 0x0069409a      6302           bls.b 0x69409e
    0x0069409c      3805           move.w d5, d4
 > 0x0069409e      1e83           move.b d3, (a7)
    0x006940a0      d917           add.b d4, (a7)
    0x006940a2      43fa929c       lea.l 0x68d340(pc), a1
 > 0x006940a6      10d9           move.b (a1)+, (a0)+
 < 0x006940a8      51ccfffc       dbra d4, 0x6940a6
    0x006940ac      9efc0100       suba.w 0x100, a7
    0x006940b0      4243           clr.w d3
    0x006940b2      162f0100       move.b 0x100(a7), d3
    0x006940b6      3803           move.w d3, d4
    0x006940b8      41ef0001       lea.l 0x1(a7), a0
    0x006940bc      5304           subq.b 0x1, d4
 < 0x006940be      650a           bcs.b 0x6940ca
    0x006940c0      43ef0101       lea.l 0x101(a7), a1
 > 0x006940c4      10d9           move.b (a1)+, (a0)+
 < 0x006940c6      51ccfffc       dbra d4, 0x6940c4
 > 0x006940ca      4244           clr.w d4
    0x006940cc      182efefe       move.b -0x102(a6), d4
    0x006940d0      d803           add.b d3, d4
 < 0x006940d2      6406           bcc.b 0x6940da
    0x006940d4      4eb900406c8a   jsr p_strovr
 > 0x006940da      4244           clr.w d4
    0x006940dc      182efefe       move.b -0x102(a6), d4
    0x006940e0      3a3c00ff       move.w 0xff, d5
    0x006940e4      9a43           sub.w d3, d5
    0x006940e6      b845           cmp.w d5, d4
 < 0x006940e8      6302           bls.b 0x6940ec
    0x006940ea      3805           move.w d5, d4
 > 0x006940ec      1e83           move.b d3, (a7)
    0x006940ee      d917           add.b d4, (a7)
    0x006940f0      5304           subq.b 0x1, d4
 < 0x006940f2      650a           bcs.b 0x6940fe
    0x006940f4      43eefeff       lea.l -0x101(a6), a1
 > 0x006940f8      10d9           move.b (a1)+, (a0)+
 < 0x006940fa      51ccfffc       dbra d4, 0x6940f8
 > 0x006940fe      9efc0100       suba.w 0x100, a7
    0x00694102      204f           movea.l a7, a0
    0x00694104      43ef0100       lea.l 0x100(a7), a1
    0x00694108      763f           moveq 0x3f, d3
 > 0x0069410a      20d9           move.l (a1)+, (a0)+
 < 0x0069410c      51cbfffc       dbra d3, 0x69410a
    0x00694110      b486           cmp.l d6, d2
 < 0x00694112      6302           bls.b 0x694116
    0x00694114      4e4f           trap 0xf
 > 0x00694116      2602           move.l d2, d3
    0x00694118      e383           asl.l 0x1, d3
    0x0069411a      204b           movea.l a3, a0
    0x0069411c      41f03800       lea.l (a0, d3.l), a0
    0x00694120      3f28058a       move.w 0x58a(a0), -(a7)
    0x00694124      486f0002       pea.l 0x2(a7)
    0x00694128      48780000       pea.l 0x0
    0x0069412c      48780100       pea.l 0x100
    0x00694130      4eb900483af8   jsr MENUCOM.box_error
    0x00694136      defc040e       adda.w 0x40e, a7
 < 0x0069413a      600002b2       bra.w 0x6943ee
 > 0x0069413e      554f           subq.w 0x2, a7
    0x00694140      3f2e0054       move.w 0x54(a6), -(a7)
    0x00694144      4e92           jsr (a2)                    ; fcn.00000009+0x2
    0x00694146      544f           addq.w 0x2, a7
    0x00694148      4a1f           tst.b (a7)+
 < 0x0069414a      670002a2       beq.w 0x6943ee
    0x0069414e      9efc0100       suba.w 0x100, a7
    0x00694152      7613           moveq 0x13, d3
    0x00694154      41ef0001       lea.l 0x1(a7), a0
    0x00694158      43fa91eb       lea.l 0x68d345(pc), a1
 > 0x0069415c      10d9           move.b (a1)+, (a0)+
 < 0x0069415e      51cbfffc       dbra d3, 0x69415c
    0x00694162      4243           clr.w d3
    0x00694164      162efefe       move.b -0x102(a6), d3
    0x00694168      06030014       addi.b 0x14, d3
 < 0x0069416c      6406           bcc.b 0x694174
    0x0069416e      4eb900406c8a   jsr p_strovr
 > 0x00694174      4243           clr.w d3
    0x00694176      162efefe       move.b -0x102(a6), d3
    0x0069417a      383c00ff       move.w 0xff, d4
    0x0069417e      04440014       subi.w 0x14, d4
    0x00694182      b644           cmp.w d4, d3
 < 0x00694184      6302           bls.b 0x694188
    0x00694186      3604           move.w d4, d3
 > 0x00694188      1ebc0014       move.b 0x14, (a7)
    0x0069418c      d717           add.b d3, (a7)
    0x0069418e      5303           subq.b 0x1, d3
 < 0x00694190      650a           bcs.b 0x69419c
    0x00694192      43eefeff       lea.l -0x101(a6), a1
 > 0x00694196      10d9           move.b (a1)+, (a0)+
 < 0x00694198      51cbfffc       dbra d3, 0x694196
 > 0x0069419c      9efc0100       suba.w 0x100, a7
    0x006941a0      204f           movea.l a7, a0
    0x006941a2      43ef0100       lea.l 0x100(a7), a1
    0x006941a6      763f           moveq 0x3f, d3
 > 0x006941a8      20d9           move.l (a1)+, (a0)+
 < 0x006941aa      51cbfffc       dbra d3, 0x6941a8
    0x006941ae      b486           cmp.l d6, d2
 < 0x006941b0      6302           bls.b 0x6941b4
    0x006941b2      4e4f           trap 0xf
 > 0x006941b4      2602           move.l d2, d3
    0x006941b6      e383           asl.l 0x1, d3
    0x006941b8      204b           movea.l a3, a0
    0x006941ba      41f03800       lea.l (a0, d3.l), a0
    0x006941be      3f28058a       move.w 0x58a(a0), -(a7)
    0x006941c2      486f0002       pea.l 0x2(a7)
    0x006941c6      48780000       pea.l 0x0
    0x006941ca      48780100       pea.l 0x100
    0x006941ce      4eb900483af8   jsr MENUCOM.box_error
    0x006941d4      defc020e       adda.w 0x20e, a7
 < 0x006941d8      60000214       bra.w 0x6943ee
 > 0x006941dc      554f           subq.w 0x2, a7
    0x006941de      3f2e0056       move.w 0x56(a6), -(a7)
    0x006941e2      4e92           jsr (a2)                    ; fcn.00000009+0x2
    0x006941e4      544f           addq.w 0x2, a7
    0x006941e6      4a1f           tst.b (a7)+
 < 0x006941e8      67000204       beq.w 0x6943ee
    0x006941ec      554f           subq.w 0x2, a7
    0x006941ee      3f2e0060       move.w 0x60(a6), -(a7)
    0x006941f2      4e92           jsr (a2)                    ; fcn.00000009+0x2
    0x006941f4      544f           addq.w 0x2, a7
    0x006941f6      4a1f           tst.b (a7)+
 < 0x006941f8      6610           bne.b 0x69420a
    0x006941fa      554f           subq.w 0x2, a7
    0x006941fc      3f2e005c       move.w 0x5c(a6), -(a7)
    0x00694200      4e92           jsr (a2)                    ; fcn.00000009+0x2
    0x00694202      544f           addq.w 0x2, a7
    0x00694204      4a1f           tst.b (a7)+
 < 0x00694206      670000ac       beq.w 0x6942b4
 > 0x0069420a      0c810000000f   cmpi.l 0xf, d1
 < 0x00694210      6302           bls.b 0x694214
    0x00694212      4e4f           trap 0xf
 > 0x00694214      2801           move.l d1, d4
    0x00694216      760a           moveq 0xa, d3
    0x00694218      4eb900406a74   jsr fcn.00406a74
    0x0069421e      2f04           move.l d4, -(a7)
    0x00694220      0c820000000f   cmpi.l 0xf, d2
 < 0x00694226      6302           bls.b 0x69422a
    0x00694228      4e4f           trap 0xf
 > 0x0069422a      2802           move.l d2, d4
    0x0069422c      760a           moveq 0xa, d3
    0x0069422e      4eb900406a74   jsr fcn.00406a74
    0x00694234      b286           cmp.l d6, d1
 < 0x00694236      6302           bls.b 0x69423a
    0x00694238      4e4f           trap 0xf
 > 0x0069423a      2601           move.l d1, d3
    0x0069423c      e383           asl.l 0x1, d3
    0x0069423e      204b           movea.l a3, a0
    0x00694240      41f03800       lea.l (a0, d3.l), a0
    0x00694244      3f28057a       move.w 0x57a(a0), -(a7)
    0x00694248      b486           cmp.l d6, d2
 < 0x0069424a      6302           bls.b 0x69424e
    0x0069424c      4e4f           trap 0xf
 > 0x0069424e      2602           move.l d2, d3
    0x00694250      e383           asl.l 0x1, d3
    0x00694252      204b           movea.l a3, a0
    0x00694254      41f03800       lea.l (a0, d3.l), a0
    0x00694258      3f28058a       move.w 0x58a(a0), -(a7)
    0x0069425c      9efc0100       suba.w 0x100, a7
    0x00694260      204f           movea.l a7, a0
    0x00694262      43fa90f5       lea.l 0x68d359(pc), a1
    0x00694266      7606           moveq 0x6, d3
 > 0x00694268      10d9           move.b (a1)+, (a0)+
 < 0x0069426a      51cbfffc       dbra d3, 0x694268
    0x0069426e      4227           clr.b -(a7)
    0x00694270      4227           clr.b -(a7)
    0x00694272      2f2efab2       move.l -0x54e(a6), -(a7)
    0x00694276      262f010c       move.l 0x10c(a7), d3
    0x0069427a      204b           movea.l a3, a0
    0x0069427c      9efc000a       suba.w 0xa, a7
    0x00694280      224f           movea.l a7, a1
    0x00694282      41f03820       lea.l 0x20(a0, d3.l), a0
    0x00694286      7609           moveq 0x9, d3
 > 0x00694288      12d8           move.b (a0)+, (a1)+
 < 0x0069428a      51cbfffc       dbra d3, 0x694288
    0x0069428e      204b           movea.l a3, a0
    0x00694290      41f04800       lea.l (a0, d4.l), a0
    0x00694294      9efc000a       suba.w 0xa, a7
    0x00694298      224f           movea.l a7, a1
    0x0069429a      41e800c0       lea.l 0xc0(a0), a0
    0x0069429e      7609           moveq 0x9, d3
 > 0x006942a0      12d8           move.b (a0)+, (a1)+
 < 0x006942a2      51cbfffc       dbra d3, 0x6942a0
    0x006942a6      2f02           move.l d2, -(a7)
    0x006942a8      4ebacf7e       jsr BOOTCOM.make_floppies(pc)
    0x006942ac      defc0124       adda.w 0x124, a7
 < 0x006942b0      6000fc7c       bra.w 0x693f2e
 > 0x006942b4      554f           subq.w 0x2, a7
    0x006942b6      3f2e0058       move.w 0x58(a6), -(a7)
    0x006942ba      4e92           jsr (a2)                    ; fcn.00000009+0x2
    0x006942bc      544f           addq.w 0x2, a7
    0x006942be      4a1f           tst.b (a7)+
 < 0x006942c0      6610           bne.b 0x6942d2
    0x006942c2      554f           subq.w 0x2, a7
    0x006942c4      3f2e0048       move.w 0x48(a6), -(a7)
    0x006942c8      4e92           jsr (a2)                    ; fcn.00000009+0x2
    0x006942ca      544f           addq.w 0x2, a7
    0x006942cc      4a1f           tst.b (a7)+
 < 0x006942ce      670000d4       beq.w 0x6943a4
 > 0x006942d2      9efc0100       suba.w 0x100, a7
    0x006942d6      7609           moveq 0x9, d3
    0x006942d8      41ef0001       lea.l 0x1(a7), a0
    0x006942dc      43fa9083       lea.l 0x68d361(pc), a1
 > 0x006942e0      10d9           move.b (a1)+, (a0)+
 < 0x006942e2      51cbfffc       dbra d3, 0x6942e0
    0x006942e6      4243           clr.w d3
    0x006942e8      162efdfe       move.b -0x202(a6), d3
    0x006942ec      0603000a       addi.b 0xa, d3
 < 0x006942f0      6406           bcc.b 0x6942f8
    0x006942f2      4eb900406c8a   jsr p_strovr
 > 0x006942f8      4243           clr.w d3
    0x006942fa      162efdfe       move.b -0x202(a6), d3
    0x006942fe      383c00ff       move.w 0xff, d4
    0x00694302      0444000a       subi.w 0xa, d4
    0x00694306      b644           cmp.w d4, d3
 < 0x00694308      6302           bls.b 0x69430c
    0x0069430a      3604           move.w d4, d3
 > 0x0069430c      1ebc000a       move.b 0xa, (a7)
    0x00694310      d717           add.b d3, (a7)
    0x00694312      5303           subq.b 0x1, d3
 < 0x00694314      650a           bcs.b 0x694320
    0x00694316      43eefdff       lea.l -0x201(a6), a1
 > 0x0069431a      10d9           move.b (a1)+, (a0)+
 < 0x0069431c      51cbfffc       dbra d3, 0x69431a
 > 0x00694320      9efc0100       suba.w 0x100, a7
    0x00694324      4243           clr.w d3
    0x00694326      162f0100       move.b 0x100(a7), d3
    0x0069432a      3803           move.w d3, d4
    0x0069432c      41ef0001       lea.l 0x1(a7), a0
    0x00694330      5304           subq.b 0x1, d4
 < 0x00694332      650a           bcs.b 0x69433e
    0x00694334      43ef0101       lea.l 0x101(a7), a1
 > 0x00694338      10d9           move.b (a1)+, (a0)+
 < 0x0069433a      51ccfffc       dbra d4, 0x694338
 > 0x0069433e      780a           moveq 0xa, d4
    0x00694340      d803           add.b d3, d4
 < 0x00694342      6406           bcc.b 0x69434a
    0x00694344      4eb900406c8a   jsr p_strovr
 > 0x0069434a      780a           moveq 0xa, d4
    0x0069434c      3a3c00ff       move.w 0xff, d5
    0x00694350      9a43           sub.w d3, d5
    0x00694352      b845           cmp.w d5, d4
 < 0x00694354      6302           bls.b 0x694358
    0x00694356      3805           move.w d5, d4
 > 0x00694358      1e83           move.b d3, (a7)
    0x0069435a      d917           add.b d4, (a7)
    0x0069435c      43fa900e       lea.l 0x68d36c(pc), a1
 > 0x00694360      10d9           move.b (a1)+, (a0)+
 < 0x00694362      51ccfffc       dbra d4, 0x694360
    0x00694366      9efc0100       suba.w 0x100, a7
    0x0069436a      204f           movea.l a7, a0
    0x0069436c      43ef0100       lea.l 0x100(a7), a1
    0x00694370      763f           moveq 0x3f, d3
 > 0x00694372      20d9           move.l (a1)+, (a0)+
 < 0x00694374      51cbfffc       dbra d3, 0x694372
    0x00694378      b486           cmp.l d6, d2
 < 0x0069437a      6302           bls.b 0x69437e
    0x0069437c      4e4f           trap 0xf
 > 0x0069437e      2602           move.l d2, d3
    0x00694380      e383           asl.l 0x1, d3
    0x00694382      204b           movea.l a3, a0
    0x00694384      41f03800       lea.l (a0, d3.l), a0
    0x00694388      3f28058a       move.w 0x58a(a0), -(a7)
    0x0069438c      486f0002       pea.l 0x2(a7)
    0x00694390      48780000       pea.l 0x0
    0x00694394      48780100       pea.l 0x100
    0x00694398      4eb900483af8   jsr MENUCOM.box_error
    0x0069439e      defc030e       adda.w 0x30e, a7
 < 0x006943a2      604a           bra.b 0x6943ee
 > 0x006943a4      554f           subq.w 0x2, a7
    0x006943a6      3f2e0054       move.w 0x54(a6), -(a7)
    0x006943aa      4e92           jsr (a2)                    ; fcn.00000009+0x2
    0x006943ac      544f           addq.w 0x2, a7
    0x006943ae      4a1f           tst.b (a7)+
 < 0x006943b0      673c           beq.b 0x6943ee
    0x006943b2      9efc001a       suba.w 0x1a, a7
    0x006943b6      204f           movea.l a7, a0
    0x006943b8      43fa8fbd       lea.l 0x68d377(pc), a1
    0x006943bc      7619           moveq 0x19, d3
 > 0x006943be      10d9           move.b (a1)+, (a0)+
 < 0x006943c0      51cbfffc       dbra d3, 0x6943be
    0x006943c4      b486           cmp.l d6, d2
 < 0x006943c6      6302           bls.b 0x6943ca
    0x006943c8      4e4f           trap 0xf
 > 0x006943ca      2602           move.l d2, d3
    0x006943cc      e383           asl.l 0x1, d3
    0x006943ce      204b           movea.l a3, a0
    0x006943d0      41f03800       lea.l (a0, d3.l), a0
    0x006943d4      3f28058a       move.w 0x58a(a0), -(a7)
    0x006943d8      486f0002       pea.l 0x2(a7)
    0x006943dc      48780001       pea.l 0x1
    0x006943e0      4878001a       pea.l 0x1a
    0x006943e4      4eb900483af8   jsr MENUCOM.box_error
    0x006943ea      defc0028       adda.w 0x28, a7
 > 0x006943ee      2f2efaa6       move.l -0x55a(a6), -(a7)
    0x006943f2      486e0018       pea.l 0x18(a6)
    0x006943f6      486efabe       pea.l -0x542(a6)
    0x006943fa      486efbfe       pea.l -0x402(a6)
    0x006943fe      4ebae91e       jsr BOOTCOM.update_boot_lis(pc)
    0x00694402      defc000c       adda.w 0xc, a7
    0x00694406      2eaefaaa       move.l -0x556(a6), (a7)
    0x0069440a      486e0028       pea.l 0x28(a6)
    0x0069440e      486efb5e       pea.l -0x4a2(a6)
    0x00694412      486efcfe       pea.l -0x302(a6)
    0x00694416      4ebae906       jsr BOOTCOM.update_boot_lis(pc)
    0x0069441a      defc000e       adda.w 0xe, a7
    0x0069441e      3eae0014       move.w 0x14(a6), (a7)
 < 0x00694422      6000f812       bra.w 0x693c36
  > 0x00694426      554f           subq.w 0x2, a7
      0x00694428      3f2e000a       move.w 0xa(a6), -(a7)
      0x0069442c      4e92           jsr (a2)                    ; fcn.00000009+0x2
      0x0069442e      544f           addq.w 0x2, a7
      0x00694430      4a1f           tst.b (a7)+
  < 0x00694432      6700015e       beq.w 0x694592
     0x00694436      222efab6       move.l -0x54a(a6), d1
     0x0069443a      0c81ffffffff   cmpi.l 0xffffffff, d1
 < 0x00694440      674e           beq.b 0x694490
    0x00694442      242efaba       move.l -0x546(a6), d2
    0x00694446      0c82ffffffff   cmpi.l 0xffffffff, d2
 < 0x0069444c      6742           beq.b 0x694490
    0x0069444e      9efc001e       suba.w 0x1e, a7
    0x00694452      204f           movea.l a7, a0
    0x00694454      43fa8f3c       lea.l 0x68d392(pc), a1
    0x00694458      7406           moveq 0x6, d2
 > 0x0069445a      20d9           move.l (a1)+, (a0)+
 < 0x0069445c      51cafffc       dbra d2, 0x69445a
    0x00694460      10d9           move.b (a1)+, (a0)+
    0x00694462      b286           cmp.l d6, d1
 < 0x00694464      6302           bls.b 0x694468
    0x00694466      4e4f           trap 0xf
 > 0x00694468      2401           move.l d1, d2
    0x0069446a      e382           asl.l 0x1, d2
    0x0069446c      204b           movea.l a3, a0
    0x0069446e      41f02800       lea.l (a0, d2.l), a0
    0x00694472      3f28057a       move.w 0x57a(a0), -(a7)
    0x00694476      486f0002       pea.l 0x2(a7)
    0x0069447a      48780001       pea.l 0x1
    0x0069447e      4878001d       pea.l 0x1d
    0x00694482      4eb900483af8   jsr MENUCOM.box_error
    0x00694488      defc002c       adda.w 0x2c, a7
 < 0x0069448c      600000ee       bra.w 0x69457c
 > 0x00694490      0c81ffffffff   cmpi.l 0xffffffff, d1
 < 0x00694496      6750           beq.b 0x6944e8
    0x00694498      b286           cmp.l d6, d1
 < 0x0069449a      6302           bls.b 0x69449e
    0x0069449c      4e4f           trap 0xf
 > 0x0069449e      2401           move.l d1, d2
    0x006944a0      e382           asl.l 0x1, d2
    0x006944a2      204b           movea.l a3, a0
    0x006944a4      41f02800       lea.l (a0, d2.l), a0
    0x006944a8      3f28057a       move.w 0x57a(a0), -(a7)
    0x006944ac      9efc0100       suba.w 0x100, a7
    0x006944b0      204f           movea.l a7, a0
    0x006944b2      43fa8efb       lea.l 0x68d3af(pc), a1
    0x006944b6      7406           moveq 0x6, d2
 > 0x006944b8      10d9           move.b (a1)+, (a0)+
 < 0x006944ba      51cafffc       dbra d2, 0x6944b8
    0x006944be      2f2efaae       move.l -0x552(a6), -(a7)
    0x006944c2      2f01           move.l d1, -(a7)
    0x006944c4      4ebadb9e       jsr BOOTCOM.checksum_magopt(pc)
    0x006944c8      defc0106       adda.w 0x106, a7
    0x006944cc      2eaefaa6       move.l -0x55a(a6), (a7)
    0x006944d0      486e0018       pea.l 0x18(a6)
    0x006944d4      486efabe       pea.l -0x542(a6)
    0x006944d8      486efbfe       pea.l -0x402(a6)
 > 0x006944dc      4ebae840       jsr BOOTCOM.update_boot_lis(pc)
    0x006944e0      defc0010       adda.w 0x10, a7
 < 0x006944e4      60000096       bra.w 0x69457c
 > 0x006944e8      242efaba       move.l -0x546(a6), d2
     0x006944ec      0c82ffffffff   cmpi.l 0xffffffff, d2
 < 0x006944f2      6748           beq.b 0x69453c
    0x006944f4      b486           cmp.l d6, d2
 < 0x006944f6      6302           bls.b 0x6944fa
    0x006944f8      4e4f           trap 0xf
 > 0x006944fa      2602           move.l d2, d3
    0x006944fc      e383           asl.l 0x1, d3
    0x006944fe      204b           movea.l a3, a0
    0x00694500      41f03800       lea.l (a0, d3.l), a0
    0x00694504      3f28058a       move.w 0x58a(a0), -(a7)
    0x00694508      9efc00fc       suba.w 0xfc, a7
    0x0069450c      2f3a8ea8       move.l 0x68d3b6(pc), -(a7)
    0x00694510      3f7a8ea80004   move.w 0x68d3ba(pc), 0x4(a7)
    0x00694516      1f7a8ea40006   move.b 0x68d3bc(pc), 0x6(a7)
    0x0069451c      2f2efab2       move.l -0x54e(a6), -(a7)
    0x00694520      2f02           move.l d2, -(a7)
    0x00694522      4ebadb40       jsr BOOTCOM.checksum_magopt(pc)
    0x00694526      defc0106       adda.w 0x106, a7
    0x0069452a      2eaefaaa       move.l -0x556(a6), (a7)
    0x0069452e      486e0028       pea.l 0x28(a6)
    0x00694532      486efb5e       pea.l -0x4a2(a6)
    0x00694536      486efcfe       pea.l -0x302(a6)
 < 0x0069453a      60a0           bra.b 0x6944dc
 > 0x0069453c      9efc0010       suba.w 0x10, a7
     0x00694540      2f3a8e7c       move.l 0x68d3be(pc), -(a7)
     0x00694544      2f7a8e7c0004   move.l 0x68d3c2(pc), 0x4(a7)
     0x0069454a      2f7a8e7a0008   move.l 0x68d3c6(pc), 0x8(a7)
     0x00694550      2f7a8e78000c   move.l 0x68d3ca(pc), 0xc(a7)
     0x00694556      3f7a8e760010   move.w 0x68d3ce(pc), 0x10(a7)
     0x0069455c      1f7a8e720012   move.b 0x68d3d0(pc), 0x12(a7)
     0x00694562      3f2e0064       move.w 0x64(a6), -(a7)
     0x00694566      486f0002       pea.l 0x2(a7)
     0x0069456a      48780001       pea.l 0x1
     0x0069456e      48780013       pea.l 0x13
     0x00694572      4eb900483af8   jsr MENUCOM.box_error
     0x00694578      defc0022       adda.w 0x22, a7
 > 0x0069457c      3f2e000a       move.w 0xa(a6), -(a7)
 > 0x00694580      4227           clr.b -(a7)
    0x00694582      4eb900483776   jsr MENUCOM.swtch_box
    0x00694588      544f           addq.w 0x2, a7
    0x0069458a      3eae0072       move.w 0x72(a6), (a7)
 < 0x0069458e      60000308       bra.w 0x694898
 > 0x00694592      554f           subq.w 0x2, a7
     0x00694594      3f2e000c       move.w 0xc(a6), -(a7)
     0x00694598      4e92           jsr (a2)                    ; fcn.00000009+0x2
     0x0069459a      544f           addq.w 0x2, a7
     0x0069459c      4a1f           tst.b (a7)+
 < 0x0069459e      6700016a       beq.w 0x69470a
    0x006945a2      7e01           moveq 0x1, d7
    0x006945a4      222efab6       move.l -0x54a(a6), d1
    0x006945a8      0c81ffffffff   cmpi.l 0xffffffff, d1
 < 0x006945ae      6632           bne.b 0x6945e2
    0x006945b0      9efc0018       suba.w 0x18, a7
    0x006945b4      204f           movea.l a7, a0
    0x006945b6      43fa8e1a       lea.l 0x68d3d2(pc), a1
    0x006945ba      7404           moveq 0x4, d2
 > 0x006945bc      20d9           move.l (a1)+, (a0)+
 < 0x006945be      51cafffc       dbra d2, 0x6945bc
    0x006945c2      30d9           move.w (a1)+, (a0)+
    0x006945c4      10d9           move.b (a1)+, (a0)+
    0x006945c6      3f2e0064       move.w 0x64(a6), -(a7)
    0x006945ca      486f0002       pea.l 0x2(a7)
    0x006945ce      48780001       pea.l 0x1
    0x006945d2      48780017       pea.l 0x17
    0x006945d6      4eb900483af8   jsr MENUCOM.box_error
    0x006945dc      defc0026       adda.w 0x26, a7
    0x006945e0      7e00           moveq 0x0, d7
 > 0x006945e2      242efaba       move.l -0x546(a6), d2
    0x006945e6      0c82ffffffff   cmpi.l 0xffffffff, d2
 < 0x006945ec      662a           bne.b 0x694618
    0x006945ee      41fa8e14       lea.l 0x68d404(pc), a0
    0x006945f2      7605           moveq 0x5, d3
 > 0x006945f4      2f20           move.l -(a0), -(a7)
 < 0x006945f6      51cbfffc       dbra d3, 0x6945f4
    0x006945fa      3f20           move.w -(a0), -(a7)
    0x006945fc      3f2e0066       move.w 0x66(a6), -(a7)
    0x00694600      486f0002       pea.l 0x2(a7)
    0x00694604      48780001       pea.l 0x1
    0x00694608      4878001a       pea.l 0x1a
    0x0069460c      4eb900483af8   jsr MENUCOM.box_error
    0x00694612      defc0028       adda.w 0x28, a7
    0x00694616      7e00           moveq 0x0, d7
 > 0x00694618      4a07           tst.b d7
 < 0x0069461a      670000e6       beq.w 0x694702
    0x0069461e      554f           subq.w 0x2, a7
    0x00694620      3f2e0056       move.w 0x56(a6), -(a7)
    0x00694624      4e92           jsr (a2)                    ; fcn.00000009+0x2
    0x00694626      544f           addq.w 0x2, a7
    0x00694628      4a1f           tst.b (a7)+
 < 0x0069462a      67000096       beq.w 0x6946c2
    0x0069462e      554f           subq.w 0x2, a7
    0x00694630      3f2e0060       move.w 0x60(a6), -(a7)
    0x00694634      4e92           jsr (a2)                    ; fcn.00000009+0x2
    0x00694636      544f           addq.w 0x2, a7
    0x00694638      4a1f           tst.b (a7)+
 < 0x0069463a      660e           bne.b 0x69464a
    0x0069463c      554f           subq.w 0x2, a7
    0x0069463e      3f2e005c       move.w 0x5c(a6), -(a7)
    0x00694642      4e92           jsr (a2)                    ; fcn.00000009+0x2
    0x00694644      544f           addq.w 0x2, a7
    0x00694646      4a1f           tst.b (a7)+
 < 0x00694648      6778           beq.b 0x6946c2
 > 0x0069464a      0c810000000f   cmpi.l 0xf, d1
 < 0x00694650      6302           bls.b 0x694654
    0x00694652      4e4f           trap 0xf
 > 0x00694654      2801           move.l d1, d4
    0x00694656      760a           moveq 0xa, d3
    0x00694658      4eb900406a74   jsr fcn.00406a74
    0x0069465e      b286           cmp.l d6, d1
 < 0x00694660      6302           bls.b 0x694664
    0x00694662      4e4f           trap 0xf
 > 0x00694664      2601           move.l d1, d3
    0x00694666      e383           asl.l 0x1, d3
    0x00694668      204b           movea.l a3, a0
    0x0069466a      41f03800       lea.l (a0, d3.l), a0
    0x0069466e      3f28057a       move.w 0x57a(a0), -(a7)
    0x00694672      b486           cmp.l d6, d2
 < 0x00694674      6302           bls.b 0x694678
    0x00694676      4e4f           trap 0xf
 > 0x00694678      2602           move.l d2, d3
    0x0069467a      e383           asl.l 0x1, d3
    0x0069467c      204b           movea.l a3, a0
    0x0069467e      41f03800       lea.l (a0, d3.l), a0
    0x00694682      3f28058a       move.w 0x58a(a0), -(a7)
    0x00694686      9efc00fc       suba.w 0xfc, a7
    0x0069468a      2f3a8d78       move.l 0x68d404(pc), -(a7)
    0x0069468e      3f7a8d780004   move.w 0x68d408(pc), 0x4(a7)
    0x00694694      1f7a8d740006   move.b 0x68d40a(pc), 0x6(a7)
    0x0069469a      4227           clr.b -(a7)
    0x0069469c      4227           clr.b -(a7)
    0x0069469e      2f2efab2       move.l -0x54e(a6), -(a7)
    0x006946a2      2f02           move.l d2, -(a7)
    0x006946a4      204b           movea.l a3, a0
    0x006946a6      9efc000a       suba.w 0xa, a7
    0x006946aa      224f           movea.l a7, a1
    0x006946ac      41f04820       lea.l 0x20(a0, d4.l), a0
    0x006946b0      7609           moveq 0x9, d3
 > 0x006946b2      12d8           move.b (a0)+, (a1)+
 < 0x006946b4      51cbfffc       dbra d3, 0x6946b2
    0x006946b8      4ebad3ec       jsr BOOTCOM.check_floppies(pc)
    0x006946bc      defc011a       adda.w 0x11a, a7
 < 0x006946c0      6040           bra.b 0x694702
 > 0x006946c2      9efc0028       suba.w 0x28, a7
    0x006946c6      204f           movea.l a7, a0
    0x006946c8      43fa8d42       lea.l 0x68d40c(pc), a1
    0x006946cc      7608           moveq 0x8, d3
 > 0x006946ce      20d9           move.l (a1)+, (a0)+
 < 0x006946d0      51cbfffc       dbra d3, 0x6946ce
    0x006946d4      30d9           move.w (a1)+, (a0)+
    0x006946d6      10d9           move.b (a1)+, (a0)+
    0x006946d8      b286           cmp.l d6, d1
 < 0x006946da      6302           bls.b 0x6946de
    0x006946dc      4e4f           trap 0xf
 > 0x006946de      2601           move.l d1, d3
    0x006946e0      e383           asl.l 0x1, d3
    0x006946e2      204b           movea.l a3, a0
    0x006946e4      41f03800       lea.l (a0, d3.l), a0
    0x006946e8      3f28057a       move.w 0x57a(a0), -(a7)
    0x006946ec      486f0002       pea.l 0x2(a7)
    0x006946f0      48780001       pea.l 0x1
    0x006946f4      48780027       pea.l 0x27
    0x006946f8      4eb900483af8   jsr MENUCOM.box_error
    0x006946fe      defc0036       adda.w 0x36, a7
 > 0x00694702      3f2e000c       move.w 0xc(a6), -(a7)
 < 0x00694706      6000f52e       bra.w 0x693c36
  > 0x0069470a      554f           subq.w 0x2, a7
      0x0069470c      3f2e0010       move.w 0x10(a6), -(a7)
      0x00694710      4e92           jsr (a2)                    ; fcn.00000009+0x2
      0x00694712      544f           addq.w 0x2, a7
      0x00694714      4a1f           tst.b (a7)+
  < 0x00694716      6700008a       beq.w 0x6947a2
     0x0069471a      222efab6       move.l -0x54a(a6), d1
     0x0069471e      0c81ffffffff   cmpi.l 0xffffffff, d1
 < 0x00694724      663c           bne.b 0x694762
    0x00694726      9efc000e       suba.w 0xe, a7
    0x0069472a      2f3a8d08       move.l 0x68d434(pc), -(a7)
    0x0069472e      2f7a8d080004   move.l 0x68d438(pc), 0x4(a7)
    0x00694734      2f7a8d060008   move.l 0x68d43c(pc), 0x8(a7)
    0x0069473a      2f7a8d04000c   move.l 0x68d440(pc), 0xc(a7)
    0x00694740      1f7a8d020010   move.b 0x68d444(pc), 0x10(a7)
    0x00694746      3f2e0064       move.w 0x64(a6), -(a7)
    0x0069474a      486f0002       pea.l 0x2(a7)
    0x0069474e      48780001       pea.l 0x1
    0x00694752      48780011       pea.l 0x11
    0x00694756      4eb900483af8   jsr MENUCOM.box_error
    0x0069475c      defc0020       adda.w 0x20, a7
 < 0x00694760      6038           bra.b 0x69479a
 > 0x00694762      0c810000000f   cmpi.l 0xf, d1
 < 0x00694768      6302           bls.b 0x69476c
    0x0069476a      4e4f           trap 0xf
 > 0x0069476c      2801           move.l d1, d4
     0x0069476e      760a           moveq 0xa, d3
     0x00694770      4eb900406a74   jsr fcn.00406a74
     0x00694776      b286           cmp.l d6, d1
 < 0x00694778      6302           bls.b 0x69477c
    0x0069477a      4e4f           trap 0xf
 > 0x0069477c      2401           move.l d1, d2
     0x0069477e      e382           asl.l 0x1, d2
     0x00694780      204b           movea.l a3, a0
     0x00694782      41f02800       lea.l (a0, d2.l), a0
     0x00694786      3f28057a       move.w 0x57a(a0), -(a7)
     0x0069478a      2f01           move.l d1, -(a7)
     0x0069478c      204b           movea.l a3, a0
     0x0069478e      48704820       pea.l 0x20(a0, d4.l)
     0x00694792      4ebadbd6       jsr BOOTCOM.reboot(pc)
     0x00694796      defc000a       adda.w 0xa, a7
 > 0x0069479a      3f2e0010       move.w 0x10(a6), -(a7)
 < 0x0069479e      6000fde0       bra.w 0x694580
   > 0x006947a2      554f           subq.w 0x2, a7
       0x006947a4      3f2e0012       move.w 0x12(a6), -(a7)
       0x006947a8      4e92           jsr (a2)                    ; fcn.00000009+0x2
       0x006947aa      544f           addq.w 0x2, a7
       0x006947ac      4a1f           tst.b (a7)+
   < 0x006947ae      670000f4       beq.w 0x6948a4
      0x006947b2      222efaba       move.l -0x546(a6), d1
      0x006947b6      0c81ffffffff   cmpi.l 0xffffffff, d1
  < 0x006947bc      6632           bne.b 0x6947f0
     0x006947be      9efc0018       suba.w 0x18, a7
     0x006947c2      204f           movea.l a7, a0
     0x006947c4      43fa8c80       lea.l 0x68d446(pc), a1
     0x006947c8      7404           moveq 0x4, d2
 > 0x006947ca      20d9           move.l (a1)+, (a0)+
 < 0x006947cc      51cafffc       dbra d2, 0x6947ca
     0x006947d0      30d9           move.w (a1)+, (a0)+
     0x006947d2      10d9           move.b (a1)+, (a0)+
     0x006947d4      3f2e0066       move.w 0x66(a6), -(a7)
     0x006947d8      486f0002       pea.l 0x2(a7)
     0x006947dc      48780001       pea.l 0x1
     0x006947e0      48780017       pea.l 0x17
     0x006947e4      4eb900483af8   jsr MENUCOM.box_error
     0x006947ea      defc0026       adda.w 0x26, a7
 < 0x006947ee      604e           bra.b 0x69483e
 > 0x006947f0      0c810000000f   cmpi.l 0xf, d1
 < 0x006947f6      6302           bls.b 0x6947fa
    0x006947f8      4e4f           trap 0xf
 > 0x006947fa      2801           move.l d1, d4
     0x006947fc      760a           moveq 0xa, d3
     0x006947fe      4eb900406a74   jsr fcn.00406a74
     0x00694804      b286           cmp.l d6, d1
 < 0x00694806      6302           bls.b 0x69480a
    0x00694808      4e4f           trap 0xf
 > 0x0069480a      2401           move.l d1, d2
     0x0069480c      e382           asl.l 0x1, d2
     0x0069480e      204b           movea.l a3, a0
     0x00694810      41f02800       lea.l (a0, d2.l), a0
     0x00694814      3f28058a       move.w 0x58a(a0), -(a7)
     0x00694818      2f2efaaa       move.l -0x556(a6), -(a7)
     0x0069481c      2f01           move.l d1, -(a7)
     0x0069481e      204b           movea.l a3, a0
     0x00694820      41f04800       lea.l (a0, d4.l), a0
     0x00694824      9efc000a       suba.w 0xa, a7
     0x00694828      224f           movea.l a7, a1
     0x0069482a      41e800c0       lea.l 0xc0(a0), a0
     0x0069482e      7409           moveq 0x9, d2
 > 0x00694830      12d8           move.b (a0)+, (a1)+
 < 0x00694832      51cafffc       dbra d2, 0x694830
     0x00694836      4ebadbf4       jsr BOOTCOM.unboot(pc)
     0x0069483a      defc0014       adda.w 0x14, a7
 > 0x0069483e      554f           subq.w 0x2, a7
      0x00694840      3f2e005e       move.w 0x5e(a6), -(a7)
      0x00694844      4e92           jsr (a2)                    ; fcn.00000009+0x2
      0x00694846      544f           addq.w 0x2, a7
      0x00694848      4a1f           tst.b (a7)+
  < 0x0069484a      670a           beq.b 0x694856
     0x0069484c      2f2efaaa       move.l -0x556(a6), -(a7)
     0x00694850      4eba9e6c       jsr BOOTCOM.check_boot_list(pc)
     0x00694854      584f           addq.w 0x4, a7
  > 0x00694856      2f2efaa6       move.l -0x55a(a6), -(a7)
      0x0069485a      486e0018       pea.l 0x18(a6)
      0x0069485e      486efabe       pea.l -0x542(a6)
      0x00694862      486efbfe       pea.l -0x402(a6)
      0x00694866      4ebae4b6       jsr BOOTCOM.update_boot_lis(pc)
      0x0069486a      defc000c       adda.w 0xc, a7
      0x0069486e      2eaefaaa       move.l -0x556(a6), (a7)
      0x00694872      486e0028       pea.l 0x28(a6)
      0x00694876      486efb5e       pea.l -0x4a2(a6)
      0x0069487a      486efcfe       pea.l -0x302(a6)
      0x0069487e      4ebae49e       jsr BOOTCOM.update_boot_lis(pc)
      0x00694882      defc000e       adda.w 0xe, a7
      0x00694886      3eae0012       move.w 0x12(a6), (a7)
      0x0069488a      4227           clr.b -(a7)
      0x0069488c      4eb900483776   jsr MENUCOM.swtch_box
      0x00694892      544f           addq.w 0x2, a7
      0x00694894      3eae0070       move.w 0x70(a6), (a7)
 > 0x00694898      1f3c0001       move.b 0x1, -(a7)
 > 0x0069489c      4eb900483776   jsr MENUCOM.swtch_box
      0x006948a2      584f           addq.w 0x4, a7
   > 0x006948a4      3f2e0018       move.w 0x18(a6), -(a7)
       0x006948a8      1f3c0001       move.b 0x1, -(a7)
       0x006948ac      4eb900483776   jsr MENUCOM.swtch_box
       0x006948b2      544f           addq.w 0x2, a7
       0x006948b4      3eae0028       move.w 0x28(a6), (a7)
       0x006948b8      1f3c0001       move.b 0x1, -(a7)
       0x006948bc      4eb900483776   jsr MENUCOM.swtch_box
       0x006948c2      584f           addq.w 0x4, a7
    > 0x006948c4      4cdf1fff       movem.l (a7)+, d0-d7/a0-a4
           0x006948c8      4e5e           unlk a6
           0x006948ca      4e75           rts
            ; CALL XREFS from BOOTCOM.sw_install @ 0x694ad4, 0x694b16
 374: BOOTCOM.get_boot_file ();
           ; var int32_t var_8h @ a7+0x8
           0x006948cc      4e56fd10       link.w a6, 0xfd10
           0x006948d0      bfd5           cmpa.l (a5), a7
       < 0x006948d2      6206           bhi.b 0x6948da
          0x006948d4      44fc0002       move.w 0x2, ccr
          0x006948d8      4e76           trapv
       > 0x006948da      defc014c       adda.w 0x14c, a7
           0x006948de      48e7fef8       movem.l d0-d6/a0-a4, -(a7)
           0x006948e2      49eefffc       lea.l -0x4(a6), a4
           0x006948e6      720c           moveq 0xc, d1
           0x006948e8      740f           moveq 0xf, d2
           0x006948ea      3a3c0100       move.w 0x100, d5
           0x006948ee      7c14           moveq 0x14, d6
           0x006948f0      206e0008       movea.l 0x8(a6), a0
           0x006948f4      2248           movea.l a0, a1
           0x006948f6      45f90068bd22   lea.l 0x68bd22, a2
           0x006948fc      7009           moveq 0x9, d0
       > 0x006948fe      12da           move.b (a2)+, (a1)+
       < 0x00694900      51c8fffc       dbra d0, 0x6948fe
           0x00694904      422e0014       clr.b 0x14(a6)
           0x00694908      554f           subq.w 0x2, a7
           0x0069490a      2f2e0010       move.l 0x10(a6), -(a7)
           0x0069490e      486efe5c       pea.l -0x1a4(a6)
           0x00694912      4267           clr.w -(a7)
           0x00694914      3f02           move.w d2, -(a7)
           0x00694916      4eb900608f40   jsr F10_FILELIST.f_list_boots
           0x0069491c      dec1           adda.w d1, a7
           0x0069491e      4a1f           tst.b (a7)+
       < 0x00694920      6642           bne.b 0x694964
          0x00694922      9ec5           suba.w d5, a7
          0x00694924      4eb900408ec0   jsr p_err_string
          0x0069492a      487a8b32       pea.l 0x68d45e(pc)
          0x0069492e      48780018       pea.l 0x18
          0x00694932      2f17           move.l (a7), -(a7)
          0x00694934      4eb9004047ea   jsr p_wts_o
          0x0069493a      dec1           adda.w d1, a7
          0x0069493c      486f0001       pea.l 0x1(a7)
          0x00694940      42a7           clr.l -(a7)
          0x00694942      1f6f00080003   move.b 0x8(a7), 0x3(a7)
          0x00694948      2f17           move.l (a7), -(a7)
      > 0x0069494a      4eb9004047ea   jsr p_wts_o
         0x00694950      defc010c       adda.w 0x10c, a7
         0x00694954      4eb900404946   jsr p_wtln_o
         0x0069495a      4eb900404188   jsr p_Unlink
     < 0x00694960      600000d8       bra.w 0x694a3a
     > 0x00694964      202e000c       move.l 0xc(a6), d0
         0x00694968      b082           cmp.l d2, d0
     < 0x0069496a      6302           bls.b 0x69496e
        0x0069496c      4e4f           trap 0xf
     > 0x0069496e      2800           move.l d0, d4
         0x00694970      760a           moveq 0xa, d3
         0x00694972      4eb900406a74   jsr fcn.00406a74
         0x00694978      43eefe5c       lea.l -0x1a4(a6), a1
         0x0069497c      9ec1           suba.w d1, a7
         0x0069497e      244f           movea.l a7, a2
         0x00694980      47f14800       lea.l (a1, d4.l), a3
         0x00694984      7009           moveq 0x9, d0
     > 0x00694986      14db           move.b (a3)+, (a2)+
     < 0x00694988      51c8fffc       dbra d0, 0x694986
         0x0069498c      2f390068bd28   move.l 0x68bd28, -(a7)
         0x00694992      2f390068bd24   move.l 0x68bd24, -(a7)
         0x00694998      3f390068bd22   move.w 0x68bd22, -(a7)
         0x0069499e      4eb9005ef3d2   jsr F2_UTILITY.f_fids_eq
         0x006949a4      dec6           adda.w d6, a7
         0x006949a6      4a1f           tst.b (a7)+
     < 0x006949a8      6600008a       bne.w 0x694a34
        0x006949ac      2448           movea.l a0, a2
        0x006949ae      47f14800       lea.l (a1, d4.l), a3
        0x006949b2      7009           moveq 0x9, d0
    > 0x006949b4      14db           move.b (a3)+, (a2)+
    < 0x006949b6      51c8fffc       dbra d0, 0x6949b4
        0x006949ba      28bcffff0001   move.l 0xffff0001, (a4)
        0x006949c0      9ec1           suba.w d1, a7
        0x006949c2      244f           movea.l a7, a2
        0x006949c4      47f14800       lea.l (a1, d4.l), a3
        0x006949c8      7009           moveq 0x9, d0
    > 0x006949ca      14db           move.b (a3)+, (a2)+
    < 0x006949cc      51c8fffc       dbra d0, 0x6949ca
        0x006949d0      4227           clr.b -(a7)
        0x006949d2      4854           pea.l (a4)
        0x006949d4      4eb9006082de   jsr F10_FILELIST.f_get_header
        0x006949da      defc0010       adda.w 0x10, a7
        0x006949de      4a1f           tst.b (a7)+
    < 0x006949e0      6726           beq.b 0x694a08
       0x006949e2      9ec5           suba.w d5, a7
       0x006949e4      3f06           move.w d6, -(a7)
       0x006949e6      2f14           move.l (a4), -(a7)
       0x006949e8      4eb9005eed64   jsr f_get_string
       0x006949ee      5c4f           addq.w 0x6, a7
       0x006949f0      45eefefc       lea.l -0x104(a6), a2
       0x006949f4      703f           moveq 0x3f, d0
   > 0x006949f6      24df           move.l (a7)+, (a2)+
   < 0x006949f8      51c8fffc       dbra d0, 0x6949f6
       0x006949fc      4854           pea.l (a4)
       0x006949fe      4eb90060500e   jsr F9_FILERDWRT.f_free_block
       0x00694a04      584f           addq.w 0x4, a7
   < 0x00694a06      602c           bra.b 0x694a34
   > 0x00694a08      9ec5           suba.w d5, a7
       0x00694a0a      4eb900408ec0   jsr p_err_string
       0x00694a10      487a8a65       pea.l 0x68d477(pc)
       0x00694a14      48780015       pea.l 0x15
       0x00694a18      2f17           move.l (a7), -(a7)
       0x00694a1a      4eb9004047ea   jsr p_wts_o
       0x00694a20      dec1           adda.w d1, a7
       0x00694a22      486f0001       pea.l 0x1(a7)
       0x00694a26      42a7           clr.l -(a7)
       0x00694a28      1f6f00080003   move.b 0x8(a7), 0x3(a7)
       0x00694a2e      2f17           move.l (a7), -(a7)
    < 0x00694a30      6000ff18       bra.w 0x69494a
   > 0x00694a34      1d7c00010014   move.b 0x1, 0x14(a6)
     > 0x00694a3a      4cdf1f7f       movem.l (a7)+, d0-d6/a0-a4
           0x00694a3e      4e5e           unlk a6
           0x00694a40      4e75           rts
 850: BOOTCOM.sw_install ();
           ; var int32_t var_7696h @ a6-0x7696
           ; var int32_t var_767eh @ a6-0x767e
           ; var int32_t var_7679h @ a6-0x7679
           ; var int32_t var_7674h @ a6-0x7674
           ; var int32_t var_766fh @ a6-0x766f
           ; var int32_t var_7668h @ a6-0x7668
           ; var int32_t var_7664h @ a6-0x7664
           ; var int32_t var_7662h @ a6-0x7662
           0x00694a42      4e56fc84       link.w a6, 0xfc84
           0x00694a46      bfd5           cmpa.l (a5), a7
       < 0x00694a48      6206           bhi.b 0x694a50
          0x00694a4a      44fc0002       move.w 0x2, ccr
          0x00694a4e      4e76           trapv
       > 0x00694a50      defc0160       adda.w 0x160, a7
           0x00694a54      48e7fff8       movem.l d0-d7/a0-a4, -(a7)
           0x00694a58      45f9004047ea   lea.l p_wts_o, a2
           0x00694a5e      47ee000a       lea.l 0xa(a6), a3
           0x00694a62      49eefdf6       lea.l -0x20a(a6), a4
           0x00694a66      760c           moveq 0xc, d3
           0x00694a68      7801           moveq 0x1, d4
           0x00694a6a      7a02           moveq 0x2, d5
           0x00694a6c      594f           subq.w 0x4, a7
           0x00694a6e      2f2e0016       move.l 0x16(a6), -(a7)
           0x00694a72      4eb9005fb938   jsr F6_VOLUME.f_vol_on
           0x00694a78      584f           addq.w 0x4, a7
           0x00694a7a      2c17           move.l (a7), d6
           0x00694a7c      2f2e0012       move.l 0x12(a6), -(a7)
           0x00694a80      4eb9005fb938   jsr F6_VOLUME.f_vol_on
           0x00694a86      584f           addq.w 0x4, a7
           0x00694a88      2e1f           move.l (a7)+, d7
           0x00694a8a      4a86           tst.l d6
       < 0x00694a8c      6622           bne.b 0x694ab0
          0x00694a8e      487a89fd       pea.l 0x68d48d(pc)
          0x00694a92      48780014       pea.l 0x14
          0x00694a96      2f17           move.l (a7), -(a7)
          0x00694a98      4e92           jsr (a2)                    ; fcn.00000009+0x2
          0x00694a9a      504f           addq.w 0x8, a7
          0x00694a9c      2eae0016       move.l 0x16(a6), (a7)
    > 0x00694aa0      4878ffff       pea.l 0xffff
       0x00694aa4      4eb9004070e4   jsr p_wti_o
       0x00694aaa      504f           addq.w 0x8, a7
   < 0x00694aac      600002d8       bra.w 0x694d86
   > 0x00694ab0      4a87           tst.l d7
   < 0x00694ab2      6614           bne.b 0x694ac8
      0x00694ab4      487a89ec       pea.l 0x68d4a2(pc)
      0x00694ab8      48780012       pea.l 0x12
      0x00694abc      2f17           move.l (a7), -(a7)
      0x00694abe      4e92           jsr (a2)                    ; fcn.00000009+0x2
      0x00694ac0      504f           addq.w 0x8, a7
      0x00694ac2      2eae0012       move.l 0x12(a6), (a7)
   < 0x00694ac6      60d8           bra.b 0x694aa0
    > 0x00694ac8      554f           subq.w 0x2, a7
        0x00694aca      2f06           move.l d6, -(a7)
        0x00694acc      2f2e000e       move.l 0xe(a6), -(a7)
        0x00694ad0      486efdec       pea.l -0x214(a6)
        0x00694ad4      4ebafdf6       jsr BOOTCOM.get_boot_file(pc)
        0x00694ad8      dec3           adda.w d3, a7
        0x00694ada      4a1f           tst.b (a7)+
    < 0x00694adc      6630           bne.b 0x694b0e
       0x00694ade      487a89d5       pea.l 0x68d4b5(pc)
       0x00694ae2      48780018       pea.l 0x18
       0x00694ae6      2f17           move.l (a7), -(a7)
       0x00694ae8      4e92           jsr (a2)                    ; fcn.00000009+0x2
       0x00694aea      504f           addq.w 0x8, a7
       0x00694aec      2eae000e       move.l 0xe(a6), (a7)
       0x00694af0      48780000       pea.l 0x0
       0x00694af4      4eb9004070e4   jsr p_wti_o
       0x00694afa      504f           addq.w 0x8, a7
       0x00694afc      487a89d0       pea.l 0x68d4ce(pc)
       0x00694b00      48780008       pea.l 0x8
       0x00694b04      2f17           move.l (a7), -(a7)
       0x00694b06      4e92           jsr (a2)                    ; fcn.00000009+0x2
       0x00694b08      504f           addq.w 0x8, a7
       0x00694b0a      2e86           move.l d6, (a7)
    < 0x00694b0c      6092           bra.b 0x694aa0
     > 0x00694b0e      554f           subq.w 0x2, a7
         0x00694b10      2f07           move.l d7, -(a7)
         0x00694b12      2f13           move.l (a3), -(a7)
         0x00694b14      4854           pea.l (a4)
         0x00694b16      4ebafdb4       jsr BOOTCOM.get_boot_file(pc)
         0x00694b1a      dec3           adda.w d3, a7
         0x00694b1c      4a1f           tst.b (a7)+
     < 0x00694b1e      6630           bne.b 0x694b50
        0x00694b20      487a89b5       pea.l 0x68d4d7(pc)
        0x00694b24      48780018       pea.l 0x18
        0x00694b28      2f17           move.l (a7), -(a7)
        0x00694b2a      4e92           jsr (a2)                    ; fcn.00000009+0x2
        0x00694b2c      504f           addq.w 0x8, a7
        0x00694b2e      2e93           move.l (a3), (a7)
        0x00694b30      48780000       pea.l 0x0
        0x00694b34      4eb9004070e4   jsr p_wti_o
        0x00694b3a      504f           addq.w 0x8, a7
        0x00694b3c      487a89b2       pea.l 0x68d4f0(pc)
        0x00694b40      48780008       pea.l 0x8
        0x00694b44      2f17           move.l (a7), -(a7)
        0x00694b46      4e92           jsr (a2)                    ; fcn.00000009+0x2
        0x00694b48      504f           addq.w 0x8, a7
        0x00694b4a      2e87           move.l d7, (a7)
     < 0x00694b4c      6000ff52       bra.w 0x694aa0
      > 0x00694b50      102e001c       move.b 0x1c(a6), d0
          0x00694b54      b005           cmp.b d5, d0
      < 0x00694b56      6614           bne.b 0x694b6c
         0x00694b58      2d7a899efe00   move.l 0x68d4f8(pc), -0x200(a6)
         0x00694b5e      3d7a899cfe04   move.w 0x68d4fc(pc), -0x1fc(a6)
         0x00694b64      1d7a8998fe06   move.b 0x68d4fe(pc), -0x1fa(a6)
     < 0x00694b6a      6018           bra.b 0x694b84
     > 0x00694b6c      1d7a8991fe00   move.b 0x68d4ff(pc), -0x200(a6)
         0x00694b72      1d7a898cfe01   move.b 0x68d500(pc), -0x1ff(a6)
         0x00694b78      1d7a8987fe02   move.b 0x68d501(pc), -0x1fe(a6)
         0x00694b7e      1d7a8982fe03   move.b 0x68d502(pc), -0x1fd(a6)
     > 0x00694b84      122e001a       move.b 0x1a(a6), d1
          0x00694b88      b205           cmp.b d5, d1
      < 0x00694b8a      6612           bne.b 0x694b9e
         0x00694b8c      41eeff00       lea.l -0x100(a6), a0
         0x00694b90      43fa8971       lea.l 0x68d503(pc), a1
         0x00694b94      7406           moveq 0x6, d2
     > 0x00694b96      10d9           move.b (a1)+, (a0)+
     < 0x00694b98      51cafffc       dbra d2, 0x694b96
     < 0x00694b9c      6006           bra.b 0x694ba4
     > 0x00694b9e      2d7a896aff00   move.l 0x68d50a(pc), -0x100(a6)
     > 0x00694ba4      4a01           tst.b d1
      < 0x00694ba6      6706           beq.b 0x694bae
         0x00694ba8      b204           cmp.b d4, d1
     < 0x00694baa      660000a2       bne.w 0x694c4e
     > 0x00694bae      4a00           tst.b d0
     < 0x00694bb0      6704           beq.b 0x694bb6
        0x00694bb2      b004           cmp.b d4, d0
    < 0x00694bb4      661c           bne.b 0x694bd2
    > 0x00694bb6      4267           clr.w -(a7)
        0x00694bb8      4267           clr.w -(a7)
        0x00694bba      2f2e000e       move.l 0xe(a6), -(a7)
        0x00694bbe      2f13           move.l (a3), -(a7)
        0x00694bc0      2f07           move.l d7, -(a7)
        0x00694bc2      486efdec       pea.l -0x214(a6)
        0x00694bc6      4854           pea.l (a4)
        0x00694bc8      4ebadda2       jsr BOOTCOM.copy_boot(pc)
        0x00694bcc      defc0018       adda.w 0x18, a7
    < 0x00694bd0      606a           bra.b 0x694c3c
    > 0x00694bd2      b005           cmp.b d5, d0
    < 0x00694bd4      6706           beq.b 0x694bdc
       0x00694bd6      0c000003       cmpi.b 0x3, d0
   < 0x00694bda      661c           bne.b 0x694bf8
   > 0x00694bdc      4227           clr.b -(a7)
       0x00694bde      4267           clr.w -(a7)
       0x00694be0      4267           clr.w -(a7)
       0x00694be2      9efc0100       suba.w 0x100, a7
       0x00694be6      204f           movea.l a7, a0
       0x00694be8      43eefe00       lea.l -0x200(a6), a1
       0x00694bec      743f           moveq 0x3f, d2
   > 0x00694bee      20d9           move.l (a1)+, (a0)+
   < 0x00694bf0      51cafffc       dbra d2, 0x694bee
       0x00694bf4      4227           clr.b -(a7)
   < 0x00694bf6      6024           bra.b 0x694c1c
   > 0x00694bf8      0c000004       cmpi.b 0x4, d0
   < 0x00694bfc      663e           bne.b 0x694c3c
      0x00694bfe      1f04           move.b d4, -(a7)
      0x00694c00      4267           clr.w -(a7)
      0x00694c02      4267           clr.w -(a7)
      0x00694c04      9efc00fc       suba.w 0xfc, a7
      0x00694c08      2f3a8904       move.l 0x68d50e(pc), -(a7)
      0x00694c0c      3f7a89040004   move.w 0x68d512(pc), 0x4(a7)
      0x00694c12      1f7a89000006   move.b 0x68d514(pc), 0x6(a7)
      0x00694c18      1f2e0008       move.b 0x8(a6), -(a7)
   > 0x00694c1c      1f04           move.b d4, -(a7)
       0x00694c1e      2f2e0016       move.l 0x16(a6), -(a7)
       0x00694c22      2f07           move.l d7, -(a7)
       0x00694c24      2f2e000e       move.l 0xe(a6), -(a7)
       0x00694c28      2f13           move.l (a3), -(a7)
       0x00694c2a      2f2efdfc       move.l -0x204(a6), -(a7)
       0x00694c2e      2f2efdf8       move.l -0x208(a6), -(a7)
       0x00694c32      3f14           move.w (a4), -(a7)
       0x00694c34      4ebac962       jsr BOOTCOM.load_sw(pc)
       0x00694c38      defc0124       adda.w 0x124, a7
   > 0x00694c3c      b204           cmp.b d4, d1
     < 0x00694c3e      6600014c       bne.w 0x694d8c
        0x00694c42      2f07           move.l d7, -(a7)
        0x00694c44      4eba9a78       jsr BOOTCOM.check_boot_list(pc)
        0x00694c48      584f           addq.w 0x4, a7
    < 0x00694c4a      60000140       bra.w 0x694d8c
    > 0x00694c4e      b205           cmp.b d5, d1
    < 0x00694c50      6708           beq.b 0x694c5a
       0x00694c52      0c010003       cmpi.b 0x3, d1
   < 0x00694c56      66000092       bne.w 0x694cea
   > 0x00694c5a      4a00           tst.b d0
   < 0x00694c5c      6704           beq.b 0x694c62
      0x00694c5e      b004           cmp.b d4, d0
  < 0x00694c60      662c           bne.b 0x694c8e
  > 0x00694c62      4267           clr.w -(a7)
      0x00694c64      4267           clr.w -(a7)
      0x00694c66      9efc0100       suba.w 0x100, a7
      0x00694c6a      204f           movea.l a7, a0
      0x00694c6c      43eeff00       lea.l -0x100(a6), a1
      0x00694c70      743f           moveq 0x3f, d2
  > 0x00694c72      20d9           move.l (a1)+, (a0)+
  < 0x00694c74      51cafffc       dbra d2, 0x694c72
      0x00694c78      2f07           move.l d7, -(a7)
      0x00694c7a      2f13           move.l (a3), -(a7)
      0x00694c7c      486efdec       pea.l -0x214(a6)
      0x00694c80      4854           pea.l (a4)
      0x00694c82      4ebad092       jsr BOOTCOM.make_magopt(pc)
      0x00694c86      defc0114       adda.w 0x114, a7
  < 0x00694c8a      60000100       bra.w 0x694d8c
  > 0x00694c8e      b005           cmp.b d5, d0
  < 0x00694c90      6706           beq.b 0x694c98
     0x00694c92      0c000003       cmpi.b 0x3, d0
 < 0x00694c96      6640           bne.b 0x694cd8
 > 0x00694c98      487a887c       pea.l 0x68d516(pc)
     0x00694c9c      4878000a       pea.l 0xa
     0x00694ca0      2f17           move.l (a7), -(a7)
     0x00694ca2      4e92           jsr (a2)                    ; fcn.00000009+0x2
     0x00694ca4      dec3           adda.w d3, a7
     0x00694ca6      486efe01       pea.l -0x1ff(a6)
     0x00694caa      42a7           clr.l -(a7)
     0x00694cac      1f6efe000003   move.b -0x200(a6), 0x3(a7)
     0x00694cb2      2f17           move.l (a7), -(a7)
     0x00694cb4      4e92           jsr (a2)                    ; fcn.00000009+0x2
     0x00694cb6      dec3           adda.w d3, a7
     0x00694cb8      487a8867       pea.l 0x68d521(pc)
     0x00694cbc      48780004       pea.l 0x4
 > 0x00694cc0      2f17           move.l (a7), -(a7)
    0x00694cc2      4e92           jsr (a2)                    ; fcn.00000009+0x2
    0x00694cc4      dec3           adda.w d3, a7
    0x00694cc6      486eff01       pea.l -0xff(a6)
    0x00694cca      42a7           clr.l -(a7)
    0x00694ccc      1f6eff000003   move.b -0x100(a6), 0x3(a7)
    0x00694cd2      2f17           move.l (a7), -(a7)
 < 0x00694cd4      600000ac       bra.w 0x694d82
 > 0x00694cd8      0c000004       cmpi.b 0x4, d0
 < 0x00694cdc      660000ae       bne.w 0x694d8c
    0x00694ce0      487a8844       pea.l 0x68d526(pc)
    0x00694ce4      48780014       pea.l 0x14
 < 0x00694ce8      60d6           bra.b 0x694cc0
  > 0x00694cea      0c010004       cmpi.b 0x4, d1
  < 0x00694cee      6600009c       bne.w 0x694d8c
     0x00694cf2      4a00           tst.b d0
 < 0x00694cf4      6704           beq.b 0x694cfa
    0x00694cf6      b004           cmp.b d4, d0
 < 0x00694cf8      6644           bne.b 0x694d3e
 > 0x00694cfa      4267           clr.w -(a7)
     0x00694cfc      4267           clr.w -(a7)
     0x00694cfe      9efc00fc       suba.w 0xfc, a7
     0x00694d02      2f3a8836       move.l 0x68d53a(pc), -(a7)
     0x00694d06      3f7a88360004   move.w 0x68d53e(pc), 0x4(a7)
     0x00694d0c      1f7a88320006   move.b 0x68d540(pc), 0x6(a7)
     0x00694d12      1f2e0008       move.b 0x8(a6), -(a7)
     0x00694d16      1f04           move.b d4, -(a7)
     0x00694d18      2f2e0012       move.l 0x12(a6), -(a7)
     0x00694d1c      2f2efdf2       move.l -0x20e(a6), -(a7)
     0x00694d20      2f2efdee       move.l -0x212(a6), -(a7)
     0x00694d24      3f2efdec       move.w -0x214(a6), -(a7)
     0x00694d28      2f2efdfc       move.l -0x204(a6), -(a7)
     0x00694d2c      2f2efdf8       move.l -0x208(a6), -(a7)
     0x00694d30      3f14           move.w (a4), -(a7)
     0x00694d32      2f13           move.l (a3), -(a7)
     0x00694d34      4ebac4f2       jsr BOOTCOM.make_floppies(pc)
     0x00694d38      defc0124       adda.w 0x124, a7
 < 0x00694d3c      604e           bra.b 0x694d8c
 > 0x00694d3e      b005           cmp.b d5, d0
 < 0x00694d40      6706           beq.b 0x694d48
    0x00694d42      0c000003       cmpi.b 0x3, d0
 < 0x00694d46      662a           bne.b 0x694d72
 > 0x00694d48      487a87f8       pea.l 0x68d542(pc)
    0x00694d4c      4878000a       pea.l 0xa
    0x00694d50      2f17           move.l (a7), -(a7)
    0x00694d52      4e92           jsr (a2)                    ; fcn.00000009+0x2
    0x00694d54      dec3           adda.w d3, a7
    0x00694d56      486efe01       pea.l -0x1ff(a6)
    0x00694d5a      42a7           clr.l -(a7)
    0x00694d5c      1f6efe000003   move.b -0x200(a6), 0x3(a7)
    0x00694d62      2f17           move.l (a7), -(a7)
    0x00694d64      4e92           jsr (a2)                    ; fcn.00000009+0x2
    0x00694d66      dec3           adda.w d3, a7
    0x00694d68      487a87e3       pea.l 0x68d54d(pc)
    0x00694d6c      4878000a       pea.l 0xa
 < 0x00694d70      600e           bra.b 0x694d80
 > 0x00694d72      0c000004       cmpi.b 0x4, d0
 < 0x00694d76      6614           bne.b 0x694d8c
    0x00694d78      487a87de       pea.l 0x68d558(pc)
    0x00694d7c      4878001a       pea.l 0x1a
 > 0x00694d80      2f17           move.l (a7), -(a7)
 > 0x00694d82      4e92           jsr (a2)                    ; fcn.00000009+0x2
    0x00694d84      dec3           adda.w d3, a7
 > 0x00694d86      4eb900404946   jsr p_wtln_o
 > 0x00694d8c      4cdf1fff       movem.l (a7)+, d0-d7/a0-a4
           0x00694d90      4e5e           unlk a6
           0x00694d92      4e75           rts
            ; CALL XREF from BOOTCOM.read_net_addr @ 0x69500e
            ; CALL XREF from BOOTCOM.read_magopt_add @ 0x695046
 266: BOOTCOM.read_addr ();
           0x00694d94      4e56ffb2       link.w a6, 0xffb2
           0x00694d98      bfd5           cmpa.l (a5), a7
       < 0x00694d9a      6206           bhi.b 0x694da2
          0x00694d9c      44fc0002       move.w 0x2, ccr
          0x00694da0      4e76           trapv
       > 0x00694da2      defc004e       adda.w 0x4e, a7
           0x00694da6      48e7f8f8       movem.l d0-d4/a0-a4, -(a7)
           0x00694daa      45f90043cb88   lea.l G1_INPUT.g_current, a2
           0x00694db0      47ee0008       lea.l 0x8(a6), a3
           0x00694db4      49f90043ccf8   lea.l G1_INPUT.g_char, a4
           0x00694dba      7401           moveq 0x1, d2
           0x00694dbc      7620           moveq 0x20, d3
           0x00694dbe      283c000000ff   move.l 0xff, d4
           0x00694dc4      4eb90043cbc8   jsr G1_INPUT.g_skip_spaces
           0x00694dca      554f           subq.w 0x2, a7
           0x00694dcc      4e92           jsr (a2)                    ; fcn.00000009+0x2
           0x00694dce      4280           clr.l d0
           0x00694dd0      101f           move.b (a7)+, d0
           0x00694dd2      41fa879e       lea.l 0x68d572(pc), a0
           0x00694dd6      3200           move.w d0, d1
           0x00694dd8      e649           lsr.w 0x3, d1
           0x00694dda      01301000       btst.l d0, (a0, d1.w)
       < 0x00694dde      6624           bne.b 0x694e04
          0x00694de0      9efc001a       suba.w 0x1a, a7
          0x00694de4      204f           movea.l a7, a0
          0x00694de6      43fa87ab       lea.l 0x68d593(pc), a1
          0x00694dea      7018           moveq 0x18, d0
      > 0x00694dec      10d9           move.b (a1)+, (a0)+
      < 0x00694dee      51c8fffc       dbra d0, 0x694dec
          0x00694df2      4857           pea.l (a7)
          0x00694df4      3f02           move.w d2, -(a7)
          0x00694df6      3f3c0019       move.w 0x19, -(a7)
          0x00694dfa      4eb90043cd18   jsr G1_INPUT.g_error
          0x00694e00      defc0022       adda.w 0x22, a7
       > 0x00694e04      554f           subq.w 0x2, a7
           0x00694e06      4e92           jsr (a2)                    ; fcn.00000009+0x2
           0x00694e08      4280           clr.l d0
           0x00694e0a      101f           move.b (a7)+, d0
           0x00694e0c      41fa879e       lea.l 0x68d5ac(pc), a0
           0x00694e10      3200           move.w d0, d1
           0x00694e12      e649           lsr.w 0x3, d1
           0x00694e14      01301000       btst.l d0, (a0, d1.w)
       < 0x00694e18      670c           beq.b 0x694e26
          0x00694e1a      554f           subq.w 0x2, a7
          0x00694e1c      4e94           jsr (a4)                    ; fcn.0000000d
          0x00694e1e      101f           move.b (a7)+, d0
          0x00694e20      b003           cmp.b d3, d0
      < 0x00694e22      662e           bne.b 0x694e52
     < 0x00694e24      602c           bra.b 0x694e52
     > 0x00694e26      554f           subq.w 0x2, a7
         0x00694e28      4e92           jsr (a2)                    ; fcn.00000009+0x2
         0x00694e2a      4280           clr.l d0
         0x00694e2c      101f           move.b (a7)+, d0
         0x00694e2e      41fa879c       lea.l 0x68d5cc(pc), a0
         0x00694e32      3200           move.w d0, d1
         0x00694e34      e649           lsr.w 0x3, d1
         0x00694e36      01301000       btst.l d0, (a0, d1.w)
     < 0x00694e3a      6716           beq.b 0x694e52
        0x00694e3c      554f           subq.w 0x2, a7
        0x00694e3e      4e94           jsr (a4)                    ; fcn.0000000d
        0x00694e40      101f           move.b (a7)+, d0
        0x00694e42      b003           cmp.b d3, d0
        0x00694e44      2053           movea.l (a3), a0
        0x00694e46      10280001       move.b 0x1(a0), d0
        0x00694e4a      c084           and.l d4, d0
        0x00694e4c      8042           or.w d2, d0
        0x00694e4e      11400001       move.b d0, 0x1(a0)
     > 0x00694e52      2053           movea.l (a3), a0
           0x00694e54      42280002       clr.b 0x2(a0)
           0x00694e58      2053           movea.l (a3), a0
       > 0x00694e5a      554f           subq.w 0x2, a7
          0x00694e5c      4e92           jsr (a2)                    ; fcn.00000009+0x2
          0x00694e5e      4280           clr.l d0
          0x00694e60      101f           move.b (a7)+, d0
          0x00694e62      43fa8788       lea.l 0x68d5ec(pc), a1
          0x00694e66      3200           move.w d0, d1
          0x00694e68      e649           lsr.w 0x3, d1
          0x00694e6a      01311000       btst.l d0, (a1, d1.w)
      < 0x00694e6e      6720           beq.b 0x694e90
         0x00694e70      10280002       move.b 0x2(a0), d0
         0x00694e74      c084           and.l d4, d0
         0x00694e76      c1fc000a       muls.w 0xa, d0
         0x00694e7a      554f           subq.w 0x2, a7
         0x00694e7c      4e94           jsr (a4)                    ; fcn.0000000d
         0x00694e7e      4281           clr.l d1
         0x00694e80      121f           move.b (a7)+, d1
         0x00694e82      d240           add.w d0, d1
         0x00694e84      04410030       subi.w 0x30, d1
         0x00694e88      4384           chk.w d4, d1
         0x00694e8a      11410002       move.b d1, 0x2(a0)
      < 0x00694e8e      60ca           bra.b 0x694e5a
      > 0x00694e90      2053           movea.l (a3), a0
           0x00694e92      42280003       clr.b 0x3(a0)
           0x00694e96      4cdf1f1f       movem.l (a7)+, d0-d4/a0-a4
           0x00694e9a      4e5e           unlk a6
           0x00694e9c      4e75           rts
 390: BOOTCOM.read_net_addr ();
           0x00694e9e      4e56ff94       link.w a6, 0xff94
           0x00694ea2      bfd5           cmpa.l (a5), a7
       < 0x00694ea4      6206           bhi.b 0x694eac
          0x00694ea6      44fc0002       move.w 0x2, ccr
          0x00694eaa      4e76           trapv
       > 0x00694eac      defc0066       adda.w 0x66, a7
           0x00694eb0      48e7fff8       movem.l d0-d7/a0-a4, -(a7)
           0x00694eb4      45eefffe       lea.l -0x2(a6), a2
           0x00694eb8      47eeffff       lea.l -0x1(a6), a3
           0x00694ebc      49f90043ccf8   lea.l G1_INPUT.g_char, a4
           0x00694ec2      7401           moveq 0x1, d2
           0x00694ec4      761c           moveq 0x1c, d3
           0x00694ec6      780a           moveq 0xa, d4
           0x00694ec8      7a30           moveq 0x30, d5
           0x00694eca      7c16           moveq 0x16, d6
           0x00694ecc      7e1f           moveq 0x1f, d7
           0x00694ece      4212           clr.b (a2)
           0x00694ed0      4213           clr.b (a3)
           0x00694ed2      4eb90043cbc8   jsr G1_INPUT.g_skip_spaces
       > 0x00694ed8      554f           subq.w 0x2, a7
          0x00694eda      4eb90043cb88   jsr G1_INPUT.g_current
          0x00694ee0      4280           clr.l d0
          0x00694ee2      101f           move.b (a7)+, d0
          0x00694ee4      41fa8726       lea.l 0x68d60c(pc), a0
          0x00694ee8      3200           move.w d0, d1
          0x00694eea      e649           lsr.w 0x3, d1
          0x00694eec      01301000       btst.l d0, (a0, d1.w)
      < 0x00694ef0      671a           beq.b 0x694f0c
         0x00694ef2      4280           clr.l d0
         0x00694ef4      1012           move.b (a2), d0
         0x00694ef6      c1c4           muls.w d4, d0
         0x00694ef8      554f           subq.w 0x2, a7
         0x00694efa      4e94           jsr (a4)                    ; fcn.0000000d
         0x00694efc      4281           clr.l d1
         0x00694efe      121f           move.b (a7)+, d1
         0x00694f00      d240           add.w d0, d1
         0x00694f02      9245           sub.w d5, d1
         0x00694f04      43bc00ff       chk.w 0xff, d1
         0x00694f08      1481           move.b d1, (a2)
      < 0x00694f0a      60cc           bra.b 0x694ed8
      > 0x00694f0c      4eb90043cbc8   jsr G1_INPUT.g_skip_spaces
           0x00694f12      554f           subq.w 0x2, a7
           0x00694f14      4e94           jsr (a4)                    ; fcn.0000000d
           0x00694f16      101f           move.b (a7)+, d0
           0x00694f18      0c00002d       cmpi.b 0x2d, d0
       < 0x00694f1c      6720           beq.b 0x694f3e
          0x00694f1e      9ec6           suba.w d6, a7
          0x00694f20      204f           movea.l a7, a0
          0x00694f22      43fa8709       lea.l 0x68d62d(pc), a1
          0x00694f26      7015           moveq 0x15, d0
      > 0x00694f28      10d9           move.b (a1)+, (a0)+
      < 0x00694f2a      51c8fffc       dbra d0, 0x694f28
          0x00694f2e      4857           pea.l (a7)
          0x00694f30      3f02           move.w d2, -(a7)
          0x00694f32      3f06           move.w d6, -(a7)
          0x00694f34      4eb90043cd18   jsr G1_INPUT.g_error
          0x00694f3a      defc001e       adda.w 0x1e, a7
      > 0x00694f3e      554f           subq.w 0x2, a7
          0x00694f40      4eb90043cb88   jsr G1_INPUT.g_current
          0x00694f46      4280           clr.l d0
          0x00694f48      101f           move.b (a7)+, d0
          0x00694f4a      41fa86f8       lea.l 0x68d644(pc), a0
          0x00694f4e      3200           move.w d0, d1
          0x00694f50      e649           lsr.w 0x3, d1
          0x00694f52      01301000       btst.l d0, (a0, d1.w)
      < 0x00694f56      671a           beq.b 0x694f72
         0x00694f58      4280           clr.l d0
         0x00694f5a      1013           move.b (a3), d0
         0x00694f5c      c1c4           muls.w d4, d0
         0x00694f5e      554f           subq.w 0x2, a7
         0x00694f60      4e94           jsr (a4)                    ; fcn.0000000d
         0x00694f62      4281           clr.l d1
         0x00694f64      121f           move.b (a7)+, d1
         0x00694f66      d240           add.w d0, d1
         0x00694f68      9245           sub.w d5, d1
         0x00694f6a      43bc00ff       chk.w 0xff, d1
         0x00694f6e      1681           move.b d1, (a3)
      < 0x00694f70      60cc           bra.b 0x694f3e
       > 0x00694f72      4a12           tst.b (a2)
       < 0x00694f74      6706           beq.b 0x694f7c
          0x00694f76      1012           move.b (a2), d0
          0x00694f78      b007           cmp.b d7, d0
      < 0x00694f7a      6320           bls.b 0x694f9c
      > 0x00694f7c      9ec3           suba.w d3, a7
          0x00694f7e      204f           movea.l a7, a0
          0x00694f80      43fa86e3       lea.l 0x68d665(pc), a1
          0x00694f84      701b           moveq 0x1b, d0
      > 0x00694f86      10d9           move.b (a1)+, (a0)+
      < 0x00694f88      51c8fffc       dbra d0, 0x694f86
          0x00694f8c      4857           pea.l (a7)
          0x00694f8e      3f02           move.w d2, -(a7)
          0x00694f90      3f03           move.w d3, -(a7)
          0x00694f92      4eb90043cd18   jsr G1_INPUT.g_error
          0x00694f98      defc0024       adda.w 0x24, a7
      > 0x00694f9c      4a13           tst.b (a3)
       < 0x00694f9e      6706           beq.b 0x694fa6
          0x00694fa0      1013           move.b (a3), d0
          0x00694fa2      b007           cmp.b d7, d0
      < 0x00694fa4      6320           bls.b 0x694fc6
      > 0x00694fa6      41fa8700       lea.l 0x68d6a8(pc), a0
          0x00694faa      7008           moveq 0x8, d0
      > 0x00694fac      2f20           move.l -(a0), -(a7)
      < 0x00694fae      51c8fffc       dbra d0, 0x694fac
          0x00694fb2      3f20           move.w -(a0), -(a7)
          0x00694fb4      4857           pea.l (a7)
          0x00694fb6      3f02           move.w d2, -(a7)
          0x00694fb8      3f3c0026       move.w 0x26, -(a7)
          0x00694fbc      4eb90043cd18   jsr G1_INPUT.g_error
          0x00694fc2      defc002e       adda.w 0x2e, a7
      > 0x00694fc6      594f           subq.w 0x4, a7
           0x00694fc8      3f12           move.w (a2), -(a7)
           0x00694fca      4eb90066e8bc   jsr N10_UTILS.n_drive_id
           0x00694fd0      544f           addq.w 0x2, a7
           0x00694fd2      2d5ffffa       move.l (a7)+, -0x6(a6)
           0x00694fd6      4eb90043cbc8   jsr G1_INPUT.g_skip_spaces
           0x00694fdc      554f           subq.w 0x2, a7
           0x00694fde      4e94           jsr (a4)                    ; fcn.0000000d
           0x00694fe0      101f           move.b (a7)+, d0
           0x00694fe2      0c00002f       cmpi.b 0x2f, d0
       < 0x00694fe6      6722           beq.b 0x69500a
          0x00694fe8      9ec3           suba.w d3, a7
          0x00694fea      204f           movea.l a7, a0
          0x00694fec      43fa86bb       lea.l 0x68d6a9(pc), a1
          0x00694ff0      701a           moveq 0x1a, d0
      > 0x00694ff2      10d9           move.b (a1)+, (a0)+
      < 0x00694ff4      51c8fffc       dbra d0, 0x694ff2
          0x00694ff8      4857           pea.l (a7)
          0x00694ffa      3f02           move.w d2, -(a7)
          0x00694ffc      3f3c001b       move.w 0x1b, -(a7)
          0x00695000      4eb90043cd18   jsr G1_INPUT.g_error
          0x00695006      defc0024       adda.w 0x24, a7
       > 0x0069500a      486efffa       pea.l -0x6(a6)
           0x0069500e      4ebafd84       jsr BOOTCOM.read_addr(pc)
           0x00695012      584f           addq.w 0x4, a7
           0x00695014      206e0008       movea.l 0x8(a6), a0
           0x00695018      20aefffa       move.l -0x6(a6), (a0)
           0x0069501c      4cdf1fff       movem.l (a7)+, d0-d7/a0-a4
           0x00695020      4e5e           unlk a6
           0x00695022      4e75           rts
 54: BOOTCOM.read_magopt_add ();
           0x00695024      4e56ffec       link.w a6, 0xffec
           0x00695028      bfd5           cmpa.l (a5), a7
       < 0x0069502a      6206           bhi.b 0x695032
          0x0069502c      44fc0002       move.w 0x2, ccr
          0x00695030      4e76           trapv
       > 0x00695032      defc0010       adda.w 0x10, a7
           0x00695036      48e700c0       movem.l a0-a1, -(a7)
           0x0069503a      43eefffc       lea.l -0x4(a6), a1
           0x0069503e      4211           clr.b (a1)
           0x00695040      422efffd       clr.b -0x3(a6)
           0x00695044      4851           pea.l (a1)
           0x00695046      4ebafd4c       jsr BOOTCOM.read_addr(pc)
           0x0069504a      584f           addq.w 0x4, a7
           0x0069504c      206e0008       movea.l 0x8(a6), a0
           0x00695050      2091           move.l (a1), (a0)
           0x00695052      4cdf0300       movem.l (a7)+, a0-a1
           0x00695056      4e5e           unlk a6
           0x00695058      4e75           rts
            ; CALL XREFS from BOOTCOM.install_command @ 0x69522c, 0x695352
 168: BOOTCOM.read_drive_addr ();
           0x0069505a      4e56ff84       link.w a6, 0xff84
           0x0069505e      bfd5           cmpa.l (a5), a7
       < 0x00695060      6206           bhi.b 0x695068
          0x00695062      44fc0002       move.w 0x2, ccr
          0x00695066      4e76           trapv
       > 0x00695068      defc006a       adda.w 0x6a, a7
           0x0069506c      48e7e0f0       movem.l d0-d2/a0-a3, -(a7)
           0x00695070      45ee000c       lea.l 0xc(a6), a2
           0x00695074      47ee0008       lea.l 0x8(a6), a3
           0x00695078      7201           moveq 0x1, d1
           0x0069507a      7410           moveq 0x10, d2
           0x0069507c      9efc0012       suba.w 0x12, a7
           0x00695080      4eb90043cefe   jsr G1_INPUT.g_name
           0x00695086      2d5fffee       move.l (a7)+, -0x12(a6)
           0x0069508a      2d5ffff2       move.l (a7)+, -0xe(a6)
           0x0069508e      2d5ffff6       move.l (a7)+, -0xa(a6)
           0x00695092      2d5ffffa       move.l (a7)+, -0x6(a6)
           0x00695096      1d57fffe       move.b (a7), -0x2(a6)
           0x0069509a      9efc0024       suba.w 0x24, a7
           0x0069509e      204f           movea.l a7, a0
           0x006950a0      43fa8623       lea.l 0x68d6c5(pc), a1
           0x006950a4      7025           moveq 0x25, d0
       > 0x006950a6      10d9           move.b (a1)+, (a0)+
       < 0x006950a8      51c8fffc       dbra d0, 0x6950a6
           0x006950ac      9efc000e       suba.w 0xe, a7
           0x006950b0      2f2effee       move.l -0x12(a6), -(a7)
           0x006950b4      2f6efff20004   move.l -0xe(a6), 0x4(a7)
           0x006950ba      2f6efff60008   move.l -0xa(a6), 0x8(a7)
           0x006950c0      2f6efffa000c   move.l -0x6(a6), 0xc(a7)
           0x006950c6      1f6efffe0010   move.b -0x2(a6), 0x10(a7)
           0x006950cc      554f           subq.w 0x2, a7
           0x006950ce      486f0014       pea.l 0x14(a7)
           0x006950d2      3f01           move.w d1, -(a7)
           0x006950d4      3f3c0026       move.w 0x26, -(a7)
           0x006950d8      486f000a       pea.l 0xa(a7)
           0x006950dc      4267           clr.w -(a7)
           0x006950de      3f02           move.w d2, -(a7)
           0x006950e0      4eb9004401ac   jsr G4_LEXICAL.g_compare
           0x006950e6      dec2           adda.w d2, a7
           0x006950e8      301f           move.w (a7)+, d0
           0x006950ea      defc0038       adda.w 0x38, a7
           0x006950ee      5340           subq.w 0x1, d0
           0x006950f0      0c400006       cmpi.w 0x6, d0
       < 0x006950f4      620000ae       bhi.w 0x6951a4
          0x006950f8      d040           add.w d0, d0
          0x006950fa      303b0006       move.w 0x695102(pc, d0.w), d0
          0x006950fe      4efb0002       jmp 0x695102(pc, d0.w)
           0x00695102      000e001a       
           0x00695103      0e001a00       
           0x00695104      001a002a       ori.b 0x2a, (a2)+
           0x00695108      002a003e004e   ori.b 0x3e, 0x4e(a2)
           0x0069510e      004e2052       
           0x0069510f      4e205242       
           0x00695110      2052           movea.l (a2), a0
           0x00695112      4210           clr.b (a0)
           0x00695114      2053           movea.l (a3), a0
           0x00695116      4290           clr.l (a0)
       < 0x00695118      600000aa       bra.w 0x6951c4
          0x0069511c      2052           movea.l (a2), a0
          0x0069511e      1081           move.b d1, (a0)
          0x00695120      2053           movea.l (a3), a0
          0x00695122      20bc00010000   move.l 0x10000, (a0)
      < 0x00695128      6000009a       bra.w 0x6951c4
         0x0069512c      2052           movea.l (a2), a0
         0x0069512e      10bc0002       move.b 0x2, (a0)
         0x00695132      2053           movea.l (a3), a0
         0x00695134      4850           pea.l (a0)
         0x00695136      4ebafeec       jsr BOOTCOM.read_magopt_add(pc)
     > 0x0069513a      584f           addq.w 0x4, a7
    < 0x0069513c      60000086       bra.w 0x6951c4
       0x00695140      2052           movea.l (a2), a0
       0x00695142      10bc0003       move.b 0x3, (a0)
       0x00695146      2053           movea.l (a3), a0
       0x00695148      4850           pea.l (a0)
       0x0069514a      4ebafd52       jsr BOOTCOM.read_net_addr(pc)
    < 0x0069514e      60ea           bra.b 0x69513a
        0x00695150      2053           movea.l (a3), a0
        0x00695152      554f           subq.w 0x2, a7
        0x00695154      4850           pea.l (a0)
        0x00695156      4eb900628050   jsr PICTURENET.scsi_floppy_dri
        0x0069515c      584f           addq.w 0x4, a7
        0x0069515e      4a1f           tst.b (a7)+
        0x00695160      2010           move.l (a0), d0
        0x00695162      0c80ffffffff   cmpi.l 0xffffffff, d0
    < 0x00695168      6632           bne.b 0x69519c
       0x0069516a      9efc000c       suba.w 0xc, a7
       0x0069516e      2f3a857c       move.l 0x68d6ec(pc), -(a7)
       0x00695172      2f7a857c0004   move.l 0x68d6f0(pc), 0x4(a7)
       0x00695178      2f7a857a0008   move.l 0x68d6f4(pc), 0x8(a7)
       0x0069517e      3f7a8578000c   move.w 0x68d6f8(pc), 0xc(a7)
       0x00695184      1f7a8574000e   move.b 0x68d6fa(pc), 0xe(a7)
       0x0069518a      4857           pea.l (a7)
       0x0069518c      3f01           move.w d1, -(a7)
       0x0069518e      3f3c000f       move.w 0xf, -(a7)
       0x00695192      4eb90043cd18   jsr G1_INPUT.g_error
       0x00695198      defc0018       adda.w 0x18, a7
    > 0x0069519c      2052           movea.l (a2), a0
        0x0069519e      10bc0004       move.b 0x4, (a0)
    < 0x006951a2      6020           bra.b 0x6951c4
    > 0x006951a4      41fa8584       lea.l 0x68d72a(pc), a0
        0x006951a8      700a           moveq 0xa, d0
    > 0x006951aa      2f20           move.l -(a0), -(a7)
    < 0x006951ac      51c8fffc       dbra d0, 0x6951aa
        0x006951b0      3f20           move.w -(a0), -(a7)
        0x006951b2      4857           pea.l (a7)
        0x006951b4      3f01           move.w d1, -(a7)
        0x006951b6      3f3c002e       move.w 0x2e, -(a7)
        0x006951ba      4eb90043cd18   jsr G1_INPUT.g_error
        0x006951c0      defc0036       adda.w 0x36, a7
    > 0x006951c4      4cdf0f07       movem.l (a7)+, d0-d2/a0-a3
            0x006951c8      4e5e           unlk a6
            0x006951ca      4e75           rts
 740: BOOTCOM.install_command ();
           ; var int32_t var_14h @ a6-0x14
           0x006951cc      4e56ff6e       link.w a6, 0xff6e
           0x006951d0      bfd5           cmpa.l (a5), a7
       < 0x006951d2      6206           bhi.b 0x6951da
          0x006951d4      44fc0002       move.w 0x2, ccr
          0x006951d8      4e76           trapv
       > 0x006951da      defc006a       adda.w 0x6a, a7
           0x006951de      48e7fff8       movem.l d0-d7/a0-a4, -(a7)
           0x006951e2      45eeffd8       lea.l -0x28(a6), a2
           0x006951e6      47eeffdc       lea.l -0x24(a6), a3
           0x006951ea      49eeffe0       lea.l -0x20(a6), a4
           0x006951ee      7601           moveq 0x1, d3
           0x006951f0      7804           moveq 0x4, d4
           0x006951f2      7a10           moveq 0x10, d5
           0x006951f4      554f           subq.w 0x2, a7
           0x006951f6      4eb90043cc02   jsr G1_INPUT.g_end_of_line
           0x006951fc      4a1f           tst.b (a7)+
       < 0x006951fe      6724           beq.b 0x695224
          0x00695200      9efc002a       suba.w 0x2a, a7
          0x00695204      204f           movea.l a7, a0
          0x00695206      43fa8523       lea.l 0x68d72b(pc), a1
          0x0069520a      7029           moveq 0x29, d0
      > 0x0069520c      10d9           move.b (a1)+, (a0)+
      < 0x0069520e      51c8fffc       dbra d0, 0x69520c
          0x00695212      4857           pea.l (a7)
          0x00695214      3f03           move.w d3, -(a7)
          0x00695216      3f3c002a       move.w 0x2a, -(a7)
          0x0069521a      4eb90043cd18   jsr G1_INPUT.g_error
          0x00695220      defc0032       adda.w 0x32, a7
       > 0x00695224      486effe9       pea.l -0x17(a6)
           0x00695228      486efff0       pea.l -0x10(a6)
           0x0069522c      4ebafe2c       jsr BOOTCOM.read_drive_addr(pc)
           0x00695230      9efc000a       suba.w 0xa, a7
           0x00695234      4eb90043cefe   jsr G1_INPUT.g_name
           0x0069523a      249f           move.l (a7)+, (a2)
           0x0069523c      269f           move.l (a7)+, (a3)
           0x0069523e      289f           move.l (a7)+, (a4)
           0x00695240      2d5fffe4       move.l (a7)+, -0x1c(a6)
           0x00695244      1d5fffe8       move.b (a7)+, -0x18(a6)
           0x00695248      2f3a850c       move.l 0x68d756(pc), -(a7)
           0x0069524c      9efc000e       suba.w 0xe, a7
           0x00695250      2f12           move.l (a2), -(a7)
           0x00695252      2f530004       move.l (a3), 0x4(a7)
           0x00695256      2f540008       move.l (a4), 0x8(a7)
           0x0069525a      2f6effe4000c   move.l -0x1c(a6), 0xc(a7)
           0x00695260      1f6effe80010   move.b -0x18(a6), 0x10(a7)
           0x00695266      554f           subq.w 0x2, a7
           0x00695268      486f0014       pea.l 0x14(a7)
           0x0069526c      3f03           move.w d3, -(a7)
           0x0069526e      3f04           move.w d4, -(a7)
           0x00695270      486f000a       pea.l 0xa(a7)
           0x00695274      4267           clr.w -(a7)
           0x00695276      3f05           move.w d5, -(a7)
           0x00695278      4eb9004401ac   jsr G4_LEXICAL.g_compare
           0x0069527e      dec5           adda.w d5, a7
           0x00695280      301f           move.w (a7)+, d0
           0x00695282      b043           cmp.w d3, d0
       < 0x00695284      6722           beq.b 0x6952a8
          0x00695286      9ec5           suba.w d5, a7
          0x00695288      204f           movea.l a7, a0
          0x0069528a      43fa84cf       lea.l 0x68d75b(pc), a1
          0x0069528e      700e           moveq 0xe, d0
      > 0x00695290      10d9           move.b (a1)+, (a0)+
      < 0x00695292      51c8fffc       dbra d0, 0x695290
          0x00695296      4857           pea.l (a7)
          0x00695298      3f03           move.w d3, -(a7)
          0x0069529a      3f3c000f       move.w 0xf, -(a7)
          0x0069529e      4eb90043cd18   jsr G1_INPUT.g_error
          0x006952a4      defc0018       adda.w 0x18, a7
       > 0x006952a8      defc0012       adda.w 0x12, a7
           0x006952ac      48780001       pea.l 0x1
           0x006952b0      48780007       pea.l 0x7
           0x006952b4      4eb90043e376   jsr G2_EXPRESSION.g_number
           0x006952ba      504f           addq.w 0x8, a7
           0x006952bc      2e17           move.l (a7), d7
           0x006952be      9efc000e       suba.w 0xe, a7
           0x006952c2      4eb90043cefe   jsr G1_INPUT.g_name
           0x006952c8      249f           move.l (a7)+, (a2)
           0x006952ca      269f           move.l (a7)+, (a3)
           0x006952cc      289f           move.l (a7)+, (a4)
           0x006952ce      2d5fffe4       move.l (a7)+, -0x1c(a6)
           0x006952d2      1d57ffe8       move.b (a7), -0x18(a6)
           0x006952d6      1eba8493       move.b 0x68d76b(pc), (a7)
           0x006952da      1f7a84900001   move.b 0x68d76c(pc), 0x1(a7)
           0x006952e0      9efc000e       suba.w 0xe, a7
           0x006952e4      2f12           move.l (a2), -(a7)
           0x006952e6      2f530004       move.l (a3), 0x4(a7)
           0x006952ea      2f540008       move.l (a4), 0x8(a7)
           0x006952ee      2f6effe4000c   move.l -0x1c(a6), 0xc(a7)
           0x006952f4      1f6effe80010   move.b -0x18(a6), 0x10(a7)
           0x006952fa      554f           subq.w 0x2, a7
           0x006952fc      486f0014       pea.l 0x14(a7)
           0x00695300      3f03           move.w d3, -(a7)
           0x00695302      3f3c0002       move.w 0x2, -(a7)
           0x00695306      486f000a       pea.l 0xa(a7)
           0x0069530a      4267           clr.w -(a7)
           0x0069530c      3f05           move.w d5, -(a7)
           0x0069530e      4eb9004401ac   jsr G4_LEXICAL.g_compare
           0x00695314      dec5           adda.w d5, a7
           0x00695316      301f           move.w (a7)+, d0
           0x00695318      b043           cmp.w d3, d0
       < 0x0069531a      672a           beq.b 0x695346
          0x0069531c      514f           subq.w 0x8, a7
          0x0069531e      2f3a844e       move.l 0x68d76e(pc), -(a7)
          0x00695322      2f7a844e0004   move.l 0x68d772(pc), 0x4(a7)
          0x00695328      3f7a844c0008   move.w 0x68d776(pc), 0x8(a7)
          0x0069532e      1f7a8448000a   move.b 0x68d778(pc), 0xa(a7)
          0x00695334      4857           pea.l (a7)
          0x00695336      3f03           move.w d3, -(a7)
          0x00695338      3f3c000b       move.w 0xb, -(a7)
          0x0069533c      4eb90043cd18   jsr G1_INPUT.g_error
          0x00695342      defc0014       adda.w 0x14, a7
       > 0x00695346      defc0014       adda.w 0x14, a7
           0x0069534a      486effea       pea.l -0x16(a6)
           0x0069534e      486efff4       pea.l -0xc(a6)
           0x00695352      4ebafd06       jsr BOOTCOM.read_drive_addr(pc)
           0x00695356      9efc000a       suba.w 0xa, a7
           0x0069535a      4eb90043cefe   jsr G1_INPUT.g_name
           0x00695360      249f           move.l (a7)+, (a2)
           0x00695362      269f           move.l (a7)+, (a3)
           0x00695364      289f           move.l (a7)+, (a4)
           0x00695366      2d5fffe4       move.l (a7)+, -0x1c(a6)
           0x0069536a      1d5fffe8       move.b (a7)+, -0x18(a6)
           0x0069536e      2f3a840a       move.l 0x68d77a(pc), -(a7)
           0x00695372      9efc000e       suba.w 0xe, a7
           0x00695376      2f12           move.l (a2), -(a7)
           0x00695378      2f530004       move.l (a3), 0x4(a7)
           0x0069537c      2f540008       move.l (a4), 0x8(a7)
           0x00695380      2f6effe4000c   move.l -0x1c(a6), 0xc(a7)
           0x00695386      1f6effe80010   move.b -0x18(a6), 0x10(a7)
           0x0069538c      554f           subq.w 0x2, a7
           0x0069538e      486f0014       pea.l 0x14(a7)
           0x00695392      3f03           move.w d3, -(a7)
           0x00695394      3f04           move.w d4, -(a7)
           0x00695396      486f000a       pea.l 0xa(a7)
           0x0069539a      4267           clr.w -(a7)
           0x0069539c      3f05           move.w d5, -(a7)
           0x0069539e      4eb9004401ac   jsr G4_LEXICAL.g_compare
           0x006953a4      dec5           adda.w d5, a7
           0x006953a6      301f           move.w (a7)+, d0
           0x006953a8      b043           cmp.w d3, d0
       < 0x006953aa      6722           beq.b 0x6953ce
          0x006953ac      9ec5           suba.w d5, a7
          0x006953ae      204f           movea.l a7, a0
          0x006953b0      43fa83cd       lea.l 0x68d77f(pc), a1
          0x006953b4      700e           moveq 0xe, d0
      > 0x006953b6      10d9           move.b (a1)+, (a0)+
      < 0x006953b8      51c8fffc       dbra d0, 0x6953b6
          0x006953bc      4857           pea.l (a7)
          0x006953be      3f03           move.w d3, -(a7)
          0x006953c0      3f3c000f       move.w 0xf, -(a7)
          0x006953c4      4eb90043cd18   jsr G1_INPUT.g_error
          0x006953ca      defc0018       adda.w 0x18, a7
       > 0x006953ce      defc0012       adda.w 0x12, a7
           0x006953d2      48780001       pea.l 0x1
           0x006953d6      48780007       pea.l 0x7
           0x006953da      4eb90043e376   jsr G2_EXPRESSION.g_number
           0x006953e0      504f           addq.w 0x8, a7
           0x006953e2      2c1f           move.l (a7)+, d6
           0x006953e4      102effe9       move.b -0x17(a6), d0
           0x006953e8      b004           cmp.b d4, d0
       < 0x006953ea      670a           beq.b 0x6953f6
          0x006953ec      122effea       move.b -0x16(a6), d1
          0x006953f0      b204           cmp.b d4, d1
      < 0x006953f2      66000094       bne.w 0x695488
      > 0x006953f6      487a8397       pea.l 0x68d78f(pc)
          0x006953fa      4878000a       pea.l 0xa
          0x006953fe      2f17           move.l (a7), -(a7)
          0x00695400      4eb9004047ea   jsr p_wts_o
          0x00695406      defc000c       adda.w 0xc, a7
          0x0069540a      4eb900404946   jsr p_wtln_o
          0x00695410      554f           subq.w 0x2, a7
          0x00695412      486effec       pea.l -0x14(a6)
          0x00695416      4eb900627f9a   jsr PICTURENET.add_floppy
          0x0069541c      584f           addq.w 0x4, a7
          0x0069541e      4a1f           tst.b (a7)+
      < 0x00695420      672a           beq.b 0x69544c
         0x00695422      487a8376       pea.l 0x68d79a(pc)
         0x00695426      4878000e       pea.l 0xe
         0x0069542a      2f17           move.l (a7), -(a7)
         0x0069542c      4eb9004047ea   jsr p_wts_o
         0x00695432      504f           addq.w 0x8, a7
         0x00695434      2eaeffec       move.l -0x14(a6), (a7)
         0x00695438      4878ffff       pea.l 0xffff
         0x0069543c      4eb9004070e4   jsr p_wti_o
         0x00695442      504f           addq.w 0x8, a7
         0x00695444      4eb900404946   jsr p_wtln_o
     < 0x0069544a      6024           bra.b 0x695470
     > 0x0069544c      9efc0014       suba.w 0x14, a7
         0x00695450      204f           movea.l a7, a0
         0x00695452      43fa8355       lea.l 0x68d7a9(pc), a1
         0x00695456      7213           moveq 0x13, d1
     > 0x00695458      10d9           move.b (a1)+, (a0)+
     < 0x0069545a      51c9fffc       dbra d1, 0x695458
         0x0069545e      4857           pea.l (a7)
         0x00695460      3f03           move.w d3, -(a7)
         0x00695462      3f3c0014       move.w 0x14, -(a7)
         0x00695466      4eb90043cd18   jsr G1_INPUT.g_error
         0x0069546c      defc001c       adda.w 0x1c, a7
     > 0x00695470      b004           cmp.b d4, d0
      < 0x00695472      6606           bne.b 0x69547a
         0x00695474      2d6effecfff0   move.l -0x14(a6), -0x10(a6)
      > 0x0069547a      122effea       move.b -0x16(a6), d1
          0x0069547e      b204           cmp.b d4, d1
      < 0x00695480      6606           bne.b 0x695488
         0x00695482      2d6effecfff4   move.l -0x14(a6), -0xc(a6)
      > 0x00695488      487a8334       pea.l 0x68d7be(pc)
           0x0069548c      48780008       pea.l 0x8
           0x00695490      2f17           move.l (a7), -(a7)
           0x00695492      4eb9004047ea   jsr p_wts_o
           0x00695498      defc000c       adda.w 0xc, a7
           0x0069549c      4880           ext.w d0
           0x0069549e      3200           move.w d0, d1
           0x006954a0      b244           cmp.w d4, d1
       < 0x006954a2      6302           bls.b 0x6954a6
          0x006954a4      4e4e           trap 0xe
       > 0x006954a6      d241           add.w d1, d1
           0x006954a8      323b1006       move.w 0x6954b0(pc, d1.w), d1
           0x006954ac      4efb1002       jmp 0x6954b0(pc, d1.w)
            0x006954b0      000a0020       
            0x006954b1      0a002000       eori.b 0x0, d0
            0x006954b5      2a00           move.l d0, d5
            0x006954b7      3000           move.w d0, d0
            0x006954b9      3a48           movea.w a0, a5
            0x006954bb      7a83           moveq 0x83, d5
            0x006954bd      0b487800       movep.l 0x7800(a0), d5
            0x006954c1      052f174e       btst.l d2, 0x174e(a7)
          0x006954c5      b900           eor.b d4, d0
          0x006954c7      4047           negx.w d7
          0x006954c9      eadefc00       
          0x006954ca      defc000c       adda.w 0xc, a7
      < 0x006954ce      6020           bra.b 0x6954f0
         0x006954d0      487a82fb       pea.l 0x68d7cd(pc)
    > 0x006954d4      48780006       pea.l 0x6
    < 0x006954d8      60e8           bra.b 0x6954c2
        0x006954da      487a82f8       pea.l 0x68d7d4(pc)
    < 0x006954de      60f4           bra.b 0x6954d4
         0x006954e0      487a82f9       pea.l 0x68d7db(pc)
         0x006954e4      48780003       pea.l 0x3
      < 0x006954e8      60d8           bra.b 0x6954c2
          0x006954ea      487a8303       pea.l 0x68d7ef(pc)
     < 0x006954ee      60e4           bra.b 0x6954d4
      > 0x006954f0      487a8304       pea.l 0x68d7f6(pc)
            0x006954f4      48780006       pea.l 0x6
            0x006954f8      2f17           move.l (a7), -(a7)
            0x006954fa      4eb9004047ea   jsr p_wts_o
            0x00695500      504f           addq.w 0x8, a7
            0x00695502      2eaefff0       move.l -0x10(a6), (a7)
            0x00695506      4878ffff       pea.l 0xffff
            0x0069550a      4eb9004070e4   jsr p_wti_o
            0x00695510      504f           addq.w 0x8, a7
            0x00695512      487a82e9       pea.l 0x68d7fd(pc)
            0x00695516      48780006       pea.l 0x6
            0x0069551a      2f17           move.l (a7), -(a7)
            0x0069551c      4eb9004047ea   jsr p_wts_o
            0x00695522      504f           addq.w 0x8, a7
            0x00695524      2e87           move.l d7, (a7)
            0x00695526      48780000       pea.l 0x0
            0x0069552a      4eb9004070e4   jsr p_wti_o
            0x00695530      504f           addq.w 0x8, a7
            0x00695532      487a82d0       pea.l 0x68d804(pc)
            0x00695536      48780004       pea.l 0x4
            0x0069553a      2f17           move.l (a7), -(a7)
            0x0069553c      4eb9004047ea   jsr p_wts_o
            0x00695542      defc000c       adda.w 0xc, a7
            0x00695546      122effea       move.b -0x16(a6), d1
            0x0069554a      4881           ext.w d1
            0x0069554c      3401           move.w d1, d2
            0x0069554e      b444           cmp.w d4, d2
        < 0x00695550      6302           bls.b 0x695554
           0x00695552      4e4e           trap 0xe
        > 0x00695554      d442           add.w d2, d2
            0x00695556      343b2006       move.w 0x69555e(pc, d2.w), d2
            0x0069555a      4efb2002       jmp 0x69555e(pc, d2.w)
            0x0069555e      000a0020       
            0x0069555f      0a002000       eori.b 0x0, d0
            0x00695563      2a00           move.l d0, d5
            0x00695565      3000           move.w d0, d0
            0x00695567      3a48           movea.w a0, a5
            0x00695569      7a82           moveq 0x82, d5
            0x0069556b      9f48           subx.w -(a0), -(a7)
            0x0069556d      7800           moveq 0x0, d4
            0x0069556f      052f174e       btst.l d2, 0x174e(a7)
          0x00695573      b900           eor.b d4, d0
          0x00695575      4047           negx.w d7
          0x00695577      eadefc00       
          0x00695578      defc000c       adda.w 0xc, a7
      < 0x0069557c      6020           bra.b 0x69559e
         0x0069557e      487a828f       pea.l 0x68d80f(pc)
    > 0x00695582      48780006       pea.l 0x6
    < 0x00695586      60e8           bra.b 0x695570
        0x00695588      487a828c       pea.l 0x68d816(pc)
    < 0x0069558c      60f4           bra.b 0x695582
         0x0069558e      487a828d       pea.l 0x68d81d(pc)
         0x00695592      48780003       pea.l 0x3
      < 0x00695596      60d8           bra.b 0x695570
          0x00695598      487a8297       pea.l 0x68d831(pc)
     < 0x0069559c      60e4           bra.b 0x695582
      > 0x0069559e      487a8298       pea.l 0x68d838(pc)
            0x006955a2      48780006       pea.l 0x6
            0x006955a6      2f17           move.l (a7), -(a7)
            0x006955a8      4eb9004047ea   jsr p_wts_o
            0x006955ae      504f           addq.w 0x8, a7
            0x006955b0      2eaefff4       move.l -0xc(a6), (a7)
            0x006955b4      4878ffff       pea.l 0xffff
            0x006955b8      4eb9004070e4   jsr p_wti_o
            0x006955be      504f           addq.w 0x8, a7
            0x006955c0      487a827d       pea.l 0x68d83f(pc)
            0x006955c4      48780006       pea.l 0x6
            0x006955c8      2f17           move.l (a7), -(a7)
            0x006955ca      4eb9004047ea   jsr p_wts_o
            0x006955d0      504f           addq.w 0x8, a7
            0x006955d2      2e86           move.l d6, (a7)
            0x006955d4      48780000       pea.l 0x0
            0x006955d8      4eb9004070e4   jsr p_wti_o
            0x006955de      504f           addq.w 0x8, a7
            0x006955e0      4eb900404946   jsr p_wtln_o
            0x006955e6      1f00           move.b d0, -(a7)
            0x006955e8      1f01           move.b d1, -(a7)
            0x006955ea      2f2efff0       move.l -0x10(a6), -(a7)
            0x006955ee      2f2efff4       move.l -0xc(a6), -(a7)
            0x006955f2      2f07           move.l d7, -(a7)
            0x006955f4      2f06           move.l d6, -(a7)
            0x006955f6      4227           clr.b -(a7)
            0x006955f8      4ebaf448       jsr BOOTCOM.sw_install(pc)
            0x006955fc      defc0016       adda.w 0x16, a7
            0x00695600      b004           cmp.b d4, d0
        < 0x00695602      6704           beq.b 0x695608
           0x00695604      b204           cmp.b d4, d1
       < 0x00695606      6620           bne.b 0x695628
       > 0x00695608      487a823c       pea.l 0x68d846(pc)
           0x0069560c      4878000e       pea.l 0xe
           0x00695610      2f17           move.l (a7), -(a7)
           0x00695612      4eb9004047ea   jsr p_wts_o
           0x00695618      defc000c       adda.w 0xc, a7
           0x0069561c      4eb900404946   jsr p_wtln_o
           0x00695622      4eb900628032   jsr PICTURENET.remove_floppy
       > 0x00695628      4cdf1fff       movem.l (a7)+, d0-d7/a0-a4
            0x0069562c      4e5e           unlk a6
            0x0069562e      4e75           rts
            ; CALL XREF from MENUFPUTILSCOM.menu_fpu_init @ 0x4fbf8c
 116: BOOTCOM.boot_init ();
           0x00695630      4e56ffbc       link.w a6, 0xffbc
           0x00695634      bfd5           cmpa.l (a5), a7
       < 0x00695636      6206           bhi.b 0x69563e
          0x00695638      44fc0002       move.w 0x2, ccr
          0x0069563c      4e76           trapv
       > 0x0069563e      defc0040       adda.w 0x40, a7
           0x00695642      48e7f0c0       movem.l d0-d3/a0-a1, -(a7)
           0x00695646      7212           moveq 0x12, d1
           0x00695648      7401           moveq 0x1, d2
           0x0069564a      7620           moveq 0x20, d3
           0x0069564c      9ec1           suba.w d1, a7
           0x0069564e      2f3a8204       move.l 0x68d854(pc), -(a7)
           0x00695652      1f7a82040004   move.b 0x68d858(pc), 0x4(a7)
           0x00695658      1f02           move.b d2, -(a7)
           0x0069565a      48780001       pea.l 0x1
           0x0069565e      486d0010       pea.l 0x10(a5)
           0x00695662      487a937e       pea.l BOOTCOM.boot_command(pc)
           0x00695666      4eb90043b79c   jsr G0_MAIN.g_new_command
           0x0069566c      dec3           adda.w d3, a7
           0x0069566e      2d57fffc       move.l (a7), -0x4(a6)
           0x00695672      9ec1           suba.w d1, a7
           0x00695674      204f           movea.l a7, a0
           0x00695676      43fa81e1       lea.l 0x68d859(pc), a1
           0x0069567a      7007           moveq 0x7, d0
       > 0x0069567c      10d9           move.b (a1)+, (a0)+
       < 0x0069567e      51c8fffc       dbra d0, 0x69567c
           0x00695682      1f02           move.b d2, -(a7)
           0x00695684      48780001       pea.l 0x1
           0x00695688      486d0010       pea.l 0x10(a5)
           0x0069568c      487afb3e       pea.l BOOTCOM.install_command(pc)
           0x00695690      4eb90043b79c   jsr G0_MAIN.g_new_command
           0x00695696      dec3           adda.w d3, a7
           0x00695698      2d5ffffc       move.l (a7)+, -0x4(a6)
           0x0069569c      4cdf030f       movem.l (a7)+, d0-d3/a0-a1
           0x006956a0      4e5e           unlk a6
