            ;-- BRUSHCOM:
            0x0051df3e      .byte 0x00
            0x0051df3f      .byte 0x88
            0x0051df40      .byte 0x00
            0x0051df41      .byte 0x46
            0x0051df42      .byte 0x00
            0x0051df43      .byte 0xd2
            0x0051df44      .byte 0x00
            0x0051df45      .byte 0x51
            0x0051df46      .byte 0x00
            0x0051df47      .byte 0x80
            0x0051df48      .byte 0x00
            0x0051df49      .byte 0x80
            0x0051df4a      .byte 0x00
            0x0051df4b      .byte 0x3c
            0x0051df4c      .byte 0x00
            0x0051df4d      .byte 0x80
            0x0051df4e      .byte 0x00
            0x0051df4f      .byte 0x80
            0x0051df50      .byte 0x00
            0x0051df51      .byte 0x32
            0x0051df52      .byte 0x00
            0x0051df53      .byte 0x80
            0x0051df54      .byte 0x00
            0x0051df55      .byte 0x80
            0x0051df56      .byte 0x00
            0x0051df57      .byte 0x10
            0x0051df58      .byte 0x00
            0x0051df59      .byte 0x80
            0x0051df5a      .byte 0x00
            0x0051df5b      .byte 0x80
            0x0051df5c      .byte 0x00
            0x0051df5d      .byte 0xa7
            0x0051df5e      .byte 0x00
            0x0051df5f      .byte 0x72
            0x0051df60      .byte 0x00
            0x0051df61      .byte 0x9e
            0x0051df62      .byte 0x00
            0x0051df63      .byte 0xbf
            0x0051df64      .byte 0x00
            0x0051df65      .byte 0x80
            0x0051df66      .byte 0x00
            0x0051df67      .byte 0x80
            0x0051df68      .byte 0x00
            0x0051df69      .byte 0xa0
            0x0051df6a      .byte 0x00
            0x0051df6b      .byte 0x96
            0x0051df6c      .byte 0x00
            0x0051df6d      .byte 0x74
            0x0051df6e      .byte 0x00
            0x0051df6f      .byte 0x23
            0x0051df70      .byte 0x00
            0x0051df71      .byte 0xf0
            0x0051df72      .byte 0x00
            0x0051df73      .byte 0x6e
            0x0051df74      .byte 0x00
            0x0051df75      .byte 0x8c
            0x0051df76      .byte 0x00
            0x0051df77      .byte 0x6e
            0x0051df78      .byte 0x00
            0x0051df79      .byte 0x6e
            0x0051df7a      .byte 0x00
            0x0051df7b      .byte 0xc4
            0x0051df7c      .byte 0x00
            0x0051df7d      .byte 0x31
            0x0051df7e      .byte 0x00
            0x0051df7f      .byte 0x8c
            0x0051df80      .byte 0x00
            0x0051df81      .byte 0xa8
            0x0051df82      .byte 0x00
            0x0051df83      .byte 0x28
            0x0051df84      .byte 0x00
            0x0051df85      .byte 0xb1
            0x0051df86      .byte 0x00
            0x0051df87      .byte 0x00
            0x0051df88      .byte 0x00
            0x0051df89      .byte 0x80
            0x0051df8a      .byte 0x00
            0x0051df8b      .byte 0x80
            0x0051df8c      .byte 0x00
            0x0051df8d      .byte 0xff
            0x0051df8e      .byte 0x00
            0x0051df8f      .byte 0x80
            0x0051df90      .byte 0x00
            0x0051df91      .byte 0x80
            0x0051df92      .byte 0x00
            0x0051df93      .byte 0xcc
            0x0051df94      .byte 0x00
            0x0051df95      .byte 0x80
            0x0051df96      .byte 0x00
            0x0051df97      .byte 0x80
            0x0051df98      .byte 0x00
            0x0051df99      .byte 0xad
            0x0051df9a      .byte 0x00
            0x0051df9b      .byte 0x80
            0x0051df9c      .byte 0x00
            0x0051df9d      .byte 0x80
            0x0051df9e      .byte 0x00
            0x0051df9f      .byte 0xeb
            0x0051dfa0      .byte 0x00
            0x0051dfa1      .byte 0x80
            0x0051dfa2      .byte 0x00
            0x0051dfa3      .byte 0x80
            0x0051dfa4      .byte 0x00
            0x0051dfa5      .byte 0x10
            0x0051dfa6      .byte 0x00
            0x0051dfa7      .byte 0x80
            0x0051dfa8      .byte 0x00
            0x0051dfa9      .byte 0x80
            0x0051dfaa      .byte 0x00
            0x0051dfab      .byte 0x80
            0x0051dfac      .byte 0x00
            0x0051dfad      .byte 0x80
            0x0051dfae      .byte 0x00
            0x0051dfaf      .byte 0x80
            0x0051dfb0      .byte 0x00
            0x0051dfb1      .byte 0x51
            0x0051dfb2      .byte 0x00
            0x0051dfb3      .byte 0x5a
            0x0051dfb4      .byte 0x00
            0x0051dfb5      .byte 0xf0
            0x0051dfb6      .byte 0x00
            0x0051dfb7      .byte 0xd2
            0x0051dfb8      .byte 0x00
            0x0051dfb9      .byte 0x10
            0x0051dfba      .byte 0x00
            0x0051dfbb      .byte 0x92
            0x0051dfbc      .byte 0x00
            0x0051dfbd      .byte 0x29
            0x0051dfbe      .byte 0x00
            0x0051dfbf      .byte 0xf0
            0x0051dfc0      .byte 0x00
            0x0051dfc1      .byte 0x6e
            0x0051dfc2      .byte 0x00
            0x0051dfc3      .byte 0x91
            0x0051dfc4      .byte 0x00
            0x0051dfc5      .byte 0x36
            0x0051dfc6      .byte 0x00
            0x0051dfc7      .byte 0x22
            0x0051dfc8      .byte 0x00
            0x0051dfc9      .byte 0xa2
            0x0051dfca      .byte 0x00
            0x0051dfcb      .byte 0x2c
            0x0051dfcc      .byte 0x00
            0x0051dfcd      .byte 0x8e
            0x0051dfce      .byte 0x00
            0x0051dfcf      .byte 0x83
            0x0051dfd0      .byte 0x00
            0x0051dfd1      .byte 0x9c
            0x0051dfd2      .byte 0x00
            0x0051dfd3      .byte 0x2c
            0x0051dfd4      .byte 0x00
            0x0051dfd5      .byte 0x70
            0x0051dfd6      .byte 0x00
            0x0051dfd7      .byte 0x48
            0x0051dfd8      .byte 0x00
            0x0051dfd9      .byte 0x3a
            0x0051dfda      .byte 0x00
            0x0051dfdb      .byte 0x54
            0x0051dfdc      .byte 0x00
            0x0051dfdd      .byte 0xb8
            0x0051dfde      .byte 0x00
            0x0051dfdf      .byte 0xc6
            0x0051dfe0      .byte 0x00
            0x0051dfe1      .byte 0x41
            0x0051dfe2      .byte 0x00
            0x0051dfe3      .byte 0x64
            0x0051dfe4      .byte 0x00
            0x0051dfe5      .byte 0xd4
            0x0051dfe6      .byte 0x00
            0x0051dfe7      .byte 0x23
            0x0051dfe8      .byte 0x00
            0x0051dfe9      .byte 0xd4
            0x0051dfea      .byte 0x00
            0x0051dfeb      .byte 0x72
            0x0051dfec      .byte 0x00
            0x0051dfed      .byte 0xd2
            0x0051dfee      .byte 0x00
            0x0051dfef      .byte 0x10
            0x0051dff0      .byte 0x00
            0x0051dff1      .byte 0x92
            0x0051dff2      .byte 0x00
            0x0051dff3      .byte 0xaa
            0x0051dff4      .byte 0x00
            0x0051dff5      .byte 0xa6
            0x0051dff6      .byte 0x00
            0x0051dff7      .byte 0x10
            0x0051dff8      .byte 0x00
            0x0051dff9      .byte 0x91
            0x0051dffa      .byte 0x00
            0x0051dffb      .byte 0x36
            0x0051dffc      .byte 0x00
            0x0051dffd      .byte 0x22
            0x0051dffe      .byte 0x00
            0x0051dfff      .byte 0x6a
            0x0051e000      .byte 0x00
            0x0051e001      .byte 0xca
            0x0051e002      .byte 0x00
            0x0051e003      .byte 0xde
            0x0051e004      .byte 0x00
            0x0051e005      .byte 0x51
            0x0051e006      .byte 0x00
            0x0051e007      .byte 0x5a
            0x0051e008      .byte 0x00
            0x0051e009      .byte 0xf0
            0x0051e00a      .byte 0x00
            0x0051e00b      .byte 0x29
            0x0051e00c      .byte 0x00
            0x0051e00d      .byte 0xf0
            0x0051e00e      .byte 0x00
            0x0051e00f      .byte 0x6e
            0x0051e010      .byte 0x00
            0x0051e011      .byte 0x78
            0x0051e012      .byte 0x02
            0x0051e013      .byte 0xd8
            0x0051e014      .byte 0x01
            0x0051e015      .byte 0xf8
            0x0051e016      .byte 0x0b
            0x0051e017      .byte 0x60
            0x0051e018      .byte 0x01
            0x0051e019      .byte 0xf8
            0x0051e01a      .byte 0x05
            0x0051e01b      .byte 0xb0
            0x0051e01c      .byte 0x07
            0x0051e01d      .byte 0xf8
            0x0051e01e      .byte 0x0b
            0x0051e01f      .byte 0x60
            0x0051e020      .byte 0x02
            0x0051e021      .byte 0xc7
            0x0051e022      .byte 0x01
            0x0051e023      .byte 0xe5
            0x0051e024      .byte 0x03
            0x0051e025      .byte 0x00
            0x0051e026      .byte 0x01
            0x0051e027      .byte 0xe4
            0x0051e028      .byte 0x02
            0x0051e029      .byte 0xbd
            0x0051e02a      .byte 0x02
            0x0051e02b      .byte 0x3f
            0x0051e02c      .byte 0x00
            0x0051e02d      .byte 0x00
            0x0051e02e      .byte 0x00
            0x0051e02f      .byte 0x00
            0x0051e030      .byte 0x00
            0x0051e031      .byte 0x00
            0x0051e032      .byte 0x00
            0x0051e033      .byte 0x00
            0x0051e034      .byte 0x00
            0x0051e035      .byte 0x00
            0x0051e036      .byte 0x00
            0x0051e037      .byte 0x00
            0x0051e038      .byte 0x02
            0x0051e039      .byte 0xd0
            0x0051e03a      .byte 0x02
            0x0051e03b      .byte 0xd8
            0x0051e03c      .byte 0x00
            0x0051e03d      .byte 0x00
            0x0051e03e      .byte 0x00
            0x0051e03f      .byte 0x00
            0x0051e040      .byte 0x02
            0x0051e041      .byte 0xd0
            0x0051e042      .byte 0x02
            0x0051e043      .byte 0xd8
            0x0051e044      .byte 0x00
            0x0051e045      .byte 0x00
            0x0051e046      .byte 0x00
            0x0051e047      .byte 0x80
            0x0051e048      .byte 0x02
            0x0051e049      .byte 0xd0
            0x0051e04a      .byte 0x02
            0x0051e04b      .byte 0x40
            0x0051e04c      .byte 0x02
            0x0051e04d      .byte 0xd0
            0x0051e04e      .byte 0x00
            0x0051e04f      .byte 0x80
            0x0051e050      .byte 0x02
            0x0051e051      .byte 0xd0
            0x0051e052      .byte 0x02
            0x0051e053      .byte 0x40
            0x0051e054      .byte 0x00
            0x0051e055      .byte 0x00
            0x0051e056      .byte 0x03
            0x0051e057      .byte 0x40
            0x0051e058      .byte 0x02
            0x0051e059      .byte 0xd0
            0x0051e05a      .byte 0x02
            0x0051e05b      .byte 0x40
            0x0051e05c      .byte 0x02
            0x0051e05d      .byte 0xd0
            0x0051e05e      .byte 0x03
            0x0051e05f      .byte 0x40
            0x0051e060      .byte 0x02
            0x0051e061      .byte 0xd0
            0x0051e062      .byte 0x02
            0x0051e063      .byte 0x40
            0x0051e064      .byte 0x00
            0x0051e065      .byte 0x00
            0x0051e066      .byte 0x00
            0x0051e067      .byte 0x00
            0x0051e068      .byte 0x02
            0x0051e069      .byte 0x98
            0x0051e06a      .byte 0x02
            0x0051e06b      .byte 0x88
            0x0051e06c      .byte 0x02
            0x0051e06d      .byte 0x98
            0x0051e06e      .byte 0x00
            0x0051e06f      .byte 0x00
            0x0051e070      .byte 0x02
            0x0051e071      .byte 0x98
            0x0051e072      .byte 0x02
            0x0051e073      .byte 0x88
            0x0051e074      .byte 0x00
            0x0051e075      .byte 0x00
            0x0051e076      .byte 0x02
            0x0051e077      .byte 0x88
            0x0051e078      .byte 0x02
            0x0051e079      .byte 0x98
            0x0051e07a      .byte 0x02
            0x0051e07b      .byte 0x88
            0x0051e07c      .byte 0x02
            0x0051e07d      .byte 0x98
            0x0051e07e      .byte 0x02
            0x0051e07f      .byte 0x88
            0x0051e080      .byte 0x02
            0x0051e081      .byte 0x98
            0x0051e082      .byte 0x02
            0x0051e083      .byte 0x88
            0x0051e084      .byte 0x00
            0x0051e085      .byte 0x00
            0x0051e086      .byte 0x00
            0x0051e087      .byte 0x00
            0x0051e088      .byte 0x05
            0x0051e089      .byte 0xa0
            0x0051e08a      .byte 0x05
            0x0051e08b      .byte 0xb0
            0x0051e08c      .byte 0x00
            0x0051e08d      .byte 0x00
            0x0051e08e      .byte 0x00
            0x0051e08f      .byte 0x00
            0x0051e090      .byte 0x02
            0x0051e091      .byte 0xd0
            0x0051e092      .byte 0x02
            0x0051e093      .byte 0xd8
            0x0051e094      .byte 0x00
            0x0051e095      .byte 0xc8
            0x0051e096      .byte 0x00
            0x0051e097      .byte 0x0c
            0x0051e098      .byte 0x01
            0x0051e099      .byte 0xb8
            0x0051e09a      .byte 0x00
            0x0051e09b      .byte 0x6c
            0x0051e09c      .byte 0x00
            0x0051e09d      .byte 0x00
            0x0051e09e      .byte 0x00
            0x0051e09f      .byte 0x00
            0x0051e0a0      .byte 0x02
            0x0051e0a1      .byte 0xd0
            0x0051e0a2      .byte 0x00
            0x0051e0a3      .byte 0x80
            0x0051e0a4      .byte 0x00
            0x0051e0a5      .byte 0x00
            0x0051e0a6      .byte 0x00
            0x0051e0a7      .byte 0x00
            0x0051e0a8      .byte 0x02
            0x0051e0a9      .byte 0xd0
            0x0051e0aa      .byte 0x01
            0x0051e0ab      .byte 0xe8
            0x0051e0ac      .byte 0x00
            0x0051e0ad      .byte 0x00
            0x0051e0ae      .byte 0x00
            0x0051e0af      .byte 0x00
            0x0051e0b0      .byte 0x02
            0x0051e0b1      .byte 0xd0
            0x0051e0b2      .byte 0x02
            0x0051e0b3      .byte 0x40
            0x0051e0b4      .byte 0x00
            0x0051e0b5      .byte 0x00
            0x0051e0b6      .byte 0x00
            0x0051e0b7      .byte 0x00
            0x0051e0b8      .byte 0x0b
            0x0051e0b9      .byte 0x40
            0x0051e0ba      .byte 0x0b
            0x0051e0bb      .byte 0x60
            0x0051e0bc      .byte 0x00
            0x0051e0bd      .byte 0x00
            0x0051e0be      .byte 0x00
            0x0051e0bf      .byte 0x00
            0x0051e0c0      .byte 0x00
            0x0051e0c1      .byte 0x00
            0x0051e0c2      .byte 0x00
            0x0051e0c3      .byte 0x00
            0x0051e0c4      .byte 0x00
            0x0051e0c5      .byte 0x00
            0x0051e0c6      .byte 0x00
            0x0051e0c7      .byte 0x0a
            0x0051e0c8      .byte 0x00
            0x0051e0c9      .byte 0x08
            0x0051e0ca      .byte 0x02
            0x0051e0cb      .byte 0x02
            0x0051e0cc      .byte 0x02
            0x0051e0cd      .byte 0x02
            0x0051e0ce      .byte 0x01
            0x0051e0cf      .byte 0x00
            0x0051e0d0      .byte 0x00
            0x0051e0d1      .byte 0x00
            0x0051e0d2      .byte 0x00
            0x0051e0d3      .byte 0x00
            0x0051e0d4      .byte 0x00
            0x0051e0d5      .byte 0x00
            0x0051e0d6      .byte 0x00
            0x0051e0d7      .byte 0x00
            0x0051e0d8      .byte 0x00
            0x0051e0d9      .byte 0x00
            0x0051e0da      .byte 0x00
            0x0051e0db      .byte 0x00
            0x0051e0dc      .byte 0x00
            0x0051e0dd      .byte 0x06
            0x0051e0de      .byte 0x00
            0x0051e0df      .byte 0x54
            0x0051e0e0      .byte 0x00
            0x0051e0e1      .byte 0x7d
            0x0051e0e2      .byte 0x11
            0x0051e0e3      .byte 0x10
            0x0051e0e4      .byte 0x00
            0x0051e0e5      .byte 0x00
            0x0051e0e6      .byte 0x00
            0x0051e0e7      .byte 0x06
            0x0051e0e8      .byte 0x00
            0x0051e0e9      .byte 0x54
            0x0051e0ea      .byte 0x00
            0x0051e0eb      .byte 0x6d
            0x0051e0ec      .byte 0x13
            0x0051e0ed      .byte 0x10
            0x0051e0ee      .byte 0x00
            0x0051e0ef      .byte 0x00
            0x0051e0f0      .byte 0x00
            0x0051e0f1      .byte 0x06
            0x0051e0f2      .byte 0x00
            0x0051e0f3      .byte 0x54
            0x0051e0f4      .byte 0x00
            0x0051e0f5      .byte 0x75
            0x0051e0f6      .byte 0x17
            0x0051e0f7      .byte 0x11
            0x0051e0f8      .byte 0x00
            0x0051e0f9      .byte 0x00
            0x0051e0fa      .byte 0x00
            0x0051e0fb      .byte 0x06
            0x0051e0fc      .byte 0x00
            0x0051e0fd      .byte 0x5c
            0x0051e0fe      .byte 0x00
            0x0051e0ff      .byte 0x9d
            0x0051e100      .byte 0x38
            0x0051e101      .byte 0x00
            0x0051e102      .byte 0x00
            0x0051e103      .byte 0x00
            0x0051e104      .byte 0x00
            0x0051e105      .byte 0x06
            0x0051e106      .byte 0x00
            0x0051e107      .byte 0x5c
            0x0051e108      .byte 0x00
            0x0051e109      .byte 0x8d
            0x0051e10a      .byte 0x3a
            0x0051e10b      .byte 0x00
            0x0051e10c      .byte 0x00
            0x0051e10d      .byte 0x00
            0x0051e10e      .byte 0x00
            0x0051e10f      .byte 0x06
            0x0051e110      .byte 0x00
            0x0051e111      .byte 0x5c
            0x0051e112      .byte 0x00
            0x0051e113      .byte 0x95
            0x0051e114      .byte 0x3e
            0x0051e115      .byte 0x01
            0x0051e116      .byte 0x00
            0x0051e117      .byte 0x00
            0x0051e118      .byte 0x00
            0x0051e119      .byte 0x06
            0x0051e11a      .byte 0x00
            0x0051e11b      .byte 0x54
            0x0051e11c      .byte 0x00
            0x0051e11d      .byte 0xfd
            0x0051e11e      .byte 0x11
            0x0051e11f      .byte 0x10
            0x0051e120      .byte 0x00
            0x0051e121      .byte 0x00
            0x0051e122      .byte 0x00
            0x0051e123      .byte 0x06
            0x0051e124      .byte 0x00
            0x0051e125      .byte 0x54
            0x0051e126      .byte 0x00
            0x0051e127      .byte 0xed
            0x0051e128      .byte 0x13
            0x0051e129      .byte 0x10
            0x0051e12a      .byte 0x00
            0x0051e12b      .byte 0x00
            0x0051e12c      .byte 0x00
            0x0051e12d      .byte 0x06
            0x0051e12e      .byte 0x00
            0x0051e12f      .byte 0x54
            0x0051e130      .byte 0x00
            0x0051e131      .byte 0xf5
            0x0051e132      .byte 0x17
            0x0051e133      .byte 0x11
            0x0051e134      .byte 0x00
            0x0051e135      .byte 0x00
            0x0051e136      .byte 0x00
            0x0051e137      .byte 0x06
            0x0051e138      .byte 0x00
            0x0051e139      .byte 0x54
            0x0051e13a      .byte 0x00
            0x0051e13b      .byte 0x5d
            0x0051e13c      .byte 0x11
            0x0051e13d      .byte 0x10
            0x0051e13e      .byte 0x00
            0x0051e13f      .byte 0x00
            0x0051e140      .byte 0x00
            0x0051e141      .byte 0x06
            0x0051e142      .byte 0x00
            0x0051e143      .byte 0x54
            0x0051e144      .byte 0x00
            0x0051e145      .byte 0x4d
            0x0051e146      .byte 0x13
            0x0051e147      .byte 0x10
            0x0051e148      .byte 0x00
            0x0051e149      .byte 0x00
            0x0051e14a      .byte 0x00
            0x0051e14b      .byte 0x06
            0x0051e14c      .byte 0x00
            0x0051e14d      .byte 0x54
            0x0051e14e      .byte 0x00
            0x0051e14f      .byte 0x55
            0x0051e150      .byte 0x17
            0x0051e151      .byte 0x11
            0x0051e152      .byte 0x00
            0x0051e153      .byte 0x00
            0x0051e154      .byte 0x00
            0x0051e155      .byte 0x06
            0x0051e156      .byte 0x00
            0x0051e157      .byte 0x54
            0x0051e158      .byte 0x00
            0x0051e159      .byte 0x3d
            0x0051e15a      .byte 0x11
            0x0051e15b      .byte 0x10
            0x0051e15c      .byte 0x00
            0x0051e15d      .byte 0x00
            0x0051e15e      .byte 0x00
            0x0051e15f      .byte 0x06
            0x0051e160      .byte 0x00
            0x0051e161      .byte 0x54
            0x0051e162      .byte 0x00
            0x0051e163      .byte 0x2d
            0x0051e164      .byte 0x13
            0x0051e165      .byte 0x10
            0x0051e166      .byte 0x00
            0x0051e167      .byte 0x00
            0x0051e168      .byte 0x00
            0x0051e169      .byte 0x06
            0x0051e16a      .byte 0x00
            0x0051e16b      .byte 0x54
            0x0051e16c      .byte 0x00
            0x0051e16d      .byte 0x35
            0x0051e16e      .byte 0x17
            0x0051e16f      .byte 0x11
            0x0051e170      .byte 0x00
            0x0051e171      .byte 0x00
            0x0051e172      .byte 0x00
            0x0051e173      .byte 0x06
            0x0051e174      .byte 0x00
            0x0051e175      .byte 0x54
            0x0051e176      .byte 0x00
            0x0051e177      .byte 0x7d
            0x0051e178      .byte 0x11
            0x0051e179      .byte 0x00
            0x0051e17a      .byte 0x00
            0x0051e17b      .byte 0x00
            0x0051e17c      .byte 0x00
            0x0051e17d      .byte 0x06
            0x0051e17e      .byte 0x00
            0x0051e17f      .byte 0x54
            0x0051e180      .byte 0x00
            0x0051e181      .byte 0x6d
            0x0051e182      .byte 0x13
            0x0051e183      .byte 0x00
            0x0051e184      .byte 0x00
            0x0051e185      .byte 0x00
            0x0051e186      .byte 0x00
            0x0051e187      .byte 0x06
            0x0051e188      .byte 0x00
            0x0051e189      .byte 0x54
            0x0051e18a      .byte 0x00
            0x0051e18b      .byte 0x75
            0x0051e18c      .byte 0x13
            0x0051e18d      .byte 0x01
            0x0051e18e      .byte 0x00
            0x0051e18f      .byte 0x00
            0x0051e190      .byte 0x00
            0x0051e191      .byte 0x06
            0x0051e192      .byte 0x00
            0x0051e193      .byte 0x54
            0x0051e194      .byte 0x00
            0x0051e195      .byte 0x7d
            0x0051e196      .byte 0x15
            0x0051e197      .byte 0x00
            0x0051e198      .byte 0x00
            0x0051e199      .byte 0x00
            0x0051e19a      .byte 0x00
            0x0051e19b      .byte 0x06
            0x0051e19c      .byte 0x00
            0x0051e19d      .byte 0x54
            0x0051e19e      .byte 0x00
            0x0051e19f      .byte 0x6d
            0x0051e1a0      .byte 0x17
            0x0051e1a1      .byte 0x00
            0x0051e1a2      .byte 0x00
            0x0051e1a3      .byte 0x00
            0x0051e1a4      .byte 0x00
            0x0051e1a5      .byte 0x06
            0x0051e1a6      .byte 0x00
            0x0051e1a7      .byte 0x54
            0x0051e1a8      .byte 0x00
            0x0051e1a9      .byte 0x75
            0x0051e1aa      .byte 0x17
            0x0051e1ab      .byte 0x01
            0x0051e1ac      .byte 0x00
            0x0051e1ad      .byte 0x00
            0x0051e1ae      .byte 0x00
            0x0051e1af      .byte 0x06
            0x0051e1b0      .byte 0x00
            0x0051e1b1      .byte 0x54
            0x0051e1b2      .byte 0x00
            0x0051e1b3      .byte 0x5d
            0x0051e1b4      .byte 0x11
            0x0051e1b5      .byte 0x00
            0x0051e1b6      .byte 0x00
            0x0051e1b7      .byte 0x00
            0x0051e1b8      .byte 0x00
            0x0051e1b9      .byte 0x06
            0x0051e1ba      .byte 0x00
            0x0051e1bb      .byte 0x54
            0x0051e1bc      .byte 0x00
            0x0051e1bd      .byte 0x4d
            0x0051e1be      .byte 0x13
            0x0051e1bf      .byte 0x00
            0x0051e1c0      .byte 0x00
            0x0051e1c1      .byte 0x00
            0x0051e1c2      .byte 0x00
            0x0051e1c3      .byte 0x06
            0x0051e1c4      .byte 0x00
            0x0051e1c5      .byte 0x54
            0x0051e1c6      .byte 0x00
            0x0051e1c7      .byte 0x55
            0x0051e1c8      .byte 0x13
            0x0051e1c9      .byte 0x01
            0x0051e1ca      .byte 0x00
            0x0051e1cb      .byte 0x00
            0x0051e1cc      .byte 0x00
            0x0051e1cd      .byte 0x06
            0x0051e1ce      .byte 0x00
            0x0051e1cf      .byte 0x54
            0x0051e1d0      .byte 0x00
            0x0051e1d1      .byte 0x5d
            0x0051e1d2      .byte 0x15
            0x0051e1d3      .byte 0x00
            0x0051e1d4      .byte 0x00
            0x0051e1d5      .byte 0x00
            0x0051e1d6      .byte 0x00
            0x0051e1d7      .byte 0x06
            0x0051e1d8      .byte 0x00
            0x0051e1d9      .byte 0x54
            0x0051e1da      .byte 0x00
            0x0051e1db      .byte 0x4d
            0x0051e1dc      .byte 0x17
            0x0051e1dd      .byte 0x00
            0x0051e1de      .byte 0x00
            0x0051e1df      .byte 0x00
            0x0051e1e0      .byte 0x00
            0x0051e1e1      .byte 0x06
            0x0051e1e2      .byte 0x00
            0x0051e1e3      .byte 0x54
            0x0051e1e4      .byte 0x00
            0x0051e1e5      .byte 0x55
            0x0051e1e6      .byte 0x17
            0x0051e1e7      .byte 0x01
            0x0051e1e8      .byte 0x00
            0x0051e1e9      .byte 0x00
            0x0051e1ea      .byte 0x00
            0x0051e1eb      .byte 0x06
            0x0051e1ec      .byte 0x00
            0x0051e1ed      .byte 0x54
            0x0051e1ee      .byte 0x00
            0x0051e1ef      .byte 0x3d
            0x0051e1f0      .byte 0x11
            0x0051e1f1      .byte 0x00
            0x0051e1f2      .byte 0x00
            0x0051e1f3      .byte 0x00
            0x0051e1f4      .byte 0x00
            0x0051e1f5      .byte 0x06
            0x0051e1f6      .byte 0x00
            0x0051e1f7      .byte 0x54
            0x0051e1f8      .byte 0x00
            0x0051e1f9      .byte 0x2d
            0x0051e1fa      .byte 0x13
            0x0051e1fb      .byte 0x00
            0x0051e1fc      .byte 0x00
            0x0051e1fd      .byte 0x00
            0x0051e1fe      .byte 0x00
            0x0051e1ff      .byte 0x06
            0x0051e200      .byte 0x00
            0x0051e201      .byte 0x54
            0x0051e202      .byte 0x00
            0x0051e203      .byte 0x35
            0x0051e204      .byte 0x13
            0x0051e205      .byte 0x01
            0x0051e206      .byte 0x00
            0x0051e207      .byte 0x00
            0x0051e208      .byte 0x00
            0x0051e209      .byte 0x06
            0x0051e20a      .byte 0x00
            0x0051e20b      .byte 0x54
            0x0051e20c      .byte 0x00
            0x0051e20d      .byte 0x3d
            0x0051e20e      .byte 0x15
            0x0051e20f      .byte 0x00
            0x0051e210      .byte 0x00
            0x0051e211      .byte 0x00
            0x0051e212      .byte 0x00
            0x0051e213      .byte 0x06
            0x0051e214      .byte 0x00
            0x0051e215      .byte 0x54
            0x0051e216      .byte 0x00
            0x0051e217      .byte 0x2d
            0x0051e218      .byte 0x17
            0x0051e219      .byte 0x00
            0x0051e21a      .byte 0x00
            0x0051e21b      .byte 0x00
            0x0051e21c      .byte 0x00
            0x0051e21d      .byte 0x06
            0x0051e21e      .byte 0x00
            0x0051e21f      .byte 0x54
            0x0051e220      .byte 0x00
            0x0051e221      .byte 0x35
            0x0051e222      .byte 0x17
            0x0051e223      .byte 0x01
            0x0051e224      .byte 0x00
            0x0051e225      .byte 0x00
            0x0051e226      .byte 0x00
            0x0051e227      .byte 0x06
            0x0051e228      .byte 0x00
            0x0051e229      .byte 0x54
            0x0051e22a      .byte 0x00
            0x0051e22b      .byte 0x6d
            0x0051e22c      .byte 0x13
            0x0051e22d      .byte 0x90
            0x0051e22e      .byte 0x00
            0x0051e22f      .byte 0x00
            0x0051e230      .byte 0x00
            0x0051e231      .byte 0x06
            0x0051e232      .byte 0x00
            0x0051e233      .byte 0x74
            0x0051e234      .byte 0x00
            0x0051e235      .byte 0x6d
            0x0051e236      .byte 0x53
            0x0051e237      .byte 0x40
            0x0051e238      .byte 0x00
            0x0051e239      .byte 0x00
            0x0051e23a      .byte 0x00
            0x0051e23b      .byte 0x06
            0x0051e23c      .byte 0x00
            0x0051e23d      .byte 0x74
            0x0051e23e      .byte 0x00
            0x0051e23f      .byte 0x6d
            0x0051e240      .byte 0x57
            0x0051e241      .byte 0x40
            0x0051e242      .byte 0x00
            0x0051e243      .byte 0x00
            0x0051e244      .byte 0x00
            0x0051e245      .byte 0x06
            0x0051e246      .byte 0x00
            0x0051e247      .byte 0x74
            0x0051e248      .byte 0x00
            0x0051e249      .byte 0x6d
            0x0051e24a      .byte 0x53
            0x0051e24b      .byte 0x48
            0x0051e24c      .byte 0x00
            0x0051e24d      .byte 0x00
            0x0051e24e      .byte 0x00
            0x0051e24f      .byte 0x06
            0x0051e250      .byte 0x00
            0x0051e251      .byte 0x74
            0x0051e252      .byte 0x00
            0x0051e253      .byte 0x6d
            0x0051e254      .byte 0x57
            0x0051e255      .byte 0x48
            0x0051e256      .byte 0x00
            0x0051e257      .byte 0x00
            0x0051e258      .byte 0x00
            0x0051e259      .byte 0x06
            0x0051e25a      .byte 0x01
            0x0051e25b      .byte 0x45
            0x0051e25c      .byte 0x00
            0x0051e25d      .byte 0x6d
            0x0051e25e      .byte 0x13
            0x0051e25f      .byte 0x10
            0x0051e260      .byte 0x00
            0x0051e261      .byte 0x00
            0x0051e262      .byte 0x00
            0x0051e263      .byte 0x06
            0x0051e264      .byte 0x01
            0x0051e265      .byte 0x45
            0x0051e266      .byte 0x00
            0x0051e267      .byte 0x75
            0x0051e268      .byte 0x17
            0x0051e269      .byte 0x11
            0x0051e26a      .byte 0x00
            0x0051e26b      .byte 0x00
            0x0051e26c      .byte 0x00
            0x0051e26d      .byte 0x06
            0x0051e26e      .byte 0x01
            0x0051e26f      .byte 0x45
            0x0051e270      .byte 0x00
            0x0051e271      .byte 0x6d
            0x0051e272      .byte 0x13
            0x0051e273      .byte 0x00
            0x0051e274      .byte 0x00
            0x0051e275      .byte 0x00
            0x0051e276      .byte 0x00
            0x0051e277      .byte 0x06
            0x0051e278      .byte 0x01
            0x0051e279      .byte 0x45
            0x0051e27a      .byte 0x00
            0x0051e27b      .byte 0x6d
            0x0051e27c      .byte 0x13
            0x0051e27d      .byte 0x08
            0x0051e27e      .byte 0x00
            0x0051e27f      .byte 0x00
            0x0051e280      .byte 0x00
            0x0051e281      .byte 0x06
            0x0051e282      .byte 0x00
            0x0051e283      .byte 0x74
            0x0051e284      .byte 0x00
            0x0051e285      .byte 0x7d
            0x0051e286      .byte 0x53
            0x0051e287      .byte 0x48
            0x0051e288      .byte 0x00
            0x0051e289      .byte 0x00
            0x0051e28a      .byte 0x00
            0x0051e28b      .byte 0x06
            0x0051e28c      .byte 0x00
            0x0051e28d      .byte 0x74
            0x0051e28e      .byte 0x00
            0x0051e28f      .byte 0x7d
            0x0051e290      .byte 0x57
            0x0051e291      .byte 0x40
            0x0051e292      .byte 0x00
            0x0051e293      .byte 0x00
            0x0051e294      .byte 0x00
            0x0051e295      .byte 0x06
            0x0051e296      .byte 0x00
            0x0051e297      .byte 0x70
            0x0051e298      .byte 0x00
            0x0051e299      .byte 0x75
            0x0051e29a      .byte 0x17
            0x0051e29b      .byte 0x11
            0x0051e29c      .byte 0x00
            0x0051e29d      .byte 0x00
            0x0051e29e      .byte 0x00
            0x0051e29f      .byte 0x06
            0x0051e2a0      .byte 0x00
            0x0051e2a1      .byte 0x74
            0x0051e2a2      .byte 0x00
            0x0051e2a3      .byte 0x95
            0x0051e2a4      .byte 0x3e
            0x0051e2a5      .byte 0x01
            0x0051e2a6      .byte 0x00
            0x0051e2a7      .byte 0x00
            0x0051e2a8      .byte 0x00
            0x0051e2a9      .byte 0x06
            0x0051e2aa      .byte 0x00
            0x0051e2ab      .byte 0x70
            0x0051e2ac      .byte 0x00
            0x0051e2ad      .byte 0x6d
            0x0051e2ae      .byte 0x13
            0x0051e2af      .byte 0x10
            0x0051e2b0      .byte 0x00
            0x0051e2b1      .byte 0x00
            0x0051e2b2      .byte 0x00
            0x0051e2b3      .byte 0x06
            0x0051e2b4      .byte 0x00
            0x0051e2b5      .byte 0x70
            0x0051e2b6      .byte 0x00
            0x0051e2b7      .byte 0x75
            0x0051e2b8      .byte 0x17
            0x0051e2b9      .byte 0x21
            0x0051e2ba      .byte 0x00
            0x0051e2bb      .byte 0x00
            0x0051e2bc      .byte 0x00
            0x0051e2bd      .byte 0x06
            0x0051e2be      .byte 0x00
            0x0051e2bf      .byte 0x74
            0x0051e2c0      .byte 0x00
            0x0051e2c1      .byte 0x6d
            0x0051e2c2      .byte 0x53
            0x0051e2c3      .byte 0x10
            0x0051e2c4      .byte 0x00
            0x0051e2c5      .byte 0x00
            0x0051e2c6      .byte 0x00
            0x0051e2c7      .byte 0x06
            0x0051e2c8      .byte 0x01
            0x0051e2c9      .byte 0x65
            0x0051e2ca      .byte 0x00
            0x0051e2cb      .byte 0x75
            0x0051e2cc      .byte 0x17
            0x0051e2cd      .byte 0x11
            0x0051e2ce      .byte 0x00
            0x0051e2cf      .byte 0x00
            0x0051e2d0      .byte 0x00
            0x0051e2d1      .byte 0x06
            0x0051e2d2      .byte 0x00
            0x0051e2d3      .byte 0x5c
            0x0051e2d4      .byte 0x00
            0x0051e2d5      .byte 0x8d
            0x0051e2d6      .byte 0x32
            0x0051e2d7      .byte 0x01
            0x0051e2d8      .byte 0x00
            0x0051e2d9      .byte 0x00
            0x0051e2da      .byte 0x00
            0x0051e2db      .byte 0x06
            0x0051e2dc      .byte 0x00
            0x0051e2dd      .byte 0x5c
            0x0051e2de      .byte 0x00
            0x0051e2df      .byte 0x95
            0x0051e2e0      .byte 0x36
            0x0051e2e1      .byte 0x01
            0x0051e2e2      .byte 0x00
            0x0051e2e3      .byte 0x00
            0x0051e2e4      .byte 0x00
            0x0051e2e5      .byte 0x06
            0x0051e2e6      .byte 0x01
            0x0051e2e7      .byte 0x65
            0x0051e2e8      .byte 0x00
            0x0051e2e9      .byte 0x6d
            0x0051e2ea      .byte 0x13
            0x0051e2eb      .byte 0x10
            0x0051e2ec      .byte 0x00
            0x0051e2ed      .byte 0x00
            0x0051e2ee      .byte 0x21
            0x0051e2ef      .byte 0x02
            0x0051e2f0      .byte 0x00
            0x0051e2f1      .byte 0x00
            0x0051e2f2      .byte 0x00
            0x0051e2f3      .byte 0x02
            0x0051e2f4      .byte 0x02
            0x0051e2f5      .byte 0xcc
            0x0051e2f6      .byte 0x00
            0x0051e2f7      .byte 0x00
            0x0051e2f8      .byte 0x21
            0x0051e2f9      .byte 0x02
            0x0051e2fa      .byte 0x00
            0x0051e2fb      .byte 0x00
            0x0051e2fc      .byte 0x00
            0x0051e2fd      .byte 0x02
            0x0051e2fe      .byte 0x06
            0x0051e2ff      .byte 0xcd
            0x0051e300      .byte 0x00
            0x0051e301      .byte 0x00
            0x0051e302      .byte 0x01
            0x0051e303      .byte 0x02
            0x0051e304      .byte 0x00
            0x0051e305      .byte 0x40
            0x0051e306      .byte 0x00
            0x0051e307      .byte 0x00
            0x0051e308      .byte 0x00
            0x0051e309      .byte 0x00
            0x0051e30a      .byte 0x00
            0x0051e30b      .byte 0x00
            0x0051e30c      .byte 0x21
            0x0051e30d      .byte 0x02
            0x0051e30e      .byte 0x00
            0x0051e30f      .byte 0x80
            0x0051e310      .byte 0x00
            0x0051e311      .byte 0x02
            0x0051e312      .byte 0x0a
            0x0051e313      .byte 0xcc
            0x0051e314      .byte 0x00
            0x0051e315      .byte 0x00
            0x0051e316      .byte 0x21
            0x0051e317      .byte 0x02
            0x0051e318      .byte 0x00
            0x0051e319      .byte 0x80
            0x0051e31a      .byte 0x00
            0x0051e31b      .byte 0x02
            0x0051e31c      .byte 0x0e
            0x0051e31d      .byte 0xcd
            0x0051e31e      .byte 0x00
            0x0051e31f      .byte 0x00
            0x0051e320      .byte 0x01
            0x0051e321      .byte 0x02
            0x0051e322      .byte 0x00
            0x0051e323      .byte 0xc0
            0x0051e324      .byte 0x00
            0x0051e325      .byte 0x00
            0x0051e326      .byte 0x00
            0x0051e327      .byte 0x00
            0x0051e328      .byte 0x00
            0x0051e329      .byte 0x00
            0x0051e32a      .byte 0x11
            0x0051e32b      .byte 0x03
            0x0051e32c      .byte 0x00
            0x0051e32d      .byte 0x50
            0x0051e32e      .byte 0x00
            0x0051e32f      .byte 0x6b
            0x0051e330      .byte 0x32
            0x0051e331      .byte 0x44
            0x0051e332      .byte 0x00
            0x0051e333      .byte 0x00
            0x0051e334      .byte 0x11
            0x0051e335      .byte 0x03
            0x0051e336      .byte 0x00
            0x0051e337      .byte 0x50
            0x0051e338      .byte 0x00
            0x0051e339      .byte 0x73
            0x0051e33a      .byte 0x32
            0x0051e33b      .byte 0x44
            0x0051e33c      .byte 0x00
            0x0051e33d      .byte 0x00
            0x0051e33e      .byte 0x11
            0x0051e33f      .byte 0x63
            0x0051e340      .byte 0x00
            0x0051e341      .byte 0x41
            0x0051e342      .byte 0x00
            0x0051e343      .byte 0x00
            0x0051e344      .byte 0x00
            0x0051e345      .byte 0x00
            0x0051e346      .byte 0x00
            0x0051e347      .byte 0x00
            0x0051e348      .byte 0x11
            0x0051e349      .byte 0x03
            0x0051e34a      .byte 0x00
            0x0051e34b      .byte 0xd8
            0x0051e34c      .byte 0x00
            0x0051e34d      .byte 0x8b
            0x0051e34e      .byte 0x3a
            0x0051e34f      .byte 0x44
            0x0051e350      .byte 0x00
            0x0051e351      .byte 0x00
            0x0051e352      .byte 0x11
            0x0051e353      .byte 0x03
            0x0051e354      .byte 0x00
            0x0051e355      .byte 0xd8
            0x0051e356      .byte 0x00
            0x0051e357      .byte 0x93
            0x0051e358      .byte 0x3a
            0x0051e359      .byte 0x44
            0x0051e35a      .byte 0x00
            0x0051e35b      .byte 0x00
            0x0051e35c      .byte 0x11
            0x0051e35d      .byte 0x83
            0x0051e35e      .byte 0x00
            0x0051e35f      .byte 0xc0
            0x0051e360      .byte 0x00
            0x0051e361      .byte 0x00
            0x0051e362      .byte 0x00
            0x0051e363      .byte 0x00
            0x0051e364      .byte 0x00
            0x0051e365      .byte 0x00
            0x0051e366      .byte 0x11
            0x0051e367      .byte 0x01
            0x0051e368      .byte 0x00
            0x0051e369      .byte 0x50
            0x0051e36a      .byte 0x00
            0x0051e36b      .byte 0x69
            0x0051e36c      .byte 0x32
            0x0051e36d      .byte 0x44
            0x0051e36e      .byte 0x00
            0x0051e36f      .byte 0x00
            0x0051e370      .byte 0x11
            0x0051e371      .byte 0x01
            0x0051e372      .byte 0x00
            0x0051e373      .byte 0x50
            0x0051e374      .byte 0x00
            0x0051e375      .byte 0x71
            0x0051e376      .byte 0x32
            0x0051e377      .byte 0x44
            0x0051e378      .byte 0x00
            0x0051e379      .byte 0x00
            0x0051e37a      .byte 0x11
            0x0051e37b      .byte 0x61
            0x0051e37c      .byte 0x00
            0x0051e37d      .byte 0x41
            0x0051e37e      .byte 0x00
            0x0051e37f      .byte 0x00
            0x0051e380      .byte 0x00
            0x0051e381      .byte 0x00
            0x0051e382      .byte 0x00
            0x0051e383      .byte 0x00
            0x0051e384      .byte 0x11
            0x0051e385      .byte 0x01
            0x0051e386      .byte 0x00
            0x0051e387      .byte 0xd8
            0x0051e388      .byte 0x00
            0x0051e389      .byte 0x89
            0x0051e38a      .byte 0x3a
            0x0051e38b      .byte 0x44
            0x0051e38c      .byte 0x00
            0x0051e38d      .byte 0x00
            0x0051e38e      .byte 0x11
            0x0051e38f      .byte 0x01
            0x0051e390      .byte 0x00
            0x0051e391      .byte 0xd8
            0x0051e392      .byte 0x00
            0x0051e393      .byte 0x91
            0x0051e394      .byte 0x3a
            0x0051e395      .byte 0x44
            0x0051e396      .byte 0x00
            0x0051e397      .byte 0x00
            0x0051e398      .byte 0x11
            0x0051e399      .byte 0x81
            0x0051e39a      .byte 0x00
            0x0051e39b      .byte 0xc0
            0x0051e39c      .byte 0x00
            0x0051e39d      .byte 0x00
            0x0051e39e      .byte 0x00
            0x0051e39f      .byte 0x00
            0x0051e3a0      .byte 0x00
            0x0051e3a1      .byte 0x00
            0x0051e3a2      .byte 0x21
            0x0051e3a3      .byte 0x02
            0x0051e3a4      .byte 0x00
            0x0051e3a5      .byte 0x00
            0x0051e3a6      .byte 0x00
            0x0051e3a7      .byte 0x02
            0x0051e3a8      .byte 0x02
            0x0051e3a9      .byte 0xcc
            0x0051e3aa      .byte 0x00
            0x0051e3ab      .byte 0x00
            0x0051e3ac      .byte 0x21
            0x0051e3ad      .byte 0x02
            0x0051e3ae      .byte 0x00
            0x0051e3af      .byte 0x00
            0x0051e3b0      .byte 0x00
            0x0051e3b1      .byte 0x02
            0x0051e3b2      .byte 0x06
            0x0051e3b3      .byte 0xcd
            0x0051e3b4      .byte 0x00
            0x0051e3b5      .byte 0x00
            0x0051e3b6      .byte 0x01
            0x0051e3b7      .byte 0x02
            0x0051e3b8      .byte 0x00
            0x0051e3b9      .byte 0x41
            0x0051e3ba      .byte 0x00
            0x0051e3bb      .byte 0x00
            0x0051e3bc      .byte 0x00
            0x0051e3bd      .byte 0x00
            0x0051e3be      .byte 0x00
            0x0051e3bf      .byte 0x00
            0x0051e3c0      .byte 0x21
            0x0051e3c1      .byte 0x02
            0x0051e3c2      .byte 0x00
            0x0051e3c3      .byte 0x00
            0x0051e3c4      .byte 0x00
            0x0051e3c5      .byte 0x02
            0x0051e3c6      .byte 0x0a
            0x0051e3c7      .byte 0xcc
            0x0051e3c8      .byte 0x00
            0x0051e3c9      .byte 0x00
            0x0051e3ca      .byte 0x21
            0x0051e3cb      .byte 0x02
            0x0051e3cc      .byte 0x00
            0x0051e3cd      .byte 0x00
            0x0051e3ce      .byte 0x00
            0x0051e3cf      .byte 0x02
            0x0051e3d0      .byte 0x0e
            0x0051e3d1      .byte 0xcd
            0x0051e3d2      .byte 0x00
            0x0051e3d3      .byte 0x00
            0x0051e3d4      .byte 0x01
            0x0051e3d5      .byte 0x02
            0x0051e3d6      .byte 0x00
            0x0051e3d7      .byte 0xc0
            0x0051e3d8      .byte 0x00
            0x0051e3d9      .byte 0x00
            0x0051e3da      .byte 0x00
            0x0051e3db      .byte 0x00
            0x0051e3dc      .byte 0x00
            0x0051e3dd      .byte 0x00
            0x0051e3de      .byte 0x11
            0x0051e3df      .byte 0x01
            0x0051e3e0      .byte 0x00
            0x0051e3e1      .byte 0x50
            0x0051e3e2      .byte 0x00
            0x0051e3e3      .byte 0x69
            0x0051e3e4      .byte 0x32
            0x0051e3e5      .byte 0x44
            0x0051e3e6      .byte 0x00
            0x0051e3e7      .byte 0x00
            0x0051e3e8      .byte 0x11
            0x0051e3e9      .byte 0x01
            0x0051e3ea      .byte 0x00
            0x0051e3eb      .byte 0x50
            0x0051e3ec      .byte 0x00
            0x0051e3ed      .byte 0x71
            0x0051e3ee      .byte 0x32
            0x0051e3ef      .byte 0x44
            0x0051e3f0      .byte 0x00
            0x0051e3f1      .byte 0x00
            0x0051e3f2      .byte 0x11
            0x0051e3f3      .byte 0x61
            0x0051e3f4      .byte 0x00
            0x0051e3f5      .byte 0x41
            0x0051e3f6      .byte 0x00
            0x0051e3f7      .byte 0x00
            0x0051e3f8      .byte 0x00
            0x0051e3f9      .byte 0x00
            0x0051e3fa      .byte 0x00
            0x0051e3fb      .byte 0x00
            0x0051e3fc      .byte 0x11
            0x0051e3fd      .byte 0x01
            0x0051e3fe      .byte 0x00
            0x0051e3ff      .byte 0x58
            0x0051e400      .byte 0x00
            0x0051e401      .byte 0x89
            0x0051e402      .byte 0x3a
            0x0051e403      .byte 0x44
            0x0051e404      .byte 0x00
            0x0051e405      .byte 0x00
            0x0051e406      .byte 0x11
            0x0051e407      .byte 0x01
            0x0051e408      .byte 0x00
            0x0051e409      .byte 0x58
            0x0051e40a      .byte 0x00
            0x0051e40b      .byte 0x91
            0x0051e40c      .byte 0x3a
            0x0051e40d      .byte 0x44
            0x0051e40e      .byte 0x00
            0x0051e40f      .byte 0x00
            0x0051e410      .byte 0x11
            0x0051e411      .byte 0x81
            0x0051e412      .byte 0x00
            0x0051e413      .byte 0xc0
            0x0051e414      .byte 0x00
            0x0051e415      .byte 0x00
            0x0051e416      .byte 0x00
            0x0051e417      .byte 0x00
            0x0051e418      .byte 0x00
            0x0051e419      .byte 0x00
            0x0051e41a      .byte 0x22
            0x0051e41b      .byte 0x02
            0x0051e41c      .byte 0x00
            0x0051e41d      .byte 0x00
            0x0051e41e      .byte 0x00
            0x0051e41f      .byte 0x02
            0x0051e420      .byte 0x02
            0x0051e421      .byte 0xcc
            0x0051e422      .byte 0x00
            0x0051e423      .byte 0x00
            0x0051e424      .byte 0x22
            0x0051e425      .byte 0x02
            0x0051e426      .byte 0x00
            0x0051e427      .byte 0x00
            0x0051e428      .byte 0x00
            0x0051e429      .byte 0x02
            0x0051e42a      .byte 0x06
            0x0051e42b      .byte 0xcd
            0x0051e42c      .byte 0x00
            0x0051e42d      .byte 0x00
            0x0051e42e      .byte 0x02
            0x0051e42f      .byte 0x02
            0x0051e430      .byte 0x00
            0x0051e431      .byte 0x41
            0x0051e432      .byte 0x00
            0x0051e433      .byte 0x00
            0x0051e434      .byte 0x00
            0x0051e435      .byte 0x00
            0x0051e436      .byte 0x00
            0x0051e437      .byte 0x00
            0x0051e438      .byte 0x22
            0x0051e439      .byte 0x02
            0x0051e43a      .byte 0x00
            0x0051e43b      .byte 0x00
            0x0051e43c      .byte 0x00
            0x0051e43d      .byte 0x02
            0x0051e43e      .byte 0x0a
            0x0051e43f      .byte 0xcc
            0x0051e440      .byte 0x00
            0x0051e441      .byte 0x00
            0x0051e442      .byte 0x22
            0x0051e443      .byte 0x02
            0x0051e444      .byte 0x00
            0x0051e445      .byte 0x00
            0x0051e446      .byte 0x00
            0x0051e447      .byte 0x02
            0x0051e448      .byte 0x0e
            0x0051e449      .byte 0xcd
            0x0051e44a      .byte 0x00
            0x0051e44b      .byte 0x00
            0x0051e44c      .byte 0x02
            0x0051e44d      .byte 0x02
            0x0051e44e      .byte 0x00
            0x0051e44f      .byte 0xc0
            0x0051e450      .byte 0x00
            0x0051e451      .byte 0x00
            0x0051e452      .byte 0x00
            0x0051e453      .byte 0x00
            0x0051e454      .byte 0x00
            0x0051e455      .byte 0x00
            0x0051e456      .byte 0x12
            0x0051e457      .byte 0x01
            0x0051e458      .byte 0x00
            0x0051e459      .byte 0x50
            0x0051e45a      .byte 0x00
            0x0051e45b      .byte 0x69
            0x0051e45c      .byte 0x32
            0x0051e45d      .byte 0x44
            0x0051e45e      .byte 0x00
            0x0051e45f      .byte 0x00
            0x0051e460      .byte 0x12
            0x0051e461      .byte 0x01
            0x0051e462      .byte 0x00
            0x0051e463      .byte 0x50
            0x0051e464      .byte 0x00
            0x0051e465      .byte 0x71
            0x0051e466      .byte 0x32
            0x0051e467      .byte 0x44
            0x0051e468      .byte 0x00
            0x0051e469      .byte 0x00
            0x0051e46a      .byte 0x12
            0x0051e46b      .byte 0x61
            0x0051e46c      .byte 0x00
            0x0051e46d      .byte 0x41
            0x0051e46e      .byte 0x00
            0x0051e46f      .byte 0x00
            0x0051e470      .byte 0x00
            0x0051e471      .byte 0x00
            0x0051e472      .byte 0x00
            0x0051e473      .byte 0x00
            0x0051e474      .byte 0x12
            0x0051e475      .byte 0x01
            0x0051e476      .byte 0x00
            0x0051e477      .byte 0x58
            0x0051e478      .byte 0x00
            0x0051e479      .byte 0x89
            0x0051e47a      .byte 0x3a
            0x0051e47b      .byte 0x44
            0x0051e47c      .byte 0x00
            0x0051e47d      .byte 0x00
            0x0051e47e      .byte 0x12
            0x0051e47f      .byte 0x01
            0x0051e480      .byte 0x00
            0x0051e481      .byte 0x58
            0x0051e482      .byte 0x00
            0x0051e483      .byte 0x91
            0x0051e484      .byte 0x3a
            0x0051e485      .byte 0x44
            0x0051e486      .byte 0x00
            0x0051e487      .byte 0x00
            0x0051e488      .byte 0x12
            0x0051e489      .byte 0x81
            0x0051e48a      .byte 0x00
            0x0051e48b      .byte 0xc0
            0x0051e48c      .byte 0x00
            0x0051e48d      .byte 0x00
            0x0051e48e      .byte 0x00
            0x0051e48f      .byte 0x00
            0x0051e490      .byte 0x00
            0x0051e491      .byte 0x00
            0x0051e492      .byte 0x20
            0x0051e493      .byte 0x06
            0x0051e494      .byte 0x00
            0x0051e495      .byte 0x4d
            0x0051e496      .byte 0x00
            0x0051e497      .byte 0x75
            0x0051e498      .byte 0x32
            0x0051e499      .byte 0xcc
            0x0051e49a      .byte 0x00
            0x0051e49b      .byte 0x00
            0x0051e49c      .byte 0x20
            0x0051e49d      .byte 0x67
            0x0051e49e      .byte 0x00
            0x0051e49f      .byte 0x4d
            0x0051e4a0      .byte 0x00
            0x0051e4a1      .byte 0x05
            0x0051e4a2      .byte 0x02
            0x0051e4a3      .byte 0xcc
            0x0051e4a4      .byte 0x00
            0x0051e4a5      .byte 0x00
            0x0051e4a6      .byte 0x20
            0x0051e4a7      .byte 0x06
            0x0051e4a8      .byte 0x00
            0x0051e4a9      .byte 0x4d
            0x0051e4aa      .byte 0x00
            0x0051e4ab      .byte 0x6d
            0x0051e4ac      .byte 0x36
            0x0051e4ad      .byte 0xcd
            0x0051e4ae      .byte 0x00
            0x0051e4af      .byte 0x00
            0x0051e4b0      .byte 0x20
            0x0051e4b1      .byte 0x67
            0x0051e4b2      .byte 0x00
            0x0051e4b3      .byte 0x4d
            0x0051e4b4      .byte 0x00
            0x0051e4b5      .byte 0x05
            0x0051e4b6      .byte 0x06
            0x0051e4b7      .byte 0xcd
            0x0051e4b8      .byte 0x00
            0x0051e4b9      .byte 0x00
            0x0051e4ba      .byte 0x00
            0x0051e4bb      .byte 0x06
            0x0051e4bc      .byte 0x01
            0x0051e4bd      .byte 0x4d
            0x0051e4be      .byte 0x00
            0x0051e4bf      .byte 0x6d
            0x0051e4c0      .byte 0x32
            0x0051e4c1      .byte 0x44
            0x0051e4c2      .byte 0x00
            0x0051e4c3      .byte 0x00
            0x0051e4c4      .byte 0x00
            0x0051e4c5      .byte 0x06
            0x0051e4c6      .byte 0x01
            0x0051e4c7      .byte 0x4d
            0x0051e4c8      .byte 0x00
            0x0051e4c9      .byte 0x75
            0x0051e4ca      .byte 0x36
            0x0051e4cb      .byte 0x44
            0x0051e4cc      .byte 0x00
            0x0051e4cd      .byte 0x00
            0x0051e4ce      .byte 0x20
            0x0051e4cf      .byte 0x06
            0x0051e4d0      .byte 0x00
            0x0051e4d1      .byte 0x4d
            0x0051e4d2      .byte 0x00
            0x0051e4d3      .byte 0x95
            0x0051e4d4      .byte 0x32
            0x0051e4d5      .byte 0xcc
            0x0051e4d6      .byte 0x00
            0x0051e4d7      .byte 0x00
            0x0051e4d8      .byte 0x20
            0x0051e4d9      .byte 0x87
            0x0051e4da      .byte 0x00
            0x0051e4db      .byte 0x4d
            0x0051e4dc      .byte 0x00
            0x0051e4dd      .byte 0x05
            0x0051e4de      .byte 0x02
            0x0051e4df      .byte 0xcc
            0x0051e4e0      .byte 0x00
            0x0051e4e1      .byte 0x00
            0x0051e4e2      .byte 0x20
            0x0051e4e3      .byte 0x06
            0x0051e4e4      .byte 0x00
            0x0051e4e5      .byte 0x4d
            0x0051e4e6      .byte 0x00
            0x0051e4e7      .byte 0x8d
            0x0051e4e8      .byte 0x36
            0x0051e4e9      .byte 0xcd
            0x0051e4ea      .byte 0x00
            0x0051e4eb      .byte 0x00
            0x0051e4ec      .byte 0x20
            0x0051e4ed      .byte 0x87
            0x0051e4ee      .byte 0x00
            0x0051e4ef      .byte 0x4d
            0x0051e4f0      .byte 0x00
            0x0051e4f1      .byte 0x05
            0x0051e4f2      .byte 0x06
            0x0051e4f3      .byte 0xcd
            0x0051e4f4      .byte 0x00
            0x0051e4f5      .byte 0x00
            0x0051e4f6      .byte 0x00
            0x0051e4f7      .byte 0x06
            0x0051e4f8      .byte 0x00
            0x0051e4f9      .byte 0x4d
            0x0051e4fa      .byte 0x00
            0x0051e4fb      .byte 0x8d
            0x0051e4fc      .byte 0x32
            0x0051e4fd      .byte 0x44
            0x0051e4fe      .byte 0x00
            0x0051e4ff      .byte 0x00
            0x0051e500      .byte 0x00
            0x0051e501      .byte 0x06
            0x0051e502      .byte 0x00
            0x0051e503      .byte 0x4d
            0x0051e504      .byte 0x00
            0x0051e505      .byte 0x95
            0x0051e506      .byte 0x36
            0x0051e507      .byte 0x44
            0x0051e508      .byte 0x00
            0x0051e509      .byte 0x00
            0x0051e50a      .byte 0x20
            0x0051e50b      .byte 0x06
            0x0051e50c      .byte 0x00
            0x0051e50d      .byte 0x4d
            0x0051e50e      .byte 0x00
            0x0051e50f      .byte 0xf5
            0x0051e510      .byte 0x32
            0x0051e511      .byte 0xcc
            0x0051e512      .byte 0x00
            0x0051e513      .byte 0x00
            0x0051e514      .byte 0x20
            0x0051e515      .byte 0xe7
            0x0051e516      .byte 0x00
            0x0051e517      .byte 0x4d
            0x0051e518      .byte 0x00
            0x0051e519      .byte 0x05
            0x0051e51a      .byte 0x02
            0x0051e51b      .byte 0xcc
            0x0051e51c      .byte 0x00
            0x0051e51d      .byte 0x00
            0x0051e51e      .byte 0x20
            0x0051e51f      .byte 0x06
            0x0051e520      .byte 0x00
            0x0051e521      .byte 0x4d
            0x0051e522      .byte 0x00
            0x0051e523      .byte 0xed
            0x0051e524      .byte 0x36
            0x0051e525      .byte 0xcd
            0x0051e526      .byte 0x00
            0x0051e527      .byte 0x00
            0x0051e528      .byte 0x20
            0x0051e529      .byte 0xe7
            0x0051e52a      .byte 0x00
            0x0051e52b      .byte 0x4d
            0x0051e52c      .byte 0x00
            0x0051e52d      .byte 0x05
            0x0051e52e      .byte 0x06
            0x0051e52f      .byte 0xcd
            0x0051e530      .byte 0x00
            0x0051e531      .byte 0x00
            0x0051e532      .byte 0x00
            0x0051e533      .byte 0x06
            0x0051e534      .byte 0x01
            0x0051e535      .byte 0x4d
            0x0051e536      .byte 0x00
            0x0051e537      .byte 0xed
            0x0051e538      .byte 0x32
            0x0051e539      .byte 0x44
            0x0051e53a      .byte 0x00
            0x0051e53b      .byte 0x00
            0x0051e53c      .byte 0x00
            0x0051e53d      .byte 0x06
            0x0051e53e      .byte 0x01
            0x0051e53f      .byte 0x4d
            0x0051e540      .byte 0x00
            0x0051e541      .byte 0xf5
            0x0051e542      .byte 0x36
            0x0051e543      .byte 0x44
            0x0051e544      .byte 0x00
            0x0051e545      .byte 0x00
            0x0051e546      .byte 0x20
            0x0051e547      .byte 0x06
            0x0051e548      .byte 0x00
            0x0051e549      .byte 0x4d
            0x0051e54a      .byte 0x00
            0x0051e54b      .byte 0x95
            0x0051e54c      .byte 0x32
            0x0051e54d      .byte 0xec
            0x0051e54e      .byte 0x00
            0x0051e54f      .byte 0x00
            0x0051e550      .byte 0x20
            0x0051e551      .byte 0x87
            0x0051e552      .byte 0x00
            0x0051e553      .byte 0x4d
            0x0051e554      .byte 0x00
            0x0051e555      .byte 0x05
            0x0051e556      .byte 0x02
            0x0051e557      .byte 0xec
            0x0051e558      .byte 0x00
            0x0051e559      .byte 0x00
            0x0051e55a      .byte 0x20
            0x0051e55b      .byte 0x06
            0x0051e55c      .byte 0x00
            0x0051e55d      .byte 0x4d
            0x0051e55e      .byte 0x00
            0x0051e55f      .byte 0x8d
            0x0051e560      .byte 0x36
            0x0051e561      .byte 0xed
            0x0051e562      .byte 0x00
            0x0051e563      .byte 0x00
            0x0051e564      .byte 0x20
            0x0051e565      .byte 0x87
            0x0051e566      .byte 0x00
            0x0051e567      .byte 0x4d
            0x0051e568      .byte 0x00
            0x0051e569      .byte 0x05
            0x0051e56a      .byte 0x06
            0x0051e56b      .byte 0xed
            0x0051e56c      .byte 0x00
            0x0051e56d      .byte 0x00
            0x0051e56e      .byte 0x20
            0x0051e56f      .byte 0x06
            0x0051e570      .byte 0x00
            0x0051e571      .byte 0x4d
            0x0051e572      .byte 0x00
            0x0051e573      .byte 0x75
            0x0051e574      .byte 0x32
            0x0051e575      .byte 0xec
            0x0051e576      .byte 0x00
            0x0051e577      .byte 0x00
            0x0051e578      .byte 0x20
            0x0051e579      .byte 0x67
            0x0051e57a      .byte 0x00
            0x0051e57b      .byte 0x4d
            0x0051e57c      .byte 0x00
            0x0051e57d      .byte 0x05
            0x0051e57e      .byte 0x02
            0x0051e57f      .byte 0xec
            0x0051e580      .byte 0x00
            0x0051e581      .byte 0x00
            0x0051e582      .byte 0x20
            0x0051e583      .byte 0x06
            0x0051e584      .byte 0x00
            0x0051e585      .byte 0x4d
            0x0051e586      .byte 0x00
            0x0051e587      .byte 0x6d
            0x0051e588      .byte 0x36
            0x0051e589      .byte 0xed
            0x0051e58a      .byte 0x00
            0x0051e58b      .byte 0x00
            0x0051e58c      .byte 0x20
            0x0051e58d      .byte 0x67
            0x0051e58e      .byte 0x00
            0x0051e58f      .byte 0x4d
            0x0051e590      .byte 0x00
            0x0051e591      .byte 0x05
            0x0051e592      .byte 0x06
            0x0051e593      .byte 0xed
            0x0051e594      .byte 0x00
            0x0051e595      .byte 0x00
            0x0051e596      .byte 0x20
            0x0051e597      .byte 0x06
            0x0051e598      .byte 0x00
            0x0051e599      .byte 0x4d
            0x0051e59a      .byte 0x00
            0x0051e59b      .byte 0xf5
            0x0051e59c      .byte 0x32
            0x0051e59d      .byte 0xec
            0x0051e59e      .byte 0x00
            0x0051e59f      .byte 0x00
            0x0051e5a0      .byte 0x20
            0x0051e5a1      .byte 0xe7
            0x0051e5a2      .byte 0x00
            0x0051e5a3      .byte 0x4d
            0x0051e5a4      .byte 0x00
            0x0051e5a5      .byte 0x05
            0x0051e5a6      .byte 0x02
            0x0051e5a7      .byte 0xec
            0x0051e5a8      .byte 0x00
            0x0051e5a9      .byte 0x00
            0x0051e5aa      .byte 0x20
            0x0051e5ab      .byte 0x06
            0x0051e5ac      .byte 0x00
            0x0051e5ad      .byte 0x4d
            0x0051e5ae      .byte 0x00
            0x0051e5af      .byte 0xed
            0x0051e5b0      .byte 0x36
            0x0051e5b1      .byte 0xed
            0x0051e5b2      .byte 0x00
            0x0051e5b3      .byte 0x00
            0x0051e5b4      .byte 0x20
            0x0051e5b5      .byte 0xe7
            0x0051e5b6      .byte 0x00
            0x0051e5b7      .byte 0x4d
            0x0051e5b8      .byte 0x00
            0x0051e5b9      .byte 0x05
            0x0051e5ba      .byte 0x06
            0x0051e5bb      .byte 0xed
            0x0051e5bc      .byte 0x00
            0x0051e5bd      .byte 0x00
            0x0051e5be      .byte 0x20
            0x0051e5bf      .byte 0x06
            0x0051e5c0      .byte 0x00
            0x0051e5c1      .byte 0x4d
            0x0051e5c2      .byte 0x00
            0x0051e5c3      .byte 0x6d
            0x0051e5c4      .byte 0x32
            0x0051e5c5      .byte 0xcc
            0x0051e5c6      .byte 0x00
            0x0051e5c7      .byte 0x00
            0x0051e5c8      .byte 0x20
            0x0051e5c9      .byte 0x06
            0x0051e5ca      .byte 0x00
            0x0051e5cb      .byte 0x4d
            0x0051e5cc      .byte 0x00
            0x0051e5cd      .byte 0x75
            0x0051e5ce      .byte 0x36
            0x0051e5cf      .byte 0xcd
            0x0051e5d0      .byte 0x00
            0x0051e5d1      .byte 0x00
            0x0051e5d2      .byte 0x20
            0x0051e5d3      .byte 0x06
            0x0051e5d4      .byte 0x00
            0x0051e5d5      .byte 0x4d
            0x0051e5d6      .byte 0x00
            0x0051e5d7      .byte 0x8d
            0x0051e5d8      .byte 0x32
            0x0051e5d9      .byte 0xcc
            0x0051e5da      .byte 0x00
            0x0051e5db      .byte 0x00
            0x0051e5dc      .byte 0x20
            0x0051e5dd      .byte 0x06
            0x0051e5de      .byte 0x00
            0x0051e5df      .byte 0x4d
            0x0051e5e0      .byte 0x00
            0x0051e5e1      .byte 0x95
            0x0051e5e2      .byte 0x36
            0x0051e5e3      .byte 0xcd
            0x0051e5e4      .byte 0x00
            0x0051e5e5      .byte 0x00
            0x0051e5e6      .byte 0x20
            0x0051e5e7      .byte 0x06
            0x0051e5e8      .byte 0x00
            0x0051e5e9      .byte 0x4d
            0x0051e5ea      .byte 0x00
            0x0051e5eb      .byte 0xed
            0x0051e5ec      .byte 0x32
            0x0051e5ed      .byte 0xcc
            0x0051e5ee      .byte 0x00
            0x0051e5ef      .byte 0x00
            0x0051e5f0      .byte 0x20
            0x0051e5f1      .byte 0x06
            0x0051e5f2      .byte 0x00
            0x0051e5f3      .byte 0x4d
            0x0051e5f4      .byte 0x00
            0x0051e5f5      .byte 0xf5
            0x0051e5f6      .byte 0x36
            0x0051e5f7      .byte 0xcd
            0x0051e5f8      .byte 0x00
            0x0051e5f9      .byte 0x00
            0x0051e5fa      .byte 0x00
            0x0051e5fb      .byte 0x05
            0x0051e5fc      .byte 0x00
            0x0051e5fd      .byte 0x4d
            0x0051e5fe      .byte 0x00
            0x0051e5ff      .byte 0x6f
            0x0051e600      .byte 0x32
            0x0051e601      .byte 0x44
            0x0051e602      .byte 0x00
            0x0051e603      .byte 0x00
            0x0051e604      .byte 0x00
            0x0051e605      .byte 0x05
            0x0051e606      .byte 0x00
            0x0051e607      .byte 0x4d
            0x0051e608      .byte 0x00
            0x0051e609      .byte 0x77
            0x0051e60a      .byte 0x36
            0x0051e60b      .byte 0x44
            0x0051e60c      .byte 0x00
            0x0051e60d      .byte 0x00
            0x0051e60e      .byte 0x00
            0x0051e60f      .byte 0x05
            0x0051e610      .byte 0x00
            0x0051e611      .byte 0x4d
            0x0051e612      .byte 0x00
            0x0051e613      .byte 0x8f
            0x0051e614      .byte 0x32
            0x0051e615      .byte 0x44
            0x0051e616      .byte 0x00
            0x0051e617      .byte 0x00
            0x0051e618      .byte 0x00
            0x0051e619      .byte 0x05
            0x0051e61a      .byte 0x00
            0x0051e61b      .byte 0x4d
            0x0051e61c      .byte 0x00
            0x0051e61d      .byte 0x97
            0x0051e61e      .byte 0x36
            0x0051e61f      .byte 0x44
            0x0051e620      .byte 0x00
            0x0051e621      .byte 0x00
            0x0051e622      .byte 0x00
            0x0051e623      .byte 0x05
            0x0051e624      .byte 0x00
            0x0051e625      .byte 0x4d
            0x0051e626      .byte 0x00
            0x0051e627      .byte 0xef
            0x0051e628      .byte 0x32
            0x0051e629      .byte 0x44
            0x0051e62a      .byte 0x00
            0x0051e62b      .byte 0x00
            0x0051e62c      .byte 0x00
            0x0051e62d      .byte 0x05
            0x0051e62e      .byte 0x00
            0x0051e62f      .byte 0x4d
            0x0051e630      .byte 0x00
            0x0051e631      .byte 0xf7
            0x0051e632      .byte 0x36
            0x0051e633      .byte 0x44
            0x0051e634      .byte 0x00
            0x0051e635      .byte 0x00
            0x0051e636      .byte 0x20
            0x0051e637      .byte 0x06
            0x0051e638      .byte 0x00
            0x0051e639      .byte 0x4d
            0x0051e63a      .byte 0x00
            0x0051e63b      .byte 0x75
            0x0051e63c      .byte 0x36
            0x0051e63d      .byte 0xef
            0x0051e63e      .byte 0x00
            0x0051e63f      .byte 0x00
            0x0051e640      .byte 0x20
            0x0051e641      .byte 0x06
            0x0051e642      .byte 0x00
            0x0051e643      .byte 0x4d
            0x0051e644      .byte 0x00
            0x0051e645      .byte 0x8d
            0x0051e646      .byte 0x32
            0x0051e647      .byte 0xee
            0x0051e648      .byte 0x00
            0x0051e649      .byte 0x00
            0x0051e64a      .byte 0x20
            0x0051e64b      .byte 0x06
            0x0051e64c      .byte 0x00
            0x0051e64d      .byte 0x4d
            0x0051e64e      .byte 0x00
            0x0051e64f      .byte 0x95
            0x0051e650      .byte 0x36
            0x0051e651      .byte 0xef
            0x0051e652      .byte 0x00
            0x0051e653      .byte 0x00
            0x0051e654      .byte 0x00
            0x0051e655      .byte 0x04
            0x0051e656      .byte 0x01
            0x0051e657      .byte 0x0c
            0x0051e658      .byte 0x00
            0x0051e659      .byte 0x69
            0x0051e65a      .byte 0x32
            0x0051e65b      .byte 0x44
            0x0051e65c      .byte 0x00
            0x0051e65d      .byte 0x00
            0x0051e65e      .byte 0x00
            0x0051e65f      .byte 0x04
            0x0051e660      .byte 0x01
            0x0051e661      .byte 0x0c
            0x0051e662      .byte 0x00
            0x0051e663      .byte 0x71
            0x0051e664      .byte 0x32
            0x0051e665      .byte 0x44
            0x0051e666      .byte 0x00
            0x0051e667      .byte 0x00
            0x0051e668      .byte 0x00
            0x0051e669      .byte 0x04
            0x0051e66a      .byte 0x01
            0x0051e66b      .byte 0x0c
            0x0051e66c      .byte 0x00
            0x0051e66d      .byte 0x89
            0x0051e66e      .byte 0x32
            0x0051e66f      .byte 0x44
            0x0051e670      .byte 0x00
            0x0051e671      .byte 0x00
            0x0051e672      .byte 0x00
            0x0051e673      .byte 0x04
            0x0051e674      .byte 0x01
            0x0051e675      .byte 0x0c
            0x0051e676      .byte 0x00
            0x0051e677      .byte 0x91
            0x0051e678      .byte 0x32
            0x0051e679      .byte 0x44
            0x0051e67a      .byte 0x00
            0x0051e67b      .byte 0x00
            0x0051e67c      .byte 0x00
            0x0051e67d      .byte 0x04
            0x0051e67e      .byte 0x01
            0x0051e67f      .byte 0x0c
            0x0051e680      .byte 0x00
            0x0051e681      .byte 0xe9
            0x0051e682      .byte 0x32
            0x0051e683      .byte 0x44
            0x0051e684      .byte 0x00
            0x0051e685      .byte 0x00
            0x0051e686      .byte 0x00
            0x0051e687      .byte 0x04
            0x0051e688      .byte 0x01
            0x0051e689      .byte 0x0c
            0x0051e68a      .byte 0x00
            0x0051e68b      .byte 0xf1
            0x0051e68c      .byte 0x32
            0x0051e68d      .byte 0x44
            0x0051e68e      .byte 0x00
            0x0051e68f      .byte 0x00
            0x0051e690      .byte 0x00
            0x0051e691      .byte 0x00
            0x0051e692      .byte 0x00
            0x0051e693      .byte 0x00
            0x0051e694      .byte 0x00
            0x0051e695      .byte 0x00
            0x0051e696      .byte 0x00
            0x0051e697      .byte 0x00
            0x0051e698      .byte 0x00
            0x0051e699      .byte 0x00
            0x0051e69a      .byte 0x13
            0x0051e69b      .byte 0x00
            0x0051e69c      .byte 0x00
            0x0051e69d      .byte 0x00
            0x0051e69e      .byte 0x00
            0x0051e69f      .byte 0x07
            0x0051e6a0      .byte 0x32
            0x0051e6a1      .byte 0x44
            0x0051e6a2      .byte 0x00
            0x0051e6a3      .byte 0x00
            0x0051e6a4      .byte 0x13
            0x0051e6a5      .byte 0x00
            0x0051e6a6      .byte 0x00
            0x0051e6a7      .byte 0x00
            0x0051e6a8      .byte 0x00
            0x0051e6a9      .byte 0x6f
            0x0051e6aa      .byte 0x32
            0x0051e6ab      .byte 0x44
            0x0051e6ac      .byte 0x00
            0x0051e6ad      .byte 0x00
            0x0051e6ae      .byte 0x13
            0x0051e6af      .byte 0x00
            0x0051e6b0      .byte 0x00
            0x0051e6b1      .byte 0x00
            0x0051e6b2      .byte 0x00
            0x0051e6b3      .byte 0x77
            0x0051e6b4      .byte 0x32
            0x0051e6b5      .byte 0x44
            0x0051e6b6      .byte 0x00
            0x0051e6b7      .byte 0x00
            0x0051e6b8      .byte 0x13
            0x0051e6b9      .byte 0x00
            0x0051e6ba      .byte 0x00
            0x0051e6bb      .byte 0x00
            0x0051e6bc      .byte 0x00
            0x0051e6bd      .byte 0x8f
            0x0051e6be      .byte 0x32
            0x0051e6bf      .byte 0x44
            0x0051e6c0      .byte 0x00
            0x0051e6c1      .byte 0x00
            0x0051e6c2      .byte 0x13
            0x0051e6c3      .byte 0x00
            0x0051e6c4      .byte 0x00
            0x0051e6c5      .byte 0x00
            0x0051e6c6      .byte 0x00
            0x0051e6c7      .byte 0x97
            0x0051e6c8      .byte 0x32
            0x0051e6c9      .byte 0x44
            0x0051e6ca      .byte 0x00
            0x0051e6cb      .byte 0x00
            0x0051e6cc      .byte 0x13
            0x0051e6cd      .byte 0x00
            0x0051e6ce      .byte 0x00
            0x0051e6cf      .byte 0x00
            0x0051e6d0      .byte 0x00
            0x0051e6d1      .byte 0xef
            0x0051e6d2      .byte 0x32
            0x0051e6d3      .byte 0x44
            0x0051e6d4      .byte 0x00
            0x0051e6d5      .byte 0x00
            0x0051e6d6      .byte 0x13
            0x0051e6d7      .byte 0x00
            0x0051e6d8      .byte 0x00
            0x0051e6d9      .byte 0x00
            0x0051e6da      .byte 0x00
            0x0051e6db      .byte 0xf7
            0x0051e6dc      .byte 0x32
            0x0051e6dd      .byte 0x44
            0x0051e6de      .byte 0x00
            0x0051e6df      .byte 0x00
            0x0051e6e0      .byte 0x13
            0x0051e6e1      .byte 0x6a
            0x0051e6e2      .byte 0x00
            0x0051e6e3      .byte 0x00
            0x0051e6e4      .byte 0x00
            0x0051e6e5      .byte 0x00
            0x0051e6e6      .byte 0x00
            0x0051e6e7      .byte 0x00
            0x0051e6e8      .byte 0x00
            0x0051e6e9      .byte 0x00
            0x0051e6ea      .byte 0x13
            0x0051e6eb      .byte 0x8a
            0x0051e6ec      .byte 0x00
            0x0051e6ed      .byte 0x80
            0x0051e6ee      .byte 0x00
            0x0051e6ef      .byte 0x00
            0x0051e6f0      .byte 0x00
            0x0051e6f1      .byte 0x00
            0x0051e6f2      .byte 0x00
            0x0051e6f3      .byte 0x00
            0x0051e6f4      .byte 0x13
            0x0051e6f5      .byte 0x6a
            0x0051e6f6      .byte 0x00
            0x0051e6f7      .byte 0x00
            0x0051e6f8      .byte 0x00
            0x0051e6f9      .byte 0x6f
            0x0051e6fa      .byte 0x32
            0x0051e6fb      .byte 0x44
            0x0051e6fc      .byte 0x00
            0x0051e6fd      .byte 0x00
            0x0051e6fe      .byte 0x13
            0x0051e6ff      .byte 0x8a
            0x0051e700      .byte 0x00
            0x0051e701      .byte 0x80
            0x0051e702      .byte 0x00
            0x0051e703      .byte 0x8f
            0x0051e704      .byte 0x3a
            0x0051e705      .byte 0x44
            0x0051e706      .byte 0x00
            0x0051e707      .byte 0x00
            0x0051e708      .byte 0x13
            0x0051e709      .byte 0x6a
            0x0051e70a      .byte 0x00
            0x0051e70b      .byte 0x00
            0x0051e70c      .byte 0x00
            0x0051e70d      .byte 0x77
            0x0051e70e      .byte 0x32
            0x0051e70f      .byte 0x44
            0x0051e710      .byte 0x00
            0x0051e711      .byte 0x00
            0x0051e712      .byte 0x13
            0x0051e713      .byte 0x8a
            0x0051e714      .byte 0x00
            0x0051e715      .byte 0x80
            0x0051e716      .byte 0x00
            0x0051e717      .byte 0x97
            0x0051e718      .byte 0x3a
            0x0051e719      .byte 0x44
            0x0051e71a      .byte 0x00
            0x0051e71b      .byte 0x00
            0x0051e71c      .byte 0x13
            0x0051e71d      .byte 0x00
            0x0051e71e      .byte 0x00
            0x0051e71f      .byte 0x00
            0x0051e720      .byte 0x00
            0x0051e721      .byte 0x8f
            0x0051e722      .byte 0x3a
            0x0051e723      .byte 0x44
            0x0051e724      .byte 0x00
            0x0051e725      .byte 0x00
            0x0051e726      .byte 0x13
            0x0051e727      .byte 0x00
            0x0051e728      .byte 0x00
            0x0051e729      .byte 0x00
            0x0051e72a      .byte 0x00
            0x0051e72b      .byte 0x97
            0x0051e72c      .byte 0x3a
            0x0051e72d      .byte 0x44
            0x0051e72e      .byte 0x00
            0x0051e72f      .byte 0x00
            0x0051e730      .byte 0x13
            0x0051e731      .byte 0x00
            0x0051e732      .byte 0x00
            0x0051e733      .byte 0x00
            0x0051e734      .byte 0x00
            0x0051e735      .byte 0x7f
            0x0051e736      .byte 0x32
            0x0051e737      .byte 0x44
            0x0051e738      .byte 0x00
            0x0051e739      .byte 0x00
            0x0051e73a      .byte 0x13
            0x0051e73b      .byte 0x00
            0x0051e73c      .byte 0x00
            0x0051e73d      .byte 0x00
            0x0051e73e      .byte 0x00
            0x0051e73f      .byte 0x9f
            0x0051e740      .byte 0x32
            0x0051e741      .byte 0x44
            0x0051e742      .byte 0x00
            0x0051e743      .byte 0x00
            0x0051e744      .byte 0x13
            0x0051e745      .byte 0x00
            0x0051e746      .byte 0x00
            0x0051e747      .byte 0x00
            0x0051e748      .byte 0x00
            0x0051e749      .byte 0xff
            0x0051e74a      .byte 0x32
            0x0051e74b      .byte 0x44
            0x0051e74c      .byte 0x00
            0x0051e74d      .byte 0x00
            0x0051e74e      .byte 0x00
            0x0051e74f      .byte 0x06
            0x0051e750      .byte 0x00
            0x0051e751      .byte 0x74
            0x0051e752      .byte 0x00
            0x0051e753      .byte 0x6d
            0x0051e754      .byte 0x32
            0x0051e755      .byte 0x44
            0x0051e756      .byte 0x00
            0x0051e757      .byte 0x00
            0x0051e758      .byte 0x00
            0x0051e759      .byte 0x06
            0x0051e75a      .byte 0x00
            0x0051e75b      .byte 0x74
            0x0051e75c      .byte 0x00
            0x0051e75d      .byte 0x75
            0x0051e75e      .byte 0x32
            0x0051e75f      .byte 0x44
            0x0051e760      .byte 0x00
            0x0051e761      .byte 0x00
            0x0051e762      .byte 0x00
            0x0051e763      .byte 0x67
            0x0051e764      .byte 0x00
            0x0051e765      .byte 0x74
            0x0051e766      .byte 0x00
            0x0051e767      .byte 0x00
            0x0051e768      .byte 0x00
            0x0051e769      .byte 0x00
            0x0051e76a      .byte 0x00
            0x0051e76b      .byte 0x00
            0x0051e76c      .byte 0x00
            0x0051e76d      .byte 0x06
            0x0051e76e      .byte 0x00
            0x0051e76f      .byte 0x74
            0x0051e770      .byte 0x00
            0x0051e771      .byte 0x9d
            0x0051e772      .byte 0x2a
            0x0051e773      .byte 0x44
            0x0051e774      .byte 0x00
            0x0051e775      .byte 0x00
            0x0051e776      .byte 0x00
            0x0051e777      .byte 0x06
            0x0051e778      .byte 0x00
            0x0051e779      .byte 0x74
            0x0051e77a      .byte 0x00
            0x0051e77b      .byte 0x8d
            0x0051e77c      .byte 0x3a
            0x0051e77d      .byte 0x44
            0x0051e77e      .byte 0x00
            0x0051e77f      .byte 0x00
            0x0051e780      .byte 0x00
            0x0051e781      .byte 0x06
            0x0051e782      .byte 0x00
            0x0051e783      .byte 0x74
            0x0051e784      .byte 0x00
            0x0051e785      .byte 0x95
            0x0051e786      .byte 0x3a
            0x0051e787      .byte 0x44
            0x0051e788      .byte 0x00
            0x0051e789      .byte 0x00
            0x0051e78a      .byte 0x00
            0x0051e78b      .byte 0x87
            0x0051e78c      .byte 0x00
            0x0051e78d      .byte 0x74
            0x0051e78e      .byte 0x00
            0x0051e78f      .byte 0x00
            0x0051e790      .byte 0x00
            0x0051e791      .byte 0x00
            0x0051e792      .byte 0x00
            0x0051e793      .byte 0x00
            0x0051e794      .byte 0x00
            0x0051e795      .byte 0x06
            0x0051e796      .byte 0x00
            0x0051e797      .byte 0x74
            0x0051e798      .byte 0x00
            0x0051e799      .byte 0x2d
            0x0051e79a      .byte 0x32
            0x0051e79b      .byte 0x44
            0x0051e79c      .byte 0x00
            0x0051e79d      .byte 0x00
            0x0051e79e      .byte 0x00
            0x0051e79f      .byte 0x06
            0x0051e7a0      .byte 0x00
            0x0051e7a1      .byte 0x74
            0x0051e7a2      .byte 0x00
            0x0051e7a3      .byte 0x35
            0x0051e7a4      .byte 0x32
            0x0051e7a5      .byte 0x44
            0x0051e7a6      .byte 0x00
            0x0051e7a7      .byte 0x00
            0x0051e7a8      .byte 0x00
            0x0051e7a9      .byte 0x27
            0x0051e7aa      .byte 0x00
            0x0051e7ab      .byte 0x74
            0x0051e7ac      .byte 0x00
            0x0051e7ad      .byte 0x00
            0x0051e7ae      .byte 0x00
            0x0051e7af      .byte 0x00
            0x0051e7b0      .byte 0x00
            0x0051e7b1      .byte 0x00
            0x0051e7b2      .byte 0x00
            0x0051e7b3      .byte 0x06
            0x0051e7b4      .byte 0x00
            0x0051e7b5      .byte 0x74
            0x0051e7b6      .byte 0x00
            0x0051e7b7      .byte 0x4d
            0x0051e7b8      .byte 0x32
            0x0051e7b9      .byte 0x44
            0x0051e7ba      .byte 0x00
            0x0051e7bb      .byte 0x00
            0x0051e7bc      .byte 0x00
            0x0051e7bd      .byte 0x06
            0x0051e7be      .byte 0x00
            0x0051e7bf      .byte 0x74
            0x0051e7c0      .byte 0x00
            0x0051e7c1      .byte 0x55
            0x0051e7c2      .byte 0x32
            0x0051e7c3      .byte 0x44
            0x0051e7c4      .byte 0x00
            0x0051e7c5      .byte 0x00
            0x0051e7c6      .byte 0x00
            0x0051e7c7      .byte 0x47
            0x0051e7c8      .byte 0x00
            0x0051e7c9      .byte 0x74
            0x0051e7ca      .byte 0x00
            0x0051e7cb      .byte 0x00
            0x0051e7cc      .byte 0x00
            0x0051e7cd      .byte 0x00
            0x0051e7ce      .byte 0x00
            0x0051e7cf      .byte 0x00
            0x0051e7d0      .byte 0x00
            0x0051e7d1      .byte 0x06
            0x0051e7d2      .byte 0x00
            0x0051e7d3      .byte 0x54
            0x0051e7d4      .byte 0x00
            0x0051e7d5      .byte 0x6d
            0x0051e7d6      .byte 0x13
            0x0051e7d7      .byte 0x40
            0x0051e7d8      .byte 0x00
            0x0051e7d9      .byte 0x00
            0x0051e7da      .byte 0x00
            0x0051e7db      .byte 0x06
            0x0051e7dc      .byte 0x00
            0x0051e7dd      .byte 0x54
            0x0051e7de      .byte 0x00
            0x0051e7df      .byte 0x6d
            0x0051e7e0      .byte 0x13
            0x0051e7e1      .byte 0x60
            0x0051e7e2      .byte 0x00
            0x0051e7e3      .byte 0x00
            0x0051e7e4      .byte 0x00
            0x0051e7e5      .byte 0x06
            0x0051e7e6      .byte 0x00
            0x0051e7e7      .byte 0x54
            0x0051e7e8      .byte 0x00
            0x0051e7e9      .byte 0x6d
            0x0051e7ea      .byte 0x17
            0x0051e7eb      .byte 0x40
            0x0051e7ec      .byte 0x00
            0x0051e7ed      .byte 0x00
            0x0051e7ee      .byte 0x00
            0x0051e7ef      .byte 0x06
            0x0051e7f0      .byte 0x00
            0x0051e7f1      .byte 0x54
            0x0051e7f2      .byte 0x00
            0x0051e7f3      .byte 0x6d
            0x0051e7f4      .byte 0x17
            0x0051e7f5      .byte 0x60
            0x0051e7f6      .byte 0x00
            0x0051e7f7      .byte 0x00
            0x0051e7f8      .byte 0x00
            0x0051e7f9      .byte 0x06
            0x0051e7fa      .byte 0x00
            0x0051e7fb      .byte 0x54
            0x0051e7fc      .byte 0x00
            0x0051e7fd      .byte 0x75
            0x0051e7fe      .byte 0x13
            0x0051e7ff      .byte 0x41
            0x0051e800      .byte 0x00
            0x0051e801      .byte 0x00
            0x0051e802      .byte 0x00
            0x0051e803      .byte 0x06
            0x0051e804      .byte 0x00
            0x0051e805      .byte 0x54
            0x0051e806      .byte 0x00
            0x0051e807      .byte 0x75
            0x0051e808      .byte 0x13
            0x0051e809      .byte 0x61
            0x0051e80a      .byte 0x00
            0x0051e80b      .byte 0x00
            0x0051e80c      .byte 0x00
            0x0051e80d      .byte 0x06
            0x0051e80e      .byte 0x00
            0x0051e80f      .byte 0x54
            0x0051e810      .byte 0x00
            0x0051e811      .byte 0x75
            0x0051e812      .byte 0x17
            0x0051e813      .byte 0x41
            0x0051e814      .byte 0x00
            0x0051e815      .byte 0x00
            0x0051e816      .byte 0x00
            0x0051e817      .byte 0x06
            0x0051e818      .byte 0x00
            0x0051e819      .byte 0x54
            0x0051e81a      .byte 0x00
            0x0051e81b      .byte 0x75
            0x0051e81c      .byte 0x17
            0x0051e81d      .byte 0x61
            0x0051e81e      .byte 0x00
            0x0051e81f      .byte 0x00
            0x0051e820      .byte 0x00
            0x0051e821      .byte 0x06
            0x0051e822      .byte 0x00
            0x0051e823      .byte 0x74
            0x0051e824      .byte 0x00
            0x0051e825      .byte 0xed
            0x0051e826      .byte 0x32
            0x0051e827      .byte 0x44
            0x0051e828      .byte 0x00
            0x0051e829      .byte 0x00
            0x0051e82a      .byte 0x00
            0x0051e82b      .byte 0x06
            0x0051e82c      .byte 0x00
            0x0051e82d      .byte 0x74
            0x0051e82e      .byte 0x00
            0x0051e82f      .byte 0xf5
            0x0051e830      .byte 0x32
            0x0051e831      .byte 0x44
            0x0051e832      .byte 0x00
            0x0051e833      .byte 0x00
            0x0051e834      .byte 0x00
            0x0051e835      .byte 0xe7
            0x0051e836      .byte 0x00
            0x0051e837      .byte 0x74
            0x0051e838      .byte 0x00
            0x0051e839      .byte 0x00
            0x0051e83a      .byte 0x00
            0x0051e83b      .byte 0x00
            0x0051e83c      .byte 0x00
            0x0051e83d      .byte 0x00
            0x0051e83e      .byte 0x00
            0x0051e83f      .byte 0x06
            0x0051e840      .byte 0x00
            0x0051e841      .byte 0x54
            0x0051e842      .byte 0x00
            0x0051e843      .byte 0x2d
            0x0051e844      .byte 0x13
            0x0051e845      .byte 0x40
            0x0051e846      .byte 0x00
            0x0051e847      .byte 0x00
            0x0051e848      .byte 0x00
            0x0051e849      .byte 0x06
            0x0051e84a      .byte 0x00
            0x0051e84b      .byte 0x54
            0x0051e84c      .byte 0x00
            0x0051e84d      .byte 0x2d
            0x0051e84e      .byte 0x13
            0x0051e84f      .byte 0x48
            0x0051e850      .byte 0x00
            0x0051e851      .byte 0x00
            0x0051e852      .byte 0x00
            0x0051e853      .byte 0x06
            0x0051e854      .byte 0x00
            0x0051e855      .byte 0x54
            0x0051e856      .byte 0x00
            0x0051e857      .byte 0x2d
            0x0051e858      .byte 0x17
            0x0051e859      .byte 0x40
            0x0051e85a      .byte 0x00
            0x0051e85b      .byte 0x00
            0x0051e85c      .byte 0x00
            0x0051e85d      .byte 0x06
            0x0051e85e      .byte 0x00
            0x0051e85f      .byte 0x54
            0x0051e860      .byte 0x00
            0x0051e861      .byte 0x2d
            0x0051e862      .byte 0x17
            0x0051e863      .byte 0x48
            0x0051e864      .byte 0x00
            0x0051e865      .byte 0x00
            0x0051e866      .byte 0x00
            0x0051e867      .byte 0x06
            0x0051e868      .byte 0x00
            0x0051e869      .byte 0x54
            0x0051e86a      .byte 0x00
            0x0051e86b      .byte 0x35
            0x0051e86c      .byte 0x13
            0x0051e86d      .byte 0x41
            0x0051e86e      .byte 0x00
            0x0051e86f      .byte 0x00
            0x0051e870      .byte 0x00
            0x0051e871      .byte 0x06
            0x0051e872      .byte 0x00
            0x0051e873      .byte 0x54
            0x0051e874      .byte 0x00
            0x0051e875      .byte 0x35
            0x0051e876      .byte 0x13
            0x0051e877      .byte 0x49
            0x0051e878      .byte 0x00
            0x0051e879      .byte 0x00
            0x0051e87a      .byte 0x00
            0x0051e87b      .byte 0x06
            0x0051e87c      .byte 0x00
            0x0051e87d      .byte 0x54
            0x0051e87e      .byte 0x00
            0x0051e87f      .byte 0x35
            0x0051e880      .byte 0x17
            0x0051e881      .byte 0x41
            0x0051e882      .byte 0x00
            0x0051e883      .byte 0x00
            0x0051e884      .byte 0x00
            0x0051e885      .byte 0x06
            0x0051e886      .byte 0x00
            0x0051e887      .byte 0x54
            0x0051e888      .byte 0x00
            0x0051e889      .byte 0x35
            0x0051e88a      .byte 0x17
            0x0051e88b      .byte 0x49
            0x0051e88c      .byte 0x00
            0x0051e88d      .byte 0x00
            0x0051e88e      .byte 0x00
            0x0051e88f      .byte 0x06
            0x0051e890      .byte 0x00
            0x0051e891      .byte 0x54
            0x0051e892      .byte 0x00
            0x0051e893      .byte 0x4d
            0x0051e894      .byte 0x13
            0x0051e895      .byte 0x40
            0x0051e896      .byte 0x00
            0x0051e897      .byte 0x00
            0x0051e898      .byte 0x00
            0x0051e899      .byte 0x06
            0x0051e89a      .byte 0x00
            0x0051e89b      .byte 0x54
            0x0051e89c      .byte 0x00
            0x0051e89d      .byte 0x4d
            0x0051e89e      .byte 0x13
            0x0051e89f      .byte 0x48
            0x0051e8a0      .byte 0x00
            0x0051e8a1      .byte 0x00
            0x0051e8a2      .byte 0x00
            0x0051e8a3      .byte 0x06
            0x0051e8a4      .byte 0x00
            0x0051e8a5      .byte 0x54
            0x0051e8a6      .byte 0x00
            0x0051e8a7      .byte 0x4d
            0x0051e8a8      .byte 0x17
            0x0051e8a9      .byte 0x40
            0x0051e8aa      .byte 0x00
            0x0051e8ab      .byte 0x00
            0x0051e8ac      .byte 0x00
            0x0051e8ad      .byte 0x06
            0x0051e8ae      .byte 0x00
            0x0051e8af      .byte 0x54
            0x0051e8b0      .byte 0x00
            0x0051e8b1      .byte 0x4d
            0x0051e8b2      .byte 0x17
            0x0051e8b3      .byte 0x48
            0x0051e8b4      .byte 0x00
            0x0051e8b5      .byte 0x00
            0x0051e8b6      .byte 0x00
            0x0051e8b7      .byte 0x06
            0x0051e8b8      .byte 0x00
            0x0051e8b9      .byte 0x54
            0x0051e8ba      .byte 0x00
            0x0051e8bb      .byte 0x55
            0x0051e8bc      .byte 0x13
            0x0051e8bd      .byte 0x41
            0x0051e8be      .byte 0x00
            0x0051e8bf      .byte 0x00
            0x0051e8c0      .byte 0x00
            0x0051e8c1      .byte 0x06
            0x0051e8c2      .byte 0x00
            0x0051e8c3      .byte 0x54
            0x0051e8c4      .byte 0x00
            0x0051e8c5      .byte 0x55
            0x0051e8c6      .byte 0x13
            0x0051e8c7      .byte 0x49
            0x0051e8c8      .byte 0x00
            0x0051e8c9      .byte 0x00
            0x0051e8ca      .byte 0x00
            0x0051e8cb      .byte 0x06
            0x0051e8cc      .byte 0x00
            0x0051e8cd      .byte 0x54
            0x0051e8ce      .byte 0x00
            0x0051e8cf      .byte 0x55
            0x0051e8d0      .byte 0x17
            0x0051e8d1      .byte 0x41
            0x0051e8d2      .byte 0x00
            0x0051e8d3      .byte 0x00
            0x0051e8d4      .byte 0x00
            0x0051e8d5      .byte 0x06
            0x0051e8d6      .byte 0x00
            0x0051e8d7      .byte 0x54
            0x0051e8d8      .byte 0x00
            0x0051e8d9      .byte 0x55
            0x0051e8da      .byte 0x17
            0x0051e8db      .byte 0x49
            0x0051e8dc      .byte 0x00
            0x0051e8dd      .byte 0x00
            0x0051e8de      .byte 0x00
            0x0051e8df      .byte 0x05
            0x0051e8e0      .byte 0x00
            0x0051e8e1      .byte 0x78
            0x0051e8e2      .byte 0x01
            0x0051e8e3      .byte 0x6f
            0x0051e8e4      .byte 0x32
            0x0051e8e5      .byte 0x44
            0x0051e8e6      .byte 0x00
            0x0051e8e7      .byte 0x00
            0x0051e8e8      .byte 0x00
            0x0051e8e9      .byte 0x05
            0x0051e8ea      .byte 0x00
            0x0051e8eb      .byte 0x74
            0x0051e8ec      .byte 0x01
            0x0051e8ed      .byte 0x77
            0x0051e8ee      .byte 0x32
            0x0051e8ef      .byte 0x44
            0x0051e8f0      .byte 0x00
            0x0051e8f1      .byte 0x00
            0x0051e8f2      .byte 0x00
            0x0051e8f3      .byte 0x05
            0x0051e8f4      .byte 0x00
            0x0051e8f5      .byte 0x74
            0x0051e8f6      .byte 0x00
            0x0051e8f7      .byte 0x8f
            0x0051e8f8      .byte 0x3a
            0x0051e8f9      .byte 0x44
            0x0051e8fa      .byte 0x00
            0x0051e8fb      .byte 0x00
            0x0051e8fc      .byte 0x00
            0x0051e8fd      .byte 0x05
            0x0051e8fe      .byte 0x00
            0x0051e8ff      .byte 0x74
            0x0051e900      .byte 0x00
            0x0051e901      .byte 0x97
            0x0051e902      .byte 0x3a
            0x0051e903      .byte 0x44
            0x0051e904      .byte 0x00
            0x0051e905      .byte 0x00
            0x0051e906      .byte 0x00
            0x0051e907      .byte 0x05
            0x0051e908      .byte 0x00
            0x0051e909      .byte 0x74
            0x0051e90a      .byte 0x00
            0x0051e90b      .byte 0x9f
            0x0051e90c      .byte 0x2a
            0x0051e90d      .byte 0x44
            0x0051e90e      .byte 0x00
            0x0051e90f      .byte 0x00
            0x0051e910      .byte 0x00
            0x0051e911      .byte 0x05
            0x0051e912      .byte 0x00
            0x0051e913      .byte 0x7c
            0x0051e914      .byte 0x00
            0x0051e915      .byte 0x2f
            0x0051e916      .byte 0x32
            0x0051e917      .byte 0x44
            0x0051e918      .byte 0x00
            0x0051e919      .byte 0x00
            0x0051e91a      .byte 0x00
            0x0051e91b      .byte 0x05
            0x0051e91c      .byte 0x00
            0x0051e91d      .byte 0x7c
            0x0051e91e      .byte 0x00
            0x0051e91f      .byte 0x37
            0x0051e920      .byte 0x32
            0x0051e921      .byte 0x44
            0x0051e922      .byte 0x00
            0x0051e923      .byte 0x00
            0x0051e924      .byte 0x00
            0x0051e925      .byte 0x05
            0x0051e926      .byte 0x00
            0x0051e927      .byte 0x7c
            0x0051e928      .byte 0x01
            0x0051e929      .byte 0x4f
            0x0051e92a      .byte 0x32
            0x0051e92b      .byte 0x44
            0x0051e92c      .byte 0x00
            0x0051e92d      .byte 0x00
            0x0051e92e      .byte 0x00
            0x0051e92f      .byte 0x05
            0x0051e930      .byte 0x00
            0x0051e931      .byte 0x7c
            0x0051e932      .byte 0x01
            0x0051e933      .byte 0x57
            0x0051e934      .byte 0x32
            0x0051e935      .byte 0x44
            0x0051e936      .byte 0x00
            0x0051e937      .byte 0x00
            0x0051e938      .byte 0x00
            0x0051e939      .byte 0x05
            0x0051e93a      .byte 0x00
            0x0051e93b      .byte 0x7c
            0x0051e93c      .byte 0x00
            0x0051e93d      .byte 0xef
            0x0051e93e      .byte 0x32
            0x0051e93f      .byte 0x44
            0x0051e940      .byte 0x00
            0x0051e941      .byte 0x00
            0x0051e942      .byte 0x00
            0x0051e943      .byte 0x05
            0x0051e944      .byte 0x00
            0x0051e945      .byte 0x7c
            0x0051e946      .byte 0x00
            0x0051e947      .byte 0xf7
            0x0051e948      .byte 0x32
            0x0051e949      .byte 0x44
            0x0051e94a      .byte 0x00
            0x0051e94b      .byte 0x00
            0x0051e94c      .byte 0x00
            0x0051e94d      .byte 0x06
            0x0051e94e      .byte 0x00
            0x0051e94f      .byte 0x5c
            0x0051e950      .byte 0x00
            0x0051e951      .byte 0x8d
            0x0051e952      .byte 0x3a
            0x0051e953      .byte 0x80
            0x0051e954      .byte 0x00
            0x0051e955      .byte 0x00
            0x0051e956      .byte 0x00
            0x0051e957      .byte 0x11
            0x0051e958      .byte 0x00
            0x0051e959      .byte 0x00
            0x0051e95a      .byte 0x00
            0x0051e95b      .byte 0x8f
            0x0051e95c      .byte 0x32
            0x0051e95d      .byte 0x44
            0x0051e95e      .byte 0x00
            0x0051e95f      .byte 0x00
            0x0051e960      .byte 0x00
            0x0051e961      .byte 0x11
            0x0051e962      .byte 0x00
            0x0051e963      .byte 0x00
            0x0051e964      .byte 0x00
            0x0051e965      .byte 0x97
            0x0051e966      .byte 0x32
            0x0051e967      .byte 0x44
            0x0051e968      .byte 0x00
            0x0051e969      .byte 0x00
            0x0051e96a      .byte 0x00
            0x0051e96b      .byte 0x13
            0x0051e96c      .byte 0x00
            0x0051e96d      .byte 0x00
            0x0051e96e      .byte 0x00
            0x0051e96f      .byte 0x6f
            0x0051e970      .byte 0x32
            0x0051e971      .byte 0x44
            0x0051e972      .byte 0x00
            0x0051e973      .byte 0x00
            0x0051e974      .byte 0x00
            0x0051e975      .byte 0x13
            0x0051e976      .byte 0x00
            0x0051e977      .byte 0x00
            0x0051e978      .byte 0x00
            0x0051e979      .byte 0x77
            0x0051e97a      .byte 0x32
            0x0051e97b      .byte 0x44
            0x0051e97c      .byte 0x00
            0x0051e97d      .byte 0x00
            0x0051e97e      .byte 0x00
            0x0051e97f      .byte 0x0d
            0x0051e980      .byte 0x00
            0x0051e981      .byte 0x4d
            0x0051e982      .byte 0x00
            0x0051e983      .byte 0xef
            0x0051e984      .byte 0x32
            0x0051e985      .byte 0x44
            0x0051e986      .byte 0x00
            0x0051e987      .byte 0x00
            0x0051e988      .byte 0x00
            0x0051e989      .byte 0x0f
            0x0051e98a      .byte 0x00
            0x0051e98b      .byte 0x4d
            0x0051e98c      .byte 0x00
            0x0051e98d      .byte 0xef
            0x0051e98e      .byte 0x32
            0x0051e98f      .byte 0x44
            0x0051e990      .byte 0x00
            0x0051e991      .byte 0x00
            0x0051e992      .byte 0x00
            0x0051e993      .byte 0x0d
            0x0051e994      .byte 0x00
            0x0051e995      .byte 0x4d
            0x0051e996      .byte 0x00
            0x0051e997      .byte 0xf7
            0x0051e998      .byte 0x36
            0x0051e999      .byte 0x44
            0x0051e99a      .byte 0x00
            0x0051e99b      .byte 0x00
            0x0051e99c      .byte 0x00
            0x0051e99d      .byte 0x0f
            0x0051e99e      .byte 0x00
            0x0051e99f      .byte 0x4d
            0x0051e9a0      .byte 0x00
            0x0051e9a1      .byte 0xf7
            0x0051e9a2      .byte 0x36
            0x0051e9a3      .byte 0x44
            0x0051e9a4      .byte 0x00
            0x0051e9a5      .byte 0x00
            0x0051e9a6      .byte 0x13
            0x0051e9a7      .byte 0x6a
            0x0051e9a8      .byte 0x00
            0x0051e9a9      .byte 0x00
            0x0051e9aa      .byte 0x00
            0x0051e9ab      .byte 0x00
            0x0051e9ac      .byte 0x00
            0x0051e9ad      .byte 0x00
            0x0051e9ae      .byte 0x00
            0x0051e9af      .byte 0x00
            0x0051e9b0      .byte 0x00
            0x0051e9b1      .byte 0x06
            0x0051e9b2      .byte 0x01
            0x0051e9b3      .byte 0x4d
            0x0051e9b4      .byte 0x00
            0x0051e9b5      .byte 0x95
            0x0051e9b6      .byte 0x3e
            0x0051e9b7      .byte 0x44
            0x0051e9b8      .byte 0x00
            0x0051e9b9      .byte 0x00
            0x0051e9ba      .byte 0x00
            0x0051e9bb      .byte 0x06
            0x0051e9bc      .byte 0x00
            0x0051e9bd      .byte 0xcd
            0x0051e9be      .byte 0x00
            0x0051e9bf      .byte 0x35
            0x0051e9c0      .byte 0x36
            0x0051e9c1      .byte 0x44
            0x0051e9c2      .byte 0x00
            0x0051e9c3      .byte 0x00
            0x0051e9c4      .byte 0x20
            0x0051e9c5      .byte 0x07
            0x0051e9c6      .byte 0x00
            0x0051e9c7      .byte 0x4d
            0x0051e9c8      .byte 0x00
            0x0051e9c9      .byte 0x05
            0x0051e9ca      .byte 0x02
            0x0051e9cb      .byte 0xcc
            0x0051e9cc      .byte 0x00
            0x0051e9cd      .byte 0x00
            0x0051e9ce      .byte 0x20
            0x0051e9cf      .byte 0x07
            0x0051e9d0      .byte 0x00
            0x0051e9d1      .byte 0x4d
            0x0051e9d2      .byte 0x00
            0x0051e9d3      .byte 0x05
            0x0051e9d4      .byte 0x06
            0x0051e9d5      .byte 0xcd
            0x0051e9d6      .byte 0x00
            0x0051e9d7      .byte 0x00
            0x0051e9d8      .byte 0x20
            0x0051e9d9      .byte 0x07
            0x0051e9da      .byte 0x00
            0x0051e9db      .byte 0x4d
            0x0051e9dc      .byte 0x00
            0x0051e9dd      .byte 0x05
            0x0051e9de      .byte 0x02
            0x0051e9df      .byte 0xcc
            0x0051e9e0      .byte 0x00
            0x0051e9e1      .byte 0x00
            0x0051e9e2      .byte 0x20
            0x0051e9e3      .byte 0x07
            0x0051e9e4      .byte 0x00
            0x0051e9e5      .byte 0x4d
            0x0051e9e6      .byte 0x00
            0x0051e9e7      .byte 0x05
            0x0051e9e8      .byte 0x06
            0x0051e9e9      .byte 0xcd
            0x0051e9ea      .byte 0x00
            0x0051e9eb      .byte 0x00
            0x0051e9ec      .byte 0x20
            0x0051e9ed      .byte 0x07
            0x0051e9ee      .byte 0x00
            0x0051e9ef      .byte 0x4d
            0x0051e9f0      .byte 0x00
            0x0051e9f1      .byte 0x05
            0x0051e9f2      .byte 0x02
            0x0051e9f3      .byte 0xcc
            0x0051e9f4      .byte 0x00
            0x0051e9f5      .byte 0x00
            0x0051e9f6      .byte 0x20
            0x0051e9f7      .byte 0x07
            0x0051e9f8      .byte 0x00
            0x0051e9f9      .byte 0x4d
            0x0051e9fa      .byte 0x00
            0x0051e9fb      .byte 0x05
            0x0051e9fc      .byte 0x06
            0x0051e9fd      .byte 0xcd
            0x0051e9fe      .byte 0x00
            0x0051e9ff      .byte 0x00
            0x0051ea00      .byte 0x00
            0x0051ea01      .byte 0x00
            0x0051ea02      .byte 0x00
            0x0051ea03      .byte 0x00
            0x0051ea04      .byte 0x00
            0x0051ea05      .byte 0x00
            0x0051ea06      .byte 0x00
            0x0051ea07      .byte 0x00
            0x0051ea08      .byte 0x00
            0x0051ea09      .byte 0x00
            0x0051ea0a      .byte 0x00
            0x0051ea0b      .byte 0x00
            0x0051ea0c      .byte 0x00
            0x0051ea0d      .byte 0x00
            0x0051ea0e      .byte 0x00
            0x0051ea0f      .byte 0x00
            0x0051ea10      .byte 0x00
            0x0051ea11      .byte 0x00
            0x0051ea12      .byte 0x00
            0x0051ea13      .byte 0x00
            0x0051ea14      .byte 0x00
            0x0051ea15      .byte 0x00
            0x0051ea16      .byte 0x00
            0x0051ea17      .byte 0x00
            0x0051ea18      .byte 0x00
            0x0051ea19      .byte 0x00
            0x0051ea1a      .byte 0x00
            0x0051ea1b      .byte 0x00
            0x0051ea1c      .byte 0x00
            0x0051ea1d      .byte 0x00
            0x0051ea1e      .byte 0x00
            0x0051ea1f      .byte 0x00
            0x0051ea20      .byte 0x00
            0x0051ea21      .byte 0x00
            0x0051ea22      .byte 0x00
            0x0051ea23      .byte 0x00
            0x0051ea24      .byte 0x00
            0x0051ea25      .byte 0x00
            0x0051ea26      .byte 0x00
            0x0051ea27      .byte 0x00
            0x0051ea28      .byte 0x00
            0x0051ea29      .byte 0x00
            0x0051ea2a      .byte 0x00
            0x0051ea2b      .byte 0x00
            0x0051ea2c      .byte 0x00
            0x0051ea2d      .byte 0x00
            0x0051ea2e      .byte 0x00
            0x0051ea2f      .byte 0x00
            0x0051ea30      .byte 0x00
            0x0051ea31      .byte 0x00
            0x0051ea32      .byte 0x00
            0x0051ea33      .byte 0x00
            0x0051ea34      .byte 0x00
            0x0051ea35      .byte 0x00
            0x0051ea36      .byte 0x00
            0x0051ea37      .byte 0x00
            0x0051ea38      .byte 0x00
            0x0051ea39      .byte 0x00
            0x0051ea3a      .byte 0x00
            0x0051ea3b      .byte 0x00
            0x0051ea3c      .byte 0x13
            0x0051ea3d      .byte 0x00
            0x0051ea3e      .byte 0x00
            0x0051ea3f      .byte 0x50
            0x0051ea40      .byte 0x00
            0x0051ea41      .byte 0x69
            0x0051ea42      .byte 0x32
            0x0051ea43      .byte 0x44
            0x0051ea44      .byte 0x00
            0x0051ea45      .byte 0x00
            0x0051ea46      .byte 0x13
            0x0051ea47      .byte 0x00
            0x0051ea48      .byte 0x00
            0x0051ea49      .byte 0x4b
            0x0051ea4a      .byte 0x00
            0x0051ea4b      .byte 0x71
            0x0051ea4c      .byte 0x32
            0x0051ea4d      .byte 0x44
            0x0051ea4e      .byte 0x00
            0x0051ea4f      .byte 0x00
            0x0051ea50      .byte 0x13
            0x0051ea51      .byte 0x00
            0x0051ea52      .byte 0x00
            0x0051ea53      .byte 0x50
            0x0051ea54      .byte 0x00
            0x0051ea55      .byte 0x89
            0x0051ea56      .byte 0x32
            0x0051ea57      .byte 0x44
            0x0051ea58      .byte 0x00
            0x0051ea59      .byte 0x00
            0x0051ea5a      .byte 0x13
            0x0051ea5b      .byte 0x00
            0x0051ea5c      .byte 0x00
            0x0051ea5d      .byte 0x4b
            0x0051ea5e      .byte 0x00
            0x0051ea5f      .byte 0x91
            0x0051ea60      .byte 0x32
            0x0051ea61      .byte 0x44
            0x0051ea62      .byte 0x00
            0x0051ea63      .byte 0x00
            0x0051ea64      .byte 0x13
            0x0051ea65      .byte 0x00
            0x0051ea66      .byte 0x00
            0x0051ea67      .byte 0x50
            0x0051ea68      .byte 0x00
            0x0051ea69      .byte 0xe9
            0x0051ea6a      .byte 0x32
            0x0051ea6b      .byte 0x44
            0x0051ea6c      .byte 0x00
            0x0051ea6d      .byte 0x00
            0x0051ea6e      .byte 0x13
            0x0051ea6f      .byte 0x00
            0x0051ea70      .byte 0x00
            0x0051ea71      .byte 0x4b
            0x0051ea72      .byte 0x00
            0x0051ea73      .byte 0xf1
            0x0051ea74      .byte 0x32
            0x0051ea75      .byte 0x44
            0x0051ea76      .byte 0x00
            0x0051ea77      .byte 0x00
            0x0051ea78      .byte 0x00
            0x0051ea79      .byte 0x00
            0x0051ea7a      .byte 0x00
            0x0051ea7b      .byte 0x00
            0x0051ea7c      .byte 0x00
            0x0051ea7d      .byte 0x00
            0x0051ea7e      .byte 0x00
            0x0051ea7f      .byte 0x00
            0x0051ea80      .byte 0x00
            0x0051ea81      .byte 0x00
            0x0051ea82      .byte 0x00
            0x0051ea83      .byte 0x00
            0x0051ea84      .byte 0x00
            0x0051ea85      .byte 0x00
            0x0051ea86      .byte 0x00
            0x0051ea87      .byte 0x00
            0x0051ea88      .byte 0x00
            0x0051ea89      .byte 0x00
            0x0051ea8a      .byte 0x00
            0x0051ea8b      .byte 0x00
            0x0051ea8c      .byte 0x00
            0x0051ea8d      .byte 0x00
            0x0051ea8e      .byte 0x00
            0x0051ea8f      .byte 0x00
            0x0051ea90      .byte 0x00
            0x0051ea91      .byte 0x00
            0x0051ea92      .byte 0x00
            0x0051ea93      .byte 0x00
            0x0051ea94      .byte 0x00
            0x0051ea95      .byte 0x00
            0x0051ea96      .byte 0x00
            0x0051ea97      .byte 0x06
            0x0051ea98      .byte 0x00
            0x0051ea99      .byte 0x74
            0x0051ea9a      .byte 0x00
            0x0051ea9b      .byte 0x95
            0x0051ea9c      .byte 0x3f
            0x0051ea9d      .byte 0x01
            0x0051ea9e      .byte 0x00
            0x0051ea9f      .byte 0x00
            0x0051eaa0      .byte 0x00
            0x0051eaa1      .byte 0x06
            0x0051eaa2      .byte 0x01
            0x0051eaa3      .byte 0x45
            0x0051eaa4      .byte 0x00
            0x0051eaa5      .byte 0x6d
            0x0051eaa6      .byte 0x13
            0x0051eaa7      .byte 0x90
            0x0051eaa8      .byte 0x00
            0x0051eaa9      .byte 0x00
            0x0051eaaa      .byte 0x00
            0x0051eaab      .byte 0x06
            0x0051eaac      .byte 0x01
            0x0051eaad      .byte 0x45
            0x0051eaae      .byte 0x00
            0x0051eaaf      .byte 0x75
            0x0051eab0      .byte 0x17
            0x0051eab1      .byte 0x91
            0x0051eab2      .byte 0x00
            0x0051eab3      .byte 0x00
            0x0051eab4      .byte 0x00
            0x0051eab5      .byte 0x06
            0x0051eab6      .byte 0x01
            0x0051eab7      .byte 0x45
            0x0051eab8      .byte 0x00
            0x0051eab9      .byte 0x4d
            0x0051eaba      .byte 0x13
            0x0051eabb      .byte 0x90
            0x0051eabc      .byte 0x00
            0x0051eabd      .byte 0x00
            0x0051eabe      .byte 0x00
            0x0051eabf      .byte 0x06
            0x0051eac0      .byte 0x01
            0x0051eac1      .byte 0x45
            0x0051eac2      .byte 0x00
            0x0051eac3      .byte 0x55
            0x0051eac4      .byte 0x17
            0x0051eac5      .byte 0x91
            0x0051eac6      .byte 0x00
            0x0051eac7      .byte 0x00
            0x0051eac8      .byte 0x00
            0x0051eac9      .byte 0x06
            0x0051eaca      .byte 0x01
            0x0051eacb      .byte 0x45
            0x0051eacc      .byte 0x00
            0x0051eacd      .byte 0x2d
            0x0051eace      .byte 0x13
            0x0051eacf      .byte 0x90
            0x0051ead0      .byte 0x00
            0x0051ead1      .byte 0x00
            0x0051ead2      .byte 0x00
            0x0051ead3      .byte 0x06
            0x0051ead4      .byte 0x01
            0x0051ead5      .byte 0x45
            0x0051ead6      .byte 0x00
            0x0051ead7      .byte 0x35
            0x0051ead8      .byte 0x17
            0x0051ead9      .byte 0x91
            0x0051eada      .byte 0x00
            0x0051eadb      .byte 0x00
            0x0051eadc      .byte 0x00
            0x0051eadd      .byte 0x06
            0x0051eade      .byte 0x01
            0x0051eadf      .byte 0x45
            0x0051eae0      .byte 0x00
            0x0051eae1      .byte 0x4d
            0x0051eae2      .byte 0x13
            0x0051eae3      .byte 0x10
            0x0051eae4      .byte 0x00
            0x0051eae5      .byte 0x00
            0x0051eae6      .byte 0x00
            0x0051eae7      .byte 0x06
            0x0051eae8      .byte 0x01
            0x0051eae9      .byte 0x45
            0x0051eaea      .byte 0x00
            0x0051eaeb      .byte 0x55
            0x0051eaec      .byte 0x17
            0x0051eaed      .byte 0x11
            0x0051eaee      .byte 0x00
            0x0051eaef      .byte 0x00
            0x0051eaf0      .byte 0x00
            0x0051eaf1      .byte 0x06
            0x0051eaf2      .byte 0x01
            0x0051eaf3      .byte 0x45
            0x0051eaf4      .byte 0x00
            0x0051eaf5      .byte 0x2d
            0x0051eaf6      .byte 0x13
            0x0051eaf7      .byte 0x10
            0x0051eaf8      .byte 0x00
            0x0051eaf9      .byte 0x00
            0x0051eafa      .byte 0x00
            0x0051eafb      .byte 0x06
            0x0051eafc      .byte 0x01
            0x0051eafd      .byte 0x45
            0x0051eafe      .byte 0x00
            0x0051eaff      .byte 0x35
            0x0051eb00      .byte 0x17
            0x0051eb01      .byte 0x11
            0x0051eb02      .byte 0x00
            0x0051eb03      .byte 0x00
            0x0051eb04      .byte 0x00
            0x0051eb05      .byte 0x06
            0x0051eb06      .byte 0x01
            0x0051eb07      .byte 0x45
            0x0051eb08      .byte 0x00
            0x0051eb09      .byte 0x75
            0x0051eb0a      .byte 0x17
            0x0051eb0b      .byte 0x61
            0x0051eb0c      .byte 0x00
            0x0051eb0d      .byte 0x00
            0x0051eb0e      .byte 0x00
            0x0051eb0f      .byte 0x06
            0x0051eb10      .byte 0x01
            0x0051eb11      .byte 0x45
            0x0051eb12      .byte 0x00
            0x0051eb13      .byte 0x55
            0x0051eb14      .byte 0x17
            0x0051eb15      .byte 0x61
            0x0051eb16      .byte 0x00
            0x0051eb17      .byte 0x00
            0x0051eb18      .byte 0x00
            0x0051eb19      .byte 0x06
            0x0051eb1a      .byte 0x01
            0x0051eb1b      .byte 0x45
            0x0051eb1c      .byte 0x00
            0x0051eb1d      .byte 0x35
            0x0051eb1e      .byte 0x17
            0x0051eb1f      .byte 0x61
            0x0051eb20      .byte 0x00
            0x0051eb21      .byte 0x00
            0x0051eb22      .byte 0x00
            0x0051eb23      .byte 0x06
            0x0051eb24      .byte 0x01
            0x0051eb25      .byte 0x45
            0x0051eb26      .byte 0x00
            0x0051eb27      .byte 0x75
            0x0051eb28      .byte 0x17
            0x0051eb29      .byte 0x41
            0x0051eb2a      .byte 0x00
            0x0051eb2b      .byte 0x00
            0x0051eb2c      .byte 0x00
            0x0051eb2d      .byte 0x06
            0x0051eb2e      .byte 0x01
            0x0051eb2f      .byte 0x45
            0x0051eb30      .byte 0x00
            0x0051eb31      .byte 0x55
            0x0051eb32      .byte 0x17
            0x0051eb33      .byte 0x41
            0x0051eb34      .byte 0x00
            0x0051eb35      .byte 0x00
            0x0051eb36      .byte 0x00
            0x0051eb37      .byte 0x06
            0x0051eb38      .byte 0x01
            0x0051eb39      .byte 0x45
            0x0051eb3a      .byte 0x00
            0x0051eb3b      .byte 0x35
            0x0051eb3c      .byte 0x17
            0x0051eb3d      .byte 0x41
            0x0051eb3e      .byte 0x00
            0x0051eb3f      .byte 0x00
            0x0051eb40      .byte 0x00
            0x0051eb41      .byte 0x06
            0x0051eb42      .byte 0x00
            0x0051eb43      .byte 0x54
            0x0051eb44      .byte 0x00
            0x0051eb45      .byte 0x75
            0x0051eb46      .byte 0x17
            0x0051eb47      .byte 0x21
            0x0051eb48      .byte 0x00
            0x0051eb49      .byte 0x00
            0x0051eb4a      .byte 0x55
            0x0051eb4b      .byte 0x05
            0x0051eb4c      .byte 0x00
            0x0051eb4d      .byte 0x00
            0x0051eb4e      .byte 0x00
            0x0051eb4f      .byte 0xef
            0x0051eb50      .byte 0x02
            0x0051eb51      .byte 0x44
            0x0051eb52      .byte 0x00
            0x0051eb53      .byte 0x00
            0x0051eb54      .byte 0x55
            0x0051eb55      .byte 0x05
            0x0051eb56      .byte 0x00
            0x0051eb57      .byte 0x00
            0x0051eb58      .byte 0x00
            0x0051eb59      .byte 0xf7
            0x0051eb5a      .byte 0x02
            0x0051eb5b      .byte 0x44
            0x0051eb5c      .byte 0x00
            0x0051eb5d      .byte 0x00
            0x0051eb5e      .byte 0x55
            0x0051eb5f      .byte 0x05
            0x0051eb60      .byte 0x00
            0x0051eb61      .byte 0x00
            0x0051eb62      .byte 0x00
            0x0051eb63      .byte 0x6f
            0x0051eb64      .byte 0x02
            0x0051eb65      .byte 0x44
            0x0051eb66      .byte 0x00
            0x0051eb67      .byte 0x00
            0x0051eb68      .byte 0x55
            0x0051eb69      .byte 0x05
            0x0051eb6a      .byte 0x00
            0x0051eb6b      .byte 0x00
            0x0051eb6c      .byte 0x00
            0x0051eb6d      .byte 0x77
            0x0051eb6e      .byte 0x02
            0x0051eb6f      .byte 0x44
            0x0051eb70      .byte 0x00
            0x0051eb71      .byte 0x00
            0x0051eb72      .byte 0x00
            0x0051eb73      .byte 0x05
            0x0051eb74      .byte 0x00
            0x0051eb75      .byte 0x4d
            0x0051eb76      .byte 0x00
            0x0051eb77      .byte 0x00
            0x0051eb78      .byte 0x00
            0x0051eb79      .byte 0x00
            0x0051eb7a      .byte 0x00
            0x0051eb7b      .byte 0x00
            0x0051eb7c      .byte 0x20
            0x0051eb7d      .byte 0x07
            0x0051eb7e      .byte 0x00
            0x0051eb7f      .byte 0x4d
            0x0051eb80      .byte 0x00
            0x0051eb81      .byte 0x05
            0x0051eb82      .byte 0x02
            0x0051eb83      .byte 0xcc
            0x0051eb84      .byte 0x00
            0x0051eb85      .byte 0x00
            0x0051eb86      .byte 0x20
            0x0051eb87      .byte 0x06
            0x0051eb88      .byte 0x00
            0x0051eb89      .byte 0x4d
            0x0051eb8a      .byte 0x00
            0x0051eb8b      .byte 0x35
            0x0051eb8c      .byte 0x36
            0x0051eb8d      .byte 0xef
            0x0051eb8e      .byte 0x00
            0x0051eb8f      .byte 0x00
            0x0051eb90      .byte 0x55
            0x0051eb91      .byte 0x05
            0x0051eb92      .byte 0x00
            0x0051eb93      .byte 0x00
            0x0051eb94      .byte 0x00
            0x0051eb95      .byte 0x8f
            0x0051eb96      .byte 0x02
            0x0051eb97      .byte 0x44
            0x0051eb98      .byte 0x00
            0x0051eb99      .byte 0x00
            0x0051eb9a      .byte 0x55
            0x0051eb9b      .byte 0x05
            0x0051eb9c      .byte 0x00
            0x0051eb9d      .byte 0x00
            0x0051eb9e      .byte 0x00
            0x0051eb9f      .byte 0x97
            0x0051eba0      .byte 0x02
            0x0051eba1      .byte 0x44
            0x0051eba2      .byte 0x00
            0x0051eba3      .byte 0x00
            0x0051eba4      .byte 0x00
            0x0051eba5      .byte 0x06
            0x0051eba6      .byte 0x00
            0x0051eba7      .byte 0x76
            0x0051eba8      .byte 0x00
            0x0051eba9      .byte 0x95
            0x0051ebaa      .byte 0x3a
            0x0051ebab      .byte 0x44
            0x0051ebac      .byte 0xe0
            0x0051ebad      .byte 0xa0
            0x0051ebae      .byte 0x00
            0x0051ebaf      .byte 0x00
            0x0051ebb0      .byte 0x00
            0x0051ebb1      .byte 0x00
            0x0051ebb2      .byte 0x00
            0x0051ebb3      .byte 0x00
            0x0051ebb4      .byte 0x00
            0x0051ebb5      .byte 0x00
            0x0051ebb6      .byte 0x00
            0x0051ebb7      .byte 0x00
            0x0051ebb8      .byte 0x00
            0x0051ebb9      .byte 0x00
            0x0051ebba      .byte 0x00
            0x0051ebbb      .byte 0x00
            0x0051ebbc      .byte 0x00
            0x0051ebbd      .byte 0x00
            0x0051ebbe      .byte 0x00
            0x0051ebbf      .byte 0x00
            0x0051ebc0      .byte 0x00
            0x0051ebc1      .byte 0x00
            0x0051ebc2      .byte 0x00
            0x0051ebc3      .byte 0x00
            0x0051ebc4      .byte 0x00
            0x0051ebc5      .byte 0x00
            0x0051ebc6      .byte 0x00
            0x0051ebc7      .byte 0x00
            0x0051ebc8      .byte 0x00
            0x0051ebc9      .byte 0x00
            0x0051ebca      .byte 0x00
            0x0051ebcb      .byte 0x00
            0x0051ebcc      .byte 0x06
            0x0051ebcd      .byte 0x00
            0x0051ebce      .byte 0x06
            0x0051ebcf      .byte 0x00
            0x0051ebd0      .byte 0x13
            0x0051ebd1     .string "b_dest_area problem" ; len=19
            0x0051ebe4      .byte 0x06
            0x0051ebe5     .string " xorg:" ; len=6
            0x0051ebeb      .byte 0x06
            0x0051ebec     .string " yorg:" ; len=6
            0x0051ebf2      .byte 0x06
            0x0051ebf3     .string " xlen:" ; len=6
            0x0051ebf9      .byte 0x06
            0x0051ebfa     .string " ylen:" ; len=6
            0x0051ec00      .byte 0x06
            0x0051ec01      .byte 0x00
            0x0051ec02      .byte 0x06
            0x0051ec03      .byte 0x00
            0x0051ec04      .byte 0x09
            0x0051ec05     .string "zero box " ; len=9
            0x0051ec0e      .byte 0x03
            0x0051ec0f      .byte 0x00
            0x0051ec10      .byte 0xf0
            0x0051ec11      .byte 0x03
            0x0051ec12      .byte 0xf0
            0x0051ec13      .byte 0x03
            0x0051ec14      .byte 0x06
            0x0051ec15      .byte 0x00
            0x0051ec16      .byte 0x00
            0x0051ec17      .byte 0x00
            0x0051ec18      .byte 0x00
            0x0051ec19      .byte 0x00
            0x0051ec1a      .byte 0x00
            0x0051ec1b      .byte 0x00
            0x0051ec1c      .byte 0x00
            0x0051ec1d      .byte 0x00
            0x0051ec1e      .byte 0x00
            0x0051ec1f      .byte 0x00
            0x0051ec20      .byte 0x00
            0x0051ec21      .byte 0x00
            0x0051ec22      .byte 0x00
            0x0051ec23      .byte 0x00
            0x0051ec24      .byte 0x00
            0x0051ec25      .byte 0x00
            0x0051ec26      .byte 0x00
            0x0051ec27      .byte 0x00
            0x0051ec28      .byte 0x00
            0x0051ec29      .byte 0x00
            0x0051ec2a      .byte 0x00
            0x0051ec2b      .byte 0x00
            0x0051ec2c      .byte 0x00
            0x0051ec2d      .byte 0x00
            0x0051ec2e      .byte 0x00
            0x0051ec2f      .byte 0x00
            0x0051ec30      .byte 0x00
            0x0051ec31      .byte 0x00
            0x0051ec32      .byte 0x00
            0x0051ec33      .byte 0x00
            0x0051ec34      .byte 0x1c
            0x0051ec35     .string "br_disk_live - not live_idle" ; len=28
            0x0051ec51      .byte 0x00
            0x0051ec52      .byte 0x01
            0x0051ec53      .byte 0x00
            0x0051ec54      .byte 0x05
            0x0051ec55      .byte 0x00
            0x0051ec56      .byte 0x09
            0x0051ec57      .byte 0x00
            0x0051ec58      .byte 0x04
            0x0051ec59      .byte 0x00
            0x0051ec5a      .byte 0x08
            0x0051ec5b      .byte 0x00
            0x0051ec5c     .string "&br_disk_live - unimplemented store_set&br_disk_live - timed out start of grab" ; len=78
            0x0051ecaa      .byte 0x00
            0x0051ecab      .byte 0x0a
            0x0051ecac      .byte 0x00
            0x0051ecad      .byte 0x00
            0x0051ecae      .byte 0x00
            0x0051ecaf      .byte 0x0a
            0x0051ecb0      .byte 0x00
            0x0051ecb1      .byte 0x00
            0x0051ecb2     .string " BRUSHCOM - br_live field timeout\"BRUSHCOM - br_freeze field timeout" ; len=68
            0x0051ecf6      .byte 0x00
            0x0051ecf7      .byte 0x00
            0x0051ecf8      .byte 0x00
            0x0051ecf9      .byte 0x00
            0x0051ecfa      .byte 0x00
            0x0051ecfb      .byte 0x00
            0x0051ecfc      .byte 0x00
            0x0051ecfd      .byte 0xff
            0x0051ecfe      .byte 0x00
            0x0051ecff      .byte 0xff
            0x0051ed00      .byte 0x00
            0x0051ed01      .byte 0xff
            0x0051ed02      .byte 0x0e
            0x0051ed03     .string "br_wipe store " ; len=14
            0x0051ed11      .byte 0x07
            0x0051ed12     .string "  area " ; len=7
            0x0051ed19      .byte 0x0f
            0x0051ed1a     .string "br_wipe problem" ; len=15
            0x0051ed29      .byte 0x17
            0x0051ed2a     .string "br_wipe_colour problem " ; len=23
            0x0051ed41      .byte 0x1e
            0x0051ed42     .string "br_pst_wipe - unimplemented - " ; len=30
            0x0051ed60      .byte 0x00
            0x0051ed61      .byte 0x08
            0x0051ed62      .byte 0x00
            0x0051ed63      .byte 0x00
            0x0051ed64     .string "!br_read_store not implemented yet" ; len=34
            0x0051ed86      .byte 0x1f
            0x0051ed87     .string "br_wr_store not implemented yet" ; len=31
            0x0051eda6      .byte 0x1f
            0x0051eda7     .string "br_wr_store not implemented yet" ; len=31
            0x0051edc6      .byte 0x1f
            0x0051edc7     .string "br_wr_store not implemented yet" ; len=31
            0x0051ede6      .byte 0x1f
            0x0051ede7     .string "br_wr_store not implemented yet" ; len=31
            0x0051ee06      .byte 0x16
            0x0051ee07     .string "str_write_area. store " ; len=22
            0x0051ee1d      .byte 0x07
            0x0051ee1e     .string "  area " ; len=7
            0x0051ee25      .byte 0x1b
            0x0051ee26     .string "Set_write_en  $pal_mix !!! " ; len=27
            0x0051ee41      .byte 0x23
            0x0051ee42     .string "br_write_prot store not implemented" ; len=35
            0x0051ee65      .byte 0x17
            0x0051ee66     .string "Str_any_str_copy error " ; len=23
            0x0051ee7d      .byte 0x04
            0x0051ee7e      .byte 0x20
            0x0051ee7f      .byte 0x74
            0x0051ee80      .byte 0x6f
            0x0051ee81      .byte 0x20
            0x0051ee82      .byte 0x06
            0x0051ee83      .byte 0x00
            0x0051ee84      .byte 0x19
            0x0051ee85     .string "str_any_str_copy problem " ; len=25
            0x0051ee9e      .byte 0x14
            0x0051ee9f     .string "br_plane_copy error " ; len=20
            0x0051eeb3      .byte 0x04
            0x0051eeb4      .byte 0x20
            0x0051eeb5      .byte 0x74
            0x0051eeb6      .byte 0x6f
            0x0051eeb7      .byte 0x20
            0x0051eeb8      .byte 0x1d
            0x0051eeb9     .string "Str_invert - unimplemented - " ; len=29
            0x0051eed6      .byte 0x1f
            0x0051eed7     .string "Br_any_stamp - unimplemented - " ; len=31
            0x0051eef6      .byte 0x08
            0x0051eef7     .string "use pic " ; len=8
            0x0051eeff      .byte 0x09
            0x0051ef00     .string "use sten " ; len=9
            0x0051ef09      .byte 0x09
            0x0051ef0a     .string "brushinv " ; len=9
            0x0051ef13      .byte 0x1f
            0x0051ef14     .string "Br_key_stamp - unimplemented - " ; len=31
            0x0051ef33      .byte 0x07
            0x0051ef34     .string "invert " ; len=7
            0x0051ef3b      .byte 0x15
            0x0051ef3c     .string "br_mix - not allowed " ; len=21
            0x0051ef51      .byte 0x04
            0x0051ef52      .byte 0x20
            0x0051ef53      .byte 0x74
            0x0051ef54      .byte 0x6f
            0x0051ef55      .byte 0x20
            0x0051ef56      .byte 0x02
            0x0051ef57      .byte 0x2c
            0x0051ef58      .byte 0x20
            0x0051ef59      .byte 0x1b
            0x0051ef5a     .string "Br_paste - unimplemented - " ; len=27
            0x0051ef75      .byte 0x07
            0x0051ef76     .string "invert " ; len=7
            0x0051ef7d      .byte 0x06
            0x0051ef7e     .string "matte " ; len=6
            0x0051ef84      .byte 0x10
            0x0051ef85     .string "br_paste problem" ; len=16
            0x0051ef95      .byte 0x21
            0x0051ef96     .string "br_pstkey_wipe - unimplemented - " ; len=33
            0x0051efb7      .byte 0x23
            0x0051efb8     .string "Br_special_paste - unimplemented - " ; len=35
            0x0051efdb      .byte 0x21
            0x0051efdc     .string "Set_sten_stamp - unimplemented - " ; len=33
            0x0051effd      .byte 0x07
            0x0051effe     .string "invert " ; len=7
            0x0051f005      .byte 0x06
            0x0051f006     .string "matte " ; len=6
            0x0051f00c      .byte 0x21
            0x0051f00d     .string "Set_stamp_mode - unimplemented - " ; len=33
            0x0051f02e      .byte 0x07
            0x0051f02f     .string "invert " ; len=7
            0x0051f036      .byte 0x06
            0x0051f037     .string "matte " ; len=6
            0x0051f03d      .byte 0x00
            0x0051f03e      .byte 0x0c
            0x0051f03f      .byte 0x00
            0x0051f040      .byte 0x00
            0x0051f041      .byte 0x00
            0x0051f042      .byte 0x00
            0x0051f043      .byte 0x00
            0x0051f044      .byte 0x00
            0x0051f045      .byte 0x00
            0x0051f046      .byte 0x00
            0x0051f047      .byte 0x00
            0x0051f048      .byte 0x00
            0x0051f049      .byte 0x00
            0x0051f04a      .byte 0x00
            0x0051f04b      .byte 0x00
            0x0051f04c      .byte 0x00
            0x0051f04d      .byte 0x00
            0x0051f04e      .byte 0x00
            0x0051f04f      .byte 0x00
            0x0051f050      .byte 0x00
            0x0051f051      .byte 0x00
            0x0051f052      .byte 0x00
            0x0051f053      .byte 0x00
            0x0051f054      .byte 0x00
            0x0051f055      .byte 0x00
            0x0051f056      .byte 0x00
            0x0051f057      .byte 0x00
            0x0051f058      .byte 0x00
            0x0051f059      .byte 0x00
            0x0051f05a      .byte 0x00
            0x0051f05b      .byte 0x00
            0x0051f05c      .byte 0x00
            0x0051f05d      .byte 0x00
            0x0051f05e      .byte 0x1e
            0x0051f05f      .byte 0x00
            0x0051f060      .byte 0x00
            0x0051f061      .byte 0x00
            0x0051f062      .byte 0x00
            0x0051f063      .byte 0x00
            0x0051f064      .byte 0x00
            0x0051f065      .byte 0x00
            0x0051f066      .byte 0x00
            0x0051f067      .byte 0x00
            0x0051f068      .byte 0x00
            0x0051f069      .byte 0x00
            0x0051f06a      .byte 0x00
            0x0051f06b      .byte 0x00
            0x0051f06c      .byte 0x00
            0x0051f06d      .byte 0x00
            0x0051f06e      .byte 0x00
            0x0051f06f      .byte 0x00
            0x0051f070      .byte 0x00
            0x0051f071      .byte 0x00
            0x0051f072      .byte 0x00
            0x0051f073      .byte 0x00
            0x0051f074      .byte 0x00
            0x0051f075      .byte 0x00
            0x0051f076      .byte 0x00
            0x0051f077      .byte 0x00
            0x0051f078      .byte 0x00
            0x0051f079      .byte 0x00
            0x0051f07a      .byte 0x00
            0x0051f07b      .byte 0x00
            0x0051f07c      .byte 0x00
            0x0051f07d      .byte 0x00
            0x0051f07e      .byte 0x1c
            0x0051f07f      .byte 0x00
            0x0051f080      .byte 0x00
            0x0051f081      .byte 0x00
            0x0051f082      .byte 0x00
            0x0051f083      .byte 0x00
            0x0051f084      .byte 0x00
            0x0051f085      .byte 0x00
            0x0051f086      .byte 0x00
            0x0051f087      .byte 0x00
            0x0051f088      .byte 0x00
            0x0051f089      .byte 0x00
            0x0051f08a      .byte 0x00
            0x0051f08b      .byte 0x00
            0x0051f08c      .byte 0x00
            0x0051f08d      .byte 0x00
            0x0051f08e      .byte 0x00
            0x0051f08f      .byte 0x00
            0x0051f090      .byte 0x00
            0x0051f091      .byte 0x00
            0x0051f092      .byte 0x00
            0x0051f093      .byte 0x00
            0x0051f094      .byte 0x00
            0x0051f095      .byte 0x00
            0x0051f096      .byte 0x00
            0x0051f097      .byte 0x00
            0x0051f098      .byte 0x00
            0x0051f099      .byte 0x00
            0x0051f09a      .byte 0x00
            0x0051f09b      .byte 0x00
            0x0051f09c      .byte 0x00
            0x0051f09d      .byte 0x00
            0x0051f09e      .byte 0x13
            0x0051f09f     .string "data_bus block full" ; len=19
            0x0051f0b2      .byte 0x0d
            0x0051f0b3     .string "data_bus full" ; len=13
            0x0051f0c0      .byte 0x0e
            0x0051f0c1     .string "Data_bus addr:" ; len=14
            0x0051f0cf      .byte 0x06
            0x0051f0d0     .string " data:" ; len=6
            0x0051f0d6      .byte 0x04
            0x0051f0d7      .byte 0x20
            0x0051f0d8      .byte 0x69
            0x0051f0d9      .byte 0x6e
            0x0051f0da      .byte 0x3a
            0x0051f0db      .byte 0x06
            0x0051f0dc     .string " took:" ; len=6
            0x0051f0e2      .byte 0x05
            0x0051f0e3     .string " max:" ; len=5
            0x0051f0e8      .byte 0x08
            0x0051f0e9     .string "        " ; len=8
            0x0051f0f1      .byte 0x08
            0x0051f0f2     .string "FIELDint" ; len=8
            0x0051f0fa      .byte 0x00
            0x0051f0fb      .byte 0x78
            0x0051f0fc      .byte 0x02
            0x0051f0fd      .byte 0xd8
            0x0051f0fe      .byte 0x01
            0x0051f0ff      .byte 0xf8
            0x0051f100      .byte 0x0b
            0x0051f101      .byte 0x60
            0x0051f102      .byte 0x01
            0x0051f103      .byte 0xf8
            0x0051f104      .byte 0x05
            0x0051f105      .byte 0xb0
            0x0051f106      .byte 0x07
            0x0051f107      .byte 0xf8
            0x0051f108      .byte 0x0b
            0x0051f109      .byte 0x60
            0x0051f10a      .byte 0x00
            0x0051f10b      .byte 0x00
            0x0051f10c      .byte 0x00
            0x0051f10d      .byte 0x00
            0x0051f10e      .byte 0x02
            0x0051f10f      .byte 0xd0
            0x0051f110      .byte 0x0b
            0x0051f111      .byte 0x60
            0x0051f112      .byte 0x00
            0x0051f113      .byte 0x00
            0x0051f114      .byte 0x00
            0x0051f115      .byte 0x00
            0x0051f116      .byte 0x05
            0x0051f117      .byte 0xa0
            0x0051f118      .byte 0x05
            0x0051f119      .byte 0xb0
            0x0051f11a      .byte 0x00
            0x0051f11b      .byte 0x00
            0x0051f11c      .byte 0x00
            0x0051f11d      .byte 0x00
            0x0051f11e      .byte 0x0b
            0x0051f11f      .byte 0x40
            0x0051f120      .byte 0x0b
            0x0051f121      .byte 0x60
            0x0051f122      .byte 0x00
            0x0051f123      .byte 0x00
            0x0051f124      .byte 0x00
            0x0051f125      .byte 0x00
            0x0051f126      .byte 0x00
            0x0051f127      .byte 0x00
            0x0051f128      .byte 0x00
            0x0051f129      .byte 0x00
            0x0051f12a      .byte 0x00
            0x0051f12b      .byte 0x00
            0x0051f12c      .byte 0x40
            0x0051f12d      .byte 0x01
            0x0051f12e      .byte 0x00
            0x0051f12f      .byte 0x00
            0x0051f130      .byte 0x40
            0x0051f131      .byte 0x01
            0x0051f132      .byte 0x00
            0x0051f133      .byte 0x00
            0x0051f134      .byte 0x00
            0x0051f135      .byte 0x00
            0x0051f136      .byte 0x00
            0x0051f137      .byte 0x00
            0x0051f138      .byte 0x00
            0x0051f139      .byte 0x00
            0x0051f13a      .byte 0x00
            0x0051f13b      .byte 0x00
            0x0051f13c      .byte 0x00
            0x0051f13d      .byte 0x00
            0x0051f13e      .byte 0x00
            0x0051f13f      .byte 0x00
            0x0051f140      .byte 0x00
            0x0051f141      .byte 0x00
            0x0051f142      .byte 0x08
            0x0051f143     .string "B_init: " ; len=8
            0x0051f14b      .byte 0x18
            0x0051f14c     .string "brush store unaffected, " ; len=24
            0x0051f164      .byte 0x1b
            0x0051f165     .string "brush store long and thin, " ; len=27
            0x0051f180      .byte 0x14
            0x0051f181     .string "brush store square, " ; len=20
            0x0051f195      .byte 0x17
            0x0051f196     .string "main store unaffected, " ; len=23
            0x0051f1ad      .byte 0x1a
            0x0051f1ae     .string "main store long and thin, " ; len=26
            0x0051f1c8      .byte 0x13
            0x0051f1c9     .string "main store square, " ; len=19
            0x0051f1dc      .byte 0x2b
            0x0051f1dd     .string "? 4M disk stores only set up in square mode" ; len=43
            0x0051f208      .byte 0x2b
            0x0051f209     .string "? 4M main stores only set up in square mode" ; len=43
            0x0051f234      .byte 0x1a
            0x0051f235     .string "16/4 meg main store fitted" ; len=26
            0x0051f24f      .byte 0x17
            0x0051f250     .string "4 meg main store fitted" ; len=23
            0x0051f267      .byte 0x17
            0x0051f268     .string "8 meg disk store fitted" ; len=23
            0x0051f27f      .byte 0x17
            0x0051f280      .byte 0x34
            0x0051f281      .byte 0x20
            0x0051f282      .byte 0x6d
            0x0051f283      .byte 0x65
            0x0051f284      .byte 0x67
            0x0051f285      .byte 0x20
            0x0051f286      .byte 0x64
            0x0051f287      .byte 0x69
            0x0051f288      .byte 0x73
            0x0051f289      .byte 0x6b
            0x0051f28a      .byte 0x20
            0x0051f28b      .byte 0x73
            0x0051f28c      .byte 0x74
            0x0051f28d      .byte 0x6f
            0x0051f28e      .byte 0x72
            0x0051f28f      .byte 0x65
            0x0051f290      .byte 0x20
            0x0051f291      .byte 0x66
            0x0051f292      .byte 0x69
            0x0051f293      .byte 0x74
            0x0051f294      .byte 0x74
            0x0051f295      .byte 0x65
            0x0051f296      .byte 0x64
            0x0051f297      .byte 0x69
            ; XREFS(156)
 76: BRUSHCOM.brush_wait ();
           0x0051f298      4e56fffc       link.w a6, 0xfffc
           0x0051f29c      48e7c100       movem.l d0-d1/d7, -(a7)
           0x0051f2a0      7201           moveq 0x1, d1
           0x0051f2a2      4a79fff9400e   tst.w 0xfff9400e
           0x0051f2a8      3039fff20000   move.w 0xfff20000, d0
           0x0051f2ae      c041           and.w d1, d0
       < 0x0051f2b0      662a           bne.b 0x51f2dc
      > 0x0051f2b2      554f           subq.w 0x2, a7
         0x0051f2b4      4eb900401d86   jsr p_Task_Priority
         0x0051f2ba      301f           move.w (a7)+, d0
         0x0051f2bc      48c0           ext.l d0
         0x0051f2be      2e00           move.l d0, d7
         0x0051f2c0      3f01           move.w d1, -(a7)
         0x0051f2c2      4eb900401db6   jsr p_Set_Priority
         0x0051f2c8      3e87           move.w d7, (a7)
         0x0051f2ca      4eb900401db6   jsr p_Set_Priority
         0x0051f2d0      544f           addq.w 0x2, a7
         0x0051f2d2      3039fff20000   move.w 0xfff20000, d0
         0x0051f2d8      c041           and.w d1, d0
      < 0x0051f2da      67d6           beq.b 0x51f2b2
       > 0x0051f2dc      4cdf0083       movem.l (a7)+, d0-d1/d7
           0x0051f2e0      4e5e           unlk a6
           0x0051f2e2      4e75           rts
            ; CALL XREF from MENU3DCOM.PAS.update_final @ 0x50db72
            ; CALL XREF from GRAPHICCOM.do_vert_method @ 0x73a392
            ; CALL XREF from GRAPHICCOM.do_horiz_method @ 0x73a4d2
 42: BRUSHCOM.b_brush_busy ();
           0x0051f2e4      4e560000       link.w a6, 0x0
           0x0051f2e8      48e78000       movem.l d0, -(a7)
           0x0051f2ec      4a79fff9400e   tst.w 0xfff9400e
           0x0051f2f2      422e0008       clr.b 0x8(a6)
           0x0051f2f6      3039fff20000   move.w 0xfff20000, d0
           0x0051f2fc      02400001       andi.w 0x1, d0
       < 0x0051f300      6604           bne.b 0x51f306
          0x0051f302      522e0008       addq.b 0x1, 0x8(a6)
       > 0x0051f306      4cdf0001       movem.l (a7)+, d0
           0x0051f30a      4e5e           unlk a6
           0x0051f30c      4e75           rts
            ; XREFS: CALL 0x005c2210  CALL 0x005c2a7e  CALL 0x005c2ae6  
            ; XREFS: CALL 0x0078cf58  CALL 0x0078cf86  CALL 0x0078cff6  
            ; XREFS: CALL 0x0078d282  CALL 0x0078d2b0  CALL 0x0078d320  
 42: BRUSHCOM.brush_hung ();
           0x0051f30e      4e560000       link.w a6, 0x0
           0x0051f312      48e78000       movem.l d0, -(a7)
           0x0051f316      4a79fff9400e   tst.w 0xfff9400e
           0x0051f31c      422e0008       clr.b 0x8(a6)
           0x0051f320      3039fff20000   move.w 0xfff20000, d0
           0x0051f326      02400001       andi.w 0x1, d0
       < 0x0051f32a      6604           bne.b 0x51f330
          0x0051f32c      522e0008       addq.b 0x1, 0x8(a6)
       > 0x0051f330      4cdf0001       movem.l (a7)+, d0
           0x0051f334      4e5e           unlk a6
           0x0051f336      4e75           rts
            ; XREFS: CALL 0x00520876  CALL 0x00520c94  CALL 0x00521652  
            ; XREFS: CALL 0x005247b8  CALL 0x005247d6  CALL 0x0064105e  
            ; XREFS: CALL 0x00641068  CALL 0x00641340  CALL 0x0064134a  
            ; XREFS: CALL 0x0073e81a  CALL 0x0073e840  CALL 0x0073e870  
            ; XREFS: CALL 0x0073e896  
 42: BRUSHCOM.b_control_state ();
           0x0051f338      4e560000       link.w a6, 0x0
           0x0051f33c      48e780c0       movem.l d0/a0-a1, -(a7)
           0x0051f340      700a           moveq 0xa, d0
           0x0051f342      c0ee0008       mulu.w 0x8(a6), d0
           0x0051f346      41faed88       lea.l 0x51e0d0(pc), a0
           0x0051f34a      43ee000a       lea.l 0xa(a6), a1
           0x0051f34e      41f00800       lea.l (a0, d0.l), a0
           0x0051f352      7009           moveq 0x9, d0
       > 0x0051f354      12d8           move.b (a0)+, (a1)+
       < 0x0051f356      51c8fffc       dbra d0, 0x51f354
           0x0051f35a      4cdf0301       movem.l (a7)+, d0/a0-a1
           0x0051f35e      4e5e           unlk a6
           0x0051f360      4e75           rts
            ; XREFS(45)
 142: BRUSHCOM.b_setup_control ();
           0x0051f362      4e56fff6       link.w a6, 0xfff6
           0x0051f366      48e7e0e0       movem.l d0-d2/a0-a2, -(a7)
           0x0051f36a      45eefffa       lea.l -0x6(a6), a2
           0x0051f36e      700a           moveq 0xa, d0
           0x0051f370      c0ee0008       mulu.w 0x8(a6), d0
           0x0051f374      41faed5a       lea.l 0x51e0d0(pc), a0
           0x0051f378      43eefff6       lea.l -0xa(a6), a1
           0x0051f37c      41f00800       lea.l (a0, d0.l), a0
           0x0051f380      7009           moveq 0x9, d0
       > 0x0051f382      12d8           move.b (a0)+, (a1)+
       < 0x0051f384      51c8fffc       dbra d0, 0x51f382
           0x0051f388      4a390083e789   tst.b 0x83e789
       < 0x0051f38e      670c           beq.b 0x51f39c
          0x0051f390      4280           clr.l d0
          0x0051f392      3012           move.w (a2), d0
          0x0051f394      008000000002   ori.l 0x2, d0
          0x0051f39a      3480           move.w d0, (a2)
       > 0x0051f39c      33eefffcfff8.  move.w -0x4(a6), 0xfff84002.l
           0x0051f3a4      33eefffefff8.  move.w -0x2(a6), 0xfff84004.l
           0x0051f3ac      33eefff8fff8.  move.w -0x8(a6), 0xfff80002.l
           0x0051f3b4      33d2fff80004   move.w (a2), 0xfff80004
           0x0051f3ba      7000           moveq 0x0, d0
           0x0051f3bc      4281           clr.l d1
           0x0051f3be      322efff8       move.w -0x8(a6), d1
           0x0051f3c2      028100000007   andi.l 0x7, d1
           0x0051f3c8      41faf7e2       lea.l 0x51ebac(pc), a0
           0x0051f3cc      3401           move.w d1, d2
           0x0051f3ce      e64a           lsr.w 0x3, d2
           0x0051f3d0      0c420020       cmpi.w 0x20, d2
       < 0x0051f3d4      6d04           blt.b 0x51f3da
          0x0051f3d6      7400           moveq 0x0, d2
      < 0x0051f3d8      6004           bra.b 0x51f3de
      > 0x0051f3da      03302000       btst.l d1, (a0, d2.w)
          ; CODE XREF from BRUSHCOM.b_setup_control @ 0x51f3d8
      < 0x0051f3de      6702           beq.b 0x51f3e2
          0x0051f3e0      5200           addq.b 0x1, d0
       > 0x0051f3e2      13c00083e788   move.b d0, 0x83e788
           0x0051f3e8      4cdf0707       movem.l (a7)+, d0-d2/a0-a2
           0x0051f3ec      4e5e           unlk a6
           0x0051f3ee      4e75           rts
            ; XREFS: CALL 0x0050aa6e  CALL 0x0063dafe  CALL 0x0063dc3e  
            ; XREFS: CALL 0x0063dc9c  CALL 0x0063e200  CALL 0x0078c164  
            ; XREFS: CALL 0x007953f6  CALL 0x007956e6  CALL 0x0079574e  
 16: BRUSHCOM.b_pressure ();
           0x0051f3f0      4e560000       link.w a6, 0x0
           0x0051f3f4      33ee0008fff8.  move.w 0x8(a6), 0xfff8000c.l
           0x0051f3fc      4e5e           unlk a6
           0x0051f3fe      4e75           rts
            ; CALL XREF from MENUPAINTCOM.finish_painting @ 0x4af396
            ; CALL XREF from MENUPAINTCOM.setup_painting @ 0x4af932
            ; CALL XREF from MENUGRAPHICCOM.enter_graphics @ 0x734d1e
 28: BRUSHCOM.b_dynamic_round ();
           0x0051f400      4e560000       link.w a6, 0x0
           0x0051f404      554f           subq.w 0x2, a7
           0x0051f406      4eb900523ca0   jsr BRUSHCOM.b_8m_disk_store
           0x0051f40c      4a1f           tst.b (a7)+
       < 0x0051f40e      6708           beq.b 0x51f418
          0x0051f410      13ee00080083.  move.b 0x8(a6), 0x83e789.l
       > 0x0051f418      4e5e           unlk a6
           0x0051f41a      4e75           rts
            ; XREFS: CALL 0x005184b4  CALL 0x005186da  CALL 0x0051f4ea  
            ; XREFS: CALL 0x0051f7dc  CALL 0x0051f938  CALL 0x0051f9c2  
            ; XREFS: CALL 0x00520928  CALL 0x00522694  CALL 0x005226a2  
 162: BRUSHCOM.b_ms_ram_bank_s ();
           0x0051f41c      4e56fffe       link.w a6, 0xfffe
           0x0051f420      48e7e1c0       movem.l d0-d2/d7/a0-a1, -(a7)
           0x0051f424      43f90083e78a   lea.l 0x83e78a, a1
           0x0051f42a      243c0000ffff   move.l 0xffff, d2
           0x0051f430      206e0008       movea.l 0x8(a6), a0
           0x0051f434      3010           move.w (a0), d0
           0x0051f436      b07aec82       cmp.w 0x51e0ba(pc), d0
       < 0x0051f43a      6e04           bgt.b 0x51f440
          0x0051f43c      7e00           moveq 0x0, d7
      < 0x0051f43e      6012           bra.b 0x51f452
      > 0x0051f440      48c0           ext.l d0
          0x0051f442      323aec76       move.w 0x51e0ba(pc), d1
          0x0051f446      48c1           ext.l d1
          0x0051f448      4481           neg.l d1
          0x0051f44a      d280           add.l d0, d1
          0x0051f44c      5381           subq.l 0x1, d1
          0x0051f44e      3081           move.w d1, (a0)
          0x0051f450      7e01           moveq 0x1, d7
          ; CODE XREF from BRUSHCOM.b_ms_ram_bank_s @ 0x51f43e
      > 0x0051f452      206e000c       movea.l 0xc(a6), a0
           0x0051f456      3010           move.w (a0), d0
           0x0051f458      b07aec5e       cmp.w 0x51e0b8(pc), d0
       < 0x0051f45c      6d12           blt.b 0x51f470
          0x0051f45e      48c0           ext.l d0
          0x0051f460      323aec56       move.w 0x51e0b8(pc), d1
          0x0051f464      48c1           ext.l d1
          0x0051f466      4481           neg.l d1
          0x0051f468      d280           add.l d0, d1
          0x0051f46a      3081           move.w d1, (a0)
          0x0051f46c      ce82           and.l d2, d7
          0x0051f46e      5487           addq.l 0x2, d7
       > 0x0051f470      102e0010       move.b 0x10(a6), d0
           0x0051f474      0c000001       cmpi.b 0x1, d0
       < 0x0051f478      6616           bne.b 0x51f490
          0x0051f47a      3011           move.w (a1), d0
          0x0051f47c      c082           and.l d2, d0
          0x0051f47e      02800000fff3   andi.l 0xfff3, d0
          0x0051f484      ce82           and.l d2, d7
          0x0051f486      2207           move.l d7, d1
          0x0051f488      e581           asl.l 0x2, d1
          0x0051f48a      d280           add.l d0, d1
          0x0051f48c      3281           move.w d1, (a1)
      < 0x0051f48e      6020           bra.b 0x51f4b0
      > 0x0051f490      3011           move.w (a1), d0
          0x0051f492      c082           and.l d2, d0
          0x0051f494      02800000fffc   andi.l 0xfffc, d0
          0x0051f49a      ce82           and.l d2, d7
          0x0051f49c      d087           add.l d7, d0
          0x0051f49e      3280           move.w d0, (a1)
          0x0051f4a0      c082           and.l d2, d0
          0x0051f4a2      02800000ffcf   andi.l 0xffcf, d0
          0x0051f4a8      2207           move.l d7, d1
          0x0051f4aa      e981           asl.l 0x4, d1
          0x0051f4ac      d280           add.l d0, d1
          0x0051f4ae      3281           move.w d1, (a1)
          ; CODE XREF from BRUSHCOM.b_ms_ram_bank_s @ 0x51f48e
      > 0x0051f4b0      33d1fff84018   move.w (a1), 0xfff84018
           0x0051f4b6      4cdf0387       movem.l (a7)+, d0-d2/d7/a0-a1
           0x0051f4ba      4e5e           unlk a6
           0x0051f4bc      4e75           rts
            ; CALL XREFS from BRUSHCOM.br_disk_live @ 0x5208c0, 0x5208fc
            ; CALL XREFS from BRUSHCOM.br_vstd_live @ 0x520dde, 0x520e42
            ; CALL XREF from BRUSHCOM.str_write_area @ 0x522410
 110: BRUSHCOM.b_crop_area ();
           0x0051f4be      4e56fffc       link.w a6, 0xfffc
           0x0051f4c2      48e7fbe0       movem.l d0-d4/d6-d7/a0-a2, -(a7)
           0x0051f4c6      43ee000a       lea.l 0xa(a6), a1
           0x0051f4ca      45ee0008       lea.l 0x8(a6), a2
           0x0051f4ce      7801           moveq 0x1, d4
           0x0051f4d0      102e0010       move.b 0x10(a6), d0
           0x0051f4d4      4880           ext.w d0
           0x0051f4d6      41faf6f4       lea.l 0x51ebcc(pc), a0
           0x0051f4da      3200           move.w d0, d1
           0x0051f4dc      e649           lsr.w 0x3, d1
           0x0051f4de      01301000       btst.l d0, (a0, d1.w)
       < 0x0051f4e2      670e           beq.b 0x51f4f2
          0x0051f4e4      1f04           move.b d4, -(a7)
          0x0051f4e6      4852           pea.l (a2)
          0x0051f4e8      4851           pea.l (a1)
          0x0051f4ea      4ebaff30       jsr BRUSHCOM.b_ms_ram_bank_s(pc)
          0x0051f4ee      defc000a       adda.w 0xa, a7
       > 0x0051f4f2      3212           move.w (a2), d1
           0x0051f4f4      48c1           ext.l d1
           0x0051f4f6      342e000c       move.w 0xc(a6), d2
           0x0051f4fa      48c2           ext.l d2
           0x0051f4fc      d481           add.l d1, d2
           0x0051f4fe      5382           subq.l 0x1, d2
           0x0051f500      3e02           move.w d2, d7
           0x0051f502      3411           move.w (a1), d2
           0x0051f504      48c2           ext.l d2
           0x0051f506      362e000e       move.w 0xe(a6), d3
           0x0051f50a      48c3           ext.l d3
           0x0051f50c      d682           add.l d2, d3
           0x0051f50e      5383           subq.l 0x1, d3
           0x0051f510      3c03           move.w d3, d6
           0x0051f512      0c400008       cmpi.w 0x8, d0
       < 0x0051f516      620000c2       bhi.w 0x51f5da
          0x0051f51a      d040           add.w d0, d0
          0x0051f51c      303b0006       move.w 0x51f524(pc, d0.w), d0
          0x0051f520      4efb0002       jmp 0x51f524(pc, d0.w)
           0x0051f524      00620048       ori.w 0x48, -(a2)
           0x0051f528      0012002e       ori.b 0x2e, (a2)
           0x0051f52c      00b600b600b6.  ori.l 0xb600b6, -0x4a(a6, d0.w)
           0x0051f534      009e33c1fff8   ori.l 0x33c1fff8, (a6)+
           0x0051f53a      4064           negx.w -(a4)
           0x0051f53c      33c7fff84066   move.w d7, 0xfff84066
           0x0051f542      33c2fff84068   move.w d2, 0xfff84068
           0x0051f548      33c6fff8406a   move.w d6, 0xfff8406a
       < 0x0051f54e      6000008a       bra.w 0x51f5da              ; BRUSHCOM.b_crop_area+0x11c
          0x0051f552      33c1fff840a4   move.w d1, 0xfff840a4
          0x0051f558      33c7fff840a6   move.w d7, 0xfff840a6
          0x0051f55e      33c2fff840a8   move.w d2, 0xfff840a8
          0x0051f564      33c6fff840aa   move.w d6, 0xfff840aa
      < 0x0051f56a      606e           bra.b 0x51f5da              ; BRUSHCOM.b_crop_area+0x11c
         0x0051f56c      33c1fff840e4   move.w d1, 0xfff840e4
         0x0051f572      33c7fff840e6   move.w d7, 0xfff840e6
         0x0051f578      33c2fff840e8   move.w d2, 0xfff840e8
         0x0051f57e      33c6fff840ea   move.w d6, 0xfff840ea
     < 0x0051f584      6054           bra.b 0x51f5da              ; BRUSHCOM.b_crop_area+0x11c
        0x0051f586      b47aeb32       cmp.w 0x51e0ba(pc), d2
    < 0x0051f58a      6e08           bgt.b 0x51f594
       0x0051f58c      4279fff80010   clr.w 0xfff80010
   < 0x0051f592      6014           bra.b 0x51f5a8
   > 0x0051f594      303aeb24       move.w 0x51e0ba(pc), d0
       0x0051f598      48c0           ext.l d0
       0x0051f59a      4480           neg.l d0
       0x0051f59c      d082           add.l d2, d0
       0x0051f59e      5380           subq.l 0x1, d0
       0x0051f5a0      3280           move.w d0, (a1)
       0x0051f5a2      33c4fff80010   move.w d4, 0xfff80010
   > 0x0051f5a8      33d2fff80064   move.w (a2), 0xfff80064
        0x0051f5ae      33c7fff80066   move.w d7, 0xfff80066
        0x0051f5b4      33d1fff80068   move.w (a1), 0xfff80068
        0x0051f5ba      33c6fff8006a   move.w d6, 0xfff8006a
    < 0x0051f5c0      6018           bra.b 0x51f5da              ; BRUSHCOM.b_crop_area+0x11c
       0x0051f5c2      33c1fff8a064   move.w d1, 0xfff8a064
       0x0051f5c8      33c7fff8a066   move.w d7, 0xfff8a066
       0x0051f5ce      33c2fff8a068   move.w d2, 0xfff8a068
       0x0051f5d4      33c6fff8a06a   move.w d6, 0xfff8a06a
   > 0x0051f5da      4cdf07df       movem.l (a7)+, d0-d4/d6-d7/a0-a2
           0x0051f5de      4e5e           unlk a6
           0x0051f5e0      4e75           rts
 76: BRUSHCOM.b_disk_org ();
           0x0051f5e2      4e560000       link.w a6, 0x0
           0x0051f5e6      48e7c000       movem.l d0-d1, -(a7)
           0x0051f5ea      33ee0008fff8.  move.w 0x8(a6), 0xfff80070.l
           0x0051f5f2      302e000a       move.w 0xa(a6), d0
           0x0051f5f6      b07aeac2       cmp.w 0x51e0ba(pc), d0
       < 0x0051f5fa      6f1e           ble.b 0x51f61a
          0x0051f5fc      48c0           ext.l d0
          0x0051f5fe      323aeaba       move.w 0x51e0ba(pc), d1
          0x0051f602      48c1           ext.l d1
          0x0051f604      4481           neg.l d1
          0x0051f606      d280           add.l d0, d1
          0x0051f608      5381           subq.l 0x1, d1
          0x0051f60a      33c1fff80072   move.w d1, 0xfff80072
          0x0051f610      33fc0001fff8.  move.w 0x1, 0xfff80010.l
      < 0x0051f618      600c           bra.b 0x51f626
      > 0x0051f61a      33c0fff80072   move.w d0, 0xfff80072
          0x0051f620      4279fff80010   clr.w 0xfff80010
          ; CODE XREF from BRUSHCOM.b_disk_org @ 0x51f618
      > 0x0051f626      4cdf0003       movem.l (a7)+, d0-d1
           0x0051f62a      4e5e           unlk a6
           0x0051f62c      4e75           rts
 78: BRUSHCOM.b_main_org_len ();
           0x0051f62e      4e560000       link.w a6, 0x0
           0x0051f632      48e7c000       movem.l d0-d1, -(a7)
           0x0051f636      33ee000cfff8.  move.w 0xc(a6), 0xfff840f0.l
           0x0051f63e      33ee000efff8.  move.w 0xe(a6), 0xfff840f2.l
           0x0051f646      302e000c       move.w 0xc(a6), d0
           0x0051f64a      02400007       andi.w 0x7, d0
           0x0051f64e      33c0fff80040   move.w d0, 0xfff80040
           0x0051f654      48c0           ext.l d0
           0x0051f656      322e0008       move.w 0x8(a6), d1
           0x0051f65a      48c1           ext.l d1
           0x0051f65c      d280           add.l d0, d1
           0x0051f65e      5381           subq.l 0x1, d1
           0x0051f660      33c1fff80044   move.w d1, 0xfff80044
           0x0051f666      302e000a       move.w 0xa(a6), d0
           0x0051f66a      48c0           ext.l d0
           0x0051f66c      5380           subq.l 0x1, d0
           0x0051f66e      33c0fff80046   move.w d0, 0xfff80046
           0x0051f674      4cdf0003       movem.l (a7)+, d0-d1
           0x0051f678      4e5e           unlk a6
           0x0051f67a      4e75           rts
            ; XREFS: CALL 0x0050aa86  CALL 0x0050b16a  CALL 0x0051f78e  
            ; XREFS: CALL 0x0051f970  CALL 0x00522a8c  CALL 0x00522bc8  
            ; XREFS: CALL 0x00522ff8  CALL 0x00523188  CALL 0x0052330e  
            ; XREFS: CALL 0x0052364c  CALL 0x005237c4  CALL 0x0052aca2  
            ; XREFS: CALL 0x0052ad86  CALL 0x00794d56  CALL 0x00794db2  
            ; XREFS: CALL 0x00794e84  CALL 0x00794ede  CALL 0x007956f2  
            ; XREFS: CALL 0x0079575a  
 42: BRUSHCOM.b_source_pos ();
           0x0051f67c      4e560000       link.w a6, 0x0
           0x0051f680      48e7e0c0       movem.l d0-d2/a0-a1, -(a7)
           0x0051f684      41ee000a       lea.l 0xa(a6), a0
           0x0051f688      43ee0008       lea.l 0x8(a6), a1
           0x0051f68c      740a           moveq 0xa, d2
           0x0051f68e      102e000c       move.b 0xc(a6), d0
           0x0051f692      4880           ext.w d0
           0x0051f694      0c400003       cmpi.w 0x3, d0
       < 0x0051f698      6200008a       bhi.w 0x51f724
          0x0051f69c      d040           add.w d0, d0
          0x0051f69e      303b0006       move.w 0x51f6a6(pc, d0.w), d0
          0x0051f6a2      4efb0002       jmp 0x51f6a6(pc, d0.w)
           0x0051f6a6      004a0030       
           0x0051f6a7      4a00           tst.b d0
           0x0051f6a9      3000           move.w d0, d0
           0x0051f6ab      08002242       
           0x0051f6ac      00224227       ori.b 0x27, -(a2)
           0x0051f6b0      4851           pea.l (a1)
           0x0051f6b2      4850           pea.l (a0)
           0x0051f6b4      4ebafd66       jsr BRUSHCOM.b_ms_ram_bank_s(pc)
           0x0051f6b8      dec2           adda.w d2, a7
           0x0051f6ba      33d1fff84070   move.w (a1), 0xfff84070
           0x0051f6c0      33d0fff84072   move.w (a0), 0xfff84072
       < 0x0051f6c6      605c           bra.b 0x51f724
          0x0051f6c8      33d1fff840b0   move.w (a1), 0xfff840b0
          0x0051f6ce      33d0fff840b2   move.w (a0), 0xfff840b2
      < 0x0051f6d4      604e           bra.b 0x51f724
         0x0051f6d6      4227           clr.b -(a7)
         0x0051f6d8      4851           pea.l (a1)
         0x0051f6da      4850           pea.l (a0)
         0x0051f6dc      4ebafd3e       jsr BRUSHCOM.b_ms_ram_bank_s(pc)
         0x0051f6e0      dec2           adda.w d2, a7
         0x0051f6e2      33d1fff840f0   move.w (a1), 0xfff840f0
         0x0051f6e8      33d0fff840f2   move.w (a0), 0xfff840f2
     < 0x0051f6ee      6034           bra.b 0x51f724
        0x0051f6f0      3010           move.w (a0), d0
        0x0051f6f2      b07ae9c6       cmp.w 0x51e0ba(pc), d0
    < 0x0051f6f6      6e08           bgt.b 0x51f700
       0x0051f6f8      4279fff80010   clr.w 0xfff80010
   < 0x0051f6fe      6018           bra.b 0x51f718
   > 0x0051f700      48c0           ext.l d0
       0x0051f702      323ae9b6       move.w 0x51e0ba(pc), d1
       0x0051f706      48c1           ext.l d1
       0x0051f708      4481           neg.l d1
       0x0051f70a      d280           add.l d0, d1
       0x0051f70c      5381           subq.l 0x1, d1
       0x0051f70e      3081           move.w d1, (a0)
       0x0051f710      33fc0001fff8.  move.w 0x1, 0xfff80010.l
   > 0x0051f718      33d1fff80070   move.w (a1), 0xfff80070
        0x0051f71e      33d0fff80072   move.w (a0), 0xfff80072
     > 0x0051f724      4cdf0307       movem.l (a7)+, d0-d2/a0-a1
            0x0051f728      4e5e           unlk a6
            0x0051f72a      4e75           rts
            ; XREFS: CALL 0x0050aa94  CALL 0x0078ce66  CALL 0x0078d24e  
            ; XREFS: CALL 0x00794dcc  CALL 0x00794ef4  CALL 0x0079570c  
            ; XREFS: CALL 0x00795774  
 250: BRUSHCOM.b_dest_pos ();
           0x0051f72c      4e56fffa       link.w a6, 0xfffa
           0x0051f730      48e7e1f8       movem.l d0-d2/d7/a0-a4, -(a7)
           0x0051f734      43f90083e78c   lea.l 0x83e78c, a1
           0x0051f73a      45ee0008       lea.l 0x8(a6), a2
           0x0051f73e      47ee000a       lea.l 0xa(a6), a3
           0x0051f742      49ee000c       lea.l 0xc(a6), a4
           0x0051f746      7401           moveq 0x1, d2
           0x0051f748      4a390083e788   tst.b 0x83e788
       < 0x0051f74e      6748           beq.b 0x51f798
          0x0051f750      4a14           tst.b (a4)
      < 0x0051f752      6606           bne.b 0x51f75a
         0x0051f754      3011           move.w (a1), d0
         0x0051f756      48c0           ext.l d0
     < 0x0051f758      6018           bra.b 0x51f772
     > 0x0051f75a      3e12           move.w (a2), d7
         0x0051f75c      02470007       andi.w 0x7, d7
         0x0051f760      33c7fff80040   move.w d7, 0xfff80040
         0x0051f766      3011           move.w (a1), d0
         0x0051f768      48c0           ext.l d0
         0x0051f76a      02870000ffff   andi.l 0xffff, d7
         0x0051f770      d087           add.l d7, d0
         ; CODE XREF from BRUSHCOM.b_dest_pos @ 0x51f758
     > 0x0051f772      5380           subq.l 0x1, d0
          0x0051f774      33c0fff80044   move.w d0, 0xfff80044
          0x0051f77a      30390083e78e   move.w 0x83e78e, d0
          0x0051f780      48c0           ext.l d0
          0x0051f782      5380           subq.l 0x1, d0
          0x0051f784      33c0fff80046   move.w d0, 0xfff80046
          0x0051f78a      1f14           move.b (a4), -(a7)
          0x0051f78c      2f12           move.l (a2), -(a7)
          0x0051f78e      4ebafeec       jsr BRUSHCOM.b_source_pos(pc)
          0x0051f792      5c4f           addq.w 0x6, a7
      < 0x0051f794      60000088       bra.w 0x51f81e
      > 0x0051f798      4a14           tst.b (a4)
      < 0x0051f79a      6628           bne.b 0x51f7c4
         0x0051f79c      3013           move.w (a3), d0
         0x0051f79e      b07ae91a       cmp.w 0x51e0ba(pc), d0
     < 0x0051f7a2      6e08           bgt.b 0x51f7ac
        0x0051f7a4      4279fff80010   clr.w 0xfff80010
    < 0x0051f7aa      6038           bra.b 0x51f7e4
    > 0x0051f7ac      48c0           ext.l d0
        0x0051f7ae      323ae90a       move.w 0x51e0ba(pc), d1
        0x0051f7b2      48c1           ext.l d1
        0x0051f7b4      4481           neg.l d1
        0x0051f7b6      d280           add.l d0, d1
        0x0051f7b8      5381           subq.l 0x1, d1
        0x0051f7ba      3681           move.w d1, (a3)
        0x0051f7bc      33c2fff80010   move.w d2, 0xfff80010
    < 0x0051f7c2      6020           bra.b 0x51f7e4
    > 0x0051f7c4      1014           move.b (a4), d0
        0x0051f7c6      4880           ext.w d0
        0x0051f7c8      41faf404       lea.l 0x51ebce(pc), a0
        0x0051f7cc      3200           move.w d0, d1
        0x0051f7ce      e649           lsr.w 0x3, d1
        0x0051f7d0      01301000       btst.l d0, (a0, d1.w)
    < 0x0051f7d4      670e           beq.b 0x51f7e4
       0x0051f7d6      1f02           move.b d2, -(a7)
       0x0051f7d8      4852           pea.l (a2)
       0x0051f7da      4853           pea.l (a3)
       0x0051f7dc      4ebafc3e       jsr BRUSHCOM.b_ms_ram_bank_s(pc)
       0x0051f7e0      defc000a       adda.w 0xa, a7
       ; CODE XREFS from BRUSHCOM.b_dest_pos @ 0x51f7aa, 0x51f7c2
    > 0x0051f7e4      4279fff80040   clr.w 0xfff80040
          0x0051f7ea      3011           move.w (a1), d0
          0x0051f7ec      48c0           ext.l d0
          0x0051f7ee      5380           subq.l 0x1, d0
          0x0051f7f0      33c0fff80044   move.w d0, 0xfff80044
          0x0051f7f6      30390083e78e   move.w 0x83e78e, d0
          0x0051f7fc      48c0           ext.l d0
          0x0051f7fe      5380           subq.l 0x1, d0
          0x0051f800      33c0fff80046   move.w d0, 0xfff80046
          0x0051f806      33d2fff840f0   move.w (a2), 0xfff840f0
          0x0051f80c      33d3fff840f2   move.w (a3), 0xfff840f2
          0x0051f812      33d2fff80070   move.w (a2), 0xfff80070
          0x0051f818      33d3fff80072   move.w (a3), 0xfff80072
          ; CODE XREF from BRUSHCOM.b_dest_pos @ 0x51f794
      > 0x0051f81e      4cdf1f87       movem.l (a7)+, d0-d2/d7/a0-a4
           0x0051f822      4e5e           unlk a6
           0x0051f824      4e75           rts
            ; XREFS(23)
 480: BRUSHCOM.b_dest_area ();
           0x0051f826      4e56fffa       link.w a6, 0xfffa
           0x0051f82a      48e7f9f8       movem.l d0-d4/d7/a0-a4, -(a7)
           0x0051f82e      43ee000a       lea.l 0xa(a6), a1
           0x0051f832      45ee0008       lea.l 0x8(a6), a2
           0x0051f836      47ee000c       lea.l 0xc(a6), a3
           0x0051f83a      49ee000e       lea.l 0xe(a6), a4
           0x0051f83e      740c           moveq 0xc, d2
           0x0051f840      7601           moveq 0x1, d3
           0x0051f842      780a           moveq 0xa, d4
           0x0051f844      4a53           tst.w (a3)
       < 0x0051f846      6f06           ble.b 0x51f84e
          0x0051f848      4a54           tst.w (a4)
      < 0x0051f84a      6e0000b6       bgt.w 0x51f902
      > 0x0051f84e      487af381       pea.l 0x51ebd1(pc)
          0x0051f852      48780013       pea.l 0x13
          0x0051f856      2f17           move.l (a7), -(a7)
          0x0051f858      4eb9004047ea   jsr p_wts_o
          0x0051f85e      dec2           adda.w d2, a7
          0x0051f860      487af383       pea.l 0x51ebe5(pc)
          0x0051f864      48780006       pea.l 0x6
          0x0051f868      2f17           move.l (a7), -(a7)
          0x0051f86a      4eb9004047ea   jsr p_wts_o
          0x0051f870      dec2           adda.w d2, a7
          0x0051f872      3012           move.w (a2), d0
          0x0051f874      48c0           ext.l d0
          0x0051f876      2f00           move.l d0, -(a7)
          0x0051f878      48780000       pea.l 0x0
          0x0051f87c      4eb9004070e4   jsr p_wti_o
          0x0051f882      504f           addq.w 0x8, a7
          0x0051f884      487af366       pea.l 0x51ebec(pc)
          0x0051f888      48780006       pea.l 0x6
          0x0051f88c      2f17           move.l (a7), -(a7)
          0x0051f88e      4eb9004047ea   jsr p_wts_o
          0x0051f894      dec2           adda.w d2, a7
          0x0051f896      3011           move.w (a1), d0
          0x0051f898      48c0           ext.l d0
          0x0051f89a      2f00           move.l d0, -(a7)
          0x0051f89c      48780000       pea.l 0x0
          0x0051f8a0      4eb9004070e4   jsr p_wti_o
          0x0051f8a6      504f           addq.w 0x8, a7
          0x0051f8a8      487af349       pea.l 0x51ebf3(pc)
          0x0051f8ac      48780006       pea.l 0x6
          0x0051f8b0      2f17           move.l (a7), -(a7)
          0x0051f8b2      4eb9004047ea   jsr p_wts_o
          0x0051f8b8      dec2           adda.w d2, a7
          0x0051f8ba      3013           move.w (a3), d0
          0x0051f8bc      48c0           ext.l d0
          0x0051f8be      2f00           move.l d0, -(a7)
          0x0051f8c0      48780000       pea.l 0x0
          0x0051f8c4      4eb9004070e4   jsr p_wti_o
          0x0051f8ca      504f           addq.w 0x8, a7
          0x0051f8cc      487af32c       pea.l 0x51ebfa(pc)
          0x0051f8d0      48780006       pea.l 0x6
          0x0051f8d4      2f17           move.l (a7), -(a7)
          0x0051f8d6      4eb9004047ea   jsr p_wts_o
          0x0051f8dc      dec2           adda.w d2, a7
          0x0051f8de      3014           move.w (a4), d0
          0x0051f8e0      48c0           ext.l d0
          0x0051f8e2      2f00           move.l d0, -(a7)
          0x0051f8e4      48780000       pea.l 0x0
          0x0051f8e8      4eb9004070e4   jsr p_wti_o
          0x0051f8ee      504f           addq.w 0x8, a7
          0x0051f8f0      4eb900404946   jsr p_wtln_o
          0x0051f8f6      4eb900401620   jsr p_walkback
          0x0051f8fc      36bc0008       move.w 0x8, (a3)
          0x0051f900      3883           move.w d3, (a4)
      > 0x0051f902      33d30083e78c   move.w (a3), 0x83e78c
           0x0051f908      33d40083e78e   move.w (a4), 0x83e78e
           0x0051f90e      4a390083e788   tst.b 0x83e788
       < 0x0051f914      6764           beq.b 0x51f97a
          0x0051f916      3d52fffc       move.w (a2), -0x4(a6)
          0x0051f91a      3d51fffe       move.w (a1), -0x2(a6)
          0x0051f91e      102e0010       move.b 0x10(a6), d0
          0x0051f922      4880           ext.w d0
          0x0051f924      41faf2da       lea.l 0x51ec00(pc), a0
          0x0051f928      3200           move.w d0, d1
          0x0051f92a      e649           lsr.w 0x3, d1
          0x0051f92c      01301000       btst.l d0, (a0, d1.w)
      < 0x0051f930      670c           beq.b 0x51f93e
         0x0051f932      1f03           move.b d3, -(a7)
         0x0051f934      4852           pea.l (a2)
         0x0051f936      4851           pea.l (a1)
         0x0051f938      4ebafae2       jsr BRUSHCOM.b_ms_ram_bank_s(pc)
         0x0051f93c      dec4           adda.w d4, a7
      > 0x0051f93e      3e12           move.w (a2), d7
          0x0051f940      02470007       andi.w 0x7, d7
          0x0051f944      33c7fff80040   move.w d7, 0xfff80040
          0x0051f94a      3213           move.w (a3), d1
          0x0051f94c      48c1           ext.l d1
          0x0051f94e      02870000ffff   andi.l 0xffff, d7
          0x0051f954      d287           add.l d7, d1
          0x0051f956      5381           subq.l 0x1, d1
          0x0051f958      33c1fff80044   move.w d1, 0xfff80044
          0x0051f95e      3214           move.w (a4), d1
          0x0051f960      48c1           ext.l d1
          0x0051f962      5381           subq.l 0x1, d1
          0x0051f964      33c1fff80046   move.w d1, 0xfff80046
          0x0051f96a      1f00           move.b d0, -(a7)
          0x0051f96c      2f2efffc       move.l -0x4(a6), -(a7)
          0x0051f970      4ebafd0a       jsr BRUSHCOM.b_source_pos(pc)
          0x0051f974      5c4f           addq.w 0x6, a7
      < 0x0051f976      60000086       bra.w 0x51f9fe
      > 0x0051f97a      4a2e0010       tst.b 0x10(a6)
      < 0x0051f97e      6628           bne.b 0x51f9a8
         0x0051f980      3011           move.w (a1), d0
         0x0051f982      b07ae736       cmp.w 0x51e0ba(pc), d0
     < 0x0051f986      6e08           bgt.b 0x51f990
        0x0051f988      4279fff80010   clr.w 0xfff80010
    < 0x0051f98e      6038           bra.b 0x51f9c8
    > 0x0051f990      48c0           ext.l d0
        0x0051f992      323ae726       move.w 0x51e0ba(pc), d1
        0x0051f996      48c1           ext.l d1
        0x0051f998      4481           neg.l d1
        0x0051f99a      d280           add.l d0, d1
        0x0051f99c      5381           subq.l 0x1, d1
        0x0051f99e      3281           move.w d1, (a1)
        0x0051f9a0      33c3fff80010   move.w d3, 0xfff80010
    < 0x0051f9a6      6020           bra.b 0x51f9c8
    > 0x0051f9a8      102e0010       move.b 0x10(a6), d0
        0x0051f9ac      4880           ext.w d0
        0x0051f9ae      41faf252       lea.l 0x51ec02(pc), a0
        0x0051f9b2      3200           move.w d0, d1
        0x0051f9b4      e649           lsr.w 0x3, d1
        0x0051f9b6      01301000       btst.l d0, (a0, d1.w)
    < 0x0051f9ba      670c           beq.b 0x51f9c8
       0x0051f9bc      1f03           move.b d3, -(a7)
       0x0051f9be      4852           pea.l (a2)
       0x0051f9c0      4851           pea.l (a1)
       0x0051f9c2      4ebafa58       jsr BRUSHCOM.b_ms_ram_bank_s(pc)
       0x0051f9c6      dec4           adda.w d4, a7
       ; CODE XREFS from BRUSHCOM.b_dest_area @ 0x51f98e, 0x51f9a6
    > 0x0051f9c8      4279fff80040   clr.w 0xfff80040
          0x0051f9ce      3013           move.w (a3), d0
          0x0051f9d0      48c0           ext.l d0
          0x0051f9d2      5380           subq.l 0x1, d0
          0x0051f9d4      33c0fff80044   move.w d0, 0xfff80044
          0x0051f9da      3014           move.w (a4), d0
          0x0051f9dc      48c0           ext.l d0
          0x0051f9de      5380           subq.l 0x1, d0
          0x0051f9e0      33c0fff80046   move.w d0, 0xfff80046
          0x0051f9e6      33d2fff840f0   move.w (a2), 0xfff840f0
          0x0051f9ec      33d1fff840f2   move.w (a1), 0xfff840f2
          0x0051f9f2      33d2fff80070   move.w (a2), 0xfff80070
          0x0051f9f8      33d1fff80072   move.w (a1), 0xfff80072
          ; CODE XREF from BRUSHCOM.b_dest_area @ 0x51f976
      > 0x0051f9fe      4cdf1f9f       movem.l (a7)+, d0-d4/d7/a0-a4
           0x0051fa02      4e5e           unlk a6
           0x0051fa04      4e75           rts
            ; XREFS: CALL 0x0050aa78  CALL 0x0050b15c  CALL 0x0078ce58  
            ; XREFS: CALL 0x0078d240  CALL 0x00794d64  CALL 0x00794dc0  
            ; XREFS: CALL 0x00794e8e  CALL 0x00794ee8  CALL 0x007956fe  
            ; XREFS: CALL 0x00795766  
 16: BRUSHCOM.b_xfer_size ();
           0x0051fa06      4e560000       link.w a6, 0x0
           0x0051fa0a      23ee00080083.  move.l 0x8(a6), 0x83e78c.l
           0x0051fa12      4e5e           unlk a6
           0x0051fa14      4e75           rts
            ; XREFS: CALL 0x0050aaa6  CALL 0x0050aac8  CALL 0x0078c196  
            ; XREFS: CALL 0x0078ce6e  CALL 0x0078d256  CALL 0x00794dd4  
            ; XREFS: CALL 0x00794efc  CALL 0x00795396  CALL 0x00795714  
            ; XREFS: CALL 0x0079577c  
 14: BRUSHCOM.b_go ();
           0x0051fa16      4e560000       link.w a6, 0x0
           0x0051fa1a      4279fff80000   clr.w 0xfff80000
           0x0051fa20      4e5e           unlk a6
           0x0051fa22      4e75           rts
            ; XREFS: CALL 0x005219ec  CALL 0x00521f50  CALL 0x0052212e  
            ; XREFS: CALL 0x005223e8  CALL 0x005a9f14  CALL 0x005c2590  
            ; XREFS: CALL 0x005c2d6c  CALL 0x00664c2c  CALL 0x00680566  
            ; XREFS: CALL 0x006a5bc4  CALL 0x0078cf62  CALL 0x0078cf90  
            ; XREFS: CALL 0x0078d02a  CALL 0x0078d28c  CALL 0x0078d2ba  
            ; XREFS: CALL 0x0078d354  
 32: BRUSHCOM.br_abort ();
           0x0051fa24      4e560000       link.w a6, 0x0
           0x0051fa28      4279fff84002   clr.w 0xfff84002
           0x0051fa2e      4279fff84004   clr.w 0xfff84004
           0x0051fa34      4279fff80002   clr.w 0xfff80002
           0x0051fa3a      4279fff80004   clr.w 0xfff80004
           0x0051fa40      4e5e           unlk a6
           0x0051fa42      4e75           rts
            ; CALL XREF from MAVIS_PAINT.mavis_dpb_mainp @ 0x6d2e2e
            ; CALL XREF from PANEL_PREFETCH.read_picture @ 0x78d3a8
            ; CALL XREF from PANEL_VIDEO.record_picture @ 0x797a96
            ; CALL XREF from PANEL_VIDEO.grab_picture @ 0x797d4c
 32: BRUSHCOM.b_reset ();
           0x0051fa44      4e560000       link.w a6, 0x0
           0x0051fa48      4279fff84002   clr.w 0xfff84002
           0x0051fa4e      4279fff84004   clr.w 0xfff84004
           0x0051fa54      4279fff80002   clr.w 0xfff80002
           0x0051fa5a      4279fff80004   clr.w 0xfff80004
           0x0051fa60      4e5e           unlk a6
           0x0051fa62      4e75           rts
            ; XREFS(26)
 1766: BRUSHCOM.br_draw_box ();
           ; var int32_t var_14h @ a6-0x14
           ; var int32_t var_8h @ a7+0x8
           0x0051fa64      4e56ffe2       link.w a6, 0xffe2
           0x0051fa68      48e7fff8       movem.l d0-d7/a0-a4, -(a7)
           0x0051fa6c      41f900523d90   lea.l BRUSHCOM.data_bus, a0
           0x0051fa72      43eeffe6       lea.l -0x1a(a6), a1
           0x0051fa76      45ee0012       lea.l 0x12(a6), a2
           0x0051fa7a      4a6e0016       tst.w 0x16(a6)
       < 0x0051fa7e      6f06           ble.b 0x51fa86
          0x0051fa80      4a6e0018       tst.w 0x18(a6)
      < 0x0051fa84      6e50           bgt.b 0x51fad6
      > 0x0051fa86      9efc0100       suba.w 0x100, a7
          0x0051fa8a      2f2e0016       move.l 0x16(a6), -(a7)
          0x0051fa8e      2f12           move.l (a2), -(a7)
          0x0051fa90      48780000       pea.l 0x0
          0x0051fa94      4eb90044d9f2   jsr SYSTEM_STRING.area_str
          0x0051fa9a      defc000c       adda.w 0xc, a7
          0x0051fa9e      487af165       pea.l 0x51ec05(pc)
          0x0051faa2      48780009       pea.l 0x9
          0x0051faa6      2f17           move.l (a7), -(a7)
          0x0051faa8      4eb9004047ea   jsr p_wts_o
          0x0051faae      defc000c       adda.w 0xc, a7
          0x0051fab2      486f0001       pea.l 0x1(a7)
          0x0051fab6      42a7           clr.l -(a7)
          0x0051fab8      1f6f00080003   move.b 0x8(a7), 0x3(a7)
          0x0051fabe      2f17           move.l (a7), -(a7)
          0x0051fac0      4eb9004047ea   jsr p_wts_o
          0x0051fac6      defc010c       adda.w 0x10c, a7
          0x0051faca      4eb900404946   jsr p_wtln_o
          0x0051fad0      4eb900401620   jsr p_walkback
      > 0x0051fad6      422effe3       clr.b -0x1d(a6)
           0x0051fada      4a790083e72a   tst.w 0x83e72a
       < 0x0051fae0      6704           beq.b 0x51fae6
          0x0051fae2      522effe3       addq.b 0x1, -0x1d(a6)
       > 0x0051fae6      4a2effe3       tst.b -0x1d(a6)
       < 0x0051faea      6700012c       beq.w 0x51fc18
          0x0051faee      4eb900523cda   jsr BRUSHCOM.open_block
          0x0051faf4      4879fff84002   pea.l 0xfff84002
          0x0051fafa      4267           clr.w -(a7)
          0x0051fafc      4e90           jsr (a0)                    ; fcn.00000009
          0x0051fafe      5c4f           addq.w 0x6, a7
          0x0051fb00      4879fff84004   pea.l 0xfff84004
          0x0051fb06      4267           clr.w -(a7)
          0x0051fb08      4e90           jsr (a0)                    ; fcn.00000009
          0x0051fb0a      5c4f           addq.w 0x6, a7
          0x0051fb0c      4879fff80002   pea.l 0xfff80002
          0x0051fb12      4267           clr.w -(a7)
          0x0051fb14      4e90           jsr (a0)                    ; fcn.00000009
          0x0051fb16      5c4f           addq.w 0x6, a7
          0x0051fb18      4879fff80004   pea.l 0xfff80004
          0x0051fb1e      4267           clr.w -(a7)
          0x0051fb20      4e90           jsr (a0)                    ; fcn.00000009
          0x0051fb22      5c4f           addq.w 0x6, a7
          0x0051fb24      3292           move.w (a2), (a1)
          0x0051fb26      02510007       andi.w 0x7, (a1)
          0x0051fb2a      4879fff80040   pea.l 0xfff80040
          0x0051fb30      3f11           move.w (a1), -(a7)
          0x0051fb32      4e90           jsr (a0)                    ; fcn.00000009
          0x0051fb34      5c4f           addq.w 0x6, a7
          0x0051fb36      4879fff80044   pea.l 0xfff80044
          0x0051fb3c      302e0016       move.w 0x16(a6), d0
          0x0051fb40      48c0           ext.l d0
          0x0051fb42      3211           move.w (a1), d1
          0x0051fb44      48c1           ext.l d1
          0x0051fb46      d280           add.l d0, d1
          0x0051fb48      5381           subq.l 0x1, d1
          0x0051fb4a      3f01           move.w d1, -(a7)
          0x0051fb4c      4e90           jsr (a0)                    ; fcn.00000009
          0x0051fb4e      5c4f           addq.w 0x6, a7
          0x0051fb50      4879fff80046   pea.l 0xfff80046
          0x0051fb56      302e0018       move.w 0x18(a6), d0
          0x0051fb5a      48c0           ext.l d0
          0x0051fb5c      5380           subq.l 0x1, d0
          0x0051fb5e      3f00           move.w d0, -(a7)
          0x0051fb60      4e90           jsr (a0)                    ; fcn.00000009
          0x0051fb62      5c4f           addq.w 0x6, a7
          0x0051fb64      4879fff840f0   pea.l 0xfff840f0
          0x0051fb6a      3f12           move.w (a2), -(a7)
          0x0051fb6c      4e90           jsr (a0)                    ; fcn.00000009
          0x0051fb6e      5c4f           addq.w 0x6, a7
          0x0051fb70      4879fff840f2   pea.l 0xfff840f2
          0x0051fb76      3f2e0014       move.w 0x14(a6), -(a7)
          0x0051fb7a      4e90           jsr (a0)                    ; fcn.00000009
          0x0051fb7c      5c4f           addq.w 0x6, a7
          0x0051fb7e      4879fff80006   pea.l 0xfff80006
          0x0051fb84      302e000c       move.w 0xc(a6), d0
          0x0051fb88      48c0           ext.l d0
          0x0051fb8a      e180           asl.l 0x8, d0
          0x0051fb8c      3f00           move.w d0, -(a7)
          0x0051fb8e      4e90           jsr (a0)                    ; fcn.00000009
          0x0051fb90      5c4f           addq.w 0x6, a7
          0x0051fb92      4879fff80008   pea.l 0xfff80008
          0x0051fb98      302e000e       move.w 0xe(a6), d0
          0x0051fb9c      48c0           ext.l d0
          0x0051fb9e      e180           asl.l 0x8, d0
          0x0051fba0      3f00           move.w d0, -(a7)
          0x0051fba2      4e90           jsr (a0)                    ; fcn.00000009
          0x0051fba4      5c4f           addq.w 0x6, a7
          0x0051fba6      4879fff80008   pea.l 0xfff80008
          0x0051fbac      302e0010       move.w 0x10(a6), d0
          0x0051fbb0      48c0           ext.l d0
          0x0051fbb2      e180           asl.l 0x8, d0
          0x0051fbb4      3f00           move.w d0, -(a7)
          0x0051fbb6      4e90           jsr (a0)                    ; fcn.00000009
          0x0051fbb8      5c4f           addq.w 0x6, a7
          0x0051fbba      4879fff8409e   pea.l 0xfff8409e
          0x0051fbc0      3f3c00c0       move.w 0xc0, -(a7)
          0x0051fbc4      4e90           jsr (a0)                    ; fcn.00000009
          0x0051fbc6      5c4f           addq.w 0x6, a7
          0x0051fbc8      4879fff84002   pea.l 0xfff84002
          0x0051fbce      3f390083e758   move.w 0x83e758, -(a7)
          0x0051fbd4      4e90           jsr (a0)                    ; fcn.00000009
          0x0051fbd6      5c4f           addq.w 0x6, a7
          0x0051fbd8      4879fff84004   pea.l 0xfff84004
          0x0051fbde      3f390083e75a   move.w 0x83e75a, -(a7)
          0x0051fbe4      4e90           jsr (a0)                    ; fcn.00000009
          0x0051fbe6      5c4f           addq.w 0x6, a7
          0x0051fbe8      4879fff80002   pea.l 0xfff80002
          0x0051fbee      3f390083e754   move.w 0x83e754, -(a7)
          0x0051fbf4      4e90           jsr (a0)                    ; fcn.00000009
          0x0051fbf6      5c4f           addq.w 0x6, a7
          0x0051fbf8      4879fff80004   pea.l 0xfff80004
          0x0051fbfe      3f390083e756   move.w 0x83e756, -(a7)
          0x0051fc04      4e90           jsr (a0)                    ; fcn.00000009
          0x0051fc06      5c4f           addq.w 0x6, a7
          0x0051fc08      4879fff80000   pea.l 0xfff80000
          0x0051fc0e      4267           clr.w -(a7)
          0x0051fc10      4e90           jsr (a0)                    ; fcn.00000009
          0x0051fc12      5c4f           addq.w 0x6, a7
      < 0x0051fc14      600000a2       bra.w 0x51fcb8
      > 0x0051fc18      3292           move.w (a2), (a1)
          0x0051fc1a      02510007       andi.w 0x7, (a1)
          0x0051fc1e      33d1fff80040   move.w (a1), 0xfff80040
          0x0051fc24      302e0016       move.w 0x16(a6), d0
          0x0051fc28      48c0           ext.l d0
          0x0051fc2a      3211           move.w (a1), d1
          0x0051fc2c      48c1           ext.l d1
          0x0051fc2e      d280           add.l d0, d1
          0x0051fc30      5381           subq.l 0x1, d1
          0x0051fc32      33c1fff80044   move.w d1, 0xfff80044
          0x0051fc38      302e0018       move.w 0x18(a6), d0
          0x0051fc3c      48c0           ext.l d0
          0x0051fc3e      5380           subq.l 0x1, d0
          0x0051fc40      33c0fff80046   move.w d0, 0xfff80046
          0x0051fc46      33d2fff840f0   move.w (a2), 0xfff840f0
          0x0051fc4c      33ee0014fff8.  move.w 0x14(a6), 0xfff840f2.l
          0x0051fc54      4ebaf642       jsr BRUSHCOM.brush_wait(pc)
          0x0051fc58      302e000c       move.w 0xc(a6), d0
          0x0051fc5c      48c0           ext.l d0
          0x0051fc5e      e180           asl.l 0x8, d0
          0x0051fc60      33c0fff80006   move.w d0, 0xfff80006
          0x0051fc66      302e000e       move.w 0xe(a6), d0
          0x0051fc6a      48c0           ext.l d0
          0x0051fc6c      e180           asl.l 0x8, d0
          0x0051fc6e      33c0fff80008   move.w d0, 0xfff80008
          0x0051fc74      302e0010       move.w 0x10(a6), d0
          0x0051fc78      48c0           ext.l d0
          0x0051fc7a      e180           asl.l 0x8, d0
          0x0051fc7c      33c0fff80008   move.w d0, 0xfff80008
          0x0051fc82      33fc00c0fff8.  move.w 0xc0, 0xfff8409e.l
          0x0051fc8a      33f90083e758.  move.w 0x83e758, 0xfff84002.l
          0x0051fc94      33f90083e75a.  move.w 0x83e75a, 0xfff84004.l
          0x0051fc9e      33f90083e754.  move.w 0x83e754, 0xfff80002.l
          0x0051fca8      33f90083e756.  move.w 0x83e756, 0xfff80004.l
          0x0051fcb2      4279fff80000   clr.w 0xfff80000
          ; CODE XREF from BRUSHCOM.br_draw_box @ 0x51fc14
      > 0x0051fcb8      4aae0008       tst.l 0x8(a6)
       < 0x0051fcbc      670003aa       beq.w 0x520068
          0x0051fcc0      7a01           moveq 0x1, d5
          0x0051fcc2      3012           move.w (a2), d0
          0x0051fcc4      48c0           ext.l d0
          0x0051fcc6      2200           move.l d0, d1
          0x0051fcc8      5681           addq.l 0x3, d1
          0x0051fcca      3d41ffec       move.w d1, -0x14(a6)
          0x0051fcce      322e0014       move.w 0x14(a6), d1
          0x0051fcd2      48c1           ext.l d1
          0x0051fcd4      06810000000f   addi.l 0xf, d1
          0x0051fcda      3d41ffee       move.w d1, -0x12(a6)
          0x0051fcde      322e0016       move.w 0x16(a6), d1
          0x0051fce2      48c1           ext.l d1
          0x0051fce4      d280           add.l d0, d1
          0x0051fce6      5281           addq.l 0x1, d1
          0x0051fce8      3d41ffea       move.w d1, -0x16(a6)
          0x0051fcec      26790083e74e   movea.l 0x83e74e, a3
          0x0051fcf2      286e0008       movea.l 0x8(a6), a4
          0x0051fcf6      7e01           moveq 0x1, d7
          ; CODE XREF from BRUSHCOM.br_draw_box @ 0x520064
      > 0x0051fcf8      4280           clr.l d0
         0x0051fcfa      1014           move.b (a4), d0
         0x0051fcfc      be40           cmp.w d0, d7
     < 0x0051fcfe      6e000368       bgt.w 0x520068
        0x0051fd02      7c00           moveq 0x0, d6
        0x0051fd04      10347000       move.b (a4, d7.w), d0
        0x0051fd08      0c00003c       cmpi.b 0x3c, d0
    < 0x0051fd0c      6662           bne.b 0x51fd70
       0x0051fd0e      1214           move.b (a4), d1
       0x0051fd10      0c010001       cmpi.b 0x1, d1
   < 0x0051fd14      6606           bne.b 0x51fd1c
      ; CODE XREFS from BRUSHCOM.br_draw_box @ 0x51fd32, 0x51fd4a, 0x51fd7e, 0x51fd96, 0x51fdb0
 > 0x0051fd16      7c00           moveq 0x0, d6
 < 0x0051fd18      60000120       bra.w 0x51fe3a
 > 0x0051fd1c      0c470001       cmpi.w 0x1, d7
 < 0x0051fd20      6612           bne.b 0x51fd34
    0x0051fd22      0c010002       cmpi.b 0x2, d1
 < 0x0051fd26      660c           bne.b 0x51fd34
    0x0051fd28      142c0002       move.b 0x2(a4), d2
    0x0051fd2c      0c020020       cmpi.b 0x20, d2
 < 0x0051fd30      6602           bne.b 0x51fd34
 < 0x0051fd32      60e2           bra.b 0x51fd16
 > 0x0051fd34      0c470003       cmpi.w 0x3, d7
 < 0x0051fd38      6d24           blt.b 0x51fd5e
    0x0051fd3a      48c7           ext.l d7
    0x0051fd3c      2407           move.l d7, d2
    0x0051fd3e      5582           subq.l 0x2, d2
    0x0051fd40      14342800       move.b (a4, d2.l), d2
    0x0051fd44      0c02001b       cmpi.b 0x1b, d2
 < 0x0051fd48      6602           bne.b 0x51fd4c
 < 0x0051fd4a      60ca           bra.b 0x51fd16
 > 0x0051fd4c      342effec       move.w -0x14(a6), d2
    0x0051fd50      48c2           ext.l d2
    0x0051fd52      5382           subq.l 0x1, d2
    ; CODE XREFS from BRUSHCOM.br_draw_box @ 0x51fdbc, 0x51fdc6, 0x51fdda
 > 0x0051fd54      3d42ffec       move.w d2, -0x14(a6)
    ; CODE XREF from BRUSHCOM.br_draw_box @ 0x51fdf0
 > 0x0051fd58      7c01           moveq 0x1, d6
 < 0x0051fd5a      600000de       bra.w 0x51fe3a
 > 0x0051fd5e      7c01           moveq 0x1, d6
     0x0051fd60      342effec       move.w -0x14(a6), d2
     0x0051fd64      48c2           ext.l d2
     0x0051fd66      5382           subq.l 0x1, d2
     0x0051fd68      3d42ffec       move.w d2, -0x14(a6)
 < 0x0051fd6c      600000cc       bra.w 0x51fe3a
 > 0x0051fd70      0c00003e       cmpi.b 0x3e, d0
 < 0x0051fd74      6652           bne.b 0x51fdc8
    0x0051fd76      1214           move.b (a4), d1
    0x0051fd78      0c010001       cmpi.b 0x1, d1
 < 0x0051fd7c      6602           bne.b 0x51fd80
 < 0x0051fd7e      6096           bra.b 0x51fd16
 > 0x0051fd80      0c470001       cmpi.w 0x1, d7
 < 0x0051fd84      6614           bne.b 0x51fd9a
    0x0051fd86      0c010002       cmpi.b 0x2, d1
 < 0x0051fd8a      660e           bne.b 0x51fd9a
    0x0051fd8c      142c0002       move.b 0x2(a4), d2
    0x0051fd90      0c020020       cmpi.b 0x20, d2
 < 0x0051fd94      6604           bne.b 0x51fd9a
 < 0x0051fd96      6000ff7e       bra.w 0x51fd16
 > 0x0051fd9a      0c470003       cmpi.w 0x3, d7
 < 0x0051fd9e      6d1e           blt.b 0x51fdbe
    0x0051fda0      48c7           ext.l d7
    0x0051fda2      2407           move.l d7, d2
    0x0051fda4      5582           subq.l 0x2, d2
    0x0051fda6      14342800       move.b (a4, d2.l), d2
    0x0051fdaa      0c02001b       cmpi.b 0x1b, d2
 < 0x0051fdae      6604           bne.b 0x51fdb4
 < 0x0051fdb0      6000ff64       bra.w 0x51fd16
 > 0x0051fdb4      342effec       move.w -0x14(a6), d2
     0x0051fdb8      48c2           ext.l d2
     0x0051fdba      5282           addq.l 0x1, d2
 < 0x0051fdbc      6096           bra.b 0x51fd54
 > 0x0051fdbe      342effec       move.w -0x14(a6), d2
      0x0051fdc2      48c2           ext.l d2
      0x0051fdc4      5282           addq.l 0x1, d2
 < 0x0051fdc6      608c           bra.b 0x51fd54
   > 0x0051fdc8      4a00           tst.b d0
   < 0x0051fdca      6612           bne.b 0x51fdde
      0x0051fdcc      322effec       move.w -0x14(a6), d1
      0x0051fdd0      48c1           ext.l d1
      0x0051fdd2      343ae2f2       move.w 0x51e0c6(pc), d2
      0x0051fdd6      48c2           ext.l d2
      0x0051fdd8      d481           add.l d1, d2
 < 0x0051fdda      6000ff78       bra.w 0x51fd54
   > 0x0051fdde      0c000020       cmpi.b 0x20, d0
   < 0x0051fde2      6610           bne.b 0x51fdf4
      0x0051fde4      322effec       move.w -0x14(a6), d1
      0x0051fde8      48c1           ext.l d1
      0x0051fdea      5c81           addq.l 0x6, d1
      0x0051fdec      3d41ffec       move.w d1, -0x14(a6)
 < 0x0051fdf0      6000ff66       bra.w 0x51fd58
   > 0x0051fdf4      0c00001b       cmpi.b 0x1b, d0
   < 0x0051fdf8      6640           bne.b 0x51fe3a
      0x0051fdfa      48c7           ext.l d7
      0x0051fdfc      5287           addq.l 0x1, d7
      0x0051fdfe      7c01           moveq 0x1, d6
      0x0051fe00      12347000       move.b (a4, d7.w), d1
      0x0051fe04      0c010054       cmpi.b 0x54, d1
  < 0x0051fe08      6616           bne.b 0x51fe20
     0x0051fe0a      594f           subq.w 0x4, a7
     0x0051fe0c      48780001       pea.l 0x1
     ; CODE XREF from BRUSHCOM.br_draw_box @ 0x51fe2c
 > 0x0051fe10      486effe2       pea.l -0x1e(a6)
    0x0051fe14      4eb9006a7aa2   jsr TEXTMAV.get_char_data
    0x0051fe1a      504f           addq.w 0x8, a7
    0x0051fe1c      265f           movea.l (a7)+, a3
 < 0x0051fe1e      601a           bra.b 0x51fe3a
 > 0x0051fe20      0c010042       cmpi.b 0x42, d1
 < 0x0051fe24      6608           bne.b 0x51fe2e
    0x0051fe26      594f           subq.w 0x4, a7
    0x0051fe28      48780002       pea.l 0x2
 < 0x0051fe2c      60e2           bra.b 0x51fe10
  > 0x0051fe2e      7c00           moveq 0x0, d6
      0x0051fe30      48c7           ext.l d7
      0x0051fe32      5387           subq.l 0x1, d7
      0x0051fe34      26790083e74e   movea.l 0x83e74e, a3
      ; CODE XREFS from BRUSHCOM.br_draw_box @ 0x51fd18, 0x51fd5a, 0x51fd6c, 0x51fe1e
 > 0x0051fe3a      4a06           tst.b d6
    < 0x0051fe3c      66000222       bne.w 0x520060
       0x0051fe40      4280           clr.l d0
       0x0051fe42      10347000       move.b (a4, d7.w), d0
       0x0051fe46      c1fc000c       muls.w 0xc, d0
       0x0051fe4a      32330000       move.w (a3, d0.w), d1
       0x0051fe4e      0c41ffff       cmpi.w 0xffff, d1
   < 0x0051fe52      6700020c       beq.w 0x520060
      0x0051fe56      3d6effecfff0   move.w -0x14(a6), -0x10(a6)
      0x0051fe5c      322effee       move.w -0x12(a6), d1
      0x0051fe60      48c1           ext.l d1
      0x0051fe62      34330006       move.w 0x6(a3, d0.w), d2
      0x0051fe66      48c2           ext.l d2
      0x0051fe68      4482           neg.l d2
      0x0051fe6a      d481           add.l d1, d2
      0x0051fe6c      3d42fff2       move.w d2, -0xe(a6)
      0x0051fe70      322effec       move.w -0x14(a6), d1
      0x0051fe74      48c1           ext.l d1
      0x0051fe76      36330002       move.w 0x2(a3, d0.w), d3
      0x0051fe7a      48c3           ext.l d3
      0x0051fe7c      d283           add.l d3, d1
      0x0051fe7e      5381           subq.l 0x1, d1
      0x0051fe80      3d41ffec       move.w d1, -0x14(a6)
      0x0051fe84      b26effea       cmp.w -0x16(a6), d1
  < 0x0051fe88      6e0001d6       bgt.w 0x520060
     0x0051fe8c      322efff0       move.w -0x10(a6), d1
     0x0051fe90      02410007       andi.w 0x7, d1
     0x0051fe94      3281           move.w d1, (a1)
     0x0051fe96      4a2effe3       tst.b -0x1d(a6)
 < 0x0051fe9a      6700011a       beq.w 0x51ffb6
    0x0051fe9e      4879fff80070   pea.l 0xfff80070
    0x0051fea4      3f330008       move.w 0x8(a3, d0.w), -(a7)
    0x0051fea8      4e90           jsr (a0)                    ; fcn.00000009
    0x0051feaa      5c4f           addq.w 0x6, a7
    0x0051feac      4879fff80072   pea.l 0xfff80072
    0x0051feb2      3f33000a       move.w 0xa(a3, d0.w), -(a7)
    0x0051feb6      4e90           jsr (a0)                    ; fcn.00000009
    0x0051feb8      5c4f           addq.w 0x6, a7
    0x0051feba      4879fff80040   pea.l 0xfff80040
    0x0051fec0      3f01           move.w d1, -(a7)
    0x0051fec2      4e90           jsr (a0)                    ; fcn.00000009
    0x0051fec4      5c4f           addq.w 0x6, a7
    0x0051fec6      4879fff80044   pea.l 0xfff80044
    0x0051fecc      48c1           ext.l d1
    0x0051fece      2801           move.l d1, d4
    0x0051fed0      d883           add.l d3, d4
    0x0051fed2      5384           subq.l 0x1, d4
    0x0051fed4      3f04           move.w d4, -(a7)
    0x0051fed6      4e90           jsr (a0)                    ; fcn.00000009
    0x0051fed8      5c4f           addq.w 0x6, a7
    0x0051feda      4879fff80046   pea.l 0xfff80046
    0x0051fee0      38330004       move.w 0x4(a3, d0.w), d4
    0x0051fee4      48c4           ext.l d4
    0x0051fee6      5384           subq.l 0x1, d4
    0x0051fee8      3f04           move.w d4, -(a7)
    0x0051feea      4e90           jsr (a0)                    ; fcn.00000009
    0x0051feec      5c4f           addq.w 0x6, a7
    0x0051feee      4879fff840f0   pea.l 0xfff840f0
    0x0051fef4      3f2efff0       move.w -0x10(a6), -(a7)
    0x0051fef8      4e90           jsr (a0)                    ; fcn.00000009
    0x0051fefa      5c4f           addq.w 0x6, a7
    0x0051fefc      4879fff840f2   pea.l 0xfff840f2
    0x0051ff02      3f02           move.w d2, -(a7)
    0x0051ff04      4e90           jsr (a0)                    ; fcn.00000009
    0x0051ff06      5c4f           addq.w 0x6, a7
    0x0051ff08      487900000000   pea.l 0x0
    0x0051ff0e      4267           clr.w -(a7)
    0x0051ff10      4e90           jsr (a0)                    ; fcn.00000009
    0x0051ff12      5c4f           addq.w 0x6, a7
    0x0051ff14      4a05           tst.b d5
 < 0x0051ff16      6700008e       beq.w 0x51ffa6
    0x0051ff1a      7a00           moveq 0x0, d5
    0x0051ff1c      4879fff80010   pea.l 0xfff80010
    0x0051ff22      4267           clr.w -(a7)
    0x0051ff24      4e90           jsr (a0)                    ; fcn.00000009
    0x0051ff26      5c4f           addq.w 0x6, a7
    0x0051ff28      4879fff8000c   pea.l 0xfff8000c
    0x0051ff2e      3f3c4000       move.w 0x4000, -(a7)
    0x0051ff32      4e90           jsr (a0)                    ; fcn.00000009
    0x0051ff34      5c4f           addq.w 0x6, a7
    0x0051ff36      4879fff80006   pea.l 0xfff80006
    0x0051ff3c      3f390083e766   move.w 0x83e766, -(a7)
    0x0051ff42      4e90           jsr (a0)                    ; fcn.00000009
    0x0051ff44      5c4f           addq.w 0x6, a7
    0x0051ff46      4879fff80008   pea.l 0xfff80008
    0x0051ff4c      3f390083e768   move.w 0x83e768, -(a7)
    0x0051ff52      4e90           jsr (a0)                    ; fcn.00000009
    0x0051ff54      5c4f           addq.w 0x6, a7
    0x0051ff56      4879fff80008   pea.l 0xfff80008
    0x0051ff5c      3f390083e76a   move.w 0x83e76a, -(a7)
    0x0051ff62      4e90           jsr (a0)                    ; fcn.00000009
    0x0051ff64      5c4f           addq.w 0x6, a7
    0x0051ff66      4879fff84002   pea.l 0xfff84002
    0x0051ff6c      3f390083e762   move.w 0x83e762, -(a7)
    0x0051ff72      4e90           jsr (a0)                    ; fcn.00000009
    0x0051ff74      5c4f           addq.w 0x6, a7
    0x0051ff76      4879fff84004   pea.l 0xfff84004
    0x0051ff7c      3f390083e764   move.w 0x83e764, -(a7)
    0x0051ff82      4e90           jsr (a0)                    ; fcn.00000009
    0x0051ff84      5c4f           addq.w 0x6, a7
    0x0051ff86      4879fff80002   pea.l 0xfff80002
    0x0051ff8c      3f390083e75e   move.w 0x83e75e, -(a7)
    0x0051ff92      4e90           jsr (a0)                    ; fcn.00000009
    0x0051ff94      5c4f           addq.w 0x6, a7
    0x0051ff96      4879fff80004   pea.l 0xfff80004
    0x0051ff9c      3f390083e760   move.w 0x83e760, -(a7)
    0x0051ffa2      4e90           jsr (a0)                    ; fcn.00000009
    0x0051ffa4      5c4f           addq.w 0x6, a7
 > 0x0051ffa6      4879fff80000   pea.l 0xfff80000
    0x0051ffac      4267           clr.w -(a7)
    0x0051ffae      4e90           jsr (a0)                    ; fcn.00000009
    0x0051ffb0      5c4f           addq.w 0x6, a7
 < 0x0051ffb2      600000ac       bra.w 0x520060
 > 0x0051ffb6      33f30008fff8.  move.w 0x8(a3, d0.w), 0xfff80070.l
     0x0051ffbe      33f3000afff8.  move.w 0xa(a3, d0.w), 0xfff80072.l
     0x0051ffc6      33c1fff80040   move.w d1, 0xfff80040
     0x0051ffcc      48c1           ext.l d1
     0x0051ffce      2801           move.l d1, d4
     0x0051ffd0      d883           add.l d3, d4
     0x0051ffd2      5384           subq.l 0x1, d4
     0x0051ffd4      33c4fff80044   move.w d4, 0xfff80044
     0x0051ffda      38330004       move.w 0x4(a3, d0.w), d4
     0x0051ffde      48c4           ext.l d4
     0x0051ffe0      5384           subq.l 0x1, d4
     0x0051ffe2      33c4fff80046   move.w d4, 0xfff80046
     0x0051ffe8      33eefff0fff8.  move.w -0x10(a6), 0xfff840f0.l
     0x0051fff0      33c2fff840f2   move.w d2, 0xfff840f2
     0x0051fff6      4ebaf2a0       jsr BRUSHCOM.brush_wait(pc)
     0x0051fffa      4a05           tst.b d5
 < 0x0051fffc      6606           bne.b 0x520004
    0x0051fffe      4a2effe2       tst.b -0x1e(a6)
 < 0x00520002      6756           beq.b 0x52005a
 > 0x00520004      7a00           moveq 0x0, d5
     0x00520006      4279fff80010   clr.w 0xfff80010
     0x0052000c      33fc4000fff8.  move.w 0x4000, 0xfff8000c.l
     0x00520014      33f90083e766.  move.w 0x83e766, 0xfff80006.l
     0x0052001e      33f90083e768.  move.w 0x83e768, 0xfff80008.l
     0x00520028      33f90083e76a.  move.w 0x83e76a, 0xfff80008.l
     0x00520032      33f90083e762.  move.w 0x83e762, 0xfff84002.l
     0x0052003c      33f90083e764.  move.w 0x83e764, 0xfff84004.l
     0x00520046      33f90083e75e.  move.w 0x83e75e, 0xfff80002.l
     0x00520050      33f90083e760.  move.w 0x83e760, 0xfff80004.l
 > 0x0052005a      4279fff80000   clr.w 0xfff80000
     ; CODE XREF from BRUSHCOM.br_draw_box @ 0x51ffb2
 > 0x00520060      48c7           ext.l d7
        0x00520062      5287           addq.l 0x1, d7
     < 0x00520064      6000fc92       bra.w 0x51fcf8
     > 0x00520068      4a2effe3       tst.b -0x1d(a6)
       < 0x0052006c      670000c8       beq.w 0x520136
          0x00520070      4879fff840f0   pea.l 0xfff840f0
          0x00520076      3f390083e73a   move.w 0x83e73a, -(a7)
          0x0052007c      4e90           jsr (a0)                    ; fcn.00000009
          0x0052007e      5c4f           addq.w 0x6, a7
          0x00520080      4879fff840f2   pea.l 0xfff840f2
          0x00520086      3f390083e73c   move.w 0x83e73c, -(a7)
          0x0052008c      4e90           jsr (a0)                    ; fcn.00000009
          0x0052008e      5c4f           addq.w 0x6, a7
          0x00520090      4879fff80044   pea.l 0xfff80044
          0x00520096      30390083e73e   move.w 0x83e73e, d0
          0x0052009c      48c0           ext.l d0
          0x0052009e      5380           subq.l 0x1, d0
          0x005200a0      3f00           move.w d0, -(a7)
          0x005200a2      4e90           jsr (a0)                    ; fcn.00000009
          0x005200a4      5c4f           addq.w 0x6, a7
          0x005200a6      4879fff80046   pea.l 0xfff80046
          0x005200ac      30390083e740   move.w 0x83e740, d0
          0x005200b2      48c0           ext.l d0
          0x005200b4      5380           subq.l 0x1, d0
          0x005200b6      3f00           move.w d0, -(a7)
          0x005200b8      4e90           jsr (a0)                    ; fcn.00000009
          0x005200ba      5c4f           addq.w 0x6, a7
          0x005200bc      487900000000   pea.l 0x0
          0x005200c2      4267           clr.w -(a7)
          0x005200c4      4e90           jsr (a0)                    ; fcn.00000009
          0x005200c6      5c4f           addq.w 0x6, a7
          0x005200c8      4879fff8409e   pea.l 0xfff8409e
          0x005200ce      3f3c00d0       move.w 0xd0, -(a7)
          0x005200d2      4e90           jsr (a0)                    ; fcn.00000009
          0x005200d4      5c4f           addq.w 0x6, a7
          0x005200d6      4879fff84002   pea.l 0xfff84002
          0x005200dc      3f390083e736   move.w 0x83e736, -(a7)
          0x005200e2      4e90           jsr (a0)                    ; fcn.00000009
          0x005200e4      5c4f           addq.w 0x6, a7
          0x005200e6      4879fff84004   pea.l 0xfff84004
          0x005200ec      3f390083e738   move.w 0x83e738, -(a7)
          0x005200f2      4e90           jsr (a0)                    ; fcn.00000009
          0x005200f4      5c4f           addq.w 0x6, a7
          0x005200f6      4879fff80002   pea.l 0xfff80002
          0x005200fc      3f390083e732   move.w 0x83e732, -(a7)
          0x00520102      4e90           jsr (a0)                    ; fcn.00000009
          0x00520104      5c4f           addq.w 0x6, a7
          0x00520106      4879fff80004   pea.l 0xfff80004
          0x0052010c      3f390083e734   move.w 0x83e734, -(a7)
          0x00520112      4e90           jsr (a0)                    ; fcn.00000009
          0x00520114      5c4f           addq.w 0x6, a7
          0x00520116      4879fff80000   pea.l 0xfff80000
          0x0052011c      4267           clr.w -(a7)
          0x0052011e      4e90           jsr (a0)                    ; fcn.00000009
          0x00520120      5c4f           addq.w 0x6, a7
          0x00520122      4eb900523cf0   jsr BRUSHCOM.close_block
          0x00520128      48780001       pea.l 0x1
          0x0052012c      4eb900402e42   jsr p_Delay
          0x00520132      584f           addq.w 0x4, a7
      < 0x00520134      600c           bra.b 0x520142
      > 0x00520136      4ebaf160       jsr BRUSHCOM.brush_wait(pc)
          0x0052013a      33fc00d0fff8.  move.w 0xd0, 0xfff8409e.l
          ; CODE XREF from BRUSHCOM.br_draw_box @ 0x520134
      > 0x00520142      4cdf1fff       movem.l (a7)+, d0-d7/a0-a4
           0x00520146      4e5e           unlk a6
           0x00520148      4e75           rts
            ; CALL XREF from MENUCOM.menu_init @ 0x489af8
 58: BRUSHCOM.br_set_menu_tex ();
           0x0052014a      4e560000       link.w a6, 0x0
           0x0052014e      48e78000       movem.l d0, -(a7)
           0x00520152      302e0008       move.w 0x8(a6), d0
           0x00520156      48c0           ext.l d0
           0x00520158      e180           asl.l 0x8, d0
           0x0052015a      33c00083e766   move.w d0, 0x83e766
           0x00520160      302e000a       move.w 0xa(a6), d0
           0x00520164      48c0           ext.l d0
           0x00520166      e180           asl.l 0x8, d0
           0x00520168      33c00083e768   move.w d0, 0x83e768
           0x0052016e      302e000c       move.w 0xc(a6), d0
           0x00520172      48c0           ext.l d0
           0x00520174      e180           asl.l 0x8, d0
           0x00520176      33c00083e76a   move.w d0, 0x83e76a
           0x0052017c      4cdf0001       movem.l (a7)+, d0
           0x00520180      4e5e           unlk a6
           0x00520182      4e75           rts
            ; XREFS(29)
 42: BRUSHCOM.store_and_plane ();
           0x00520184      4e560000       link.w a6, 0x0
           0x00520188      48e7e0c0       movem.l d0-d2/a0-a1, -(a7)
           0x0052018c      41ee000c       lea.l 0xc(a6), a0
           0x00520190      43ee0008       lea.l 0x8(a6), a1
           0x00520194      7204           moveq 0x4, d1
           0x00520196      7403           moveq 0x3, d2
           0x00520198      102e000a       move.b 0xa(a6), d0
           0x0052019c      4880           ext.w d0
           0x0052019e      b042           cmp.w d2, d0
       < 0x005201a0      620000f6       bhi.w 0x520298
          0x005201a4      d040           add.w d0, d0
          0x005201a6      303b0006       move.w 0x5201ae(pc, d0.w), d0
          0x005201aa      4efb0002       jmp 0x5201ae(pc, d0.w)
           0x005201ae      00b200780008.  ori.l 0x780008, 0x3e(a2, d0.w)
           0x005201b6      1011           move.b (a1), d0
           0x005201b8      4880           ext.w d0
           0x005201ba      b041           cmp.w d1, d0
       < 0x005201bc      622a           bhi.b 0x5201e8
          0x005201be      d040           add.w d0, d0
          0x005201c0      303b0006       move.w 0x5201c8(pc, d0.w), d0
          0x005201c4      4efb0002       jmp 0x5201c8(pc, d0.w)
          0x005201c8      000a000e       
          0x005201c9      0a000e00       eori.b 0x0, d0
          0x005201cd      1400           move.b d0, d2
          0x005201cf      1a00           move.b d0, d5
          0x005201d1      1e421060       
          0x005201d2      4210           clr.b (a0)
      < 0x005201d4      6012           bra.b 0x5201e8
         0x005201d6      10bc0001       move.b 0x1, (a0)
     < 0x005201da      600c           bra.b 0x5201e8
        0x005201dc      10bc0002       move.b 0x2, (a0)
    < 0x005201e0      6006           bra.b 0x5201e8
       0x005201e2      1082           move.b d2, (a0)
   < 0x005201e4      6002           bra.b 0x5201e8
      0x005201e6      1081           move.b d1, (a0)
  > 0x005201e8      600000ae       bra.w 0x520298
          0x005201ec      1011           move.b (a1), d0
          0x005201ee      4880           ext.w d0
          0x005201f0      b041           cmp.w d1, d0
      < 0x005201f2      6230           bhi.b 0x520224
         0x005201f4      d040           add.w d0, d0
         0x005201f6      303b0006       move.w 0x5201fe(pc, d0.w), d0
         0x005201fa      4efb0002       jmp 0x5201fe(pc, d0.w)
         0x005201fe      000a0010       
         0x005201ff      0a001000       eori.b 0x0, d0
         0x00520203      1600           move.b d0, d3
         0x00520205      1c00           move.b d0, d6
         0x00520207      2210           move.l (a0), d1
         0x00520209      bc00           cmp.b d0, d6
         0x0052020b      0560           bchg.b d2, -(a0)
         0x0052020d      1610           move.b (a0), d3
         0x0052020f      bc00           cmp.b d0, d6
         0x00520211      06601010       addi.w 0x1010, -(a0)
         0x00520215      bc00           cmp.b d0, d6
         0x00520217      0760           bchg.b d3, -(a0)
         0x00520219      0a10bc00       eori.b 0x0, (a0)
         0x0052021d      08600410       
     < 0x0052021e      6004           bra.b 0x520224
        0x00520220      10bc0009       move.b 0x9, (a0)
    > 0x00520224      6072           bra.b 0x520298
         0x00520226      1011           move.b (a1), d0
         0x00520228      4880           ext.w d0
         0x0052022a      b041           cmp.w d1, d0
     < 0x0052022c      6230           bhi.b 0x52025e
        0x0052022e      d040           add.w d0, d0
        0x00520230      303b0006       move.w 0x520238(pc, d0.w), d0
        0x00520234      4efb0002       jmp 0x520238(pc, d0.w)
        0x00520238      000a0010       
        0x00520239      0a001000       eori.b 0x0, d0
        0x0052023d      1600           move.b d0, d3
        0x0052023f      1c00           move.b d0, d6
        0x00520241      2210           move.l (a0), d1
        0x00520243      bc00           cmp.b d0, d6
        0x00520245      0a601610       eori.w 0x1610, -(a0)
        0x00520249      bc00           cmp.b d0, d6
        0x0052024b      0b60           bchg.b d5, -(a0)
        0x0052024d      1010           move.b (a0), d0
        0x0052024f      bc00           cmp.b d0, d6
        0x00520251      0c600a10       cmpi.w 0xa10, -(a0)
        0x00520255      bc00           cmp.b d0, d6
        0x00520257      0d60           bchg.b d6, -(a0)
        0x00520259      0410bc00       subi.b 0x0, (a0)
        0x0052025d      0e603810       
    > 0x0052025e      6038           bra.b 0x520298
        0x00520260      1011           move.b (a1), d0
        0x00520262      4880           ext.w d0
        0x00520264      b041           cmp.w d1, d0
    < 0x00520266      6230           bhi.b 0x520298
       0x00520268      d040           add.w d0, d0
       0x0052026a      303b0006       move.w 0x520272(pc, d0.w), d0
       0x0052026e      4efb0002       jmp 0x520272(pc, d0.w)
       0x00520272      000a0010       
       0x00520273      0a001000       eori.b 0x0, d0
       0x00520277      1600           move.b d0, d3
       0x00520279      1c00           move.b d0, d6
       0x0052027b      2210           move.l (a0), d1
       0x0052027d      bc00           cmp.b d0, d6
       0x0052027f      1e601610       
   < 0x00520280      6016           bra.b 0x520298
      0x00520282      10bc001f       move.b 0x1f, (a0)
  < 0x00520286      6010           bra.b 0x520298
     0x00520288      10bc0020       move.b 0x20, (a0)
  < 0x0052028c      600a           bra.b 0x520298
     0x0052028e      10bc0021       move.b 0x21, (a0)
  < 0x00520292      6004           bra.b 0x520298
     0x00520294      10bc0022       move.b 0x22, (a0)
  > 0x00520298      4cdf0307       movem.l (a7)+, d0-d2/a0-a1
            0x0052029c      4e5e           unlk a6
            0x0052029e      4e75           rts
            ; CALL XREF from PANEL_PREFETCH.wait_store @ 0x78c8fe
 22: BRUSHCOM.br_lock_bus ();
           0x005202a0      4e560000       link.w a6, 0x0
           0x005202a4      48790083e77a   pea.l 0x83e77a
           0x005202aa      4eb9004023c4   jsr p_Wait
           0x005202b0      584f           addq.w 0x4, a7
           0x005202b2      4e5e           unlk a6
           0x005202b4      4e75           rts
            ; CALL XREF from PANEL_PREFETCH.signal_store @ 0x78c96e
 22: BRUSHCOM.br_unlock_bus ();
           0x005202b6      4e560000       link.w a6, 0x0
           0x005202ba      48790083e77a   pea.l 0x83e77a
           0x005202c0      4eb90040234e   jsr p_Signal
           0x005202c6      584f           addq.w 0x4, a7
           0x005202c8      4e5e           unlk a6
           0x005202ca      4e75           rts
 24: BRUSHCOM.br_bus_engaged ();
           0x005202cc      4e560000       link.w a6, 0x0
           0x005202d0      422e0008       clr.b 0x8(a6)
           0x005202d4      4a790083e784   tst.w 0x83e784
       < 0x005202da      6c04           bge.b 0x5202e0
          0x005202dc      522e0008       addq.b 0x1, 0x8(a6)
       > 0x005202e0      4e5e           unlk a6
           0x005202e2      4e75           rts
            ; XREFS: CALL 0x00529850  CALL 0x005298f2  CALL 0x005299ec  
            ; XREFS: CALL 0x00529a5a  CALL 0x00677c8a  CALL 0x00677e20  
            ; XREFS: CALL 0x006780da  
 570: BRUSHCOM.br_image ();
           0x005202e4      4e56fff4       link.w a6, 0xfff4
           0x005202e8      48e7fff8       movem.l d0-d7/a0-a4, -(a7)
           0x005202ec      43ee0018       lea.l 0x18(a6), a1
           0x005202f0      45ee000e       lea.l 0xe(a6), a2
           0x005202f4      47ee0016       lea.l 0x16(a6), a3
           0x005202f8      49ee000c       lea.l 0xc(a6), a4
           0x005202fc      7a01           moveq 0x1, d5
           0x005202fe      7c02           moveq 0x2, d6
           0x00520300      4ebaef96       jsr BRUSHCOM.brush_wait(pc)
           0x00520304      33fc4000fff8.  move.w 0x4000, 0xfff8000c.l
           0x0052030c      102e001a       move.b 0x1a(a6), d0
           0x00520310      4880           ext.w d0
           0x00520312      41fae8fa       lea.l 0x51ec0e(pc), a0
           0x00520316      3200           move.w d0, d1
           0x00520318      e649           lsr.w 0x3, d1
           0x0052031a      01301000       btst.l d0, (a0, d1.w)
       < 0x0052031e      6718           beq.b 0x520338
          0x00520320      13fc00050083.  move.b 0x5, 0x83e74a.l
          0x00520328      1f05           move.b d5, -(a7)
          0x0052032a      1f3c0003       move.b 0x3, -(a7)
          0x0052032e      4227           clr.b -(a7)
          0x00520330      4eb900707ce6   jsr gord_in_route
          0x00520336      5c4f           addq.w 0x6, a7
       > 0x00520338      41fae8d6       lea.l 0x51ec10(pc), a0
           0x0052033c      3200           move.w d0, d1
           0x0052033e      e649           lsr.w 0x3, d1
           0x00520340      01301000       btst.l d0, (a0, d1.w)
       < 0x00520344      6718           beq.b 0x52035e
          0x00520346      3213           move.w (a3), d1
          0x00520348      48c1           ext.l d1
          0x0052034a      5381           subq.l 0x1, d1
          0x0052034c      33c1fff94022   move.w d1, 0xfff94022
          0x00520352      3211           move.w (a1), d1
          0x00520354      48c1           ext.l d1
          0x00520356      5381           subq.l 0x1, d1
          0x00520358      33c1fff94024   move.w d1, 0xfff94024
       > 0x0052035e      3200           move.w d0, d1
           0x00520360      0c410009       cmpi.w 0x9, d1
       < 0x00520364      6266           bhi.b 0x5203cc
          0x00520366      d241           add.w d1, d1
          0x00520368      323b1006       move.w 0x520370(pc, d1.w), d1
          0x0052036c      4efb1002       jmp 0x520370(pc, d1.w)
           0x00520370      00140020       ori.b 0x20, (a4)
           0x00520374      002c00320038   ori.b 0x32, 0x38(a4)
           0x0052037a      003e0044       
           0x0052037b      3e00           move.w d0, d7
           0x0052037d      4400           neg.b d0
           0x0052037f      4a00           tst.b d0
           0x00520381      5000           addq.b 0x8, d0
           0x00520383      563f3c00       
           0x00520384      3f3c0094       move.w 0x94, -(a7)
  > 0x00520388      4ebaefd8       jsr BRUSHCOM.b_setup_control(pc)
     0x0052038c      544f           addq.w 0x2, a7
  < 0x0052038e      603c           bra.b 0x5203cc              ; BRUSHCOM.br_image+0xe8
     0x00520390      3f3c0094       move.w 0x94, -(a7)
     0x00520394      4ebaefcc       jsr BRUSHCOM.b_setup_control(pc)
     0x00520398      544f           addq.w 0x2, a7
  < 0x0052039a      6030           bra.b 0x5203cc              ; BRUSHCOM.br_image+0xe8
     0x0052039c      3f3c0110       move.w 0x110, -(a7)
  < 0x005203a0      60e6           bra.b 0x520388
     0x005203a2      3f3c0111       move.w 0x111, -(a7)
  < 0x005203a6      60e0           bra.b 0x520388
     0x005203a8      3f3c010c       move.w 0x10c, -(a7)
  < 0x005203ac      60da           bra.b 0x520388
      0x005203ae      3f3c010d       move.w 0x10d, -(a7)
   < 0x005203b2      60d4           bra.b 0x520388
       0x005203b4      3f3c010e       move.w 0x10e, -(a7)
    < 0x005203b8      60ce           bra.b 0x520388
        0x005203ba      3f3c010f       move.w 0x10f, -(a7)
     < 0x005203be      60c8           bra.b 0x520388
         0x005203c0      3f3c0113       move.w 0x113, -(a7)
      < 0x005203c4      60c2           bra.b 0x520388
          0x005203c6      3f3c0114       move.w 0x114, -(a7)
       < 0x005203ca      60bc           bra.b 0x520388
 > 0x005203cc      4279fff80040   clr.w 0xfff80040
           0x005203d2      33ee0012fff8.  move.w 0x12(a6), 0xfff840f0.l
           0x005203da      33ee0014fff8.  move.w 0x14(a6), 0xfff840f2.l
           0x005203e2      33ee0012fff8.  move.w 0x12(a6), 0xfff80070.l
           0x005203ea      33ee0014fff8.  move.w 0x14(a6), 0xfff80072.l
           0x005203f2      3213           move.w (a3), d1
           0x005203f4      48c1           ext.l d1
           0x005203f6      2401           move.l d1, d2
           0x005203f8      5382           subq.l 0x1, d2
           0x005203fa      33c2fff80044   move.w d2, 0xfff80044
           0x00520400      3411           move.w (a1), d2
           0x00520402      48c2           ext.l d2
           0x00520404      5382           subq.l 0x1, d2
           0x00520406      33c2fff80046   move.w d2, 0xfff80046
           0x0052040c      33fc0006fff9.  move.w 0x6, 0xfff94060.l
           0x00520414      3414           move.w (a4), d2
           0x00520416      48c2           ext.l d2
           0x00520418      85c6           divs.w d6, d2
           0x0052041a      362e0008       move.w 0x8(a6), d3
           0x0052041e      48c3           ext.l d3
           0x00520420      87fc0004       divs.w 0x4, d3
           0x00520424      c5c3           muls.w d3, d2
           0x00520426      d592           add.l d2, (a2)
           0x00520428      342e000a       move.w 0xa(a6), d2
           0x0052042c      48c2           ext.l d2
           0x0052042e      85fc0004       divs.w 0x4, d2
           0x00520432      48c2           ext.l d2
           0x00520434      d592           add.l d2, (a2)
           0x00520436      33ee0010fff9.  move.w 0x10(a6), 0xfff94062.l
           0x0052043e      2412           move.l (a2), d2
           0x00520440      e08a           lsr.l 0x8, d2
           0x00520442      33c2fff94062   move.w d2, 0xfff94062
           0x00520448      2412           move.l (a2), d2
           0x0052044a      e08a           lsr.l 0x8, d2
           0x0052044c      e08a           lsr.l 0x8, d2
           0x0052044e      33c2fff94062   move.w d2, 0xfff94062
           0x00520454      33fc0020fff9.  move.w 0x20, 0xfff94060.l
           0x0052045c      83fc0004       divs.w 0x4, d1
           0x00520460      9641           sub.w d1, d3
           0x00520462      5243           addq.w 0x1, d3
           0x00520464      48c3           ext.l d3
           0x00520466      2e03           move.l d3, d7
           0x00520468      33c7fff94062   move.w d7, 0xfff94062
           0x0052046e      2807           move.l d7, d4
           0x00520470      263c00000100   move.l 0x100, d3
           0x00520476      4eb900406b50   jsr fcn.00406b50
           0x0052047c      33c4fff94062   move.w d4, 0xfff94062
           0x00520482      33fc0011fff9.  move.w 0x11, 0xfff94060.l
           0x0052048a      5341           subq.w 0x1, d1
           0x0052048c      3681           move.w d1, (a3)
           0x0052048e      33c1fff94062   move.w d1, 0xfff94062
           0x00520494      48c1           ext.l d1
           0x00520496      83fc0100       divs.w 0x100, d1
           0x0052049a      33c1fff94062   move.w d1, 0xfff94062
           0x005204a0      33fc0013fff9.  move.w 0x13, 0xfff94060.l
           0x005204a8      33fc0014fff9.  move.w 0x14, 0xfff94060.l
           0x005204b0      3211           move.w (a1), d1
           0x005204b2      48c1           ext.l d1
           0x005204b4      5381           subq.l 0x1, d1
           0x005204b6      3281           move.w d1, (a1)
           0x005204b8      33c1fff94062   move.w d1, 0xfff94062
           0x005204be      48c1           ext.l d1
           0x005204c0      83fc0100       divs.w 0x100, d1
           0x005204c4      33c1fff94062   move.w d1, 0xfff94062
           0x005204ca      33fc0015fff9.  move.w 0x15, 0xfff94060.l
           0x005204d2      b005           cmp.b d5, d0
       < 0x005204d4      6606           bne.b 0x5204dc
          0x005204d6      3214           move.w (a4), d1
          0x005204d8      c245           and.w d5, d1
      < 0x005204da      6006           bra.b 0x5204e2
      > 0x005204dc      3214           move.w (a4), d1
          0x005204de      c245           and.w d5, d1
          0x005204e0      8246           or.w d6, d1
          ; CODE XREF from BRUSHCOM.br_image @ 0x5204da
      > 0x005204e2      48c1           ext.l d1
           0x005204e4      2e01           move.l d1, d7
           0x005204e6      33c7fff94062   move.w d7, 0xfff94062
           0x005204ec      33c6fff94060   move.w d6, 0xfff94060
           0x005204f2      33fc0007fff9.  move.w 0x7, 0xfff94040.l
           0x005204fa      41fae716       lea.l 0x51ec12(pc), a0
           0x005204fe      3200           move.w d0, d1
           0x00520500      e649           lsr.w 0x3, d1
           0x00520502      01301000       btst.l d0, (a0, d1.w)
       < 0x00520506      6708           beq.b 0x520510
          0x00520508      33c5fff94062   move.w d5, 0xfff94062
      < 0x0052050e      6006           bra.b 0x520516
      > 0x00520510      4279fff94062   clr.w 0xfff94062
          ; CODE XREF from BRUSHCOM.br_image @ 0x52050e
      > 0x00520516      33fc0008fff9.  move.w 0x8, 0xfff94060.l
           0x0052051e      b005           cmp.b d5, d0
       < 0x00520520      6602           bne.b 0x520524
      < 0x00520522      604e           bra.b 0x520572
      > 0x00520524      4a40           tst.w d0
      < 0x00520526      6630           bne.b 0x520558
         0x00520528      33fcffff0083.  move.w 0xffff, 0x83e72a.l
         ; CODE XREF from BRUSHCOM.br_image @ 0x520544
     > 0x00520530      4a790083e72a   tst.w 0x83e72a
    < 0x00520536      670e           beq.b 0x520546
       0x00520538      48780001       pea.l 0x1
       0x0052053c      4eb900402e42   jsr p_Delay
       0x00520542      584f           addq.w 0x4, a7
    < 0x00520544      60ea           bra.b 0x520530
    > 0x00520546      1f05           move.b d5, -(a7)
         0x00520548      1f3c0003       move.b 0x3, -(a7)
         0x0052054c      4227           clr.b -(a7)
         0x0052054e      4eb900707ce6   jsr gord_in_route
         0x00520554      5c4f           addq.w 0x6, a7
     < 0x00520556      601a           bra.b 0x520572
     > 0x00520558      4279fff94020   clr.w 0xfff94020
         0x0052055e      33fc0007fff9.  move.w 0x7, 0xfff94060.l
         0x00520566      3e39fff9400e   move.w 0xfff9400e, d7
         0x0052056c      4279fff80000   clr.w 0xfff80000
         ; CODE XREFS from BRUSHCOM.br_image @ 0x520522, 0x520556
     > 0x00520572      4cdf1fff       movem.l (a7)+, d0-d7/a0-a4
           0x00520576      4e5e           unlk a6
           0x00520578      4e75           rts
 36: BRUSHCOM.br_input_field ();
           0x0052057a      4e560000       link.w a6, 0x0
           0x0052057e      48e78000       movem.l d0, -(a7)
           0x00520582      422e0008       clr.b 0x8(a6)
           0x00520586      3039fffa0000   move.w 0xfffa0000, d0
           0x0052058c      02401000       andi.w 0x1000, d0
       < 0x00520590      6704           beq.b 0x520596
          0x00520592      522e0008       addq.b 0x1, 0x8(a6)
       > 0x00520596      4cdf0001       movem.l (a7)+, d0
           0x0052059a      4e5e           unlk a6
           0x0052059c      4e75           rts
            ; CALL XREF from MENUVTRCOM.upd_timecode @ 0x726362
            ; CALL XREF from MENUVTRCOM.upd_status @ 0x7268c2
            ; CALL XREFS from MENUVTRCOM.upd_vtr_info @ 0x7268fa, 0x72691c
 36: BRUSHCOM.br_output_field ();
           0x0052059e      4e560000       link.w a6, 0x0
           0x005205a2      48e78000       movem.l d0, -(a7)
           0x005205a6      422e0008       clr.b 0x8(a6)
           0x005205aa      3039fffa0000   move.w 0xfffa0000, d0
           0x005205b0      02402000       andi.w 0x2000, d0
       < 0x005205b4      6704           beq.b 0x5205ba
          0x005205b6      522e0008       addq.b 0x1, 0x8(a6)
       > 0x005205ba      4cdf0001       movem.l (a7)+, d0
           0x005205be      4e5e           unlk a6
           0x005205c0      4e75           rts
            ; CALL XREFS from BRUSHCOM.br_vstd_live @ 0x520d5c, 0x520db6, 0x520e08
            ; CALL XREF from BRUSHCOM.br_freeze @ 0x520f6c
 318: BRUSHCOM.field_wait ();
           0x005205c2      4e56ffea       link.w a6, 0xffea
           0x005205c6      48e7f7f8       movem.l d0-d3/d5-d7/a0-a4, -(a7)
           0x005205ca      43f900402e30   lea.l p_Cur_Ticks, a1
           0x005205d0      45eeffea       lea.l -0x16(a6), a2
           0x005205d4      47eefff6       lea.l -0xa(a6), a3
           0x005205d8      49ee0008       lea.l 0x8(a6), a4
           0x005205dc      263c0000ffff   move.l 0xffff, d3
           0x005205e2      7c00           moveq 0x0, d6
           0x005205e4      3a3c1000       move.w 0x1000, d5
           0x005205e8      4a54           tst.w (a4)
       < 0x005205ea      6f5a           ble.b 0x520646
      > 0x005205ec      7e00           moveq 0x0, d7
         0x005205ee      594f           subq.w 0x4, a7
         0x005205f0      4e91           jsr (a1)                    ; fcn.0000000a
         0x005205f2      249f           move.l (a7)+, (a2)
         0x005205f4      3039fffa0000   move.w 0xfffa0000, d0
         0x005205fa      48c0           ext.l d0
         0x005205fc      ca83           and.l d3, d5
         0x005205fe      c085           and.l d5, d0
         0x00520600      3680           move.w d0, (a3)
         0x00520602      2012           move.l (a2), d0
         0x00520604      5880           addq.l 0x4, d0
         ; CODE XREF from BRUSHCOM.field_wait @ 0x520634
     > 0x00520606      3239fffa0000   move.w 0xfffa0000, d1
        0x0052060c      48c1           ext.l d1
        0x0052060e      ca83           and.l d3, d5
        0x00520610      c285           and.l d5, d1
        0x00520612      4282           clr.l d2
        0x00520614      3413           move.w (a3), d2
        0x00520616      b282           cmp.l d2, d1
    < 0x00520618      661c           bne.b 0x520636
       0x0052061a      4a06           tst.b d6
   < 0x0052061c      6618           bne.b 0x520636
      0x0052061e      5287           addq.l 0x1, d7
      0x00520620      7c00           moveq 0x0, d6
      0x00520622      594f           subq.w 0x4, a7
      0x00520624      4e91           jsr (a1)                    ; fcn.0000000a
      0x00520626      b09f           cmp.l (a7)+, d0
  < 0x00520628      6508           bcs.b 0x520632
     0x0052062a      0c8700004e20   cmpi.l 0x4e20, d7
 < 0x00520630      6f02           ble.b 0x520634
 > 0x00520632      5206           addq.b 0x1, d6
 < 0x00520634      60d0           bra.b 0x520606
   > 0x00520636      3014           move.w (a4), d0
         0x00520638      48c0           ext.l d0
         0x0052063a      5380           subq.l 0x1, d0
         0x0052063c      3880           move.w d0, (a4)
         0x0052063e      4a40           tst.w d0
     < 0x00520640      6f04           ble.b 0x520646
        0x00520642      4a06           tst.b d6
     < 0x00520644      67a6           beq.b 0x5205ec
     > 0x00520646      4a06           tst.b d6
       < 0x00520648      66000084       bne.w 0x5206ce
          0x0052064c      302e000a       move.w 0xa(a6), d0
          0x00520650      41fae5c2       lea.l 0x51ec14(pc), a0
          0x00520654      3200           move.w d0, d1
          0x00520656      e649           lsr.w 0x3, d1
          0x00520658      0c410020       cmpi.w 0x20, d1
      < 0x0052065c      6d04           blt.b 0x520662
         0x0052065e      7200           moveq 0x0, d1
     < 0x00520660      6004           bra.b 0x520666
     > 0x00520662      01301000       btst.l d0, (a0, d1.w)
         ; CODE XREF from BRUSHCOM.field_wait @ 0x520660
     < 0x00520666      6766           beq.b 0x5206ce
         0x00520668      302e000a       move.w 0xa(a6), d0
         0x0052066c      48c0           ext.l d0
         0x0052066e      5380           subq.l 0x1, d0
         0x00520670      3d40000a       move.w d0, 0xa(a6)
         0x00520674      c0c5           mulu.w d5, d0
         0x00520676      3239fffa0000   move.w 0xfffa0000, d1
         0x0052067c      48c1           ext.l d1
         0x0052067e      ca83           and.l d3, d5
         0x00520680      c285           and.l d5, d1
         0x00520682      b280           cmp.l d0, d1
     < 0x00520684      6748           beq.b 0x5206ce
        0x00520686      7e00           moveq 0x0, d7
        0x00520688      594f           subq.w 0x4, a7
        0x0052068a      4e91           jsr (a1)                    ; fcn.0000000a
        0x0052068c      249f           move.l (a7)+, (a2)
        0x0052068e      3039fffa0000   move.w 0xfffa0000, d0
        0x00520694      48c0           ext.l d0
        0x00520696      c085           and.l d5, d0
        0x00520698      3680           move.w d0, (a3)
        0x0052069a      2012           move.l (a2), d0
        0x0052069c      5880           addq.l 0x4, d0
        ; CODE XREF from BRUSHCOM.field_wait @ 0x5206cc
    > 0x0052069e      3239fffa0000   move.w 0xfffa0000, d1
       0x005206a4      48c1           ext.l d1
       0x005206a6      ca83           and.l d3, d5
       0x005206a8      c285           and.l d5, d1
       0x005206aa      4282           clr.l d2
       0x005206ac      3413           move.w (a3), d2
       0x005206ae      b282           cmp.l d2, d1
   < 0x005206b0      661c           bne.b 0x5206ce
      0x005206b2      4a06           tst.b d6
  < 0x005206b4      6618           bne.b 0x5206ce
     0x005206b6      5287           addq.l 0x1, d7
     0x005206b8      7c00           moveq 0x0, d6
     0x005206ba      594f           subq.w 0x4, a7
     0x005206bc      4e91           jsr (a1)                    ; fcn.0000000a
     0x005206be      b09f           cmp.l (a7)+, d0
 < 0x005206c0      6508           bcs.b 0x5206ca
    0x005206c2      0c8700004e20   cmpi.l 0x4e20, d7
 < 0x005206c8      6f02           ble.b 0x5206cc
 > 0x005206ca      5206           addq.b 0x1, d6
 < 0x005206cc      60d0           bra.b 0x52069e
  > 0x005206ce      554f           subq.w 0x2, a7
           0x005206d0      4eb900401ee0   jsr p_68040
           0x005206d6      4a1f           tst.b (a7)+
       < 0x005206d8      6712           beq.b 0x5206ec
          0x005206da      7e01           moveq 0x1, d7
      > 0x005206dc      3a39fff9400e   move.w 0xfff9400e, d5
         0x005206e2      5287           addq.l 0x1, d7
         0x005206e4      0c870000012c   cmpi.l 0x12c, d7
      < 0x005206ea      6ff0           ble.b 0x5206dc
       > 0x005206ec      1d46000c       move.b d6, 0xc(a6)
           0x005206f0      442e000c       neg.b 0xc(a6)
           0x005206f4      522e000c       addq.b 0x1, 0xc(a6)
           0x005206f8      4cdf1fef       movem.l (a7)+, d0-d3/d5-d7/a0-a4
           0x005206fc      4e5e           unlk a6
           0x005206fe      4e75           rts
            ; XREFS: CALL 0x004b8f5e  CALL 0x004db6f8  CALL 0x00512716  
            ; XREFS: CALL 0x00719d64  CALL 0x0071d9da  CALL 0x0071db22  
 24: BRUSHCOM.br_live_enabled ();
           0x00520700      4e560000       link.w a6, 0x0
           0x00520704      422e0008       clr.b 0x8(a6)
           0x00520708      4a790083e72a   tst.w 0x83e72a
       < 0x0052070e      6704           beq.b 0x520714
          0x00520710      522e0008       addq.b 0x1, 0x8(a6)
       > 0x00520714      4e5e           unlk a6
           0x00520716      4e75           rts
 16: BRUSHCOM.br_live_ticks ();
           0x00520718      4e560000       link.w a6, 0x0
           0x0052071c      2d790083e72c.  move.l 0x83e72c, 0x8(a6)
           0x00520724      4e5e           unlk a6
           0x00520726      4e75           rts
 12: BRUSHCOM.br_do_nothing ();
           0x00520728      4e560000       link.w a6, 0x0
           0x0052072c      422e0008       clr.b 0x8(a6)
           0x00520730      4e5e           unlk a6
           0x00520732      4e75           rts
            ; CALL XREF from MENUEFFECTCOM.bgnd_clip_buy @ 0x73e5be
            ; CALL XREFS from MENUEFFECTCOM.effect_clip_buy @ 0x73e6ca, 0x73e794
            ; CALL XREF from PANEL_VIDEO.buy_frame @ 0x79758a
 804: BRUSHCOM.br_disk_live ();
           0x00520734      4e56fff6       link.w a6, 0xfff6
           0x00520738      48e7fff8       movem.l d0-d7/a0-a4, -(a7)
           0x0052073c      45f90083e72a   lea.l 0x83e72a, a2
           0x00520742      47ee0034       lea.l 0x34(a6), a3
           0x00520746      7801           moveq 0x1, d4
           0x00520748      7a03           moveq 0x3, d5
           0x0052074a      7c0a           moveq 0xa, d6
           0x0052074c      4a52           tst.w (a2)
       < 0x0052074e      6722           beq.b 0x520772
          0x00520750      487ae4e3       pea.l 0x51ec35(pc)
          0x00520754      4878001c       pea.l 0x1c
          0x00520758      2f17           move.l (a7), -(a7)
          0x0052075a      4eb9004047ea   jsr p_wts_o
          0x00520760      defc000c       adda.w 0xc, a7
          0x00520764      4eb900404946   jsr p_wtln_o
          0x0052076a      422e0036       clr.b 0x36(a6)
      < 0x0052076e      600002e0       bra.w 0x520a50
      > 0x00520772      7e04           moveq 0x4, d7
          0x00520774      302e002a       move.w 0x2a(a6), d0
          0x00520778      48c0           ext.l d0
          0x0052077a      322e001e       move.w 0x1e(a6), d1
          0x0052077e      48c1           ext.l d1
          0x00520780      4481           neg.l d1
          0x00520782      d280           add.l d0, d1
          0x00520784      5281           addq.l 0x1, d1
          0x00520786      3d41fffa       move.w d1, -0x6(a6)
          0x0052078a      342e002c       move.w 0x2c(a6), d2
          0x0052078e      48c2           ext.l d2
          0x00520790      362e0020       move.w 0x20(a6), d3
          0x00520794      48c3           ext.l d3
          0x00520796      4483           neg.l d3
          0x00520798      d682           add.l d2, d3
          0x0052079a      5983           subq.l 0x4, d3
          0x0052079c      3d43fffc       move.w d3, -0x4(a6)
          0x005207a0      33c00083e73a   move.w d0, 0x83e73a
          0x005207a6      5982           subq.l 0x4, d2
          0x005207a8      33c20083e73c   move.w d2, 0x83e73c
          0x005207ae      3e3c0094       move.w 0x94, d7
          0x005207b2      3013           move.w (a3), d0
          0x005207b4      b07ae49c       cmp.w 0x51ec52(pc), d0
      < 0x005207b8      6618           bne.b 0x5207d2
         0x005207ba      102e0032       move.b 0x32(a6), d0
         0x005207be      b004           cmp.b d4, d0
     < 0x005207c0      6608           bne.b 0x5207ca
        0x005207c2      3e3c009c       move.w 0x9c, d7
    < 0x005207c6      600000aa       bra.w 0x520872
    > 0x005207ca      3e3c009b       move.w 0x9b, d7
    < 0x005207ce      600000a2       bra.w 0x520872
    > 0x005207d2      3013           move.w (a3), d0
        0x005207d4      b07ae47e       cmp.w 0x51ec54(pc), d0
    < 0x005207d8      662a           bne.b 0x520804
       0x005207da      102e0032       move.b 0x32(a6), d0
       0x005207de      b004           cmp.b d4, d0
   < 0x005207e0      6606           bne.b 0x5207e8
      0x005207e2      3e3c009e       move.w 0x9e, d7
  < 0x005207e6      6004           bra.b 0x5207ec
  > 0x005207e8      3e3c009d       move.w 0x9d, d7
      ; CODE XREFS from BRUSHCOM.br_disk_live @ 0x5207e6, 0x52081e
  > 0x005207ec      33ee00220083.  move.w 0x22(a6), 0x83e73a.l
      0x005207f4      302e0024       move.w 0x24(a6), d0
      0x005207f8      48c0           ext.l d0
      0x005207fa      5980           subq.l 0x4, d0
      0x005207fc      33c00083e73c   move.w d0, 0x83e73c
  < 0x00520802      606e           bra.b 0x520872
  > 0x00520804      3013           move.w (a3), d0
      0x00520806      b07ae44e       cmp.w 0x51ec56(pc), d0
  < 0x0052080a      6614           bne.b 0x520820
     0x0052080c      102e0032       move.b 0x32(a6), d0
     0x00520810      b004           cmp.b d4, d0
 < 0x00520812      6606           bne.b 0x52081a
    0x00520814      3e3c00a0       move.w 0xa0, d7
 < 0x00520818      6004           bra.b 0x52081e
 > 0x0052081a      3e3c009f       move.w 0x9f, d7
     ; CODE XREF from BRUSHCOM.br_disk_live @ 0x520818
 < 0x0052081e      60cc           bra.b 0x5207ec
   > 0x00520820      3013           move.w (a3), d0
       0x00520822      b07ae434       cmp.w 0x51ec58(pc), d0
   < 0x00520826      6614           bne.b 0x52083c
      0x00520828      102e0032       move.b 0x32(a6), d0
      0x0052082c      b004           cmp.b d4, d0
  < 0x0052082e      6606           bne.b 0x520836
     0x00520830      3e3c00a1       move.w 0xa1, d7
 < 0x00520834      603c           bra.b 0x520872
 > 0x00520836      3e3c0095       move.w 0x95, d7
 < 0x0052083a      6036           bra.b 0x520872
 > 0x0052083c      3013           move.w (a3), d0
     0x0052083e      b07ae41a       cmp.w 0x51ec5a(pc), d0
 < 0x00520842      6614           bne.b 0x520858
    0x00520844      102e0032       move.b 0x32(a6), d0
    0x00520848      b004           cmp.b d4, d0
 < 0x0052084a      6606           bne.b 0x520852
    0x0052084c      3e3c00a2       move.w 0xa2, d7
 < 0x00520850      6020           bra.b 0x520872
 > 0x00520852      3e3c0096       move.w 0x96, d7
 < 0x00520856      601a           bra.b 0x520872
 > 0x00520858      487ae403       pea.l 0x51ec5d(pc)
     0x0052085c      48780026       pea.l 0x26
     0x00520860      2f17           move.l (a7), -(a7)
     0x00520862      4eb9004047ea   jsr p_wts_o
     0x00520868      defc000c       adda.w 0xc, a7
     0x0052086c      4eb900404946   jsr p_wtln_o
     ; XREFS: CODE 0x005207c6  CODE 0x005207ce  CODE 0x00520802  
     ; XREFS: CODE 0x00520834  CODE 0x0052083a  CODE 0x00520850  
     ; XREFS: CODE 0x00520856  
 > 0x00520872      9ec6           suba.w d6, a7
          0x00520874      3f07           move.w d7, -(a7)
          0x00520876      4ebaeac0       jsr BRUSHCOM.b_control_state(pc)
          0x0052087a      544f           addq.w 0x2, a7
          0x0052087c      23df0083e730   move.l (a7)+, 0x83e730
          0x00520882      23df0083e734   move.l (a7)+, 0x83e734
          0x00520888      33df0083e738   move.w (a7)+, 0x83e738
          0x0052088e      13fc00050083.  move.b 0x5, 0x83e74a.l
          0x00520896      1f04           move.b d4, -(a7)
          0x00520898      1f05           move.b d5, -(a7)
          0x0052089a      4227           clr.b -(a7)
          0x0052089c      4eb900707ce6   jsr gord_in_route
          0x005208a2      5c4f           addq.w 0x6, a7
          0x005208a4      4ebae9f2       jsr BRUSHCOM.brush_wait(pc)
          0x005208a8      08130000       btst.b 0x0, (a3)
      < 0x005208ac      6734           beq.b 0x5208e2
         0x005208ae      33fc0010fff8.  move.w 0x10, 0xfff8005e.l
         0x005208b6      4227           clr.b -(a7)
         0x005208b8      2f2e002e       move.l 0x2e(a6), -(a7)
         0x005208bc      2f2e002a       move.l 0x2a(a6), -(a7)
         0x005208c0      4ebaebfc       jsr BRUSHCOM.b_crop_area(pc)
         0x005208c4      dec6           adda.w d6, a7
         0x005208c6      08130002       btst.b 0x2, (a3)
     < 0x005208ca      670e           beq.b 0x5208da
        0x005208cc      1f3c0002       move.b 0x2, -(a7)
        ; CODE XREF from BRUSHCOM.br_disk_live @ 0x5208e0
    > 0x005208d0      2f2e0026       move.l 0x26(a6), -(a7)
       0x005208d4      2f2e0022       move.l 0x22(a6), -(a7)
   < 0x005208d8      6022           bra.b 0x5208fc
   > 0x005208da      0b13           btst.l d5, (a3)
   < 0x005208dc      6724           beq.b 0x520902
      0x005208de      1f05           move.b d5, -(a7)
   < 0x005208e0      60ee           bra.b 0x5208d0
    > 0x005208e2      08130002       btst.b 0x2, (a3)
    < 0x005208e6      6706           beq.b 0x5208ee
       0x005208e8      1f3c0002       move.b 0x2, -(a7)
   < 0x005208ec      6006           bra.b 0x5208f4
   > 0x005208ee      0b13           btst.l d5, (a3)
   < 0x005208f0      6710           beq.b 0x520902
      0x005208f2      1f05           move.b d5, -(a7)
      ; CODE XREF from BRUSHCOM.br_disk_live @ 0x5208ec
   > 0x005208f4      2f2e002e       move.l 0x2e(a6), -(a7)
       0x005208f8      2f2e002a       move.l 0x2a(a6), -(a7)
       ; CODE XREF from BRUSHCOM.br_disk_live @ 0x5208d8
   > 0x005208fc      4ebaebc0       jsr BRUSHCOM.b_crop_area(pc)
        0x00520900      dec6           adda.w d6, a7
     > 0x00520902      4279fff80010   clr.w 0xfff80010
          0x00520908      4279fff80040   clr.w 0xfff80040
          0x0052090e      33c1fff80070   move.w d1, 0xfff80070
          0x00520914      33c3fff80072   move.w d3, 0xfff80072
          0x0052091a      1f04           move.b d4, -(a7)
          0x0052091c      48790083e73a   pea.l 0x83e73a
          0x00520922      48790083e73c   pea.l 0x83e73c
          0x00520928      4ebaeaf2       jsr BRUSHCOM.b_ms_ram_bank_s(pc)
          0x0052092c      dec6           adda.w d6, a7
          0x0052092e      33f90083e73a.  move.w 0x83e73a, 0xfff840f0.l
          0x00520938      33f90083e73c.  move.w 0x83e73c, 0xfff840f2.l
          0x00520942      33f90083e736.  move.w 0x83e736, 0xfff84002.l
          0x0052094c      33f90083e738.  move.w 0x83e738, 0xfff84004.l
          0x00520956      33f90083e732.  move.w 0x83e732, 0xfff80002.l
          0x00520960      33f90083e734.  move.w 0x83e734, 0xfff80004.l
          0x0052096a      4a2e001c       tst.b 0x1c(a6)
      < 0x0052096e      6606           bne.b 0x520976
         0x00520970      34bcfffd       move.w 0xfffd, (a2)
     < 0x00520974      6004           bra.b 0x52097a
     > 0x00520976      34bcfffe       move.w 0xfffe, (a2)
         ; CODE XREF from BRUSHCOM.br_disk_live @ 0x520974
     > 0x0052097a      7e00           moveq 0x0, d7
          ; CODE XREF from BRUSHCOM.br_disk_live @ 0x520996
      > 0x0052097c      4a52           tst.w (a2)
     < 0x0052097e      6c18           bge.b 0x520998
        0x00520980      0c4700c8       cmpi.w 0xc8, d7
    < 0x00520984      6c12           bge.b 0x520998
       0x00520986      48780001       pea.l 0x1
       0x0052098a      4eb900402e42   jsr p_Delay
       0x00520990      584f           addq.w 0x4, a7
       0x00520992      48c7           ext.l d7
       0x00520994      5287           addq.l 0x1, d7
    < 0x00520996      60e4           bra.b 0x52097c
    > 0x00520998      0c4700c8       cmpi.w 0xc8, d7
      < 0x0052099c      6d46           blt.b 0x5209e4
         0x0052099e      487ae2e4       pea.l 0x51ec84(pc)
         0x005209a2      48780026       pea.l 0x26
         0x005209a6      2f17           move.l (a7), -(a7)
         0x005209a8      4eb9004047ea   jsr p_wts_o
         0x005209ae      defc000c       adda.w 0xc, a7
         0x005209b2      4eb900404946   jsr p_wtln_o
         0x005209b8      4252           clr.w (a2)
         0x005209ba      206e0014       movea.l 0x14(a6), a0
         0x005209be      286e0018       movea.l 0x18(a6), a4
         0x005209c2      4e90           jsr (a0)                    ; fcn.00000009
         0x005209c4      286efff2       movea.l -0xe(a6), a4
         0x005209c8      102e0032       move.b 0x32(a6), d0
         0x005209cc      b004           cmp.b d4, d0
     < 0x005209ce      660e           bne.b 0x5209de
        0x005209d0      1f04           move.b d4, -(a7)
        0x005209d2      1f05           move.b d5, -(a7)
        0x005209d4      4227           clr.b -(a7)
        0x005209d6      4eb900707ce6   jsr gord_in_route
        0x005209dc      5c4f           addq.w 0x6, a7
     > 0x005209de      422e0036       clr.b 0x36(a6)
     < 0x005209e2      6060           bra.b 0x520a44
     > 0x005209e4      594f           subq.w 0x4, a7
         0x005209e6      4eb900402e30   jsr p_Cur_Ticks
         0x005209ec      23df0083e72c   move.l (a7)+, 0x83e72c
         0x005209f2      206e0008       movea.l 0x8(a6), a0
         0x005209f6      4210           clr.b (a0)
         0x005209f8      4a2e001c       tst.b 0x1c(a6)
     < 0x005209fc      6742           beq.b 0x520a40
        0x005209fe      206e0008       movea.l 0x8(a6), a0
        ; CODE XREF from BRUSHCOM.br_disk_live @ 0x520a28
    > 0x00520a02      4a52           tst.w (a2)
   < 0x00520a04      6724           beq.b 0x520a2a
      0x00520a06      554f           subq.w 0x2, a7
      0x00520a08      226e000c       movea.l 0xc(a6), a1
      0x00520a0c      286e0010       movea.l 0x10(a6), a4
      0x00520a10      4e91           jsr (a1)                    ; fcn.0000000a
      0x00520a12      286efff2       movea.l -0xe(a6), a4
      0x00520a16      1010           move.b (a0), d0
      0x00520a18      801f           or.b (a7)+, d0
      0x00520a1a      1080           move.b d0, (a0)
      0x00520a1c      48780001       pea.l 0x1
      0x00520a20      4eb900402e42   jsr p_Delay
      0x00520a26      584f           addq.w 0x4, a7
   < 0x00520a28      60d8           bra.b 0x520a02
   > 0x00520a2a      102e0032       move.b 0x32(a6), d0
        0x00520a2e      b004           cmp.b d4, d0
    < 0x00520a30      660e           bne.b 0x520a40
       0x00520a32      1f04           move.b d4, -(a7)
       0x00520a34      1f05           move.b d5, -(a7)
       0x00520a36      4227           clr.b -(a7)
       0x00520a38      4eb900707ce6   jsr gord_in_route
       0x00520a3e      5c4f           addq.w 0x6, a7
    > 0x00520a40      1d440036       move.b d4, 0x36(a6)
         ; CODE XREF from BRUSHCOM.br_disk_live @ 0x5209e2
     > 0x00520a44      08130000       btst.b 0x0, (a3)
      < 0x00520a48      6706           beq.b 0x520a50
         0x00520a4a      4279fff8005e   clr.w 0xfff8005e
         ; CODE XREF from BRUSHCOM.br_disk_live @ 0x52076e
      > 0x00520a50      4cdf1fff       movem.l (a7)+, d0-d7/a0-a4
           0x00520a54      4e5e           unlk a6
           0x00520a56      4e75           rts
            ; CALL XREF from BRUSHCOM.br_vstd_live @ 0x520c88
 104: BRUSHCOM.get_live_setup ();
           0x00520a58      4e560000       link.w a6, 0x0
           0x00520a5c      48e7e0c0       movem.l d0-d2/a0-a1, -(a7)
           0x00520a60      43ee000c       lea.l 0xc(a6), a1
           0x00520a64      740e           moveq 0xe, d2
           0x00520a66      554f           subq.w 0x2, a7
           0x00520a68      1f2e000a       move.b 0xa(a6), -(a7)
           0x00520a6c      1f2e0008       move.b 0x8(a6), -(a7)
           0x00520a70      4ebaf712       jsr BRUSHCOM.store_and_plane(pc)
           0x00520a74      584f           addq.w 0x4, a7
           0x00520a76      1017           move.b (a7), d0
           0x00520a78      b002           cmp.b d2, d0
       < 0x00520a7a      6d14           blt.b 0x520a90
          0x00520a7c      b002           cmp.b d2, d0
      < 0x00520a7e      670000c4       beq.w 0x520b44
         0x00520a82      0c00001e       cmpi.b 0x1e, d0
     < 0x00520a86      670000c4       beq.w 0x520b4c
        0x00520a8a      544f           addq.w 0x2, a7
    < 0x00520a8c      600000c8       bra.w 0x520b56
    > 0x00520a90      4880           ext.w d0
        0x00520a92      0c40000b       cmpi.w 0xb, d0
    < 0x00520a96      6306           bls.b 0x520a9e
       0x00520a98      544f           addq.w 0x2, a7
   < 0x00520a9a      600000ba       bra.w 0x520b56
   > 0x00520a9e      d040           add.w d0, d0
       0x00520aa0      303b0006       move.w 0x520aa8(pc, d0.w), d0
       0x00520aa4      4efb0002       jmp 0x520aa8(pc, d0.w)
        0x00520aa8      00180034       ori.b 0x34, (a0)+
        0x00520aac      00ae00ae008c.  ori.l 0xae008c, 0x22(a6)
        0x00520ab4      005c00ae       ori.w 0xae, (a4)+
        0x00520ab8      00ae0094002c.  ori.l 0x94002c, 0x84(a6)
        0x00520ac0      32bc0095       move.w 0x95, (a1)
        0x00520ac4      544f           addq.w 0x2, a7
    < 0x00520ac6      6000008e       bra.w 0x520b56              ; BRUSHCOM.get_live_setup+0xfe
       0x00520aca      32bc0096       move.w 0x96, (a1)
       0x00520ace      544f           addq.w 0x2, a7
   < 0x00520ad0      60000084       bra.w 0x520b56              ; BRUSHCOM.get_live_setup+0xfe
      0x00520ad4      32bc00a3       move.w 0xa3, (a1)
      0x00520ad8      544f           addq.w 0x2, a7
  < 0x00520ada      607a           bra.b 0x520b56              ; BRUSHCOM.get_live_setup+0xfe
     0x00520adc      554f           subq.w 0x2, a7
     0x00520ade      4eb9004755c2   jsr CONFIG.cfg_gender
     0x00520ae4      101f           move.b (a7)+, d0
     0x00520ae6      4880           ext.w d0
     0x00520ae8      41fae1c0       lea.l 0x51ecaa(pc), a0
     0x00520aec      3200           move.w d0, d1
     0x00520aee      e649           lsr.w 0x3, d1
     0x00520af0      01301000       btst.l d0, (a0, d1.w)
  < 0x00520af4      6706           beq.b 0x520afc
     0x00520af6      32bc00a1       move.w 0xa1, (a1)
  < 0x00520afa      6004           bra.b 0x520b00
  > 0x00520afc      32bc0097       move.w 0x97, (a1)
  > 0x00520b00      544f           addq.w 0x2, a7
  < 0x00520b02      6052           bra.b 0x520b56              ; BRUSHCOM.get_live_setup+0xfe
     0x00520b04      554f           subq.w 0x2, a7
     0x00520b06      4eb9004755c2   jsr CONFIG.cfg_gender
     0x00520b0c      101f           move.b (a7)+, d0
     0x00520b0e      4880           ext.w d0
     0x00520b10      41fae19c       lea.l 0x51ecae(pc), a0
     0x00520b14      3200           move.w d0, d1
     0x00520b16      e649           lsr.w 0x3, d1
     0x00520b18      01301000       btst.l d0, (a0, d1.w)
  < 0x00520b1c      6706           beq.b 0x520b24
     0x00520b1e      32bc00a2       move.w 0xa2, (a1)
  < 0x00520b22      6004           bra.b 0x520b28
  > 0x00520b24      32bc0098       move.w 0x98, (a1)
  > 0x00520b28      544f           addq.w 0x2, a7
  < 0x00520b2a      602a           bra.b 0x520b56              ; BRUSHCOM.get_live_setup+0xfe
     0x00520b2c      32bc00a4       move.w 0xa4, (a1)
     0x00520b30      544f           addq.w 0x2, a7
  < 0x00520b32      6022           bra.b 0x520b56              ; BRUSHCOM.get_live_setup+0xfe
     0x00520b34      32bc0099       move.w 0x99, (a1)
     0x00520b38      544f           addq.w 0x2, a7
  < 0x00520b3a      601a           bra.b 0x520b56              ; BRUSHCOM.get_live_setup+0xfe
     0x00520b3c      32bc009a       move.w 0x9a, (a1)
     0x00520b40      544f           addq.w 0x2, a7
  < 0x00520b42      6012           bra.b 0x520b56              ; BRUSHCOM.get_live_setup+0xfe
 > 0x00520b44      32bc00a5       move.w 0xa5, (a1)
     0x00520b48      544f           addq.w 0x2, a7
 < 0x00520b4a      600a           bra.b 0x520b56
 > 0x00520b4c      32bc00e2       move.w 0xe2, (a1)
     0x00520b50      544f           addq.w 0x2, a7
 < 0x00520b52      6002           bra.b 0x520b56
     0x00520b54      544f           addq.w 0x2, a7
    ; CODE XREFS from BRUSHCOM.get_live_setup @ 0x520a8c, 0x520a9a, 0x520b4a, 0x520b52
 > 0x00520b56      4cdf0307       movem.l (a7)+, d0-d2/a0-a1
           0x00520b5a      4e5e           unlk a6
           0x00520b5c      4e75           rts
            ; CALL XREFS from BRUSHCOM.br_vstd_live @ 0x520d68, 0x520d80
 58: BRUSHCOM.select_live_inp ();
           0x00520b5e      4e56fffe       link.w a6, 0xfffe
           0x00520b62      48e7f980       movem.l d0-d4/d7/a0, -(a7)
           0x00520b66      41f90051c696   lea.l BRUSHIOMAV.br_set_input, a0
           0x00520b6c      7402           moveq 0x2, d2
           0x00520b6e      7601           moveq 0x1, d3
           0x00520b70      7803           moveq 0x3, d4
           0x00520b72      554f           subq.w 0x2, a7
           0x00520b74      4eb9004755c2   jsr CONFIG.cfg_gender
           0x00520b7a      101f           move.b (a7)+, d0
           0x00520b7c      0c00000b       cmpi.b 0xb, d0
       < 0x00520b80      663c           bne.b 0x520bbe
          0x00520b82      102c002a       move.b 0x2a(a4), d0
          0x00520b86      4880           ext.w d0
          0x00520b88      5340           subq.w 0x1, d0
          0x00520b8a      b042           cmp.w d2, d0
      < 0x00520b8c      621c           bhi.b 0x520baa
         0x00520b8e      d040           add.w d0, d0
         0x00520b90      303b0006       move.w 0x520b98(pc, d0.w), d0
         0x00520b94      4efb0002       jmp 0x520b98(pc, d0.w)
          0x00520b98      0006000a       ori.b 0xa, d6
          0x00520b9c      000e7e07       
          0x00520b9d      0e7e0760       
          0x00520b9e      7e07           moveq 0x7, d7
      < 0x00520ba0      600a           bra.b 0x520bac
         0x00520ba2      7e06           moveq 0x6, d7
     < 0x00520ba4      6006           bra.b 0x520bac
        0x00520ba6      7e05           moveq 0x5, d7
    < 0x00520ba8      6002           bra.b 0x520bac
    > 0x00520baa      7e04           moveq 0x4, d7
    > 0x00520bac      1f07           move.b d7, -(a7)
           0x00520bae      1f04           move.b d4, -(a7)
           0x00520bb0      4227           clr.b -(a7)
           0x00520bb2      4eb900707ce6   jsr gord_in_route
           0x00520bb8      5c4f           addq.w 0x6, a7
       < 0x00520bba      60000096       bra.w 0x520c52
       > 0x00520bbe      554f           subq.w 0x2, a7
           0x00520bc0      4eb900475a5a   jsr CONFIG.cfg_dougal
           0x00520bc6      4a1f           tst.b (a7)+
       < 0x00520bc8      66000088       bne.w 0x520c52
          0x00520bcc      102c002a       move.b 0x2a(a4), d0
          0x00520bd0      b003           cmp.b d3, d0
      < 0x00520bd2      6706           beq.b 0x520bda
         0x00520bd4      b002           cmp.b d2, d0
     < 0x00520bd6      6714           beq.b 0x520bec
    < 0x00520bd8      6020           bra.b 0x520bfa
    > 0x00520bda      4227           clr.b -(a7)
        0x00520bdc      3f02           move.w d2, -(a7)
        0x00520bde      4e90           jsr (a0)                    ; fcn.00000009
        0x00520be0      544f           addq.w 0x2, a7
        0x00520be2      1e82           move.b d2, (a7)
        0x00520be4      4267           clr.w -(a7)
        ; CODE XREFS from BRUSHCOM @ +0x2cba, +0x2cc8
   > 0x00520be6      4e90           jsr (a0)                    ; fcn.00000009
      0x00520be8      584f           addq.w 0x4, a7
  < 0x00520bea      601c           bra.b 0x520c08
  > 0x00520bec      4227           clr.b -(a7)
      0x00520bee      3f04           move.w d4, -(a7)
      0x00520bf0      4e90           jsr (a0)                    ; fcn.00000009
      0x00520bf2      544f           addq.w 0x2, a7
      0x00520bf4      1e82           move.b d2, (a7)
      0x00520bf6      3f03           move.w d3, -(a7)
  < 0x00520bf8      60ec           bra.b 0x520be6
       ; CODE XREF from BRUSHCOM @ +0x2c9a
   > 0x00520bfa      4227           clr.b -(a7)
        0x00520bfc      3f03           move.w d3, -(a7)
        0x00520bfe      4e90           jsr (a0)                    ; fcn.00000009
        0x00520c00      544f           addq.w 0x2, a7
        0x00520c02      1e82           move.b d2, (a7)
        0x00520c04      3f02           move.w d2, -(a7)
     < 0x00520c06      60de           bra.b 0x520be6
         ; CODE XREF from BRUSHCOM @ +0x2cac
  > 0x00520c08      122c0028       move.b 0x28(a4), d1
          0x00520c0c      b203           cmp.b d3, d1
      < 0x00520c0e      6706           beq.b 0x520c16
         0x00520c10      b202           cmp.b d2, d1
     < 0x00520c12      670c           beq.b 0x520c20
    < 0x00520c14      6010           bra.b 0x520c26
    > 0x00520c16      1f03           move.b d3, -(a7)
        0x00520c18      3f02           move.w d2, -(a7)
        ; CODE XREFS from BRUSHCOM @ +0x2ce6, +0x2cec
   > 0x00520c1a      4e90           jsr (a0)                    ; fcn.00000009
      0x00520c1c      584f           addq.w 0x4, a7
  < 0x00520c1e      600c           bra.b 0x520c2c
  > 0x00520c20      1f03           move.b d3, -(a7)
      0x00520c22      3f04           move.w d4, -(a7)
  < 0x00520c24      60f4           bra.b 0x520c1a
       ; CODE XREF from BRUSHCOM @ +0x2cd6
   > 0x00520c26      1f03           move.b d3, -(a7)
        0x00520c28      3f03           move.w d3, -(a7)
     < 0x00520c2a      60ee           bra.b 0x520c1a
         ; CODE XREF from BRUSHCOM @ +0x2ce0
  > 0x00520c2c      1f3c0005       move.b 0x5, -(a7)
          0x00520c30      4227           clr.b -(a7)
          0x00520c32      4a00           tst.b d0
      < 0x00520c34      6602           bne.b 0x520c38
         0x00520c36      5217           addq.b 0x1, (a7)
      > 0x00520c38      1017           move.b (a7), d0
          0x00520c3a      4880           ext.w d0
          0x00520c3c      3e80           move.w d0, (a7)
          0x00520c3e      4e90           jsr (a0)                    ; fcn.00000009
          0x00520c40      544f           addq.w 0x2, a7
          0x00520c42      1ebc0006       move.b 0x6, (a7)
          0x00520c46      102c0022       move.b 0x22(a4), d0
          0x00520c4a      4880           ext.w d0
          0x00520c4c      3f00           move.w d0, -(a7)
          0x00520c4e      4e90           jsr (a0)                    ; fcn.00000009
          0x00520c50      584f           addq.w 0x4, a7
          ; CODE XREF from BRUSHCOM @ +0x2c7c
       > 0x00520c52      4cdf019f       movem.l (a7)+, d0-d4/d7/a0
            0x00520c56      4e5e           unlk a6
            0x00520c58      4e75           rts
            ; CALL XREF from BRUSHCOM.br_live @ 0x520eec
 604: BRUSHCOM.br_vstd_live ();
           0x00520c5a      4e56fffa       link.w a6, 0xfffa
           0x00520c5e      48e7fff8       movem.l d0-d7/a0-a4, -(a7)
           0x00520c62      41f90083e73a   lea.l 0x83e73a, a0
           0x00520c68      43f90083e73e   lea.l 0x83e73e, a1
           0x00520c6e      45f90083e72a   lea.l 0x83e72a, a2
           0x00520c74      47ee001c       lea.l 0x1c(a6), a3
           0x00520c78      7201           moveq 0x1, d1
           0x00520c7a      7403           moveq 0x3, d2
           0x00520c7c      7607           moveq 0x7, d3
           0x00520c7e      780a           moveq 0xa, d4
           0x00520c80      554f           subq.w 0x2, a7
           0x00520c82      1f13           move.b (a3), -(a7)
           0x00520c84      1f2e001a       move.b 0x1a(a6), -(a7)
           0x00520c88      4ebafdce       jsr BRUSHCOM.get_live_setup(pc)
           0x00520c8c      584f           addq.w 0x4, a7
           0x00520c8e      3c17           move.w (a7), d6
           0x00520c90      514f           subq.w 0x8, a7
           0x00520c92      3f06           move.w d6, -(a7)
           0x00520c94      4ebae6a2       jsr BRUSHCOM.b_control_state(pc)
           0x00520c98      544f           addq.w 0x2, a7
           0x00520c9a      23df0083e730   move.l (a7)+, 0x83e730
           0x00520ca0      23df0083e734   move.l (a7)+, 0x83e734
           0x00520ca6      33df0083e738   move.w (a7)+, 0x83e738
           0x00520cac      296e00100002   move.l 0x10(a6), 0x2(a4)
           0x00520cb2      296e00140006   move.l 0x14(a6), 0x6(a4)
           0x00520cb8      20ae0010       move.l 0x10(a6), (a0)
           0x00520cbc      22ae0014       move.l 0x14(a6), (a1)
           0x00520cc0      30390083e73c   move.w 0x83e73c, d0
           0x00520cc6      48c0           ext.l d0
           0x00520cc8      5980           subq.l 0x4, d0
           0x00520cca      33c00083e73c   move.w d0, 0x83e73c
           0x00520cd0      30390083e740   move.w 0x83e740, d0
           0x00520cd6      48c0           ext.l d0
           0x00520cd8      5880           addq.l 0x4, d0
           0x00520cda      33c00083e740   move.w d0, 0x83e740
           0x00520ce0      7a00           moveq 0x0, d5
           0x00520ce2      102e0020       move.b 0x20(a6), d0
           0x00520ce6      b0390083e74a   cmp.b 0x83e74a, d0
       < 0x00520cec      660c           bne.b 0x520cfa
          0x00520cee      102e001e       move.b 0x1e(a6), d0
          0x00520cf2      b0390083e74b   cmp.b 0x83e74b, d0
      < 0x00520cf8      6702           beq.b 0x520cfc
      > 0x00520cfa      5205           addq.b 0x1, d5
      > 0x00520cfc      4a05           tst.b d5
       < 0x00520cfe      670a           beq.b 0x520d0a
          0x00520d00      4aae0008       tst.l 0x8(a6)
      < 0x00520d04      6f04           ble.b 0x520d0a
         0x00520d06      54ae0008       addq.l 0x2, 0x8(a6)
      > 0x00520d0a      7e00           moveq 0x0, d7
           0x00520d0c      422efffc       clr.b -0x4(a6)
           0x00520d10      422efffd       clr.b -0x3(a6)
           0x00520d14      4a52           tst.w (a2)
       < 0x00520d16      675a           beq.b 0x520d72
          0x00520d18      422efffd       clr.b -0x3(a6)
          0x00520d1c      4a05           tst.b d5
      < 0x00520d1e      6620           bne.b 0x520d40
         0x00520d20      bc790083e74c   cmp.w 0x83e74c, d6
     < 0x00520d26      6618           bne.b 0x520d40
        0x00520d28      3010           move.w (a0), d0
        0x00520d2a      b0790083e742   cmp.w 0x83e742, d0
    < 0x00520d30      660e           bne.b 0x520d40
       0x00520d32      30390083e73c   move.w 0x83e73c, d0
       0x00520d38      b0790083e744   cmp.w 0x83e744, d0
   < 0x00520d3e      6704           beq.b 0x520d44
   > 0x00520d40      522efffd       addq.b 0x1, -0x3(a6)
   > 0x00520d44      4a2efffd       tst.b -0x3(a6)
      < 0x00520d48      672c           beq.b 0x520d76
         0x00520d4a      1d41fffc       move.b d1, -0x4(a6)
         0x00520d4e      3f03           move.w d3, -(a7)
         0x00520d50      4eb9004033f0   jsr p_Inhibit
         0x00520d56      3f2e000e       move.w 0xe(a6), -(a7)
         0x00520d5a      3f01           move.w d1, -(a7)
         0x00520d5c      4ebaf864       jsr BRUSHCOM.field_wait(pc)
         0x00520d60      584f           addq.w 0x4, a7
         0x00520d62      1e1f           move.b (a7)+, d7
         0x00520d64      49eefff6       lea.l -0xa(a6), a4
         0x00520d68      4ebafdf4       jsr BRUSHCOM.select_live_inp(pc)
         0x00520d6c      286efff6       movea.l -0xa(a6), a4
     < 0x00520d70      6004           bra.b 0x520d76
     > 0x00520d72      4ebae524       jsr BRUSHCOM.brush_wait(pc)
         ; CODE XREF from BRUSHCOM.br_vstd_live @ 0x520d70
     > 0x00520d76      4a2efffd       tst.b -0x3(a6)
       < 0x00520d7a      6642           bne.b 0x520dbe
          0x00520d7c      49eefff6       lea.l -0xa(a6), a4
          0x00520d80      4ebafddc       jsr BRUSHCOM.select_live_inp(pc)
          0x00520d84      286efff6       movea.l -0xa(a6), a4
          0x00520d88      3f3c0094       move.w 0x94, -(a7)
          0x00520d8c      4ebae5d4       jsr BRUSHCOM.b_setup_control(pc)
          0x00520d90      544f           addq.w 0x2, a7
          0x00520d92      1d41fffc       move.b d1, -0x4(a6)
          0x00520d96      3f03           move.w d3, -(a7)
          0x00520d98      4eb9004033f0   jsr p_Inhibit
          0x00520d9e      544f           addq.w 0x2, a7
          0x00520da0      4a05           tst.b d5
      < 0x00520da2      670a           beq.b 0x520dae
         0x00520da4      554f           subq.w 0x2, a7
         0x00520da6      3f2e000e       move.w 0xe(a6), -(a7)
         0x00520daa      3f02           move.w d2, -(a7)
     < 0x00520dac      6008           bra.b 0x520db6
     > 0x00520dae      554f           subq.w 0x2, a7
         0x00520db0      3f2e000e       move.w 0xe(a6), -(a7)
         0x00520db4      3f01           move.w d1, -(a7)
         ; CODE XREF from BRUSHCOM.br_vstd_live @ 0x520dac
     > 0x00520db6      4ebaf80a       jsr BRUSHCOM.field_wait(pc)
          0x00520dba      584f           addq.w 0x4, a7
          0x00520dbc      1e1f           move.b (a7)+, d7
       > 0x00520dbe      4a07           tst.b d7
       < 0x00520dc0      675c           beq.b 0x520e1e
          0x00520dc2      3f06           move.w d6, -(a7)
          0x00520dc4      4ebae59c       jsr BRUSHCOM.b_setup_control(pc)
          0x00520dc8      1e93           move.b (a3), (a7)
          0x00520dca      2f11           move.l (a1), -(a7)
          0x00520dcc      2f10           move.l (a0), -(a7)
          0x00520dce      4ebaea56       jsr BRUSHCOM.b_dest_area(pc)
          0x00520dd2      504f           addq.w 0x8, a7
          0x00520dd4      1e93           move.b (a3), (a7)
          0x00520dd6      2f2c0006       move.l 0x6(a4), -(a7)
          0x00520dda      2f2c0002       move.l 0x2(a4), -(a7)
          0x00520dde      4ebae6de       jsr BRUSHCOM.b_crop_area(pc)
          0x00520de2      dec4           adda.w d4, a7
          0x00520de4      4279fff80000   clr.w 0xfff80000
          0x00520dea      594f           subq.w 0x4, a7
          0x00520dec      4eb900402e30   jsr p_Cur_Ticks
          0x00520df2      23df0083e72c   move.l (a7)+, 0x83e72c
          0x00520df8      3482           move.w d2, (a2)
          0x00520dfa      4aae0008       tst.l 0x8(a6)
      < 0x00520dfe      6f5e           ble.b 0x520e5e
         0x00520e00      554f           subq.w 0x2, a7
         0x00520e02      4267           clr.w -(a7)
         0x00520e04      3f2e000a       move.w 0xa(a6), -(a7)
         0x00520e08      4ebaf7b8       jsr BRUSHCOM.field_wait(pc)
         0x00520e0c      584f           addq.w 0x4, a7
         0x00520e0e      1e1f           move.b (a7)+, d7
         ; CODE XREF from BRUSHCOM.br_vstd_live @ 0x520e24
     > 0x00520e10      3f3c0093       move.w 0x93, -(a7)
        0x00520e14      4ebae54c       jsr BRUSHCOM.b_setup_control(pc)
        0x00520e18      544f           addq.w 0x2, a7
        0x00520e1a      4252           clr.w (a2)
    < 0x00520e1c      6040           bra.b 0x520e5e
    > 0x00520e1e      4aae0008       tst.l 0x8(a6)
    < 0x00520e22      6f02           ble.b 0x520e26
    < 0x00520e24      60ea           bra.b 0x520e10
     > 0x00520e26      3f06           move.w d6, -(a7)
         0x00520e28      4ebae538       jsr BRUSHCOM.b_setup_control(pc)
         0x00520e2c      1e93           move.b (a3), (a7)
         0x00520e2e      2f11           move.l (a1), -(a7)
         0x00520e30      2f10           move.l (a0), -(a7)
         0x00520e32      4ebae9f2       jsr BRUSHCOM.b_dest_area(pc)
         0x00520e36      504f           addq.w 0x8, a7
         0x00520e38      1e93           move.b (a3), (a7)
         0x00520e3a      2f2c0006       move.l 0x6(a4), -(a7)
         0x00520e3e      2f2c0002       move.l 0x2(a4), -(a7)
         0x00520e42      4ebae67a       jsr BRUSHCOM.b_crop_area(pc)
         0x00520e46      dec4           adda.w d4, a7
         0x00520e48      4279fff80000   clr.w 0xfff80000
         0x00520e4e      594f           subq.w 0x4, a7
         0x00520e50      4eb900402e30   jsr p_Cur_Ticks
         0x00520e56      23df0083e72c   move.l (a7)+, 0x83e72c
         0x00520e5c      3482           move.w d2, (a2)
         ; CODE XREF from BRUSHCOM.br_vstd_live @ 0x520e1c
    > 0x00520e5e      4a2efffc       tst.b -0x4(a6)
       < 0x00520e62      6706           beq.b 0x520e6a
          0x00520e64      4eb9004034a8   jsr p_Enable
       > 0x00520e6a      4a07           tst.b d7
       < 0x00520e6c      661a           bne.b 0x520e88
          0x00520e6e      487ade43       pea.l 0x51ecb3(pc)
          0x00520e72      48780020       pea.l 0x20
          0x00520e76      2f17           move.l (a7), -(a7)
          0x00520e78      4eb9004047ea   jsr p_wts_o
          0x00520e7e      defc000c       adda.w 0xc, a7
          0x00520e82      4eb900404946   jsr p_wtln_o
       > 0x00520e88      23d00083e742   move.l (a0), 0x83e742
           0x00520e8e      23d10083e746   move.l (a1), 0x83e746
           0x00520e94      33c60083e74c   move.w d6, 0x83e74c
           0x00520e9a      13ee00200083.  move.b 0x20(a6), 0x83e74a.l
           0x00520ea2      13ee001e0083.  move.b 0x1e(a6), 0x83e74b.l
           0x00520eaa      1d470022       move.b d7, 0x22(a6)
           0x00520eae      4cdf1fff       movem.l (a7)+, d0-d7/a0-a4
           0x00520eb2      4e5e           unlk a6
           0x00520eb4      4e75           rts
            ; XREFS: CALL 0x004b8fc8  CALL 0x004bd242  CALL 0x004bd284  
            ; XREFS: CALL 0x004bd38e  CALL 0x004bd3c0  CALL 0x004c23f4  
            ; XREFS: CALL 0x004c34ec  CALL 0x004db750  CALL 0x004dbb6e  
            ; XREFS: CALL 0x004dbcc6  CALL 0x004dbe8c  CALL 0x004dc688  
            ; XREFS: CALL 0x007189f6  CALL 0x00718bea  CALL 0x00718c2e  
            ; XREFS: CALL 0x0071bba0  CALL 0x00720ebc  CALL 0x00721c0a  
            ; XREFS: CALL 0x00722c20  CALL 0x0072627a  
 74: BRUSHCOM.br_live ();
           0x00520eb6      4e56fff6       link.w a6, 0xfff6
           0x00520eba      48e78008       movem.l d0/a4, -(a7)
           0x00520ebe      554f           subq.w 0x2, a7
           0x00520ec0      1f2e001e       move.b 0x1e(a6), -(a7)
           0x00520ec4      1f2e001c       move.b 0x1c(a6), -(a7)
           0x00520ec8      1f2e001a       move.b 0x1a(a6), -(a7)
           0x00520ecc      1f2e0018       move.b 0x18(a6), -(a7)
           0x00520ed0      1f2e0016       move.b 0x16(a6), -(a7)
           0x00520ed4      2f2e0012       move.l 0x12(a6), -(a7)
           0x00520ed8      2f2e000e       move.l 0xe(a6), -(a7)
           0x00520edc      302e000c       move.w 0xc(a6), d0
           0x00520ee0      48c0           ext.l d0
           0x00520ee2      2f00           move.l d0, -(a7)
           0x00520ee4      2f2e0008       move.l 0x8(a6), -(a7)
           0x00520ee8      49eefff6       lea.l -0xa(a6), a4
           0x00520eec      4ebafd6c       jsr BRUSHCOM.br_vstd_live(pc)
           0x00520ef0      defc001a       adda.w 0x1a, a7
           0x00520ef4      1d5f0020       move.b (a7)+, 0x20(a6)
           0x00520ef8      4cdf1001       movem.l (a7)+, d0/a4
           0x00520efc      4e5e           unlk a6
           0x00520efe      4e75           rts
            ; XREFS: CALL 0x0047c0aa  CALL 0x0047c5bc  CALL 0x004c2972  
            ; XREFS: CALL 0x004db776  CALL 0x004dbcec  CALL 0x004dc1ac  
            ; XREFS: CALL 0x0050d864  CALL 0x00719526  CALL 0x0071bbe4  
            ; XREFS: CALL 0x0071d7f6  CALL 0x0071db30  CALL 0x0071e3f2  
            ; XREFS: CALL 0x0072155c  CALL 0x00722c64  CALL 0x00723cde  
            ; XREFS: CALL 0x0072759c  CALL 0x0078f63a  
 162: BRUSHCOM.br_freeze ();
           0x00520f00      4e560000       link.w a6, 0x0
           0x00520f04      48e7f080       movem.l d0-d3/a0, -(a7)
           0x00520f08      41f90083e72a   lea.l 0x83e72a, a0
           0x00520f0e      7401           moveq 0x1, d2
           0x00520f10      7602           moveq 0x2, d3
           0x00520f12      4a50           tst.w (a0)
       < 0x00520f14      67000086       beq.w 0x520f9c
          0x00520f18      10390083e74a   move.b 0x83e74a, d0
          0x00520f1e      0c000005       cmpi.b 0x5, d0
      < 0x00520f22      663e           bne.b 0x520f62
         0x00520f24      4a6e0008       tst.w 0x8(a6)
     < 0x00520f28      6602           bne.b 0x520f2c
    < 0x00520f2a      602c           bra.b 0x520f58
    > 0x00520f2c      302e000a       move.w 0xa(a6), d0
        0x00520f30      b042           cmp.w d2, d0
    < 0x00520f32      6612           bne.b 0x520f46
       0x00520f34      3239fffa0000   move.w 0xfffa0000, d1
       0x00520f3a      02412000       andi.w 0x2000, d1
   < 0x00520f3e      6602           bne.b 0x520f42
  < 0x00520f40      6016           bra.b 0x520f58
     ; CODE XREF from BRUSHCOM.br_freeze @ 0x520f56
 > 0x00520f42      3083           move.w d3, (a0)
 < 0x00520f44      6014           bra.b 0x520f5a
 > 0x00520f46      b043           cmp.w d3, d0
 < 0x00520f48      660e           bne.b 0x520f58
    0x00520f4a      3239fffa0000   move.w 0xfffa0000, d1
    0x00520f50      02412000       andi.w 0x2000, d1
 < 0x00520f54      6602           bne.b 0x520f58
 < 0x00520f56      60ea           bra.b 0x520f42
     ; CODE XREFS from BRUSHCOM.br_freeze @ 0x520f2a, 0x520f40
 > 0x00520f58      3082           move.w d2, (a0)
        ; CODE XREFS from BRUSHCOM.br_freeze @ 0x520f44, 0x520f5e
   > 0x00520f5a      4a50           tst.w (a0)
    < 0x00520f5c      673c           beq.b 0x520f9a
    < 0x00520f5e      60fa           bra.b 0x520f5a
     < 0x00520f60      6038           bra.b 0x520f9a              ; BRUSHCOM.br_freeze+0x9a
    > 0x00520f62      554f           subq.w 0x2, a7
        0x00520f64      3f2e000a       move.w 0xa(a6), -(a7)
        0x00520f68      3f2e0008       move.w 0x8(a6), -(a7)
        0x00520f6c      4ebaf654       jsr BRUSHCOM.field_wait(pc)
        0x00520f70      584f           addq.w 0x4, a7
        0x00520f72      4a1f           tst.b (a7)+
    < 0x00520f74      661a           bne.b 0x520f90
       0x00520f76      487add5c       pea.l 0x51ecd4(pc)
       0x00520f7a      48780022       pea.l 0x22
       0x00520f7e      2f17           move.l (a7), -(a7)
       0x00520f80      4eb9004047ea   jsr p_wts_o
       0x00520f86      defc000c       adda.w 0xc, a7
       0x00520f8a      4eb900404946   jsr p_wtln_o
    > 0x00520f90      3f3c0093       move.w 0x93, -(a7)
        0x00520f94      4ebae3cc       jsr BRUSHCOM.b_setup_control(pc)
        0x00520f98      544f           addq.w 0x2, a7
    > 0x00520f9a      4250           clr.w (a0)
       > 0x00520f9c      4cdf010f       movem.l (a7)+, d0-d3/a0
           0x00520fa0      4e5e           unlk a6
           0x00520fa2      4e75           rts
            ; XREFS(138)
 68: BRUSHCOM.set_br_colour ();
           0x00520fa4      4e560000       link.w a6, 0x0
           0x00520fa8      48e78000       movem.l d0, -(a7)
           0x00520fac      4ebae2ea       jsr BRUSHCOM.brush_wait(pc)
           0x00520fb0      302e0008       move.w 0x8(a6), d0
           0x00520fb4      48c0           ext.l d0
           0x00520fb6      e180           asl.l 0x8, d0
           0x00520fb8      33c0fff80006   move.w d0, 0xfff80006
           0x00520fbe      33c0fff8000a   move.w d0, 0xfff8000a
           0x00520fc4      302e000a       move.w 0xa(a6), d0
           0x00520fc8      48c0           ext.l d0
           0x00520fca      e180           asl.l 0x8, d0
           0x00520fcc      33c0fff80008   move.w d0, 0xfff80008
           0x00520fd2      302e000c       move.w 0xc(a6), d0
           0x00520fd6      48c0           ext.l d0
           0x00520fd8      e180           asl.l 0x8, d0
           0x00520fda      33c0fff80008   move.w d0, 0xfff80008
           0x00520fe0      4cdf0001       movem.l (a7)+, d0
           0x00520fe4      4e5e           unlk a6
           0x00520fe6      4e75           rts
            ; XREFS(43)
 76: BRUSHCOM.set_br_key_colo ();
           0x00520fe8      4e560000       link.w a6, 0x0
           0x00520fec      48e78000       movem.l d0, -(a7)
           0x00520ff0      4ebae2a6       jsr BRUSHCOM.brush_wait(pc)
           0x00520ff4      302e000e       move.w 0xe(a6), d0
           0x00520ff8      48c0           ext.l d0
           0x00520ffa      e180           asl.l 0x8, d0
           0x00520ffc      33c0fff8000a   move.w d0, 0xfff8000a
           0x00521002      302e0008       move.w 0x8(a6), d0
           0x00521006      48c0           ext.l d0
           0x00521008      e180           asl.l 0x8, d0
           0x0052100a      33c0fff80006   move.w d0, 0xfff80006
           0x00521010      302e000a       move.w 0xa(a6), d0
           0x00521014      48c0           ext.l d0
           0x00521016      e180           asl.l 0x8, d0
           0x00521018      33c0fff80008   move.w d0, 0xfff80008
           0x0052101e      302e000c       move.w 0xc(a6), d0
           0x00521022      48c0           ext.l d0
           0x00521024      e180           asl.l 0x8, d0
           0x00521026      33c0fff80008   move.w d0, 0xfff80008
           0x0052102c      4cdf0001       movem.l (a7)+, d0
           0x00521030      4e5e           unlk a6
           0x00521032      4e75           rts
            ; XREFS(21)
 20: BRUSHCOM.br_pressure ();
           0x00521034      4e560000       link.w a6, 0x0
           0x00521038      4ebae25e       jsr BRUSHCOM.brush_wait(pc)
           0x0052103c      33ee0008fff8.  move.w 0x8(a6), 0xfff8000c.l
           0x00521044      4e5e           unlk a6
           0x00521046      4e75           rts
            ; XREFS: CALL 0x004ae846  CALL 0x004ae96a  CALL 0x004afdfe  
            ; XREFS: CALL 0x00636464  CALL 0x00637b66  CALL 0x006385aa  
            ; XREFS: CALL 0x00733d9c  CALL 0x00743c78  
 210: BRUSHCOM.br_get_colour (int32_t arg_ah);
           ; var int32_t var_6h @ a6-0x6
           ; var int32_t var_2h @ a6-0x2
           ; arg int32_t arg_ah @ a6+0xa
           0x00521048      4e56ffd8       link.w a6, 0xffd8
           0x0052104c      48e7e000       movem.l d0-d2, -(a7)
           0x00521050      302e0008       move.w 0x8(a6), d0
           0x00521054      48c0           ext.l d0
           0x00521056      2200           move.l d0, d1
           0x00521058      02810000fff8   andi.l 0xfff8, d1
           0x0052105e      3d41fff2       move.w d1, -0xe(a6)
           0x00521062      3d6e000afff4   move.w 0xa(a6), -0xc(a6)
           0x00521068      3d7c0008fff6   move.w 0x8, -0xa(a6)
           0x0052106e      3d7c0001fff8   move.w 0x1, -0x8(a6)
           0x00521074      4227           clr.b -(a7)
           0x00521076      1f2e000e       move.b 0xe(a6), -(a7)
           0x0052107a      1f2e000c       move.b 0xc(a6), -(a7)
           0x0052107e      2f2efff6       move.l -0xa(a6), -(a7)
           0x00521082      2f2efff2       move.l -0xe(a6), -(a7)
           0x00521086      4eb9005217d8   jsr BRUSHCOM.br_transfer
           0x0052108c      defc000e       adda.w 0xe, a7
           0x00521090      3d79fff50000.  move.w 0xfff50000, -0x1e(a6)
           0x00521098      3d79fff50000.  move.w 0xfff50000, -0x1c(a6)
           0x005210a0      3d79fff50000.  move.w 0xfff50000, -0x1a(a6)
           0x005210a8      3d79fff50000.  move.w 0xfff50000, -0x18(a6)
           0x005210b0      3d79fff50000.  move.w 0xfff50000, -0x16(a6)
           0x005210b8      3d79fff50000.  move.w 0xfff50000, -0x14(a6)
           0x005210c0      3d79fff50000.  move.w 0xfff50000, -0x12(a6)
           0x005210c8      3d79fff50000.  move.w 0xfff50000, -0x10(a6)
           0x005210d0      3200           move.w d0, d1
           0x005210d2      02410007       andi.w 0x7, d1
           0x005210d6      e341           asl.w 0x1, d1
           0x005210d8      4282           clr.l d2
           0x005210da      343610e2       move.w -0x1e(a6, d1.w), d2
           0x005210de      0282000000ff   andi.l 0xff, d2
           0x005210e4      3d42fffa       move.w d2, -0x6(a6)
           0x005210e8      02400006       andi.w 0x6, d0
           0x005210ec      e340           asl.w 0x1, d0
           0x005210ee      4281           clr.l d1
           0x005210f0      323600e2       move.w -0x1e(a6, d0.w), d1
           0x005210f4      e081           asr.l 0x8, d1
           0x005210f6      3d41fffc       move.w d1, -0x4(a6)
           0x005210fa      4281           clr.l d1
           0x005210fc      323600e4       move.w -0x1c(a6, d0.w), d1
           0x00521100      e081           asr.l 0x8, d1
           0x00521102      3d41fffe       move.w d1, -0x2(a6)
           0x00521106      2d6efffa0010   move.l -0x6(a6), 0x10(a6)
           0x0052110c      3d6efffe0014   move.w -0x2(a6), 0x14(a6)
           0x00521112      4cdf0007       movem.l (a7)+, d0-d2
           0x00521116      4e5e           unlk a6
           0x00521118      4e75           rts
            ; CALL XREF from PASTECOM.pick_this_cutou @ 0x676836
 264: BRUSHCOM.br_opaque (int32_t arg_ah);
           ; arg int32_t arg_ah @ a6+0xa
           0x0052111a      4e56fff2       link.w a6, 0xfff2
           0x0052111e      48e7fff0       movem.l d0-d7/a0-a3, -(a7)
           0x00521122      41eefffc       lea.l -0x4(a6), a0
           0x00521126      43eefff6       lea.l -0xa(a6), a1
           0x0052112a      45eefffa       lea.l -0x6(a6), a2
           0x0052112e      47ee0008       lea.l 0x8(a6), a3
           0x00521132      7608           moveq 0x8, d3
           0x00521134      283c0000fff8   move.l 0xfff8, d4
           0x0052113a      302e0010       move.w 0x10(a6), d0
           0x0052113e      0c400004       cmpi.w 0x4, d0
       < 0x00521142      6c0c           bge.b 0x521150
          0x00521144      3213           move.w (a3), d1
          0x00521146      48c1           ext.l d1
          0x00521148      c284           and.l d4, d1
          0x0052114a      3281           move.w d1, (a1)
          ; CODE XREF from BRUSHCOM.br_opaque @ 0x52116c
      > 0x0052114c      3483           move.w d3, (a2)
     < 0x0052114e      602e           bra.b 0x52117e
     > 0x00521150      322e000c       move.w 0xc(a6), d1
         0x00521154      48c1           ext.l d1
         0x00521156      2401           move.l d1, d2
         0x00521158      5982           subq.l 0x4, d2
         0x0052115a      48c0           ext.l d0
         0x0052115c      b082           cmp.l d2, d0
     < 0x0052115e      6f0e           ble.b 0x52116e
        0x00521160      3413           move.w (a3), d2
        0x00521162      48c2           ext.l d2
        0x00521164      d481           add.l d1, d2
        0x00521166      5182           subq.l 0x8, d2
        0x00521168      c484           and.l d4, d2
        0x0052116a      3282           move.w d2, (a1)
     < 0x0052116c      60de           bra.b 0x52114c
      > 0x0052116e      3213           move.w (a3), d1
          0x00521170      48c1           ext.l d1
          0x00521172      d280           add.l d0, d1
          0x00521174      5981           subq.l 0x4, d1
          0x00521176      c284           and.l d4, d1
          0x00521178      3281           move.w d1, (a1)
          0x0052117a      34bc0010       move.w 0x10, (a2)
          ; CODE XREF from BRUSHCOM.br_opaque @ 0x52114e
     > 0x0052117e      302e0012       move.w 0x12(a6), d0
           0x00521182      b043           cmp.w d3, d0
       < 0x00521184      6f14           ble.b 0x52119a
          0x00521186      322e000a       move.w 0xa(a6), d1
          0x0052118a      48c1           ext.l d1
          0x0052118c      48c0           ext.l d0
          0x0052118e      d280           add.l d0, d1
          0x00521190      5181           subq.l 0x8, d1
          0x00521192      3d41fff8       move.w d1, -0x8(a6)
          0x00521196      3083           move.w d3, (a0)
      < 0x00521198      6008           bra.b 0x5211a2
      > 0x0052119a      3d6e000afff8   move.w 0xa(a6), -0x8(a6)
          0x005211a0      3080           move.w d0, (a0)
          ; CODE XREF from BRUSHCOM.br_opaque @ 0x521198
      > 0x005211a2      322e000e       move.w 0xe(a6), d1
           0x005211a6      48c1           ext.l d1
           0x005211a8      2401           move.l d1, d2
           0x005211aa      5182           subq.l 0x8, d2
           0x005211ac      48c0           ext.l d0
           0x005211ae      b082           cmp.l d2, d0
       < 0x005211b0      6c08           bge.b 0x5211ba
          0x005211b2      3410           move.w (a0), d2
          0x005211b4      48c2           ext.l d2
          0x005211b6      5082           addq.l 0x8, d2
      < 0x005211b8      6008           bra.b 0x5211c2
      > 0x005211ba      3410           move.w (a0), d2
          0x005211bc      48c2           ext.l d2
          0x005211be      d481           add.l d1, d2
          0x005211c0      9480           sub.l d0, d2
          ; CODE XREF from BRUSHCOM.br_opaque @ 0x5211b8
      > 0x005211c2      3082           move.w d2, (a0)
           0x005211c4      4ebae0d2       jsr BRUSHCOM.brush_wait(pc)
           0x005211c8      33fc4000fff8.  move.w 0x4000, 0xfff8000c.l
           0x005211d0      4227           clr.b -(a7)
           0x005211d2      1f2e0014       move.b 0x14(a6), -(a7)
           0x005211d6      1f3c0001       move.b 0x1, -(a7)
           0x005211da      2f12           move.l (a2), -(a7)
           0x005211dc      2f11           move.l (a1), -(a7)
           0x005211de      4eb9005217d8   jsr BRUSHCOM.br_transfer
           0x005211e4      defc000e       adda.w 0xe, a7
           0x005211e8      7a00           moveq 0x0, d5
           0x005211ea      3e10           move.w (a0), d7
           0x005211ec      cfd2           muls.w (a2), d7
           ; CODE XREF from BRUSHCOM.br_opaque @ 0x521214
       > 0x005211ee      4a47           tst.w d7
      < 0x005211f0      6f24           ble.b 0x521216
         0x005211f2      3c39fff50000   move.w 0xfff50000, d6
         0x005211f8      02860000ffff   andi.l 0xffff, d6
         0x005211fe      2006           move.l d6, d0
         0x00521200      0280000000ff   andi.l 0xff, d0
         0x00521206      0c8000000040   cmpi.l 0x40, d0
     < 0x0052120c      6f02           ble.b 0x521210
        0x0052120e      7a01           moveq 0x1, d5
     > 0x00521210      48c7           ext.l d7
         0x00521212      5387           subq.l 0x1, d7
      < 0x00521214      60d8           bra.b 0x5211ee
      > 0x00521216      1d450016       move.b d5, 0x16(a6)
           0x0052121a      4cdf0fff       movem.l (a7)+, d0-d7/a0-a3
           0x0052121e      4e5e           unlk a6
           0x00521220      4e75           rts
 402: BRUSHCOM.br_col_range ();
           0x00521222      4e56ffe6       link.w a6, 0xffe6
           0x00521226      48e7fff8       movem.l d0-d7/a0-a4, -(a7)
           0x0052122a      45eeffea       lea.l -0x16(a6), a2
           0x0052122e      47eefff2       lea.l -0xe(a6), a3
           0x00521232      49ee0010       lea.l 0x10(a6), a4
           0x00521236      283c0000ffff   move.l 0xffff, d4
           0x0052123c      302e0012       move.w 0x12(a6), d0
           0x00521240      48c0           ext.l d0
           0x00521242      3214           move.w (a4), d1
           0x00521244      48c1           ext.l d1
           0x00521246      2400           move.l d0, d2
           0x00521248      9481           sub.l d1, d2
           0x0052124a      2602           move.l d2, d3
           0x0052124c      5283           addq.l 0x1, d3
           0x0052124e      02830000fff8   andi.l 0xfff8, d3
           0x00521254      3683           move.w d3, (a3)
           0x00521256      362e0014       move.w 0x14(a6), d3
           0x0052125a      48c3           ext.l d3
           0x0052125c      9681           sub.l d1, d3
           0x0052125e      5283           addq.l 0x1, d3
           0x00521260      3d43fff4       move.w d3, -0xc(a6)
           0x00521264      d081           add.l d1, d0
           0x00521266      5080           addq.l 0x8, d0
           0x00521268      02800000fff8   andi.l 0xfff8, d0
           0x0052126e      3613           move.w (a3), d3
           0x00521270      48c3           ext.l d3
           0x00521272      4483           neg.l d3
           0x00521274      d680           add.l d0, d3
           0x00521276      3d43fff6       move.w d3, -0xa(a6)
           0x0052127a      e381           asl.l 0x1, d1
           0x0052127c      3d41fff8       move.w d1, -0x8(a6)
           0x00521280      3013           move.w (a3), d0
           0x00521282      48c0           ext.l d0
           0x00521284      4480           neg.l d0
           0x00521286      d082           add.l d2, d0
           0x00521288      5480           addq.l 0x2, d0
           0x0052128a      3480           move.w d0, (a2)
           0x0052128c      4227           clr.b -(a7)
           0x0052128e      1f2e0018       move.b 0x18(a6), -(a7)
           0x00521292      1f2e0016       move.b 0x16(a6), -(a7)
           0x00521296      2f2efff6       move.l -0xa(a6), -(a7)
           0x0052129a      2f13           move.l (a3), -(a7)
           0x0052129c      4eb9005217d8   jsr BRUSHCOM.br_transfer
           0x005212a2      defc000e       adda.w 0xe, a7
           0x005212a6      206e0008       movea.l 0x8(a6), a0
           0x005212aa      43fada4a       lea.l 0x51ecf6(pc), a1
           0x005212ae      7005           moveq 0x5, d0
       > 0x005212b0      10d9           move.b (a1)+, (a0)+
       < 0x005212b2      51c8fffc       dbra d0, 0x5212b0
           0x005212b6      206e000c       movea.l 0xc(a6), a0
           0x005212ba      43fada40       lea.l 0x51ecfc(pc), a1
           0x005212be      7005           moveq 0x5, d0
       > 0x005212c0      10d9           move.b (a1)+, (a0)+
       < 0x005212c2      51c8fffc       dbra d0, 0x5212c0
           0x005212c6      206e0008       movea.l 0x8(a6), a0
           0x005212ca      226e000c       movea.l 0xc(a6), a1
           0x005212ce      7001           moveq 0x1, d0
       > 0x005212d0      b041           cmp.w d1, d0
      < 0x005212d2      620000d8       bhi.w 0x5213ac
         0x005212d6      3d40ffe6       move.w d0, -0x1a(a6)
         0x005212da      4282           clr.l d2
         0x005212dc      3412           move.w (a2), d2
         0x005212de      5382           subq.l 0x1, d2
         0x005212e0      2f02           move.l d2, -(a7)
         0x005212e2      7c01           moveq 0x1, d6
     > 0x005212e4      bc6f0002       cmp.w 0x2(a7), d6
    < 0x005212e8      620a           bhi.b 0x5212f4
       0x005212ea      3a39fff50000   move.w 0xfff50000, d5
       0x005212f0      5246           addq.w 0x1, d6
    < 0x005212f2      64f0           bcc.b 0x5212e4
    > 0x005212f4      584f           addq.w 0x4, a7
         0x005212f6      3414           move.w (a4), d2
         0x005212f8      c5fc0002       muls.w 0x2, d2
         0x005212fc      4283           clr.l d3
         0x005212fe      3612           move.w (a2), d3
         0x00521300      d483           add.l d3, d2
         0x00521302      5382           subq.l 0x1, d2
         0x00521304      2f02           move.l d2, -(a7)
         0x00521306      3c12           move.w (a2), d6
     > 0x00521308      bc6f0002       cmp.w 0x2(a7), d6
    < 0x0052130c      6278           bhi.b 0x521386
       0x0052130e      3a39fff50000   move.w 0xfff50000, d5
       0x00521314      ca84           and.l d4, d5
       0x00521316      2405           move.l d5, d2
       0x00521318      0282000000ff   andi.l 0xff, d2
       0x0052131e      3d42ffee       move.w d2, -0x12(a6)
       0x00521322      c484           and.l d4, d2
       0x00521324      3610           move.w (a0), d3
       0x00521326      48c3           ext.l d3
       0x00521328      b483           cmp.l d3, d2
   < 0x0052132a      6f02           ble.b 0x52132e
      0x0052132c      3082           move.w d2, (a0)
   > 0x0052132e      3611           move.w (a1), d3
       0x00521330      48c3           ext.l d3
       0x00521332      b483           cmp.l d3, d2
   < 0x00521334      6c02           bge.b 0x521338
      0x00521336      3282           move.w d2, (a1)
   > 0x00521338      2405           move.l d5, d2
       0x0052133a      e082           asr.l 0x8, d2
       0x0052133c      3e02           move.w d2, d7
       0x0052133e      08060000       btst.b 0x0, d6
   < 0x00521342      6720           beq.b 0x521364
      0x00521344      ce84           and.l d4, d7
      0x00521346      34280002       move.w 0x2(a0), d2
      0x0052134a      48c2           ext.l d2
      0x0052134c      be82           cmp.l d2, d7
  < 0x0052134e      6f04           ble.b 0x521354
     0x00521350      31470002       move.w d7, 0x2(a0)
  > 0x00521354      34290002       move.w 0x2(a1), d2
      0x00521358      48c2           ext.l d2
      0x0052135a      be82           cmp.l d2, d7
  < 0x0052135c      6c24           bge.b 0x521382
     0x0052135e      33470002       move.w d7, 0x2(a1)
 < 0x00521362      601e           bra.b 0x521382
 > 0x00521364      ce84           and.l d4, d7
     0x00521366      34280004       move.w 0x4(a0), d2
     0x0052136a      48c2           ext.l d2
     0x0052136c      be82           cmp.l d2, d7
 < 0x0052136e      6f04           ble.b 0x521374
    0x00521370      31470004       move.w d7, 0x4(a0)
 > 0x00521374      34290004       move.w 0x4(a1), d2
     0x00521378      48c2           ext.l d2
     0x0052137a      be82           cmp.l d2, d7
 < 0x0052137c      6c04           bge.b 0x521382
    0x0052137e      33470004       move.w d7, 0x4(a1)
    ; CODE XREF from BRUSHCOM.br_col_range @ 0x521362
 > 0x00521382      5246           addq.w 0x1, d6
    < 0x00521384      6482           bcc.b 0x521308
    > 0x00521386      584f           addq.w 0x4, a7
         0x00521388      3414           move.w (a4), d2
         0x0052138a      c5fc0002       muls.w 0x2, d2
         0x0052138e      4283           clr.l d3
         0x00521390      3612           move.w (a2), d3
         0x00521392      d483           add.l d3, d2
         0x00521394      3c02           move.w d2, d6
     > 0x00521396      bc6efff6       cmp.w -0xa(a6), d6
    < 0x0052139a      620a           bhi.b 0x5213a6
       0x0052139c      3a39fff50000   move.w 0xfff50000, d5
       0x005213a2      5246           addq.w 0x1, d6
    < 0x005213a4      64f0           bcc.b 0x521396
    > 0x005213a6      5240           addq.w 0x1, d0
      < 0x005213a8      6400ff26       bcc.w 0x5212d0
      > 0x005213ac      4cdf1fff       movem.l (a7)+, d0-d7/a0-a4
           0x005213b0      4e5e           unlk a6
           0x005213b2      4e75           rts
            ; XREFS(160)
 284: BRUSHCOM.br_wipe ();
           0x005213b4      4e56fffe       link.w a6, 0xfffe
           0x005213b8      48e7f9c0       movem.l d0-d4/d7/a0-a1, -(a7)
           0x005213bc      41ee000c       lea.l 0xc(a6), a0
           0x005213c0      43ee0012       lea.l 0x12(a6), a1
           0x005213c4      741e           moveq 0x1e, d2
           0x005213c6      760b           moveq 0xb, d3
           0x005213c8      7807           moveq 0x7, d4
           0x005213ca      4a50           tst.w (a0)
       < 0x005213cc      6f06           ble.b 0x5213d4
          0x005213ce      4a6e000e       tst.w 0xe(a6)
      < 0x005213d2      6e4a           bgt.b 0x52141e
      > 0x005213d4      487ad944       pea.l 0x51ed1a(pc)
          0x005213d8      4878000f       pea.l 0xf
          0x005213dc      2f17           move.l (a7), -(a7)
          0x005213de      4eb9004047ea   jsr p_wts_o
          0x005213e4      defc000c       adda.w 0xc, a7
          0x005213e8      3010           move.w (a0), d0
          0x005213ea      48c0           ext.l d0
          0x005213ec      2f00           move.l d0, -(a7)
          0x005213ee      48780004       pea.l 0x4
          0x005213f2      4eb9004070e4   jsr p_wti_o
          0x005213f8      504f           addq.w 0x8, a7
          0x005213fa      302e000e       move.w 0xe(a6), d0
          0x005213fe      48c0           ext.l d0
          0x00521400      2f00           move.l d0, -(a7)
          0x00521402      48780004       pea.l 0x4
          0x00521406      4eb9004070e4   jsr p_wti_o
          0x0052140c      504f           addq.w 0x8, a7
          0x0052140e      4eb900404946   jsr p_wtln_o
          0x00521414      4eb900401620   jsr p_walkback
      < 0x0052141a      60000184       bra.w 0x5215a0
      > 0x0052141e      554f           subq.w 0x2, a7
          0x00521420      1f11           move.b (a1), -(a7)
          0x00521422      1f2e0010       move.b 0x10(a6), -(a7)
          0x00521426      4ebaed5c       jsr BRUSHCOM.store_and_plane(pc)
          0x0052142a      584f           addq.w 0x4, a7
          0x0052142c      1017           move.b (a7), d0
          0x0052142e      b002           cmp.b d2, d0
      < 0x00521430      6d22           blt.b 0x521454
         0x00521432      4880           ext.w d0
         0x00521434      3200           move.w d0, d1
         0x00521436      9242           sub.w d2, d1
         0x00521438      0c410004       cmpi.w 0x4, d1
     < 0x0052143c      6200009e       bhi.w 0x5214dc
        0x00521440      d241           add.w d1, d1
        0x00521442      323b1006       move.w 0x52144a(pc, d1.w), d1
        0x00521446      4efb1002       jmp 0x52144a(pc, d1.w)
         0x0052144a      0040007c       ori.w 0x7c, d0
         0x0052144e      00520064       ori.w 0x64, (a2)
         0x00521452      008e4880       
         0x00521453      8e4880b0       
     > 0x00521454      4880           ext.w d0
         0x00521456      b043           cmp.w d3, d0
     < 0x00521458      62000082       bhi.w 0x5214dc
        0x0052145c      d040           add.w d0, d0
        0x0052145e      303b0006       move.w 0x521466(pc, d0.w), d0
        0x00521462      4efb0002       jmp 0x521466(pc, d0.w)
         0x00521466      0018004e       ori.b 0x4e, (a0)+
         0x0052146a      002a003c0066   ori.b 0x3c, 0x66(a2)
         0x00521470      001e0054       ori.b 0x54, (a6)+
         0x00521474      00300042006c   ori.b 0x42, 0x6c(a0, d0.w)
         0x0052147a      0076005a3e3c   ori.w 0x5a, 0x3c(a6, d3.l)
         0x00521480      00a660583e3c   ori.l 0x60583e3c, -(a6)
         0x00521486      00a760523e3c   ori.l 0x60523e3c, -(a7)
         0x0052148c      00a8604c3e3c.  ori.l 0x604c3e3c, 0xad(a0)
     < 0x00521494      6046           bra.b 0x5214dc              ; BRUSHCOM.br_wipe+0x128
        0x00521496      3e3c00ae       move.w 0xae, d7
    < 0x0052149a      6040           bra.b 0x5214dc              ; BRUSHCOM.br_wipe+0x128
       0x0052149c      3e3c00af       move.w 0xaf, d7
   < 0x005214a0      603a           bra.b 0x5214dc              ; BRUSHCOM.br_wipe+0x128
      0x005214a2      3e3c00b0       move.w 0xb0, d7
  < 0x005214a6      6034           bra.b 0x5214dc              ; BRUSHCOM.br_wipe+0x128
     0x005214a8      3e3c00b1       move.w 0xb1, d7
  < 0x005214ac      602e           bra.b 0x5214dc              ; BRUSHCOM.br_wipe+0x128
     0x005214ae      3e3c00b2       move.w 0xb2, d7
  < 0x005214b2      6028           bra.b 0x5214dc              ; BRUSHCOM.br_wipe+0x128
     0x005214b4      3e3c00aa       move.w 0xaa, d7
  < 0x005214b8      6022           bra.b 0x5214dc              ; BRUSHCOM.br_wipe+0x128
     0x005214ba      3e3c00ab       move.w 0xab, d7
  < 0x005214be      601c           bra.b 0x5214dc              ; BRUSHCOM.br_wipe+0x128
     0x005214c0      3e3c00a9       move.w 0xa9, d7
  < 0x005214c4      6016           bra.b 0x5214dc              ; BRUSHCOM.br_wipe+0x128
     0x005214c6      3e3c00ac       move.w 0xac, d7
  < 0x005214ca      6010           bra.b 0x5214dc              ; BRUSHCOM.br_wipe+0x128
     0x005214cc      3e3c00bb       move.w 0xbb, d7
  < 0x005214d0      600a           bra.b 0x5214dc              ; BRUSHCOM.br_wipe+0x128
     0x005214d2      3e3c00bc       move.w 0xbc, d7
  < 0x005214d6      6004           bra.b 0x5214dc              ; BRUSHCOM.br_wipe+0x128
     0x005214d8      3e3c00bd       move.w 0xbd, d7
 > 0x005214dc      544f           addq.w 0x2, a7
          0x005214de      4a390083e726   tst.b 0x83e726
      < 0x005214e4      6700009a       beq.w 0x521580
         0x005214e8      4a11           tst.b (a1)
     < 0x005214ea      67000094       beq.w 0x521580
        0x005214ee      302e0008       move.w 0x8(a6), d0
        0x005214f2      c044           and.w d4, d0
    < 0x005214f4      6600008a       bne.w 0x521580
       0x005214f8      3010           move.w (a0), d0
       0x005214fa      c044           and.w d4, d0
   < 0x005214fc      66000082       bne.w 0x521580
      0x00521500      3010           move.w (a0), d0
      0x00521502      0c400008       cmpi.w 0x8, d0
  < 0x00521506      6f78           ble.b 0x521580
     0x00521508      554f           subq.w 0x2, a7
     0x0052150a      1f11           move.b (a1), -(a7)
     0x0052150c      1f2e0010       move.b 0x10(a6), -(a7)
     0x00521510      4ebaec72       jsr BRUSHCOM.store_and_plane(pc)
     0x00521514      584f           addq.w 0x4, a7
     0x00521516      101f           move.b (a7)+, d0
     0x00521518      4880           ext.w d0
     0x0052151a      b043           cmp.w d3, d0
 < 0x0052151c      6262           bhi.b 0x521580
    0x0052151e      d040           add.w d0, d0
    0x00521520      303b0006       move.w 0x521528(pc, d0.w), d0
    0x00521524      4efb0002       jmp 0x521528(pc, d0.w)
     0x00521528      0018003c       ori.b 0x3c, (a0)+
     0x0052152c      00240030       ori.b 0x30, -(a4)
     0x00521530      004e001e       
     0x00521531      4e001e00       
     0x00521532      001e0042       ori.b 0x42, (a6)+
     0x00521536      002a00360054   ori.b 0x36, 0x54(a2)
     0x0052153c      00580048       ori.w 0x48, (a0)+
     0x00521540      3e3c00ce       move.w 0xce, d7
  < 0x00521544      603a           bra.b 0x521580              ; BRUSHCOM.br_wipe+0x1cc
     0x00521546      3e3c00cf       move.w 0xcf, d7
  < 0x0052154a      6034           bra.b 0x521580              ; BRUSHCOM.br_wipe+0x1cc
     0x0052154c      3e3c00d3       move.w 0xd3, d7
  < 0x00521550      602e           bra.b 0x521580              ; BRUSHCOM.br_wipe+0x1cc
     0x00521552      3e3c00d4       move.w 0xd4, d7
  < 0x00521556      6028           bra.b 0x521580              ; BRUSHCOM.br_wipe+0x1cc
     0x00521558      3e3c00d5       move.w 0xd5, d7
  < 0x0052155c      6022           bra.b 0x521580              ; BRUSHCOM.br_wipe+0x1cc
     0x0052155e      3e3c00d6       move.w 0xd6, d7
  < 0x00521562      601c           bra.b 0x521580              ; BRUSHCOM.br_wipe+0x1cc
     0x00521564      3e3c00d0       move.w 0xd0, d7
  < 0x00521568      6016           bra.b 0x521580              ; BRUSHCOM.br_wipe+0x1cc
     0x0052156a      3e3c00d1       move.w 0xd1, d7
  < 0x0052156e      6010           bra.b 0x521580              ; BRUSHCOM.br_wipe+0x1cc
     0x00521570      3e3c00d2       move.w 0xd2, d7
  < 0x00521574      600a           bra.b 0x521580              ; BRUSHCOM.br_wipe+0x1cc
     0x00521576      3e3c00d7       move.w 0xd7, d7
  < 0x0052157a      6004           bra.b 0x521580              ; BRUSHCOM.br_wipe+0x1cc
     0x0052157c      3e3c00d8       move.w 0xd8, d7
 > 0x00521580      4ebadd16       jsr BRUSHCOM.brush_wait(pc)
          0x00521584      3f07           move.w d7, -(a7)
          0x00521586      4ebaddda       jsr BRUSHCOM.b_setup_control(pc)
          0x0052158a      1e91           move.b (a1), (a7)
          0x0052158c      2f10           move.l (a0), -(a7)
          0x0052158e      2f2e0008       move.l 0x8(a6), -(a7)
          0x00521592      4ebae292       jsr BRUSHCOM.b_dest_area(pc)
          0x00521596      defc000a       adda.w 0xa, a7
          0x0052159a      4279fff80000   clr.w 0xfff80000
          ; CODE XREF from BRUSHCOM.br_wipe @ 0x52141a
       > 0x005215a0      4cdf039f       movem.l (a7)+, d0-d4/d7/a0-a1
           0x005215a4      4e5e           unlk a6
           0x005215a6      4e75           rts
            ; XREFS(24)
 346: BRUSHCOM.br_wipe_colour ();
           0x005215a8      4e56fff0       link.w a6, 0xfff0
           0x005215ac      48e7f1e0       movem.l d0-d3/d7/a0-a2, -(a7)
           0x005215b0      41ee000c       lea.l 0xc(a6), a0
           0x005215b4      43ee000e       lea.l 0xe(a6), a1
           0x005215b8      45ee0008       lea.l 0x8(a6), a2
           0x005215bc      7407           moveq 0x7, d2
           0x005215be      7602           moveq 0x2, d3
           0x005215c0      4a50           tst.w (a0)
       < 0x005215c2      6f04           ble.b 0x5215c8
          0x005215c4      4a51           tst.w (a1)
      < 0x005215c6      6e48           bgt.b 0x521610
      > 0x005215c8      487ad760       pea.l 0x51ed2a(pc)
          0x005215cc      48780017       pea.l 0x17
          0x005215d0      2f17           move.l (a7), -(a7)
          0x005215d2      4eb9004047ea   jsr p_wts_o
          0x005215d8      defc000c       adda.w 0xc, a7
          0x005215dc      3010           move.w (a0), d0
          0x005215de      48c0           ext.l d0
          0x005215e0      2f00           move.l d0, -(a7)
          0x005215e2      48780004       pea.l 0x4
          0x005215e6      4eb9004070e4   jsr p_wti_o
          0x005215ec      504f           addq.w 0x8, a7
          0x005215ee      3011           move.w (a1), d0
          0x005215f0      48c0           ext.l d0
          0x005215f2      2f00           move.l d0, -(a7)
          0x005215f4      48780004       pea.l 0x4
          0x005215f8      4eb9004070e4   jsr p_wti_o
          0x005215fe      504f           addq.w 0x8, a7
          0x00521600      4eb900404946   jsr p_wtln_o
          0x00521606      4eb900401620   jsr p_walkback
      < 0x0052160c      600000ec       bra.w 0x5216fa
      > 0x00521610      102e0010       move.b 0x10(a6), d0
          0x00521614      b003           cmp.b d3, d0
      < 0x00521616      6606           bne.b 0x52161e
         0x00521618      3e3c00bb       move.w 0xbb, d7
     < 0x0052161c      6004           bra.b 0x521622
     > 0x0052161e      3e3c00bc       move.w 0xbc, d7
         ; CODE XREF from BRUSHCOM.br_wipe_colour @ 0x52161c
     > 0x00521622      4a390083e726   tst.b 0x83e726
      < 0x00521628      6722           beq.b 0x52164c
         0x0052162a      3212           move.w (a2), d1
         0x0052162c      c242           and.w d2, d1
     < 0x0052162e      661c           bne.b 0x52164c
        0x00521630      3210           move.w (a0), d1
        0x00521632      c242           and.w d2, d1
    < 0x00521634      6616           bne.b 0x52164c
       0x00521636      3210           move.w (a0), d1
       0x00521638      0c410008       cmpi.w 0x8, d1
   < 0x0052163c      6f0e           ble.b 0x52164c
      0x0052163e      b003           cmp.b d3, d0
  < 0x00521640      6606           bne.b 0x521648
     0x00521642      3e3c00d7       move.w 0xd7, d7
 < 0x00521646      6004           bra.b 0x52164c
 > 0x00521648      3e3c00d8       move.w 0xd8, d7
     ; CODE XREF from BRUSHCOM.br_wipe_colour @ 0x521646
 > 0x0052164c      9efc000a       suba.w 0xa, a7
          0x00521650      3f07           move.w d7, -(a7)
          0x00521652      4ebadce4       jsr BRUSHCOM.b_control_state(pc)
          0x00521656      544f           addq.w 0x2, a7
          0x00521658      2d5ffff6       move.l (a7)+, -0xa(a6)
          0x0052165c      2d5ffffa       move.l (a7)+, -0x6(a6)
          0x00521660      3d5ffffe       move.w (a7)+, -0x2(a6)
          0x00521664      3e12           move.w (a2), d7
          0x00521666      ce42           and.w d2, d7
          0x00521668      33c7fff80040   move.w d7, 0xfff80040
          0x0052166e      3010           move.w (a0), d0
          0x00521670      48c0           ext.l d0
          0x00521672      48c7           ext.l d7
          0x00521674      d087           add.l d7, d0
          0x00521676      5380           subq.l 0x1, d0
          0x00521678      33c0fff80044   move.w d0, 0xfff80044
          0x0052167e      3011           move.w (a1), d0
          0x00521680      48c0           ext.l d0
          0x00521682      5380           subq.l 0x1, d0
          0x00521684      33c0fff80046   move.w d0, 0xfff80046
          0x0052168a      33d2fff840f0   move.w (a2), 0xfff840f0
          0x00521690      33ee000afff8.  move.w 0xa(a6), 0xfff840f2.l
          0x00521698      4ebadbfe       jsr BRUSHCOM.brush_wait(pc)
          0x0052169c      33eefffcfff8.  move.w -0x4(a6), 0xfff84002.l
          0x005216a4      33eefffefff8.  move.w -0x2(a6), 0xfff84004.l
          0x005216ac      33eefff8fff8.  move.w -0x8(a6), 0xfff80002.l
          0x005216b4      33eefffafff8.  move.w -0x6(a6), 0xfff80004.l
          0x005216bc      302e0012       move.w 0x12(a6), d0
          0x005216c0      48c0           ext.l d0
          0x005216c2      e180           asl.l 0x8, d0
          0x005216c4      33c0fff80006   move.w d0, 0xfff80006
          0x005216ca      302e0014       move.w 0x14(a6), d0
          0x005216ce      48c0           ext.l d0
          0x005216d0      e180           asl.l 0x8, d0
          0x005216d2      33c0fff80008   move.w d0, 0xfff80008
          0x005216d8      302e0016       move.w 0x16(a6), d0
          0x005216dc      48c0           ext.l d0
          0x005216de      e180           asl.l 0x8, d0
          0x005216e0      33c0fff80008   move.w d0, 0xfff80008
          0x005216e6      302e0018       move.w 0x18(a6), d0
          0x005216ea      48c0           ext.l d0
          0x005216ec      e180           asl.l 0x8, d0
          0x005216ee      33c0fff8000a   move.w d0, 0xfff8000a
          0x005216f4      4279fff80000   clr.w 0xfff80000
          ; CODE XREF from BRUSHCOM.br_wipe_colour @ 0x52160c
       > 0x005216fa      4cdf078f       movem.l (a7)+, d0-d3/d7/a0-a2
           0x005216fe      4e5e           unlk a6
           0x00521700      4e75           rts
            ; CALL XREF from MENUPAINTCOM.prepare_to_pain @ 0x4af158
            ; CALL XREF from MENU3DCOM.PAS.update_many @ 0x50d626
            ; CALL XREF from PASTECOM.cache_sized_cut @ 0x67438a
 214: BRUSHCOM.br_pst_wipe (int32_t arg_8h, int32_t arg_108h);
           ; arg int32_t arg_8h @ a7+0x8
           ; arg int32_t arg_108h @ a7+0x108
           0x00521702      4e560000       link.w a6, 0x0
           0x00521706      48e7e0c0       movem.l d0-d2/a0-a1, -(a7)
           0x0052170a      41ee0012       lea.l 0x12(a6), a0
           0x0052170e      43f9004047ea   lea.l p_wts_o, a1
           0x00521714      7205           moveq 0x5, d1
           0x00521716      740c           moveq 0xc, d2
           0x00521718      4ebadb7e       jsr BRUSHCOM.brush_wait(pc)
           0x0052171c      554f           subq.w 0x2, a7
           0x0052171e      1f10           move.b (a0), -(a7)
           0x00521720      1f2e0010       move.b 0x10(a6), -(a7)
           0x00521724      4ebaea5e       jsr BRUSHCOM.store_and_plane(pc)
           0x00521728      584f           addq.w 0x4, a7
           0x0052172a      1017           move.b (a7), d0
           0x0052172c      b001           cmp.b d1, d0
       < 0x0052172e      6d0c           blt.b 0x52173c
          0x00521730      b001           cmp.b d1, d0
      < 0x00521732      6720           beq.b 0x521754
         0x00521734      0c000006       cmpi.b 0x6, d0
     < 0x00521738      6714           beq.b 0x52174e
    < 0x0052173a      601e           bra.b 0x52175a
    > 0x0052173c      4a00           tst.b d0
    < 0x0052173e      6702           beq.b 0x521742
   < 0x00521740      6018           bra.b 0x52175a
   > 0x00521742      3f3c002f       move.w 0x2f, -(a7)
       ; CODE XREFS from BRUSHCOM.br_pst_wipe @ 0x521752, 0x521758
  > 0x00521746      4ebadc1a       jsr BRUSHCOM.b_setup_control(pc)
     0x0052174a      544f           addq.w 0x2, a7
 < 0x0052174c      6062           bra.b 0x5217b0
 > 0x0052174e      3f3c002e       move.w 0x2e, -(a7)
 < 0x00521752      60f2           bra.b 0x521746
   > 0x00521754      3f3c002d       move.w 0x2d, -(a7)
    < 0x00521758      60ec           bra.b 0x521746
        ; CODE XREFS from BRUSHCOM.br_pst_wipe @ 0x52173a, 0x521740
  > 0x0052175a      9efc0052       suba.w 0x52, a7
          0x0052175e      1f10           move.b (a0), -(a7)
          0x00521760      4eb90044e562   jsr SYSTEM_STRING.store_str
          0x00521766      9efc00fe       suba.w 0xfe, a7
          0x0052176a      1f2e0010       move.b 0x10(a6), -(a7)
          0x0052176e      4eb90044e658   jsr SYSTEM_STRING.plane_str
          0x00521774      544f           addq.w 0x2, a7
          0x00521776      487ad5ca       pea.l 0x51ed42(pc)
          0x0052177a      4878001e       pea.l 0x1e
          0x0052177e      2f17           move.l (a7), -(a7)
          0x00521780      4e91           jsr (a1)                    ; fcn.0000000a
          0x00521782      dec2           adda.w d2, a7
          0x00521784      486f0101       pea.l 0x101(a7)
          0x00521788      42a7           clr.l -(a7)
          0x0052178a      1f6f01080003   move.b 0x108(a7), 0x3(a7)
          0x00521790      2f17           move.l (a7), -(a7)
          0x00521792      4e91           jsr (a1)                    ; fcn.0000000a
          0x00521794      dec2           adda.w d2, a7
          0x00521796      486f0001       pea.l 0x1(a7)
          0x0052179a      42a7           clr.l -(a7)
          0x0052179c      1f6f00080003   move.b 0x8(a7), 0x3(a7)
          0x005217a2      2f17           move.l (a7), -(a7)
          0x005217a4      4e91           jsr (a1)                    ; fcn.0000000a
          0x005217a6      defc015e       adda.w 0x15e, a7
          0x005217aa      4eb900404946   jsr p_wtln_o
          ; CODE XREF from BRUSHCOM.br_pst_wipe @ 0x52174c
 > 0x005217b0      1e90           move.b (a0), (a7)
           0x005217b2      2f2e000c       move.l 0xc(a6), -(a7)
           0x005217b6      2f2e0008       move.l 0x8(a6), -(a7)
           0x005217ba      4ebae06a       jsr BRUSHCOM.b_dest_area(pc)
           0x005217be      defc000a       adda.w 0xa, a7
           0x005217c2      33fc4000fff8.  move.w 0x4000, 0xfff8000c.l
           0x005217ca      4279fff80000   clr.w 0xfff80000
           0x005217d0      4cdf0307       movem.l (a7)+, d0-d2/a0-a1
           0x005217d4      4e5e           unlk a6
           0x005217d6      4e75           rts
            ; XREFS: CALL 0x00521086  CALL 0x005211de  CALL 0x0052129c  
            ; XREFS: CALL 0x005219a2  CALL 0x005a9e08  CALL 0x00680442  
            ; XREFS: CALL 0x006a5b2e  CALL 0x00749246  CALL 0x007492ba  
            ; XREFS: CALL 0x007497d2  CALL 0x007498de  
 62: BRUSHCOM.br_transfer ();
           0x005217d8      4e56fffe       link.w a6, 0xfffe
           0x005217dc      48e7fdf0       movem.l d0-d5/d7/a0-a3, -(a7)
           0x005217e0      41ee0012       lea.l 0x12(a6), a0
           0x005217e4      43ee0010       lea.l 0x10(a6), a1
           0x005217e8      45fae99a       lea.l BRUSHCOM.store_and_plane(pc), a2
           0x005217ec      47fadb74       lea.l BRUSHCOM.b_setup_control(pc), a3
           0x005217f0      721e           moveq 0x1e, d1
           0x005217f2      7405           moveq 0x5, d2
           0x005217f4      7606           moveq 0x6, d3
           0x005217f6      781f           moveq 0x1f, d4
           0x005217f8      7a01           moveq 0x1, d5
           0x005217fa      4ebada9c       jsr BRUSHCOM.brush_wait(pc)
           0x005217fe      102e0014       move.b 0x14(a6), d0
           0x00521802      4880           ext.w d0
           0x00521804      0c400004       cmpi.w 0x4, d0
       < 0x00521808      62000130       bhi.w 0x52193a
          0x0052180c      d040           add.w d0, d0
          0x0052180e      303b0006       move.w 0x521816(pc, d0.w), d0
          0x00521812      4efb0002       jmp 0x521816(pc, d0.w)
           0x00521816      000a006a       
           0x00521817      0a006a01       eori.b 0x1, d0
           0x0052181b      2401           move.l d1, d2
           0x0052181d      2400           move.l d0, d2
           0x0052181f      c655           and.w (a5), d3
           0x00521821      4f1f           chk.l (a7)+, d7
           0x00521823      101f           move.b (a7)+, d0
           0x00521825      114e9258       
           0x00521826      4e92           jsr (a2)                    ; fcn.00000009+0x2
           0x00521828      584f           addq.w 0x4, a7
           0x0052182a      1017           move.b (a7), d0
           0x0052182c      b001           cmp.b d1, d0
       < 0x0052182e      6c0e           bge.b 0x52183e
          0x00521830      b002           cmp.b d2, d0
      < 0x00521832      6d14           blt.b 0x521848
         0x00521834      b002           cmp.b d2, d0
     < 0x00521836      6724           beq.b 0x52185c
        0x00521838      b003           cmp.b d3, d0
    < 0x0052183a      6732           beq.b 0x52186e
   < 0x0052183c      603c           bra.b 0x52187a
   > 0x0052183e      b001           cmp.b d1, d0
   < 0x00521840      6720           beq.b 0x521862
      0x00521842      b004           cmp.b d4, d0
  < 0x00521844      672e           beq.b 0x521874
  < 0x00521846      6032           bra.b 0x52187a
  > 0x00521848      4a00           tst.b d0
  < 0x0052184a      6706           beq.b 0x521852
     0x0052184c      b005           cmp.b d5, d0
  < 0x0052184e      6718           beq.b 0x521868
  < 0x00521850      6028           bra.b 0x52187a
  > 0x00521852      3f3c0036       move.w 0x36, -(a7)
  > 0x00521856      4e93           jsr (a3)                    ; fcn.0000000c
     0x00521858      544f           addq.w 0x2, a7
  < 0x0052185a      601e           bra.b 0x52187a
  > 0x0052185c      3f3c0037       move.w 0x37, -(a7)
  < 0x00521860      60f4           bra.b 0x521856
   > 0x00521862      3f3c0038       move.w 0x38, -(a7)
  < 0x00521866      60ee           bra.b 0x521856
  > 0x00521868      3f3c0039       move.w 0x39, -(a7)
  < 0x0052186c      60e8           bra.b 0x521856
  > 0x0052186e      3f3c003a       move.w 0x3a, -(a7)
  < 0x00521872      60e2           bra.b 0x521856
  > 0x00521874      3f3c003b       move.w 0x3b, -(a7)
     < 0x00521878      60dc           bra.b 0x521856
  > 0x0052187a      544f           addq.w 0x2, a7
     < 0x0052187c      600000bc       bra.w 0x52193a
        0x00521880      554f           subq.w 0x2, a7
        0x00521882      1f10           move.b (a0), -(a7)
        0x00521884      1f11           move.b (a1), -(a7)
        0x00521886      4e92           jsr (a2)                    ; fcn.00000009+0x2
        0x00521888      584f           addq.w 0x4, a7
        0x0052188a      1017           move.b (a7), d0
        0x0052188c      b001           cmp.b d1, d0
    < 0x0052188e      6c0e           bge.b 0x52189e
       0x00521890      b002           cmp.b d2, d0
   < 0x00521892      6d14           blt.b 0x5218a8
      0x00521894      b002           cmp.b d2, d0
  < 0x00521896      6724           beq.b 0x5218bc
     0x00521898      b003           cmp.b d3, d0
  < 0x0052189a      6732           beq.b 0x5218ce
  < 0x0052189c      603c           bra.b 0x5218da
  > 0x0052189e      b001           cmp.b d1, d0
  < 0x005218a0      6720           beq.b 0x5218c2
     0x005218a2      b004           cmp.b d4, d0
  < 0x005218a4      672e           beq.b 0x5218d4
  < 0x005218a6      6032           bra.b 0x5218da
  > 0x005218a8      4a00           tst.b d0
  < 0x005218aa      6706           beq.b 0x5218b2
     0x005218ac      b005           cmp.b d5, d0
  < 0x005218ae      6718           beq.b 0x5218c8
  < 0x005218b0      6028           bra.b 0x5218da
  > 0x005218b2      3f3c0042       move.w 0x42, -(a7)
  > 0x005218b6      4e93           jsr (a3)                    ; fcn.0000000c
     0x005218b8      544f           addq.w 0x2, a7
  < 0x005218ba      601e           bra.b 0x5218da
  > 0x005218bc      3f3c0043       move.w 0x43, -(a7)
  < 0x005218c0      60f4           bra.b 0x5218b6
   > 0x005218c2      3f3c0044       move.w 0x44, -(a7)
  < 0x005218c6      60ee           bra.b 0x5218b6
  > 0x005218c8      3f3c0045       move.w 0x45, -(a7)
  < 0x005218cc      60e8           bra.b 0x5218b6
  > 0x005218ce      3f3c0046       move.w 0x46, -(a7)
  < 0x005218d2      60e2           bra.b 0x5218b6
  > 0x005218d4      3f3c0047       move.w 0x47, -(a7)
   < 0x005218d8      60dc           bra.b 0x5218b6
  < 0x005218da      609e           bra.b 0x52187a
         0x005218dc      554f           subq.w 0x2, a7
         0x005218de      1f10           move.b (a0), -(a7)
         0x005218e0      1f11           move.b (a1), -(a7)
         0x005218e2      4e92           jsr (a2)                    ; fcn.00000009+0x2
         0x005218e4      584f           addq.w 0x4, a7
         0x005218e6      1017           move.b (a7), d0
         0x005218e8      b001           cmp.b d1, d0
     < 0x005218ea      6c0e           bge.b 0x5218fa
        0x005218ec      b002           cmp.b d2, d0
    < 0x005218ee      6d14           blt.b 0x521904
       0x005218f0      b002           cmp.b d2, d0
   < 0x005218f2      6724           beq.b 0x521918
      0x005218f4      b003           cmp.b d3, d0
  < 0x005218f6      6732           beq.b 0x52192a
  < 0x005218f8      603c           bra.b 0x521936
  > 0x005218fa      b001           cmp.b d1, d0
  < 0x005218fc      6720           beq.b 0x52191e
     0x005218fe      b004           cmp.b d4, d0
  < 0x00521900      672e           beq.b 0x521930
  < 0x00521902      6032           bra.b 0x521936
  > 0x00521904      4a00           tst.b d0
  < 0x00521906      6706           beq.b 0x52190e
     0x00521908      b005           cmp.b d5, d0
  < 0x0052190a      6718           beq.b 0x521924
  < 0x0052190c      6028           bra.b 0x521936
  > 0x0052190e      3f3c003c       move.w 0x3c, -(a7)
  > 0x00521912      4e93           jsr (a3)                    ; fcn.0000000c
     0x00521914      544f           addq.w 0x2, a7
  < 0x00521916      601e           bra.b 0x521936
  > 0x00521918      3f3c003d       move.w 0x3d, -(a7)
  < 0x0052191c      60f4           bra.b 0x521912
   > 0x0052191e      3f3c003e       move.w 0x3e, -(a7)
  < 0x00521922      60ee           bra.b 0x521912
  > 0x00521924      3f3c003f       move.w 0x3f, -(a7)
  < 0x00521928      60e8           bra.b 0x521912
  > 0x0052192a      3f3c0040       move.w 0x40, -(a7)
  < 0x0052192e      60e2           bra.b 0x521912
  > 0x00521930      3f3c0041       move.w 0x41, -(a7)
    < 0x00521934      60dc           bra.b 0x521912
  < 0x00521936      6000ff42       bra.w 0x52187a
     > 0x0052193a      1f10           move.b (a0), -(a7)
            0x0052193c      2f2e000c       move.l 0xc(a6), -(a7)
            0x00521940      2f2e0008       move.l 0x8(a6), -(a7)
            0x00521944      4ebadee0       jsr BRUSHCOM.b_dest_area(pc)
            0x00521948      defc000a       adda.w 0xa, a7
            0x0052194c      33fc000ffffb.  move.w 0xf, 0xfffb0000.l
            0x00521954      4279fff80000   clr.w 0xfff80000
            0x0052195a      3e39fff9400e   move.w 0xfff9400e, d7
            0x00521960      3e39fff9400e   move.w 0xfff9400e, d7
            0x00521966      3e39fff9400e   move.w 0xfff9400e, d7
            0x0052196c      4cdf0fbf       movem.l (a7)+, d0-d5/d7/a0-a3
            0x00521970      4e5e           unlk a6
            0x00521972      4e75           rts
            ; XREFS: CALL 0x005242a8  CALL 0x005242c0  CALL 0x00630f32  
            ; XREFS: CALL 0x00638ae2  CALL 0x006a5c16  CALL 0x006a79e0  
            ; XREFS: CALL 0x0073a480  
 132: BRUSHCOM.br_computer_tra ();
           0x00521974      4e56fffc       link.w a6, 0xfffc
           0x00521978      48e780f0       movem.l d0/a0-a3, -(a7)
           0x0052197c      41ee0010       lea.l 0x10(a6), a0
           0x00521980      43ee0018       lea.l 0x18(a6), a1
           0x00521984      45ee0012       lea.l 0x12(a6), a2
           0x00521988      47ee0008       lea.l 0x8(a6), a3
           0x0052198c      4eb9004614fc   jsr S0_UTIL.s_mode_secure
           0x00521992      1f11           move.b (a1), -(a7)
           0x00521994      1f2e0016       move.b 0x16(a6), -(a7)
           0x00521998      1f2e0014       move.b 0x14(a6), -(a7)
           0x0052199c      2f10           move.l (a0), -(a7)
           0x0052199e      2f2e000c       move.l 0xc(a6), -(a7)
           0x005219a2      4ebafe34       jsr BRUSHCOM.br_transfer(pc)
           0x005219a6      defc000e       adda.w 0xe, a7
           0x005219aa      4a11           tst.b (a1)
       < 0x005219ac      6610           bne.b 0x5219be
          0x005219ae      3012           move.w (a2), d0
          0x005219b0      c1d0           muls.w (a0), d0
          0x005219b2      2f13           move.l (a3), -(a7)
          0x005219b4      2f00           move.l d0, -(a7)
          0x005219b6      4eb90051948c   jsr b_cpu_read
      < 0x005219bc      6026           bra.b 0x5219e4
      > 0x005219be      1011           move.b (a1), d0
          0x005219c0      0c000001       cmpi.b 0x1, d0
      < 0x005219c4      6610           bne.b 0x5219d6
         0x005219c6      3012           move.w (a2), d0
         0x005219c8      c1d0           muls.w (a0), d0
         0x005219ca      2f13           move.l (a3), -(a7)
         0x005219cc      2f00           move.l d0, -(a7)
         0x005219ce      4eb9005194c0   jsr b_cpu_write
     < 0x005219d4      600e           bra.b 0x5219e4
     > 0x005219d6      3012           move.w (a2), d0
         0x005219d8      c1d0           muls.w (a0), d0
         0x005219da      2f13           move.l (a3), -(a7)
         0x005219dc      2f00           move.l d0, -(a7)
         0x005219de      4eb9005194f4   jsr b_cpu_slow_write
         ; CODE XREFS from BRUSHCOM.br_computer_tra @ 0x5219bc, 0x5219d4
     > 0x005219e4      504f           addq.w 0x8, a7
           0x005219e6      4eb900461520   jsr S0_UTIL.s_mode_release
           0x005219ec      4ebae036       jsr BRUSHCOM.br_abort(pc)
           0x005219f0      4cdf0f01       movem.l (a7)+, d0/a0-a3
           0x005219f4      4e5e           unlk a6
           0x005219f6      4e75           rts
            ; XREFS: CALL 0x005c22c8  CALL 0x005c2bd2  CALL 0x0066540a  
            ; XREFS: CALL 0x00665514  CALL 0x00797902  CALL 0x00797978  
            ; XREFS: CALL 0x00797d20  
 60: BRUSHCOM.br_disk_transfe ();
           0x005219f8      4e560000       link.w a6, 0x0
           0x005219fc      48e7fef8       movem.l d0-d6/a0-a4, -(a7)
           0x00521a00      43ee0014       lea.l 0x14(a6), a1
           0x00521a04      45ee0012       lea.l 0x12(a6), a2
           0x00521a08      47fae77a       lea.l BRUSHCOM.store_and_plane(pc), a3
           0x00521a0c      49fad954       lea.l BRUSHCOM.b_setup_control(pc), a4
           0x00521a10      7405           moveq 0x5, d2
           0x00521a12      761e           moveq 0x1e, d3
           0x00521a14      7801           moveq 0x1, d4
           0x00521a16      7a06           moveq 0x6, d5
           0x00521a18      7c1f           moveq 0x1f, d6
           0x00521a1a      4ebad87c       jsr BRUSHCOM.brush_wait(pc)
           0x00521a1e      102e0016       move.b 0x16(a6), d0
           0x00521a22      4880           ext.w d0
           0x00521a24      b042           cmp.w d2, d0
       < 0x00521a26      620001d0       bhi.w 0x521bf8
          0x00521a2a      d040           add.w d0, d0
          0x00521a2c      303b0006       move.w 0x521a34(pc, d0.w), d0
          0x00521a30      4efb0002       jmp 0x521a34(pc, d0.w)
           0x00521a34      000c0086       
           0x00521a35      0c008600       cmpi.b 0x0, d0
           0x00521a39      8601           or.b d1, d3
           0x00521a3b      0a016801       eori.b 0x1, d1
       < 0x00521a3f      6855           bvc.b 0x521a96
          0x00521a41      4f1f           chk.l (a7)+, d7
          0x00521a43      111f           move.b (a7)+, -(a0)
          0x00521a45      124e9358       
          0x00521a46      4e93           jsr (a3)                    ; fcn.0000000c
          0x00521a48      584f           addq.w 0x4, a7
          0x00521a4a      1017           move.b (a7), d0
          0x00521a4c      b003           cmp.b d3, d0
      < 0x00521a4e      6c0e           bge.b 0x521a5e
         0x00521a50      b002           cmp.b d2, d0
     < 0x00521a52      6d14           blt.b 0x521a68
        0x00521a54      b002           cmp.b d2, d0
    < 0x00521a56      6724           beq.b 0x521a7c
       0x00521a58      b005           cmp.b d5, d0
   < 0x00521a5a      6732           beq.b 0x521a8e
  < 0x00521a5c      603c           bra.b 0x521a9a
  > 0x00521a5e      b003           cmp.b d3, d0
  < 0x00521a60      6720           beq.b 0x521a82
     0x00521a62      b006           cmp.b d6, d0
  < 0x00521a64      672e           beq.b 0x521a94
  < 0x00521a66      6032           bra.b 0x521a9a
  > 0x00521a68      4a00           tst.b d0
  < 0x00521a6a      6706           beq.b 0x521a72
     0x00521a6c      b004           cmp.b d4, d0
  < 0x00521a6e      6718           beq.b 0x521a88
  < 0x00521a70      6028           bra.b 0x521a9a
  > 0x00521a72      3f3c0048       move.w 0x48, -(a7)
  > 0x00521a76      4e94           jsr (a4)                    ; fcn.0000000d
     0x00521a78      544f           addq.w 0x2, a7
  < 0x00521a7a      601e           bra.b 0x521a9a
  > 0x00521a7c      3f3c0049       move.w 0x49, -(a7)
  < 0x00521a80      60f4           bra.b 0x521a76
   > 0x00521a82      3f3c004a       move.w 0x4a, -(a7)
  < 0x00521a86      60ee           bra.b 0x521a76
  > 0x00521a88      3f3c004b       move.w 0x4b, -(a7)
  < 0x00521a8c      60e8           bra.b 0x521a76
  > 0x00521a8e      3f3c004c       move.w 0x4c, -(a7)
  < 0x00521a92      60e2           bra.b 0x521a76
  > 0x00521a94      3f3c004d       move.w 0x4d, -(a7)
    < 0x00521a98      60dc           bra.b 0x521a76
  > 0x00521a9a      544f           addq.w 0x2, a7
           0x00521a9c      4a11           tst.b (a1)
       < 0x00521a9e      6606           bne.b 0x521aa6
          0x00521aa0      1f04           move.b d4, -(a7)
          0x00521aa2      3f02           move.w d2, -(a7)
      < 0x00521aa4      6006           bra.b 0x521aac
      > 0x00521aa6      1f04           move.b d4, -(a7)
          0x00521aa8      3f3c0007       move.w 0x7, -(a7)
      > 0x00521aac      1f04           move.b d4, -(a7)
           0x00521aae      4eb900463e42   jsr S7_ZEBEDEE.s7_brush_pipe
           0x00521ab4      5c4f           addq.w 0x6, a7
       < 0x00521ab6      60000140       bra.w 0x521bf8
          0x00521aba      554f           subq.w 0x2, a7
          0x00521abc      1f11           move.b (a1), -(a7)
          0x00521abe      1f12           move.b (a2), -(a7)
          0x00521ac0      4e93           jsr (a3)                    ; fcn.0000000c
          0x00521ac2      584f           addq.w 0x4, a7
          0x00521ac4      1017           move.b (a7), d0
          0x00521ac6      b003           cmp.b d3, d0
      < 0x00521ac8      6c0e           bge.b 0x521ad8
         0x00521aca      b002           cmp.b d2, d0
     < 0x00521acc      6d14           blt.b 0x521ae2
        0x00521ace      b002           cmp.b d2, d0
    < 0x00521ad0      6724           beq.b 0x521af6
       0x00521ad2      b005           cmp.b d5, d0
   < 0x00521ad4      6732           beq.b 0x521b08
  < 0x00521ad6      603c           bra.b 0x521b14
  > 0x00521ad8      b003           cmp.b d3, d0
  < 0x00521ada      6720           beq.b 0x521afc
     0x00521adc      b006           cmp.b d6, d0
  < 0x00521ade      672e           beq.b 0x521b0e
  < 0x00521ae0      6032           bra.b 0x521b14
  > 0x00521ae2      4a00           tst.b d0
  < 0x00521ae4      6706           beq.b 0x521aec
     0x00521ae6      b004           cmp.b d4, d0
  < 0x00521ae8      6718           beq.b 0x521b02
  < 0x00521aea      6028           bra.b 0x521b14
  > 0x00521aec      3f3c004e       move.w 0x4e, -(a7)
  > 0x00521af0      4e94           jsr (a4)                    ; fcn.0000000d
     0x00521af2      544f           addq.w 0x2, a7
  < 0x00521af4      601e           bra.b 0x521b14
  > 0x00521af6      3f3c004f       move.w 0x4f, -(a7)
  < 0x00521afa      60f4           bra.b 0x521af0
   > 0x00521afc      3f3c0050       move.w 0x50, -(a7)
  < 0x00521b00      60ee           bra.b 0x521af0
  > 0x00521b02      3f3c0051       move.w 0x51, -(a7)
  < 0x00521b06      60e8           bra.b 0x521af0
  > 0x00521b08      3f3c0052       move.w 0x52, -(a7)
  < 0x00521b0c      60e2           bra.b 0x521af0
  > 0x00521b0e      3f3c0053       move.w 0x53, -(a7)
    < 0x00521b12      60dc           bra.b 0x521af0
  > 0x00521b14      4eb9004755c2   jsr CONFIG.cfg_gender
          0x00521b1a      101f           move.b (a7)+, d0
          0x00521b1c      4880           ext.w d0
          0x00521b1e      41fad240       lea.l 0x51ed60(pc), a0
          0x00521b22      3200           move.w d0, d1
          0x00521b24      e649           lsr.w 0x3, d1
          0x00521b26      01301000       btst.l d0, (a0, d1.w)
      < 0x00521b2a      660e           bne.b 0x521b3a
         0x00521b2c      1f04           move.b d4, -(a7)
         0x00521b2e      4267           clr.w -(a7)
         0x00521b30      4227           clr.b -(a7)
         0x00521b32      4eb900463e42   jsr S7_ZEBEDEE.s7_brush_pipe
         0x00521b38      5c4f           addq.w 0x6, a7
     > 0x00521b3a      600000bc       bra.w 0x521bf8
         0x00521b3e      554f           subq.w 0x2, a7
         0x00521b40      1f11           move.b (a1), -(a7)
         0x00521b42      1f12           move.b (a2), -(a7)
         0x00521b44      4e93           jsr (a3)                    ; fcn.0000000c
         0x00521b46      584f           addq.w 0x4, a7
         0x00521b48      1017           move.b (a7), d0
         0x00521b4a      b003           cmp.b d3, d0
     < 0x00521b4c      6c0e           bge.b 0x521b5c
        0x00521b4e      b002           cmp.b d2, d0
    < 0x00521b50      6d14           blt.b 0x521b66
       0x00521b52      b002           cmp.b d2, d0
   < 0x00521b54      6724           beq.b 0x521b7a
      0x00521b56      b005           cmp.b d5, d0
  < 0x00521b58      6732           beq.b 0x521b8c
  < 0x00521b5a      603c           bra.b 0x521b98
  > 0x00521b5c      b003           cmp.b d3, d0
  < 0x00521b5e      6720           beq.b 0x521b80
     0x00521b60      b006           cmp.b d6, d0
  < 0x00521b62      672e           beq.b 0x521b92
  < 0x00521b64      6032           bra.b 0x521b98
  > 0x00521b66      4a00           tst.b d0
  < 0x00521b68      6706           beq.b 0x521b70
     0x00521b6a      b004           cmp.b d4, d0
  < 0x00521b6c      6718           beq.b 0x521b86
  < 0x00521b6e      6028           bra.b 0x521b98
  > 0x00521b70      3f3c0054       move.w 0x54, -(a7)
  > 0x00521b74      4e94           jsr (a4)                    ; fcn.0000000d
     0x00521b76      544f           addq.w 0x2, a7
  < 0x00521b78      601e           bra.b 0x521b98
  > 0x00521b7a      3f3c0055       move.w 0x55, -(a7)
  < 0x00521b7e      60f4           bra.b 0x521b74
   > 0x00521b80      3f3c0056       move.w 0x56, -(a7)
  < 0x00521b84      60ee           bra.b 0x521b74
  > 0x00521b86      3f3c0057       move.w 0x57, -(a7)
  < 0x00521b8a      60e8           bra.b 0x521b74
  > 0x00521b8c      3f3c0058       move.w 0x58, -(a7)
  < 0x00521b90      60e2           bra.b 0x521b74
  > 0x00521b92      3f3c0059       move.w 0x59, -(a7)
    < 0x00521b96      60dc           bra.b 0x521b74
  > 0x00521b98      544f           addq.w 0x2, a7
    < 0x00521b9a      605c           bra.b 0x521bf8
       0x00521b9c      554f           subq.w 0x2, a7
       0x00521b9e      1f11           move.b (a1), -(a7)
       0x00521ba0      1f12           move.b (a2), -(a7)
       0x00521ba2      4e93           jsr (a3)                    ; fcn.0000000c
       0x00521ba4      584f           addq.w 0x4, a7
       0x00521ba6      1017           move.b (a7), d0
       0x00521ba8      b003           cmp.b d3, d0
   < 0x00521baa      6c0e           bge.b 0x521bba
      0x00521bac      b002           cmp.b d2, d0
  < 0x00521bae      6d14           blt.b 0x521bc4
     0x00521bb0      b002           cmp.b d2, d0
  < 0x00521bb2      6724           beq.b 0x521bd8
     0x00521bb4      b005           cmp.b d5, d0
  < 0x00521bb6      6732           beq.b 0x521bea
  < 0x00521bb8      603c           bra.b 0x521bf6
  > 0x00521bba      b003           cmp.b d3, d0
  < 0x00521bbc      6720           beq.b 0x521bde
     0x00521bbe      b006           cmp.b d6, d0
  < 0x00521bc0      672e           beq.b 0x521bf0
  < 0x00521bc2      6032           bra.b 0x521bf6
  > 0x00521bc4      4a00           tst.b d0
  < 0x00521bc6      6706           beq.b 0x521bce
     0x00521bc8      b004           cmp.b d4, d0
  < 0x00521bca      6718           beq.b 0x521be4
  < 0x00521bcc      6028           bra.b 0x521bf6
  > 0x00521bce      3f3c005a       move.w 0x5a, -(a7)
  > 0x00521bd2      4e94           jsr (a4)                    ; fcn.0000000d
     0x00521bd4      544f           addq.w 0x2, a7
  < 0x00521bd6      601e           bra.b 0x521bf6
  > 0x00521bd8      3f3c005b       move.w 0x5b, -(a7)
  < 0x00521bdc      60f4           bra.b 0x521bd2
  > 0x00521bde      3f3c005c       move.w 0x5c, -(a7)
  < 0x00521be2      60ee           bra.b 0x521bd2
  > 0x00521be4      3f3c005d       move.w 0x5d, -(a7)
  < 0x00521be8      60e8           bra.b 0x521bd2
  > 0x00521bea      3f3c005e       move.w 0x5e, -(a7)
  < 0x00521bee      60e2           bra.b 0x521bd2
  > 0x00521bf0      3f3c005f       move.w 0x5f, -(a7)
  < 0x00521bf4      60dc           bra.b 0x521bd2
  < 0x00521bf6      60a0           bra.b 0x521b98
    > 0x00521bf8      1f11           move.b (a1), -(a7)
            0x00521bfa      2f2e000e       move.l 0xe(a6), -(a7)
            0x00521bfe      2f2e000a       move.l 0xa(a6), -(a7)
            0x00521c02      4ebadc22       jsr BRUSHCOM.b_dest_area(pc)
            0x00521c06      defc000a       adda.w 0xa, a7
            0x00521c0a      33fc4000fff8.  move.w 0x4000, 0xfff8000c.l
            0x00521c12      4279fff80000   clr.w 0xfff80000
            0x00521c18      4cdf1f7f       movem.l (a7)+, d0-d6/a0-a4
            0x00521c1c      4e5e           unlk a6
            0x00521c1e      4e75           rts
 446: BRUSHCOM.br_sgi_transfer ();
           0x00521c20      4e56fffa       link.w a6, 0xfffa
           0x00521c24      48e7ffc0       movem.l d0-d7/a0-a1, -(a7)
           0x00521c28      41ee0018       lea.l 0x18(a6), a0
           0x00521c2c      43ee0016       lea.l 0x16(a6), a1
           0x00521c30      7401           moveq 0x1, d2
           0x00521c32      7605           moveq 0x5, d3
           0x00521c34      781e           moveq 0x1e, d4
           0x00521c36      7a06           moveq 0x6, d5
           0x00521c38      4ebad65e       jsr BRUSHCOM.brush_wait(pc)
           0x00521c3c      4a10           tst.b (a0)
       < 0x00521c3e      670c           beq.b 0x521c4c
          0x00521c40      1010           move.b (a0), d0
          0x00521c42      b002           cmp.b d2, d0
      < 0x00521c44      67000086       beq.w 0x521ccc
     < 0x00521c48      600000ec       bra.w 0x521d36
     > 0x00521c4c      554f           subq.w 0x2, a7
         0x00521c4e      1f11           move.b (a1), -(a7)
         0x00521c50      1f2e0014       move.b 0x14(a6), -(a7)
         0x00521c54      4ebae52e       jsr BRUSHCOM.store_and_plane(pc)
         0x00521c58      584f           addq.w 0x4, a7
         0x00521c5a      1017           move.b (a7), d0
         0x00521c5c      b004           cmp.b d4, d0
     < 0x00521c5e      6c0e           bge.b 0x521c6e
        0x00521c60      b003           cmp.b d3, d0
    < 0x00521c62      6d16           blt.b 0x521c7a
       0x00521c64      b003           cmp.b d3, d0
   < 0x00521c66      6728           beq.b 0x521c90
      0x00521c68      b005           cmp.b d5, d0
  < 0x00521c6a      6736           beq.b 0x521ca2
 < 0x00521c6c      6040           bra.b 0x521cae
 > 0x00521c6e      b004           cmp.b d4, d0
 < 0x00521c70      6724           beq.b 0x521c96
    0x00521c72      0c00001f       cmpi.b 0x1f, d0
 < 0x00521c76      6730           beq.b 0x521ca8
 < 0x00521c78      6034           bra.b 0x521cae
 > 0x00521c7a      4a00           tst.b d0
 < 0x00521c7c      6706           beq.b 0x521c84
    0x00521c7e      b002           cmp.b d2, d0
 < 0x00521c80      671a           beq.b 0x521c9c
 < 0x00521c82      602a           bra.b 0x521cae
 > 0x00521c84      3f3c0048       move.w 0x48, -(a7)
     ; CODE XREFS from BRUSHCOM.br_sgi_transfer @ 0x521c94, 0x521c9a, 0x521ca0, 0x521ca6, 0x521cac
 > 0x00521c88      4ebad6d8       jsr BRUSHCOM.b_setup_control(pc)
    0x00521c8c      544f           addq.w 0x2, a7
 < 0x00521c8e      601e           bra.b 0x521cae
 > 0x00521c90      3f3c0049       move.w 0x49, -(a7)
 < 0x00521c94      60f2           bra.b 0x521c88
  > 0x00521c96      3f3c004a       move.w 0x4a, -(a7)
 < 0x00521c9a      60ec           bra.b 0x521c88
 > 0x00521c9c      3f3c004b       move.w 0x4b, -(a7)
 < 0x00521ca0      60e6           bra.b 0x521c88
 > 0x00521ca2      3f3c004c       move.w 0x4c, -(a7)
 < 0x00521ca6      60e0           bra.b 0x521c88
 > 0x00521ca8      3f3c004d       move.w 0x4d, -(a7)
   < 0x00521cac      60da           bra.b 0x521c88
        ; CODE XREFS from BRUSHCOM.br_sgi_transfer @ 0x521c6c, 0x521c78, 0x521c82, 0x521c8e
 > 0x00521cae      544f           addq.w 0x2, a7
         0x00521cb0      4a11           tst.b (a1)
     < 0x00521cb2      6606           bne.b 0x521cba
        0x00521cb4      1f02           move.b d2, -(a7)
        0x00521cb6      3f03           move.w d3, -(a7)
    < 0x00521cb8      6006           bra.b 0x521cc0
    > 0x00521cba      1f02           move.b d2, -(a7)
        0x00521cbc      3f3c0007       move.w 0x7, -(a7)
        ; CODE XREF from BRUSHCOM.br_sgi_transfer @ 0x521cb8
    > 0x00521cc0      1f02           move.b d2, -(a7)
         ; CODE XREF from BRUSHCOM.br_sgi_transfer @ 0x521d34
     > 0x00521cc2      4eb900463e42   jsr S7_ZEBEDEE.s7_brush_pipe
        0x00521cc8      5c4f           addq.w 0x6, a7
    < 0x00521cca      606a           bra.b 0x521d36
    > 0x00521ccc      554f           subq.w 0x2, a7
        0x00521cce      1f11           move.b (a1), -(a7)
        0x00521cd0      1f2e0014       move.b 0x14(a6), -(a7)
        0x00521cd4      4ebae4ae       jsr BRUSHCOM.store_and_plane(pc)
        0x00521cd8      584f           addq.w 0x4, a7
        0x00521cda      1017           move.b (a7), d0
        0x00521cdc      b004           cmp.b d4, d0
    < 0x00521cde      6c0e           bge.b 0x521cee
       0x00521ce0      b003           cmp.b d3, d0
   < 0x00521ce2      6d16           blt.b 0x521cfa
      0x00521ce4      b003           cmp.b d3, d0
  < 0x00521ce6      6728           beq.b 0x521d10
     0x00521ce8      b005           cmp.b d5, d0
 < 0x00521cea      6736           beq.b 0x521d22
 < 0x00521cec      6040           bra.b 0x521d2e
 > 0x00521cee      b004           cmp.b d4, d0
 < 0x00521cf0      6724           beq.b 0x521d16
    0x00521cf2      0c00001f       cmpi.b 0x1f, d0
 < 0x00521cf6      6730           beq.b 0x521d28
 < 0x00521cf8      6034           bra.b 0x521d2e
 > 0x00521cfa      4a00           tst.b d0
 < 0x00521cfc      6706           beq.b 0x521d04
    0x00521cfe      b002           cmp.b d2, d0
 < 0x00521d00      671a           beq.b 0x521d1c
 < 0x00521d02      602a           bra.b 0x521d2e
 > 0x00521d04      3f3c004e       move.w 0x4e, -(a7)
     ; CODE XREFS from BRUSHCOM.br_sgi_transfer @ 0x521d14, 0x521d1a, 0x521d20, 0x521d26, 0x521d2c
 > 0x00521d08      4ebad658       jsr BRUSHCOM.b_setup_control(pc)
    0x00521d0c      544f           addq.w 0x2, a7
 < 0x00521d0e      601e           bra.b 0x521d2e
 > 0x00521d10      3f3c004f       move.w 0x4f, -(a7)
 < 0x00521d14      60f2           bra.b 0x521d08
  > 0x00521d16      3f3c0050       move.w 0x50, -(a7)
 < 0x00521d1a      60ec           bra.b 0x521d08
 > 0x00521d1c      3f3c0051       move.w 0x51, -(a7)
 < 0x00521d20      60e6           bra.b 0x521d08
 > 0x00521d22      3f3c0052       move.w 0x52, -(a7)
 < 0x00521d26      60e0           bra.b 0x521d08
 > 0x00521d28      3f3c0053       move.w 0x53, -(a7)
   < 0x00521d2c      60da           bra.b 0x521d08
        ; CODE XREFS from BRUSHCOM.br_sgi_transfer @ 0x521cec, 0x521cf8, 0x521d02, 0x521d0e
 > 0x00521d2e      1e82           move.b d2, (a7)
        0x00521d30      4267           clr.w -(a7)
        0x00521d32      4227           clr.b -(a7)
     < 0x00521d34      608c           bra.b 0x521cc2
         ; CODE XREFS from BRUSHCOM.br_sgi_transfer @ 0x521c48, 0x521cca
    > 0x00521d36      1f11           move.b (a1), -(a7)
           0x00521d38      2f2e0010       move.l 0x10(a6), -(a7)
           0x00521d3c      2f2e000c       move.l 0xc(a6), -(a7)
           0x00521d40      4ebadae4       jsr BRUSHCOM.b_dest_area(pc)
           0x00521d44      defc000a       adda.w 0xa, a7
           0x00521d48      3e3c00d0       move.w 0xd0, d7
           0x00521d4c      4a2e000a       tst.b 0xa(a6)
       < 0x00521d50      6738           beq.b 0x521d8a
          0x00521d52      4a10           tst.b (a0)
      < 0x00521d54      660c           bne.b 0x521d62
         0x00521d56      203c000000d0   move.l 0xd0, d0
         0x00521d5c      5280           addq.l 0x1, d0
         0x00521d5e      3e00           move.w d0, d7
     < 0x00521d60      600a           bra.b 0x521d6c
     > 0x00521d62      1010           move.b (a0), d0
         0x00521d64      b002           cmp.b d2, d0
     < 0x00521d66      6604           bne.b 0x521d6c
        0x00521d68      3e3c00d4       move.w 0xd4, d7
        ; CODE XREF from BRUSHCOM.br_sgi_transfer @ 0x521d60
     > 0x00521d6c      302e0010       move.w 0x10(a6), d0
          0x00521d70      48c0           ext.l d0
          0x00521d72      322e000c       move.w 0xc(a6), d1
          0x00521d76      48c1           ext.l d1
          0x00521d78      d280           add.l d0, d1
          0x00521d7a      5381           subq.l 0x1, d1
          0x00521d7c      3c01           move.w d1, d6
          0x00521d7e      33c6fff840f0   move.w d6, 0xfff840f0
          0x00521d84      33c6fff80070   move.w d6, 0xfff80070
       > 0x00521d8a      4a2e0008       tst.b 0x8(a6)
       < 0x00521d8e      6732           beq.b 0x521dc2
          0x00521d90      4a10           tst.b (a0)
      < 0x00521d92      6606           bne.b 0x521d9a
         0x00521d94      48c7           ext.l d7
         0x00521d96      5487           addq.l 0x2, d7
     < 0x00521d98      600a           bra.b 0x521da4
     > 0x00521d9a      1010           move.b (a0), d0
         0x00521d9c      b002           cmp.b d2, d0
     < 0x00521d9e      6604           bne.b 0x521da4
        0x00521da0      48c7           ext.l d7
        0x00521da2      5087           addq.l 0x8, d7
        ; CODE XREF from BRUSHCOM.br_sgi_transfer @ 0x521d98
     > 0x00521da4      302e0012       move.w 0x12(a6), d0
          0x00521da8      48c0           ext.l d0
          0x00521daa      322e000e       move.w 0xe(a6), d1
          0x00521dae      48c1           ext.l d1
          0x00521db0      d280           add.l d0, d1
          0x00521db2      5381           subq.l 0x1, d1
          0x00521db4      3c01           move.w d1, d6
          0x00521db6      33c6fff840f2   move.w d6, 0xfff840f2
          0x00521dbc      33c6fff80072   move.w d6, 0xfff80072
       > 0x00521dc2      33c7fff840de   move.w d7, 0xfff840de
           0x00521dc8      33fc4000fff8.  move.w 0x4000, 0xfff8000c.l
           0x00521dd0      4279fff80000   clr.w 0xfff80000
           0x00521dd6      4cdf03ff       movem.l (a7)+, d0-d7/a0-a1
           0x00521dda      4e5e           unlk a6
           0x00521ddc      4e75           rts
 322: BRUSHCOM.br_rd_store (int32_t arg_ah, int32_t arg_eh);
           ; arg int32_t arg_ah @ a6+0xa
           ; arg int32_t arg_eh @ a6+0xe
           0x00521dde      4e56fff0       link.w a6, 0xfff0
           0x00521de2      48e7ffe0       movem.l d0-d7/a0-a2, -(a7)
           0x00521de6      41eefff8       lea.l -0x8(a6), a0
           0x00521dea      43eefffc       lea.l -0x4(a6), a1
           0x00521dee      45eefff4       lea.l -0xc(a6), a2
           0x00521df2      7a02           moveq 0x2, d5
           0x00521df4      302e0008       move.w 0x8(a6), d0
           0x00521df8      48c0           ext.l d0
           0x00521dfa      2200           move.l d0, d1
           0x00521dfc      02810000fff8   andi.l 0xfff8, d1
           0x00521e02      3081           move.w d1, (a0)
           0x00521e04      3d6e000afffa   move.w 0xa(a6), -0x6(a6)
           0x00521e0a      322e000c       move.w 0xc(a6), d1
           0x00521e0e      48c1           ext.l d1
           0x00521e10      2400           move.l d0, d2
           0x00521e12      d481           add.l d1, d2
           0x00521e14      5e82           addq.l 0x7, d2
           0x00521e16      02820000fff8   andi.l 0xfff8, d2
           0x00521e1c      3610           move.w (a0), d3
           0x00521e1e      48c3           ext.l d3
           0x00521e20      4483           neg.l d3
           0x00521e22      d682           add.l d2, d3
           0x00521e24      3283           move.w d3, (a1)
           0x00521e26      3d6e000efffe   move.w 0xe(a6), -0x2(a6)
           0x00521e2c      2801           move.l d1, d4
           0x00521e2e      342e000e       move.w 0xe(a6), d2
           0x00521e32      48c2           ext.l d2
           0x00521e34      2602           move.l d2, d3
           0x00521e36      4eb900406a74   jsr fcn.00406a74
           0x00521e3c      4852           pea.l (a2)
           0x00521e3e      e384           asl.l 0x1, d4
           0x00521e40      2f04           move.l d4, -(a7)
           0x00521e42      4eb900403a92   jsr p_New
           0x00521e48      504f           addq.w 0x8, a7
           0x00521e4a      162e0010       move.b 0x10(a6), d3
           0x00521e4e      b605           cmp.b d5, d3
       < 0x00521e50      6606           bne.b 0x521e58
          0x00521e52      3e3c00ff       move.w 0xff, d7
      < 0x00521e56      6004           bra.b 0x521e5c
      > 0x00521e58      3e3cffff       move.w 0xffff, d7
          ; CODE XREF from BRUSHCOM.br_rd_store @ 0x521e56
      > 0x00521e5c      4ebad43a       jsr BRUSHCOM.brush_wait(pc)
           0x00521e60      554f           subq.w 0x2, a7
           0x00521e62      1f2e0012       move.b 0x12(a6), -(a7)
           0x00521e66      1f03           move.b d3, -(a7)
           0x00521e68      4ebae31a       jsr BRUSHCOM.store_and_plane(pc)
           0x00521e6c      584f           addq.w 0x4, a7
           0x00521e6e      1617           move.b (a7), d3
           0x00521e70      0c03001e       cmpi.b 0x1e, d3
       < 0x00521e74      6d1c           blt.b 0x521e92
          0x00521e76      4883           ext.w d3
          0x00521e78      3803           move.w d3, d4
          0x00521e7a      0444001e       subi.w 0x1e, d4
          0x00521e7e      b845           cmp.w d5, d4
      < 0x00521e80      625c           bhi.b 0x521ede
         0x00521e82      d844           add.w d4, d4
         0x00521e84      383b4006       move.w 0x521e8c(pc, d4.w), d4
         0x00521e88      4efb4002       jmp 0x521e8c(pc, d4.w)
          0x00521e8c      0046004c       ori.w 0x4c, d6
          0x00521e90  ~   00464883       ori.w 0x4883, d6
      > 0x00521e92      4883           ext.w d3
          0x00521e94      0c430007       cmpi.w 0x7, d3
      < 0x00521e98      6244           bhi.b 0x521ede
         0x00521e9a      d643           add.w d3, d3
         0x00521e9c      363b3006       move.w 0x521ea4(pc, d3.w), d3
         0x00521ea0      4efb3002       jmp 0x521ea4(pc, d3.w)
          0x00521ea4      0010001c       ori.b 0x1c, (a0)
          0x00521ea8      0010003a       ori.b 0x3a, (a0)
          0x00521eac      003a0022       
          0x00521ead      3a00           move.w d0, d5
          0x00521eaf      2200           move.l d0, d1
          0x00521eb1      2800           move.l d0, d4
          0x00521eb3      223f3c00       
          0x00521eb4      3f3c0036       move.w 0x36, -(a7)
  > 0x00521eb8      4ebad4a8       jsr BRUSHCOM.b_setup_control(pc)
     0x00521ebc      544f           addq.w 0x2, a7
  < 0x00521ebe      6038           bra.b 0x521ef8              ; BRUSHCOM.br_rd_store+0x11a
     0x00521ec0      3f3c0039       move.w 0x39, -(a7)
  < 0x00521ec4      60f2           bra.b 0x521eb8
      0x00521ec6      3f3c0037       move.w 0x37, -(a7)
   < 0x00521eca      60ec           bra.b 0x521eb8
       0x00521ecc      3f3c003a       move.w 0x3a, -(a7)
    < 0x00521ed0      60e6           bra.b 0x521eb8
        0x00521ed2      3f3c0038       move.w 0x38, -(a7)
     < 0x00521ed6      60e0           bra.b 0x521eb8
         0x00521ed8      3f3c003b       move.w 0x3b, -(a7)
      < 0x00521edc      60da           bra.b 0x521eb8
      > 0x00521ede      487ace85       pea.l 0x51ed65(pc)
           0x00521ee2      48780021       pea.l 0x21
           0x00521ee6      2f17           move.l (a7), -(a7)
           0x00521ee8      4eb9004047ea   jsr p_wts_o
           0x00521eee      defc000c       adda.w 0xc, a7
           0x00521ef2      4eb900404946   jsr p_wtln_o
 > 0x00521ef8      1eae0012       move.b 0x12(a6), (a7)
           0x00521efc      2f11           move.l (a1), -(a7)
           0x00521efe      2f10           move.l (a0), -(a7)
           0x00521f00      4ebad924       jsr BRUSHCOM.b_dest_area(pc)
           0x00521f04      defc000a       adda.w 0xa, a7
           0x00521f08      33fc000ffffb.  move.w 0xf, 0xfffb0000.l
           0x00521f10      4279fff80000   clr.w 0xfff80000
           0x00521f16      3c39fff9400e   move.w 0xfff9400e, d6
           0x00521f1c      3c39fff9400e   move.w 0xfff9400e, d6
           0x00521f22      3c39fff9400e   move.w 0xfff9400e, d6
           0x00521f28      02400007       andi.w 0x7, d0
           0x00521f2c      2f12           move.l (a2), -(a7)
           0x00521f2e      3f07           move.w d7, -(a7)
           0x00521f30      3f01           move.w d1, -(a7)
           0x00521f32      3f02           move.w d2, -(a7)
           0x00521f34      3f00           move.w d0, -(a7)
           0x00521f36      3411           move.w (a1), d2
           0x00521f38      48c2           ext.l d2
           0x00521f3a      48c0           ext.l d0
           0x00521f3c      4480           neg.l d0
           0x00521f3e      d082           add.l d2, d0
           0x00521f40      4481           neg.l d1
           0x00521f42      d280           add.l d0, d1
           0x00521f44      3f01           move.w d1, -(a7)
           0x00521f46      4eb900519520   jsr b_cpu_rread
           0x00521f4c      defc000e       adda.w 0xe, a7
           0x00521f50      4ebadad2       jsr BRUSHCOM.br_abort(pc)
           0x00521f54      2d520014       move.l (a2), 0x14(a6)
           0x00521f58      4cdf07ff       movem.l (a7)+, d0-d7/a0-a2
           0x00521f5c      4e5e           unlk a6
           0x00521f5e      4e75           rts
 340: BRUSHCOM.br_wr_store ();
           0x00521f60      4e56fffa       link.w a6, 0xfffa
           0x00521f64      48e7ffc0       movem.l d0-d7/a0-a1, -(a7)
           0x00521f68      41ee000c       lea.l 0xc(a6), a0
           0x00521f6c      43ee0012       lea.l 0x12(a6), a1
           0x00521f70      7607           moveq 0x7, d3
           0x00521f72      781e           moveq 0x1e, d4
           0x00521f74      102e0010       move.b 0x10(a6), d0
           0x00521f78      0c000002       cmpi.b 0x2, d0
       < 0x00521f7c      6606           bne.b 0x521f84
          0x00521f7e      3e3c8000       move.w 0x8000, d7
      < 0x00521f82      6002           bra.b 0x521f86
      > 0x00521f84      7e00           moveq 0x0, d7
          ; CODE XREF from BRUSHCOM.br_wr_store @ 0x521f82
      > 0x00521f86      7c00           moveq 0x0, d6
           0x00521f88      322e0008       move.w 0x8(a6), d1
           0x00521f8c      c243           and.w d3, d1
       < 0x00521f8e      6608           bne.b 0x521f98
          0x00521f90      3210           move.w (a0), d1
          0x00521f92      c243           and.w d3, d1
      < 0x00521f94      6602           bne.b 0x521f98
         0x00521f96      5206           addq.b 0x1, d6
      > 0x00521f98      4ebad2fe       jsr BRUSHCOM.brush_wait(pc)
           0x00521f9c      4a06           tst.b d6
       < 0x00521f9e      670000a0       beq.w 0x522040
          0x00521fa2      554f           subq.w 0x2, a7
          0x00521fa4      1f11           move.b (a1), -(a7)
          0x00521fa6      1f00           move.b d0, -(a7)
          0x00521fa8      4ebae1da       jsr BRUSHCOM.store_and_plane(pc)
          0x00521fac      584f           addq.w 0x4, a7
          0x00521fae      1217           move.b (a7), d1
          0x00521fb0      b204           cmp.b d4, d1
      < 0x00521fb2      6d1c           blt.b 0x521fd0
         0x00521fb4      4881           ext.w d1
         0x00521fb6      3401           move.w d1, d2
         0x00521fb8      9444           sub.w d4, d2
         0x00521fba      0c420002       cmpi.w 0x2, d2
     < 0x00521fbe      625c           bhi.b 0x52201c
        0x00521fc0      d442           add.w d2, d2
        0x00521fc2      343b2006       move.w 0x521fca(pc, d2.w), d2
        0x00521fc6      4efb2002       jmp 0x521fca(pc, d2.w)
         0x00521fca      0046004c       ori.w 0x4c, d6
         0x00521fce  ~   00464881       ori.w 0x4881, d6
     > 0x00521fd0      4881           ext.w d1
         0x00521fd2      b243           cmp.w d3, d1
     < 0x00521fd4      6246           bhi.b 0x52201c
        0x00521fd6      d241           add.w d1, d1
        0x00521fd8      323b1006       move.w 0x521fe0(pc, d1.w), d1
        0x00521fdc      4efb1002       jmp 0x521fe0(pc, d1.w)
         0x00521fe0      0010001e       ori.b 0x1e, (a0)
         0x00521fe4      0010003c       ori.b 0x3c, (a0)
         0x00521fe8      003c0024       ori.b 0x24, ccr
         0x00521fec      002a00243f3c   ori.b 0x24, 0x3f3c(a2)
         0x00521ff2      00424eba       ori.w 0x4eba, d2
     0x00521ff6      d36c584f       add.w d1, 0x584f(a4)
  < 0x00521ffa      600000cc       bra.w 0x5220c8              ; BRUSHCOM.br_wr_store+0x168
     0x00521ffe      3f3c0045       move.w 0x45, -(a7)
  < 0x00522002      60f0           bra.b 0x521ff4
     0x00522004      3f3c0043       move.w 0x43, -(a7)
  < 0x00522008      60ea           bra.b 0x521ff4
     0x0052200a      3f3c0046       move.w 0x46, -(a7)
  < 0x0052200e      60e4           bra.b 0x521ff4
     0x00522010      3f3c0044       move.w 0x44, -(a7)
  < 0x00522014      60de           bra.b 0x521ff4
     0x00522016      3f3c0047       move.w 0x47, -(a7)
  < 0x0052201a      60d8           bra.b 0x521ff4
 > 0x0052201c      487acd69       pea.l 0x51ed87(pc)
      ; CODE XREF from BRUSHCOM.br_wr_store @ 0x5220c2
  > 0x00522020      4878001f       pea.l 0x1f
     0x00522024      2f17           move.l (a7), -(a7)
     0x00522026      4eb9004047ea   jsr p_wts_o
     0x0052202c      defc000c       adda.w 0xc, a7
     0x00522030      4eb900404946   jsr p_wtln_o
     0x00522036      544f           addq.w 0x2, a7
 < 0x00522038      6000008e       bra.w 0x5220c8
  < 0x0052203c      60000088       bra.w 0x5220c6
 > 0x00522040      554f           subq.w 0x2, a7
     0x00522042      1f11           move.b (a1), -(a7)
     0x00522044      1f00           move.b d0, -(a7)
     0x00522046      4ebae13c       jsr BRUSHCOM.store_and_plane(pc)
     0x0052204a      584f           addq.w 0x4, a7
     0x0052204c      1217           move.b (a7), d1
     0x0052204e      b204           cmp.b d4, d1
 < 0x00522050      6d1c           blt.b 0x52206e
    0x00522052      4881           ext.w d1
    0x00522054      3401           move.w d1, d2
    0x00522056      9444           sub.w d4, d2
    0x00522058      0c420002       cmpi.w 0x2, d2
 < 0x0052205c      6260           bhi.b 0x5220be
    0x0052205e      d442           add.w d2, d2
    0x00522060      343b2006       move.w 0x522068(pc, d2.w), d2
    0x00522064      4efb2002       jmp 0x522068(pc, d2.w)
     0x00522068      0046004e       ori.w 0x4e, d6
     0x0052206c  ~   00464881       ori.w 0x4881, d6
 > 0x0052206e      4881           ext.w d1
     0x00522070      b243           cmp.w d3, d1
 < 0x00522072      624a           bhi.b 0x5220be
    0x00522074      d241           add.w d1, d1
    0x00522076      323b1006       move.w 0x52207e(pc, d1.w), d1
    0x0052207a      4efb1002       jmp 0x52207e(pc, d1.w)
     0x0052207e      00100018       ori.b 0x18, (a0)
     0x00522082      00100040       ori.b 0x40, (a0)
     0x00522086      00400020       ori.w 0x20, d0
     0x0052208a      002800203f3c   ori.b 0x20, 0x3f3c(a0)
     0x00522090      003c6000       
     0x00522091      3c60           movea.w -(a0), a6
     0x00522093      00ff603f       
     0x00522094      ff60           invalid
     0x00522096      3f3c003f       move.w 0x3f, -(a7)
  < 0x0052209a      6000ff58       bra.w 0x521ff4
     0x0052209e      3f3c003d       move.w 0x3d, -(a7)
  < 0x005220a2      6000ff50       bra.w 0x521ff4
      0x005220a6      3f3c0040       move.w 0x40, -(a7)
   < 0x005220aa      6000ff48       bra.w 0x521ff4
       0x005220ae      3f3c003e       move.w 0x3e, -(a7)
    < 0x005220b2      6000ff40       bra.w 0x521ff4
        0x005220b6      3f3c0041       move.w 0x41, -(a7)
     < 0x005220ba      6000ff38       bra.w 0x521ff4
 > 0x005220be      487acce7       pea.l 0x51eda7(pc)
     < 0x005220c2      6000ff5c       bra.w 0x522020
  > 0x005220c6      544f           addq.w 0x2, a7
          ; CODE XREF from BRUSHCOM.br_wr_store @ 0x522038
 > 0x005220c8      33fc0010fff8.  move.w 0x10, 0xfff840de.l
           0x005220d0      1f11           move.b (a1), -(a7)
           0x005220d2      2f10           move.l (a0), -(a7)
           0x005220d4      2f2e0008       move.l 0x8(a6), -(a7)
           0x005220d8      4ebad74c       jsr BRUSHCOM.b_dest_area(pc)
           0x005220dc      defc000a       adda.w 0xa, a7
           0x005220e0      33fc000ffffb.  move.w 0xf, 0xfffb0000.l
           0x005220e8      4279fff80000   clr.w 0xfff80000
           0x005220ee      3a39fff9400e   move.w 0xfff9400e, d5
           0x005220f4      3a39fff9400e   move.w 0xfff9400e, d5
           0x005220fa      3a39fff9400e   move.w 0xfff9400e, d5
           0x00522100      4a06           tst.b d6
       < 0x00522102      6714           beq.b 0x522118
          0x00522104      2f2e0014       move.l 0x14(a6), -(a7)
          0x00522108      3f07           move.w d7, -(a7)
          0x0052210a      3f10           move.w (a0), -(a7)
          0x0052210c      3f2e000e       move.w 0xe(a6), -(a7)
          0x00522110      4eb9005195ae   jsr b_cpu_fwrite
      < 0x00522116      6012           bra.b 0x52212a
      > 0x00522118      2f2e0014       move.l 0x14(a6), -(a7)
          0x0052211c      3f07           move.w d7, -(a7)
          0x0052211e      3f10           move.w (a0), -(a7)
          0x00522120      3f2e000e       move.w 0xe(a6), -(a7)
          0x00522124      4eb900519574   jsr b_cpu_rwrite
          ; CODE XREF from BRUSHCOM.br_wr_store @ 0x522116
      > 0x0052212a      defc000a       adda.w 0xa, a7
           0x0052212e      4ebad8f4       jsr BRUSHCOM.br_abort(pc)
           0x00522132      33fc00d0fff8.  move.w 0xd0, 0xfff840de.l
           0x0052213a      4cdf03ff       movem.l (a7)+, d0-d7/a0-a1
           0x0052213e      4e5e           unlk a6
           0x00522140      4e75           rts
 556: BRUSHCOM.br_wr_zoom_stor ();
           0x00522142      4e56fffa       link.w a6, 0xfffa
           0x00522146      48e7fff8       movem.l d0-d7/a0-a4, -(a7)
           0x0052214a      41ee000e       lea.l 0xe(a6), a0
           0x0052214e      43f900406b50   lea.l fcn.00406b50, a1
           0x00522154      45ee0016       lea.l 0x16(a6), a2
           0x00522158      47ee001c       lea.l 0x1c(a6), a3
           0x0052215c      49ee000a       lea.l 0xa(a6), a4
           0x00522160      102e001a       move.b 0x1a(a6), d0
           0x00522164      0c000002       cmpi.b 0x2, d0
       < 0x00522168      6606           bne.b 0x522170
          0x0052216a      3e3c8000       move.w 0x8000, d7
      < 0x0052216e      6002           bra.b 0x522172
      > 0x00522170      7e00           moveq 0x0, d7
          ; CODE XREF from BRUSHCOM.br_wr_zoom_stor @ 0x52216e
      > 0x00522172      7c00           moveq 0x0, d6
           0x00522174      322e0012       move.w 0x12(a6), d1
           0x00522178      02410007       andi.w 0x7, d1
       < 0x0052217c      660a           bne.b 0x522188
          0x0052217e      3212           move.w (a2), d1
          0x00522180      02410007       andi.w 0x7, d1
      < 0x00522184      6602           bne.b 0x522188
         0x00522186      5206           addq.b 0x1, d6
      > 0x00522188      1f13           move.b (a3), -(a7)
           0x0052218a      2f12           move.l (a2), -(a7)
           0x0052218c      2f2e0012       move.l 0x12(a6), -(a7)
           0x00522190      4ebad694       jsr BRUSHCOM.b_dest_area(pc)
           0x00522194      defc000a       adda.w 0xa, a7
           0x00522198      4ebad0fe       jsr BRUSHCOM.brush_wait(pc)
           0x0052219c      4a06           tst.b d6
       < 0x0052219e      670000a6       beq.w 0x522246
          0x005221a2      554f           subq.w 0x2, a7
          0x005221a4      1f13           move.b (a3), -(a7)
          0x005221a6      1f00           move.b d0, -(a7)
          0x005221a8      4ebadfda       jsr BRUSHCOM.store_and_plane(pc)
          0x005221ac      584f           addq.w 0x4, a7
          0x005221ae      1217           move.b (a7), d1
          0x005221b0      0c01001e       cmpi.b 0x1e, d1
      < 0x005221b4      6d1e           blt.b 0x5221d4
         0x005221b6      4881           ext.w d1
         0x005221b8      3401           move.w d1, d2
         0x005221ba      0442001e       subi.w 0x1e, d2
         0x005221be      0c420002       cmpi.w 0x2, d2
     < 0x005221c2      625e           bhi.b 0x522222
        0x005221c4      d442           add.w d2, d2
        0x005221c6      343b2006       move.w 0x5221ce(pc, d2.w), d2
        0x005221ca      4efb2002       jmp 0x5221ce(pc, d2.w)
         0x005221ce      0048004e       
         0x005221cf      4800           nbcd.b d0
         0x005221d1      4e004848       
         0x005221d2      00484881       
         0x005221d3  ~   4848           bkpt 0x0
     > 0x005221d4      4881           ext.w d1
         0x005221d6      0c410007       cmpi.w 0x7, d1
         0x005221da      6246           bhi.b 0x522222
         0x005221dc      d241           add.w d1, d1
         0x005221de      323b1006       move.w 0x5221e6(pc, d1.w), d1
         0x005221e2      4efb1002       jmp 0x5221e6(pc, d1.w)
          0x005221e6      0010001e       ori.b 0x1e, (a0)
          0x005221ea      0010003c       ori.b 0x3c, (a0)
          0x005221ee      003c0024       ori.b 0x24, ccr
          0x005221f2      002a00243f3c   ori.b 0x24, 0x3f3c(a2)
          0x005221f8      00424eba       ori.w 0x4eba, d2
     0x005221fc      d166           add.w d0, -(a6)
     0x005221fe      584f           addq.w 0x4, a7
  < 0x00522200      600000d2       bra.w 0x5222d4              ; BRUSHCOM.br_wr_zoom_stor+0x192
     0x00522204      3f3c0045       move.w 0x45, -(a7)
  < 0x00522208      60f0           bra.b 0x5221fa
     0x0052220a      3f3c0043       move.w 0x43, -(a7)
  < 0x0052220e      60ea           bra.b 0x5221fa
     0x00522210      3f3c0046       move.w 0x46, -(a7)
  < 0x00522214      60e4           bra.b 0x5221fa
     0x00522216      3f3c0044       move.w 0x44, -(a7)
  < 0x0052221a      60de           bra.b 0x5221fa
     0x0052221c      3f3c0047       move.w 0x47, -(a7)
  < 0x00522220      60d8           bra.b 0x5221fa
 > 0x00522222      487acba3       pea.l 0x51edc7(pc)
     ; CODE XREF from BRUSHCOM.br_wr_zoom_stor @ 0x5222ce
 > 0x00522226      4878001f       pea.l 0x1f
    0x0052222a      2f17           move.l (a7), -(a7)
    0x0052222c      4eb9004047ea   jsr p_wts_o
    0x00522232      defc000c       adda.w 0xc, a7
    0x00522236      4eb900404946   jsr p_wtln_o
    0x0052223c      544f           addq.w 0x2, a7
 < 0x0052223e      60000094       bra.w 0x5222d4
  < 0x00522242      6000008e       bra.w 0x5222d2
 > 0x00522246      554f           subq.w 0x2, a7
     0x00522248      1f13           move.b (a3), -(a7)
     0x0052224a      1f00           move.b d0, -(a7)
     0x0052224c      4ebadf36       jsr BRUSHCOM.store_and_plane(pc)
     0x00522250      584f           addq.w 0x4, a7
     0x00522252      1217           move.b (a7), d1
     0x00522254      0c01001e       cmpi.b 0x1e, d1
 < 0x00522258      6d1e           blt.b 0x522278
    0x0052225a      4881           ext.w d1
    0x0052225c      3401           move.w d1, d2
    0x0052225e      0442001e       subi.w 0x1e, d2
    0x00522262      0c420002       cmpi.w 0x2, d2
 < 0x00522266      6262           bhi.b 0x5222ca
    0x00522268      d442           add.w d2, d2
    0x0052226a      343b2006       move.w 0x522272(pc, d2.w), d2
    0x0052226e      4efb2002       jmp 0x522272(pc, d2.w)
     0x00522272      00480050       
     0x00522273      4800           nbcd.b d0
     0x00522275      5000           addq.b 0x8, d0
     0x00522277  ~   4848           bkpt 0x0
 > 0x00522278      4881           ext.w d1
     0x0052227a      0c410007       cmpi.w 0x7, d1
     0x0052227e      624a           bhi.b 0x5222ca
     0x00522280      d241           add.w d1, d1
     0x00522282      323b1006       move.w 0x52228a(pc, d1.w), d1
     0x00522286      4efb1002       jmp 0x52228a(pc, d1.w)
      0x0052228a      00100018       ori.b 0x18, (a0)
      0x0052228e      00100040       ori.b 0x40, (a0)
      0x00522292      00400020       ori.w 0x20, d0
      0x00522296      002800203f3c   ori.b 0x20, 0x3f3c(a0)
      0x0052229c      003c6000       
      0x0052229d      3c60           movea.w -(a0), a6
      0x0052229f      00ff5a3f       
      0x005222a0      ff5a           frestore (a2)+
      0x005222a2      3f3c003f       move.w 0x3f, -(a7)
  < 0x005222a6      6000ff52       bra.w 0x5221fa
       0x005222aa      3f3c003d       move.w 0x3d, -(a7)
   < 0x005222ae      6000ff4a       bra.w 0x5221fa
        0x005222b2      3f3c0040       move.w 0x40, -(a7)
    < 0x005222b6      6000ff42       bra.w 0x5221fa
         0x005222ba      3f3c003e       move.w 0x3e, -(a7)
     < 0x005222be      6000ff3a       bra.w 0x5221fa
          0x005222c2      3f3c0041       move.w 0x41, -(a7)
      < 0x005222c6      6000ff32       bra.w 0x5221fa
 > 0x005222ca      487acb1b       pea.l 0x51ede7(pc)
     < 0x005222ce      6000ff56       bra.w 0x522226
  > 0x005222d2      544f           addq.w 0x2, a7
           ; CODE XREF from BRUSHCOM.br_wr_zoom_stor @ 0x52223e
 > 0x005222d4      33fc0010fff8.  move.w 0x10, 0xfff840de.l
           0x005222dc      33fc000ffffb.  move.w 0xf, 0xfffb0000.l
           0x005222e4      4279fff80000   clr.w 0xfff80000
           0x005222ea      3a39fff9400e   move.w 0xfff9400e, d5
           0x005222f0      3a39fff9400e   move.w 0xfff9400e, d5
           0x005222f6      3a39fff9400e   move.w 0xfff9400e, d5
           0x005222fc      4a2e0010       tst.b 0x10(a6)
       < 0x00522300      674c           beq.b 0x52234e
          0x00522302      3010           move.w (a0), d0
          0x00522304      c1d4           muls.w (a4), d0
          0x00522306      2800           move.l d0, d4
          0x00522308      7608           moveq 0x8, d3
          0x0052230a      4e91           jsr (a1)                    ; fcn.0000000a
          0x0052230c      2f04           move.l d4, -(a7)
          0x0052230e      3010           move.w (a0), d0
          0x00522310      c1ee0008       muls.w 0x8(a6), d0
          0x00522314      2800           move.l d0, d4
          0x00522316      7608           moveq 0x8, d3
          0x00522318      4e91           jsr (a1)                    ; fcn.0000000a
          0x0052231a      2f2e001e       move.l 0x1e(a6), -(a7)
          0x0052231e      3f07           move.w d7, -(a7)
          0x00522320      3f12           move.w (a2), -(a7)
          0x00522322      3f2e0018       move.w 0x18(a6), -(a7)
          0x00522326      3f10           move.w (a0), -(a7)
          0x00522328      3f2e000c       move.w 0xc(a6), -(a7)
          0x0052232c      3010           move.w (a0), d0
          0x0052232e      48c0           ext.l d0
          0x00522330      222f000e       move.l 0xe(a7), d1
          0x00522334      4481           neg.l d1
          0x00522336      d280           add.l d0, d1
          0x00522338      3f01           move.w d1, -(a7)
          0x0052233a      3010           move.w (a0), d0
          0x0052233c      48c0           ext.l d0
          0x0052233e      4484           neg.l d4
          0x00522340      d880           add.l d0, d4
          0x00522342      3f04           move.w d4, -(a7)
          0x00522344      4eb9005196cc   jsr b_cpu_ziwrite
      < 0x0052234a      60000098       bra.w 0x5223e4
      > 0x0052234e      4a06           tst.b d6
      < 0x00522350      674a           beq.b 0x52239c
         0x00522352      3010           move.w (a0), d0
         0x00522354      c1d4           muls.w (a4), d0
         0x00522356      2800           move.l d0, d4
         0x00522358      7608           moveq 0x8, d3
         0x0052235a      4e91           jsr (a1)                    ; fcn.0000000a
         0x0052235c      2f04           move.l d4, -(a7)
         0x0052235e      3010           move.w (a0), d0
         0x00522360      c1ee0008       muls.w 0x8(a6), d0
         0x00522364      2800           move.l d0, d4
         0x00522366      7608           moveq 0x8, d3
         0x00522368      4e91           jsr (a1)                    ; fcn.0000000a
         0x0052236a      2f2e001e       move.l 0x1e(a6), -(a7)
         0x0052236e      3f07           move.w d7, -(a7)
         0x00522370      3f12           move.w (a2), -(a7)
         0x00522372      3f2e0018       move.w 0x18(a6), -(a7)
         0x00522376      3f10           move.w (a0), -(a7)
         0x00522378      3f2e000c       move.w 0xc(a6), -(a7)
         0x0052237c      3010           move.w (a0), d0
         0x0052237e      48c0           ext.l d0
         0x00522380      222f000e       move.l 0xe(a7), d1
         0x00522384      4481           neg.l d1
         0x00522386      d280           add.l d0, d1
         0x00522388      3f01           move.w d1, -(a7)
         0x0052238a      3010           move.w (a0), d0
         0x0052238c      48c0           ext.l d0
         0x0052238e      4484           neg.l d4
         0x00522390      d880           add.l d0, d4
         0x00522392      3f04           move.w d4, -(a7)
         0x00522394      4eb900519670   jsr b_cpu_zfwrite
     < 0x0052239a      6048           bra.b 0x5223e4
     > 0x0052239c      3010           move.w (a0), d0
         0x0052239e      c1d4           muls.w (a4), d0
         0x005223a0      2800           move.l d0, d4
         0x005223a2      7608           moveq 0x8, d3
         0x005223a4      4e91           jsr (a1)                    ; fcn.0000000a
         0x005223a6      2f04           move.l d4, -(a7)
         0x005223a8      3010           move.w (a0), d0
         0x005223aa      c1ee0008       muls.w 0x8(a6), d0
         0x005223ae      2800           move.l d0, d4
         0x005223b0      7608           moveq 0x8, d3
         0x005223b2      4e91           jsr (a1)                    ; fcn.0000000a
         0x005223b4      2f2e001e       move.l 0x1e(a6), -(a7)
         0x005223b8      3f07           move.w d7, -(a7)
         0x005223ba      3f12           move.w (a2), -(a7)
         0x005223bc      3f2e0018       move.w 0x18(a6), -(a7)
         0x005223c0      3f10           move.w (a0), -(a7)
         0x005223c2      3f2e000c       move.w 0xc(a6), -(a7)
         0x005223c6      3010           move.w (a0), d0
         0x005223c8      48c0           ext.l d0
         0x005223ca      222f000e       move.l 0xe(a7), d1
         0x005223ce      4481           neg.l d1
         0x005223d0      d280           add.l d0, d1
         0x005223d2      3f01           move.w d1, -(a7)
         0x005223d4      3010           move.w (a0), d0
         0x005223d6      48c0           ext.l d0
         0x005223d8      4484           neg.l d4
         0x005223da      d880           add.l d0, d4
         0x005223dc      3f04           move.w d4, -(a7)
         0x005223de      4eb90051960e   jsr b_cpu_zwrite
         ; CODE XREFS from BRUSHCOM.br_wr_zoom_stor @ 0x52234a, 0x52239a
     > 0x005223e4      defc0016       adda.w 0x16, a7
           0x005223e8      4ebad63a       jsr BRUSHCOM.br_abort(pc)
           0x005223ec      33fc00d0fff8.  move.w 0xd0, 0xfff840de.l
           0x005223f4      4cdf1fff       movem.l (a7)+, d0-d7/a0-a4
           0x005223f8      4e5e           unlk a6
           0x005223fa      4e75           rts
            ; XREFS(119)
 32: BRUSHCOM.str_write_area ();
           0x005223fc      4e560000       link.w a6, 0x0
           0x00522400      4ebace96       jsr BRUSHCOM.brush_wait(pc)
           0x00522404      1f2e0010       move.b 0x10(a6), -(a7)
           0x00522408      2f2e000c       move.l 0xc(a6), -(a7)
           0x0052240c      2f2e0008       move.l 0x8(a6), -(a7)
           0x00522410      4ebad0ac       jsr BRUSHCOM.b_crop_area(pc)
           0x00522414      defc000a       adda.w 0xa, a7
           0x00522418      4e5e           unlk a6
           0x0052241a      4e75           rts
            ; CALL XREF from PANEL_VIDEO.store1_save @ 0x794684
            ; CALL XREF from PANEL_VIDEO.store1_restore @ 0x794766
            ; CALL XREF from PANEL_VIDEO.onair_save @ 0x79488e
            ; CALL XREF from PANEL_VIDEO.onair_restore @ 0x79496e
 26: BRUSHCOM.get_write_en ();
           0x0052241c      4e560000       link.w a6, 0x0
           0x00522420      48e70080       movem.l a0, -(a7)
           0x00522424      206e0008       movea.l 0x8(a6), a0
           0x00522428      10b90083e728   move.b 0x83e728, (a0)
           0x0052242e      4cdf0100       movem.l (a7)+, a0
           0x00522432      4e5e           unlk a6
           0x00522434      4e75           rts
            ; XREFS(76)
 56: BRUSHCOM.set_write_en ();
           0x00522436      4e56fff0       link.w a6, 0xfff0
           0x0052243a      48e7e0e0       movem.l d0-d2/a0-a2, -(a7)
           0x0052243e      41f9006336ea   lea.l HANDCOM.get_area, a0
           0x00522444      43eefff0       lea.l -0x10(a6), a1
           0x00522448      45eefff4       lea.l -0xc(a6), a2
           0x0052244c      740a           moveq 0xa, d2
           0x0052244e      13ee00080083.  move.b 0x8(a6), 0x83e728.l
           0x00522456      102e0008       move.b 0x8(a6), d0
           0x0052245a      4880           ext.w d0
           0x0052245c      0c400005       cmpi.w 0x5, d0
       < 0x00522460      6200009a       bhi.w 0x5224fc
          0x00522464      d040           add.w d0, d0
          0x00522466      303b0006       move.w 0x52246e(pc, d0.w), d0
          0x0052246a      4efb0002       jmp 0x52246e(pc, d0.w)
           0x0052246e      000c004c       
           0x0052246f      0c004c00       cmpi.b 0x0, d0
           0x00522473      5a00           addq.b 0x5, d0
           0x00522475      7c00           moveq 0x0, d6
           0x00522477      8e00           or.b d0, d7
           0x00522479      8851           or.w (a1), d4
           0x0052247b      4f42274e       
           0x0052247c      4227           clr.b -(a7)
           0x0052247e      4e90           jsr (a0)                    ; fcn.00000009
           0x00522480      544f           addq.w 0x2, a7
           0x00522482      229f           move.l (a7)+, (a1)
           0x00522484      2497           move.l (a7), (a2)
           0x00522486      594f           subq.w 0x4, a7
           0x00522488      1f3c0008       move.b 0x8, -(a7)
           0x0052248c      4e90           jsr (a0)                    ; fcn.00000009
           0x0052248e      544f           addq.w 0x2, a7
           0x00522490      2d5ffff8       move.l (a7)+, -0x8(a6)
           0x00522494      2d5ffffc       move.l (a7)+, -0x4(a6)
           0x00522498      302efff6       move.w -0xa(a6), d0
           0x0052249c      48c0           ext.l d0
           0x0052249e      322efffe       move.w -0x2(a6), d1
           0x005224a2      48c1           ext.l d1
           0x005224a4      d280           add.l d0, d1
           0x005224a6      3d41fff6       move.w d1, -0xa(a6)
           0x005224aa      302efffa       move.w -0x6(a6), d0
           0x005224ae      b06efff2       cmp.w -0xe(a6), d0
       < 0x005224b2      6c04           bge.b 0x5224b8
          0x005224b4      3d40fff2       move.w d0, -0xe(a6)
      > 0x005224b8      6042           bra.b 0x5224fc
          0x005224ba      514f           subq.w 0x8, a7
          0x005224bc      4227           clr.b -(a7)
      > 0x005224be      4e90           jsr (a0)                    ; fcn.00000009
         0x005224c0      544f           addq.w 0x2, a7
         0x005224c2      229f           move.l (a7)+, (a1)
         0x005224c4      249f           move.l (a7)+, (a2)
     < 0x005224c6      6034           bra.b 0x5224fc
        0x005224c8      487ac95c       pea.l 0x51ee26(pc)
        0x005224cc      4878001b       pea.l 0x1b
        0x005224d0      2f17           move.l (a7), -(a7)
        0x005224d2      4eb9004047ea   jsr p_wts_o
        0x005224d8      defc000c       adda.w 0xc, a7
        0x005224dc      4eb900404946   jsr p_wtln_o
        0x005224e2      4eb900401620   jsr p_walkback
    < 0x005224e8      6012           bra.b 0x5224fc
       0x005224ea      4227           clr.b -(a7)
       0x005224ec      4eb90040452a   jsr p_Assert
       0x005224f2      544f           addq.w 0x2, a7
   < 0x005224f4      6006           bra.b 0x5224fc
      0x005224f6      514f           subq.w 0x8, a7
      0x005224f8      1f02           move.b d2, -(a7)
   < 0x005224fa      60c2           bra.b 0x5224be
   > 0x005224fc      1f3c0001       move.b 0x1, -(a7)
            0x00522500      2f12           move.l (a2), -(a7)
            0x00522502      2f11           move.l (a1), -(a7)
            0x00522504      4ebafef6       jsr BRUSHCOM.str_write_area(pc)
            0x00522508      dec2           adda.w d2, a7
            0x0052250a      4cdf0707       movem.l (a7)+, d0-d2/a0-a2
            0x0052250e      4e5e           unlk a6
            0x00522510      4e75           rts
            ; XREFS(26)
 140: BRUSHCOM.br_write_prot ();
           0x00522512      4e560000       link.w a6, 0x0
           0x00522516      48e78000       movem.l d0, -(a7)
           0x0052251a      4ebacd7c       jsr BRUSHCOM.brush_wait(pc)
           0x0052251e      102e000a       move.b 0xa(a6), d0
           0x00522522      0c000002       cmpi.b 0x2, d0
       < 0x00522526      6708           beq.b 0x522530
          0x00522528      0c000003       cmpi.b 0x3, d0
      < 0x0052252c      671c           beq.b 0x52254a
     < 0x0052252e      6034           bra.b 0x522564
     > 0x00522530      4a2e0008       tst.b 0x8(a6)
     < 0x00522534      670a           beq.b 0x522540
        0x00522536      33fc00d0fff8.  move.w 0xd0, 0xfff8405e.l
    < 0x0052253e      6008           bra.b 0x522548
    > 0x00522540      33fc00c0fff8.  move.w 0xc0, 0xfff8405e.l
    < 0x00522548      604c           bra.b 0x522596
     > 0x0052254a      4a2e0008       tst.b 0x8(a6)
     < 0x0052254e      670a           beq.b 0x52255a
        0x00522550      33fc00d0fff8.  move.w 0xd0, 0xfff8409e.l
    < 0x00522558      6008           bra.b 0x522562
    > 0x0052255a      33fc00c0fff8.  move.w 0xc0, 0xfff8409e.l
    < 0x00522562      6032           bra.b 0x522596
     > 0x00522564      487ac8dc       pea.l 0x51ee42(pc)
         0x00522568      48780023       pea.l 0x23
         0x0052256c      2f17           move.l (a7), -(a7)
         0x0052256e      4eb9004047ea   jsr p_wts_o
         0x00522574      defc000c       adda.w 0xc, a7
         0x00522578      4880           ext.w d0
         0x0052257a      48c0           ext.l d0
         0x0052257c      2f00           move.l d0, -(a7)
         0x0052257e      4878000c       pea.l 0xc
         0x00522582      4eb9004070e4   jsr p_wti_o
         0x00522588      504f           addq.w 0x8, a7
         0x0052258a      4eb900404946   jsr p_wtln_o
         0x00522590      4eb900401620   jsr p_walkback
      > 0x00522596      4cdf0001       movem.l (a7)+, d0
           0x0052259a      4e5e           unlk a6
           0x0052259c      4e75           rts
            ; XREFS: CALL 0x0052280e  CALL 0x00522820  CALL 0x005228aa  
            ; XREFS: CALL 0x00522956  CALL 0x00522a26  CALL 0x00522a82  
 196: BRUSHCOM.unimplemented (int32_t arg_8h, int32_t arg_5ah, int32_t arg_ach);
           ; arg int32_t arg_8h @ a7+0x8
           ; arg int32_t arg_5ah @ a7+0x5a
           ; arg int32_t arg_ach @ a7+0xac
           0x0052259e      4e560000       link.w a6, 0x0
           0x005225a2      48e7e080       movem.l d0-d2/a0, -(a7)
           0x005225a6      41f9004047ea   lea.l p_wts_o, a0
           0x005225ac      720c           moveq 0xc, d1
           0x005225ae      7450           moveq 0x50, d2
           0x005225b0      9efc0100       suba.w 0x100, a7
           0x005225b4      1f2c0016       move.b 0x16(a4), -(a7)
           0x005225b8      4eb90044e658   jsr SYSTEM_STRING.plane_str
           0x005225be      9ec2           suba.w d2, a7
           0x005225c0      1f2c001a       move.b 0x1a(a4), -(a7)
           0x005225c4      4eb90044e562   jsr SYSTEM_STRING.store_str
           0x005225ca      9ec2           suba.w d2, a7
           0x005225cc      1f2c0018       move.b 0x18(a4), -(a7)
           0x005225d0      4eb90044e562   jsr SYSTEM_STRING.store_str
           0x005225d6      544f           addq.w 0x2, a7
           0x005225d8      487ac88c       pea.l 0x51ee66(pc)
           0x005225dc      48780017       pea.l 0x17
           0x005225e0      2f17           move.l (a7), -(a7)
           0x005225e2      4e90           jsr (a0)                    ; fcn.00000009
           0x005225e4      dec1           adda.w d1, a7
           0x005225e6      486f00a5       pea.l 0xa5(a7)
           0x005225ea      42a7           clr.l -(a7)
           0x005225ec      1f6f00ac0003   move.b 0xac(a7), 0x3(a7)
           0x005225f2      2f17           move.l (a7), -(a7)
           0x005225f4      4e90           jsr (a0)                    ; fcn.00000009
           0x005225f6      dec1           adda.w d1, a7
           0x005225f8      486f0053       pea.l 0x53(a7)
           0x005225fc      42a7           clr.l -(a7)
           0x005225fe      1f6f005a0003   move.b 0x5a(a7), 0x3(a7)
           0x00522604      2f17           move.l (a7), -(a7)
           0x00522606      4e90           jsr (a0)                    ; fcn.00000009
           0x00522608      dec1           adda.w d1, a7
           0x0052260a      302c0012       move.w 0x12(a4), d0
           0x0052260e      48c0           ext.l d0
           0x00522610      2f00           move.l d0, -(a7)
           0x00522612      48780005       pea.l 0x5
           0x00522616      4eb9004070e4   jsr p_wti_o
           0x0052261c      504f           addq.w 0x8, a7
           0x0052261e      487ac85e       pea.l 0x51ee7e(pc)
           0x00522622      48780004       pea.l 0x4
           0x00522626      2f17           move.l (a7), -(a7)
           0x00522628      4e90           jsr (a0)                    ; fcn.00000009
           0x0052262a      dec1           adda.w d1, a7
           0x0052262c      486f0001       pea.l 0x1(a7)
           0x00522630      42a7           clr.l -(a7)
           0x00522632      1f6f00080003   move.b 0x8(a7), 0x3(a7)
           0x00522638      2f17           move.l (a7), -(a7)
           0x0052263a      4e90           jsr (a0)                    ; fcn.00000009
           0x0052263c      defc01b0       adda.w 0x1b0, a7
           0x00522640      302c000a       move.w 0xa(a4), d0
           0x00522644      48c0           ext.l d0
           0x00522646      2f00           move.l d0, -(a7)
           0x00522648      48780005       pea.l 0x5
           0x0052264c      4eb9004070e4   jsr p_wti_o
           0x00522652      504f           addq.w 0x8, a7
           0x00522654      4eb900404946   jsr p_wtln_o
           0x0052265a      4cdf0107       movem.l (a7)+, d0-d2/a0
           0x0052265e      4e5e           unlk a6
           0x00522660      4e75           rts
            ; CALL XREF from BRUSHCOM.str_any_str_cop @ 0x52282e
 192: BRUSHCOM.b_same_from_poi ();
           0x00522662      4e56fffe       link.w a6, 0xfffe
           0x00522666      48e7c1f8       movem.l d0-d1/d7/a0-a4, -(a7)
           0x0052266a      43ee0008       lea.l 0x8(a6), a1
           0x0052266e      45ee0010       lea.l 0x10(a6), a2
           0x00522672      47ee0012       lea.l 0x12(a6), a3
           0x00522676      49ee000a       lea.l 0xa(a6), a4
           0x0052267a      102e0014       move.b 0x14(a6), d0
           0x0052267e      4880           ext.w d0
           0x00522680      41fac800       lea.l 0x51ee82(pc), a0
           0x00522684      3200           move.w d0, d1
           0x00522686      e649           lsr.w 0x3, d1
           0x00522688      01301000       btst.l d0, (a0, d1.w)
       < 0x0052268c      671c           beq.b 0x5226aa
          0x0052268e      4227           clr.b -(a7)
          0x00522690      4852           pea.l (a2)
          0x00522692      4853           pea.l (a3)
          0x00522694      4ebacd86       jsr BRUSHCOM.b_ms_ram_bank_s(pc)
          0x00522698      504f           addq.w 0x8, a7
          0x0052269a      1ebc0001       move.b 0x1, (a7)
          0x0052269e      4851           pea.l (a1)
          0x005226a0      4854           pea.l (a4)
          0x005226a2      4ebacd78       jsr BRUSHCOM.b_ms_ram_bank_s(pc)
          0x005226a6      defc000a       adda.w 0xa, a7
       > 0x005226aa      3e11           move.w (a1), d7
           0x005226ac      02470007       andi.w 0x7, d7
           0x005226b0      33c7fff80040   move.w d7, 0xfff80040
           0x005226b6      322e000c       move.w 0xc(a6), d1
           0x005226ba      48c1           ext.l d1
           0x005226bc      02870000ffff   andi.l 0xffff, d7
           0x005226c2      d287           add.l d7, d1
           0x005226c4      5381           subq.l 0x1, d1
           0x005226c6      33c1fff80044   move.w d1, 0xfff80044
           0x005226cc      322e000e       move.w 0xe(a6), d1
           0x005226d0      48c1           ext.l d1
           0x005226d2      5381           subq.l 0x1, d1
           0x005226d4      33c1fff80046   move.w d1, 0xfff80046
           0x005226da      0c400002       cmpi.w 0x2, d0
       < 0x005226de      6708           beq.b 0x5226e8
          0x005226e0      0c400003       cmpi.w 0x3, d0
      < 0x005226e4      671c           beq.b 0x522702
     < 0x005226e6      6032           bra.b 0x52271a
     > 0x005226e8      33d2fff84050   move.w (a2), 0xfff84050
         0x005226ee      33d3fff84052   move.w (a3), 0xfff84052
         0x005226f4      33d1fff84060   move.w (a1), 0xfff84060
         0x005226fa      33d4fff84062   move.w (a4), 0xfff84062
     < 0x00522700      6018           bra.b 0x52271a
     > 0x00522702      33d2fff84090   move.w (a2), 0xfff84090
         0x00522708      33d3fff84092   move.w (a3), 0xfff84092
         0x0052270e      33d1fff840a0   move.w (a1), 0xfff840a0
         0x00522714      33d4fff840a2   move.w (a4), 0xfff840a2
         ; CODE XREFS from BRUSHCOM.b_same_from_poi @ 0x5226e6, 0x522700
     > 0x0052271a      4cdf1f83       movem.l (a7)+, d0-d1/d7/a0-a4
           0x0052271e      4e5e           unlk a6
           0x00522720      4e75           rts
            ; XREFS(86)
 596: BRUSHCOM.str_any_str_cop ();
           0x00522722      4e56fffe       link.w a6, 0xfffe
           0x00522726      48e7fcf8       movem.l d0-d5/a0-a4, -(a7)
           0x0052272a      41ee0016       lea.l 0x16(a6), a0
           0x0052272e      43eefffe       lea.l -0x2(a6), a1
           0x00522732      45ee0010       lea.l 0x10(a6), a2
           0x00522736      47ee0008       lea.l 0x8(a6), a3
           0x0052273a      7607           moveq 0x7, d3
           0x0052273c      7809           moveq 0x9, d4
           0x0052273e      3a3c4000       move.w 0x4000, d5
           0x00522742      4a6e000c       tst.w 0xc(a6)
       < 0x00522746      6f06           ble.b 0x52274e
          0x00522748      4a6e000e       tst.w 0xe(a6)
      < 0x0052274c      6e4c           bgt.b 0x52279a
      > 0x0052274e      487ac735       pea.l 0x51ee85(pc)
          0x00522752      48780019       pea.l 0x19
          0x00522756      2f17           move.l (a7), -(a7)
          0x00522758      4eb9004047ea   jsr p_wts_o
          0x0052275e      defc000c       adda.w 0xc, a7
          0x00522762      302e000c       move.w 0xc(a6), d0
          0x00522766      48c0           ext.l d0
          0x00522768      2f00           move.l d0, -(a7)
          0x0052276a      48780004       pea.l 0x4
          0x0052276e      4eb9004070e4   jsr p_wti_o
          0x00522774      504f           addq.w 0x8, a7
          0x00522776      302e000e       move.w 0xe(a6), d0
          0x0052277a      48c0           ext.l d0
          0x0052277c      2f00           move.l d0, -(a7)
          0x0052277e      48780004       pea.l 0x4
          0x00522782      4eb9004070e4   jsr p_wti_o
          0x00522788      504f           addq.w 0x8, a7
          0x0052278a      4eb900404946   jsr p_wtln_o
          0x00522790      4eb900401620   jsr p_walkback
      < 0x00522796      6000030a       bra.w 0x522aa2
      > 0x0052279a      102e0018       move.b 0x18(a6), d0
          0x0052279e      b010           cmp.b (a0), d0
      < 0x005227a0      66000098       bne.w 0x52283a
         0x005227a4      4ebacaf2       jsr BRUSHCOM.brush_wait(pc)
         0x005227a8      33c5fff8000c   move.w d5, 0xfff8000c
         0x005227ae      554f           subq.w 0x2, a7
         0x005227b0      1f10           move.b (a0), -(a7)
         0x005227b2      1f2e0014       move.b 0x14(a6), -(a7)
         0x005227b6      4ebad9cc       jsr BRUSHCOM.store_and_plane(pc)
         0x005227ba      584f           addq.w 0x4, a7
         0x005227bc      121f           move.b (a7)+, d1
         0x005227be      4881           ext.w d1
         0x005227c0      b244           cmp.w d4, d1
     < 0x005227c2      6248           bhi.b 0x52280c
        0x005227c4      d241           add.w d1, d1
        0x005227c6      323b1006       move.w 0x5227ce(pc, d1.w), d1
        0x005227ca      4efb1002       jmp 0x5227ce(pc, d1.w)
         0x005227ce      00140026       ori.b 0x26, (a4)
         0x005227d2      003e003e       
         0x005227d3      3e00           move.w d0, d7
         0x005227d5      3e00           move.w d0, d7
         0x005227d7      3200           move.w d0, d1
         0x005227d9      2000           move.l d0, d0
         0x005227db      2c00           move.l d0, d6
         0x005227dd      3e00           move.w d0, d7
         0x005227df      3e00           move.w d0, d7
         0x005227e1      383f3c00       
         0x005227e2      3f3c007e       move.w 0x7e, -(a7)
  > 0x005227e6      4ebacb7a       jsr BRUSHCOM.b_setup_control(pc)
     0x005227ea      544f           addq.w 0x2, a7
  < 0x005227ec      6024           bra.b 0x522812              ; BRUSHCOM.str_any_str_cop+0xf0
     0x005227ee      3f3c007f       move.w 0x7f, -(a7)
  < 0x005227f2      60f2           bra.b 0x5227e6
     0x005227f4      3f3c0080       move.w 0x80, -(a7)
  < 0x005227f8      60ec           bra.b 0x5227e6
      0x005227fa      3f3c0081       move.w 0x81, -(a7)
   < 0x005227fe      60e6           bra.b 0x5227e6
       0x00522800      3f3c0082       move.w 0x82, -(a7)
    < 0x00522804      60e0           bra.b 0x5227e6
        0x00522806      3f3c0083       move.w 0x83, -(a7)
     < 0x0052280a      60da           bra.b 0x5227e6
     > 0x0052280c      2849           movea.l a1, a4
         0x0052280e      4ebafd8e       jsr BRUSHCOM.unimplemented(pc)
 > 0x00522812      3212           move.w (a2), d1
         0x00522814      c243           and.w d3, d1
         0x00522816      3413           move.w (a3), d2
         0x00522818      c443           and.w d3, d2
         0x0052281a      b242           cmp.w d2, d1
     < 0x0052281c      6706           beq.b 0x522824
        0x0052281e      2849           movea.l a1, a4
        0x00522820      4ebafd7c       jsr BRUSHCOM.unimplemented(pc)
     > 0x00522824      1f10           move.b (a0), -(a7)
         0x00522826      2f12           move.l (a2), -(a7)
         0x00522828      2f2e000c       move.l 0xc(a6), -(a7)
         0x0052282c      2f13           move.l (a3), -(a7)
         0x0052282e      4ebafe32       jsr BRUSHCOM.b_same_from_poi(pc)
         0x00522832      defc000e       adda.w 0xe, a7
     < 0x00522836      6000026a       bra.w 0x522aa2
     > 0x0052283a      4a10           tst.b (a0)
     < 0x0052283c      66000082       bne.w 0x5228c0
        0x00522840      4ebaca56       jsr BRUSHCOM.brush_wait(pc)
        0x00522844      33c5fff8000c   move.w d5, 0xfff8000c
        0x0052284a      554f           subq.w 0x2, a7
        0x0052284c      1f00           move.b d0, -(a7)
        0x0052284e      1f2e0014       move.b 0x14(a6), -(a7)
        0x00522852      4ebad930       jsr BRUSHCOM.store_and_plane(pc)
        0x00522856      584f           addq.w 0x4, a7
        0x00522858      121f           move.b (a7)+, d1
        0x0052285a      4881           ext.w d1
        0x0052285c      b244           cmp.w d4, d1
    < 0x0052285e      6248           bhi.b 0x5228a8
       0x00522860      d241           add.w d1, d1
       0x00522862      323b1006       move.w 0x52286a(pc, d1.w), d1
       0x00522866      4efb1002       jmp 0x52286a(pc, d1.w)
        0x0052286a      00140020       ori.b 0x20, (a4)
        0x0052286e      003e003e       
        0x0052286f      3e00           move.w d0, d7
        0x00522871      3e00           move.w d0, d7
        0x00522873      2600           move.l d0, d3
        0x00522875      2c00           move.l d0, d6
        0x00522877      3200           move.w d0, d1
        0x00522879      3e00           move.w d0, d7
        0x0052287b      3e00           move.w d0, d7
        0x0052287d      383f3c00       
        0x0052287e      3f3c0061       move.w 0x61, -(a7)
  > 0x00522882      4ebacade       jsr BRUSHCOM.b_setup_control(pc)
     0x00522886      544f           addq.w 0x2, a7
  < 0x00522888      6024           bra.b 0x5228ae              ; BRUSHCOM.str_any_str_cop+0x18c
     0x0052288a      3f3c0067       move.w 0x67, -(a7)
  < 0x0052288e      60f2           bra.b 0x522882
     0x00522890      3f3c006d       move.w 0x6d, -(a7)
  < 0x00522894      60ec           bra.b 0x522882
     0x00522896      3f3c0063       move.w 0x63, -(a7)
  < 0x0052289a      60e6           bra.b 0x522882
      0x0052289c      3f3c0069       move.w 0x69, -(a7)
   < 0x005228a0      60e0           bra.b 0x522882
       0x005228a2      3f3c006f       move.w 0x6f, -(a7)
    < 0x005228a6      60da           bra.b 0x522882
    > 0x005228a8      2849           movea.l a1, a4
        0x005228aa      4ebafcf2       jsr BRUSHCOM.unimplemented(pc)
 > 0x005228ae      3212           move.w (a2), d1
        0x005228b0      c243           and.w d3, d1
    < 0x005228b2      6608           bne.b 0x5228bc
       0x005228b4      3213           move.w (a3), d1
       0x005228b6      c243           and.w d3, d1
   < 0x005228b8      670001cc       beq.w 0x522a86
  > 0x005228bc      600001c2       bra.w 0x522a80
   > 0x005228c0      4a00           tst.b d0
   < 0x005228c2      6600010a       bne.w 0x5229ce
      0x005228c6      4211           clr.b (a1)
      0x005228c8      4a390083e726   tst.b 0x83e726
  < 0x005228ce      6716           beq.b 0x5228e6
     0x005228d0      3212           move.w (a2), d1
     0x005228d2      c243           and.w d3, d1
 < 0x005228d4      6610           bne.b 0x5228e6
    0x005228d6      3213           move.w (a3), d1
    0x005228d8      c243           and.w d3, d1
 < 0x005228da      660a           bne.b 0x5228e6
    0x005228dc      322e000c       move.w 0xc(a6), d1
    0x005228e0      c243           and.w d3, d1
 < 0x005228e2      6602           bne.b 0x5228e6
    0x005228e4      5211           addq.b 0x1, (a1)
 > 0x005228e6      4ebac9b0       jsr BRUSHCOM.brush_wait(pc)
      0x005228ea      33c5fff8000c   move.w d5, 0xfff8000c
      0x005228f0      4a11           tst.b (a1)
  < 0x005228f2      676a           beq.b 0x52295e
     0x005228f4      554f           subq.w 0x2, a7
     0x005228f6      1f10           move.b (a0), -(a7)
     0x005228f8      1f2e0014       move.b 0x14(a6), -(a7)
     0x005228fc      4ebad886       jsr BRUSHCOM.store_and_plane(pc)
     0x00522900      584f           addq.w 0x4, a7
     0x00522902      121f           move.b (a7)+, d1
     0x00522904      4881           ext.w d1
     0x00522906      b244           cmp.w d4, d1
 < 0x00522908      624a           bhi.b 0x522954
    0x0052290a      d241           add.w d1, d1
    0x0052290c      323b1006       move.w 0x522914(pc, d1.w), d1
    0x00522910      4efb1002       jmp 0x522914(pc, d1.w)
     0x00522914      00140028       ori.b 0x28, (a4)
     0x00522918      00400040       ori.w 0x40, d0
     0x0052291c      00340022002e   ori.b 0x22, 0x2e(a4, d0.w)
     0x00522922      00400040       ori.w 0x40, d0
     0x00522926      003a3f3c       
     0x00522927      3a3f3c00       
     0x00522928      3f3c0084       move.w 0x84, -(a7)
  > 0x0052292c      4ebaca34       jsr BRUSHCOM.b_setup_control(pc)
     0x00522930      544f           addq.w 0x2, a7
  < 0x00522932      60000088       bra.w 0x5229bc              ; BRUSHCOM.str_any_str_cop+0x29a
     0x00522936      3f3c0085       move.w 0x85, -(a7)
  < 0x0052293a      60f0           bra.b 0x52292c
     0x0052293c      3f3c0086       move.w 0x86, -(a7)
  < 0x00522940      60ea           bra.b 0x52292c
     0x00522942      3f3c0087       move.w 0x87, -(a7)
  < 0x00522946      60e4           bra.b 0x52292c
     0x00522948      3f3c0088       move.w 0x88, -(a7)
  < 0x0052294c      60de           bra.b 0x52292c
     0x0052294e      3f3c0089       move.w 0x89, -(a7)
  < 0x00522952      60d8           bra.b 0x52292c
    ; CODE XREF from BRUSHCOM.str_any_str_cop @ 0x5229ba
 > 0x00522954      2849           movea.l a1, a4
     0x00522956      4ebafc46       jsr BRUSHCOM.unimplemented(pc)
 < 0x0052295a      6060           bra.b 0x5229bc
  < 0x0052295c      605e           bra.b 0x5229bc              ; BRUSHCOM.str_any_str_cop+0x29a
 > 0x0052295e      554f           subq.w 0x2, a7
     0x00522960      1f10           move.b (a0), -(a7)
     0x00522962      1f2e0014       move.b 0x14(a6), -(a7)
     0x00522966      4ebad81c       jsr BRUSHCOM.store_and_plane(pc)
     0x0052296a      584f           addq.w 0x4, a7
     0x0052296c      121f           move.b (a7)+, d1
     0x0052296e      4881           ext.w d1
     0x00522970      b244           cmp.w d4, d1
 < 0x00522972      6246           bhi.b 0x5229ba
    0x00522974      d241           add.w d1, d1
    0x00522976      323b1006       move.w 0x52297e(pc, d1.w), d1
    0x0052297a      4efb1002       jmp 0x52297e(pc, d1.w)
     0x0052297e      00140020       ori.b 0x20, (a4)
     0x00522982      003c003c       ori.b 0x3c, ccr
     0x00522986      002c001a0026   ori.b 0x1a, 0x26(a4)
     0x0052298c      003c003c       ori.b 0x3c, ccr
     0x00522990      00343f3c0064   ori.b 0x3c, 0x64(a4, d0.w)
  < 0x00522996      6094           bra.b 0x52292c
     0x00522998      3f3c0065       move.w 0x65, -(a7)
  < 0x0052299c      608e           bra.b 0x52292c
     0x0052299e      3f3c006a       move.w 0x6a, -(a7)
  < 0x005229a2      6088           bra.b 0x52292c
     0x005229a4      3f3c006b       move.w 0x6b, -(a7)
  < 0x005229a8      6082           bra.b 0x52292c
     0x005229aa      3f3c0070       move.w 0x70, -(a7)
  < 0x005229ae      6000ff7c       bra.w 0x52292c
     0x005229b2      3f3c0071       move.w 0x71, -(a7)
  < 0x005229b6      6000ff74       bra.w 0x52292c
 > 0x005229ba      6098           bra.b 0x522954
     ; CODE XREF from BRUSHCOM.str_any_str_cop @ 0x52295a
 > 0x005229bc      3212           move.w (a2), d1
      0x005229be      c243           and.w d3, d1
      0x005229c0      3413           move.w (a3), d2
      0x005229c2      c443           and.w d3, d2
      0x005229c4      b242           cmp.w d2, d1
  < 0x005229c6      6f0000be       ble.w 0x522a86
 < 0x005229ca      600000b4       bra.w 0x522a80
 > 0x005229ce      4ebac8c8       jsr BRUSHCOM.brush_wait(pc)
     0x005229d2      33c5fff8000c   move.w d5, 0xfff8000c
     0x005229d8      0c000002       cmpi.b 0x2, d0
 < 0x005229dc      6650           bne.b 0x522a2e
    0x005229de      554f           subq.w 0x2, a7
    0x005229e0      1f10           move.b (a0), -(a7)
    0x005229e2      1f2e0014       move.b 0x14(a6), -(a7)
    0x005229e6      4ebad79c       jsr BRUSHCOM.store_and_plane(pc)
    0x005229ea      584f           addq.w 0x4, a7
    0x005229ec      121f           move.b (a7)+, d1
    0x005229ee      4881           ext.w d1
    0x005229f0      5b41           subq.w 0x5, d1
    0x005229f2      0c410004       cmpi.w 0x4, d1
 < 0x005229f6      622c           bhi.b 0x522a24
    0x005229f8      d241           add.w d1, d1
    0x005229fa      323b1006       move.w 0x522a02(pc, d1.w), d1
    0x005229fe      4efb1002       jmp 0x522a02(pc, d1.w)
     0x00522a02      000a0016       
     0x00522a03      0a001600       eori.b 0x0, d0
     0x00522a07      2200           move.l d0, d1
     0x00522a09      2200           move.l d0, d1
     0x00522a0b      1c3f3c00       
     0x00522a0c      3f3c0060       move.w 0x60, -(a7)
  > 0x00522a10      4ebac950       jsr BRUSHCOM.b_setup_control(pc)
     0x00522a14      544f           addq.w 0x2, a7
  < 0x00522a16      605c           bra.b 0x522a74              ; BRUSHCOM.str_any_str_cop+0x352
     0x00522a18      3f3c0066       move.w 0x66, -(a7)
  < 0x00522a1c      60f2           bra.b 0x522a10
     0x00522a1e      3f3c006c       move.w 0x6c, -(a7)
  < 0x00522a22      60ec           bra.b 0x522a10
    ; CODE XREF from BRUSHCOM.str_any_str_cop @ 0x522a72
 > 0x00522a24      2849           movea.l a1, a4
    0x00522a26      4ebafb76       jsr BRUSHCOM.unimplemented(pc)
 < 0x00522a2a      6048           bra.b 0x522a74
  < 0x00522a2c      6046           bra.b 0x522a74              ; BRUSHCOM.str_any_str_cop+0x352
 > 0x00522a2e      0c000003       cmpi.b 0x3, d0
 < 0x00522a32      6640           bne.b 0x522a74
    0x00522a34      554f           subq.w 0x2, a7
    0x00522a36      1f10           move.b (a0), -(a7)
    0x00522a38      1f2e0014       move.b 0x14(a6), -(a7)
    0x00522a3c      4ebad746       jsr BRUSHCOM.store_and_plane(pc)
    0x00522a40      584f           addq.w 0x4, a7
    0x00522a42      121f           move.b (a7)+, d1
    0x00522a44      4881           ext.w d1
    0x00522a46      0c410004       cmpi.w 0x4, d1
 < 0x00522a4a      6226           bhi.b 0x522a72
    0x00522a4c      d241           add.w d1, d1
    0x00522a4e      323b1006       move.w 0x522a56(pc, d1.w), d1
    0x00522a52      4efb1002       jmp 0x522a56(pc, d1.w)
     0x00522a56      000a0010       
     0x00522a57      0a001000       eori.b 0x0, d0
     0x00522a5b      1c00           move.b d0, d6
     0x00522a5d      1c00           move.b d0, d6
     0x00522a5f      163f3c00       
     0x00522a60      3f3c0062       move.w 0x62, -(a7)
  < 0x00522a64      60aa           bra.b 0x522a10
     0x00522a66      3f3c0068       move.w 0x68, -(a7)
  < 0x00522a6a      60a4           bra.b 0x522a10
     0x00522a6c      3f3c006e       move.w 0x6e, -(a7)
  < 0x00522a70      609e           bra.b 0x522a10
 < 0x00522a72      60b0           bra.b 0x522a24
    ; CODE XREF from BRUSHCOM.str_any_str_cop @ 0x522a2a
 > 0x00522a74      3212           move.w (a2), d1
     0x00522a76      c243           and.w d3, d1
     0x00522a78      3413           move.w (a3), d2
     0x00522a7a      c443           and.w d3, d2
     0x00522a7c      b242           cmp.w d2, d1
 < 0x00522a7e      6706           beq.b 0x522a86
    ; CODE XREFS from BRUSHCOM.str_any_str_cop @ 0x5228bc, 0x5229ca
 > 0x00522a80      2849           movea.l a1, a4
      0x00522a82      4ebafb1a       jsr BRUSHCOM.unimplemented(pc)
   > 0x00522a86      1f2e0018       move.b 0x18(a6), -(a7)
         0x00522a8a      2f12           move.l (a2), -(a7)
         0x00522a8c      4ebacbee       jsr BRUSHCOM.b_source_pos(pc)
         0x00522a90      584f           addq.w 0x4, a7
         0x00522a92      1e90           move.b (a0), (a7)
         0x00522a94      2f2e000c       move.l 0xc(a6), -(a7)
         0x00522a98      2f13           move.l (a3), -(a7)
         0x00522a9a      4ebacd8a       jsr BRUSHCOM.b_dest_area(pc)
         0x00522a9e      defc000a       adda.w 0xa, a7
         ; CODE XREFS from BRUSHCOM.str_any_str_cop @ 0x522796, 0x522836
     > 0x00522aa2      4279fff80000   clr.w 0xfff80000
           0x00522aa8      4cdf1f3f       movem.l (a7)+, d0-d5/a0-a4
           0x00522aac      4e5e           unlk a6
           0x00522aae      4e75           rts
            ; CALL XREF from BRUSHCOM.br_plane_copy @ 0x522c04
            0x00522ab0      4e560000       link.w a6, 0x0
            0x00522ab4      48e7c080       movem.l d0-d1/a0, -(a7)
            0x00522ab8      41f9004047ea   lea.l p_wts_o, a0
            0x00522abe      720c           moveq 0xc, d1
            0x00522ac0      9efc0100       suba.w 0x100, a7
            0x00522ac4      1f2c0018       move.b 0x18(a4), -(a7)
            0x00522ac8      4eb90044e658   jsr SYSTEM_STRING.plane_str
            0x00522ace      9efc0050       suba.w 0x50, a7
            0x00522ad2      1f2c0016       move.b 0x16(a4), -(a7)
            0x00522ad6      4eb90044e562   jsr SYSTEM_STRING.store_str
            0x00522adc      9efc00fe       suba.w 0xfe, a7
            0x00522ae0      1f2c0014       move.b 0x14(a4), -(a7)
            0x00522ae4      4eb90044e658   jsr SYSTEM_STRING.plane_str
            0x00522aea      544f           addq.w 0x2, a7
            0x00522aec      487ac3b1       pea.l 0x51ee9f(pc)
            0x00522af0      48780014       pea.l 0x14
            0x00522af4      2f17           move.l (a7), -(a7)
            0x00522af6      4e90           jsr (a0)                    ; fcn.00000009
            0x00522af8      dec1           adda.w d1, a7
            0x00522afa      486f0153       pea.l 0x153(a7)
            0x00522afe      42a7           clr.l -(a7)
            0x00522b00      1f6f015a0003   move.b 0x15a(a7), 0x3(a7)
            0x00522b06      2f17           move.l (a7), -(a7)
            0x00522b08      4e90           jsr (a0)                    ; fcn.00000009
            0x00522b0a      dec1           adda.w d1, a7
            0x00522b0c      487ac3a6       pea.l 0x51eeb4(pc)
            0x00522b10      48780004       pea.l 0x4
            0x00522b14      2f17           move.l (a7), -(a7)
            0x00522b16      4e90           jsr (a0)                    ; fcn.00000009
            0x00522b18      dec1           adda.w d1, a7
            0x00522b1a      486f0101       pea.l 0x101(a7)
            0x00522b1e      42a7           clr.l -(a7)
            0x00522b20      1f6f01080003   move.b 0x108(a7), 0x3(a7)
            0x00522b26      2f17           move.l (a7), -(a7)
            0x00522b28      4e90           jsr (a0)                    ; fcn.00000009
            0x00522b2a      dec1           adda.w d1, a7
            0x00522b2c      486f0001       pea.l 0x1(a7)
            0x00522b30      42a7           clr.l -(a7)
            0x00522b32      1f6f00080003   move.b 0x8(a7), 0x3(a7)
            0x00522b38      2f17           move.l (a7), -(a7)
            0x00522b3a      4e90           jsr (a0)                    ; fcn.00000009
            0x00522b3c      defc025e       adda.w 0x25e, a7
            0x00522b40      302c0010       move.w 0x10(a4), d0
            0x00522b44      48c0           ext.l d0
            0x00522b46      2f00           move.l d0, -(a7)
            0x00522b48      48780005       pea.l 0x5
            0x00522b4c      4eb9004070e4   jsr p_wti_o
            0x00522b52      504f           addq.w 0x8, a7
            0x00522b54      302c0008       move.w 0x8(a4), d0
            0x00522b58      48c0           ext.l d0
            0x00522b5a      2f00           move.l d0, -(a7)
            0x00522b5c      48780005       pea.l 0x5
            0x00522b60      4eb9004070e4   jsr p_wti_o
            0x00522b66      504f           addq.w 0x8, a7
            0x00522b68      4eb900404946   jsr p_wtln_o
            0x00522b6e      4cdf0103       movem.l (a7)+, d0-d1/a0
            0x00522b72      4e5e           unlk a6
            0x00522b74      4e75           rts
            ; CALL XREF from MENUEFFECTCOM.do_blur @ 0x74230c
 154: BRUSHCOM.br_plane_copy ();
           0x00522b76      4e560000       link.w a6, 0x0
           0x00522b7a      48e7f888       movem.l d0-d4/a0/a4, -(a7)
           0x00522b7e      41ee0016       lea.l 0x16(a6), a0
           0x00522b82      7407           moveq 0x7, d2
           0x00522b84      7603           moveq 0x3, d3
           0x00522b86      7801           moveq 0x1, d4
           0x00522b88      302e0010       move.w 0x10(a6), d0
           0x00522b8c      c042           and.w d2, d0
           0x00522b8e      322e0008       move.w 0x8(a6), d1
           0x00522b92      c242           and.w d2, d1
           0x00522b94      b041           cmp.w d1, d0
       < 0x00522b96      6702           beq.b 0x522b9a
      < 0x00522b98      6068           bra.b 0x522c02
      > 0x00522b9a      4ebac6fc       jsr BRUSHCOM.brush_wait(pc)
          0x00522b9e      33fc4000fff8.  move.w 0x4000, 0xfff8000c.l
          0x00522ba6      4a2e0018       tst.b 0x18(a6)
      < 0x00522baa      663c           bne.b 0x522be8
         0x00522bac      1010           move.b (a0), d0
         0x00522bae      b003           cmp.b d3, d0
     < 0x00522bb0      6636           bne.b 0x522be8
        0x00522bb2      102e0014       move.b 0x14(a6), d0
        0x00522bb6      b004           cmp.b d4, d0
    < 0x00522bb8      662e           bne.b 0x522be8
       0x00522bba      3f3c00e3       move.w 0xe3, -(a7)
       ; CODE XREF from BRUSHCOM.br_plane_copy @ 0x522c00
   > 0x00522bbe      4ebac7a2       jsr BRUSHCOM.b_setup_control(pc)
      0x00522bc2      4217           clr.b (a7)
      0x00522bc4      2f2e0010       move.l 0x10(a6), -(a7)
      0x00522bc8      4ebacab2       jsr BRUSHCOM.b_source_pos(pc)
      0x00522bcc      584f           addq.w 0x4, a7
      0x00522bce      1e90           move.b (a0), (a7)
      0x00522bd0      2f2e000c       move.l 0xc(a6), -(a7)
      0x00522bd4      2f2e0008       move.l 0x8(a6), -(a7)
      0x00522bd8      4ebacc4c       jsr BRUSHCOM.b_dest_area(pc)
      0x00522bdc      defc000a       adda.w 0xa, a7
      0x00522be0      4279fff80000   clr.w 0xfff80000
  < 0x00522be6      6020           bra.b 0x522c08
  > 0x00522be8      102e0018       move.b 0x18(a6), d0
        0x00522bec      b004           cmp.b d4, d0
    < 0x00522bee      6612           bne.b 0x522c02
       0x00522bf0      1010           move.b (a0), d0
       0x00522bf2      b003           cmp.b d3, d0
   < 0x00522bf4      660c           bne.b 0x522c02
      0x00522bf6      4a2e0014       tst.b 0x14(a6)
  < 0x00522bfa      6606           bne.b 0x522c02
     0x00522bfc      3f3c00e4       move.w 0xe4, -(a7)
  < 0x00522c00      60bc           bra.b 0x522bbe
      ; CODE XREF from BRUSHCOM.br_plane_copy @ 0x522b98
   > 0x00522c02      284e           movea.l a6, a4
          0x00522c04      4ebafeaa       jsr 0x522ab0(pc)
          ; CODE XREF from BRUSHCOM.br_plane_copy @ 0x522be6
  > 0x00522c08      4cdf111f       movem.l (a7)+, d0-d4/a0/a4
           0x00522c0c      4e5e           unlk a6
           0x00522c0e      4e75           rts
            ; CALL XREF from MENURIGHTCOM.do_reverse_sten @ 0x49015e
            ; CALL XREF from LISTCOM.display_line @ 0x4edd1a
            ; CALL XREF from MENUMAILCOM.display_entry @ 0x4f3052
            ; CALL XREF from K92_DISPLAY.k92_draw_select @ 0x65a12a
 228: BRUSHCOM.str_invert (int32_t arg_8h, int32_t arg_108h);
           ; arg int32_t arg_8h @ a7+0x8
           ; arg int32_t arg_108h @ a7+0x108
           0x00522c10      4e56fffc       link.w a6, 0xfffc
           0x00522c14      48e7e0c0       movem.l d0-d2/a0-a1, -(a7)
           0x00522c18      41ee0012       lea.l 0x12(a6), a0
           0x00522c1c      43f9004047ea   lea.l p_wts_o, a1
           0x00522c22      7206           moveq 0x6, d1
           0x00522c24      740c           moveq 0xc, d2
           0x00522c26      4ebac670       jsr BRUSHCOM.brush_wait(pc)
           0x00522c2a      554f           subq.w 0x2, a7
           0x00522c2c      1f10           move.b (a0), -(a7)
           0x00522c2e      1f2e0010       move.b 0x10(a6), -(a7)
           0x00522c32      4ebad550       jsr BRUSHCOM.store_and_plane(pc)
           0x00522c36      584f           addq.w 0x4, a7
           0x00522c38      1017           move.b (a7), d0
           0x00522c3a      b001           cmp.b d1, d0
       < 0x00522c3c      6d0c           blt.b 0x522c4a
          0x00522c3e      b001           cmp.b d1, d0
      < 0x00522c40      6722           beq.b 0x522c64
         0x00522c42      0c000007       cmpi.b 0x7, d0
     < 0x00522c46      6728           beq.b 0x522c70
    < 0x00522c48      602c           bra.b 0x522c76
    > 0x00522c4a      0c000001       cmpi.b 0x1, d0
    < 0x00522c4e      6708           beq.b 0x522c58
       0x00522c50      0c000005       cmpi.b 0x5, d0
   < 0x00522c54      6714           beq.b 0x522c6a
  < 0x00522c56      601e           bra.b 0x522c76
  > 0x00522c58      3f3c008b       move.w 0x8b, -(a7)
      ; CODE XREFS from BRUSHCOM.str_invert @ 0x522c68, 0x522c6e, 0x522c74
 > 0x00522c5c      4ebac704       jsr BRUSHCOM.b_setup_control(pc)
    0x00522c60      544f           addq.w 0x2, a7
 < 0x00522c62      6068           bra.b 0x522ccc
 > 0x00522c64      3f3c008c       move.w 0x8c, -(a7)
 < 0x00522c68      60f2           bra.b 0x522c5c
 > 0x00522c6a      3f3c008a       move.w 0x8a, -(a7)
 < 0x00522c6e      60ec           bra.b 0x522c5c
   > 0x00522c70      3f3c0112       move.w 0x112, -(a7)
     < 0x00522c74      60e6           bra.b 0x522c5c
         ; CODE XREFS from BRUSHCOM.str_invert @ 0x522c48, 0x522c56
  > 0x00522c76      9efc0052       suba.w 0x52, a7
           0x00522c7a      1f10           move.b (a0), -(a7)
           0x00522c7c      4eb90044e562   jsr SYSTEM_STRING.store_str
           0x00522c82      9efc00fe       suba.w 0xfe, a7
           0x00522c86      1f2e0010       move.b 0x10(a6), -(a7)
           0x00522c8a      4eb90044e658   jsr SYSTEM_STRING.plane_str
           0x00522c90      544f           addq.w 0x2, a7
           0x00522c92      487ac225       pea.l 0x51eeb9(pc)
           0x00522c96      4878001d       pea.l 0x1d
           0x00522c9a      2f17           move.l (a7), -(a7)
           0x00522c9c      4e91           jsr (a1)                    ; fcn.0000000a
           0x00522c9e      dec2           adda.w d2, a7
           0x00522ca0      486f0101       pea.l 0x101(a7)
           0x00522ca4      42a7           clr.l -(a7)
           0x00522ca6      1f6f01080003   move.b 0x108(a7), 0x3(a7)
           0x00522cac      2f17           move.l (a7), -(a7)
           0x00522cae      4e91           jsr (a1)                    ; fcn.0000000a
           0x00522cb0      dec2           adda.w d2, a7
           0x00522cb2      486f0001       pea.l 0x1(a7)
           0x00522cb6      42a7           clr.l -(a7)
           0x00522cb8      1f6f00080003   move.b 0x8(a7), 0x3(a7)
           0x00522cbe      2f17           move.l (a7), -(a7)
           0x00522cc0      4e91           jsr (a1)                    ; fcn.0000000a
           0x00522cc2      defc015e       adda.w 0x15e, a7
           0x00522cc6      4eb900404946   jsr p_wtln_o
           ; CODE XREF from BRUSHCOM.str_invert @ 0x522c62
 > 0x00522ccc      1e90           move.b (a0), (a7)
           0x00522cce      2f2e000c       move.l 0xc(a6), -(a7)
           0x00522cd2      2f2e0008       move.l 0x8(a6), -(a7)
           0x00522cd6      4ebacb4e       jsr BRUSHCOM.b_dest_area(pc)
           0x00522cda      defc000a       adda.w 0xa, a7
           0x00522cde      33fc4000fff8.  move.w 0x4000, 0xfff8000c.l
           0x00522ce6      4279fff80000   clr.w 0xfff80000
           0x00522cec      4cdf0307       movem.l (a7)+, d0-d2/a0-a1
           0x00522cf0      4e5e           unlk a6
           0x00522cf2      4e75           rts
            ; CALL XREFS from BRUSHCOM.br_any_stamp @ 0x522dda, 0x522e28
            0x00522cf4      4e560000       link.w a6, 0x0
            0x00522cf8      48e78080       movem.l d0/a0, -(a7)
            0x00522cfc      41f9004047ea   lea.l p_wts_o, a0
            0x00522d02      700c           moveq 0xc, d0
            0x00522d04      9efc0052       suba.w 0x52, a7
            0x00522d08      1f2c0028       move.b 0x28(a4), -(a7)
            0x00522d0c      4eb90044e562   jsr SYSTEM_STRING.store_str
            0x00522d12      9efc00fe       suba.w 0xfe, a7
            0x00522d16      1f2c0026       move.b 0x26(a4), -(a7)
            0x00522d1a      4eb90044e658   jsr SYSTEM_STRING.plane_str
            0x00522d20      544f           addq.w 0x2, a7
            0x00522d22      487ac1b3       pea.l 0x51eed7(pc)
            0x00522d26      4878001f       pea.l 0x1f
            0x00522d2a      2f17           move.l (a7), -(a7)
            0x00522d2c      4e90           jsr (a0)                    ; fcn.00000009
            0x00522d2e      dec0           adda.w d0, a7
            0x00522d30      486f0101       pea.l 0x101(a7)
            0x00522d34      42a7           clr.l -(a7)
            0x00522d36      1f6f01080003   move.b 0x108(a7), 0x3(a7)
            0x00522d3c      2f17           move.l (a7), -(a7)
            0x00522d3e      4e90           jsr (a0)                    ; fcn.00000009
            0x00522d40      dec0           adda.w d0, a7
            0x00522d42      486f0001       pea.l 0x1(a7)
            0x00522d46      42a7           clr.l -(a7)
            0x00522d48      1f6f00080003   move.b 0x8(a7), 0x3(a7)
            0x00522d4e      2f17           move.l (a7), -(a7)
            0x00522d50      4e90           jsr (a0)                    ; fcn.00000009
            0x00522d52      defc015e       adda.w 0x15e, a7
            0x00522d56      4a2c0024       tst.b 0x24(a4)
        < 0x00522d5a      670e           beq.b 0x522d6a
           0x00522d5c      487ac199       pea.l 0x51eef7(pc)
           0x00522d60      48780008       pea.l 0x8
           0x00522d64      2f17           move.l (a7), -(a7)
           0x00522d66      4e90           jsr (a0)                    ; fcn.00000009
           0x00522d68      dec0           adda.w d0, a7
        > 0x00522d6a      4a2c0022       tst.b 0x22(a4)
        < 0x00522d6e      670e           beq.b 0x522d7e
           0x00522d70      487ac18e       pea.l 0x51ef00(pc)
           0x00522d74      48780009       pea.l 0x9
           0x00522d78      2f17           move.l (a7), -(a7)
           0x00522d7a      4e90           jsr (a0)                    ; fcn.00000009
           0x00522d7c      dec0           adda.w d0, a7
        > 0x00522d7e      4a2c0020       tst.b 0x20(a4)
        < 0x00522d82      670e           beq.b 0x522d92
           0x00522d84      487ac184       pea.l 0x51ef0a(pc)
           0x00522d88      48780009       pea.l 0x9
           0x00522d8c      2f17           move.l (a7), -(a7)
           0x00522d8e      4e90           jsr (a0)                    ; fcn.00000009
           0x00522d90      dec0           adda.w d0, a7
        > 0x00522d92      4eb900404946   jsr p_wtln_o
            0x00522d98      4cdf0101       movem.l (a7)+, d0/a0
            0x00522d9c      4e5e           unlk a6
            0x00522d9e      4e75           rts
            ; XREFS: CALL 0x004af254  CALL 0x004b9dd8  CALL 0x0063dd00  
            ; XREFS: CALL 0x00667f78  CALL 0x00667fd2  CALL 0x00674858  
            ; XREFS: CALL 0x006748e0  CALL 0x00732e16  CALL 0x0073a758  
            ; XREFS: CALL 0x00766b46  CALL 0x007676b2  CALL 0x00798224  
            ; XREFS: CALL 0x0079825c  
 430: BRUSHCOM.br_any_stamp (int32_t arg_ah, int32_t arg_ch, int32_t arg_eh, int32_t arg_10h, int32_t arg_12h);
           ; arg int32_t arg_ah @ a6+0xa
           ; arg int32_t arg_ch @ a6+0xc
           ; arg int32_t arg_eh @ a6+0xe
           ; arg int32_t arg_10h @ a6+0x10
           ; arg int32_t arg_12h @ a6+0x12
           0x00522da0      4e56fff4       link.w a6, 0xfff4
           0x00522da4      48e7f8f8       movem.l d0-d4/a0-a4, -(a7)
           0x00522da8      41ee001c       lea.l 0x1c(a6), a0
           0x00522dac      43ee001a       lea.l 0x1a(a6), a1
           0x00522db0      45fad3d2       lea.l BRUSHCOM.store_and_plane(pc), a2
           0x00522db4      47eefff4       lea.l -0xc(a6), a3
           0x00522db8      7205           moveq 0x5, d1
           0x00522dba      7408           moveq 0x8, d2
           0x00522dbc      7607           moveq 0x7, d3
           0x00522dbe      7809           moveq 0x9, d4
           0x00522dc0      4ebac4d6       jsr BRUSHCOM.brush_wait(pc)
           0x00522dc4      4a2e0018       tst.b 0x18(a6)
       < 0x00522dc8      6700012e       beq.w 0x522ef8
          0x00522dcc      4a2e0016       tst.b 0x16(a6)
      < 0x00522dd0      6766           beq.b 0x522e38
         0x00522dd2      4a2e0014       tst.b 0x14(a6)
     < 0x00522dd6      670a           beq.b 0x522de2
        0x00522dd8      284b           movea.l a3, a4
        ; CODE XREF from BRUSHCOM.br_any_stamp @ 0x522e9a
    > 0x00522dda      4ebaff18       jsr 0x522cf4(pc)
   < 0x00522dde      600001f0       bra.w 0x522fd0
   > 0x00522de2      554f           subq.w 0x2, a7
       0x00522de4      1f10           move.b (a0), -(a7)
       0x00522de6      1f11           move.b (a1), -(a7)
       0x00522de8      4e92           jsr (a2)                    ; fcn.00000009+0x2
       0x00522dea      584f           addq.w 0x4, a7
       0x00522dec      1017           move.b (a7), d0
       0x00522dee      b003           cmp.b d3, d0
   < 0x00522df0      6d0a           blt.b 0x522dfc
      0x00522df2      b003           cmp.b d3, d0
  < 0x00522df4      672a           beq.b 0x522e20
     0x00522df6      b002           cmp.b d2, d0
 < 0x00522df8      6720           beq.b 0x522e1a
 < 0x00522dfa      602a           bra.b 0x522e26
 > 0x00522dfc      4a00           tst.b d0
 < 0x00522dfe      6706           beq.b 0x522e06
    0x00522e00      b001           cmp.b d1, d0
 < 0x00522e02      6710           beq.b 0x522e14
 < 0x00522e04      6020           bra.b 0x522e26
 > 0x00522e06      3f3c0029       move.w 0x29, -(a7)
     ; XREFS: CODE 0x00522e18  CODE 0x00522e1e  CODE 0x00522e24  
     ; XREFS: CODE 0x00522f20  CODE 0x00522f28  CODE 0x00522f52  
     ; XREFS: CODE 0x00522f5a  
 > 0x00522e0a      4ebac556       jsr BRUSHCOM.b_setup_control(pc)
    0x00522e0e      584f           addq.w 0x4, a7
 < 0x00522e10      600001be       bra.w 0x522fd0
 > 0x00522e14      3f3c0108       move.w 0x108, -(a7)
 < 0x00522e18      60f0           bra.b 0x522e0a
 > 0x00522e1a      3f3c0109       move.w 0x109, -(a7)
 < 0x00522e1e      60ea           bra.b 0x522e0a
  > 0x00522e20      3f3c010a       move.w 0x10a, -(a7)
 < 0x00522e24      60e4           bra.b 0x522e0a
      ; CODE XREFS from BRUSHCOM.br_any_stamp @ 0x522dfa, 0x522e04, 0x522f2c, 0x522f5e
 > 0x00522e26      284b           movea.l a3, a4
    0x00522e28      4ebafeca       jsr 0x522cf4(pc)
    0x00522e2c      544f           addq.w 0x2, a7
 < 0x00522e2e      600001a0       bra.w 0x522fd0
     0x00522e32      544f           addq.w 0x2, a7
  < 0x00522e34      6000019a       bra.w 0x522fd0              ; BRUSHCOM.br_any_stamp+0x230
 > 0x00522e38      4a2e0014       tst.b 0x14(a6)
 < 0x00522e3c      6764           beq.b 0x522ea2
    0x00522e3e      554f           subq.w 0x2, a7
    0x00522e40      1f10           move.b (a0), -(a7)
    0x00522e42      1f11           move.b (a1), -(a7)
    0x00522e44      4e92           jsr (a2)                    ; fcn.00000009+0x2
    0x00522e46      584f           addq.w 0x4, a7
    0x00522e48      101f           move.b (a7)+, d0
    0x00522e4a      4880           ext.w d0
    0x00522e4c      b042           cmp.w d2, d0
 < 0x00522e4e      6248           bhi.b 0x522e98
    0x00522e50      d040           add.w d0, d0
    0x00522e52      303b0006       move.w 0x522e5a(pc, d0.w), d0
    0x00522e56      4efb0002       jmp 0x522e5a(pc, d0.w)
     0x00522e5a      0012003e       ori.b 0x3e, (a2)
     0x00522e5e      00320026003e   ori.b 0x26, 0x3e(a2, d0.w)
     0x00522e64      0020003e       ori.b 0x3e, -(a0)
     0x00522e68      0038002c3f3c   ori.b 0x2c, 0x3f3c.w
     0x00522e6e      00fb4eba       
     0x00522e6f      fb4e           invalid
     0x00522e71      bac4           cmpa.w d4, a5
     0x00522e73      f0544f60       fsub.b (a4)
     0x00522e77      0001583f       ori.b 0x3f, d1
     0x00522e7b      3c00           move.w d0, d6
     0x00522e7d      fc60f03f       ftrapueq.b -(a0)
     0x00522e81      3c00           move.w d0, d6
     0x00522e83      fd60           invalid
     0x00522e85      ea3f           ror.b d5, d7
     0x00522e87      3c00           move.w d0, d6
     0x00522e89      fe60e43f       ftrapueq.b -(a0)
     0x00522e8d      3c00           move.w d0, d6
     0x00522e8f      ff60           invalid
     0x00522e91      de3f3c01       
     0x00522e92      3f3c0100       move.w 0x100, -(a7)
  < 0x00522e96      60d8           bra.b 0x522e70
    ; CODE XREFS from BRUSHCOM.br_any_stamp @ 0x522ef6, 0x522f04, 0x522fcc
 > 0x00522e98      284b           movea.l a3, a4
 < 0x00522e9a      6000ff3e       bra.w 0x522dda
  < 0x00522e9e      60000130       bra.w 0x522fd0              ; BRUSHCOM.br_any_stamp+0x230
 > 0x00522ea2      554f           subq.w 0x2, a7
     0x00522ea4      1f10           move.b (a0), -(a7)
     0x00522ea6      1f11           move.b (a1), -(a7)
     0x00522ea8      4e92           jsr (a2)                    ; fcn.00000009+0x2
     0x00522eaa      584f           addq.w 0x4, a7
     0x00522eac      101f           move.b (a7)+, d0
     0x00522eae      4880           ext.w d0
     0x00522eb0      b042           cmp.w d2, d0
 < 0x00522eb2      6242           bhi.b 0x522ef6
    0x00522eb4      d040           add.w d0, d0
    0x00522eb6      303b0006       move.w 0x522ebe(pc, d0.w), d0
    0x00522eba      4efb0002       jmp 0x522ebe(pc, d0.w)
     0x00522ebe      00120038       ori.b 0x38, (a2)
     0x00522ec2      002a001e0038   ori.b 0x1e, 0x38(a2)
     0x00522ec8      00180038       ori.b 0x38, (a0)+
     0x00522ecc      003000243f3c.  ori.b 0x24, 0x27609a(a0, d3.l * 8)
     0x00522ed6      3f3c0028       move.w 0x28, -(a7)
  < 0x00522eda      6094           bra.b 0x522e70
     0x00522edc      3f3c0101       move.w 0x101, -(a7)
  < 0x00522ee0      608e           bra.b 0x522e70
     0x00522ee2      3f3c0102       move.w 0x102, -(a7)
  < 0x00522ee6      6088           bra.b 0x522e70
     0x00522ee8      3f3c0103       move.w 0x103, -(a7)
  < 0x00522eec      6082           bra.b 0x522e70
     0x00522eee      3f3c0104       move.w 0x104, -(a7)
  < 0x00522ef2      6000ff7c       bra.w 0x522e70
 > 0x00522ef6      60a0           bra.b 0x522e98
  > 0x00522ef8      4a2e0016       tst.b 0x16(a6)
  < 0x00522efc      6732           beq.b 0x522f30
     0x00522efe      4a2e0014       tst.b 0x14(a6)
 < 0x00522f02      6702           beq.b 0x522f06
 < 0x00522f04      6092           bra.b 0x522e98
 > 0x00522f06      554f           subq.w 0x2, a7
     0x00522f08      1f10           move.b (a0), -(a7)
     0x00522f0a      1f11           move.b (a1), -(a7)
     0x00522f0c      4e92           jsr (a2)                    ; fcn.00000009+0x2
     0x00522f0e      584f           addq.w 0x4, a7
     0x00522f10      4a17           tst.b (a7)
 < 0x00522f12      6708           beq.b 0x522f1c
    0x00522f14      1017           move.b (a7), d0
    0x00522f16      b001           cmp.b d1, d0
 < 0x00522f18      670a           beq.b 0x522f24
 < 0x00522f1a      6010           bra.b 0x522f2c
 > 0x00522f1c      3f3c0011       move.w 0x11, -(a7)
 < 0x00522f20      6000fee8       bra.w 0x522e0a
 > 0x00522f24      3f3c0015       move.w 0x15, -(a7)
 < 0x00522f28      6000fee0       bra.w 0x522e0a
     ; CODE XREF from BRUSHCOM.br_any_stamp @ 0x522f1a
 < 0x00522f2c      6000fef8       bra.w 0x522e26
   > 0x00522f30      4a2e0014       tst.b 0x14(a6)
   < 0x00522f34      672c           beq.b 0x522f62
      0x00522f36      554f           subq.w 0x2, a7
      0x00522f38      1f10           move.b (a0), -(a7)
      0x00522f3a      1f11           move.b (a1), -(a7)
      0x00522f3c      4e92           jsr (a2)                    ; fcn.00000009+0x2
      0x00522f3e      584f           addq.w 0x4, a7
      0x00522f40      4a17           tst.b (a7)
  < 0x00522f42      670a           beq.b 0x522f4e
     0x00522f44      1017           move.b (a7), d0
     0x00522f46      0c000001       cmpi.b 0x1, d0
 < 0x00522f4a      670a           beq.b 0x522f56
 < 0x00522f4c      6010           bra.b 0x522f5e
 > 0x00522f4e      3f3c0022       move.w 0x22, -(a7)
 < 0x00522f52      6000feb6       bra.w 0x522e0a
 > 0x00522f56      3f3c00d9       move.w 0xd9, -(a7)
  < 0x00522f5a      6000feae       bra.w 0x522e0a
       ; CODE XREF from BRUSHCOM.br_any_stamp @ 0x522f4c
 < 0x00522f5e      6000fec6       bra.w 0x522e26
     > 0x00522f62      554f           subq.w 0x2, a7
         0x00522f64      1f10           move.b (a0), -(a7)
         0x00522f66      1f11           move.b (a1), -(a7)
         0x00522f68      4e92           jsr (a2)                    ; fcn.00000009+0x2
         0x00522f6a      584f           addq.w 0x4, a7
         0x00522f6c      101f           move.b (a7)+, d0
         0x00522f6e      4880           ext.w d0
         0x00522f70      b044           cmp.w d4, d0
     < 0x00522f72      6258           bhi.b 0x522fcc
        0x00522f74      d040           add.w d0, d0
        0x00522f76      303b0006       move.w 0x522f7e(pc, d0.w), d0
        0x00522f7a      4efb0002       jmp 0x522f7e(pc, d0.w)
         0x00522f7e      00140024       ori.b 0x24, (a4)
         0x00522f82      003e0046       
         0x00522f83      3e00           move.w d0, d7
         0x00522f85      4600           not.b d0
         0x00522f87      3200           move.w d0, d1
         0x00522f89      1c00           move.b d0, d6
         0x00522f8b      2a00           move.l d0, d5
         0x00522f8d      4e004e00       
         0x00522f8e      004e0038       
         0x00522f8f      4e00383f       
         0x00522f90      00383f3c0002   ori.b 0x3c, 0x2.w
  < 0x00522f96      6000fed8       bra.w 0x522e70
         0x00522f9a      3f3c0003       move.w 0x3, -(a7)
  < 0x00522f9e      6000fed0       bra.w 0x522e70
         0x00522fa2      3f01           move.w d1, -(a7)
  < 0x00522fa4      6000feca       bra.w 0x522e70
         0x00522fa8      3f3c0006       move.w 0x6, -(a7)
  < 0x00522fac      6000fec2       bra.w 0x522e70
         0x00522fb0      3f02           move.w d2, -(a7)
  < 0x00522fb2      6000febc       bra.w 0x522e70
         0x00522fb6      3f04           move.w d4, -(a7)
  < 0x00522fb8      6000feb6       bra.w 0x522e70
         0x00522fbc      3f3c000e       move.w 0xe, -(a7)
  < 0x00522fc0      6000feae       bra.w 0x522e70
         0x00522fc4      3f3c000b       move.w 0xb, -(a7)
  < 0x00522fc8      6000fea6       bra.w 0x522e70
 > 0x00522fcc      6000feca       bra.w 0x522e98
         ; CODE XREFS from BRUSHCOM.br_any_stamp @ 0x522dde, 0x522e10, 0x522e2e
 > 0x00522fd0      36ae0008       move.w 0x8(a6), (a3)
           0x00522fd4      3d6e000afff6   move.w 0xa(a6), -0xa(a6)
           0x00522fda      3d6e0010fff8   move.w 0x10(a6), -0x8(a6)
           0x00522fe0      3d6e0012fffa   move.w 0x12(a6), -0x6(a6)
           0x00522fe6      3d6e000cfffc   move.w 0xc(a6), -0x4(a6)
           0x00522fec      3d6e000efffe   move.w 0xe(a6), -0x2(a6)
           0x00522ff2      4227           clr.b -(a7)
           0x00522ff4      2f2efffc       move.l -0x4(a6), -(a7)
           0x00522ff8      4ebac682       jsr BRUSHCOM.b_source_pos(pc)
           0x00522ffc      584f           addq.w 0x4, a7
           0x00522ffe      1e90           move.b (a0), (a7)
           0x00523000      2f2efff8       move.l -0x8(a6), -(a7)
           0x00523004      2f13           move.l (a3), -(a7)
           0x00523006      4ebac81e       jsr BRUSHCOM.b_dest_area(pc)
           0x0052300a      defc000a       adda.w 0xa, a7
           0x0052300e      4279fff80000   clr.w 0xfff80000
           0x00523014      4cdf1f1f       movem.l (a7)+, d0-d4/a0-a4
           0x00523018      4e5e           unlk a6
           0x0052301a      4e75           rts
            ; CALL XREFS from BRUSHCOM @ +0x51c4, +0x5218
            0x0052301c      4e560000       link.w a6, 0x0
            0x00523020      48e78080       movem.l d0/a0, -(a7)
            0x00523024      41f9004047ea   lea.l p_wts_o, a0
            0x0052302a      700c           moveq 0xc, d0
            0x0052302c      9efc0052       suba.w 0x52, a7
            0x00523030      1f2c0024       move.b 0x24(a4), -(a7)
            0x00523034      4eb90044e562   jsr SYSTEM_STRING.store_str
            0x0052303a      9efc00fe       suba.w 0xfe, a7
            0x0052303e      1f2c0022       move.b 0x22(a4), -(a7)
            0x00523042      4eb90044e658   jsr SYSTEM_STRING.plane_str
            0x00523048      544f           addq.w 0x2, a7
            0x0052304a      487abec8       pea.l 0x51ef14(pc)
            0x0052304e      4878001f       pea.l 0x1f
            0x00523052      2f17           move.l (a7), -(a7)
            0x00523054      4e90           jsr (a0)                    ; fcn.00000009
            0x00523056      dec0           adda.w d0, a7
            0x00523058      486f0101       pea.l 0x101(a7)
            0x0052305c      42a7           clr.l -(a7)
            0x0052305e      1f6f01080003   move.b 0x108(a7), 0x3(a7)
            0x00523064      2f17           move.l (a7), -(a7)
            0x00523066      4e90           jsr (a0)                    ; fcn.00000009
            0x00523068      dec0           adda.w d0, a7
            0x0052306a      486f0001       pea.l 0x1(a7)
            0x0052306e      42a7           clr.l -(a7)
            0x00523070      1f6f00080003   move.b 0x8(a7), 0x3(a7)
            0x00523076      2f17           move.l (a7), -(a7)
            0x00523078      4e90           jsr (a0)                    ; fcn.00000009
            0x0052307a      defc015e       adda.w 0x15e, a7
            0x0052307e      4a2c0020       tst.b 0x20(a4)
        < 0x00523082      670e           beq.b 0x523092
           0x00523084      487abeae       pea.l 0x51ef34(pc)
           0x00523088      48780007       pea.l 0x7
           0x0052308c      2f17           move.l (a7), -(a7)
           0x0052308e      4e90           jsr (a0)                    ; fcn.00000009
           0x00523090      dec0           adda.w d0, a7
        > 0x00523092      4eb900404946   jsr p_wtln_o
            0x00523098      4cdf0101       movem.l (a7)+, d0/a0
            0x0052309c      4e5e           unlk a6
            0x0052309e      4e75           rts
            ; CALL XREFS from MENUEFFECTCOM.do_key @ 0x73fdcc, 0x73fe48
 66: BRUSHCOM.br_key_stamp (int32_t arg_ah, int32_t arg_ch, int32_t arg_eh, int32_t arg_10h, int32_t arg_12h);
           ; arg int32_t arg_ah @ a6+0xa
           ; arg int32_t arg_ch @ a6+0xc
           ; arg int32_t arg_eh @ a6+0xe
           ; arg int32_t arg_10h @ a6+0x10
           ; arg int32_t arg_12h @ a6+0x12
           0x005230a0      4e56fff4       link.w a6, 0xfff4
           0x005230a4      48e7c0c8       movem.l d0-d1/a0-a1/a4, -(a7)
           0x005230a8      41eefff4       lea.l -0xc(a6), a0
           0x005230ac      43ee0018       lea.l 0x18(a6), a1
           0x005230b0      323c0107       move.w 0x107, d1
           0x005230b4      4ebac1e2       jsr BRUSHCOM.brush_wait(pc)
           0x005230b8      4a2e0014       tst.b 0x14(a6)
       < 0x005230bc      674c           beq.b 0x52310a
          0x005230be      554f           subq.w 0x2, a7
          0x005230c0      1f11           move.b (a1), -(a7)
          0x005230c2      1f2e0016       move.b 0x16(a6), -(a7)
          0x005230c6      4ebad0bc       jsr BRUSHCOM.store_and_plane(pc)
          0x005230ca      584f           addq.w 0x4, a7
          0x005230cc      101f           move.b (a7)+, d0
          0x005230ce      4880           ext.w d0
          0x005230d0      5b40           subq.w 0x5, d0
          0x005230d2      0c400003       cmpi.w 0x3, d0
      < 0x005230d6      6228           bhi.b 0x523100
         0x005230d8      d040           add.w d0, d0
         0x005230da      303b0006       move.w 0x5230e2(pc, d0.w), d0
         0x005230de      4efb0002       jmp 0x5230e2(pc, d0.w)
          0x005230e2      0008001e       
          0x005230e3      08001e00       
          0x005230e4      001e001a       ori.b 0x1a, (a6)+
          0x005230e8      00143f3c       ori.b 0x3c, (a4)
          0x005230ec      0105           btst.l d0, d5
     > 0x005230ee      4ebac272       jsr BRUSHCOM.b_setup_control(pc)
        0x005230f2      544f           addq.w 0x2, a7
    < 0x005230f4      606a           bra.b 0x523160
       0x005230f6      3f3c0106       move.w 0x106, -(a7)
    < 0x005230fa      60f2           bra.b 0x5230ee
        0x005230fc      3f01           move.w d1, -(a7)
     < 0x005230fe      60ee           bra.b 0x5230ee
      > 0x00523100      2848           movea.l a0, a4
          0x00523102      4ebaff18       jsr 0x52301c(pc)
      < 0x00523106      6058           bra.b 0x523160
     < 0x00523108      6056           bra.b 0x523160
     > 0x0052310a      554f           subq.w 0x2, a7
         0x0052310c      1f11           move.b (a1), -(a7)
         0x0052310e      1f2e0016       move.b 0x16(a6), -(a7)
         0x00523112      4ebad070       jsr BRUSHCOM.store_and_plane(pc)
         0x00523116      584f           addq.w 0x4, a7
         0x00523118      1017           move.b (a7), d0
         0x0052311a      b001           cmp.b d1, d0
     < 0x0052311c      6d0c           blt.b 0x52312a
        0x0052311e      b001           cmp.b d1, d0
    < 0x00523120      672c           beq.b 0x52314e
       0x00523122      0c000008       cmpi.b 0x8, d0
   < 0x00523126      6720           beq.b 0x523148
  < 0x00523128      602a           bra.b 0x523154
  > 0x0052312a      4a00           tst.b d0
  < 0x0052312c      6708           beq.b 0x523136
     0x0052312e      0c000005       cmpi.b 0x5, d0
  < 0x00523132      670e           beq.b 0x523142
  < 0x00523134      601e           bra.b 0x523154
  > 0x00523136      3f3c0029       move.w 0x29, -(a7)
      ; CODE XREFS from BRUSHCOM @ +0x5208, +0x520e, +0x5214
  > 0x0052313a      4ebac226       jsr BRUSHCOM.b_setup_control(pc)
     0x0052313e      584f           addq.w 0x4, a7
  < 0x00523140      601e           bra.b 0x523160
  > 0x00523142      3f3c0108       move.w 0x108, -(a7)
  < 0x00523146      60f2           bra.b 0x52313a
  > 0x00523148      3f3c0109       move.w 0x109, -(a7)
  < 0x0052314c      60ec           bra.b 0x52313a
   > 0x0052314e      3f3c010a       move.w 0x10a, -(a7)
    < 0x00523152      60e6           bra.b 0x52313a
        ; CODE XREFS from BRUSHCOM @ +0x51ea, +0x51f6
  > 0x00523154      2848           movea.l a0, a4
         0x00523156      4ebafec4       jsr 0x52301c(pc)
         0x0052315a      544f           addq.w 0x2, a7
     < 0x0052315c      6002           bra.b 0x523160
        0x0052315e      544f           addq.w 0x2, a7
        ; CODE XREFS from BRUSHCOM @ +0x51c8, +0x5202, +0x521e
  > 0x00523160      30ae0008       move.w 0x8(a6), (a0)
            0x00523164      3d6e000afff6   move.w 0xa(a6), -0xa(a6)
            0x0052316a      3d6e0010fff8   move.w 0x10(a6), -0x8(a6)
            0x00523170      3d6e0012fffa   move.w 0x12(a6), -0x6(a6)
            0x00523176      3d6e000cfffc   move.w 0xc(a6), -0x4(a6)
            0x0052317c      3d6e000efffe   move.w 0xe(a6), -0x2(a6)
            0x00523182      4227           clr.b -(a7)
            0x00523184      2f2efffc       move.l -0x4(a6), -(a7)
            0x00523188      4ebac4f2       jsr BRUSHCOM.b_source_pos(pc)
            0x0052318c      584f           addq.w 0x4, a7
            0x0052318e      1e91           move.b (a1), (a7)
            0x00523190      2f2efff8       move.l -0x8(a6), -(a7)
            0x00523194      2f10           move.l (a0), -(a7)
            0x00523196      4ebac68e       jsr BRUSHCOM.b_dest_area(pc)
            0x0052319a      defc000a       adda.w 0xa, a7
            0x0052319e      4279fff80000   clr.w 0xfff80000
            0x005231a4      4cdf1303       movem.l (a7)+, d0-d1/a0-a1/a4
            0x005231a8      4e5e           unlk a6
            0x005231aa      4e75           rts
            ; CALL XREF from BRUSHCOM.br_mix @ 0x523304
            0x005231ac      4e560000       link.w a6, 0x0
            0x005231b0      48e78080       movem.l d0/a0, -(a7)
            0x005231b4      41f9004047ea   lea.l p_wts_o, a0
            0x005231ba      700c           moveq 0xc, d0
            0x005231bc      9efc0052       suba.w 0x52, a7
            0x005231c0      1f2c0022       move.b 0x22(a4), -(a7)
            0x005231c4      4eb90044e562   jsr SYSTEM_STRING.store_str
            0x005231ca      9efc0050       suba.w 0x50, a7
            0x005231ce      1f2c0020       move.b 0x20(a4), -(a7)
            0x005231d2      4eb90044e562   jsr SYSTEM_STRING.store_str
            0x005231d8      9efc00fe       suba.w 0xfe, a7
            0x005231dc      1f2c001e       move.b 0x1e(a4), -(a7)
            0x005231e0      4eb90044e658   jsr SYSTEM_STRING.plane_str
            0x005231e6      544f           addq.w 0x2, a7
            0x005231e8      487abd52       pea.l 0x51ef3c(pc)
            0x005231ec      48780015       pea.l 0x15
            0x005231f0      2f17           move.l (a7), -(a7)
            0x005231f2      4e90           jsr (a0)                    ; fcn.00000009
            0x005231f4      dec0           adda.w d0, a7
            0x005231f6      486f0153       pea.l 0x153(a7)
            0x005231fa      42a7           clr.l -(a7)
            0x005231fc      1f6f015a0003   move.b 0x15a(a7), 0x3(a7)
            0x00523202      2f17           move.l (a7), -(a7)
            0x00523204      4e90           jsr (a0)                    ; fcn.00000009
            0x00523206      dec0           adda.w d0, a7
            0x00523208      487abd48       pea.l 0x51ef52(pc)
            0x0052320c      48780004       pea.l 0x4
            0x00523210      2f17           move.l (a7), -(a7)
            0x00523212      4e90           jsr (a0)                    ; fcn.00000009
            0x00523214      dec0           adda.w d0, a7
            0x00523216      486f0101       pea.l 0x101(a7)
            0x0052321a      42a7           clr.l -(a7)
            0x0052321c      1f6f01080003   move.b 0x108(a7), 0x3(a7)
            0x00523222      2f17           move.l (a7), -(a7)
            0x00523224      4e90           jsr (a0)                    ; fcn.00000009
            0x00523226      dec0           adda.w d0, a7
            0x00523228      487abd2d       pea.l 0x51ef57(pc)
            0x0052322c      48780002       pea.l 0x2
            0x00523230      2f17           move.l (a7), -(a7)
            0x00523232      4e90           jsr (a0)                    ; fcn.00000009
            0x00523234      dec0           adda.w d0, a7
            0x00523236      486f0001       pea.l 0x1(a7)
            0x0052323a      42a7           clr.l -(a7)
            0x0052323c      1f6f00080003   move.b 0x8(a7), 0x3(a7)
            0x00523242      2f17           move.l (a7), -(a7)
            0x00523244      4e90           jsr (a0)                    ; fcn.00000009
            0x00523246      defc01b0       adda.w 0x1b0, a7
            0x0052324a      4eb900404946   jsr p_wtln_o
            0x00523250      4cdf0101       movem.l (a7)+, d0/a0
            0x00523254      4e5e           unlk a6
            0x00523256      4e75           rts
            ; CALL XREFS from MENUFULLCOM.another_frame @ 0x4dbbb4, 0x4dbbd6
            ; CALL XREF from BRUSH2COM.br_field_interp @ 0x52abaa
            ; CALL XREF from MENUEFFECTCOM.do_blur_stamp @ 0x741ec4
 220: BRUSHCOM.br_mix ();
           0x00523258      4e56fff8       link.w a6, 0xfff8
           0x0052325c      48e7f1c8       movem.l d0-d3/d7/a0-a1/a4, -(a7)
           0x00523260      41ee0018       lea.l 0x18(a6), a0
           0x00523264      43ee001a       lea.l 0x1a(a6), a1
           0x00523268      7403           moveq 0x3, d2
           0x0052326a      7602           moveq 0x2, d3
           0x0052326c      302e0014       move.w 0x14(a6), d0
           0x00523270      48c0           ext.l d0
           0x00523272      81fc0040       divs.w 0x40, d0
           0x00523276      3e00           move.w d0, d7
           0x00523278      3d47fffa       move.w d7, -0x6(a6)
           0x0052327c      426efffc       clr.w -0x4(a6)
           0x00523280      426efffe       clr.w -0x2(a6)
           0x00523284      3f07           move.w d7, -(a7)
           0x00523286      2f2efffc       move.l -0x4(a6), -(a7)
           0x0052328a      3f2efffa       move.w -0x6(a6), -(a7)
           0x0052328e      4ebadd58       jsr BRUSHCOM.set_br_key_colo(pc)
           0x00523292      504f           addq.w 0x8, a7
           0x00523294      33fc4000fff8.  move.w 0x4000, 0xfff8000c.l
           0x0052329c      4a2e0016       tst.b 0x16(a6)
       < 0x005232a0      663a           bne.b 0x5232dc
          0x005232a2      1011           move.b (a1), d0
          0x005232a4      b002           cmp.b d2, d0
      < 0x005232a6      6612           bne.b 0x5232ba
         0x005232a8      1210           move.b (a0), d1
         0x005232aa      b203           cmp.b d3, d1
     < 0x005232ac      660c           bne.b 0x5232ba
        0x005232ae      3f3c0031       move.w 0x31, -(a7)
        ; CODE XREFS from BRUSHCOM.br_mix @ 0x5232c8, 0x5232d8, 0x5232f4, 0x5232fe
 > 0x005232b2      4ebac0ae       jsr BRUSHCOM.b_setup_control(pc)
    0x005232b6      544f           addq.w 0x2, a7
 < 0x005232b8      604e           bra.b 0x523308
 > 0x005232ba      4a00           tst.b d0
  < 0x005232bc      660c           bne.b 0x5232ca
     0x005232be      1210           move.b (a0), d1
     0x005232c0      b202           cmp.b d2, d1
 < 0x005232c2      6606           bne.b 0x5232ca
    0x005232c4      3f3c0032       move.w 0x32, -(a7)
 < 0x005232c8      60e8           bra.b 0x5232b2
  > 0x005232ca      4a00           tst.b d0
   < 0x005232cc      660c           bne.b 0x5232da
      0x005232ce      1210           move.b (a0), d1
      0x005232d0      b203           cmp.b d3, d1
  < 0x005232d2      6606           bne.b 0x5232da
     0x005232d4      3f3c0035       move.w 0x35, -(a7)
  < 0x005232d8      60d8           bra.b 0x5232b2
  > 0x005232da      6024           bra.b 0x523300
    > 0x005232dc      102e0016       move.b 0x16(a6), d0
        0x005232e0      0c000001       cmpi.b 0x1, d0
    < 0x005232e4      661a           bne.b 0x523300
       0x005232e6      4a11           tst.b (a1)
   < 0x005232e8      6616           bne.b 0x523300
      0x005232ea      1010           move.b (a0), d0
      0x005232ec      b003           cmp.b d3, d0
  < 0x005232ee      6606           bne.b 0x5232f6
     0x005232f0      3f3c0033       move.w 0x33, -(a7)
  < 0x005232f4      60bc           bra.b 0x5232b2
   > 0x005232f6      b002           cmp.b d2, d0
   < 0x005232f8      6606           bne.b 0x523300
      0x005232fa      3f3c0034       move.w 0x34, -(a7)
   < 0x005232fe      60b2           bra.b 0x5232b2
       ; CODE XREF from BRUSHCOM.br_mix @ 0x5232da
  > 0x00523300      49eefff8       lea.l -0x8(a6), a4
           0x00523304      4ebafea6       jsr 0x5231ac(pc)
           ; CODE XREF from BRUSHCOM.br_mix @ 0x5232b8
 > 0x00523308      1f11           move.b (a1), -(a7)
           0x0052330a      2f2e0010       move.l 0x10(a6), -(a7)
           0x0052330e      4ebac36c       jsr BRUSHCOM.b_source_pos(pc)
           0x00523312      584f           addq.w 0x4, a7
           0x00523314      1e90           move.b (a0), (a7)
           0x00523316      2f2e000c       move.l 0xc(a6), -(a7)
           0x0052331a      2f2e0008       move.l 0x8(a6), -(a7)
           0x0052331e      4ebac506       jsr BRUSHCOM.b_dest_area(pc)
           0x00523322      defc000a       adda.w 0xa, a7
           0x00523326      4279fff80000   clr.w 0xfff80000
           0x0052332c      4cdf138f       movem.l (a7)+, d0-d3/d7/a0-a1/a4
           0x00523330      4e5e           unlk a6
           0x00523332      4e75           rts
            ; CALL XREF from BRUSHCOM.br_paste @ 0x5234e2
            0x00523334      4e560000       link.w a6, 0x0
            0x00523338      48e7c080       movem.l d0-d1/a0, -(a7)
            0x0052333c      41f9004047ea   lea.l p_wts_o, a0
            0x00523342      720c           moveq 0xc, d1
            0x00523344      9efc0052       suba.w 0x52, a7
            0x00523348      1f2c002a       move.b 0x2a(a4), -(a7)
            0x0052334c      4eb90044e562   jsr SYSTEM_STRING.store_str
            0x00523352      9efc00fe       suba.w 0xfe, a7
            0x00523356      1f2c0028       move.b 0x28(a4), -(a7)
            0x0052335a      4eb90044e658   jsr SYSTEM_STRING.plane_str
            0x00523360      9efc0050       suba.w 0x50, a7
            0x00523364      1f2c001a       move.b 0x1a(a4), -(a7)
            0x00523368      4eb90044e562   jsr SYSTEM_STRING.store_str
            0x0052336e      544f           addq.w 0x2, a7
            0x00523370      487abbe8       pea.l 0x51ef5a(pc)
            0x00523374      4878001b       pea.l 0x1b
            0x00523378      2f17           move.l (a7), -(a7)
            0x0052337a      4e90           jsr (a0)                    ; fcn.00000009
            0x0052337c      dec1           adda.w d1, a7
            0x0052337e      486f0153       pea.l 0x153(a7)
            0x00523382      42a7           clr.l -(a7)
            0x00523384      1f6f015a0003   move.b 0x15a(a7), 0x3(a7)
            0x0052338a      2f17           move.l (a7), -(a7)
            0x0052338c      4e90           jsr (a0)                    ; fcn.00000009
            0x0052338e      dec1           adda.w d1, a7
            0x00523390      486f0053       pea.l 0x53(a7)
            0x00523394      42a7           clr.l -(a7)
            0x00523396      1f6f005a0003   move.b 0x5a(a7), 0x3(a7)
            0x0052339c      2f17           move.l (a7), -(a7)
            0x0052339e      4e90           jsr (a0)                    ; fcn.00000009
            0x005233a0      dec1           adda.w d1, a7
            0x005233a2      486f0001       pea.l 0x1(a7)
            0x005233a6      42a7           clr.l -(a7)
            0x005233a8      1f6f00080003   move.b 0x8(a7), 0x3(a7)
            0x005233ae      2f17           move.l (a7), -(a7)
            0x005233b0      4e90           jsr (a0)                    ; fcn.00000009
            0x005233b2      defc01b0       adda.w 0x1b0, a7
            0x005233b6      4a2c0018       tst.b 0x18(a4)
        < 0x005233ba      670e           beq.b 0x5233ca
           0x005233bc      487abbb8       pea.l 0x51ef76(pc)
           0x005233c0      48780007       pea.l 0x7
           0x005233c4      2f17           move.l (a7), -(a7)
           0x005233c6      4e90           jsr (a0)                    ; fcn.00000009
           0x005233c8      dec1           adda.w d1, a7
        > 0x005233ca      102c0016       move.b 0x16(a4), d0
            0x005233ce      0c000001       cmpi.b 0x1, d0
        < 0x005233d2      660e           bne.b 0x5233e2
           0x005233d4      487abba8       pea.l 0x51ef7e(pc)
           0x005233d8      48780006       pea.l 0x6
           0x005233dc      2f17           move.l (a7), -(a7)
           0x005233de      4e90           jsr (a0)                    ; fcn.00000009
           0x005233e0      dec1           adda.w d1, a7
        > 0x005233e2      4eb900404946   jsr p_wtln_o
            0x005233e8      4cdf0103       movem.l (a7)+, d0-d1/a0
            0x005233ec      4e5e           unlk a6
            0x005233ee      4e75           rts
            ; XREFS: CALL 0x004900a4  CALL 0x00636cfc  CALL 0x0063dd28  
            ; XREFS: CALL 0x00674b10  CALL 0x00674b8a  CALL 0x00674c40  
            ; XREFS: CALL 0x00732e3e  CALL 0x0073a6d4  CALL 0x0073a6f2  
            ; XREFS: CALL 0x0073a7cc  CALL 0x0073a8f0  CALL 0x0073ab3c  
            ; XREFS: CALL 0x0073ab72  CALL 0x00742370  CALL 0x00743b18  
            ; XREFS: CALL 0x00743caa  CALL 0x0074bb86  CALL 0x0074bdfa  
 450: BRUSHCOM.br_paste (int32_t arg_eh, int32_t arg_10h, int32_t arg_12h, int32_t arg_14h);
           ; arg int32_t arg_eh @ a6+0xe
           ; arg int32_t arg_10h @ a6+0x10
           ; arg int32_t arg_12h @ a6+0x12
           ; arg int32_t arg_14h @ a6+0x14
           0x005233f0      4e56fff2       link.w a6, 0xfff2
           0x005233f4      48e7f9e8       movem.l d0-d4/d7/a0-a2/a4, -(a7)
           0x005233f8      41ee001a       lea.l 0x1a(a6), a0
           0x005233fc      43ee0016       lea.l 0x16(a6), a1
           0x00523400      45ee0018       lea.l 0x18(a6), a2
           0x00523404      7402           moveq 0x2, d2
           0x00523406      7603           moveq 0x3, d3
           0x00523408      7808           moveq 0x8, d4
           0x0052340a      4a51           tst.w (a1)
       < 0x0052340c      6f04           ble.b 0x523412
          0x0052340e      4a52           tst.w (a2)
      < 0x00523410      6e48           bgt.b 0x52345a
      > 0x00523412      487abb71       pea.l 0x51ef85(pc)
          0x00523416      48780010       pea.l 0x10
          0x0052341a      2f17           move.l (a7), -(a7)
          0x0052341c      4eb9004047ea   jsr p_wts_o
          0x00523422      defc000c       adda.w 0xc, a7
          0x00523426      3011           move.w (a1), d0
          0x00523428      48c0           ext.l d0
          0x0052342a      2f00           move.l d0, -(a7)
          0x0052342c      48780004       pea.l 0x4
          0x00523430      4eb9004070e4   jsr p_wti_o
          0x00523436      504f           addq.w 0x8, a7
          0x00523438      3012           move.w (a2), d0
          0x0052343a      48c0           ext.l d0
          0x0052343c      2f00           move.l d0, -(a7)
          0x0052343e      48780004       pea.l 0x4
          0x00523442      4eb9004070e4   jsr p_wti_o
          0x00523448      504f           addq.w 0x8, a7
          0x0052344a      4eb900404946   jsr p_wtln_o
          0x00523450      4eb900401620   jsr p_walkback
      < 0x00523456      60000214       bra.w 0x52366c
      > 0x0052345a      102e001c       move.b 0x1c(a6), d0
          0x0052345e      b002           cmp.b d2, d0
      < 0x00523460      6604           bne.b 0x523466
         0x00523462      7e03           moveq 0x3, d7
     < 0x00523464      6012           bra.b 0x523478
     > 0x00523466      b003           cmp.b d3, d0
     < 0x00523468      6604           bne.b 0x52346e
        0x0052346a      7e02           moveq 0x2, d7
    < 0x0052346c      600a           bra.b 0x523478
    > 0x0052346e      4227           clr.b -(a7)
        0x00523470      4eb90040452a   jsr p_Assert
        0x00523476      544f           addq.w 0x2, a7
        ; CODE XREFS from BRUSHCOM.br_paste @ 0x523464, 0x52346c
    > 0x00523478      3d6e0012fff4   move.w 0x12(a6), -0xc(a6)
          0x0052347e      3d6e0014fff6   move.w 0x14(a6), -0xa(a6)
          0x00523484      3d6e000efff8   move.w 0xe(a6), -0x8(a6)
          0x0052348a      3d6e0010fffa   move.w 0x10(a6), -0x6(a6)
          0x00523490      3d51fffc       move.w (a1), -0x4(a6)
          0x00523494      3d52fffe       move.w (a2), -0x2(a6)
          0x00523498      4ebabdfe       jsr BRUSHCOM.brush_wait(pc)
          0x0052349c      4a2e0008       tst.b 0x8(a6)
      < 0x005234a0      6648           bne.b 0x5234ea
         0x005234a2      b002           cmp.b d2, d0
     < 0x005234a4      6638           bne.b 0x5234de
        0x005234a6      4a10           tst.b (a0)
    < 0x005234a8      6634           bne.b 0x5234de
       0x005234aa      122e000c       move.b 0xc(a6), d1
       0x005234ae      b202           cmp.b d2, d1
   < 0x005234b0      661a           bne.b 0x5234cc
      0x005234b2      4a2e000a       tst.b 0xa(a6)
  < 0x005234b6      670e           beq.b 0x5234c6
     0x005234b8      3f3c0025       move.w 0x25, -(a7)
     ; CODE XREFS from BRUSHCOM.br_paste @ 0x5234ca, 0x5234d6, 0x5234dc
 > 0x005234bc      4ebabea4       jsr BRUSHCOM.b_setup_control(pc)
    0x005234c0      544f           addq.w 0x2, a7
 < 0x005234c2      60000182       bra.w 0x523646
 > 0x005234c6      3f3c0023       move.w 0x23, -(a7)
 < 0x005234ca      60f0           bra.b 0x5234bc
  > 0x005234cc      4a2e000a       tst.b 0xa(a6)
  < 0x005234d0      6706           beq.b 0x5234d8
     0x005234d2      3f3c0026       move.w 0x26, -(a7)
 < 0x005234d6      60e4           bra.b 0x5234bc
  > 0x005234d8      3f3c0024       move.w 0x24, -(a7)
 < 0x005234dc      60de           bra.b 0x5234bc
      ; CODE XREFS from BRUSHCOM.br_paste @ 0x523554, 0x523642
  > 0x005234de      49eefff2       lea.l -0xe(a6), a4
       0x005234e2      4ebafe50       jsr 0x523334(pc)
   < 0x005234e6      6000015e       bra.w 0x523646
   > 0x005234ea      122e000c       move.b 0xc(a6), d1
       0x005234ee      b202           cmp.b d2, d1
   < 0x005234f0      660000ca       bne.w 0x5235bc
      0x005234f4      4a2e000a       tst.b 0xa(a6)
  < 0x005234f8      6760           beq.b 0x52355a
     0x005234fa      554f           subq.w 0x2, a7
     0x005234fc      1f00           move.b d0, -(a7)
     0x005234fe      1f10           move.b (a0), -(a7)
     0x00523500      4ebacc82       jsr BRUSHCOM.store_and_plane(pc)
     0x00523504      584f           addq.w 0x4, a7
     0x00523506      121f           move.b (a7)+, d1
     0x00523508      4881           ext.w d1
     0x0052350a      b244           cmp.w d4, d1
 < 0x0052350c      6246           bhi.b 0x523554
    0x0052350e      d241           add.w d1, d1
    0x00523510      323b1006       move.w 0x523518(pc, d1.w), d1
    0x00523514      4efb1002       jmp 0x523518(pc, d1.w)
     0x00523518      0012003c       ori.b 0x3c, (a2)
     0x0052351c      0018001e       ori.b 0x1e, (a0)+
     0x00523520      003c0024       ori.b 0x24, ccr
     0x00523524      003c002c       ori.b 0x2c, ccr
     0x00523528      00343f3c00b4   ori.b 0x3c, -0x4c(a4, d0.w)
  < 0x0052352e      608c           bra.b 0x5234bc              ; BRUSHCOM.br_paste+0xcc
     0x00523530      3f3c00bf       move.w 0xbf, -(a7)
  < 0x00523534      6086           bra.b 0x5234bc              ; BRUSHCOM.br_paste+0xcc
     0x00523536      3f3c00c7       move.w 0xc7, -(a7)
  < 0x0052353a      6080           bra.b 0x5234bc              ; BRUSHCOM.br_paste+0xcc
     0x0052353c      3f3c00b8       move.w 0xb8, -(a7)
  < 0x00523540      6000ff7a       bra.w 0x5234bc              ; BRUSHCOM.br_paste+0xcc
     0x00523544      3f3c00c3       move.w 0xc3, -(a7)
  < 0x00523548      6000ff72       bra.w 0x5234bc              ; BRUSHCOM.br_paste+0xcc
     0x0052354c      3f3c00cb       move.w 0xcb, -(a7)
  < 0x00523550      6000ff6a       bra.w 0x5234bc              ; BRUSHCOM.br_paste+0xcc
    ; CODE XREFS from BRUSHCOM.br_paste @ 0x5235ba, 0x523600
 < 0x00523554      6088           bra.b 0x5234de
   < 0x00523556      600000ee       bra.w 0x523646              ; BRUSHCOM.br_paste+0x256
  > 0x0052355a      554f           subq.w 0x2, a7
      0x0052355c      1f00           move.b d0, -(a7)
      0x0052355e      1f10           move.b (a0), -(a7)
      0x00523560      4ebacc22       jsr BRUSHCOM.store_and_plane(pc)
      0x00523564      584f           addq.w 0x4, a7
      0x00523566      121f           move.b (a7)+, d1
      0x00523568      4881           ext.w d1
      0x0052356a      b244           cmp.w d4, d1
  < 0x0052356c      624c           bhi.b 0x5235ba
     0x0052356e      d241           add.w d1, d1
     0x00523570      323b1006       move.w 0x523578(pc, d1.w), d1
     0x00523574      4efb1002       jmp 0x523578(pc, d1.w)
      0x00523578      00120042       ori.b 0x42, (a2)
      0x0052357c      001a0022       ori.b 0x22, (a2)+
      0x00523580      0042002a       ori.w 0x2a, d2
      0x00523584      00420032       ori.w 0x32, d2
      0x00523588      003a3f3c       
      0x00523589      3a3f3c00       
      0x0052358a      3f3c00b3       move.w 0xb3, -(a7)
  < 0x0052358e      6000ff2c       bra.w 0x5234bc              ; BRUSHCOM.br_paste+0xcc
      0x00523592      3f3c00be       move.w 0xbe, -(a7)
  < 0x00523596      6000ff24       bra.w 0x5234bc              ; BRUSHCOM.br_paste+0xcc
      0x0052359a      3f3c00c6       move.w 0xc6, -(a7)
  < 0x0052359e      6000ff1c       bra.w 0x5234bc              ; BRUSHCOM.br_paste+0xcc
      0x005235a2      3f3c00b7       move.w 0xb7, -(a7)
  < 0x005235a6      6000ff14       bra.w 0x5234bc              ; BRUSHCOM.br_paste+0xcc
      0x005235aa      3f3c00c2       move.w 0xc2, -(a7)
  < 0x005235ae      6000ff0c       bra.w 0x5234bc              ; BRUSHCOM.br_paste+0xcc
      0x005235b2      3f3c00ca       move.w 0xca, -(a7)
  < 0x005235b6      6000ff04       bra.w 0x5234bc              ; BRUSHCOM.br_paste+0xcc
 > 0x005235ba      6098           bra.b 0x523554
   > 0x005235bc      4a2e000a       tst.b 0xa(a6)
   < 0x005235c0      6742           beq.b 0x523604
      0x005235c2      554f           subq.w 0x2, a7
      0x005235c4      1f00           move.b d0, -(a7)
      0x005235c6      1f10           move.b (a0), -(a7)
      0x005235c8      4ebacbba       jsr BRUSHCOM.store_and_plane(pc)
      0x005235cc      584f           addq.w 0x4, a7
      0x005235ce      121f           move.b (a7)+, d1
      0x005235d0      4881           ext.w d1
      0x005235d2      b243           cmp.w d3, d1
  < 0x005235d4      622a           bhi.b 0x523600
     0x005235d6      d241           add.w d1, d1
     0x005235d8      323b1006       move.w 0x5235e0(pc, d1.w), d1
     0x005235dc      4efb1002       jmp 0x5235e0(pc, d1.w)
      0x005235e0      00080020       
      0x005235e1      08002000       
      0x005235e2      00200010       ori.b 0x10, -(a0)
      0x005235e6      00183f3c       ori.b 0x3c, (a0)+
      0x005235ea      00b66000fece.  ori.l 0x6000fece, 0xaaaaaaaa(a6, d3.l * 8)
      0x005235f4      6000fec6       bra.w 0x5234bc              ; BRUSHCOM.br_paste+0xcc
      0x005235f8      3f3c00c9       move.w 0xc9, -(a7)
  < 0x005235fc      6000febe       bra.w 0x5234bc              ; BRUSHCOM.br_paste+0xcc
 > 0x00523600      6000ff52       bra.w 0x523554
    > 0x00523604      554f           subq.w 0x2, a7
        0x00523606      1f00           move.b d0, -(a7)
        0x00523608      1f10           move.b (a0), -(a7)
        0x0052360a      4ebacb78       jsr BRUSHCOM.store_and_plane(pc)
        0x0052360e      584f           addq.w 0x4, a7
        0x00523610      121f           move.b (a7)+, d1
        0x00523612      4881           ext.w d1
        0x00523614      b243           cmp.w d3, d1
    < 0x00523616      622a           bhi.b 0x523642
       0x00523618      d241           add.w d1, d1
       0x0052361a      323b1006       move.w 0x523622(pc, d1.w), d1
       0x0052361e      4efb1002       jmp 0x523622(pc, d1.w)
        0x00523622      00080020       
        0x00523623      08002000       
        0x00523624      00200010       ori.b 0x10, -(a0)
        0x00523628      00183f3c       ori.b 0x3c, (a0)+
        0x0052362c      00b56000fe8c.  ori.l 0x6000fe8c, 0xaaaaaaaa(a5, d3.l * 8)
        0x00523636      6000fe84       bra.w 0x5234bc              ; BRUSHCOM.br_paste+0xcc
        0x0052363a      3f3c00c8       move.w 0xc8, -(a7)
        0x0052363e      6000fe7c       bra.w 0x5234bc              ; BRUSHCOM.br_paste+0xcc
    > 0x00523642      6000fe9a       bra.w 0x5234de
        ; CODE XREFS from BRUSHCOM.br_paste @ 0x5234c2, 0x5234e6
 > 0x00523646      1f07           move.b d7, -(a7)
          0x00523648      2f2efff4       move.l -0xc(a6), -(a7)
          0x0052364c      4ebac02e       jsr BRUSHCOM.b_source_pos(pc)
          0x00523650      584f           addq.w 0x4, a7
          0x00523652      1eae001c       move.b 0x1c(a6), (a7)
          0x00523656      2f2efffc       move.l -0x4(a6), -(a7)
          0x0052365a      2f2efff8       move.l -0x8(a6), -(a7)
          0x0052365e      4ebac1c6       jsr BRUSHCOM.b_dest_area(pc)
          0x00523662      defc000a       adda.w 0xa, a7
          0x00523666      4279fff80000   clr.w 0xfff80000
          ; CODE XREF from BRUSHCOM.br_paste @ 0x523456
       > 0x0052366c      4cdf179f       movem.l (a7)+, d0-d4/d7/a0-a2/a4
           0x00523670      4e5e           unlk a6
           0x00523672      4e75           rts
 184: BRUSHCOM.br_pstkey_wipe (int32_t arg_8h, int32_t arg_108h);
           ; arg int32_t arg_8h @ a7+0x8
           ; arg int32_t arg_108h @ a7+0x108
           0x00523674      4e560000       link.w a6, 0x0
           0x00523678      48e7c0c0       movem.l d0-d1/a0-a1, -(a7)
           0x0052367c      41ee0012       lea.l 0x12(a6), a0
           0x00523680      43f9004047ea   lea.l p_wts_o, a1
           0x00523686      720c           moveq 0xc, d1
           0x00523688      4ebabc0e       jsr BRUSHCOM.brush_wait(pc)
           0x0052368c      554f           subq.w 0x2, a7
           0x0052368e      1f10           move.b (a0), -(a7)
           0x00523690      1f2e0010       move.b 0x10(a6), -(a7)
           0x00523694      4ebacaee       jsr BRUSHCOM.store_and_plane(pc)
           0x00523698      584f           addq.w 0x4, a7
           0x0052369a      101f           move.b (a7)+, d0
           0x0052369c      0c000005       cmpi.b 0x5, d0
       < 0x005236a0      660c           bne.b 0x5236ae
          0x005236a2      3f3c0030       move.w 0x30, -(a7)
          0x005236a6      4ebabcba       jsr BRUSHCOM.b_setup_control(pc)
          0x005236aa      544f           addq.w 0x2, a7
      < 0x005236ac      6056           bra.b 0x523704
      > 0x005236ae      9efc0052       suba.w 0x52, a7
          0x005236b2      1f10           move.b (a0), -(a7)
          0x005236b4      4eb90044e562   jsr SYSTEM_STRING.store_str
          0x005236ba      9efc00fe       suba.w 0xfe, a7
          0x005236be      1f2e0010       move.b 0x10(a6), -(a7)
          0x005236c2      4eb90044e658   jsr SYSTEM_STRING.plane_str
          0x005236c8      544f           addq.w 0x2, a7
          0x005236ca      487ab8ca       pea.l 0x51ef96(pc)
          0x005236ce      48780021       pea.l 0x21
          0x005236d2      2f17           move.l (a7), -(a7)
          0x005236d4      4e91           jsr (a1)                    ; fcn.0000000a
          0x005236d6      dec1           adda.w d1, a7
          0x005236d8      486f0101       pea.l 0x101(a7)
          0x005236dc      42a7           clr.l -(a7)
          0x005236de      1f6f01080003   move.b 0x108(a7), 0x3(a7)
          0x005236e4      2f17           move.l (a7), -(a7)
          0x005236e6      4e91           jsr (a1)                    ; fcn.0000000a
          0x005236e8      dec1           adda.w d1, a7
          0x005236ea      486f0001       pea.l 0x1(a7)
          0x005236ee      42a7           clr.l -(a7)
          0x005236f0      1f6f00080003   move.b 0x8(a7), 0x3(a7)
          0x005236f6      2f17           move.l (a7), -(a7)
          0x005236f8      4e91           jsr (a1)                    ; fcn.0000000a
          0x005236fa      defc015e       adda.w 0x15e, a7
          0x005236fe      4eb900404946   jsr p_wtln_o
          ; CODE XREF from BRUSHCOM.br_pstkey_wipe @ 0x5236ac
      > 0x00523704      1f10           move.b (a0), -(a7)
           0x00523706      2f2e000c       move.l 0xc(a6), -(a7)
           0x0052370a      2f2e0008       move.l 0x8(a6), -(a7)
           0x0052370e      4ebac116       jsr BRUSHCOM.b_dest_area(pc)
           0x00523712      defc000a       adda.w 0xa, a7
           0x00523716      33fc4000fff8.  move.w 0x4000, 0xfff8000c.l
           0x0052371e      4279fff80000   clr.w 0xfff80000
           0x00523724      4cdf0303       movem.l (a7)+, d0-d1/a0-a1
           0x00523728      4e5e           unlk a6
           0x0052372a      4e75           rts
            ; CALL XREF from MENUPAINTCOM.finish_spec_bru @ 0x4af26c
            ; CALL XREF from MENUPAINTCOM.finish_air_use_ @ 0x4af2d8
 190: BRUSHCOM.br_special_past (int32_t arg_8h, int32_t arg_ah, int32_t arg_ch, int32_t arg_eh, int32_t arg_10h, int32_t arg_12h);
           ; arg int32_t arg_8h @ a6+0x8
           ; arg int32_t arg_ah @ a6+0xa
           ; arg int32_t arg_ch @ a6+0xc
           ; arg int32_t arg_eh @ a6+0xe
           ; arg int32_t arg_10h @ a6+0x10
           ; arg int32_t arg_12h @ a6+0x12
           ; var int32_t var_8h @ a7+0x8
           0x0052372c      4e56fff2       link.w a6, 0xfff2
           0x00523730      48e7e000       movem.l d0-d2, -(a7)
           0x00523734      7202           moveq 0x2, d1
           0x00523736      7403           moveq 0x3, d2
           0x00523738      3d6e000cfff4   move.w 0xc(a6), -0xc(a6)
           0x0052373e      3d6e000efff6   move.w 0xe(a6), -0xa(a6)
           0x00523744      3d6e0008fff8   move.w 0x8(a6), -0x8(a6)
           0x0052374a      3d6e000afffa   move.w 0xa(a6), -0x6(a6)
           0x00523750      3d6e0010fffc   move.w 0x10(a6), -0x4(a6)
           0x00523756      3d6e0012fffe   move.w 0x12(a6), -0x2(a6)
           0x0052375c      4ebabb3a       jsr BRUSHCOM.brush_wait(pc)
           0x00523760      102e0014       move.b 0x14(a6), d0
           0x00523764      b001           cmp.b d1, d0
       < 0x00523766      660c           bne.b 0x523774
          0x00523768      3f3c002b       move.w 0x2b, -(a7)
          ; CODE XREF from BRUSHCOM.br_special_past @ 0x52377c
      > 0x0052376c      4ebabbf4       jsr BRUSHCOM.b_setup_control(pc)
         0x00523770      544f           addq.w 0x2, a7
     < 0x00523772      604a           bra.b 0x5237be
     > 0x00523774      b002           cmp.b d2, d0
     < 0x00523776      6606           bne.b 0x52377e
        0x00523778      3f3c002c       move.w 0x2c, -(a7)
     < 0x0052377c      60ee           bra.b 0x52376c
      > 0x0052377e      9efc0052       suba.w 0x52, a7
          0x00523782      1f00           move.b d0, -(a7)
          0x00523784      4eb90044e562   jsr SYSTEM_STRING.store_str
          0x0052378a      544f           addq.w 0x2, a7
          0x0052378c      487ab82a       pea.l 0x51efb8(pc)
          0x00523790      48780023       pea.l 0x23
          0x00523794      2f17           move.l (a7), -(a7)
          0x00523796      4eb9004047ea   jsr p_wts_o
          0x0052379c      defc000c       adda.w 0xc, a7
          0x005237a0      486f0001       pea.l 0x1(a7)
          0x005237a4      42a7           clr.l -(a7)
          0x005237a6      1f6f00080003   move.b 0x8(a7), 0x3(a7)
          0x005237ac      2f17           move.l (a7), -(a7)
          0x005237ae      4eb9004047ea   jsr p_wts_o
          0x005237b4      defc005e       adda.w 0x5e, a7
          0x005237b8      4eb900404946   jsr p_wtln_o
          ; CODE XREF from BRUSHCOM.br_special_past @ 0x523772
     > 0x005237be      1f02           move.b d2, -(a7)
           0x005237c0      2f2efff4       move.l -0xc(a6), -(a7)
           0x005237c4      4ebabeb6       jsr BRUSHCOM.b_source_pos(pc)
           0x005237c8      584f           addq.w 0x4, a7
           0x005237ca      1e81           move.b d1, (a7)
           0x005237cc      2f2efffc       move.l -0x4(a6), -(a7)
           0x005237d0      2f2efff8       move.l -0x8(a6), -(a7)
           0x005237d4      4ebac050       jsr BRUSHCOM.b_dest_area(pc)
           0x005237d8      defc000a       adda.w 0xa, a7
           0x005237dc      4279fff80000   clr.w 0xfff80000
           0x005237e2      4cdf0007       movem.l (a7)+, d0-d2
           0x005237e6      4e5e           unlk a6
           0x005237e8      4e75           rts
            ; CALL XREF from BRUSHCOM.set_sten_stamp @ 0x523a0e
            0x005237ea      4e560000       link.w a6, 0x0
            0x005237ee      48e7c080       movem.l d0-d1/a0, -(a7)
            0x005237f2      41f9004047ea   lea.l p_wts_o, a0
            0x005237f8      720c           moveq 0xc, d1
            0x005237fa      9efc0052       suba.w 0x52, a7
            0x005237fe      1f2c000e       move.b 0xe(a4), -(a7)
            0x00523802      4eb90044e562   jsr SYSTEM_STRING.store_str
            0x00523808      9efc0050       suba.w 0x50, a7
            0x0052380c      1f2c0010       move.b 0x10(a4), -(a7)
            0x00523810      4eb90044e562   jsr SYSTEM_STRING.store_str
            0x00523816      9efc00fe       suba.w 0xfe, a7
            0x0052381a      1f2c000c       move.b 0xc(a4), -(a7)
            0x0052381e      4eb90044e658   jsr SYSTEM_STRING.plane_str
            0x00523824      544f           addq.w 0x2, a7
            0x00523826      487ab7b4       pea.l 0x51efdc(pc)
            0x0052382a      48780021       pea.l 0x21
            0x0052382e      2f17           move.l (a7), -(a7)
            0x00523830      4e90           jsr (a0)                    ; fcn.00000009
            0x00523832      dec1           adda.w d1, a7
            0x00523834      486f0153       pea.l 0x153(a7)
            0x00523838      42a7           clr.l -(a7)
            0x0052383a      1f6f015a0003   move.b 0x15a(a7), 0x3(a7)
            0x00523840      2f17           move.l (a7), -(a7)
            0x00523842      4e90           jsr (a0)                    ; fcn.00000009
            0x00523844      dec1           adda.w d1, a7
            0x00523846      486f0101       pea.l 0x101(a7)
            0x0052384a      42a7           clr.l -(a7)
            0x0052384c      1f6f01080003   move.b 0x108(a7), 0x3(a7)
            0x00523852      2f17           move.l (a7), -(a7)
            0x00523854      4e90           jsr (a0)                    ; fcn.00000009
            0x00523856      dec1           adda.w d1, a7
            0x00523858      486f0001       pea.l 0x1(a7)
            0x0052385c      42a7           clr.l -(a7)
            0x0052385e      1f6f00080003   move.b 0x8(a7), 0x3(a7)
            0x00523864      2f17           move.l (a7), -(a7)
            0x00523866      4e90           jsr (a0)                    ; fcn.00000009
            0x00523868      defc01b0       adda.w 0x1b0, a7
            0x0052386c      4a2c000a       tst.b 0xa(a4)
        < 0x00523870      670e           beq.b 0x523880
           0x00523872      487ab78a       pea.l 0x51effe(pc)
           0x00523876      48780007       pea.l 0x7
           0x0052387a      2f17           move.l (a7), -(a7)
           0x0052387c      4e90           jsr (a0)                    ; fcn.00000009
           0x0052387e      dec1           adda.w d1, a7
        > 0x00523880      102c0008       move.b 0x8(a4), d0
            0x00523884      0c000001       cmpi.b 0x1, d0
        < 0x00523888      660e           bne.b 0x523898
           0x0052388a      487ab77a       pea.l 0x51f006(pc)
           0x0052388e      48780006       pea.l 0x6
           0x00523892      2f17           move.l (a7), -(a7)
           0x00523894      4e90           jsr (a0)                    ; fcn.00000009
           0x00523896      dec1           adda.w d1, a7
        > 0x00523898      4eb900404946   jsr p_wtln_o
            0x0052389e      4cdf0103       movem.l (a7)+, d0-d1/a0
            0x005238a2      4e5e           unlk a6
            0x005238a4      4e75           rts
            ; CALL XREF from MENUPAINTCOM.paint_here @ 0x4af59a
            ; CALL XREF from MENUPAINTCOM.setup_for_paint @ 0x4afbea
            ; CALL XREF from MENUGRAPHICCOM.draw_grid @ 0x7331bc
 188: BRUSHCOM.set_sten_stamp ();
           0x005238a6      4e560000       link.w a6, 0x0
           0x005238aa      48e7e0c8       movem.l d0-d2/a0-a1/a4, -(a7)
           0x005238ae      41ee000e       lea.l 0xe(a6), a0
           0x005238b2      43ee000c       lea.l 0xc(a6), a1
           0x005238b6      7202           moveq 0x2, d1
           0x005238b8      740d           moveq 0xd, d2
           0x005238ba      4ebab9dc       jsr BRUSHCOM.brush_wait(pc)
           0x005238be      102e0008       move.b 0x8(a6), d0
           0x005238c2      0c000001       cmpi.b 0x1, d0
       < 0x005238c6      6600011c       bne.w 0x5239e4
          0x005238ca      4a2e000a       tst.b 0xa(a6)
      < 0x005238ce      6704           beq.b 0x5238d4
     < 0x005238d0      6000013a       bra.w 0x523a0c
     > 0x005238d4      102e0010       move.b 0x10(a6), d0
         0x005238d8      b001           cmp.b d1, d0
     < 0x005238da      66000082       bne.w 0x52395e
        0x005238de      554f           subq.w 0x2, a7
        0x005238e0      1f10           move.b (a0), -(a7)
        0x005238e2      1f11           move.b (a1), -(a7)
        0x005238e4      4ebac89e       jsr BRUSHCOM.store_and_plane(pc)
        0x005238e8      584f           addq.w 0x4, a7
        0x005238ea      101f           move.b (a7)+, d0
        0x005238ec      4880           ext.w d0
        0x005238ee      b042           cmp.w d2, d0
    < 0x005238f0      6264           bhi.b 0x523956
       0x005238f2      d040           add.w d0, d0
       0x005238f4      303b0006       move.w 0x5238fc(pc, d0.w), d0
       0x005238f8      4efb0002       jmp 0x5238fc(pc, d0.w)
        0x005238fc      002a005a003c   ori.b 0x5a, 0x3c(a2)
        0x00523902      004e005a       
        0x00523903      4e005a00       
        0x00523904      005a0030       ori.w 0x30, (a2)+
        0x00523908      005a0042       ori.w 0x42, (a2)+
        0x0052390c      0054005a       ori.w 0x5a, (a4)
        0x00523910      001c005a       ori.b 0x5a, (a4)+
        0x00523914  ~   003600483f3c.  ori.b 0x48, 0x104eba(a6, d3.l * 8)
       ; CODE XREFS from BRUSHCOM.set_sten_stamp @ 0x523a00, 0x523a08
 > 0x0052391c      4ebaba44       jsr BRUSHCOM.b_setup_control(pc)
    0x00523920      544f           addq.w 0x2, a7
 < 0x00523922      600000ee       bra.w 0x523a12
     0x00523926      3f3c0011       move.w 0x11, -(a7)
  < 0x0052392a      60f0           bra.b 0x52391c              ; BRUSHCOM.set_sten_stamp+0x76
     0x0052392c      3f3c0012       move.w 0x12, -(a7)
  < 0x00523930      60ea           bra.b 0x52391c              ; BRUSHCOM.set_sten_stamp+0x76
     0x00523932      3f3c001c       move.w 0x1c, -(a7)
  < 0x00523936      60e4           bra.b 0x52391c              ; BRUSHCOM.set_sten_stamp+0x76
     0x00523938      3f3c001d       move.w 0x1d, -(a7)
  < 0x0052393c      60de           bra.b 0x52391c              ; BRUSHCOM.set_sten_stamp+0x76
     0x0052393e      3f3c001e       move.w 0x1e, -(a7)
  < 0x00523942      60d8           bra.b 0x52391c              ; BRUSHCOM.set_sten_stamp+0x76
     0x00523944      3f3c0016       move.w 0x16, -(a7)
  < 0x00523948      60d2           bra.b 0x52391c              ; BRUSHCOM.set_sten_stamp+0x76
     0x0052394a      3f3c0017       move.w 0x17, -(a7)
  < 0x0052394e      60cc           bra.b 0x52391c              ; BRUSHCOM.set_sten_stamp+0x76
     0x00523950      3f3c0018       move.w 0x18, -(a7)
  < 0x00523954      60c6           bra.b 0x52391c              ; BRUSHCOM.set_sten_stamp+0x76
    ; CODE XREF from BRUSHCOM.set_sten_stamp @ 0x5239e0
 > 0x00523956      600000b4       bra.w 0x523a0c
  < 0x0052395a      600000b6       bra.w 0x523a12              ; BRUSHCOM.set_sten_stamp+0x16c
 > 0x0052395e      554f           subq.w 0x2, a7
     0x00523960      1f10           move.b (a0), -(a7)
     0x00523962      1f11           move.b (a1), -(a7)
     0x00523964      4ebac81e       jsr BRUSHCOM.store_and_plane(pc)
     0x00523968      584f           addq.w 0x4, a7
     0x0052396a      101f           move.b (a7)+, d0
     0x0052396c      4880           ext.w d0
     0x0052396e      b042           cmp.w d2, d0
 < 0x00523970      626e           bhi.b 0x5239e0
    0x00523972      d040           add.w d0, d0
    0x00523974      303b0006       move.w 0x52397c(pc, d0.w), d0
    0x00523978      4efb0002       jmp 0x52397c(pc, d0.w)
     0x0052397c      00240064       ori.b 0x64, -(a4)
     0x00523980      003c0054       ori.b 0x54, ccr
     0x00523984      0064002c       ori.w 0x2c, -(a4)
     0x00523988      00640044       ori.w 0x44, -(a4)
     0x0052398c      005c0064       ori.w 0x64, (a4)+
     0x00523990      001c0064       ori.b 0x64, (a4)+
     0x00523994      0034004c3f3c.  ori.b 0x4c, 0x136000(a4, d3.l * 8)
     0x0052399e      ff7e           invalid
     0x005239a0      3f3c0014       move.w 0x14, -(a7)
  < 0x005239a4      6000ff76       bra.w 0x52391c              ; BRUSHCOM.set_sten_stamp+0x76
     0x005239a8      3f3c0015       move.w 0x15, -(a7)
  < 0x005239ac      6000ff6e       bra.w 0x52391c              ; BRUSHCOM.set_sten_stamp+0x76
     0x005239b0      3f3c001f       move.w 0x1f, -(a7)
  < 0x005239b4      6000ff66       bra.w 0x52391c              ; BRUSHCOM.set_sten_stamp+0x76
     0x005239b8      3f3c0020       move.w 0x20, -(a7)
  < 0x005239bc      6000ff5e       bra.w 0x52391c              ; BRUSHCOM.set_sten_stamp+0x76
     0x005239c0      3f3c0021       move.w 0x21, -(a7)
  < 0x005239c4      6000ff56       bra.w 0x52391c              ; BRUSHCOM.set_sten_stamp+0x76
     0x005239c8      3f3c0019       move.w 0x19, -(a7)
  < 0x005239cc      6000ff4e       bra.w 0x52391c              ; BRUSHCOM.set_sten_stamp+0x76
     0x005239d0      3f3c001a       move.w 0x1a, -(a7)
  < 0x005239d4      6000ff46       bra.w 0x52391c              ; BRUSHCOM.set_sten_stamp+0x76
     0x005239d8      3f3c001b       move.w 0x1b, -(a7)
  < 0x005239dc      6000ff3e       bra.w 0x52391c              ; BRUSHCOM.set_sten_stamp+0x76
 > 0x005239e0      6000ff74       bra.w 0x523956
   > 0x005239e4      4a11           tst.b (a1)
   < 0x005239e6      6624           bne.b 0x523a0c
      0x005239e8      102e0010       move.b 0x10(a6), d0
      0x005239ec      b001           cmp.b d1, d0
  < 0x005239ee      661c           bne.b 0x523a0c
     0x005239f0      1010           move.b (a0), d0
     0x005239f2      b001           cmp.b d1, d0
 < 0x005239f4      6616           bne.b 0x523a0c
    0x005239f6      4a2e000a       tst.b 0xa(a6)
 < 0x005239fa      6708           beq.b 0x523a04
    0x005239fc      3f3c002a       move.w 0x2a, -(a7)
 < 0x00523a00      6000ff1a       bra.w 0x52391c
 > 0x00523a04      3f3c0029       move.w 0x29, -(a7)
  < 0x00523a08      6000ff12       bra.w 0x52391c
      ; CODE XREFS from BRUSHCOM.set_sten_stamp @ 0x5238d0, 0x523956
 > 0x00523a0c      284e           movea.l a6, a4
          0x00523a0e      4ebafdda       jsr 0x5237ea(pc)
          ; CODE XREF from BRUSHCOM.set_sten_stamp @ 0x523922
 > 0x00523a12      4cdf1307       movem.l (a7)+, d0-d2/a0-a1/a4
           0x00523a16      4e5e           unlk a6
           0x00523a18      4e75           rts
            ; CALL XREFS from BRUSHCOM.set_stamp_mode @ 0x523b10, 0x523bf2
            0x00523a1a      4e560000       link.w a6, 0x0
            0x00523a1e      48e7c080       movem.l d0-d1/a0, -(a7)
            0x00523a22      41f9004047ea   lea.l p_wts_o, a0
            0x00523a28      720c           moveq 0xc, d1
            0x00523a2a      9efc0052       suba.w 0x52, a7
            0x00523a2e      1f2c0010       move.b 0x10(a4), -(a7)
            0x00523a32      4eb90044e562   jsr SYSTEM_STRING.store_str
            0x00523a38      9efc00fe       suba.w 0xfe, a7
            0x00523a3c      1f2c000e       move.b 0xe(a4), -(a7)
            0x00523a40      4eb90044e658   jsr SYSTEM_STRING.plane_str
            0x00523a46      544f           addq.w 0x2, a7
            0x00523a48      487ab5c3       pea.l 0x51f00d(pc)
            0x00523a4c      48780021       pea.l 0x21
            0x00523a50      2f17           move.l (a7), -(a7)
            0x00523a52      4e90           jsr (a0)                    ; fcn.00000009
            0x00523a54      dec1           adda.w d1, a7
            0x00523a56      486f0101       pea.l 0x101(a7)
            0x00523a5a      42a7           clr.l -(a7)
            0x00523a5c      1f6f01080003   move.b 0x108(a7), 0x3(a7)
            0x00523a62      2f17           move.l (a7), -(a7)
            0x00523a64      4e90           jsr (a0)                    ; fcn.00000009
            0x00523a66      dec1           adda.w d1, a7
            0x00523a68      486f0001       pea.l 0x1(a7)
            0x00523a6c      42a7           clr.l -(a7)
            0x00523a6e      1f6f00080003   move.b 0x8(a7), 0x3(a7)
            0x00523a74      2f17           move.l (a7), -(a7)
            0x00523a76      4e90           jsr (a0)                    ; fcn.00000009
            0x00523a78      defc015e       adda.w 0x15e, a7
            0x00523a7c      4a2c000c       tst.b 0xc(a4)
        < 0x00523a80      670e           beq.b 0x523a90
           0x00523a82      487ab5ab       pea.l 0x51f02f(pc)
           0x00523a86      48780007       pea.l 0x7
           0x00523a8a      2f17           move.l (a7), -(a7)
           0x00523a8c      4e90           jsr (a0)                    ; fcn.00000009
           0x00523a8e      dec1           adda.w d1, a7
        > 0x00523a90      102c0008       move.b 0x8(a4), d0
            0x00523a94      0c000001       cmpi.b 0x1, d0
        < 0x00523a98      660e           bne.b 0x523aa8
           0x00523a9a      487ab59b       pea.l 0x51f037(pc)
           0x00523a9e      48780006       pea.l 0x6
           0x00523aa2      2f17           move.l (a7), -(a7)
           0x00523aa4      4e90           jsr (a0)                    ; fcn.00000009
           0x00523aa6      dec1           adda.w d1, a7
        > 0x00523aa8      4eb900404946   jsr p_wtln_o
            0x00523aae      4cdf0103       movem.l (a7)+, d0-d1/a0
            0x00523ab2      4e5e           unlk a6
            0x00523ab4      4e75           rts
            ; XREFS: CALL 0x004af5b4  CALL 0x004afc0e  CALL 0x00525890  
            ; XREFS: CALL 0x005258de  CALL 0x00525a72  CALL 0x00636afe  
            ; XREFS: CALL 0x0063787c  CALL 0x00658b36  CALL 0x007331e0  
            ; XREFS: CALL 0x0074a344  
 204: BRUSHCOM.set_stamp_mode ();
           0x00523ab6      4e560000       link.w a6, 0x0
           0x00523aba      48e7f8c8       movem.l d0-d4/a0-a1/a4, -(a7)
           0x00523abe      41ee0010       lea.l 0x10(a6), a0
           0x00523ac2      43ee000e       lea.l 0xe(a6), a1
           0x00523ac6      7201           moveq 0x1, d1
           0x00523ac8      7402           moveq 0x2, d2
           0x00523aca      760e           moveq 0xe, d3
           0x00523acc      7805           moveq 0x5, d4
           0x00523ace      4227           clr.b -(a7)
           0x00523ad0      4a2e000a       tst.b 0xa(a6)
       < 0x00523ad4      6602           bne.b 0x523ad8
          0x00523ad6      5217           addq.b 0x1, (a7)
       > 0x00523ad8      4eb90040452a   jsr p_Assert
           0x00523ade      544f           addq.w 0x2, a7
           0x00523ae0      4ebab7b6       jsr BRUSHCOM.brush_wait(pc)
           0x00523ae4      102e0008       move.b 0x8(a6), d0
           0x00523ae8      b001           cmp.b d1, d0
       < 0x00523aea      660000d0       bne.w 0x523bbc
          0x00523aee      4a2e000c       tst.b 0xc(a6)
      < 0x00523af2      6724           beq.b 0x523b18
         0x00523af4      1010           move.b (a0), d0
         0x00523af6      b002           cmp.b d2, d0
     < 0x00523af8      6614           bne.b 0x523b0e
        0x00523afa      1011           move.b (a1), d0
        0x00523afc      b001           cmp.b d1, d0
    < 0x00523afe      660e           bne.b 0x523b0e
       0x00523b00      3f3c00d9       move.w 0xd9, -(a7)
 > 0x00523b04      4ebab85c       jsr BRUSHCOM.b_setup_control(pc)
    0x00523b08      544f           addq.w 0x2, a7
 < 0x00523b0a      600000f0       bra.w 0x523bfc
    ; CODE XREFS from BRUSHCOM.set_stamp_mode @ 0x523bb6, 0x523bc2
 > 0x00523b0e      284e           movea.l a6, a4
      0x00523b10      4ebaff08       jsr 0x523a1a(pc)
  < 0x00523b14      600000e6       bra.w 0x523bfc
  > 0x00523b18      554f           subq.w 0x2, a7
      0x00523b1a      1f10           move.b (a0), -(a7)
      0x00523b1c      1f11           move.b (a1), -(a7)
      0x00523b1e      4ebac664       jsr BRUSHCOM.store_and_plane(pc)
      0x00523b22      584f           addq.w 0x4, a7
      0x00523b24      101f           move.b (a7)+, d0
      0x00523b26      4880           ext.w d0
      0x00523b28      b043           cmp.w d3, d0
  < 0x00523b2a      6200008a       bhi.w 0x523bb6
     0x00523b2e      d040           add.w d0, d0
     0x00523b30      303b0006       move.w 0x523b38(pc, d0.w), d0
     0x00523b34      4efb0002       jmp 0x523b38(pc, d0.w)
      0x00523b38      00220032       ori.b 0x32, -(a2)
      0x00523b3c      0058006e       ori.w 0x6e, (a0)+
      0x00523b40      00420026       ori.w 0x26, d2
      0x00523b44      0036005e0076   ori.b 0x5e, 0x76(a6, d0.w)
      0x00523b4a      0048001e       
      0x00523b4b      4800           nbcd.b d0
      0x00523b4d      1e00           move.b d0, d7
      0x00523b4f      2c00           move.l d0, d6
      0x00523b51      5000           addq.b 0x8, d0
  < 0x00523b53      66003c3f       bne.w 0x527794
     0x00523b57      0160           bchg.b d0, -(a0)
     0x00523b59      aa3f           invalid
     0x00523b5b      0260a63f       andi.w 0xa63f, -(a0)
     0x00523b5f      3c00           move.w d0, d6
     0x00523b61      0360           bchg.b d1, -(a0)
     0x00523b63      a03f           invalid
     0x00523b65      3c00           move.w d0, d6
     0x00523b67      04609a3f       subi.w 0x9a3f, -(a0)
     0x00523b6b      0460963f       subi.w 0x963f, -(a0)
     0x00523b6f      3c00           move.w d0, d6
     0x00523b71      0660903f       addi.w 0x903f, -(a0)
     0x00523b75      3c00           move.w d0, d6
     0x00523b77      0760           bchg.b d3, -(a0)
     0x00523b79      8a3f3c00       
     0x00523b7a      3f3c0008       move.w 0x8, -(a7)
  < 0x00523b7e      6084           bra.b 0x523b04              ; BRUSHCOM.set_stamp_mode+0x4e
     0x00523b80      3f3c0009       move.w 0x9, -(a7)
  < 0x00523b84      6000ff7e       bra.w 0x523b04              ; BRUSHCOM.set_stamp_mode+0x4e
     0x00523b88      3f3c000d       move.w 0xd, -(a7)
  < 0x00523b8c      6000ff76       bra.w 0x523b04              ; BRUSHCOM.set_stamp_mode+0x4e
     0x00523b90      3f03           move.w d3, -(a7)
  < 0x00523b92      6000ff70       bra.w 0x523b04              ; BRUSHCOM.set_stamp_mode+0x4e
     0x00523b96      3f3c000f       move.w 0xf, -(a7)
  < 0x00523b9a      6000ff68       bra.w 0x523b04              ; BRUSHCOM.set_stamp_mode+0x4e
     0x00523b9e      3f3c000a       move.w 0xa, -(a7)
  < 0x00523ba2      6000ff60       bra.w 0x523b04              ; BRUSHCOM.set_stamp_mode+0x4e
      0x00523ba6      3f3c000b       move.w 0xb, -(a7)
   < 0x00523baa      6000ff58       bra.w 0x523b04              ; BRUSHCOM.set_stamp_mode+0x4e
       0x00523bae      3f3c000c       move.w 0xc, -(a7)
    < 0x00523bb2      6000ff50       bra.w 0x523b04              ; BRUSHCOM.set_stamp_mode+0x4e
 > 0x00523bb6      6000ff56       bra.w 0x523b0e
     < 0x00523bba      6040           bra.b 0x523bfc              ; BRUSHCOM.set_stamp_mode+0x146
    > 0x00523bbc      4a2e000c       tst.b 0xc(a6)
    < 0x00523bc0      6704           beq.b 0x523bc6
 < 0x00523bc2      6000ff4a       bra.w 0x523b0e
    > 0x00523bc6      554f           subq.w 0x2, a7
        0x00523bc8      1f10           move.b (a0), -(a7)
        0x00523bca      1f11           move.b (a1), -(a7)
        0x00523bcc      4ebac5b6       jsr BRUSHCOM.store_and_plane(pc)
        0x00523bd0      584f           addq.w 0x4, a7
        0x00523bd2      4a17           tst.b (a7)
    < 0x00523bd4      6708           beq.b 0x523bde
       0x00523bd6      1017           move.b (a7), d0
       0x00523bd8      b004           cmp.b d4, d0
   < 0x00523bda      670e           beq.b 0x523bea
  < 0x00523bdc      6012           bra.b 0x523bf0
  > 0x00523bde      3f3c0027       move.w 0x27, -(a7)
      ; CODE XREF from BRUSHCOM.set_stamp_mode @ 0x523bee
  > 0x00523be2      4ebab77e       jsr BRUSHCOM.b_setup_control(pc)
     0x00523be6      584f           addq.w 0x4, a7
 < 0x00523be8      6012           bra.b 0x523bfc
 > 0x00523bea      3f3c0028       move.w 0x28, -(a7)
  < 0x00523bee      60f2           bra.b 0x523be2
      ; CODE XREF from BRUSHCOM.set_stamp_mode @ 0x523bdc
 > 0x00523bf0      284e           movea.l a6, a4
       0x00523bf2      4ebafe26       jsr 0x523a1a(pc)
       0x00523bf6      544f           addq.w 0x2, a7
   < 0x00523bf8      6002           bra.b 0x523bfc
       0x00523bfa      544f           addq.w 0x2, a7
      ; CODE XREFS from BRUSHCOM.set_stamp_mode @ 0x523b0a, 0x523b14, 0x523be8, 0x523bf8
 > 0x00523bfc      4cdf131f       movem.l (a7)+, d0-d4/a0-a1/a4
          0x00523c00      4e5e           unlk a6
          0x00523c02      4e75           rts
           ; CALL XREF from CONFIGCOM.hardware_incomp @ 0x479e2c
           ; CALL XREF from BRUSHCOM.b_set_matte_col @ 0x5241e6
           ; CALL XREFS from BRUSHCOM.b_init @ 0x5244b4, 0x524730
 58: BRUSHCOM.b_4m_main_store ();
          0x00523c04      4e560000       link.w a6, 0x0
          0x00523c08      48e7c080       movem.l d0-d1/a0, -(a7)
          0x00523c0c      422e0008       clr.b 0x8(a6)
          0x00523c10      3039fff8401e   move.w 0xfff8401e, d0
          0x00523c16      02400007       andi.w 0x7, d0
          0x00523c1a      41fab422       lea.l 0x51f03e(pc), a0
          0x00523c1e      3200           move.w d0, d1
          0x00523c20      e649           lsr.w 0x3, d1
          0x00523c22      0c410020       cmpi.w 0x20, d1
      < 0x00523c26      6d04           blt.b 0x523c2c
         0x00523c28      7200           moveq 0x0, d1
     < 0x00523c2a      6004           bra.b 0x523c30
     > 0x00523c2c      01301000       btst.l d0, (a0, d1.w)
         ; CODE XREF from BRUSHCOM.b_4m_main_store @ 0x523c2a
     < 0x00523c30      6704           beq.b 0x523c36
         0x00523c32      522e0008       addq.b 0x1, 0x8(a6)
      > 0x00523c36      4cdf0103       movem.l (a7)+, d0-d1/a0
          0x00523c3a      4e5e           unlk a6
          0x00523c3c      4e75           rts
           ; CALL XREF from MENUPASTECOM.men_pasteup_box @ 0x4b54ac
           ; CALL XREF from MENUPOS2DCOM.menupos2d_init @ 0x4bc0fc
           ; CALL XREF from BRUSHCOM.b_init @ 0x52471c
           ; CALL XREF from MENUTYPECOM.menutype_init @ 0x76c18c
 40: BRUSHCOM.b_16_4m_main_st ();
          0x00523c3e      4e560000       link.w a6, 0x0
          0x00523c42      48e78000       movem.l d0, -(a7)
          0x00523c46      422e0008       clr.b 0x8(a6)
          0x00523c4a      3039fff8401e   move.w 0xfff8401e, d0
          0x00523c50      02400007       andi.w 0x7, d0
          0x00523c54      0c400003       cmpi.w 0x3, d0
      < 0x00523c58      6604           bne.b 0x523c5e
         0x00523c5a      522e0008       addq.b 0x1, 0x8(a6)
      > 0x00523c5e      4cdf0001       movem.l (a7)+, d0
          0x00523c62      4e5e           unlk a6
          0x00523c64      4e75           rts
           ; XREFS: CALL 0x00479e48  CALL 0x004b5564  CALL 0x005241c2  
           ; XREFS: CALL 0x005243d4  CALL 0x0052475e  CALL 0x00632fe8  
           ; XREFS: CALL 0x00678510  
 58: BRUSHCOM.b_4m_disk_store ();
          0x00523c66      4e56fffe       link.w a6, 0xfffe
          0x00523c6a      48e7c080       movem.l d0-d1/a0, -(a7)
          0x00523c6e      422e0008       clr.b 0x8(a6)
          0x00523c72      3039fff8001e   move.w 0xfff8001e, d0
          0x00523c78      02400007       andi.w 0x7, d0
          0x00523c7c      41fab3e0       lea.l 0x51f05e(pc), a0
          0x00523c80      3200           move.w d0, d1
          0x00523c82      e649           lsr.w 0x3, d1
          0x00523c84      0c410020       cmpi.w 0x20, d1
      < 0x00523c88      6d04           blt.b 0x523c8e
         0x00523c8a      7200           moveq 0x0, d1
     < 0x00523c8c      6004           bra.b 0x523c92
     > 0x00523c8e      01301000       btst.l d0, (a0, d1.w)
         ; CODE XREF from BRUSHCOM.b_4m_disk_store @ 0x523c8c
     < 0x00523c92      6704           beq.b 0x523c98
         0x00523c94      522e0008       addq.b 0x1, 0x8(a6)
      > 0x00523c98      4cdf0103       movem.l (a7)+, d0-d1/a0
          0x00523c9c      4e5e           unlk a6
          0x00523c9e      4e75           rts
           ; XREFS: CALL 0x00479ec8  CALL 0x0047a22e  CALL 0x0051f406  
           ; XREFS: CALL 0x0052474e  CALL 0x00524858  CALL 0x0052a67c  
           ; XREFS: CALL 0x0052a6e0  CALL 0x00632fd8  CALL 0x0073a542  
 58: BRUSHCOM.b_8m_disk_store ();
          0x00523ca0      4e560000       link.w a6, 0x0
          0x00523ca4      48e7c080       movem.l d0-d1/a0, -(a7)
          0x00523ca8      422e0008       clr.b 0x8(a6)
          0x00523cac      3039fff8001e   move.w 0xfff8001e, d0
          0x00523cb2      02400007       andi.w 0x7, d0
          0x00523cb6      41fab3c6       lea.l 0x51f07e(pc), a0
          0x00523cba      3200           move.w d0, d1
          0x00523cbc      e649           lsr.w 0x3, d1
          0x00523cbe      0c410020       cmpi.w 0x20, d1
      < 0x00523cc2      6d04           blt.b 0x523cc8
         0x00523cc4      7200           moveq 0x0, d1
     < 0x00523cc6      6004           bra.b 0x523ccc
     > 0x00523cc8      01301000       btst.l d0, (a0, d1.w)
         ; CODE XREF from BRUSHCOM.b_8m_disk_store @ 0x523cc6
     < 0x00523ccc      6704           beq.b 0x523cd2
         0x00523cce      522e0008       addq.b 0x1, 0x8(a6)
      > 0x00523cd2      4cdf0103       movem.l (a7)+, d0-d1/a0
          0x00523cd6      4e5e           unlk a6
          0x00523cd8      4e75           rts
           ; XREFS(43)
 22: BRUSHCOM.open_block ();
          0x00523cda      4e560000       link.w a6, 0x0
          0x00523cde      4eb900523d14   jsr BRUSHCOM.open_bus
          0x00523ce4      13fc00010083.  move.b 0x1, 0x83e79a.l
          0x00523cec      4e5e           unlk a6
          0x00523cee      4e75           rts
           ; XREFS(42)
 20: BRUSHCOM.close_block ();
          0x00523cf0      4e560000       link.w a6, 0x0
          0x00523cf4      42390083e79a   clr.b 0x83e79a
          0x00523cfa      4eb900523d52   jsr BRUSHCOM.close_bus
          0x00523d00      4e5e           unlk a6
          0x00523d02      4e75           rts
 16: BRUSHCOM.block_open ();
          0x00523d04      4e560000       link.w a6, 0x0
          0x00523d08      1d790083e79a.  move.b 0x83e79a, 0x8(a6)
          0x00523d10      4e5e           unlk a6
          0x00523d12      4e75           rts
           ; XREFS(23)
 62: BRUSHCOM.open_bus ();
          0x00523d14      4e560000       link.w a6, 0x0
          0x00523d18      4227           clr.b -(a7)
          0x00523d1a      4eb900404400   jsr p_Logging
          0x00523d20      544f           addq.w 0x2, a7
          0x00523d22      4a390083e79a   tst.b 0x83e79a
      < 0x00523d28      6618           bne.b 0x523d42
         0x00523d2a      48790083fbac   pea.l 0x83fbac
         0x00523d30      4eb9004023c4   jsr p_Wait
         0x00523d36      584f           addq.w 0x4, a7
         0x00523d38      23f90083e7a0.  move.l 0x83e7a0, 0x83e7a8.l
      > 0x00523d42      1f3c0001       move.b 0x1, -(a7)
          0x00523d46      4eb900404400   jsr p_Logging
          0x00523d4c      544f           addq.w 0x2, a7
          0x00523d4e      4e5e           unlk a6
          0x00523d50      4e75           rts
           ; XREFS(22)
 62: BRUSHCOM.close_bus ();
          0x00523d52      4e560000       link.w a6, 0x0
          0x00523d56      4227           clr.b -(a7)
          0x00523d58      4eb900404400   jsr p_Logging
          0x00523d5e      544f           addq.w 0x2, a7
          0x00523d60      4a390083e79a   tst.b 0x83e79a
      < 0x00523d66      6618           bne.b 0x523d80
         0x00523d68      23f90083e7a8.  move.l 0x83e7a8, 0x83e7a0.l
         0x00523d72      48790083fbac   pea.l 0x83fbac
         0x00523d78      4eb90040234e   jsr p_Signal
         0x00523d7e      584f           addq.w 0x4, a7
      > 0x00523d80      1f3c0001       move.b 0x1, -(a7)
          0x00523d84      4eb900404400   jsr p_Logging
          0x00523d8a      544f           addq.w 0x2, a7
          0x00523d8c      4e5e           unlk a6
          0x00523d8e      4e75           rts
           ; XREFS(24)
 140: BRUSHCOM.data_bus ();
          0x00523d90      4e560000       link.w a6, 0x0
          0x00523d94      48e780e0       movem.l d0/a0-a2, -(a7)
          0x00523d98      45f90083e7a8   lea.l 0x83e7a8, a2
          0x00523d9e      700c           moveq 0xc, d0
          0x00523da0      2052           movea.l (a2), a0
          0x00523da2      2050           movea.l (a0), a0
          0x00523da4      b1f90083e7a0   cmpa.l 0x83e7a0, a0
      < 0x00523daa      6622           bne.b 0x523dce
         0x00523dac      487ab2f1       pea.l 0x51f09f(pc)
         0x00523db0      48780013       pea.l 0x13
         0x00523db4      2f17           move.l (a7), -(a7)
         0x00523db6      4eb9004047ea   jsr p_wts_o
         0x00523dbc      dec0           adda.w d0, a7
         0x00523dbe      4eb900404946   jsr p_wtln_o
         0x00523dc4      4227           clr.b -(a7)
         0x00523dc6      4eb90040452a   jsr p_Assert
         0x00523dcc      544f           addq.w 0x2, a7
         ; CODE XREF from BRUSHCOM.data_bus @ 0x523dfe
     > 0x00523dce      2052           movea.l (a2), a0
         0x00523dd0      2050           movea.l (a0), a0
         0x00523dd2      b1f90083e7a4   cmpa.l 0x83e7a4, a0
     < 0x00523dd8      6626           bne.b 0x523e00
        0x00523dda      487ab2d7       pea.l 0x51f0b3(pc)
        0x00523dde      4878000d       pea.l 0xd
        0x00523de2      2f17           move.l (a7), -(a7)
        0x00523de4      4eb9004047ea   jsr p_wts_o
        0x00523dea      dec0           adda.w d0, a7
        0x00523dec      4eb900404946   jsr p_wtln_o
        0x00523df2      48780001       pea.l 0x1
        0x00523df6      4eb900402e42   jsr p_Delay
        0x00523dfc      584f           addq.w 0x4, a7
     < 0x00523dfe      60ce           bra.b 0x523dce
      > 0x00523e00      2052           movea.l (a2), a0
          0x00523e02      226e000a       movea.l 0xa(a6), a1
          0x00523e06      2f09           move.l a1, -(a7)
          0x00523e08      215f0004       move.l (a7)+, 0x4(a0)
          0x00523e0c      316e00080008   move.w 0x8(a6), 0x8(a0)
          0x00523e12      2490           move.l (a0), (a2)
          0x00523e14      4cdf0701       movem.l (a7)+, d0/a0-a2
          0x00523e18      4e5e           unlk a6
          0x00523e1a      4e75           rts
           ; CALL XREF from PANEL_OUTPUT.fade @ 0x793364
 16: BRUSHCOM.set_panel_fade ();
          0x00523e1c      4e560000       link.w a6, 0x0
          0x00523e20      13ee00080083.  move.b 0x8(a6), 0x83e792.l
          0x00523e28      4e5e           unlk a6
          0x00523e2a      4e75           rts
           ; CALL XREFS from MENUFPUTILSCOM.menu_verify @ 0x4f9fd6, 0x4f9fee
           ; CALL XREF from BRUSHCOM.bus_init @ 0x524126
 16: BRUSHCOM.control_cursor_ ();
          0x00523e2c      4e560000       link.w a6, 0x0
          0x00523e30      13ee00080083.  move.b 0x8(a6), 0x83e793.l
          0x00523e38      4e5e           unlk a6
          0x00523e3a      4e75           rts
           ; CALL XREF from BRUSHCOM.bus_init @ 0x52411e
           ; CALL XREF from K96_LIB2OPS.save_sized_tile @ 0x664c90
           ; CALL XREFS from K96_LIB2OPS.k96_save_sized_ @ 0x1442, 0x665ab6, 0x665bea
 8: BRUSHCOM.set_thermometer ();
          0x00523e3c      4e560000       link.w a6, 0x0
          0x00523e40      4e5e           unlk a6
          0x00523e42      4e75           rts
 324: BRUSHCOM.field_interrupt ();
          0x00523e44      4e56fffe       link.w a6, 0xfffe
          0x00523e48      48e7e1f8       movem.l d0-d2/d7/a0-a4, -(a7)
          0x00523e4c      45f90083e72a   lea.l 0x83e72a, a2
          0x00523e52      47f90083e7a4   lea.l 0x83e7a4, a3
          0x00523e58      49f90083e794   lea.l 0x83e794, a4
          0x00523e5e      7401           moveq 0x1, d2
          0x00523e60      554f           subq.w 0x2, a7
          0x00523e62      4eb900464046   jsr S7_ZEBEDEE.s7_int_timer
          0x00523e68      389f           move.w (a7)+, (a4)
          0x00523e6a      4a390083e790   tst.b 0x83e790
      < 0x00523e70      670c           beq.b 0x523e7e
         0x00523e72      554f           subq.w 0x2, a7
         0x00523e74      4eb900717bac   jsr MENUJOCKCOM.e_gord_field_in
         0x00523e7a      1e1f           move.b (a7)+, d7
     < 0x00523e7c      6002           bra.b 0x523e80
     > 0x00523e7e      7e01           moveq 0x1, d7
         ; CODE XREF from BRUSHCOM.field_interrupt @ 0x523e7c
     > 0x00523e80      4a52           tst.w (a2)
      < 0x00523e82      6c26           bge.b 0x523eaa
         0x00523e84      4a07           tst.b d7
     < 0x00523e86      6752           beq.b 0x523eda
        0x00523e88      3012           move.w (a2), d0
        0x00523e8a      48c0           ext.l d0
        0x00523e8c      4480           neg.l d0
        0x00523e8e      3480           move.w d0, (a2)
        0x00523e90      b042           cmp.w d2, d0
    < 0x00523e92      660e           bne.b 0x523ea2
       0x00523e94      4279fff94020   clr.w 0xfff94020
       0x00523e9a      33fc0007fff9.  move.w 0x7, 0xfff94060.l
    > 0x00523ea2      4279fff80000   clr.w 0xfff80000
    < 0x00523ea8      6030           bra.b 0x523eda
    > 0x00523eaa      4a52           tst.w (a2)
    < 0x00523eac      6f2c           ble.b 0x523eda
       0x00523eae      3012           move.w (a2), d0
       0x00523eb0      0c400002       cmpi.w 0x2, d0
   < 0x00523eb4      6e24           bgt.b 0x523eda
      0x00523eb6      48c0           ext.l d0
      0x00523eb8      2200           move.l d0, d1
      0x00523eba      5381           subq.l 0x1, d1
      0x00523ebc      3481           move.w d1, (a2)
      0x00523ebe      4a41           tst.w d1
  < 0x00523ec0      6618           bne.b 0x523eda
     0x00523ec2      4279fff84002   clr.w 0xfff84002
     0x00523ec8      4279fff84004   clr.w 0xfff84004
     0x00523ece      4279fff80002   clr.w 0xfff80002
     0x00523ed4      4279fff80004   clr.w 0xfff80004
     ; CODE XREF from BRUSHCOM.field_interrupt @ 0x523ea8
  > 0x00523eda      48780000       pea.l 0x0
          ; CODE XREF from BRUSHCOM.field_interrupt @ 0x523f10
      > 0x00523ede      20790083e7a0   movea.l 0x83e7a0, a0
         0x00523ee4      b1d3           cmpa.l (a3), a0
     < 0x00523ee6      6604           bne.b 0x523eec
        0x00523ee8      584f           addq.w 0x4, a7
    < 0x00523eea      6026           bra.b 0x523f12
    > 0x00523eec      2053           movea.l (a3), a0
        0x00523eee      22680004       movea.l 0x4(a0), a1
        0x00523ef2      b3d7           cmpa.l (a7), a1
    < 0x00523ef4      6614           bne.b 0x523f0a
       0x00523ef6      2690           move.l (a0), (a3)
       0x00523ef8      4a79fff9400e   tst.w 0xfff9400e
   > 0x00523efe      3039fff20000   move.w 0xfff20000, d0
      0x00523f04      c042           and.w d2, d0
   < 0x00523f06      67f6           beq.b 0x523efe
   < 0x00523f08      6006           bra.b 0x523f10
   > 0x00523f0a      32a80008       move.w 0x8(a0), (a1)
       0x00523f0e      2690           move.l (a0), (a3)
       ; CODE XREF from BRUSHCOM.field_interrupt @ 0x523f08
   < 0x00523f10      60cc           bra.b 0x523ede
         ; CODE XREF from BRUSHCOM.field_interrupt @ 0x523eea
    > 0x00523f12      4a390083e792   tst.b 0x83e792
      < 0x00523f18      670e           beq.b 0x523f28
         0x00523f1a      554f           subq.w 0x2, a7
         0x00523f1c      4eb90079301c   jsr PANEL_OUTPUT.field_fade
         0x00523f22      13df0083e792   move.b (a7)+, 0x83e792
      > 0x00523f28      4a390083e793   tst.b 0x83e793
      < 0x00523f2e      670a           beq.b 0x523f3a
         0x00523f30      4227           clr.b -(a7)
         0x00523f32      4eb9004535be   jsr c1_Field_interrupt
         0x00523f38      544f           addq.w 0x2, a7
      > 0x00523f3a      4a390083e791   tst.b 0x83e791
      < 0x00523f40      6706           beq.b 0x523f48
         0x00523f42      23c2fff9a8fc   move.l d2, 0xfff9a8fc
      > 0x00523f48      554f           subq.w 0x2, a7
          0x00523f4a      4eb900464046   jsr S7_ZEBEDEE.s7_int_timer
          0x00523f50      3014           move.w (a4), d0
          0x00523f52      02800000ffff   andi.l 0xffff, d0
          0x00523f58      4281           clr.l d1
          0x00523f5a      321f           move.w (a7)+, d1
          0x00523f5c      4481           neg.l d1
          0x00523f5e      d280           add.l d0, d1
          0x00523f60      33c10083e796   move.w d1, 0x83e796
          0x00523f66      b2790083e798   cmp.w 0x83e798, d1
      < 0x00523f6c      6306           bls.b 0x523f74
         0x00523f6e      33c10083e798   move.w d1, 0x83e798
      > 0x00523f74      48780001       pea.l 0x1
          0x00523f78      4eb900402ca6   jsr p_More_Ticks
          0x00523f7e      584f           addq.w 0x4, a7
          0x00523f80      4cdf1f87       movem.l (a7)+, d0-d2/d7/a0-a4
          0x00523f84      4e5e           unlk a6
          0x00523f86      4e75           rts
 242: BRUSHCOM.show_field_int ();
          0x00523f88      4e560000       link.w a6, 0x0
          0x00523f8c      48e7f8f0       movem.l d0-d4/a0-a3, -(a7)
          0x00523f90      41f9004047ea   lea.l p_wts_o, a0
          0x00523f96      43f900406b50   lea.l fcn.00406b50, a1
          0x00523f9c      45f80002       lea.l 0x2, a2
          0x00523fa0      47f9004070e4   lea.l p_wti_o, a3
          0x00523fa6      223c0000ffff   move.l 0xffff, d1
          0x00523fac      740c           moveq 0xc, d2
          ; CODE XREF from BRUSHCOM.show_field_int @ 0x524068
      > 0x00523fae      554f           subq.w 0x2, a7
         0x00523fb0      4eb90043fcc0   jsr G3_COMMAND.g_flagged
         0x00523fb6      4a1f           tst.b (a7)+
     < 0x00523fb8      660000b2       bne.w 0x52406c
        0x00523fbc      30390083e794   move.w 0x83e794, d0
        0x00523fc2      c081           and.l d1, d0
        0x00523fc4      4480           neg.l d0
        0x00523fc6      d081           add.l d1, d0
        0x00523fc8      e780           asl.l 0x3, d0
        0x00523fca      2800           move.l d0, d4
        0x00523fcc      760a           moveq 0xa, d3
        0x00523fce      4e91           jsr (a1)                    ; fcn.0000000a
        0x00523fd0      2f04           move.l d4, -(a7)
        0x00523fd2      30390083e796   move.w 0x83e796, d0
        0x00523fd8      c081           and.l d1, d0
        0x00523fda      e780           asl.l 0x3, d0
        0x00523fdc      2800           move.l d0, d4
        0x00523fde      760a           moveq 0xa, d3
        0x00523fe0      4e91           jsr (a1)                    ; fcn.0000000a
        0x00523fe2      2f04           move.l d4, -(a7)
        0x00523fe4      30390083e798   move.w 0x83e798, d0
        0x00523fea      c081           and.l d1, d0
        0x00523fec      e780           asl.l 0x3, d0
        0x00523fee      2800           move.l d0, d4
        0x00523ff0      760a           moveq 0xa, d3
        0x00523ff2      4e91           jsr (a1)                    ; fcn.0000000a
        0x00523ff4      1f3c000d       move.b 0xd, -(a7)
        0x00523ff8      48780001       pea.l 0x1
        0x00523ffc      4eb9004048b4   jsr p_wtc_o
        0x00524002      5c4f           addq.w 0x6, a7
        0x00524004      487ab0d1       pea.l 0x51f0d7(pc)
        0x00524008      48780004       pea.l 0x4
        0x0052400c      2f17           move.l (a7), -(a7)
        0x0052400e      4e90           jsr (a0)                    ; fcn.00000009
        0x00524010      dec2           adda.w d2, a7
        0x00524012      202f0004       move.l 0x4(a7), d0
        0x00524016      2f00           move.l d0, -(a7)
        0x00524018      4852           pea.l (a2)
        0x0052401a      4e93           jsr (a3)                    ; fcn.0000000c
        0x0052401c      504f           addq.w 0x8, a7
        0x0052401e      487ab0bc       pea.l 0x51f0dc(pc)
        0x00524022      48780006       pea.l 0x6
        0x00524026      2f17           move.l (a7), -(a7)
        0x00524028      4e90           jsr (a0)                    ; fcn.00000009
        0x0052402a      dec2           adda.w d2, a7
        0x0052402c      2017           move.l (a7), d0
        0x0052402e      2f00           move.l d0, -(a7)
        0x00524030      4852           pea.l (a2)
        0x00524032      4e93           jsr (a3)                    ; fcn.0000000c
        0x00524034      504f           addq.w 0x8, a7
        0x00524036      487ab0ab       pea.l 0x51f0e3(pc)
        0x0052403a      48780005       pea.l 0x5
        0x0052403e      2f17           move.l (a7), -(a7)
        0x00524040      4e90           jsr (a0)                    ; fcn.00000009
        0x00524042      504f           addq.w 0x8, a7
        0x00524044      2e84           move.l d4, (a7)
        0x00524046      4852           pea.l (a2)
        0x00524048      4e93           jsr (a3)                    ; fcn.0000000c
        0x0052404a      defc0010       adda.w 0x10, a7
        0x0052404e      487ab099       pea.l 0x51f0e9(pc)
        0x00524052      48780008       pea.l 0x8
        0x00524056      2f17           move.l (a7), -(a7)
        0x00524058      4e90           jsr (a0)                    ; fcn.00000009
        0x0052405a      dec2           adda.w d2, a7
        0x0052405c      486d0010       pea.l 0x10(a5)
        0x00524060      4eb90040497e   jsr p_break
        0x00524066      584f           addq.w 0x4, a7
     < 0x00524068      6000ff44       bra.w 0x523fae
     > 0x0052406c      4eb900404946   jsr p_wtln_o
          0x00524072      4cdf0f1f       movem.l (a7)+, d0-d4/a0-a3
          0x00524076      4e5e           unlk a6
          0x00524078      4e75           rts
           ; CALL XREF from MAVIS_PAINT.startup_report @ 0x6d273a
           ; CALL XREF from MAVIS_PAINT.cleanup_system @ 0x6d288a
           ; CALL XREF from MAVIS_PAINT.mavis_dpb_mainp @ 0x6d2e3c
 288: BRUSHCOM.bus_init ();
          0x0052407a      4e56fffa       link.w a6, 0xfffa
          0x0052407e      48e7e1f0       movem.l d0-d2/d7/a0-a3, -(a7)
          0x00524082      45f90083e790   lea.l 0x83e790, a2
          0x00524088      47f90083e7ac   lea.l 0x83e7ac, a3
          0x0052408e      7201           moveq 0x1, d1
          0x00524090      741e           moveq 0x1e, d2
          0x00524092      42390083e792   clr.b 0x83e792
          0x00524098      554f           subq.w 0x2, a7
          0x0052409a      4eb900475a5a   jsr CONFIG.cfg_dougal
          0x005240a0      13df0083e791   move.b (a7)+, 0x83e791
          0x005240a6      4212           clr.b (a2)
          0x005240a8      554f           subq.w 0x2, a7
          0x005240aa      4eb9004755c2   jsr CONFIG.cfg_gender
          0x005240b0      101f           move.b (a7)+, d0
          0x005240b2      0c00000b       cmpi.b 0xb, d0
      < 0x005240b6      6602           bne.b 0x5240ba
         0x005240b8      5212           addq.b 0x1, (a2)
      > 0x005240ba      7e00           moveq 0x0, d7
      > 0x005240bc      700a           moveq 0xa, d0
         0x005240be      c1c7           muls.w d7, d0
         0x005240c0      41f90083e726   lea.l 0x83e726, a0
         0x005240c6      41f00800       lea.l (a0, d0.l), a0
         0x005240ca      43e80090       lea.l 0x90(a0), a1
         0x005240ce      21490086       move.l a1, 0x86(a0)
         0x005240d2      5247           addq.w 0x1, d7
         0x005240d4      0c4701fe       cmpi.w 0x1fe, d7
      < 0x005240d8      6fe2           ble.b 0x5240bc
          0x005240da      204b           movea.l a3, a0
          0x005240dc      23c80083fba2   move.l a0, 0x83fba2
          0x005240e2      204b           movea.l a3, a0
          0x005240e4      23c80083e79c   move.l a0, 0x83e79c
          0x005240ea      23c80083e7a0   move.l a0, 0x83e7a0
          0x005240f0      23c80083e7a4   move.l a0, 0x83e7a4
          0x005240f6      23c80083e7a8   move.l a0, 0x83e7a8
          0x005240fc      42390083e79a   clr.b 0x83e79a
          0x00524102      4a2e0008       tst.b 0x8(a6)
      < 0x00524106      6712           beq.b 0x52411a
         0x00524108      48790083fbac   pea.l 0x83fbac
         0x0052410e      3f01           move.w d1, -(a7)
         0x00524110      3f01           move.w d1, -(a7)
         0x00524112      4eb900402b88   jsr p_New_Semaphore
         0x00524118      504f           addq.w 0x8, a7
      > 0x0052411a      48780000       pea.l 0x0
          0x0052411e      4ebafd1c       jsr BRUSHCOM.set_thermometer(pc)
          0x00524122      544f           addq.w 0x2, a7
          0x00524124      1e81           move.b d1, (a7)
          0x00524126      4ebafd04       jsr BRUSHCOM.control_cursor_(pc)
          0x0052412a      3e82           move.w d2, (a7)
          0x0052412c      486d0010       pea.l 0x10(a5)
          0x00524130      487afd12       pea.l BRUSHCOM.field_interrupt(pc)
          0x00524134      48780800       pea.l 0x800
          0x00524138      48780000       pea.l 0x0
          0x0052413c      4eb90040350e   jsr p_Set_interrupt
          0x00524142      defc0010       adda.w 0x10, a7
          0x00524146      3e82           move.w d2, (a7)
          0x00524148      4227           clr.b -(a7)
          0x0052414a      4eb9004036f4   jsr p_Int_logging
          0x00524150      584f           addq.w 0x4, a7
          0x00524152      42790083e794   clr.w 0x83e794
          0x00524158      42790083e796   clr.w 0x83e796
          0x0052415e      42790083e798   clr.w 0x83e798
          0x00524164      9efc0016       suba.w 0x16, a7
          0x00524168      204f           movea.l a7, a0
          0x0052416a      43faaf85       lea.l 0x51f0f1(pc), a1
          0x0052416e      7008           moveq 0x8, d0
      > 0x00524170      10d9           move.b (a1)+, (a0)+
      < 0x00524172      51c8fffc       dbra d0, 0x524170
          0x00524176      1f01           move.b d1, -(a7)
          0x00524178      48780001       pea.l 0x1
          0x0052417c      486efffa       pea.l -0x6(a6)
          0x00524180      487afe06       pea.l BRUSHCOM.show_field_int(pc)
          0x00524184      4eb90043b79c   jsr G0_MAIN.g_new_command
          0x0052418a      defc0020       adda.w 0x20, a7
          0x0052418e      2d5ffffc       move.l (a7)+, -0x4(a6)
          0x00524192      4cdf0f87       movem.l (a7)+, d0-d2/d7/a0-a3
          0x00524196      4e5e           unlk a6
          0x00524198      4e75           rts
           ; CALL XREFS from PANEL_VIDEO.set_crop_matte @ 0x794bb8, 0x794bd6
 322: BRUSHCOM.b_set_matte_col (int32_t arg_8h);
          ; arg int32_t arg_8h @ a6+0x8
          0x0052419a      4e56ffd6       link.w a6, 0xffd6
          0x0052419e      48e7fdf8       movem.l d0-d5/d7/a0-a4, -(a7)
          0x005241a2      43eeffd6       lea.l -0x2a(a6), a1
          0x005241a6      45ee0016       lea.l 0x16(a6), a2
          0x005241aa      47eeffd8       lea.l -0x28(a6), a3
          0x005241ae      49eeffda       lea.l -0x26(a6), a4
          0x005241b2      7601           moveq 0x1, d3
          0x005241b4      283c0000ffff   move.l 0xffff, d4
          0x005241ba      7a08           moveq 0x8, d5
          0x005241bc      4a12           tst.b (a2)
      < 0x005241be      6624           bne.b 0x5241e4
         0x005241c0      554f           subq.w 0x2, a7
         0x005241c2      4ebafaa2       jsr BRUSHCOM.b_4m_disk_store(pc)
         0x005241c6      4a1f           tst.b (a7)+
     < 0x005241c8      670a           beq.b 0x5241d4
        0x005241ca      32baaf3a       move.w 0x51f106(pc), (a1)
        0x005241ce      36baaf38       move.w 0x51f108(pc), (a3)
    < 0x005241d2      6008           bra.b 0x5241dc
    > 0x005241d4      32baaf2c       move.w 0x51f102(pc), (a1)
        0x005241d8      36baaf2a       move.w 0x51f104(pc), (a3)
        ; CODE XREF from BRUSHCOM.b_set_matte_col @ 0x5241d2
    > 0x005241dc      4279fff8005e   clr.w 0xfff8005e
     < 0x005241e2      6024           bra.b 0x524208
     > 0x005241e4      554f           subq.w 0x2, a7
         0x005241e6      4ebafa1c       jsr BRUSHCOM.b_4m_main_store(pc)
         0x005241ea      4a1f           tst.b (a7)+
     < 0x005241ec      670a           beq.b 0x5241f8
        0x005241ee      32baaf16       move.w 0x51f106(pc), (a1)
        0x005241f2      36baaf14       move.w 0x51f108(pc), (a3)
    < 0x005241f6      6008           bra.b 0x524200
    > 0x005241f8      32baaf08       move.w 0x51f102(pc), (a1)
        0x005241fc      36baaf06       move.w 0x51f104(pc), (a3)
        ; CODE XREF from BRUSHCOM.b_set_matte_col @ 0x5241f6
    > 0x00524200      33fc00c0fff8.  move.w 0xc0, 0xfff840de.l
         ; CODE XREF from BRUSHCOM.b_set_matte_col @ 0x5241e2
     > 0x00524208      3885           move.w d5, (a4)
          0x0052420a      3d43ffdc       move.w d3, -0x24(a6)
          0x0052420e      7e00           moveq 0x0, d7
      > 0x00524210      ce84           and.l d4, d7
         0x00524212      2007           move.l d7, d0
         0x00524214      e380           asl.l 0x1, d0
         0x00524216      3dae000808f0   move.w 0x8(a6), -0x10(a6, d0.l)
         0x0052421c      5247           addq.w 0x1, d7
         0x0052421e      0c470007       cmpi.w 0x7, d7
      < 0x00524222      63ec           bls.b 0x524210
          0x00524224      7e00           moveq 0x0, d7
          0x00524226      302e0012       move.w 0x12(a6), d0
          0x0052422a      48c0           ext.l d0
          0x0052422c      e180           asl.l 0x8, d0
          0x0052422e      322e0010       move.w 0x10(a6), d1
          0x00524232      48c1           ext.l d1
          0x00524234      d081           add.l d1, d0
          0x00524236      342e0014       move.w 0x14(a6), d2
          0x0052423a      48c2           ext.l d2
          0x0052423c      e182           asl.l 0x8, d2
          0x0052423e      d282           add.l d2, d1
          ; CODE XREF from BRUSHCOM.b_set_matte_col @ 0x52425e
      > 0x00524240      0c470004       cmpi.w 0x4, d7
     < 0x00524244      641a           bcc.b 0x524260
        0x00524246      ce84           and.l d4, d7
        0x00524248      2407           move.l d7, d2
        0x0052424a      e382           asl.l 0x1, d2
        0x0052424c      3d8028e0       move.w d0, -0x20(a6, d2.l)
        0x00524250      5287           addq.l 0x1, d7
        0x00524252      ce84           and.l d4, d7
        0x00524254      2407           move.l d7, d2
        0x00524256      e382           asl.l 0x1, d2
        0x00524258      3d8128e0       move.w d1, -0x20(a6, d2.l)
        0x0052425c      5287           addq.l 0x1, d7
     < 0x0052425e      60e0           bra.b 0x524240
     > 0x00524260      302e000c       move.w 0xc(a6), d0
          0x00524264      48c0           ext.l d0
          0x00524266      e180           asl.l 0x8, d0
          0x00524268      322e000a       move.w 0xa(a6), d1
          0x0052426c      48c1           ext.l d1
          0x0052426e      d081           add.l d1, d0
          0x00524270      342e000e       move.w 0xe(a6), d2
          0x00524274      48c2           ext.l d2
          0x00524276      e182           asl.l 0x8, d2
          0x00524278      d282           add.l d2, d1
          ; CODE XREF from BRUSHCOM.b_set_matte_col @ 0x524296
      > 0x0052427a      be45           cmp.w d5, d7
     < 0x0052427c      641a           bcc.b 0x524298
        0x0052427e      ce84           and.l d4, d7
        0x00524280      2407           move.l d7, d2
        0x00524282      e382           asl.l 0x1, d2
        0x00524284      3d8028e0       move.w d0, -0x20(a6, d2.l)
        0x00524288      5287           addq.l 0x1, d7
        0x0052428a      ce84           and.l d4, d7
        0x0052428c      2407           move.l d7, d2
        0x0052428e      e382           asl.l 0x1, d2
        0x00524290      3d8128e0       move.w d1, -0x20(a6, d2.l)
        0x00524294      5287           addq.l 0x1, d7
     < 0x00524296      60e2           bra.b 0x52427a
     > 0x00524298      1f03           move.b d3, -(a7)
          0x0052429a      1f12           move.b (a2), -(a7)
          0x0052429c      4227           clr.b -(a7)
          0x0052429e      2f14           move.l (a4), -(a7)
          0x005242a0      2f11           move.l (a1), -(a7)
          0x005242a2      41eeffe0       lea.l -0x20(a6), a0
          0x005242a6      2f08           move.l a0, -(a7)
          0x005242a8      4ebad6ca       jsr BRUSHCOM.br_computer_tra(pc)
          0x005242ac      defc0010       adda.w 0x10, a7
          0x005242b0      1e83           move.b d3, (a7)
          0x005242b2      1f12           move.b (a2), -(a7)
          0x005242b4      1f03           move.b d3, -(a7)
          0x005242b6      2f14           move.l (a4), -(a7)
          0x005242b8      2f11           move.l (a1), -(a7)
          0x005242ba      41eefff0       lea.l -0x10(a6), a0
          0x005242be      2f08           move.l a0, -(a7)
          0x005242c0      4ebad6b2       jsr BRUSHCOM.br_computer_tra(pc)
          0x005242c4      defc0012       adda.w 0x12, a7
          0x005242c8      4a12           tst.b (a2)
      < 0x005242ca      6708           beq.b 0x5242d4
         0x005242cc      33fc00d0fff8.  move.w 0xd0, 0xfff840de.l
      > 0x005242d4      4cdf1fbf       movem.l (a7)+, d0-d5/d7/a0-a4
          0x005242d8      4e5e           unlk a6
          0x005242da      4e75           rts
           ; CALL XREF from BRUSHCOM.b_init @ 0x52477a
 184: BRUSHCOM.init_video_out_ ();
          0x005242dc      4e56fff2       link.w a6, 0xfff2
          0x005242e0      48e7fcf8       movem.l d0-d5/a0-a4, -(a7)
          0x005242e4      45fa9cc0       lea.l 0x51dfa6(pc), a2
          0x005242e8      47fa9cba       lea.l 0x51dfa4(pc), a3
          0x005242ec      49fafeac       lea.l BRUSHCOM.b_set_matte_col(pc), a4
          0x005242f0      7402           moveq 0x2, d2
          0x005242f2      760e           moveq 0xe, d3
          0x005242f4      7803           moveq 0x3, d4
          0x005242f6      7a10           moveq 0x10, d5
          0x005242f8      9efc0100       suba.w 0x100, a7
          0x005242fc      4eb9006d2400   jsr MAVIS_PAINT.get_vstring
          0x00524302      4240           clr.w d0
          0x00524304      1017           move.b (a7), d0
          0x00524306      0c00000c       cmpi.b 0xc, d0
      < 0x0052430a      6302           bls.b 0x52430e
         0x0052430c      700c           moveq 0xc, d0
      > 0x0052430e      1d40fff2       move.b d0, -0xe(a6)
          0x00524312      5300           subq.b 0x1, d0
      < 0x00524314      650e           bcs.b 0x524324
         0x00524316      41eefff3       lea.l -0xd(a6), a0
         0x0052431a      43ef0001       lea.l 0x1(a7), a1
     > 0x0052431e      10d9           move.b (a1)+, (a0)+
     < 0x00524320      51c8fffc       dbra d0, 0x52431e
      > 0x00524324      defc0100       adda.w 0x100, a7
          0x00524328      4280           clr.l d0
          0x0052432a      102efff3       move.b -0xd(a6), d0
          0x0052432e      41faadf2       lea.l 0x51f122(pc), a0
          0x00524332      3200           move.w d0, d1
          0x00524334      e649           lsr.w 0x3, d1
          0x00524336      01301000       btst.l d0, (a0, d1.w)
      < 0x0052433a      6718           beq.b 0x524354
         0x0052433c      1f02           move.b d2, -(a7)
         0x0052433e      2f12           move.l (a2), -(a7)
         0x00524340      3f13           move.w (a3), -(a7)
         0x00524342      2f12           move.l (a2), -(a7)
         0x00524344      3f13           move.w (a3), -(a7)
         0x00524346      4267           clr.w -(a7)
         0x00524348      4e94           jsr (a4)                    ; fcn.0000000d
         0x0052434a      dec3           adda.w d3, a7
         0x0052434c      1e84           move.b d4, (a7)
         0x0052434e      2f12           move.l (a2), -(a7)
         0x00524350      3f13           move.w (a3), -(a7)
     < 0x00524352      601e           bra.b 0x524372
     > 0x00524354      1f02           move.b d2, -(a7)
         0x00524356      2f12           move.l (a2), -(a7)
         0x00524358      3f13           move.w (a3), -(a7)
         0x0052435a      2f3a9c5c       move.l 0x51dfb8(pc), -(a7)
         0x0052435e      3f3a9c56       move.w 0x51dfb6(pc), -(a7)
         0x00524362      4267           clr.w -(a7)
         0x00524364      4e94           jsr (a4)                    ; fcn.0000000d
         0x00524366      dec3           adda.w d3, a7
         0x00524368      1e84           move.b d4, (a7)
         0x0052436a      2f3a9c58       move.l 0x51dfc4(pc), -(a7)
         0x0052436e      3f3a9c52       move.w 0x51dfc2(pc), -(a7)
         ; CODE XREF from BRUSHCOM.init_video_out_ @ 0x524352
     > 0x00524372      2f12           move.l (a2), -(a7)
          0x00524374      3f13           move.w (a3), -(a7)
          0x00524376      4267           clr.w -(a7)
          0x00524378      4e94           jsr (a4)                    ; fcn.0000000d
          0x0052437a      dec5           adda.w d5, a7
          0x0052437c      4227           clr.b -(a7)
          0x0052437e      2f12           move.l (a2), -(a7)
          0x00524380      3f13           move.w (a3), -(a7)
          0x00524382      2f12           move.l (a2), -(a7)
          0x00524384      3f13           move.w (a3), -(a7)
          0x00524386      4267           clr.w -(a7)
          0x00524388      4e94           jsr (a4)                    ; fcn.0000000d
          0x0052438a      dec5           adda.w d5, a7
          0x0052438c      4cdf1f3f       movem.l (a7)+, d0-d5/a0-a4
          0x00524390      4e5e           unlk a6
          0x00524392      4e75           rts
           ; CALL XREF from BRUSHCOM.brush_init @ 0x52484e
           ; CALL XREF from MENUPANELCOM.reinit_mainprog @ 0x728b7e
           ; CALL XREF from PANEL_VIDEO.setup_video @ 0x798e34
 922: BRUSHCOM.b_init ();
          ; var int32_t var_53c0h @ a6-0x53c0
          ; var int32_t var_53beh @ a6-0x53be
          ; var int32_t var_53a8h @ a6-0x53a8
          ; var int32_t var_53a6h @ a6-0x53a6
          0x00524394      4e56ffea       link.w a6, 0xffea
          0x00524398      48e7fff8       movem.l d0-d7/a0-a4, -(a7)
          0x0052439c      43fa9d2c       lea.l 0x51e0ca(pc), a1
          0x005243a0      45eefff8       lea.l -0x8(a6), a2
          0x005243a4      47eefffc       lea.l -0x4(a6), a3
          0x005243a8      49f9004047ea   lea.l p_wts_o, a4
          0x005243ae      740c           moveq 0xc, d2
          0x005243b0      363c0100       move.w 0x100, d3
          0x005243b4      7815           moveq 0x15, d4
          0x005243b6      7a02           moveq 0x2, d5
          0x005243b8      7c01           moveq 0x1, d6
          0x005243ba      42390083e789   clr.b 0x83e789
          0x005243c0      102e0008       move.b 0x8(a6), d0
          0x005243c4      4880           ext.w d0
          0x005243c6      e340           asl.w 0x1, d0
          0x005243c8      2049           movea.l a1, a0
          0x005243ca      4a300000       tst.b (a0, d0.w)
      < 0x005243ce      670000ba       beq.w 0x52448a
         0x005243d2      554f           subq.w 0x2, a7
         0x005243d4      4ebaf890       jsr BRUSHCOM.b_4m_disk_store(pc)
         0x005243d8      4a1f           tst.b (a7)+
     < 0x005243da      672a           beq.b 0x524406
        0x005243dc      7e02           moveq 0x2, d7
        0x005243de      24baad3a       move.l 0x51f11a(pc), (a2)
        0x005243e2      26baad3a       move.l 0x51f11e(pc), (a3)
        0x005243e6      2049           movea.l a1, a0
        0x005243e8      12300000       move.b (a0, d0.w), d1
        0x005243ec      b205           cmp.b d5, d1
    < 0x005243ee      6740           beq.b 0x524430
       0x005243f0      487aadeb       pea.l 0x51f1dd(pc)
       0x005243f4      4878002b       pea.l 0x2b
       0x005243f8      2f17           move.l (a7), -(a7)
       0x005243fa      4e94           jsr (a4)                    ; fcn.0000000d
       0x005243fc      dec2           adda.w d2, a7
       0x005243fe      4eb900404946   jsr p_wtln_o
   < 0x00524404      602a           bra.b 0x524430
   > 0x00524406      2049           movea.l a1, a0
       0x00524408      12300000       move.b (a0, d0.w), d1
       0x0052440c      b206           cmp.b d6, d1
   < 0x0052440e      660c           bne.b 0x52441c
      0x00524410      7e00           moveq 0x0, d7
      0x00524412      24baacf6       move.l 0x51f10a(pc), (a2)
      0x00524416      26baacf6       move.l 0x51f10e(pc), (a3)
  < 0x0052441a      6014           bra.b 0x524430
  > 0x0052441c      2049           movea.l a1, a0
      0x0052441e      12300000       move.b (a0, d0.w), d1
      0x00524422      b205           cmp.b d5, d1
  < 0x00524424      660a           bne.b 0x524430
     0x00524426      7e01           moveq 0x1, d7
     0x00524428      24baace8       move.l 0x51f112(pc), (a2)
     0x0052442c      26baace8       move.l 0x51f116(pc), (a3)
     ; CODE XREFS from BRUSHCOM.b_init @ 0x524404, 0x52441a
  > 0x00524430      4279fff80002   clr.w 0xfff80002
         0x00524436      4279fff80010   clr.w 0xfff80010
         0x0052443c      4279fff8007e   clr.w 0xfff8007e
         0x00524442      33c7fff80042   move.w d7, 0xfff80042
         0x00524448      33fc0003fff8.  move.w 0x3, 0xfff8006e.l
         0x00524450      33d2fff80064   move.w (a2), 0xfff80064
         0x00524456      33eefffafff8.  move.w -0x6(a6), 0xfff80068.l
         0x0052445e      3213           move.w (a3), d1
         0x00524460      48c1           ext.l d1
         0x00524462      5381           subq.l 0x1, d1
         0x00524464      33c1fff80066   move.w d1, 0xfff80066
         0x0052446a      322efffe       move.w -0x2(a6), d1
         0x0052446e      48c1           ext.l d1
         0x00524470      5381           subq.l 0x1, d1
         0x00524472      33c1fff8006a   move.w d1, 0xfff8006a
         0x00524478      33c3fff80048   move.w d3, 0xfff80048
         0x0052447e      33c3fff8004a   move.w d3, 0xfff8004a
         0x00524484      4279fff8005e   clr.w 0xfff8005e
      > 0x0052448a      2049           movea.l a1, a0
          0x0052448c      4a300001       tst.b 0x1(a0, d0.w)
      < 0x00524490      670000b6       beq.w 0x524548
         0x00524494      2049           movea.l a1, a0
         0x00524496      12300001       move.b 0x1(a0, d0.w), d1
         0x0052449a      b205           cmp.b d5, d1
     < 0x0052449c      6714           beq.b 0x5244b2
        0x0052449e      487aad69       pea.l 0x51f209(pc)
        0x005244a2      4878002b       pea.l 0x2b
        0x005244a6      2f17           move.l (a7), -(a7)
        0x005244a8      4e94           jsr (a4)                    ; fcn.0000000d
        0x005244aa      dec2           adda.w d2, a7
        0x005244ac      4eb900404946   jsr p_wtln_o
     > 0x005244b2      554f           subq.w 0x2, a7
         0x005244b4      4ebaf74e       jsr BRUSHCOM.b_4m_main_store(pc)
         0x005244b8      4a1f           tst.b (a7)+
     < 0x005244ba      6710           beq.b 0x5244cc
        0x005244bc      7e02           moveq 0x2, d7
        0x005244be      2d7aac5afff0   move.l 0x51f11a(pc), -0x10(a6)
        0x005244c4      2d7aac58fff4   move.l 0x51f11e(pc), -0xc(a6)
    < 0x005244ca      600e           bra.b 0x5244da
    > 0x005244cc      7e01           moveq 0x1, d7
        0x005244ce      2d7aac42fff0   move.l 0x51f112(pc), -0x10(a6)
        0x005244d4      2d7aac40fff4   move.l 0x51f116(pc), -0xc(a6)
        ; CODE XREF from BRUSHCOM.b_init @ 0x5244ca
    > 0x005244da      42790083e78a   clr.w 0x83e78a
         0x005244e0      33f90083e78a.  move.w 0x83e78a, 0xfff84018.l
         0x005244ea      4279fff84002   clr.w 0xfff84002
         0x005244f0      33c4fff84006   move.w d4, 0xfff84006
         0x005244f6      33c4fff84006   move.w d4, 0xfff84006
         0x005244fc      33c4fff84006   move.w d4, 0xfff84006
         0x00524502      33c4fff84006   move.w d4, 0xfff84006
         0x00524508      4279fff840fe   clr.w 0xfff840fe
         0x0052450e      33c7fff840c2   move.w d7, 0xfff840c2
         0x00524514      33eefff0fff8.  move.w -0x10(a6), 0xfff840e4.l
         0x0052451c      33eefff2fff8.  move.w -0xe(a6), 0xfff840e8.l
         0x00524524      322efff4       move.w -0xc(a6), d1
         0x00524528      48c1           ext.l d1
         0x0052452a      5381           subq.l 0x1, d1
         0x0052452c      33c1fff840e6   move.w d1, 0xfff840e6
         0x00524532      322efff6       move.w -0xa(a6), d1
         0x00524536      48c1           ext.l d1
         0x00524538      5381           subq.l 0x1, d1
         0x0052453a      33c1fff840ea   move.w d1, 0xfff840ea
         0x00524540      33fc00d0fff8.  move.w 0xd0, 0xfff840de.l
      > 0x00524548      554f           subq.w 0x2, a7
          0x0052454a      486effeb       pea.l -0x15(a6)
          0x0052454e      4eb900475c00   jsr CONFIG.cfg_size_x4
          0x00524554      584f           addq.w 0x4, a7
          0x00524556      1e1f           move.b (a7)+, d7
      < 0x00524558      67000084       beq.w 0x5245de
         0x0052455c      4279fff8a07e   clr.w 0xfff8a07e
         0x00524562      554f           subq.w 0x2, a7
         0x00524564      4eb900478be0   jsr CONFIGCOM.cfg_vo_type
         0x0052456a      101f           move.b (a7)+, d0
         0x0052456c      0c000006       cmpi.b 0x6, d0
     < 0x00524570      660a           bne.b 0x52457c
        0x00524572      33fc0070fff8.  move.w 0x70, 0xfff8a042.l
    < 0x0052457a      6006           bra.b 0x524582
    > 0x0052457c      33c6fff8a042   move.w d6, 0xfff8a042
        ; CODE XREF from BRUSHCOM.b_init @ 0x52457a
    > 0x00524582      4279fff8a064   clr.w 0xfff8a064
         0x00524588      4279fff8a068   clr.w 0xfff8a068
         0x0052458e      33fc052ffff8.  move.w 0x52f, 0xfff8a066.l
         0x00524596      33fc040ffff8.  move.w 0x40f, 0xfff8a06a.l
         0x0052459e      4279fff8a054   clr.w 0xfff8a054
         0x005245a4      4279fff8a058   clr.w 0xfff8a058
         0x005245aa      33fc052ffff8.  move.w 0x52f, 0xfff8a056.l
         0x005245b2      33fc040ffff8.  move.w 0x40f, 0xfff8a05a.l
         0x005245ba      33c3fff8a048   move.w d3, 0xfff8a048
         0x005245c0      33fc0080fff8.  move.w 0x80, 0xfff8a04a.l
         0x005245c8      4279fff8a046   clr.w 0xfff8a046
         0x005245ce      33fc0028fff8.  move.w 0x28, 0xfff8a060.l
         0x005245d6      33fc0010fff8.  move.w 0x10, 0xfff8a05e.l
      > 0x005245de      4a07           tst.b d7
      < 0x005245e0      67000138       beq.w 0x52471a
         0x005245e4      102effeb       move.b -0x15(a6), d0
         0x005245e8      0c000003       cmpi.b 0x3, d0
     < 0x005245ec      6700012c       beq.w 0x52471a
        0x005245f0      4279fff8c07e   clr.w 0xfff8c07e
        0x005245f6      33fc0070fff8.  move.w 0x70, 0xfff8c042.l
        0x005245fe      4279fff8c064   clr.w 0xfff8c064
        0x00524604      4279fff8c068   clr.w 0xfff8c068
        0x0052460a      33fc05a0fff8.  move.w 0x5a0, 0xfff8c066.l
        0x00524612      33fc0484fff8.  move.w 0x484, 0xfff8c06a.l
        0x0052461a      4279fff8c054   clr.w 0xfff8c054
        0x00524620      4279fff8c058   clr.w 0xfff8c058
        0x00524626      33fc05a0fff8.  move.w 0x5a0, 0xfff8c056.l
        0x0052462e      33fc0484fff8.  move.w 0x484, 0xfff8c05a.l
        0x00524636      4279fff8c074   clr.w 0xfff8c074
        0x0052463c      4279fff8c078   clr.w 0xfff8c078
        0x00524642      33fc05a0fff8.  move.w 0x5a0, 0xfff8c076.l
        0x0052464a      33fc0484fff8.  move.w 0x484, 0xfff8c07a.l
        0x00524652      33c3fff8c048   move.w d3, 0xfff8c048
        0x00524658      33c3fff8c04a   move.w d3, 0xfff8c04a
        0x0052465e      102effeb       move.b -0x15(a6), d0
        0x00524662      4880           ext.w d0
        0x00524664      3200           move.w d0, d1
        0x00524666      0c410004       cmpi.w 0x4, d1
    < 0x0052466a      6236           bhi.b 0x5246a2
       0x0052466c      d241           add.w d1, d1
       0x0052466e      323b1006       move.w 0x524676(pc, d1.w), d1
       0x00524672      4efb1002       jmp 0x524676(pc, d1.w)
        0x00524676      000a001c       
        0x00524677      0a001c00       eori.b 0x0, d0
        0x0052467b      2c00           move.l d0, d6
        0x0052467d      2c00           move.l d0, d6
        0x0052467f      0a33fc0a78ff   eori.b 0xa, -0x1(a3, d7.l)
        0x00524685      f8c04433fc0b   fbf.l 0x44864292
        0x0052468b      eefff8c0       
        0x0052468c      fff8           invalid
        0x0052468e      c046           and.w d6, d0
    < 0x00524690      6010           bra.b 0x5246a2              ; BRUSHCOM.b_init+0x30e
       0x00524692      33fc0a58fff8.  move.w 0xa58, 0xfff8c044.l
       0x0052469a      33fc0b7ffff8.  move.w 0xb7f, 0xfff8c046.l
   > 0x005246a2      4279fff8c04c   clr.w 0xfff8c04c
        0x005246a8      4279fff8c04e   clr.w 0xfff8c04e
        0x005246ae      33c6fff8c050   move.w d6, 0xfff8c050
        0x005246b4      4279fff8c052   clr.w 0xfff8c052
        0x005246ba      0c400004       cmpi.w 0x4, d0
    < 0x005246be      6236           bhi.b 0x5246f6
       0x005246c0      d040           add.w d0, d0
       0x005246c2      303b0006       move.w 0x5246ca(pc, d0.w), d0
       0x005246c6      4efb0002       jmp 0x5246ca(pc, d0.w)
        0x005246ca      000a001c       
        0x005246cb      0a001c00       eori.b 0x0, d0
        0x005246cf      2c00           move.l d0, d6
        0x005246d1      2c00           move.l d0, d6
        0x005246d3      0a33fc0a77ff.  eori.b 0xa, ([0xf8c06033])
        0x005246dd      fc0bf2ff       fmovem fp0-fp7, a3
        0x005246e1      f8c062601033   fbf.l 0x62b25716
        0x005246e7      fc0a57ff       add.d a2, fp7
        0x005246eb      f8c06033fc0b   fbf.l 0x608642f8
        0x005246f1      7ffff8c0       
        0x005246f2      fff8           invalid
        0x005246f4      c062           and.w -(a2), d0
    > 0x005246f6      4279fff8c05e   clr.w 0xfff8c05e
        0x005246fc      4279fff8c06e   clr.w 0xfff8c06e
        0x00524702      4279fff8c05c   clr.w 0xfff8c05c
        0x00524708      4279fff8c07c   clr.w 0xfff8c07c
        0x0052470e      4279fff8c06c   clr.w 0xfff8c06c
        0x00524714      4279fff8c080   clr.w 0xfff8c080
     > 0x0052471a      554f           subq.w 0x2, a7
          0x0052471c      4ebaf520       jsr BRUSHCOM.b_16_4m_main_st(pc)
          0x00524720      4a1f           tst.b (a7)+
      < 0x00524722      670a           beq.b 0x52472e
         0x00524724      487aab0f       pea.l 0x51f235(pc)
         0x00524728      4878001a       pea.l 0x1a
     < 0x0052472c      6012           bra.b 0x524740
     > 0x0052472e      554f           subq.w 0x2, a7
         0x00524730      4ebaf4d2       jsr BRUSHCOM.b_4m_main_store(pc)
         0x00524734      4a1f           tst.b (a7)+
     < 0x00524736      6714           beq.b 0x52474c
        0x00524738      487aab16       pea.l 0x51f250(pc)
        0x0052473c      48780017       pea.l 0x17
        ; CODE XREF from BRUSHCOM.b_init @ 0x52472c
     > 0x00524740      2f17           move.l (a7), -(a7)
         0x00524742      4e94           jsr (a4)                    ; fcn.0000000d
         0x00524744      dec2           adda.w d2, a7
         0x00524746      4eb900404946   jsr p_wtln_o
      > 0x0052474c      554f           subq.w 0x2, a7
          0x0052474e      4ebaf550       jsr BRUSHCOM.b_8m_disk_store(pc)
          0x00524752      4a1f           tst.b (a7)+
      < 0x00524754      6706           beq.b 0x52475c
         0x00524756      487aab10       pea.l 0x51f268(pc)
     < 0x0052475a      600e           bra.b 0x52476a
     > 0x0052475c      554f           subq.w 0x2, a7
         0x0052475e      4ebaf506       jsr BRUSHCOM.b_4m_disk_store(pc)
         0x00524762      4a1f           tst.b (a7)+
     < 0x00524764      6714           beq.b 0x52477a
        0x00524766      487aab18       pea.l 0x51f280(pc)
        ; CODE XREF from BRUSHCOM.b_init @ 0x52475a
     > 0x0052476a      48780017       pea.l 0x17
         0x0052476e      2f17           move.l (a7), -(a7)
         0x00524770      4e94           jsr (a4)                    ; fcn.0000000d
         0x00524772      dec2           adda.w d2, a7
         0x00524774      4eb900404946   jsr p_wtln_o
      > 0x0052477a      4ebafb60       jsr BRUSHCOM.init_video_out_(pc)
          0x0052477e      4cdf1fff       movem.l (a7)+, d0-d7/a0-a4
          0x00524782      4e5e           unlk a6
          0x00524784      4e75           rts
           ; CALL XREF from MAVIS_PAINT.startup_report @ 0x6d272a
           ; CALL XREF from MAVIS_PAINT.mavis_dpb_mainp @ 0x6d2e34
 154: BRUSHCOM.brush_pre_init ();
          0x00524786      4e56fffe       link.w a6, 0xfffe
          0x0052478a      48e78000       movem.l d0, -(a7)
          0x0052478e      42b90083e72c   clr.l 0x83e72c
          0x00524794      42790083e72a   clr.w 0x83e72a
          0x0052479a      594f           subq.w 0x4, a7
          0x0052479c      48780000       pea.l 0x0
          0x005247a0      486efffe       pea.l -0x2(a6)
          0x005247a4      4eb9006a7aa2   jsr TEXTMAV.get_char_data
          0x005247aa      504f           addq.w 0x8, a7
          0x005247ac      23d70083e74e   move.l (a7), 0x83e74e
          0x005247b2      5d4f           subq.w 0x6, a7
          0x005247b4      3f3c00ba       move.w 0xba, -(a7)
          0x005247b8      4ebaab7e       jsr BRUSHCOM.b_control_state(pc)
          0x005247bc      544f           addq.w 0x2, a7
          0x005247be      23df0083e752   move.l (a7)+, 0x83e752
          0x005247c4      23df0083e756   move.l (a7)+, 0x83e756
          0x005247ca      33d70083e75a   move.w (a7), 0x83e75a
          0x005247d0      514f           subq.w 0x8, a7
          0x005247d2      3f3c010b       move.w 0x10b, -(a7)
          0x005247d6      4ebaab60       jsr BRUSHCOM.b_control_state(pc)
          0x005247da      544f           addq.w 0x2, a7
          0x005247dc      23df0083e75c   move.l (a7)+, 0x83e75c
          0x005247e2      23df0083e760   move.l (a7)+, 0x83e760
          0x005247e8      33df0083e764   move.w (a7)+, 0x83e764
          0x005247ee      303a97b4       move.w 0x51dfa4(pc), d0
          0x005247f2      48c0           ext.l d0
          0x005247f4      e180           asl.l 0x8, d0
          0x005247f6      33c00083e766   move.w d0, 0x83e766
          0x005247fc      303a97a8       move.w 0x51dfa6(pc), d0
          0x00524800      48c0           ext.l d0
          0x00524802      e180           asl.l 0x8, d0
          0x00524804      33c00083e768   move.w d0, 0x83e768
          0x0052480a      303a979c       move.w 0x51dfa8(pc), d0
          0x0052480e      48c0           ext.l d0
          0x00524810      e180           asl.l 0x8, d0
          0x00524812      33c00083e76a   move.w d0, 0x83e76a
          0x00524818      4cdf0001       movem.l (a7)+, d0
          0x0052481c      4e5e           unlk a6
          0x0052481e      4e75           rts
           ; CALL XREF from MAVIS_PAINT.startup_report @ 0x6d2732
           ; CALL XREF from MAVIS_PAINT.cleanup_system @ 0x6d28a2
           ; CALL XREF from MAVIS_PAINT.mavis_dpb_mainp @ 0x6d2e4c
 86: BRUSHCOM.brush_init ();
          0x00524820      4e560000       link.w a6, 0x0
          0x00524824      48e78080       movem.l d0/a0, -(a7)
          0x00524828      41f90083e726   lea.l 0x83e726, a0
          0x0052482e      7001           moveq 0x1, d0
          0x00524830      48790083e77a   pea.l 0x83e77a
          0x00524836      3f00           move.w d0, -(a7)
          0x00524838      3f00           move.w d0, -(a7)
          0x0052483a      4eb900402b88   jsr p_New_Semaphore
          0x00524840      504f           addq.w 0x8, a7
          0x00524842      4a2e0008       tst.b 0x8(a6)
      < 0x00524846      6704           beq.b 0x52484c
         0x00524848      4227           clr.b -(a7)
     < 0x0052484a      6002           bra.b 0x52484e
     > 0x0052484c      1f00           move.b d0, -(a7)
         ; CODE XREF from BRUSHCOM.brush_init @ 0x52484a
     > 0x0052484e      4ebafb44       jsr BRUSHCOM.b_init(pc)
          0x00524852      544f           addq.w 0x2, a7
          0x00524854      4210           clr.b (a0)
          0x00524856      554f           subq.w 0x2, a7
          0x00524858      4ebaf446       jsr BRUSHCOM.b_8m_disk_store(pc)
          0x0052485c      4a1f           tst.b (a7)+
      < 0x0052485e      670e           beq.b 0x52486e
         0x00524860      554f           subq.w 0x2, a7
         0x00524862      4eb900478a3a   jsr CONFIGCOM.tvsys
         0x00524868      4a1f           tst.b (a7)+
     < 0x0052486a      6602           bne.b 0x52486e
        0x0052486c      5210           addq.b 0x1, (a0)
     > 0x0052486e      4cdf0101       movem.l (a7)+, d0/a0
          0x00524872      4e5e           unlk a6
