            ;-- BRUSH2COM:
            0x005262dc      .byte 0x00
            0x005262dd      .byte 0x88
            0x005262de      .byte 0x00
            0x005262df      .byte 0x46
            0x005262e0      .byte 0x00
            0x005262e1      .byte 0xd2
            0x005262e2      .byte 0x00
            0x005262e3      .byte 0x51
            0x005262e4      .byte 0x00
            0x005262e5      .byte 0x80
            0x005262e6      .byte 0x00
            0x005262e7      .byte 0x80
            0x005262e8      .byte 0x00
            0x005262e9      .byte 0x3c
            0x005262ea      .byte 0x00
            0x005262eb      .byte 0x80
            0x005262ec      .byte 0x00
            0x005262ed      .byte 0x80
            0x005262ee      .byte 0x00
            0x005262ef      .byte 0x32
            0x005262f0      .byte 0x00
            0x005262f1      .byte 0x80
            0x005262f2      .byte 0x00
            0x005262f3      .byte 0x80
            0x005262f4      .byte 0x00
            0x005262f5      .byte 0x10
            0x005262f6      .byte 0x00
            0x005262f7      .byte 0x80
            0x005262f8      .byte 0x00
            0x005262f9      .byte 0x80
            0x005262fa      .byte 0x00
            0x005262fb      .byte 0xa7
            0x005262fc      .byte 0x00
            0x005262fd      .byte 0x72
            0x005262fe      .byte 0x00
            0x005262ff      .byte 0x9e
            0x00526300      .byte 0x00
            0x00526301      .byte 0xbf
            0x00526302      .byte 0x00
            0x00526303      .byte 0x80
            0x00526304      .byte 0x00
            0x00526305      .byte 0x80
            0x00526306      .byte 0x00
            0x00526307      .byte 0xa0
            0x00526308      .byte 0x00
            0x00526309      .byte 0x96
            0x0052630a      .byte 0x00
            0x0052630b      .byte 0x74
            0x0052630c      .byte 0x00
            0x0052630d      .byte 0x23
            0x0052630e      .byte 0x00
            0x0052630f      .byte 0xf0
            0x00526310      .byte 0x00
            0x00526311      .byte 0x6e
            0x00526312      .byte 0x00
            0x00526313      .byte 0x8c
            0x00526314      .byte 0x00
            0x00526315      .byte 0x6e
            0x00526316      .byte 0x00
            0x00526317      .byte 0x6e
            0x00526318      .byte 0x00
            0x00526319      .byte 0xc4
            0x0052631a      .byte 0x00
            0x0052631b      .byte 0x31
            0x0052631c      .byte 0x00
            0x0052631d      .byte 0x8c
            0x0052631e      .byte 0x00
            0x0052631f      .byte 0xa8
            0x00526320      .byte 0x00
            0x00526321      .byte 0x28
            0x00526322      .byte 0x00
            0x00526323      .byte 0xb1
            0x00526324      .byte 0x00
            0x00526325      .byte 0x00
            0x00526326      .byte 0x00
            0x00526327      .byte 0x80
            0x00526328      .byte 0x00
            0x00526329      .byte 0x80
            0x0052632a      .byte 0x00
            0x0052632b      .byte 0xff
            0x0052632c      .byte 0x00
            0x0052632d      .byte 0x80
            0x0052632e      .byte 0x00
            0x0052632f      .byte 0x80
            0x00526330      .byte 0x00
            0x00526331      .byte 0xcc
            0x00526332      .byte 0x00
            0x00526333      .byte 0x80
            0x00526334      .byte 0x00
            0x00526335      .byte 0x80
            0x00526336      .byte 0x00
            0x00526337      .byte 0xad
            0x00526338      .byte 0x00
            0x00526339      .byte 0x80
            0x0052633a      .byte 0x00
            0x0052633b      .byte 0x80
            0x0052633c      .byte 0x00
            0x0052633d      .byte 0xeb
            0x0052633e      .byte 0x00
            0x0052633f      .byte 0x80
            0x00526340      .byte 0x00
            0x00526341      .byte 0x80
            0x00526342      .byte 0x00
            0x00526343      .byte 0x10
            0x00526344      .byte 0x00
            0x00526345      .byte 0x80
            0x00526346      .byte 0x00
            0x00526347      .byte 0x80
            0x00526348      .byte 0x00
            0x00526349      .byte 0x80
            0x0052634a      .byte 0x00
            0x0052634b      .byte 0x80
            0x0052634c      .byte 0x00
            0x0052634d      .byte 0x80
            0x0052634e      .byte 0x00
            0x0052634f      .byte 0x51
            0x00526350      .byte 0x00
            0x00526351      .byte 0x5a
            0x00526352      .byte 0x00
            0x00526353      .byte 0xf0
            0x00526354      .byte 0x00
            0x00526355      .byte 0xd2
            0x00526356      .byte 0x00
            0x00526357      .byte 0x10
            0x00526358      .byte 0x00
            0x00526359      .byte 0x92
            0x0052635a      .byte 0x00
            0x0052635b      .byte 0x29
            0x0052635c      .byte 0x00
            0x0052635d      .byte 0xf0
            0x0052635e      .byte 0x00
            0x0052635f      .byte 0x6e
            0x00526360      .byte 0x00
            0x00526361      .byte 0x91
            0x00526362      .byte 0x00
            0x00526363      .byte 0x36
            0x00526364      .byte 0x00
            0x00526365      .byte 0x22
            0x00526366      .byte 0x00
            0x00526367      .byte 0xa2
            0x00526368      .byte 0x00
            0x00526369      .byte 0x2c
            0x0052636a      .byte 0x00
            0x0052636b      .byte 0x8e
            0x0052636c      .byte 0x00
            0x0052636d      .byte 0x83
            0x0052636e      .byte 0x00
            0x0052636f      .byte 0x9c
            0x00526370      .byte 0x00
            0x00526371      .byte 0x2c
            0x00526372      .byte 0x00
            0x00526373      .byte 0x70
            0x00526374      .byte 0x00
            0x00526375      .byte 0x48
            0x00526376      .byte 0x00
            0x00526377      .byte 0x3a
            0x00526378      .byte 0x00
            0x00526379      .byte 0x54
            0x0052637a      .byte 0x00
            0x0052637b      .byte 0xb8
            0x0052637c      .byte 0x00
            0x0052637d      .byte 0xc6
            0x0052637e      .byte 0x00
            0x0052637f      .byte 0x41
            0x00526380      .byte 0x00
            0x00526381      .byte 0x64
            0x00526382      .byte 0x00
            0x00526383      .byte 0xd4
            0x00526384      .byte 0x00
            0x00526385      .byte 0x23
            0x00526386      .byte 0x00
            0x00526387      .byte 0xd4
            0x00526388      .byte 0x00
            0x00526389      .byte 0x72
            0x0052638a      .byte 0x00
            0x0052638b      .byte 0xd2
            0x0052638c      .byte 0x00
            0x0052638d      .byte 0x10
            0x0052638e      .byte 0x00
            0x0052638f      .byte 0x92
            0x00526390      .byte 0x00
            0x00526391      .byte 0xaa
            0x00526392      .byte 0x00
            0x00526393      .byte 0xa6
            0x00526394      .byte 0x00
            0x00526395      .byte 0x10
            0x00526396      .byte 0x00
            0x00526397      .byte 0x91
            0x00526398      .byte 0x00
            0x00526399      .byte 0x36
            0x0052639a      .byte 0x00
            0x0052639b      .byte 0x22
            0x0052639c      .byte 0x00
            0x0052639d      .byte 0x6a
            0x0052639e      .byte 0x00
            0x0052639f      .byte 0xca
            0x005263a0      .byte 0x00
            0x005263a1      .byte 0xde
            0x005263a2      .byte 0x00
            0x005263a3      .byte 0x51
            0x005263a4      .byte 0x00
            0x005263a5      .byte 0x5a
            0x005263a6      .byte 0x00
            0x005263a7      .byte 0xf0
            0x005263a8      .byte 0x00
            0x005263a9      .byte 0x29
            0x005263aa      .byte 0x00
            0x005263ab      .byte 0xf0
            0x005263ac      .byte 0x00
            0x005263ad      .byte 0x6e
            0x005263ae      .byte 0x3f
            0x005263af      .byte 0x80
            0x005263b0      .byte 0x00
            0x005263b1      .byte 0x00
            0x005263b2      .byte 0x00
            0x005263b3      .byte 0x00
            0x005263b4      .byte 0x00
            0x005263b5      .byte 0x00
            0x005263b6      .byte 0x00
            0x005263b7      .byte 0x00
            0x005263b8      .byte 0x00
            0x005263b9      .byte 0x00
            0x005263ba      .byte 0x00
            0x005263bb      .byte 0x00
            0x005263bc      .byte 0x00
            0x005263bd      .byte 0x00
            0x005263be      .byte 0x00
            0x005263bf      .byte 0x00
            0x005263c0      .byte 0x00
            0x005263c1      .byte 0x00
            0x005263c2      .byte 0x3f
            0x005263c3      .byte 0x80
            0x005263c4      .byte 0x00
            0x005263c5      .byte 0x00
            0x005263c6      .byte 0x00
            0x005263c7      .byte 0x00
            0x005263c8      .byte 0x00
            0x005263c9      .byte 0x00
            0x005263ca      .byte 0x00
            0x005263cb      .byte 0x00
            0x005263cc      .byte 0x00
            0x005263cd      .byte 0x00
            0x005263ce      .byte 0x00
            0x005263cf      .byte 0x00
            0x005263d0      .byte 0x00
            0x005263d1      .byte 0x00
            0x005263d2      .byte 0x00
            0x005263d3      .byte 0x00
            0x005263d4      .byte 0x00
            0x005263d5      .byte 0x00
            0x005263d6      .byte 0x3f
            0x005263d7      .byte 0x80
            0x005263d8      .byte 0x00
            0x005263d9      .byte 0x00
            0x005263da      .byte 0x00
            0x005263db      .byte 0x00
            0x005263dc      .byte 0x00
            0x005263dd      .byte 0x00
            0x005263de      .byte 0x3f
            0x005263df      .byte 0x80
            0x005263e0      .byte 0x00
            0x005263e1      .byte 0x00
            0x005263e2      .byte 0x3f
            0x005263e3      .byte 0x80
            0x005263e4      .byte 0x00
            0x005263e5      .byte 0x00
            0x005263e6      .byte 0x3f
            0x005263e7      .byte 0x80
            0x005263e8      .byte 0x00
            0x005263e9      .byte 0x00
            0x005263ea      .byte 0x00
            0x005263eb      .byte 0x00
            0x005263ec      .byte 0x00
            0x005263ed      .byte 0x00
            0x005263ee      .byte 0x00
            0x005263ef      .byte 0x00
            0x005263f0      .byte 0x00
            0x005263f1      .byte 0x00
            0x005263f2      .byte 0x00
            0x005263f3      .byte 0x00
            0x005263f4      .byte 0x00
            0x005263f5      .byte 0x00
            0x005263f6      .byte 0x00
            0x005263f7      .byte 0x78
            0x005263f8      .byte 0x02
            0x005263f9      .byte 0xd8
            0x005263fa      .byte 0x01
            0x005263fb      .byte 0xf8
            0x005263fc      .byte 0x0b
            0x005263fd      .byte 0x60
            0x005263fe      .byte 0x01
            0x005263ff      .byte 0xf8
            0x00526400      .byte 0x05
            0x00526401      .byte 0xb0
            0x00526402      .byte 0x07
            0x00526403      .byte 0xf8
            0x00526404      .byte 0x0b
            0x00526405      .byte 0x60
            0x00526406      .byte 0x02
            0x00526407      .byte 0xc7
            0x00526408      .byte 0x01
            0x00526409      .byte 0xe5
            0x0052640a      .byte 0x03
            0x0052640b      .byte 0x00
            0x0052640c      .byte 0x01
            0x0052640d      .byte 0xe4
            0x0052640e      .byte 0x02
            0x0052640f      .byte 0xbd
            0x00526410      .byte 0x02
            0x00526411      .byte 0x3f
            0x00526412      .byte 0x00
            0x00526413      .byte 0x00
            0x00526414      .byte 0x00
            0x00526415      .byte 0x00
            0x00526416      .byte 0x00
            0x00526417      .byte 0x00
            0x00526418      .byte 0x00
            0x00526419      .byte 0x00
            0x0052641a      .byte 0x00
            0x0052641b      .byte 0x00
            0x0052641c      .byte 0x3f
            0x0052641d      .byte 0x80
            0x0052641e      .byte 0x00
            0x0052641f      .byte 0x00
            0x00526420      .byte 0x3f
            0x00526421      .byte 0x80
            0x00526422      .byte 0x00
            0x00526423      .byte 0x00
            0x00526424      .byte 0x00
            0x00526425      .byte 0x00
            0x00526426      .byte 0x00
            0x00526427      .byte 0x00
            0x00526428      .byte 0x00
            0x00526429      .byte 0x00
            0x0052642a      .byte 0x00
            0x0052642b      .byte 0x00
            0x0052642c      .byte 0x02
            0x0052642d      .byte 0x00
            0x0052642e      .byte 0x00
            0x0052642f      .byte 0x00
            0x00526430      .byte 0x3f
            0x00526431      .byte 0x80
            0x00526432      .byte 0x00
            0x00526433      .byte 0x00
            0x00526434      .byte 0x3f
            0x00526435      .byte 0x80
            0x00526436      .byte 0x00
            0x00526437      .byte 0x00
            0x00526438      .byte 0x00
            0x00526439      .byte 0x00
            0x0052643a      .byte 0x00
            0x0052643b      .byte 0x00
            0x0052643c      .byte 0x00
            0x0052643d      .byte 0x00
            0x0052643e      .byte 0x00
            0x0052643f      .byte 0x00
            0x00526440      .byte 0x1d
            0x00526441     .string "br_size_2d: force_filter_num " ; len=29
            0x0052645e      .byte 0x0b
            0x0052645f     .string ", pre_calc " ; len=11
            0x0052646a      .byte 0x0c
            0x0052646b     .string "source_area " ; len=12
            0x00526477      .byte 0x0b
            0x00526478     .string ", src_ref: " ; len=11
            0x00526483      .byte 0x02
            0x00526484      .byte 0x2c
            0x00526485      .byte 0x20
            0x00526486      .byte 0x0b
            0x00526487     .string "dest store " ; len=11
            0x00526492      .byte 0x0d
            0x00526493     .string ", dest_plane " ; len=13
            0x005264a0      .byte 0x05
            0x005264a1     .string "pos: " ; len=5
            0x005264a6      .byte 0x02
            0x005264a7      .byte 0x2c
            0x005264a8      .byte 0x20
            0x005264a9      .byte 0x07
            0x005264aa     .string ", magn " ; len=7
            0x005264b1      .byte 0x06
            0x005264b2     .string "angle " ; len=6
            0x005264b8      .byte 0x0a
            0x005264b9     .string ", aspect: " ; len=10
            0x005264c3      .byte 0x02
            0x005264c4      .byte 0x2c
            0x005264c5      .byte 0x20
            0x005264c6      .byte 0x05
            0x005264c7     .string "flip " ; len=5
            0x005264cc      .byte 0x09
            0x005264cd     .string ", tumble " ; len=9
            0x005264d6      .byte 0x0d
            0x005264d7     .string "stamped_area " ; len=13
            0x005264e4      .byte 0x0a
            0x005264e5     .string ", clipped " ; len=10
            0x005264ef      .byte 0x00
            0x005264f0      .byte 0x41
            0x005264f1      .byte 0x40
            0x005264f2      .byte 0x00
            0x005264f3      .byte 0x00
            0x005264f4      .byte 0x00
            0x005264f5      .byte 0x00
            0x005264f6      .byte 0x00
            0x005264f7      .byte 0x00
            0x005264f8      .byte 0x00
            0x005264f9      .byte 0x00
            0x005264fa      .byte 0x00
            0x005264fb      .byte 0x00
            0x005264fc      .byte 0x10
            0x005264fd     .string "flush src_image " ; len=16
            0x0052650d      .byte 0x09
            0x0052650e     .string "same src:" ; len=9
            0x00526517      .byte 0x07
            0x00526518     .string " - src:" ; len=7
            0x0052651f      .byte 0x07
            0x00526520     .string " - cut:" ; len=7
            0x00526527      .byte 0x06
            0x00526528     .string "first:" ; len=6
            0x0052652e      .byte 0x09
            0x0052652f     .string "null fid:" ; len=9
            0x00526538      .byte 0x07
            0x00526539     .string "loaded:" ; len=7
            0x00526540      .byte 0x07
            0x00526541     .string "reload:" ; len=7
            0x00526548      .byte 0x04
            0x00526549      .byte 0x61
            0x0052654a      .byte 0x64
            0x0052654b      .byte 0x64
            0x0052654c      .byte 0x3a
            0x0052654d      .byte 0x08
            0x0052654e     .string "flushed:" ; len=8
            0x00526556      .byte 0x00
            0x00526557      .byte 0x00
            0x00526558      .byte 0x00
            0x00526559      .byte 0x00
            0x0052655a      .byte 0x00
            0x0052655b      .byte 0x00
            0x0052655c      .byte 0x00
            0x0052655d      .byte 0x00
            0x0052655e      .byte 0x1d
            0x0052655f     .string "filter_num, ysize, xoff, yoff" ; len=29
            0x0052657c      .byte 0x00
            0x0052657d      .byte 0x00
            0x0052657e      .byte 0x00
            0x0052657f      .byte 0x00
            0x00526580      .byte 0x00
            0x00526581      .byte 0x00
            0x00526582      .byte 0x00
            0x00526583      .byte 0x00
            0x00526584      .byte 0x17
            0x00526585     .string "*** setup shape timeout" ; len=23
            0x0052659c      .byte 0x11
            0x0052659d     .string "br_size_3d: filt:" ; len=17
            0x005265ae      .byte 0x05
            0x005265af     .string ", op:" ; len=5
            0x005265b4      .byte 0x04
            0x005265b5      .byte 0x64
            0x005265b6      .byte 0x73
            0x005265b7      .byte 0x74
            0x005265b8      .byte 0x3a
            0x005265b9      .byte 0x08
            0x005265ba     .string ", plane:" ; len=8
            0x005265c2      .byte 0x0d
            0x005265c3     .string "stamped_area:" ; len=13
            0x005265d0      .byte 0x20
            0x005265d1     .string "*** warning, shape already setup" ; len=32
            0x005265f1      .byte 0x0d
            0x005265f2     .string "clipped_area " ; len=13
            0x005265ff      .byte 0x00
            0x00526600      .byte 0x0e
            0x00526601      .byte 0x08
            0x00526602     .string "loading " ; len=8
            0x0052660a      .byte 0x00
            0x0052660b      .byte 0x00
            0x0052660c      .byte 0x00
            0x0052660d      .byte 0x00
            0x0052660e      .byte 0x18
            0x0052660f     .string "*** image card timed out" ; len=24
            0x00526627      .byte 0x08
            0x00526628     .string "rebooted" ; len=8
            0x00526630      .byte 0x0a
            0x00526631      .byte 0x08
            0x00526632     .string "loading " ; len=8
            0x0052663a      .byte 0x00
            0x0052663b      .byte 0x00
            0x0052663c      .byte 0x00
            0x0052663d      .byte 0x00
            0x0052663e      .byte 0x08
            0x0052663f     .string "rebooted" ; len=8
            0x00526647      .byte 0x21
            0x00526648     .string "contour not allowed for this card" ; len=33
            0x00526669      .byte 0x0d
            0x0052666a     .string "br_size_start" ; len=13
            0x00526677      .byte 0x00
            0x00526678      .byte 0x0c
            0x00526679      .byte 0x0c
            0x0052667a     .string "br_size_done" ; len=12
            0x00526686      .byte 0x00
            0x00526687      .byte 0x08
            0x00526688      .byte 0x00
            0x00526689      .byte 0x00
            0x0052668a      .byte 0x00
            0x0052668b      .byte 0x00
            0x0052668c      .byte 0x00
            0x0052668d      .byte 0x00
            0x0052668e      .byte 0x00
            0x0052668f      .byte 0x00
            0x00526690      .byte 0x00
            0x00526691      .byte 0x80
            0x00526692      .byte 0x00
            0x00526693      .byte 0x00
            0x00526694      .byte 0x00
            0x00526695      .byte 0x00
            0x00526696      .byte 0x00
            0x00526697      .byte 0x00
            0x00526698      .byte 0x00
            0x00526699      .byte 0x08
            0x0052669a      .byte 0x00
            0x0052669b      .byte 0x00
            0x0052669c      .byte 0x00
            0x0052669d      .byte 0x00
            0x0052669e      .byte 0xff
            0x0052669f      .byte 0xf4
            0x005266a0      .byte 0x00
            0x005266a1      .byte 0x25
            0x005266a2      .byte 0x00
            0x005266a3      .byte 0x4e
            0x005266a4      .byte 0x00
            0x005266a5      .byte 0x25
            0x005266a6      .byte 0xff
            0x005266a7      .byte 0xf4
            0x005266a8      .byte 0x00
            0x005266a9      .byte 0x00
            0x005266aa      .byte 0x00
            0x005266ab      .byte 0x08
            0x005266ac      .byte 0x00
            0x005266ad      .byte 0x00
            0x005266ae      .byte 0x00
            0x005266af      .byte 0x00
            0x005266b0      .byte 0x00
            0x005266b1      .byte 0x01
            0x005266b2      .byte 0x00
            0x005266b3      .byte 0x21
            0x005266b4      .byte 0x00
            0x005266b5      .byte 0x3c
            0x005266b6      .byte 0x00
            0x005266b7      .byte 0x21
            0x005266b8      .byte 0x00
            0x005266b9      .byte 0x01
            0x005266ba      .byte 0x00
            0x005266bb      .byte 0x00
            0x005266bc      .byte 0x00
            0x005266bd      .byte 0x08
            0x005266be      .byte 0x00
            0x005266bf      .byte 0x00
            0x005266c0      .byte 0x00
            0x005266c1      .byte 0x00
            0x005266c2      .byte 0x00
            0x005266c3      .byte 0x0a
            0x005266c4      .byte 0x00
            0x005266c5      .byte 0x21
            0x005266c6      .byte 0x00
            0x005266c7      .byte 0x2a
            0x005266c8      .byte 0x00
            0x005266c9      .byte 0x21
            0x005266ca      .byte 0x00
            0x005266cb      .byte 0x0a
            0x005266cc      .byte 0x00
            0x005266cd      .byte 0x00
            0x005266ce      .byte 0x00
            0x005266cf      .byte 0x08
            0x005266d0      .byte 0x00
            0x005266d1      .byte 0x00
            0x005266d2      .byte 0x00
            0x005266d3      .byte 0x00
            0x005266d4      .byte 0x00
            0x005266d5      .byte 0x14
            0x005266d6      .byte 0x00
            0x005266d7      .byte 0x1c
            0x005266d8      .byte 0x00
            0x005266d9      .byte 0x20
            0x005266da      .byte 0x00
            0x005266db      .byte 0x1c
            0x005266dc      .byte 0x00
            0x005266dd      .byte 0x14
            0x005266de      .byte 0x00
            0x005266df      .byte 0x00
            0x005266e0      .byte 0x00
            0x005266e1      .byte 0x08
            0x005266e2      .byte 0x00
            0x005266e3      .byte 0x00
            0x005266e4      .byte 0x00
            0x005266e5      .byte 0x00
            0x005266e6      .byte 0x00
            0x005266e7      .byte 0x00
            0x005266e8      .byte 0xff
            0x005266e9      .byte 0xd5
            0x005266ea      .byte 0x00
            0x005266eb      .byte 0xd6
            0x005266ec      .byte 0xff
            0x005266ed      .byte 0xd5
            0x005266ee      .byte 0x00
            0x005266ef      .byte 0x00
            0x005266f0      .byte 0x00
            0x005266f1      .byte 0x00
            0x005266f2      .byte 0x00
            0x005266f3      .byte 0x02
            0x005266f4      .byte 0x00
            0x005266f5      .byte 0x00
            0x005266f6      .byte 0x00
            0x005266f7      .byte 0x80
            0x005266f8      .byte 0x00
            0x005266f9      .byte 0x00
            0x005266fa      .byte 0x00
            0x005266fb      .byte 0x00
            0x005266fc      .byte 0x00
            0x005266fd      .byte 0x00
            0x005266fe      .byte 0x00
            0x005266ff      .byte 0x00
            0x00526700      .byte 0x00
            0x00526701      .byte 0x00
            0x00526702      .byte 0x00
            0x00526703      .byte 0x00
            0x00526704      .byte 0x00
            0x00526705      .byte 0x06
            0x00526706      .byte 0x00
            0x00526707      .byte 0x00
            0x00526708      .byte 0x00
            0x00526709      .byte 0x08
            0x0052670a      .byte 0x00
            0x0052670b      .byte 0x1a
            0x0052670c      .byte 0x00
            0x0052670d      .byte 0x3c
            0x0052670e      .byte 0x00
            0x0052670f      .byte 0x1a
            0x00526710      .byte 0x00
            0x00526711      .byte 0x08
            0x00526712      .byte 0x00
            0x00526713      .byte 0x00
            0x00526714      .byte 0x00
            0x00526715      .byte 0x00
            0x00526716      .byte 0x00
            0x00526717      .byte 0x06
            0x00526718      .byte 0x00
            0x00526719      .byte 0x00
            0x0052671a      .byte 0x00
            0x0052671b      .byte 0x07
            0x0052671c      .byte 0x00
            0x0052671d      .byte 0x23
            0x0052671e      .byte 0x00
            0x0052671f      .byte 0x2c
            0x00526720      .byte 0x00
            0x00526721      .byte 0x23
            0x00526722      .byte 0x00
            0x00526723      .byte 0x07
            0x00526724      .byte 0x00
            0x00526725      .byte 0x00
            0x00526726      .byte 0x00
            0x00526727      .byte 0x00
            0x00526728      .byte 0x00
            0x00526729      .byte 0x06
            0x0052672a      .byte 0x00
            0x0052672b      .byte 0x00
            0x0052672c      .byte 0x00
            0x0052672d      .byte 0x13
            0x0052672e      .byte 0x00
            0x0052672f      .byte 0x1d
            0x00526730      .byte 0x00
            0x00526731      .byte 0x20
            0x00526732      .byte 0x00
            0x00526733      .byte 0x1d
            0x00526734      .byte 0x00
            0x00526735      .byte 0x13
            0x00526736      .byte 0x00
            0x00526737      .byte 0x00
            0x00526738      .byte 0x00
            0x00526739      .byte 0x00
            0x0052673a      .byte 0x00
            0x0052673b      .byte 0x06
            0x0052673c      .byte 0x00
            0x0052673d      .byte 0x00
            0x0052673e      .byte 0x00
            0x0052673f      .byte 0x14
            0x00526740      .byte 0x00
            0x00526741      .byte 0x1c
            0x00526742      .byte 0x00
            0x00526743      .byte 0x20
            0x00526744      .byte 0x00
            0x00526745      .byte 0x1c
            0x00526746      .byte 0x00
            0x00526747      .byte 0x14
            0x00526748      .byte 0x00
            0x00526749      .byte 0x00
            0x0052674a      .byte 0x00
            0x0052674b      .byte 0x00
            0x0052674c      .byte 0x00
            0x0052674d      .byte 0x04
            0x0052674e      .byte 0x00
            0x0052674f      .byte 0x00
            0x00526750      .byte 0xff
            0x00526751      .byte 0xf6
            0x00526752      .byte 0x00
            0x00526753      .byte 0x94
            0x00526754      .byte 0xff
            0x00526755      .byte 0xf6
            0x00526756      .byte 0x00
            0x00526757      .byte 0x00
            0x00526758      .byte 0x00
            0x00526759      .byte 0x00
            0x0052675a      .byte 0x00
            0x0052675b      .byte 0x00
            0x0052675c      .byte 0x00
            0x0052675d      .byte 0x00
            0x0052675e      .byte 0x05
            0x0052675f     .string "cubic" ; len=5
            0x00526764      .byte 0x1c
            0x00526765     .string "filter kernel not normalised" ; len=28
            0x00526781      .byte 0x1c
            0x00526782     .string "BRUSH2MAV - filter too large" ; len=28
            0x0052679e      .byte 0x21
            0x0052679f     .string "br_filter_copy - alignment error " ; len=33
            0x005267c0      .byte 0x27
            0x005267c1     .string "br_field_interpolate - alignment error " ; len=39
            0x005267e8      .byte 0x00
            0x005267e9      .byte 0x02
            0x005267ea      .byte 0x00
            0x005267eb      .byte 0x02
            0x005267ec      .byte 0x00
            0x005267ed      .byte 0x02
            0x005267ee      .byte 0x00
            0x005267ef      .byte 0x02
            0x005267f0      .byte 0x00
            0x005267f1      .byte 0x06
            0x005267f2      .byte 0x00
            0x005267f3      .byte 0x06
            0x005267f4      .byte 0x00
            0x005267f5      .byte 0x06
            0x005267f6      .byte 0x00
            0x005267f7      .byte 0x06
            0x005267f8      .byte 0x00
            0x005267f9      .byte 0x06
            0x005267fa      .byte 0x00
            0x005267fb      .byte 0x06
            0x005267fc      .byte 0x00
            0x005267fd      .byte 0x06
            0x005267fe      .byte 0x00
            0x005267ff      .byte 0x06
            0x00526800      .byte 0x00
            0x00526801      .byte 0x06
            0x00526802      .byte 0x00
            0x00526803      .byte 0x06
            0x00526804      .byte 0x00
            0x00526805      .byte 0x06
            0x00526806      .byte 0x00
            0x00526807      .byte 0x06
            0x00526808      .byte 0x00
            0x00526809      .byte 0x04
            0x0052680a      .byte 0x00
            0x0052680b      .byte 0x04
            0x0052680c      .byte 0x00
            0x0052680d      .byte 0x04
            0x0052680e      .byte 0x00
            0x0052680f      .byte 0x04
            0x00526810      .byte 0x00
            0x00526811      .byte 0x06
            0x00526812      .byte 0x00
            0x00526813      .byte 0x06
            0x00526814      .byte 0x00
            0x00526815      .byte 0x06
            0x00526816      .byte 0x00
            0x00526817      .byte 0x06
            0x00526818      .byte 0x00
            0x00526819      .byte 0x06
            0x0052681a      .byte 0x00
            0x0052681b      .byte 0x06
            0x0052681c      .byte 0x00
            0x0052681d      .byte 0x06
            0x0052681e      .byte 0x00
            0x0052681f      .byte 0x06
            0x00526820      .byte 0x00
            0x00526821      .byte 0x06
            0x00526822      .byte 0x00
            0x00526823      .byte 0x06
            0x00526824      .byte 0x00
            0x00526825      .byte 0x06
            0x00526826      .byte 0x00
            0x00526827      .byte 0x06
            0x00526828      .byte 0x26
            0x00526829     .string "Boot|TO|From|SRC|Debug|CAchedebug|SHow" ; len=38
            0x0052684f      .byte 0x11
            0x00526850     .string "IMAGE card booted" ; len=17
            0x00526861      .byte 0x02
            0x00526862      .byte 0x3a
            0x00526863      .byte 0x20
            0x00526864      .byte 0x0a
            0x00526865     .string " booted OK" ; len=10
            0x0052686f      .byte 0x12
            0x00526870     .string " - but not running" ; len=18
            0x00526882      .byte 0x16
            0x00526883     .string "IMAGE card boot failed" ; len=22
            0x00526899      .byte 0x00
            0x0052689a      .byte 0x00
            0x0052689b      .byte 0x00
            0x0052689c      .byte 0x00
            0x0052689d      .byte 0x00
            0x0052689e      .byte 0x00
            0x0052689f      .byte 0x00
            0x005268a0      .byte 0x00
            0x005268a1      .byte 0x00
            0x005268a2      .byte 0x00
            0x005268a3      .byte 0x00
            0x005268a4      .byte 0x00
            0x005268a5      .byte 0x00
            0x005268a6      .byte 0x12
            0x005268a7     .string "creating filter - " ; len=18
            0x005268b9      .byte 0x11
            0x005268ba     .string "persp card fitted" ; len=17
            0x005268cb      .byte 0x0a
            0x005268cc     .string " booted OK" ; len=10
            0x005268d6      .byte 0x29
            0x005268d7     .string "CAP Transputer Booted OK, but not running" ; len=41
            0x00526900      .byte 0x1a
            0x00526901     .string "CAP Transputer Boot Failed" ; len=26
            0x0052691b      .byte 0x1b
            0x0052691c     .string "Waiting for image card boot" ; len=27
            0x00526937      .byte 0x0e
            0x00526938     .string " responding OK" ; len=14
            0x00526946      .byte 0x2d
            0x00526947     .string "No response from Image transputer - rebooting" ; len=45
            0x00526974      .byte 0x0c
            0x00526975     .string " rebooted OK" ; len=12
            0x00526981      .byte 0x2b
            0x00526982     .string "Image transputer booted, but not responding" ; len=43
            0x005269ad      .byte 0x21
            0x005269ae     .string "IMAGE card transputer boot failed" ; len=33
            0x005269cf      .byte 0x05
            0x005269d0      .byte 0x49
            0x005269d1      .byte 0x4d
            0x005269d2      .byte 0x41
            0x005269d3      .byte 0x67
            0x005269d4      .byte 0x65
            0x005269d5      .byte 0x69
┌ 180: BRUSH2COM.show_src_image ();
│           ; var int32_t var_8h @ a7+0x8
│           0x005269d6      4e56fed0       link.w a6, 0xfed0
│           0x005269da      bfd5           cmpa.l (a5), a7
│       ┌─< 0x005269dc      6206           bhi.b 0x5269e4
│       │   0x005269de      44fc0002       move.w 0x2, ccr
│       │   0x005269e2      4e76           trapv
│       └─> 0x005269e4      defc012c       adda.w 0x12c, a7
│           0x005269e8      48e7c0f8       movem.l d0-d1/a0-a4, -(a7)
│           0x005269ec      41f80000       lea.l 0x0, a0
│           0x005269f0      43f9004070e4   lea.l p_wti_o, a1
│           0x005269f6      45f80001       lea.l 0x1, a2
│           0x005269fa      47f9004048b4   lea.l p_wtc_o, a3
│           0x00526a00      7220           moveq 0x20, d1
│           0x00526a02      28790083fcf0   movea.l 0x83fcf0, a4
│       ┌─> 0x00526a08      b8fc0001       cmpa.w 0x1, a4
│      ┌──< 0x00526a0c      6774           beq.b 0x526a82
│      │╎   0x00526a0e      b9ecfffc       cmpa.l -0x4(a4), a4
│     ┌───< 0x00526a12      6702           beq.b 0x526a16
│     ││╎   0x00526a14      4e4d           trap 0xd
│     └───> 0x00526a16      9efc0100       suba.w 0x100, a7
│      │╎   0x00526a1a      486c000c       pea.l 0xc(a4)
│      │╎   0x00526a1e      4eb9005ef416   jsr F2_UTILITY.f_fid_string
│      │╎   0x00526a24      2eac0004       move.l 0x4(a4), (a7)
│      │╎   0x00526a28      4850           pea.l (a0)
│      │╎   0x00526a2a      4e91           jsr (a1)                    ; fcn.0000000a
│      │╎   0x00526a2c      5c4f           addq.w 0x6, a7
│      │╎   0x00526a2e      1e81           move.b d1, (a7)
│      │╎   0x00526a30      4852           pea.l (a2)
│      │╎   0x00526a32      4e93           jsr (a3)                    ; fcn.0000000c
│      │╎   0x00526a34      544f           addq.w 0x2, a7
│      │╎   0x00526a36      2eac0008       move.l 0x8(a4), (a7)
│      │╎   0x00526a3a      4850           pea.l (a0)
│      │╎   0x00526a3c      4e91           jsr (a1)                    ; fcn.0000000a
│      │╎   0x00526a3e      5c4f           addq.w 0x6, a7
│      │╎   0x00526a40      1e81           move.b d1, (a7)
│      │╎   0x00526a42      4852           pea.l (a2)
│      │╎   0x00526a44      4e93           jsr (a3)                    ; fcn.0000000c
│      │╎   0x00526a46      5c4f           addq.w 0x6, a7
│      │╎   0x00526a48      202c0004       move.l 0x4(a4), d0
│      │╎   0x00526a4c      d0ac0008       add.l 0x8(a4), d0
│      │╎   0x00526a50      2f00           move.l d0, -(a7)
│      │╎   0x00526a52      4850           pea.l (a0)
│      │╎   0x00526a54      4e91           jsr (a1)                    ; fcn.0000000a
│      │╎   0x00526a56      5c4f           addq.w 0x6, a7
│      │╎   0x00526a58      1e81           move.b d1, (a7)
│      │╎   0x00526a5a      4852           pea.l (a2)
│      │╎   0x00526a5c      4e93           jsr (a3)                    ; fcn.0000000c
│      │╎   0x00526a5e      5c4f           addq.w 0x6, a7
│      │╎   0x00526a60      486f0001       pea.l 0x1(a7)
│      │╎   0x00526a64      42a7           clr.l -(a7)
│      │╎   0x00526a66      1f6f00080003   move.b 0x8(a7), 0x3(a7)
│      │╎   0x00526a6c      2f17           move.l (a7), -(a7)
│      │╎   0x00526a6e      4eb9004047ea   jsr p_wts_o
│      │╎   0x00526a74      defc010c       adda.w 0x10c, a7
│      │╎   0x00526a78      4eb900404946   jsr p_wtln_o
│      │╎   0x00526a7e      2854           movea.l (a4), a4
│      │└─< 0x00526a80      6086           bra.b 0x526a08
│      └──> 0x00526a82      4cdf1f03       movem.l (a7)+, d0-d1/a0-a4
│           0x00526a86      4e5e           unlk a6
└           0x00526a88      4e75           rts
┌ 30: BRUSH2COM.br_pre_base ();
│           0x00526a8a      4e56fffc       link.w a6, 0xfffc
│           0x00526a8e      bfd5           cmpa.l (a5), a7
│       ┌─< 0x00526a90      6206           bhi.b 0x526a98
│       │   0x00526a92      44fc0002       move.w 0x2, ccr
│       │   0x00526a96      4e76           trapv
│       └─> 0x00526a98      defc0004       adda.w 0x4, a7
│           0x00526a9c      2d790083fcf4.  move.l 0x83fcf4, 0x8(a6)
│           0x00526aa4      4e5e           unlk a6
└           0x00526aa6      4e75           rts
            ; XREFS: CALL 0x005a5780  CALL 0x005a87de  CALL 0x005ab1ec  
            ; XREFS: CALL 0x00636ca2  CALL 0x00665158  CALL 0x006652ae  
            ; XREFS: CALL 0x00665b74  CALL 0x0066612a  CALL 0x00666a2a  
            ; XREFS: CALL 0x00667114  CALL 0x00667bae  CALL 0x00675fb0  
            ; XREFS: CALL 0x0074951e  CALL 0x00749700  CALL 0x00796abe  
┌ 24: BRUSH2COM.br_size_2d ();
│           0x00526aa8      4e56fe94       link.w a6, 0xfe94
│           0x00526aac      bfd5           cmpa.l (a5), a7
│       ┌─< 0x00526aae      6206           bhi.b 0x526ab6
│       │   0x00526ab0      44fc0002       move.w 0x2, ccr
│       │   0x00526ab4      4e76           trapv
│       └─> 0x00526ab6      defc014c       adda.w 0x14c, a7
│           0x00526aba      48e7fdf8       movem.l d0-d5/d7/a0-a4, -(a7)
│           0x00526abe      f227e001       fmovem fp0, -(a7)
            0x00526ac2      47f9004047ea   lea.l p_wts_o, a3
            0x00526ac8      49f80005       lea.l 0x5, a4
            0x00526acc      740c           moveq 0xc, d2
            0x00526ace      760a           moveq 0xa, d3
            0x00526ad0      283c00002000   move.l 0x2000, d4
            0x00526ad6      7a00           moveq 0x0, d5
            0x00526ad8      4a390083fcf8   tst.b 0x83fcf8
        ┌─< 0x00526ade      6700026e       beq.w 0x526d4e
        │   0x00526ae2      487af95d       pea.l 0x526441(pc)
        │   0x00526ae6      4878001d       pea.l 0x1d
        │   0x00526aea      2f17           move.l (a7), -(a7)
        │   0x00526aec      4e93           jsr (a3)                    ; fcn.0000000c
        │   0x00526aee      dec2           adda.w d2, a7
        │   0x00526af0      302e0042       move.w 0x42(a6), d0
        │   0x00526af4      48c0           ext.l d0
        │   0x00526af6      2f00           move.l d0, -(a7)
        │   0x00526af8      48780000       pea.l 0x0
        │   0x00526afc      4eb9004070e4   jsr p_wti_o
        │   0x00526b02      504f           addq.w 0x8, a7
        │   0x00526b04      487af959       pea.l 0x52645f(pc)
        │   0x00526b08      4878000b       pea.l 0xb
        │   0x00526b0c      2f17           move.l (a7), -(a7)
        │   0x00526b0e      4e93           jsr (a3)                    ; fcn.0000000c
        │   0x00526b10      dec3           adda.w d3, a7
        │   0x00526b12      1eae0040       move.b 0x40(a6), (a7)
        │   0x00526b16      4854           pea.l (a4)
        │   0x00526b18      4eb90040718c   jsr p_wtb_o
        │   0x00526b1e      5c4f           addq.w 0x6, a7
        │   0x00526b20      4eb900404946   jsr p_wtln_o
        │   0x00526b26      9efc0100       suba.w 0x100, a7
        │   0x00526b2a      2f2e003c       move.l 0x3c(a6), -(a7)
        │   0x00526b2e      2f2e0038       move.l 0x38(a6), -(a7)
        │   0x00526b32      48780000       pea.l 0x0
        │   0x00526b36      4eb90044d9f2   jsr SYSTEM_STRING.area_str
        │   0x00526b3c      dec2           adda.w d2, a7
        │   0x00526b3e      487af92b       pea.l 0x52646b(pc)
        │   0x00526b42      4878000c       pea.l 0xc
        │   0x00526b46      2f17           move.l (a7), -(a7)
        │   0x00526b48      4e93           jsr (a3)                    ; fcn.0000000c
        │   0x00526b4a      dec2           adda.w d2, a7
        │   0x00526b4c      486f0001       pea.l 0x1(a7)
        │   0x00526b50      42a7           clr.l -(a7)
        │   0x00526b52      1f6f00080003   move.b 0x8(a7), 0x3(a7)
        │   0x00526b58      2f17           move.l (a7), -(a7)
        │   0x00526b5a      4e93           jsr (a3)                    ; fcn.0000000c
        │   0x00526b5c      defc010c       adda.w 0x10c, a7
        │   0x00526b60      487af916       pea.l 0x526478(pc)
        │   0x00526b64      4878000b       pea.l 0xb
        │   0x00526b68      2f17           move.l (a7), -(a7)
        │   0x00526b6a      4e93           jsr (a3)                    ; fcn.0000000c
        │   0x00526b6c      504f           addq.w 0x8, a7
        │   0x00526b6e      2eae0030       move.l 0x30(a6), (a7)
        │   0x00526b72      4878ffff       pea.l 0xffff
        │   0x00526b76      4eb9004070e4   jsr p_wti_o
        │   0x00526b7c      504f           addq.w 0x8, a7
        │   0x00526b7e      487af904       pea.l 0x526484(pc)
        │   0x00526b82      48780002       pea.l 0x2
        │   0x00526b86      2f17           move.l (a7), -(a7)
        │   0x00526b88      4e93           jsr (a3)                    ; fcn.0000000c
        │   0x00526b8a      504f           addq.w 0x8, a7
        │   0x00526b8c      2eae0034       move.l 0x34(a6), (a7)
        │   0x00526b90      4878ffff       pea.l 0xffff
        │   0x00526b94      4eb9004070e4   jsr p_wti_o
        │   0x00526b9a      504f           addq.w 0x8, a7
        │   0x00526b9c      4eb900404946   jsr p_wtln_o
        │   0x00526ba2      487af8e3       pea.l 0x526487(pc)
        │   0x00526ba6      4878000b       pea.l 0xb
        │   0x00526baa      2f17           move.l (a7), -(a7)
        │   0x00526bac      4e93           jsr (a3)                    ; fcn.0000000c
        │   0x00526bae      dec2           adda.w d2, a7
        │   0x00526bb0      102e002e       move.b 0x2e(a6), d0
        │   0x00526bb4      49c0           extb.l d0
        │   0x00526bb6      2f00           move.l d0, -(a7)
        │   0x00526bb8      48780000       pea.l 0x0
        │   0x00526bbc      4eb9004070e4   jsr p_wti_o
        │   0x00526bc2      504f           addq.w 0x8, a7
        │   0x00526bc4      487af8cd       pea.l 0x526493(pc)
        │   0x00526bc8      4878000d       pea.l 0xd
        │   0x00526bcc      2f17           move.l (a7), -(a7)
        │   0x00526bce      4e93           jsr (a3)                    ; fcn.0000000c
        │   0x00526bd0      dec2           adda.w d2, a7
        │   0x00526bd2      102e002c       move.b 0x2c(a6), d0
        │   0x00526bd6      49c0           extb.l d0
        │   0x00526bd8      2f00           move.l d0, -(a7)
        │   0x00526bda      48780000       pea.l 0x0
        │   0x00526bde      4eb9004070e4   jsr p_wti_o
        │   0x00526be4      504f           addq.w 0x8, a7
        │   0x00526be6      4eb900404946   jsr p_wtln_o
        │   0x00526bec      487af8b3       pea.l 0x5264a1(pc)
        │   0x00526bf0      4854           pea.l (a4)
        │   0x00526bf2      2f17           move.l (a7), -(a7)
        │   0x00526bf4      4e93           jsr (a3)                    ; fcn.0000000c
        │   0x00526bf6      504f           addq.w 0x8, a7
        │   0x00526bf8      2eae0024       move.l 0x24(a6), (a7)
        │   0x00526bfc      4878ffff       pea.l 0xffff
        │   0x00526c00      4eb9004070e4   jsr p_wti_o
        │   0x00526c06      504f           addq.w 0x8, a7
        │   0x00526c08      487af89d       pea.l 0x5264a7(pc)
        │   0x00526c0c      48780002       pea.l 0x2
        │   0x00526c10      2f17           move.l (a7), -(a7)
        │   0x00526c12      4e93           jsr (a3)                    ; fcn.0000000c
        │   0x00526c14      504f           addq.w 0x8, a7
        │   0x00526c16      2eae0028       move.l 0x28(a6), (a7)
        │   0x00526c1a      4878ffff       pea.l 0xffff
        │   0x00526c1e      4eb9004070e4   jsr p_wti_o
        │   0x00526c24      504f           addq.w 0x8, a7
        │   0x00526c26      487af882       pea.l 0x5264aa(pc)
        │   0x00526c2a      48780007       pea.l 0x7
        │   0x00526c2e      2f17           move.l (a7), -(a7)
        │   0x00526c30      4e93           jsr (a3)                    ; fcn.0000000c
        │   0x00526c32      504f           addq.w 0x8, a7
        │   0x00526c34      2eae0020       move.l 0x20(a6), (a7)
        │   0x00526c38      4854           pea.l (a4)
        │   0x00526c3a      48780003       pea.l 0x3
        │   0x00526c3e      4eb900439f72   jsr P17_FRDWRT.p_wtf2_o
        │   0x00526c44      dec2           adda.w d2, a7
        │   0x00526c46      4eb900404946   jsr p_wtln_o
        │   0x00526c4c      487af864       pea.l 0x5264b2(pc)
        │   0x00526c50      48780006       pea.l 0x6
        │   0x00526c54      2f17           move.l (a7), -(a7)
        │   0x00526c56      4e93           jsr (a3)                    ; fcn.0000000c
        │   0x00526c58      504f           addq.w 0x8, a7
        │   0x00526c5a      2eae001c       move.l 0x1c(a6), (a7)
        │   0x00526c5e      4854           pea.l (a4)
        │   0x00526c60      48780003       pea.l 0x3
        │   0x00526c64      4eb900439f72   jsr P17_FRDWRT.p_wtf2_o
        │   0x00526c6a      dec2           adda.w d2, a7
        │   0x00526c6c      487af84b       pea.l 0x5264b9(pc)
        │   0x00526c70      4878000a       pea.l 0xa
        │   0x00526c74      2f17           move.l (a7), -(a7)
        │   0x00526c76      4e93           jsr (a3)                    ; fcn.0000000c
        │   0x00526c78      504f           addq.w 0x8, a7
        │   0x00526c7a      2eae0014       move.l 0x14(a6), (a7)
        │   0x00526c7e      4854           pea.l (a4)
        │   0x00526c80      48780003       pea.l 0x3
        │   0x00526c84      4eb900439f72   jsr P17_FRDWRT.p_wtf2_o
        │   0x00526c8a      dec2           adda.w d2, a7
        │   0x00526c8c      487af836       pea.l 0x5264c4(pc)
        │   0x00526c90      48780002       pea.l 0x2
        │   0x00526c94      2f17           move.l (a7), -(a7)
        │   0x00526c96      4e93           jsr (a3)                    ; fcn.0000000c
        │   0x00526c98      504f           addq.w 0x8, a7
        │   0x00526c9a      2eae0018       move.l 0x18(a6), (a7)
        │   0x00526c9e      4854           pea.l (a4)
        │   0x00526ca0      48780003       pea.l 0x3
        │   0x00526ca4      4eb900439f72   jsr P17_FRDWRT.p_wtf2_o
        │   0x00526caa      dec2           adda.w d2, a7
        │   0x00526cac      4eb900404946   jsr p_wtln_o
        │   0x00526cb2      487af813       pea.l 0x5264c7(pc)
        │   0x00526cb6      4854           pea.l (a4)
        │   0x00526cb8      2f17           move.l (a7), -(a7)
        │   0x00526cba      4e93           jsr (a3)                    ; fcn.0000000c
        │   0x00526cbc      dec3           adda.w d3, a7
        │   0x00526cbe      1eae0012       move.b 0x12(a6), (a7)
        │   0x00526cc2      4854           pea.l (a4)
        │   0x00526cc4      4eb90040718c   jsr p_wtb_o
        │   0x00526cca      5c4f           addq.w 0x6, a7
        │   0x00526ccc      487af7ff       pea.l 0x5264cd(pc)
        │   0x00526cd0      48780009       pea.l 0x9
        │   0x00526cd4      2f17           move.l (a7), -(a7)
        │   0x00526cd6      4e93           jsr (a3)                    ; fcn.0000000c
        │   0x00526cd8      dec3           adda.w d3, a7
        │   0x00526cda      1eae0010       move.b 0x10(a6), (a7)
        │   0x00526cde      4854           pea.l (a4)
        │   0x00526ce0      4eb90040718c   jsr p_wtb_o
        │   0x00526ce6      5c4f           addq.w 0x6, a7
        │   0x00526ce8      4eb900404946   jsr p_wtln_o
        │   0x00526cee      9efc0100       suba.w 0x100, a7
        │   0x00526cf2      206e000c       movea.l 0xc(a6), a0
        │   0x00526cf6      2f280004       move.l 0x4(a0), -(a7)
        │   0x00526cfa      2f10           move.l (a0), -(a7)
        │   0x00526cfc      48780000       pea.l 0x0
        │   0x00526d00      4eb90044d9f2   jsr SYSTEM_STRING.area_str
        │   0x00526d06      dec2           adda.w d2, a7
        │   0x00526d08      487af7cd       pea.l 0x5264d7(pc)
        │   0x00526d0c      4878000d       pea.l 0xd
        │   0x00526d10      2f17           move.l (a7), -(a7)
        │   0x00526d12      4e93           jsr (a3)                    ; fcn.0000000c
        │   0x00526d14      dec2           adda.w d2, a7
        │   0x00526d16      486f0001       pea.l 0x1(a7)
        │   0x00526d1a      42a7           clr.l -(a7)
        │   0x00526d1c      1f6f00080003   move.b 0x8(a7), 0x3(a7)
        │   0x00526d22      2f17           move.l (a7), -(a7)
        │   0x00526d24      4e93           jsr (a3)                    ; fcn.0000000c
        │   0x00526d26      defc010c       adda.w 0x10c, a7
        │   0x00526d2a      487af7b9       pea.l 0x5264e5(pc)
        │   0x00526d2e      4878000a       pea.l 0xa
        │   0x00526d32      2f17           move.l (a7), -(a7)
        │   0x00526d34      4e93           jsr (a3)                    ; fcn.0000000c
        │   0x00526d36      dec2           adda.w d2, a7
        │   0x00526d38      206e0008       movea.l 0x8(a6), a0
        │   0x00526d3c      1f10           move.b (a0), -(a7)
        │   0x00526d3e      4854           pea.l (a4)
        │   0x00526d40      4eb90040718c   jsr p_wtb_o
        │   0x00526d46      5c4f           addq.w 0x6, a7
        │   0x00526d48      4eb900404946   jsr p_wtln_o
        └─> 0x00526d4e      594f           subq.w 0x4, a7
            0x00526d50      4eb900676376   jsr PASTECOM.new_cutout
            0x00526d56      2d5ffffa       move.l (a7)+, -0x6(a6)
            0x00526d5a      206efffa       movea.l -0x6(a6), a0
            0x00526d5e      b1e8fffc       cmpa.l -0x4(a0), a0
        ┌─< 0x00526d62      6702           beq.b 0x526d66
        │   0x00526d64      4e4d           trap 0xd
        └─> 0x00526d66      216e0038030e   move.l 0x38(a6), 0x30e(a0)
            0x00526d6c      216e003c0312   move.l 0x3c(a6), 0x312(a0)
            0x00526d72      202e0030       move.l 0x30(a6), d0
            0x00526d76      4c440800       divs.l d4, d0
            0x00526d7a      31400022       move.w d0, 0x22(a0)
            0x00526d7e      202e0034       move.l 0x34(a6), d0
            0x00526d82      4c440800       divs.l d4, d0
            0x00526d86      31400024       move.w d0, 0x24(a0)
            0x00526d8a      30280022       move.w 0x22(a0), d0
            0x00526d8e      48c0           ext.l d0
            0x00526d90      f2004000       fmove.l d0, fp0
            0x00526d94      f23944230083.  fmul.s 0x83fbf4, fp0
            0x00526d9c      f200001a       fneg fp0
            0x00526da0      f22864000036   fmove.s fp0, 0x36(a0)
            0x00526da6      30280024       move.w 0x24(a0), d0
            0x00526daa      48c0           ext.l d0
            0x00526dac      f2004000       fmove.l d0, fp0
            0x00526db0      f23944230083.  fmul.s 0x83fbe4, fp0
            0x00526db8      f200001a       fneg fp0
            0x00526dbc      f2286400003a   fmove.s fp0, 0x3a(a0)
            0x00526dc2      30280312       move.w 0x312(a0), d0
            0x00526dc6      48c0           ext.l d0
            0x00526dc8      e780           asl.l 0x3, d0
            0x00526dca      32280022       move.w 0x22(a0), d1
            0x00526dce      48c1           ext.l d1
            0x00526dd0      4481           neg.l d1
            0x00526dd2      d280           add.l d0, d1
            0x00526dd4      f2014000       fmove.l d1, fp0
            0x00526dd8      f23944230083.  fmul.s 0x83fbf4, fp0
            0x00526de0      f2286400003e   fmove.s fp0, 0x3e(a0)
            0x00526de6      2168003a0042   move.l 0x3a(a0), 0x42(a0)
            0x00526dec      2168003e0046   move.l 0x3e(a0), 0x46(a0)
            0x00526df2      30280314       move.w 0x314(a0), d0
            0x00526df6      48c0           ext.l d0
            0x00526df8      e780           asl.l 0x3, d0
            0x00526dfa      32280024       move.w 0x24(a0), d1
            0x00526dfe      48c1           ext.l d1
            0x00526e00      4481           neg.l d1
            0x00526e02      d280           add.l d0, d1
            0x00526e04      f2014000       fmove.l d1, fp0
            0x00526e08      f23944230083.  fmul.s 0x83fbe4, fp0
            0x00526e10      f2286400004a   fmove.s fp0, 0x4a(a0)
            0x00526e16      21680036004e   move.l 0x36(a0), 0x4e(a0)
            0x00526e1c      2168004a0052   move.l 0x4a(a0), 0x52(a0)
            0x00526e22      2d7c3f800000.  move.l 0x3f800000, -0x20(a6)
            0x00526e2a      202e0024       move.l 0x24(a6), d0
            0x00526e2e      4c440800       divs.l d4, d0
            0x00526e32      3d40ffe4       move.w d0, -0x1c(a6)
            0x00526e36      202e0028       move.l 0x28(a6), d0
            0x00526e3a      4c440800       divs.l d4, d0
            0x00526e3e      3d40ffe6       move.w d0, -0x1a(a6)
            0x00526e42      217af6ac02a0   move.l 0x5264f0(pc), 0x2a0(a0)
            0x00526e48      217af6aa02a4   move.l 0x5264f4(pc), 0x2a4(a0)
            0x00526e4e      217af6a802a8   move.l 0x5264f8(pc), 0x2a8(a0)
            0x00526e54      43e800f0       lea.l 0xf0(a0), a1
            0x00526e58      45faf554       lea.l 0x5263ae(pc), a2
            0x00526e5c      7011           moveq 0x11, d0
        ┌─> 0x00526e5e      22da           move.l (a2)+, (a1)+
        └─< 0x00526e60      51c8fffc       dbra d0, 0x526e5e
            0x00526e64      43e80138       lea.l 0x138(a0), a1
            0x00526e68      45faf544       lea.l 0x5263ae(pc), a2
            0x00526e6c      7011           moveq 0x11, d0
        ┌─> 0x00526e6e      22da           move.l (a2)+, (a1)+
        └─< 0x00526e70      51c8fffc       dbra d0, 0x526e6e
            0x00526e74      486800f0       pea.l 0xf0(a0)
            0x00526e78      486800f0       pea.l 0xf0(a0)
            0x00526e7c      48680138       pea.l 0x138(a0)
            0x00526e80      486802a0       pea.l 0x2a0(a0)
            0x00526e84      4227           clr.b -(a7)
            0x00526e86      1f3c0004       move.b 0x4, -(a7)
            0x00526e8a      9ec2           suba.w d2, a7
            0x00526e8c      f2054000       fmove.l d5, fp0
            0x00526e90      f2276400       fmove.s fp0, -(a7)
            0x00526e94      f2054000       fmove.l d5, fp0
            0x00526e98      f2276400       fmove.s fp0, -(a7)
            0x00526e9c      f22e441a001c   fneg.s 0x1c(a6), fp0
            0x00526ea2      f2276400       fmove.s fp0, -(a7)
            0x00526ea6      4eb90067a406   jsr THREEDMAV.xyz_point
            0x00526eac      dec2           adda.w d2, a7
            0x00526eae      4eb90067c2ee   jsr THREEDMAV.do_spin
            0x00526eb4      defc0020       adda.w 0x20, a7
            0x00526eb8      f22e44000014   fmove.s 0x14(a6), fp0
            0x00526ebe      f22e44230020   fmul.s 0x20(a6), fp0
            0x00526ec4      f22e64000014   fmove.s fp0, 0x14(a6)
            0x00526eca      4a2e0012       tst.b 0x12(a6)
        ┌─< 0x00526ece      670c           beq.b 0x526edc
        │   0x00526ed0      f22e441a0014   fneg.s 0x14(a6), fp0
        │   0x00526ed6      f22e64000014   fmove.s fp0, 0x14(a6)
        └─> 0x00526edc      f228440000f0   fmove.s 0xf0(a0), fp0
            0x00526ee2      f22e44230014   fmul.s 0x14(a6), fp0
            0x00526ee8      f228640000f0   fmove.s fp0, 0xf0(a0)
            0x00526eee      f22844000100   fmove.s 0x100(a0), fp0
            0x00526ef4      f22e44230014   fmul.s 0x14(a6), fp0
            0x00526efa      f22864000100   fmove.s fp0, 0x100(a0)
            0x00526f00      f22844000110   fmove.s 0x110(a0), fp0
            0x00526f06      f22e44230014   fmul.s 0x14(a6), fp0
            0x00526f0c      f22864000110   fmove.s fp0, 0x110(a0)
            0x00526f12      f22e44000018   fmove.s 0x18(a6), fp0
            0x00526f18      f22e44230020   fmul.s 0x20(a6), fp0
            0x00526f1e      f22e64000018   fmove.s fp0, 0x18(a6)
            0x00526f24      4a2e0010       tst.b 0x10(a6)
        ┌─< 0x00526f28      670c           beq.b 0x526f36
        │   0x00526f2a      f22e441a0018   fneg.s 0x18(a6), fp0
        │   0x00526f30      f22e64000018   fmove.s fp0, 0x18(a6)
        └─> 0x00526f36      f228440000f4   fmove.s 0xf4(a0), fp0
            0x00526f3c      f22e44230018   fmul.s 0x18(a6), fp0
            0x00526f42      f228640000f4   fmove.s fp0, 0xf4(a0)
            0x00526f48      f22844000104   fmove.s 0x104(a0), fp0
            0x00526f4e      f22e44230018   fmul.s 0x18(a6), fp0
            0x00526f54      f22864000104   fmove.s fp0, 0x104(a0)
            0x00526f5a      f22844000114   fmove.s 0x114(a0), fp0
            0x00526f60      f22e44230018   fmul.s 0x18(a6), fp0
            0x00526f66      f22864000114   fmove.s fp0, 0x114(a0)
            0x00526f6c      f228440000f8   fmove.s 0xf8(a0), fp0
            0x00526f72      f22e44230020   fmul.s 0x20(a6), fp0
            0x00526f78      f228640000f8   fmove.s fp0, 0xf8(a0)
            0x00526f7e      f22844000108   fmove.s 0x108(a0), fp0
            0x00526f84      f22e44230020   fmul.s 0x20(a6), fp0
            0x00526f8a      f22864000108   fmove.s fp0, 0x108(a0)
            0x00526f90      f22844000118   fmove.s 0x118(a0), fp0
            0x00526f96      f22e44230020   fmul.s 0x20(a6), fp0
            0x00526f9c      f22864000118   fmove.s fp0, 0x118(a0)
            0x00526fa2      4227           clr.b -(a7)
            0x00526fa4      48680138       pea.l 0x138(a0)
            0x00526fa8      486800f0       pea.l 0xf0(a0)
            0x00526fac      48680210       pea.l 0x210(a0)
            0x00526fb0      4eb90067a48a   jsr THREEDMAV.multiply_transf
            0x00526fb6      defc000e       adda.w 0xe, a7
            0x00526fba      4a2e0040       tst.b 0x40(a6)
        ┌─< 0x00526fbe      6704           beq.b 0x526fc4
        │   0x00526fc0      7e00           moveq 0x0, d7
       ┌──< 0x00526fc2      6002           bra.b 0x526fc6
       │└─> 0x00526fc4      7e01           moveq 0x1, d7
       └──> 0x00526fc6      1f07           move.b d7, -(a7)
            0x00526fc8      4227           clr.b -(a7)
            0x00526fca      3f2e0042       move.w 0x42(a6), -(a7)
            0x00526fce      2f2efffa       move.l -0x6(a6), -(a7)
            0x00526fd2      486effe0       pea.l -0x20(a6)
            0x00526fd6      1f2e002e       move.b 0x2e(a6), -(a7)
            0x00526fda      1f2e002c       move.b 0x2c(a6), -(a7)
            0x00526fde      226e000c       movea.l 0xc(a6), a1
            0x00526fe2      4851           pea.l (a1)
            0x00526fe4      4eb900528fc8   jsr BRUSH2COM.br_size_3d
            0x00526fea      defc0016       adda.w 0x16, a7
            0x00526fee      226e0008       movea.l 0x8(a6), a1
            0x00526ff2      12a802f1       move.b 0x2f1(a0), (a1)
            0x00526ff6      486efffa       pea.l -0x6(a6)
            0x00526ffa      48780720       pea.l 0x720
            0x00526ffe      4eb900403b98   jsr p_Dispos
            0x00527004      504f           addq.w 0x8, a7
            0x00527006      f21fd080       fmovem (a7)+, fp0
            0x0052700a      4cdf1fbf       movem.l (a7)+, d0-d5/d7/a0-a4
            0x0052700e      4e5e           unlk a6
            0x00527010      4e75           rts
┌ 136: BRUSH2COM.flush_src_image ();
│           0x00527012      4e56ffe0       link.w a6, 0xffe0
│           0x00527016      bfd5           cmpa.l (a5), a7
│       ┌─< 0x00527018      6206           bhi.b 0x527020
│       │   0x0052701a      44fc0002       move.w 0x2, ccr
│       │   0x0052701e      4e76           trapv
│       └─> 0x00527020      defc001c       adda.w 0x1c, a7
│           0x00527024      48e700e0       movem.l a0-a2, -(a7)
│           0x00527028      43f90083fcf9   lea.l 0x83fcf9, a1
│           0x0052702e      45f90083fcf0   lea.l 0x83fcf0, a2
│           0x00527034      4a11           tst.b (a1)
│       ┌─< 0x00527036      6714           beq.b 0x52704c
│       │   0x00527038      487af4c3       pea.l 0x5264fd(pc)
│       │   0x0052703c      48780010       pea.l 0x10
│       │   0x00527040      2f17           move.l (a7), -(a7)
│       │   0x00527042      4eb9004047ea   jsr p_wts_o
│       │   0x00527048      defc000c       adda.w 0xc, a7
│      ┌└─> 0x0052704c      2052           movea.l (a2), a0
│      ╎    0x0052704e      b0fc0001       cmpa.w 0x1, a0
│      ╎┌─< 0x00527052      6734           beq.b 0x527088
│      ╎│   0x00527054      4a11           tst.b (a1)
│     ┌───< 0x00527056      6710           beq.b 0x527068
│     │╎│   0x00527058      1f3c002e       move.b 0x2e, -(a7)
│     │╎│   0x0052705c      48780001       pea.l 0x1
│     │╎│   0x00527060      4eb9004048b4   jsr p_wtc_o
│     │╎│   0x00527066      5c4f           addq.w 0x6, a7
│     └───> 0x00527068      2d48fffc       move.l a0, -0x4(a6)
│      ╎│   0x0052706c      b1e8fffc       cmpa.l -0x4(a0), a0
│     ┌───< 0x00527070      6702           beq.b 0x527074
│     │╎│   0x00527072      4e4d           trap 0xd
│     └───> 0x00527074      2490           move.l (a0), (a2)
│      ╎│   0x00527076      486efffc       pea.l -0x4(a6)
│      ╎│   0x0052707a      48780040       pea.l 0x40
│      ╎│   0x0052707e      4eb900403b98   jsr p_Dispos
│      ╎│   0x00527084      504f           addq.w 0x8, a7
│      └──< 0x00527086      60c4           bra.b 0x52704c
│       └─> 0x00527088      4a11           tst.b (a1)
│       ┌─< 0x0052708a      6706           beq.b 0x527092
│       │   0x0052708c      4eb900404946   jsr p_wtln_o
│       └─> 0x00527092      4cdf0700       movem.l (a7)+, a0-a2
│           0x00527096      4e5e           unlk a6
└           0x00527098      4e75           rts
┌ 24: BRUSH2COM.same_src ();
│           0x0052709a      4e56fdb6       link.w a6, 0xfdb6
│           0x0052709e      bfd5           cmpa.l (a5), a7
│       ┌─< 0x005270a0      6206           bhi.b 0x5270a8
│       │   0x005270a2      44fc0002       move.w 0x2, ccr
│       │   0x005270a6      4e76           trapv
│       └─> 0x005270a8      defc0248       adda.w 0x248, a7
│           0x005270ac      48e7f1f8       movem.l d0-d3/d7/a0-a4, -(a7)
│           0x005270b0      f227e001       fmovem fp0, -(a7)
            0x005270b4      47f9004047ea   lea.l p_wts_o, a3
            0x005270ba      49ee0012       lea.l 0x12(a6), a4
            0x005270be      720c           moveq 0xc, d1
            0x005270c0      7400           moveq 0x0, d2
            0x005270c2      760a           moveq 0xa, d3
            0x005270c4      206e0018       movea.l 0x18(a6), a0
            0x005270c8      1e10           move.b (a0), d7
            0x005270ca      4407           neg.b d7
            0x005270cc      5207           addq.b 0x1, d7
            0x005270ce      102e0016       move.b 0x16(a6), d0
            0x005270d2      4400           neg.b d0
            0x005270d4      5200           addq.b 0x1, d0
            0x005270d6      ce00           and.b d0, d7
        ┌─< 0x005270d8      6700013a       beq.w 0x527214
        │   0x005270dc      7e00           moveq 0x0, d7
        │   0x005270de      226e001c       movea.l 0x1c(a6), a1
        │   0x005270e2      246e0020       movea.l 0x20(a6), a2
        │   0x005270e6      f22944000014   fmove.s 0x14(a1), fp0
        │   0x005270ec      f22a44380014   fcmp.s 0x14(a2), fp0
        │   0x005270f2      f2960052       fbf.w 0x527146
        │   0x005270f6      f22a44000014   fmove.s 0x14(a2), fp0
        │   0x005270fc      f2024038       fcmp.l d2, fp0
        │   0x00527100      f2990042       fbf.w 0x527144
        │   0x00527104      f2294400000c   fmove.s 0xc(a1), fp0
        │   0x0052710a      f22a4438000c   fcmp.s 0xc(a2), fp0
        │   0x00527110      f2960034       fbf.w 0x527146
        │   0x00527114      f22944000010   fmove.s 0x10(a1), fp0
        │   0x0052711a      f22a44380010   fcmp.s 0x10(a2), fp0
        │   0x00527120      f2960024       fbf.w 0x527146
        │   0x00527124      f22944000004   fmove.s 0x4(a1), fp0
        │   0x0052712a      f22a44380004   fcmp.s 0x4(a2), fp0
        │   0x00527130      f2960014       fbf.w 0x527146
        │   0x00527134      f22944000008   fmove.s 0x8(a1), fp0
        │   0x0052713a      f22a44380008   fcmp.s 0x8(a2), fp0
        │   0x00527140      f2960004       fbf.w 0x527146
        │   0x00527144      5207           addq.b 0x1, d7
        │   0x00527146      4a07           tst.b d7
       ┌──< 0x00527148      67000090       beq.w 0x5271da
       ││   0x0052714c      7e00           moveq 0x0, d7
       ││   0x0052714e      f22944000018   fmove.s 0x18(a1), fp0
       ││   0x00527154      f22a44380018   fcmp.s 0x18(a2), fp0
       ││   0x0052715a      f296007e       fbf.w 0x5271da
       ││   0x0052715e      f22a44000018   fmove.s 0x18(a2), fp0
       ││   0x00527164      f2024038       fcmp.l d2, fp0
       ││   0x00527168      f2990020       fbf.w 0x52718a
       ││   0x0052716c      554f           subq.w 0x2, a7
       ││   0x0052716e      2f29001e       move.l 0x1e(a1), -(a7)
       ││   0x00527172      3f29001c       move.w 0x1c(a1), -(a7)
       ││   0x00527176      2f2a001e       move.l 0x1e(a2), -(a7)
       ││   0x0052717a      3f2a001c       move.w 0x1c(a2), -(a7)
       ││   0x0052717e      4eb90063c2c0   jsr COLOURCOM.same_colour
       ││   0x00527184      dec1           adda.w d1, a7
       ││   0x00527186      4a1f           tst.b (a7)+
      ┌───< 0x00527188      6750           beq.b 0x5271da
      │││   0x0052718a      f22a44000018   fmove.s 0x18(a2), fp0
      │││   0x00527190      f2024038       fcmp.l d2, fp0
      │││   0x00527194      f2990042       fbf.w 0x5271d8
      │││   0x00527198      f2294400000c   fmove.s 0xc(a1), fp0
      │││   0x0052719e      f22a4438000c   fcmp.s 0xc(a2), fp0
      │││   0x005271a4      f2960034       fbf.w 0x5271da
      │││   0x005271a8      f22944000010   fmove.s 0x10(a1), fp0
      │││   0x005271ae      f22a44380010   fcmp.s 0x10(a2), fp0
      │││   0x005271b4      f2960024       fbf.w 0x5271da
      │││   0x005271b8      f22944000004   fmove.s 0x4(a1), fp0
      │││   0x005271be      f22a44380004   fcmp.s 0x4(a2), fp0
      │││   0x005271c4      f2960014       fbf.w 0x5271da
      │││   0x005271c8      f22944000008   fmove.s 0x8(a1), fp0
      │││   0x005271ce      f22a44380008   fcmp.s 0x8(a2), fp0
      │││   0x005271d4      f2960004       fbf.w 0x5271da
      │││   0x005271d8      5207           addq.b 0x1, d7
      └└──> 0x005271da      4a07           tst.b d7
       ┌──< 0x005271dc      6736           beq.b 0x527214
       ││   0x005271de      7e00           moveq 0x0, d7
       ││   0x005271e0      2254           movea.l (a4), a1
       ││   0x005271e2      102e0010       move.b 0x10(a6), d0
       ││   0x005271e6      b011           cmp.b (a1), d0
      ┌───< 0x005271e8      662a           bne.b 0x527214
      │││   0x005271ea      1011           move.b (a1), d0
      │││   0x005271ec      4400           neg.b d0
      │││   0x005271ee      5200           addq.b 0x1, d0
      │││   0x005271f0      554f           subq.w 0x2, a7
      │││   0x005271f2      226e0008       movea.l 0x8(a6), a1
      │││   0x005271f6      2f290002       move.l 0x2(a1), -(a7)
      │││   0x005271fa      3f11           move.w (a1), -(a7)
      │││   0x005271fc      226e000c       movea.l 0xc(a6), a1
      │││   0x00527200      2f290002       move.l 0x2(a1), -(a7)
      │││   0x00527204      3f11           move.w (a1), -(a7)
      │││   0x00527206      4eb90063c2c0   jsr COLOURCOM.same_colour
      │││   0x0052720c      dec1           adda.w d1, a7
      │││   0x0052720e      801f           or.b (a7)+, d0
     ┌────< 0x00527210      6702           beq.b 0x527214
     ││││   0x00527212      5207           addq.b 0x1, d7
     └└└└─> 0x00527214      4a390083fcf9   tst.b 0x83fcf9
        ┌─< 0x0052721a      670000b0       beq.w 0x5272cc
        │   0x0052721e      9efc0100       suba.w 0x100, a7
        │   0x00527222      226e000c       movea.l 0xc(a6), a1
        │   0x00527226      2f290002       move.l 0x2(a1), -(a7)
        │   0x0052722a      3f11           move.w (a1), -(a7)
        │   0x0052722c      4eb90044e410   jsr SYSTEM_STRING.colour_str
        │   0x00527232      9efc00fa       suba.w 0xfa, a7
        │   0x00527236      226e0008       movea.l 0x8(a6), a1
        │   0x0052723a      2f290002       move.l 0x2(a1), -(a7)
        │   0x0052723e      3f11           move.w (a1), -(a7)
        │   0x00527240      4eb90044e410   jsr SYSTEM_STRING.colour_str
        │   0x00527246      5c4f           addq.w 0x6, a7
        │   0x00527248      487af2c4       pea.l 0x52650e(pc)
        │   0x0052724c      48780009       pea.l 0x9
        │   0x00527250      2f17           move.l (a7), -(a7)
        │   0x00527252      4e93           jsr (a3)                    ; fcn.0000000c
        │   0x00527254      dec3           adda.w d3, a7
        │   0x00527256      1e87           move.b d7, (a7)
        │   0x00527258      48780005       pea.l 0x5
        │   0x0052725c      4eb90040718c   jsr p_wtb_o
        │   0x00527262      5c4f           addq.w 0x6, a7
        │   0x00527264      487af2b2       pea.l 0x526518(pc)
        │   0x00527268      48780007       pea.l 0x7
        │   0x0052726c      2f17           move.l (a7), -(a7)
        │   0x0052726e      4e93           jsr (a3)                    ; fcn.0000000c
        │   0x00527270      dec1           adda.w d1, a7
        │   0x00527272      2254           movea.l (a4), a1
        │   0x00527274      1f11           move.b (a1), -(a7)
        │   0x00527276      48780005       pea.l 0x5
        │   0x0052727a      4eb90040718c   jsr p_wtb_o
        │   0x00527280      5c4f           addq.w 0x6, a7
        │   0x00527282      486f0101       pea.l 0x101(a7)
        │   0x00527286      42a7           clr.l -(a7)
        │   0x00527288      1f6f01080003   move.b 0x108(a7), 0x3(a7)
        │   0x0052728e      2f17           move.l (a7), -(a7)
        │   0x00527290      4e93           jsr (a3)                    ; fcn.0000000c
        │   0x00527292      dec1           adda.w d1, a7
        │   0x00527294      487af28a       pea.l 0x526520(pc)
        │   0x00527298      48780007       pea.l 0x7
        │   0x0052729c      2f17           move.l (a7), -(a7)
        │   0x0052729e      4e93           jsr (a3)                    ; fcn.0000000c
        │   0x005272a0      dec3           adda.w d3, a7
        │   0x005272a2      1eae0010       move.b 0x10(a6), (a7)
        │   0x005272a6      48780005       pea.l 0x5
        │   0x005272aa      4eb90040718c   jsr p_wtb_o
        │   0x005272b0      5c4f           addq.w 0x6, a7
        │   0x005272b2      486f0001       pea.l 0x1(a7)
        │   0x005272b6      42a7           clr.l -(a7)
        │   0x005272b8      1f6f00080003   move.b 0x8(a7), 0x3(a7)
        │   0x005272be      2f17           move.l (a7), -(a7)
        │   0x005272c0      4e93           jsr (a3)                    ; fcn.0000000c
        │   0x005272c2      defc020c       adda.w 0x20c, a7
        │   0x005272c6      4eb900404946   jsr p_wtln_o
        └─> 0x005272cc      226e0020       movea.l 0x20(a6), a1
            0x005272d0      246e001c       movea.l 0x1c(a6), a2
            0x005272d4      7007           moveq 0x7, d0
        ┌─> 0x005272d6      22da           move.l (a2)+, (a1)+
        └─< 0x005272d8      51c8fffc       dbra d0, 0x5272d6
            0x005272dc      32da           move.w (a2)+, (a1)+
            0x005272de      10ae0016       move.b 0x16(a6), (a0)
            0x005272e2      2054           movea.l (a4), a0
            0x005272e4      10ae0010       move.b 0x10(a6), (a0)
            0x005272e8      206e000c       movea.l 0xc(a6), a0
            0x005272ec      226e0008       movea.l 0x8(a6), a1
            0x005272f0      2091           move.l (a1), (a0)
            0x005272f2      316900040004   move.w 0x4(a1), 0x4(a0)
            0x005272f8      1d470024       move.b d7, 0x24(a6)
            0x005272fc      f21fd080       fmovem (a7)+, fp0
            0x00527300      4cdf1f8f       movem.l (a7)+, d0-d3/d7/a0-a4
            0x00527304      4e5e           unlk a6
            0x00527306      4e75           rts
┌ 204: BRUSH2COM.new_src_image ();
│           0x00527308      4e56ffd8       link.w a6, 0xffd8
│           0x0052730c      bfd5           cmpa.l (a5), a7
│       ┌─< 0x0052730e      6206           bhi.b 0x527316
│       │   0x00527310      44fc0002       move.w 0x2, ccr
│       │   0x00527314      4e76           trapv
│       └─> 0x00527316      defc0028       adda.w 0x28, a7
│           0x0052731a      48e7c0f0       movem.l d0-d1/a0-a3, -(a7)
│           0x0052731e      7201           moveq 0x1, d1
│           0x00527320      206c0016       movea.l 0x16(a4), a0
│           0x00527324      216e000c0046   move.l 0xc(a6), 0x46(a0)
│           0x0052732a      486c000a       pea.l 0xa(a4)
│           0x0052732e      48780040       pea.l 0x40
│           0x00527332      4eb900403a92   jsr p_New
│           0x00527338      504f           addq.w 0x8, a7
│           0x0052733a      226c000a       movea.l 0xa(a4), a1
│           0x0052733e      b3e9fffc       cmpa.l -0x4(a1), a1
│       ┌─< 0x00527342      6702           beq.b 0x527346
│       │   0x00527344      4e4d           trap 0xd
│       └─> 0x00527346      2281           move.l d1, (a1)
│           0x00527348      236e000c0004   move.l 0xc(a6), 0x4(a1)
│           0x0052734e      236e00080008   move.l 0x8(a6), 0x8(a1)
│           0x00527354      246c001a       movea.l 0x1a(a4), a2
│           0x00527358      b5eafffc       cmpa.l -0x4(a2), a2
│       ┌─< 0x0052735c      6702           beq.b 0x527360
│       │   0x0052735e      4e4d           trap 0xd
│       └─> 0x00527360      236a070c000c   move.l 0x70c(a2), 0xc(a1)
│           0x00527366      236a07100010   move.l 0x710(a2), 0x10(a1)
│           0x0052736c      336a07140014   move.w 0x714(a2), 0x14(a1)
│           0x00527372      47e90016       lea.l 0x16(a1), a3
│           0x00527376      41e8005a       lea.l 0x5a(a0), a0
│           0x0052737a      7007           moveq 0x7, d0
│       ┌─> 0x0052737c      26d8           move.l (a0)+, (a3)+
│       └─< 0x0052737e      51c8fffc       dbra d0, 0x52737c
│           0x00527382      36d8           move.w (a0)+, (a3)+
│           0x00527384      102a0664       move.b 0x664(a2), d0
│           0x00527388      802a0680       or.b 0x680(a2), d0
│           0x0052738c      802a069c       or.b 0x69c(a2), d0
│           0x00527390      13400038       move.b d0, 0x38(a1)
│           0x00527394      42290039       clr.b 0x39(a1)
│           0x00527398      4a2a02da       tst.b 0x2da(a2)
│       ┌─< 0x0052739c      6608           bne.b 0x5273a6
│       │   0x0052739e      102a02d9       move.b 0x2d9(a2), d0
│       │   0x005273a2      b001           cmp.b d1, d0
│      ┌──< 0x005273a4      6604           bne.b 0x5273aa
│      │└─> 0x005273a6      52290039       addq.b 0x1, 0x39(a1)
│      └──> 0x005273aa      236a02dc003a   move.l 0x2dc(a2), 0x3a(a1)
│           0x005273b0      336a02e0003e   move.w 0x2e0(a2), 0x3e(a1)
│           0x005273b6      20790083fcf0   movea.l 0x83fcf0, a0
│           0x005273bc      b0c1           cmpa.w d1, a0
│       ┌─< 0x005273be      6602           bne.b 0x5273c2
│      ┌──< 0x005273c0      6002           bra.b 0x5273c4
│      │└─> 0x005273c2      2288           move.l a0, (a1)
│      └──> 0x005273c4      23ec000a0083.  move.l 0xa(a4), 0x83fcf0.l
│           0x005273cc      4cdf0f03       movem.l (a7)+, d0-d1/a0-a3
│           0x005273d0      4e5e           unlk a6
└           0x005273d2      4e75           rts
┌ 24: BRUSH2COM.src_image_loade ();
│           0x005273d4      4e56ff80       link.w a6, 0xff80
│           0x005273d8      bfd5           cmpa.l (a5), a7
│       ┌─< 0x005273da      6206           bhi.b 0x5273e2
│       │   0x005273dc      44fc0002       move.w 0x2, ccr
│       │   0x005273e0      4e76           trapv
│       └─> 0x005273e2      defc0076       adda.w 0x76, a7
│           0x005273e6      48e7fbf8       movem.l d0-d4/d6-d7/a0-a4, -(a7)
│           0x005273ea      f227e001       fmovem fp0, -(a7)
            0x005273ee      7400           moveq 0x0, d2
            0x005273f0      7601           moveq 0x1, d3
            0x005273f2      7814           moveq 0x14, d4
            0x005273f4      7e00           moveq 0x0, d7
            0x005273f6      206e000c       movea.l 0xc(a6), a0
            0x005273fa      b1e8fffc       cmpa.l -0x4(a0), a0
        ┌─< 0x005273fe      6702           beq.b 0x527402
        │   0x00527400      4e4d           trap 0xd
        └─> 0x00527402      30280314       move.w 0x314(a0), d0
            0x00527406      c1e80312       muls.w 0x312(a0), d0
            0x0052740a      4c7c08000000.  divs.l 0x8, d0
            0x00527412      2c00           move.l d0, d6
            0x00527414      0506           btst.l d2, d6
        ┌─< 0x00527416      6702           beq.b 0x52741a
        │   0x00527418      5286           addq.l 0x1, d6
        └─> 0x0052741a      22790083fcf0   movea.l 0x83fcf0, a1
            0x00527420      b2c3           cmpa.w d3, a1
        ┌─< 0x00527422      662e           bne.b 0x527452
        │   0x00527424      2f390083fcf4   move.l 0x83fcf4, -(a7)
        │   0x0052742a      2f06           move.l d6, -(a7)
        │   0x0052742c      49eefff2       lea.l -0xe(a6), a4
        │   0x00527430      4ebafed6       jsr BRUSH2COM.new_src_image(pc)
        │   0x00527434      504f           addq.w 0x8, a7
        │   0x00527436      286efff2       movea.l -0xe(a6), a4
        │   0x0052743a      4a390083fcf9   tst.b 0x83fcf9
       ┌──< 0x00527440      6700020e       beq.w 0x527650
       ││   0x00527444      487af0e2       pea.l 0x526528(pc)
       ││   0x00527448      48780006       pea.l 0x6
      ┌───> 0x0052744c      2f17           move.l (a7), -(a7)
     ┌────< 0x0052744e      600001dc       bra.w 0x52762c
     │╎│└─> 0x00527452      554f           subq.w 0x2, a7
     │╎│    0x00527454      2f280712       move.l 0x712(a0), -(a7)
     │╎│    0x00527458      2f28070e       move.l 0x70e(a0), -(a7)
     │╎│    0x0052745c      3f28070c       move.w 0x70c(a0), -(a7)
     │╎│    0x00527460      2f3aefb6       move.l 0x526418(pc), -(a7)
     │╎│    0x00527464      2f3aefae       move.l 0x526414(pc), -(a7)
     │╎│    0x00527468      3f3aefa8       move.w 0x526412(pc), -(a7)
     │╎│    0x0052746c      4eb9005ef3d2   jsr F2_UTILITY.f_fids_eq
     │╎│    0x00527472      dec4           adda.w d4, a7
     │╎│    0x00527474      4a1f           tst.b (a7)+
     │╎│┌─< 0x00527476      672e           beq.b 0x5274a6
     │╎││   0x00527478      4ebafb98       jsr BRUSH2COM.flush_src_image(pc)
     │╎││   0x0052747c      2f390083fcf4   move.l 0x83fcf4, -(a7)
     │╎││   0x00527482      2f06           move.l d6, -(a7)
     │╎││   0x00527484      49eefff2       lea.l -0xe(a6), a4
     │╎││   0x00527488      4ebafe7e       jsr BRUSH2COM.new_src_image(pc)
     │╎││   0x0052748c      504f           addq.w 0x8, a7
     │╎││   0x0052748e      286efff2       movea.l -0xe(a6), a4
     │╎││   0x00527492      4a390083fcf9   tst.b 0x83fcf9
    ┌─────< 0x00527498      670001b6       beq.w 0x527650
    ││╎││   0x0052749c      487af091       pea.l 0x52652f(pc)
    ││╎││   0x005274a0      48780009       pea.l 0x9
    ││└───< 0x005274a4      60a6           bra.b 0x52744c
    ││ │└─> 0x005274a6      2d790083fcf0.  move.l 0x83fcf0, -0x4(a6)
    ││ │┌─> 0x005274ae      226efffc       movea.l -0x4(a6), a1
    ││ │╎   0x005274b2      b2c3           cmpa.w d3, a1
    ││┌───< 0x005274b4      6744           beq.b 0x5274fa
    ││││╎   0x005274b6      4a07           tst.b d7
   ┌──────< 0x005274b8      6640           bne.b 0x5274fa
   │││││╎   0x005274ba      b3e9fffc       cmpa.l -0x4(a1), a1
  ┌───────< 0x005274be      6702           beq.b 0x5274c2
  ││││││╎   0x005274c0      4e4d           trap 0xd
  └───────> 0x005274c2      554f           subq.w 0x2, a7
   │││││╎   0x005274c4      246e000c       movea.l 0xc(a6), a2
   │││││╎   0x005274c8      b5eafffc       cmpa.l -0x4(a2), a2
  ┌───────< 0x005274cc      6702           beq.b 0x5274d0
  ││││││╎   0x005274ce      4e4d           trap 0xd
  └───────> 0x005274d0      2f2a0712       move.l 0x712(a2), -(a7)
   │││││╎   0x005274d4      2f2a070e       move.l 0x70e(a2), -(a7)
   │││││╎   0x005274d8      3f2a070c       move.w 0x70c(a2), -(a7)
   │││││╎   0x005274dc      2f290012       move.l 0x12(a1), -(a7)
   │││││╎   0x005274e0      2f29000e       move.l 0xe(a1), -(a7)
   │││││╎   0x005274e4      3f29000c       move.w 0xc(a1), -(a7)
   │││││╎   0x005274e8      4eb9005ef3d2   jsr F2_UTILITY.f_fids_eq
   │││││╎   0x005274ee      dec4           adda.w d4, a7
   │││││╎   0x005274f0      1e1f           move.b (a7)+, d7
  ┌───────< 0x005274f2      6604           bne.b 0x5274f8
  ││││││╎   0x005274f4      2d51fffc       move.l (a1), -0x4(a6)
  └─────└─< 0x005274f8      60b4           bra.b 0x5274ae
   └──└───> 0x005274fa      4a07           tst.b d7
    ││ │┌─< 0x005274fc      670000bc       beq.w 0x5275ba
    ││ ││   0x00527500      246e0008       movea.l 0x8(a6), a2
    ││ ││   0x00527504      b3e9fffc       cmpa.l -0x4(a1), a1
    ││┌───< 0x00527508      6702           beq.b 0x52750c
    │││││   0x0052750a      4e4d           trap 0xd
    ││└───> 0x0052750c      256900040046   move.l 0x4(a1), 0x46(a2)
    ││ ││   0x00527512      266e000c       movea.l 0xc(a6), a3
    ││ ││   0x00527516      b7ebfffc       cmpa.l -0x4(a3), a3
    ││┌───< 0x0052751a      6702           beq.b 0x52751e
    │││││   0x0052751c      4e4d           trap 0xd
    ││└───> 0x0052751e      554f           subq.w 0x2, a7
    ││ ││   0x00527520      48690016       pea.l 0x16(a1)
    ││ ││   0x00527524      486a005a       pea.l 0x5a(a2)
    ││ ││   0x00527528      48690038       pea.l 0x38(a1)
    ││ ││   0x0052752c      4227           clr.b -(a7)
    ││ ││   0x0052752e      4a2b0664       tst.b 0x664(a3)
    ││┌───< 0x00527532      660c           bne.b 0x527540
    │││││   0x00527534      4a2b0680       tst.b 0x680(a3)
   ┌──────< 0x00527538      6606           bne.b 0x527540
   ││││││   0x0052753a      4a2b069c       tst.b 0x69c(a3)
  ┌───────< 0x0052753e      6702           beq.b 0x527542
  │└──└───> 0x00527540      5217           addq.b 0x1, (a7)
  └───────> 0x00527542      48690039       pea.l 0x39(a1)
    ││ ││   0x00527546      4227           clr.b -(a7)
    ││ ││   0x00527548      4a2b02da       tst.b 0x2da(a3)
    ││┌───< 0x0052754c      6608           bne.b 0x527556
    │││││   0x0052754e      102b02d9       move.b 0x2d9(a3), d0
    │││││   0x00527552      b003           cmp.b d3, d0
   ┌──────< 0x00527554      6602           bne.b 0x527558
   │││└───> 0x00527556      5217           addq.b 0x1, (a7)
   └──────> 0x00527558      4869003a       pea.l 0x3a(a1)
    ││ ││   0x0052755c      486b02dc       pea.l 0x2dc(a3)
    ││ ││   0x00527560      4ebafb38       jsr BRUSH2COM.same_src(pc)
    ││ ││   0x00527564      defc001c       adda.w 0x1c, a7
    ││ ││   0x00527568      4a1f           tst.b (a7)+
    ││┌───< 0x0052756a      673c           beq.b 0x5275a8
    │││││   0x0052756c      f2024000       fmove.l d2, fp0
    │││││   0x00527570      f22a6400006e   fmove.s fp0, 0x6e(a2)
    │││││   0x00527576      f2024000       fmove.l d2, fp0
    │││││   0x0052757a      f22a64000072   fmove.s fp0, 0x72(a2)
    │││││   0x00527580      426a0052       clr.w 0x52(a2)
    │││││   0x00527584      4a390083fcf9   tst.b 0x83fcf9
   ┌──────< 0x0052758a      670000c4       beq.w 0x527650
   ││││││   0x0052758e      487aefa9       pea.l 0x526539(pc)
  ┌───────> 0x00527592      48780007       pea.l 0x7
  ╎││││││   0x00527596      2f17           move.l (a7), -(a7)
  ╎││││││   0x00527598      4eb9004047ea   jsr p_wts_o
  ╎││││││   0x0052759e      504f           addq.w 0x8, a7
  ╎││││││   0x005275a0      2eaa0046       move.l 0x46(a2), (a7)
  ────────< 0x005275a4      60000098       bra.w 0x52763e
  ╎│││└───> 0x005275a8      7e00           moveq 0x0, d7
  ╎│││ ││   0x005275aa      4a390083fcf9   tst.b 0x83fcf9
  ╎│││┌───< 0x005275b0      6700009e       beq.w 0x527650
  ╎││││││   0x005275b4      487aef8b       pea.l 0x526541(pc)
  └───────< 0x005275b8      60d8           bra.b 0x527592
   │││││└─> 0x005275ba      22790083fcf0   movea.l 0x83fcf0, a1
   │││││    0x005275c0      b3e9fffc       cmpa.l -0x4(a1), a1
   │││││┌─< 0x005275c4      6702           beq.b 0x5275c8
   ││││││   0x005275c6      4e4d           trap 0xd
   │││││└─> 0x005275c8      20290004       move.l 0x4(a1), d0
   │││││    0x005275cc      d0a90008       add.l 0x8(a1), d0
   │││││    0x005275d0      2200           move.l d0, d1
   │││││    0x005275d2      d286           add.l d6, d1
   │││││    0x005275d4      0c8100020000   cmpi.l 0x20000, d1
   │││││┌─< 0x005275da      6c24           bge.b 0x527600
   ││││││   0x005275dc      2f00           move.l d0, -(a7)
   ││││││   0x005275de      2f06           move.l d6, -(a7)
   ││││││   0x005275e0      49eefff2       lea.l -0xe(a6), a4
   ││││││   0x005275e4      4ebafd22       jsr BRUSH2COM.new_src_image(pc)
   ││││││   0x005275e8      504f           addq.w 0x8, a7
   ││││││   0x005275ea      286efff2       movea.l -0xe(a6), a4
   ││││││   0x005275ee      4a390083fcf9   tst.b 0x83fcf9
  ┌───────< 0x005275f4      675a           beq.b 0x527650
  │││││││   0x005275f6      487aef51       pea.l 0x526549(pc)
  │││││││   0x005275fa      48780004       pea.l 0x4
  ────────< 0x005275fe      602a           bra.b 0x52762a
  ││││││└─> 0x00527600      4ebafa10       jsr BRUSH2COM.flush_src_image(pc)
  ││││││    0x00527604      2f390083fcf4   move.l 0x83fcf4, -(a7)
  ││││││    0x0052760a      2f06           move.l d6, -(a7)
  ││││││    0x0052760c      49eefff2       lea.l -0xe(a6), a4
  ││││││    0x00527610      4ebafcf6       jsr BRUSH2COM.new_src_image(pc)
  ││││││    0x00527614      504f           addq.w 0x8, a7
  ││││││    0x00527616      286efff2       movea.l -0xe(a6), a4
  ││││││    0x0052761a      4a390083fcf9   tst.b 0x83fcf9
  ││││││┌─< 0x00527620      672e           beq.b 0x527650
  │││││││   0x00527622      487aef2a       pea.l 0x52654e(pc)
  │││││││   0x00527626      48780008       pea.l 0x8
  ────────> 0x0052762a      2f17           move.l (a7), -(a7)
  │││└────> 0x0052762c      4eb9004047ea   jsr p_wts_o
  │││ │││   0x00527632      defc000c       adda.w 0xc, a7
  │││ │││   0x00527636      226e0008       movea.l 0x8(a6), a1
  │││ │││   0x0052763a      2f290046       move.l 0x46(a1), -(a7)
  ────────> 0x0052763e      48780000       pea.l 0x0
  │││ │││   0x00527642      4eb9004070e4   jsr p_wti_o
  │││ │││   0x00527648      504f           addq.w 0x8, a7
  │││ │││   0x0052764a      4eb900404946   jsr p_wtln_o
  └└└─└└└─> 0x00527650      206e0008       movea.l 0x8(a6), a0
            0x00527654      11470044       move.b d7, 0x44(a0)
            0x00527658      44280044       neg.b 0x44(a0)
            0x0052765c      52280044       addq.b 0x1, 0x44(a0)
            0x00527660      2d6efffc0010   move.l -0x4(a6), 0x10(a6)
            0x00527666      f21fd080       fmovem (a7)+, fp0
            0x0052766a      4cdf1fdf       movem.l (a7)+, d0-d4/d6-d7/a0-a4
            0x0052766e      4e5e           unlk a6
            0x00527670      4e75           rts
            0x00527672      .byte 0x28
            0x00527673      .byte 0x54
┌ 44: BRUSH2COM.send_lights ();
│           0x00527674      4e56ffd6       link.w a6, 0xffd6
│           0x00527678      bfd5           cmpa.l (a5), a7
│       ┌─< 0x0052767a      6206           bhi.b 0x527682
│       │   0x0052767c      44fc0002       move.w 0x2, ccr
│       │   0x00527680      4e76           trapv
│       └─> 0x00527682      defc0026       adda.w 0x26, a7
│           0x00527686      48e7c1c0       movem.l d0-d1/d7/a0-a1, -(a7)
│           0x0052768a      43f90052b4e0   lea.l t_integer, a1
│           0x00527690      2054           movea.l (a4), a0
│           0x00527692      b1e8fffc       cmpa.l -0x4(a0), a0
│       ┌─< 0x00527696      6702           beq.b 0x52769a
│       │   0x00527698      4e4d           trap 0xd
│       └─> 0x0052769a      7e00           moveq 0x0, d7
│       ┌─> 0x0052769c      701c           moveq 0x1c, d0
│       ╎   0x0052769e      4c070800       muls.l d7, d0
        ╎   0x005276a2      123009200664   move.b 0x664(a0, d0.l), d1
        ╎   0x005276a8      49c1           extb.l d1
        ╎   0x005276aa      2f01           move.l d1, -(a7)
        ╎   0x005276ac      4e91           jsr (a1)                    ; fcn.0000000a
        ╎   0x005276ae      584f           addq.w 0x4, a7
        ╎   0x005276b0      487009200666   pea.l 0x666(a0, d0.l)
        ╎   0x005276b6      3f3c0005       move.w 0x5, -(a7)
        ╎   0x005276ba      4eb90052b594   jsr t_reals
        ╎   0x005276c0      5c4f           addq.w 0x6, a7
        ╎   0x005276c2      32300920067a   move.w 0x67a(a0, d0.l), d1
        ╎   0x005276c8      48c1           ext.l d1
        ╎   0x005276ca      2f01           move.l d1, -(a7)
        ╎   0x005276cc      4e91           jsr (a1)                    ; fcn.0000000a
        ╎   0x005276ce      584f           addq.w 0x4, a7
        ╎   0x005276d0      32300920067c   move.w 0x67c(a0, d0.l), d1
        ╎   0x005276d6      48c1           ext.l d1
        ╎   0x005276d8      2f01           move.l d1, -(a7)
        ╎   0x005276da      4e91           jsr (a1)                    ; fcn.0000000a
        ╎   0x005276dc      584f           addq.w 0x4, a7
        ╎   0x005276de      32300920067e   move.w 0x67e(a0, d0.l), d1
        ╎   0x005276e4      48c1           ext.l d1
        ╎   0x005276e6      2f01           move.l d1, -(a7)
        ╎   0x005276e8      4e91           jsr (a1)                    ; fcn.0000000a
        ╎   0x005276ea      584f           addq.w 0x4, a7
        ╎   0x005276ec      5287           addq.l 0x1, d7
        ╎   0x005276ee      0c8700000002   cmpi.l 0x2, d7
        └─< 0x005276f4      6fa6           ble.b 0x52769c              ; BRUSH2COM.send_lights+0x28
            0x005276f6      4cdf0383       movem.l (a7)+, d0-d1/d7/a0-a1
            0x005276fa      4e5e           unlk a6
            0x005276fc      4e75           rts
┌ 24: BRUSH2COM.clip_x ();
│           0x005276fe      4e56ffc4       link.w a6, 0xffc4
│           0x00527702      bfd5           cmpa.l (a5), a7
│       ┌─< 0x00527704      6206           bhi.b 0x52770c
│       │   0x00527706      44fc0002       move.w 0x2, ccr
│       │   0x0052770a      4e76           trapv
│       └─> 0x0052770c      defc003c       adda.w 0x3c, a7
│           0x00527710      48e7e0f0       movem.l d0-d2/a0-a3, -(a7)
│           0x00527714      f227e001       fmovem fp0, -(a7)
            0x00527718      47ee000a       lea.l 0xa(a6), a3
            0x0052771c      7401           moveq 0x1, d2
            0x0052771e      2054           movea.l (a4), a0
            0x00527720      22680010       movea.l 0x10(a0), a1
            0x00527724      3011           move.w (a1), d0
            0x00527726      48c0           ext.l d0
            0x00527728      f2134400       fmove.s (a3), fp0
            0x0052772c      f2004038       fcmp.l d0, fp0
            0x00527730      f29b001a       fbf.w 0x52774c
            0x00527734      2450           movea.l (a0), a2
            0x00527736      b5eafffc       cmpa.l -0x4(a2), a2
        ┌─< 0x0052773a      6702           beq.b 0x52773e
        │   0x0052773c      4e4d           trap 0xd
        └─> 0x0052773e      154202f1       move.b d2, 0x2f1(a2)
            0x00527742      f2004000       fmove.l d0, fp0
        ┌─> 0x00527746      f2136400       fmove.s fp0, (a3)
       ┌──< 0x0052774a      6052           bra.b 0x52779e
       │╎   0x0052774c      32290004       move.w 0x4(a1), d1
       │╎   0x00527750      48c1           ext.l d1
       │╎   0x00527752      d280           add.l d0, d1
       │╎   0x00527754      f2134400       fmove.s (a3), fp0
       │╎   0x00527758      f2014038       fcmp.l d1, fp0
       │╎   0x0052775c      f29d0016       fbf.w 0x527774
       │╎   0x00527760      2450           movea.l (a0), a2
       │╎   0x00527762      b5eafffc       cmpa.l -0x4(a2), a2
      ┌───< 0x00527766      6702           beq.b 0x52776a
      ││╎   0x00527768      4e4d           trap 0xd
      └───> 0x0052776a      154202f1       move.b d2, 0x2f1(a2)
       │╎   0x0052776e      f2014000       fmove.l d1, fp0
       │└─< 0x00527772      60d2           bra.b 0x527746
       │    0x00527774      f2134400       fmove.s (a3), fp0
       │    0x00527778      f2004038       fcmp.l d0, fp0
       │    0x0052777c      f29d0020       fbf.w 0x52779e
       │    0x00527780      f2134400       fmove.s (a3), fp0
       │    0x00527784      f2014038       fcmp.l d1, fp0
       │    0x00527788      f29b0014       fbf.w 0x52779e
       │    0x0052778c      302e0008       move.w 0x8(a6), d0
       │    0x00527790      48c0           ext.l d0
       │    0x00527792      f2134400       fmove.s (a3), fp0
       │    0x00527796      f2004022       fadd.l d0, fp0
       │    0x0052779a      f2136400       fmove.s fp0, (a3)
       └──> 0x0052779e      594f           subq.w 0x4, a7
            0x005277a0      2f13           move.l (a3), -(a7)
            0x005277a2      4eb9004081f8   jsr p_trunc
            0x005277a8      584f           addq.w 0x4, a7
            0x005277aa      3d6f0002000e   move.w 0x2(a7), 0xe(a6)
            0x005277b0      584f           addq.w 0x4, a7
            0x005277b2      f21fd080       fmovem (a7)+, fp0
            0x005277b6      4cdf0f07       movem.l (a7)+, d0-d2/a0-a3
            0x005277ba      4e5e           unlk a6
            0x005277bc      4e75           rts
┌ 24: BRUSH2COM.clip_y ();
│           0x005277be      4e56ffc4       link.w a6, 0xffc4
│           0x005277c2      bfd5           cmpa.l (a5), a7
│       ┌─< 0x005277c4      6206           bhi.b 0x5277cc
│       │   0x005277c6      44fc0002       move.w 0x2, ccr
│       │   0x005277ca      4e76           trapv
│       └─> 0x005277cc      defc003c       adda.w 0x3c, a7
│           0x005277d0      48e7e0f0       movem.l d0-d2/a0-a3, -(a7)
│           0x005277d4      f227e001       fmovem fp0, -(a7)
            0x005277d8      47ee000a       lea.l 0xa(a6), a3
            0x005277dc      7401           moveq 0x1, d2
            0x005277de      2054           movea.l (a4), a0
            0x005277e0      22680010       movea.l 0x10(a0), a1
            0x005277e4      30290002       move.w 0x2(a1), d0
            0x005277e8      48c0           ext.l d0
            0x005277ea      f2134400       fmove.s (a3), fp0
            0x005277ee      f2004038       fcmp.l d0, fp0
            0x005277f2      f29b001a       fbf.w 0x52780e
            0x005277f6      2450           movea.l (a0), a2
            0x005277f8      b5eafffc       cmpa.l -0x4(a2), a2
        ┌─< 0x005277fc      6702           beq.b 0x527800
        │   0x005277fe      4e4d           trap 0xd
        └─> 0x00527800      154202f1       move.b d2, 0x2f1(a2)
            0x00527804      f2004000       fmove.l d0, fp0
        ┌─> 0x00527808      f2136400       fmove.s fp0, (a3)
       ┌──< 0x0052780c      6052           bra.b 0x527860
       │╎   0x0052780e      32290006       move.w 0x6(a1), d1
       │╎   0x00527812      48c1           ext.l d1
       │╎   0x00527814      d280           add.l d0, d1
       │╎   0x00527816      f2134400       fmove.s (a3), fp0
       │╎   0x0052781a      f2014038       fcmp.l d1, fp0
       │╎   0x0052781e      f29d0016       fbf.w 0x527836
       │╎   0x00527822      2450           movea.l (a0), a2
       │╎   0x00527824      b5eafffc       cmpa.l -0x4(a2), a2
      ┌───< 0x00527828      6702           beq.b 0x52782c
      ││╎   0x0052782a      4e4d           trap 0xd
      └───> 0x0052782c      154202f1       move.b d2, 0x2f1(a2)
       │╎   0x00527830      f2014000       fmove.l d1, fp0
       │└─< 0x00527834      60d2           bra.b 0x527808
       │    0x00527836      f2134400       fmove.s (a3), fp0
       │    0x0052783a      f2004038       fcmp.l d0, fp0
       │    0x0052783e      f29d0020       fbf.w 0x527860
       │    0x00527842      f2134400       fmove.s (a3), fp0
       │    0x00527846      f2014038       fcmp.l d1, fp0
       │    0x0052784a      f29b0014       fbf.w 0x527860
       │    0x0052784e      302e0008       move.w 0x8(a6), d0
       │    0x00527852      48c0           ext.l d0
       │    0x00527854      f2134400       fmove.s (a3), fp0
       │    0x00527858      f2004022       fadd.l d0, fp0
       │    0x0052785c      f2136400       fmove.s fp0, (a3)
       └──> 0x00527860      594f           subq.w 0x4, a7
            0x00527862      2f13           move.l (a3), -(a7)
            0x00527864      4eb9004081f8   jsr p_trunc
            0x0052786a      584f           addq.w 0x4, a7
            0x0052786c      3d6f0002000e   move.w 0x2(a7), 0xe(a6)
            0x00527872      584f           addq.w 0x4, a7
            0x00527874      f21fd080       fmovem (a7)+, fp0
            0x00527878      4cdf0f07       movem.l (a7)+, d0-d2/a0-a3
            0x0052787c      4e5e           unlk a6
            0x0052787e      4e75           rts
┌ 24: BRUSH2COM.image_readside ();
│           0x00527880      4e56ff72       link.w a6, 0xff72
│           0x00527884      bfd5           cmpa.l (a5), a7
│       ┌─< 0x00527886      6206           bhi.b 0x52788e
│       │   0x00527888      44fc0002       move.w 0x2, ccr
│       │   0x0052788c      4e76           trapv
│       └─> 0x0052788e      defc005a       adda.w 0x5a, a7
│           0x00527892      48e7fff8       movem.l d0-d7/a0-a4, -(a7)
│           0x00527896      f227e001       fmovem fp0, -(a7)
            0x0052789a      7402           moveq 0x2, d2
            0x0052789c      7608           moveq 0x8, d3
            0x0052789e      7801           moveq 0x1, d4
            0x005278a0      7a03           moveq 0x3, d5
            0x005278a2      7c06           moveq 0x6, d6
            0x005278a4      7e05           moveq 0x5, d7
            0x005278a6      206e0008       movea.l 0x8(a6), a0
            0x005278aa      1145007c       move.b d5, 0x7c(a0)
            0x005278ae      2254           movea.l (a4), a1
            0x005278b0      4a290014       tst.b 0x14(a1)
        ┌─< 0x005278b4      6616           bne.b 0x5278cc
        │   0x005278b6      10290016       move.b 0x16(a1), d0
        │   0x005278ba      b002           cmp.b d2, d0
       ┌──< 0x005278bc      6606           bne.b 0x5278c4
       ││   0x005278be      1146004e       move.b d6, 0x4e(a0)
      ┌───< 0x005278c2      603a           bra.b 0x5278fe
      │└──> 0x005278c4      117c0007004e   move.b 0x7, 0x4e(a0)
      │┌──< 0x005278ca      6032           bra.b 0x5278fe
      ││└─> 0x005278cc      10290014       move.b 0x14(a1), d0
      ││    0x005278d0      b004           cmp.b d4, d0
      ││┌─< 0x005278d2      6616           bne.b 0x5278ea
      │││   0x005278d4      10290016       move.b 0x16(a1), d0
      │││   0x005278d8      b002           cmp.b d2, d0
     ┌────< 0x005278da      6606           bne.b 0x5278e2
     ││││   0x005278dc      1143004e       move.b d3, 0x4e(a0)
    ┌─────< 0x005278e0      601c           bra.b 0x5278fe
    │└────> 0x005278e2      117c0009004e   move.b 0x9, 0x4e(a0)
    │┌────< 0x005278e8      6014           bra.b 0x5278fe
    ││││└─> 0x005278ea      10290016       move.b 0x16(a1), d0
    ││││    0x005278ee      b002           cmp.b d2, d0
    ││││┌─< 0x005278f0      6608           bne.b 0x5278fa
    │││││   0x005278f2      117c0004004e   move.b 0x4, 0x4e(a0)
   ┌──────< 0x005278f8      6004           bra.b 0x5278fe
   │││││└─> 0x005278fa      1147004e       move.b d7, 0x4e(a0)
   └└└└└──> 0x005278fe      246e000c       movea.l 0xc(a6), a2
            0x00527902      302a0004       move.w 0x4(a2), d0
            0x00527906      48c0           ext.l d0
            0x00527908      81c3           divs.w d3, d0
            0x0052790a      32280014       move.w 0x14(a0), d1
            0x0052790e      48c1           ext.l d1
            0x00527910      48c0           ext.l d0
            0x00527912      4480           neg.l d0
            0x00527914      d081           add.l d1, d0
            0x00527916      3d40ffcc       move.w d0, -0x34(a6)
            0x0052791a      302a0006       move.w 0x6(a2), d0
            0x0052791e      48c0           ext.l d0
            0x00527920      81c3           divs.w d3, d0
            0x00527922      32280016       move.w 0x16(a0), d1
            0x00527926      48c1           ext.l d1
            0x00527928      48c0           ext.l d0
            0x0052792a      4480           neg.l d0
            0x0052792c      d081           add.l d1, d0
            0x0052792e      3d40ffce       move.w d0, -0x32(a6)
            0x00527932      2651           movea.l (a1), a3
            0x00527934      b7ebfffc       cmpa.l -0x4(a3), a3
        ┌─< 0x00527938      6702           beq.b 0x52793c
        │   0x0052793a      4e4d           trap 0xd
        └─> 0x0052793c      302b0022       move.w 0x22(a3), d0
            0x00527940      48c0           ext.l d0
            0x00527942      f2004000       fmove.l d0, fp0
            0x00527946      f2034020       fdiv.l d3, fp0
            0x0052794a      f228640000a2   fmove.s fp0, 0xa2(a0)
            0x00527950      302b0024       move.w 0x24(a3), d0
            0x00527954      48c0           ext.l d0
            0x00527956      f2004000       fmove.l d0, fp0
            0x0052795a      f2034020       fdiv.l d3, fp0
            0x0052795e      f228640000a6   fmove.s fp0, 0xa6(a0)
            0x00527964      4eb90052b5d0   jsr t_flush
            0x0052796a      48780015       pea.l 0x15
            0x0052796e      4eb90052b4e0   jsr t_integer
            0x00527974      584f           addq.w 0x4, a7
            0x00527976      1010           move.b (a0), d0
            0x00527978      49c0           extb.l d0
            0x0052797a      2f00           move.l d0, -(a7)
            0x0052797c      4eb90052b4e0   jsr t_integer
            0x00527982      584f           addq.w 0x4, a7
            0x00527984      1028004f       move.b 0x4f(a0), d0
            0x00527988      49c0           extb.l d0
            0x0052798a      2f00           move.l d0, -(a7)
            0x0052798c      4eb90052b4e0   jsr t_integer
            0x00527992      584f           addq.w 0x4, a7
            0x00527994      48680010       pea.l 0x10(a0)
            0x00527998      3f02           move.w d2, -(a7)
            0x0052799a      4eb90052b512   jsr t_words
            0x005279a0      544f           addq.w 0x2, a7
            0x005279a2      2ea80046       move.l 0x46(a0), (a7)
            0x005279a6      4eb90052b4e0   jsr t_integer
            0x005279ac      584f           addq.w 0x4, a7
            0x005279ae      48680050       pea.l 0x50(a0)
            0x005279b2      3f07           move.w d7, -(a7)
            0x005279b4      4eb90052b512   jsr t_words
            0x005279ba      5c4f           addq.w 0x6, a7
            0x005279bc      4868005e       pea.l 0x5e(a0)
            0x005279c0      3f06           move.w d6, -(a7)
            0x005279c2      4eb90052b594   jsr t_reals
            0x005279c8      5c4f           addq.w 0x6, a7
            0x005279ca      30280076       move.w 0x76(a0), d0
            0x005279ce      48c0           ext.l d0
            0x005279d0      2f00           move.l d0, -(a7)
            0x005279d2      4eb90052b4e0   jsr t_integer
            0x005279d8      584f           addq.w 0x4, a7
            0x005279da      30280078       move.w 0x78(a0), d0
            0x005279de      48c0           ext.l d0
            0x005279e0      2f00           move.l d0, -(a7)
            0x005279e2      4eb90052b4e0   jsr t_integer
            0x005279e8      584f           addq.w 0x4, a7
            0x005279ea      3028007a       move.w 0x7a(a0), d0
            0x005279ee      48c0           ext.l d0
            0x005279f0      2f00           move.l d0, -(a7)
            0x005279f2      4eb90052b4e0   jsr t_integer
            0x005279f8      584f           addq.w 0x4, a7
            0x005279fa      4868004a       pea.l 0x4a(a0)
            0x005279fe      3f02           move.w d2, -(a7)
            0x00527a00      4eb90052b512   jsr t_words
            0x00527a06      5c4f           addq.w 0x6, a7
            0x00527a08      48680018       pea.l 0x18(a0)
            0x00527a0c      3f02           move.w d2, -(a7)
            0x00527a0e      4eb90052b512   jsr t_words
            0x00527a14      5c4f           addq.w 0x6, a7
            0x00527a16      486800a2       pea.l 0xa2(a0)
            0x00527a1a      3f02           move.w d2, -(a7)
            0x00527a1c      4eb90052b594   jsr t_reals
            0x00527a22      5c4f           addq.w 0x6, a7
            0x00527a24      486effcc       pea.l -0x34(a6)
            0x00527a28      3f02           move.w d2, -(a7)
            0x00527a2a      4eb90052b512   jsr t_words
            0x00527a30      5c4f           addq.w 0x6, a7
            0x00527a32      48790083fbf4   pea.l 0x83fbf4
            0x00527a38      3f04           move.w d4, -(a7)
            0x00527a3a      4eb90052b594   jsr t_reals
            0x00527a40      5c4f           addq.w 0x6, a7
            0x00527a42      48790083fbe4   pea.l 0x83fbe4
            0x00527a48      3f04           move.w d4, -(a7)
            0x00527a4a      4eb90052b594   jsr t_reals
            0x00527a50      5c4f           addq.w 0x6, a7
            0x00527a52      48790083fbdc   pea.l 0x83fbdc
            0x00527a58      3f04           move.w d4, -(a7)
            0x00527a5a      4eb90052b594   jsr t_reals
            0x00527a60      5c4f           addq.w 0x6, a7
            0x00527a62      4852           pea.l (a2)
            0x00527a64      3f04           move.w d4, -(a7)
            0x00527a66      4eb90052b594   jsr t_reals
            0x00527a6c      5c4f           addq.w 0x6, a7
            0x00527a6e      486a0004       pea.l 0x4(a2)
            0x00527a72      3f02           move.w d2, -(a7)
            0x00527a74      4eb90052b512   jsr t_words
            0x00527a7a      5c4f           addq.w 0x6, a7
            0x00527a7c      486b0210       pea.l 0x210(a3)
            0x00527a80      3f3c000c       move.w 0xc, -(a7)
            0x00527a84      4eb90052b594   jsr t_reals
            0x00527a8a      5c4f           addq.w 0x6, a7
            0x00527a8c      486b02a0       pea.l 0x2a0(a3)
            0x00527a90      3f05           move.w d5, -(a7)
            0x00527a92      4eb90052b594   jsr t_reals
            0x00527a98      5c4f           addq.w 0x6, a7
            0x00527a9a      102800f1       move.b 0xf1(a0), d0
            0x00527a9e      49c0           extb.l d0
            0x00527aa0      2f00           move.l d0, -(a7)
            0x00527aa2      4eb90052b4e0   jsr t_integer
            0x00527aa8      584f           addq.w 0x4, a7
            0x00527aaa      48680024       pea.l 0x24(a0)
            0x00527aae      3f03           move.w d3, -(a7)
            0x00527ab0      4eb90052b594   jsr t_reals
            0x00527ab6      5c4f           addq.w 0x6, a7
            0x00527ab8      48680014       pea.l 0x14(a0)
            0x00527abc      3f02           move.w d2, -(a7)
            0x00527abe      4eb90052b512   jsr t_words
            0x00527ac4      5c4f           addq.w 0x6, a7
            0x00527ac6      30280014       move.w 0x14(a0), d0
            0x00527aca      48c0           ext.l d0
            0x00527acc      32280018       move.w 0x18(a0), d1
            0x00527ad0      48c1           ext.l d1
            0x00527ad2      d280           add.l d0, d1
            0x00527ad4      5381           subq.l 0x1, d1
            0x00527ad6      2f01           move.l d1, -(a7)
            0x00527ad8      4eb90052b4e0   jsr t_integer
            0x00527ade      584f           addq.w 0x4, a7
            0x00527ae0      30280016       move.w 0x16(a0), d0
            0x00527ae4      48c0           ext.l d0
            0x00527ae6      3228001a       move.w 0x1a(a0), d1
            0x00527aea      48c1           ext.l d1
            0x00527aec      d280           add.l d0, d1
            0x00527aee      5381           subq.l 0x1, d1
            0x00527af0      2f01           move.l d1, -(a7)
            0x00527af2      4eb90052b4e0   jsr t_integer
            0x00527af8      584f           addq.w 0x4, a7
            0x00527afa      30290020       move.w 0x20(a1), d0
            0x00527afe      48c0           ext.l d0
            0x00527b00      2f00           move.l d0, -(a7)
            0x00527b02      4eb90052b4e0   jsr t_integer
            0x00527b08      584f           addq.w 0x4, a7
            0x00527b0a      4ebafb66       jsr 0x527672(pc)
            0x00527b0e      286effc8       movea.l -0x38(a6), a4
            0x00527b12      f21fd080       fmovem (a7)+, fp0
            0x00527b16      4cdf1fff       movem.l (a7)+, d0-d7/a0-a4
            0x00527b1a      4e5e           unlk a6
            0x00527b1c      4e75           rts
┌ 24: BRUSH2COM.persp_readside ();
│           0x00527b1e      4e56ff58       link.w a6, 0xff58
│           0x00527b22      bfd5           cmpa.l (a5), a7
│       ┌─< 0x00527b24      6206           bhi.b 0x527b2c
│       │   0x00527b26      44fc0002       move.w 0x2, ccr
│       │   0x00527b2a      4e76           trapv
│       └─> 0x00527b2c      defc0074       adda.w 0x74, a7
│           0x00527b30      48e7f8f0       movem.l d0-d4/a0-a3, -(a7)
│           0x00527b34      f227e0e3       fmovem fp0-fp1/fp5-fp7, -(a7)
            0x00527b38      47f9004081d2   lea.l p_round, a3
            0x00527b3e      243c00001000   move.l 0x1000, d2
            0x00527b44      7607           moveq 0x7, d3
            0x00527b46      7808           moveq 0x8, d4
            0x00527b48      206e0018       movea.l 0x18(a6), a0
            0x00527b4c      226e0010       movea.l 0x10(a6), a1
            0x00527b50      30290004       move.w 0x4(a1), d0
            0x00527b54      c043           and.w d3, d0
            0x00527b56      48c0           ext.l d0
            0x00527b58      f2004000       fmove.l d0, fp0
            0x00527b5c      f23944230083.  fmul.s 0x83fbf4, fp0
            0x00527b64      f22e6400fff4   fmove.s fp0, -0xc(a6)
            0x00527b6a      30290006       move.w 0x6(a1), d0
            0x00527b6e      c043           and.w d3, d0
            0x00527b70      48c0           ext.l d0
            0x00527b72      f2004000       fmove.l d0, fp0
            0x00527b76      f23944230083.  fmul.s 0x83fbe4, fp0
            0x00527b7e      f22e6400fff8   fmove.s fp0, -0x8(a6)
            0x00527b84      246e0014       movea.l 0x14(a6), a2
            0x00527b88      f23c43800000.  fmove.l 0x1, fp7
            0x00527b90      f21247a0       fdiv.s (a2), fp7
            0x00527b94      f22847000014   fmove.s 0x14(a0), fp6
            0x00527b9a      f2284723002c   fmul.s 0x2c(a0), fp6
            0x00527ba0      f2284400001c   fmove.s 0x1c(a0), fp0
            0x00527ba6      f22844230024   fmul.s 0x24(a0), fp0
            0x00527bac      f2000328       fsub fp0, fp6
            0x00527bb0      f2001f23       fmul fp7, fp6
            0x00527bb4      f22847220014   fadd.s 0x14(a0), fp6
            0x00527bba      f2284680000c   fmove.s 0xc(a0), fp5
            0x00527bc0      f22846a30024   fmul.s 0x24(a0), fp5
            0x00527bc6      f22844000004   fmove.s 0x4(a0), fp0
            0x00527bcc      f2284423002c   fmul.s 0x2c(a0), fp0
            0x00527bd2      f20002a8       fsub fp0, fp5
            0x00527bd6      f2001ea3       fmul fp7, fp5
            0x00527bda      f22846a80004   fsub.s 0x4(a0), fp5
            0x00527be0      f23946a30083.  fmul.s 0x83fbdc, fp5
            0x00527be8      f2284400001c   fmove.s 0x1c(a0), fp0
            0x00527bee      f22844230004   fmul.s 0x4(a0), fp0
            0x00527bf4      f2284480000c   fmove.s 0xc(a0), fp1
            0x00527bfa      f22844a30014   fmul.s 0x14(a0), fp1
            0x00527c00      f200049a       fneg fp1
            0x00527c04      f20000a2       fadd fp0, fp1
            0x00527c08      f21144a3       fmul.s (a1), fp1
            0x00527c0c      f2001800       fmove fp6, fp0
            0x00527c10      f22e4423fff4   fmul.s -0xc(a6), fp0
            0x00527c16      f200001a       fneg fp0
            0x00527c1a      f2000422       fadd fp1, fp0
            0x00527c1e      f2001480       fmove fp5, fp1
            0x00527c22      f22e44a3fff8   fmul.s -0x8(a6), fp1
            0x00527c28      f200049a       fneg fp1
            0x00527c2c      f20000a2       fadd fp0, fp1
            0x00527c30      f22e6480ffd4   fmove.s fp1, -0x2c(a6)
            0x00527c36      f2284400001c   fmove.s 0x1c(a0), fp0
            0x00527c3c      f22844230020   fmul.s 0x20(a0), fp0
            0x00527c42      f22844800010   fmove.s 0x10(a0), fp1
            0x00527c48      f22844a3002c   fmul.s 0x2c(a0), fp1
            0x00527c4e      f200049a       fneg fp1
            0x00527c52      f20000a2       fadd fp0, fp1
            0x00527c56      f2001ca3       fmul fp7, fp1
            0x00527c5a      f22844a80010   fsub.s 0x10(a0), fp1
            0x00527c60      f23944a00083.  fdiv.s 0x83fbdc, fp1
            0x00527c68      f22e6480ffd8   fmove.s fp1, -0x28(a6)
            0x00527c6e      f2104400       fmove.s (a0), fp0
            0x00527c72      f2284423002c   fmul.s 0x2c(a0), fp0
            0x00527c78      f2284480000c   fmove.s 0xc(a0), fp1
            0x00527c7e      f22844a30020   fmul.s 0x20(a0), fp1
            0x00527c84      f200049a       fneg fp1
            0x00527c88      f20000a2       fadd fp0, fp1
            0x00527c8c      f2001ca3       fmul fp7, fp1
            0x00527c90      f21044a2       fadd.s (a0), fp1
            0x00527c94      f22e6480ffdc   fmove.s fp1, -0x24(a6)
            0x00527c9a      f2284400000c   fmove.s 0xc(a0), fp0
            0x00527ca0      f22844230010   fmul.s 0x10(a0), fp0
            0x00527ca6      f2284480001c   fmove.s 0x1c(a0), fp1
            0x00527cac      f21044a3       fmul.s (a0), fp1
            0x00527cb0      f200049a       fneg fp1
            0x00527cb4      f20000a2       fadd fp0, fp1
            0x00527cb8      f21144a3       fmul.s (a1), fp1
            0x00527cbc      f23944a00083.  fdiv.s 0x83fbdc, fp1
            0x00527cc4      f22e4400ffd8   fmove.s -0x28(a6), fp0
            0x00527cca      f22e4423fff4   fmul.s -0xc(a6), fp0
            0x00527cd0      f200001a       fneg fp0
            0x00527cd4      f2000422       fadd fp1, fp0
            0x00527cd8      f22e4480ffdc   fmove.s -0x24(a6), fp1
            0x00527cde      f22e44a3fff8   fmul.s -0x8(a6), fp1
            0x00527ce4      f200049a       fneg fp1
            0x00527ce8      f20000a2       fadd fp0, fp1
            0x00527cec      f22e6480ffe0   fmove.s fp1, -0x20(a6)
            0x00527cf2      f22844000010   fmove.s 0x10(a0), fp0
            0x00527cf8      f22844230024   fmul.s 0x24(a0), fp0
            0x00527cfe      f22844800014   fmove.s 0x14(a0), fp1
            0x00527d04      f22844a30020   fmul.s 0x20(a0), fp1
            0x00527d0a      f200049a       fneg fp1
            0x00527d0e      f20000a2       fadd fp0, fp1
            0x00527d12      f2001ca3       fmul fp7, fp1
            0x00527d16      f22e6480ffe4   fmove.s fp1, -0x1c(a6)
            0x00527d1c      f22844000004   fmove.s 0x4(a0), fp0
            0x00527d22      f22844230020   fmul.s 0x20(a0), fp0
            0x00527d28      f2104480       fmove.s (a0), fp1
            0x00527d2c      f22844a30024   fmul.s 0x24(a0), fp1
            0x00527d32      f200049a       fneg fp1
            0x00527d36      f20000a2       fadd fp0, fp1
            0x00527d3a      f2001ca3       fmul fp7, fp1
            0x00527d3e      f23944a30083.  fmul.s 0x83fbdc, fp1
            0x00527d46      f22e6480ffe8   fmove.s fp1, -0x18(a6)
            0x00527d4c      f2104400       fmove.s (a0), fp0
            0x00527d50      f22844230014   fmul.s 0x14(a0), fp0
            0x00527d56      f22844800004   fmove.s 0x4(a0), fp1
            0x00527d5c      f22844a30010   fmul.s 0x10(a0), fp1
            0x00527d62      f200049a       fneg fp1
            0x00527d66      f20000a2       fadd fp0, fp1
            0x00527d6a      f21144a3       fmul.s (a1), fp1
            0x00527d6e      f22e4400ffe4   fmove.s -0x1c(a6), fp0
            0x00527d74      f22e4423fff4   fmul.s -0xc(a6), fp0
            0x00527d7a      f200001a       fneg fp0
            0x00527d7e      f2000422       fadd fp1, fp0
            0x00527d82      f22e4480ffe8   fmove.s -0x18(a6), fp1
            0x00527d88      f22e44a3fff8   fmul.s -0x8(a6), fp1
            0x00527d8e      f200049a       fneg fp1
            0x00527d92      f20000a2       fadd fp0, fp1
            0x00527d96      f22e6480ffec   fmove.s fp1, -0x14(a6)
            0x00527d9c      f2024323       fmul.l d2, fp6
            0x00527da0      f20242a3       fmul.l d2, fp5
            0x00527da4      f22e4400ffd4   fmove.s -0x2c(a6), fp0
            0x00527daa      f23944200083.  fdiv.s 0x83fbf4, fp0
            0x00527db2      f22e6400ffd4   fmove.s fp0, -0x2c(a6)
            0x00527db8      f22e4400ffd8   fmove.s -0x28(a6), fp0
            0x00527dbe      f2024023       fmul.l d2, fp0
            0x00527dc2      f22e6400ffd8   fmove.s fp0, -0x28(a6)
            0x00527dc8      f22e4400ffdc   fmove.s -0x24(a6), fp0
            0x00527dce      f2024023       fmul.l d2, fp0
            0x00527dd2      f22e6400ffdc   fmove.s fp0, -0x24(a6)
            0x00527dd8      f22e4400ffe0   fmove.s -0x20(a6), fp0
            0x00527dde      f23944200083.  fdiv.s 0x83fbf4, fp0
            0x00527de6      f22e6400ffe0   fmove.s fp0, -0x20(a6)
            0x00527dec      f23c40000040.  fmove.l unknown_0000, fp0
            0x00527df4      f23944230083.  fmul.s 0x83fbf4, fp0
            0x00527dfc      f22e4480ffe4   fmove.s -0x1c(a6), fp1
            0x00527e02      f20000a3       fmul fp0, fp1
            0x00527e06      f22e6480ffe4   fmove.s fp1, -0x1c(a6)
            0x00527e0c      f22e4480ffe8   fmove.s -0x18(a6), fp1
            0x00527e12      f20000a3       fmul fp0, fp1
            0x00527e16      f22e6480ffe8   fmove.s fp1, -0x18(a6)
            0x00527e1c      f22e4400ffec   fmove.s -0x14(a6), fp0
            0x00527e22      f23c40230000.  fmul.l 0x400, fp0
            0x00527e2a      f22e6400ffec   fmove.s fp0, -0x14(a6)
            0x00527e30      f23c43800000.  fmove.l 0x0, fp7
            0x00527e38      f2001bb8       fcmp fp6, fp7
            0x00527e3c      f29b0008       fbf.w 0x527e46
            0x00527e40      f2001b80       fmove fp6, fp7
        ┌─< 0x00527e44      6010           bra.b 0x527e56
        │   0x00527e46      f200181a       fneg fp6, fp0
        │   0x00527e4a      f20003b8       fcmp fp0, fp7
        │   0x00527e4e      f29b0006       fbf.w 0x527e56
        │   0x00527e52      f2000380       fmove fp0, fp7
        └─> 0x00527e56      f20017b8       fcmp fp5, fp7
            0x00527e5a      f29b0008       fbf.w 0x527e64
            0x00527e5e      f2001780       fmove fp5, fp7
        ┌─< 0x00527e62      6010           bra.b 0x527e74
        │   0x00527e64      f200141a       fneg fp5, fp0
        │   0x00527e68      f20003b8       fcmp fp0, fp7
        │   0x00527e6c      f29b0006       fbf.w 0x527e74
        │   0x00527e70      f2000380       fmove fp0, fp7
        └─> 0x00527e74      f22e47b8ffd4   fcmp.s -0x2c(a6), fp7
            0x00527e7a      f29b000a       fbf.w 0x527e86
            0x00527e7e      f22e4780ffd4   fmove.s -0x2c(a6), fp7
        ┌─< 0x00527e84      6012           bra.b 0x527e98
        │   0x00527e86      f22e441affd4   fneg.s -0x2c(a6), fp0
        │   0x00527e8c      f20003b8       fcmp fp0, fp7
        │   0x00527e90      f29b0006       fbf.w 0x527e98
        │   0x00527e94      f2000380       fmove fp0, fp7
        └─> 0x00527e98      f22e47b8ffd8   fcmp.s -0x28(a6), fp7
            0x00527e9e      f29b000a       fbf.w 0x527eaa
            0x00527ea2      f22e4780ffd8   fmove.s -0x28(a6), fp7
        ┌─< 0x00527ea8      6012           bra.b 0x527ebc
        │   0x00527eaa      f22e441affd8   fneg.s -0x28(a6), fp0
        │   0x00527eb0      f20003b8       fcmp fp0, fp7
        │   0x00527eb4      f29b0006       fbf.w 0x527ebc
        │   0x00527eb8      f2000380       fmove fp0, fp7
        └─> 0x00527ebc      f22e47b8ffdc   fcmp.s -0x24(a6), fp7
            0x00527ec2      f29b000a       fbf.w 0x527ece
            0x00527ec6      f22e4780ffdc   fmove.s -0x24(a6), fp7
        ┌─< 0x00527ecc      6012           bra.b 0x527ee0
        │   0x00527ece      f22e441affdc   fneg.s -0x24(a6), fp0
        │   0x00527ed4      f20003b8       fcmp fp0, fp7
        │   0x00527ed8      f29b0006       fbf.w 0x527ee0
        │   0x00527edc      f2000380       fmove fp0, fp7
        └─> 0x00527ee0      f22e47b8ffe0   fcmp.s -0x20(a6), fp7
            0x00527ee6      f29b000a       fbf.w 0x527ef2
            0x00527eea      f22e4780ffe0   fmove.s -0x20(a6), fp7
        ┌─< 0x00527ef0      6012           bra.b 0x527f04
        │   0x00527ef2      f22e441affe0   fneg.s -0x20(a6), fp0
        │   0x00527ef8      f20003b8       fcmp fp0, fp7
        │   0x00527efc      f29b0006       fbf.w 0x527f04
        │   0x00527f00      f2000380       fmove fp0, fp7
        └─> 0x00527f04      f22e47b8ffe4   fcmp.s -0x1c(a6), fp7
            0x00527f0a      f29b000a       fbf.w 0x527f16
            0x00527f0e      f22e4780ffe4   fmove.s -0x1c(a6), fp7
        ┌─< 0x00527f14      6012           bra.b 0x527f28
        │   0x00527f16      f22e441affe4   fneg.s -0x1c(a6), fp0
        │   0x00527f1c      f20003b8       fcmp fp0, fp7
        │   0x00527f20      f29b0006       fbf.w 0x527f28
        │   0x00527f24      f2000380       fmove fp0, fp7
        └─> 0x00527f28      f22e47b8ffe8   fcmp.s -0x18(a6), fp7
            0x00527f2e      f29b000a       fbf.w 0x527f3a
            0x00527f32      f22e4780ffe8   fmove.s -0x18(a6), fp7
        ┌─< 0x00527f38      6012           bra.b 0x527f4c
        │   0x00527f3a      f22e441affe8   fneg.s -0x18(a6), fp0
        │   0x00527f40      f20003b8       fcmp fp0, fp7
        │   0x00527f44      f29b0006       fbf.w 0x527f4c
        │   0x00527f48      f2000380       fmove fp0, fp7
        └─> 0x00527f4c      f22e47b8ffec   fcmp.s -0x14(a6), fp7
            0x00527f52      f29b000a       fbf.w 0x527f5e
            0x00527f56      f22e4780ffec   fmove.s -0x14(a6), fp7
        ┌─< 0x00527f5c      6012           bra.b 0x527f70
        │   0x00527f5e      f22e441affec   fneg.s -0x14(a6), fp0
        │   0x00527f64      f20003b8       fcmp fp0, fp7
        │   0x00527f68      f29b0006       fbf.w 0x527f70
        │   0x00527f6c      f2000380       fmove fp0, fp7
        └─> 0x00527f70      f23c47b83586.  fcmp.s 0, fp7
            0x00527f78      f29d0014       fbf.w 0x527f8e
            0x00527f7c      f23c40000000.  fmove.l 0x4000, fp0
            0x00527f84      f2001c20       fdiv fp7, fp0
            0x00527f88      f2000380       fmove fp0, fp7
        ┌─< 0x00527f8c      6008           bra.b 0x527f96
        │   0x00527f8e      f23c47803f80.  fmove.s 1, fp7
        └─> 0x00527f96      206e000c       movea.l 0xc(a6), a0
            0x00527f9a      594f           subq.w 0x4, a7
            0x00527f9c      f2001800       fmove fp6, fp0
            0x00527fa0      f2001c23       fmul fp7, fp0
            0x00527fa4      f2276400       fmove.s fp0, -(a7)
            0x00527fa8      4e93           jsr (a3)                    ; fcn.0000000c
            0x00527faa      584f           addq.w 0x4, a7
            0x00527fac      316f0002008a   move.w 0x2(a7), 0x8a(a0)
            0x00527fb2      f2001400       fmove fp5, fp0
            0x00527fb6      f2001c23       fmul fp7, fp0
            0x00527fba      f2276400       fmove.s fp0, -(a7)
            0x00527fbe      4e93           jsr (a3)                    ; fcn.0000000c
            0x00527fc0      584f           addq.w 0x4, a7
            0x00527fc2      316f0002008c   move.w 0x2(a7), 0x8c(a0)
            0x00527fc8      f22e4400ffd4   fmove.s -0x2c(a6), fp0
            0x00527fce      f2001c23       fmul fp7, fp0
            0x00527fd2      f2276400       fmove.s fp0, -(a7)
            0x00527fd6      4e93           jsr (a3)                    ; fcn.0000000c
            0x00527fd8      584f           addq.w 0x4, a7
            0x00527fda      316f0002008e   move.w 0x2(a7), 0x8e(a0)
            0x00527fe0      f22e4400ffd8   fmove.s -0x28(a6), fp0
            0x00527fe6      f2001c23       fmul fp7, fp0
            0x00527fea      f2276400       fmove.s fp0, -(a7)
            0x00527fee      4e93           jsr (a3)                    ; fcn.0000000c
            0x00527ff0      584f           addq.w 0x4, a7
            0x00527ff2      316f00020090   move.w 0x2(a7), 0x90(a0)
            0x00527ff8      f22e4400ffdc   fmove.s -0x24(a6), fp0
            0x00527ffe      f2001c23       fmul fp7, fp0
            0x00528002      f2276400       fmove.s fp0, -(a7)
            0x00528006      4e93           jsr (a3)                    ; fcn.0000000c
            0x00528008      584f           addq.w 0x4, a7
            0x0052800a      316f00020092   move.w 0x2(a7), 0x92(a0)
            0x00528010      f22e4400ffe0   fmove.s -0x20(a6), fp0
            0x00528016      f2001c23       fmul fp7, fp0
            0x0052801a      f2276400       fmove.s fp0, -(a7)
            0x0052801e      4e93           jsr (a3)                    ; fcn.0000000c
            0x00528020      584f           addq.w 0x4, a7
            0x00528022      316f00020094   move.w 0x2(a7), 0x94(a0)
            0x00528028      f22e4400ffe4   fmove.s -0x1c(a6), fp0
            0x0052802e      f2001c23       fmul fp7, fp0
            0x00528032      f2276400       fmove.s fp0, -(a7)
            0x00528036      4e93           jsr (a3)                    ; fcn.0000000c
            0x00528038      584f           addq.w 0x4, a7
            0x0052803a      316f00020096   move.w 0x2(a7), 0x96(a0)
            0x00528040      f22e4400ffe8   fmove.s -0x18(a6), fp0
            0x00528046      f2001c23       fmul fp7, fp0
            0x0052804a      f2276400       fmove.s fp0, -(a7)
            0x0052804e      4e93           jsr (a3)                    ; fcn.0000000c
            0x00528050      584f           addq.w 0x4, a7
            0x00528052      316f00020098   move.w 0x2(a7), 0x98(a0)
            0x00528058      f22e4400ffec   fmove.s -0x14(a6), fp0
            0x0052805e      f2001c23       fmul fp7, fp0
            0x00528062      f2276400       fmove.s fp0, -(a7)
            0x00528066      4e93           jsr (a3)                    ; fcn.0000000c
            0x00528068      584f           addq.w 0x4, a7
            0x0052806a      316f0002009a   move.w 0x2(a7), 0x9a(a0)
            0x00528070      584f           addq.w 0x4, a7
            0x00528072      226e0010       movea.l 0x10(a6), a1
            0x00528076      30290004       move.w 0x4(a1), d0
            0x0052807a      48c0           ext.l d0
            0x0052807c      81c4           divs.w d4, d0
            0x0052807e      32280014       move.w 0x14(a0), d1
            0x00528082      48c1           ext.l d1
            0x00528084      48c0           ext.l d0
            0x00528086      4480           neg.l d0
            0x00528088      d081           add.l d1, d0
            0x0052808a      3140007e       move.w d0, 0x7e(a0)
            0x0052808e      30290006       move.w 0x6(a1), d0
            0x00528092      48c0           ext.l d0
            0x00528094      81c4           divs.w d4, d0
            0x00528096      32280016       move.w 0x16(a0), d1
            0x0052809a      48c1           ext.l d1
            0x0052809c      48c0           ext.l d0
            0x0052809e      4480           neg.l d0
            0x005280a0      d081           add.l d1, d0
            0x005280a2      31400080       move.w d0, 0x80(a0)
            0x005280a6      3028007e       move.w 0x7e(a0), d0
            0x005280aa      48c0           ext.l d0
            0x005280ac      32280018       move.w 0x18(a0), d1
            0x005280b0      48c1           ext.l d1
            0x005280b2      d280           add.l d0, d1
            0x005280b4      5281           addq.l 0x1, d1
            0x005280b6      31410082       move.w d1, 0x82(a0)
            0x005280ba      30280080       move.w 0x80(a0), d0
            0x005280be      48c0           ext.l d0
            0x005280c0      3228001a       move.w 0x1a(a0), d1
            0x005280c4      48c1           ext.l d1
            0x005280c6      d280           add.l d0, d1
            0x005280c8      31410084       move.w d1, 0x84(a0)
            0x005280cc      2254           movea.l (a4), a1
            0x005280ce      2251           movea.l (a1), a1
            0x005280d0      b3e9fffc       cmpa.l -0x4(a1), a1
        ┌─< 0x005280d4      6702           beq.b 0x5280d8
        │   0x005280d6      4e4d           trap 0xd
        └─> 0x005280d8      3029030e       move.w 0x30e(a1), d0
            0x005280dc      48c0           ext.l d0
            0x005280de      e780           asl.l 0x3, d0
            0x005280e0      32290022       move.w 0x22(a1), d1
            0x005280e4      48c1           ext.l d1
            0x005280e6      d280           add.l d0, d1
            0x005280e8      302e000a       move.w 0xa(a6), d0
            0x005280ec      48c0           ext.l d0
            0x005280ee      4480           neg.l d0
            0x005280f0      d081           add.l d1, d0
            0x005280f2      31400086       move.w d0, 0x86(a0)
            0x005280f6      30290310       move.w 0x310(a1), d0
            0x005280fa      48c0           ext.l d0
            0x005280fc      e780           asl.l 0x3, d0
            0x005280fe      32290024       move.w 0x24(a1), d1
            0x00528102      48c1           ext.l d1
            0x00528104      d280           add.l d0, d1
            0x00528106      302e0008       move.w 0x8(a6), d0
            0x0052810a      48c0           ext.l d0
            0x0052810c      4480           neg.l d0
            0x0052810e      d081           add.l d1, d0
            0x00528110      31400088       move.w d0, 0x88(a0)
            0x00528114      f21fd0c7       fmovem (a7)+, fp0-fp1/fp5-fp7
            0x00528118      4cdf0f1f       movem.l (a7)+, d0-d4/a0-a3
            0x0052811c      4e5e           unlk a6
            0x0052811e      4e75           rts
┌ 24: BRUSH2COM.set_2d_words ();
│           0x00528120      4e56ffd0       link.w a6, 0xffd0
│           0x00528124      bfd5           cmpa.l (a5), a7
│       ┌─< 0x00528126      6206           bhi.b 0x52812e
│       │   0x00528128      44fc0002       move.w 0x2, ccr
│       │   0x0052812c      4e76           trapv
│       └─> 0x0052812e      defc002c       adda.w 0x2c, a7
│           0x00528132      48e781e0       movem.l d0/d7/a0-a2, -(a7)
│           0x00528136      f227e001       fmovem fp0, -(a7)
            0x0052813a      45ee000c       lea.l 0xc(a6), a2
            0x0052813e      594f           subq.w 0x4, a7
            0x00528140      f22e44000010   fmove.s 0x10(a6), fp0
            0x00528146      f23c40230000.  fmul.l 0x100, fp0
            0x0052814e      f2276400       fmove.s fp0, -(a7)
            0x00528152      4eb9004081d2   jsr p_round
            0x00528158      584f           addq.w 0x4, a7
            0x0052815a      2e1f           move.l (a7)+, d7
            0x0052815c      0c8700007f00   cmpi.l 0x7f00, d7
        ┌─< 0x00528162      6f08           ble.b 0x52816c
        │   0x00528164      2052           movea.l (a2), a0
        │   0x00528166      30bc7f00       move.w 0x7f00, (a0)
       ┌──< 0x0052816a      6014           bra.b 0x528180
       │└─> 0x0052816c      0c87ffff8100   cmpi.l 0xffff8100, d7
       │┌─< 0x00528172      6c08           bge.b 0x52817c
       ││   0x00528174      2052           movea.l (a2), a0
       ││   0x00528176      30bc8100       move.w 0x8100, (a0)
      ┌───< 0x0052817a      6004           bra.b 0x528180
      ││└─> 0x0052817c      2052           movea.l (a2), a0
      ││    0x0052817e      3087           move.w d7, (a0)
      └└──> 0x00528180      206e0008       movea.l 0x8(a6), a0
            0x00528184      2252           movea.l (a2), a1
            0x00528186      3011           move.w (a1), d0
            0x00528188      48c0           ext.l d0
            0x0052818a      2f00           move.l d0, -(a7)
            0x0052818c      30af0002       move.w 0x2(a7), (a0)
            0x00528190      584f           addq.w 0x4, a7
            0x00528192      f21fd080       fmovem (a7)+, fp0
            0x00528196      4cdf0781       movem.l (a7)+, d0/d7/a0-a2
            0x0052819a      4e5e           unlk a6
            0x0052819c      4e75           rts
┌ 24: BRUSH2COM.rotate_readside ();
│           0x0052819e      4e56ff76       link.w a6, 0xff76
│           0x005281a2      bfd5           cmpa.l (a5), a7
│       ┌─< 0x005281a4      6206           bhi.b 0x5281ac
│       │   0x005281a6      44fc0002       move.w 0x2, ccr
│       │   0x005281aa      4e76           trapv
│       └─> 0x005281ac      defc006c       adda.w 0x6c, a7
│           0x005281b0      48e7fff0       movem.l d0-d7/a0-a3, -(a7)
│           0x005281b4      f227e083       fmovem fp0-fp1/fp7, -(a7)
            0x005281b8      47faff66       lea.l BRUSH2COM.set_2d_words(pc), a3
            0x005281bc      780c           moveq 0xc, d4
            0x005281be      7aff           moveq 0xff, d5
            0x005281c0      42390083fc78   clr.b 0x83fc78
            0x005281c6      2054           movea.l (a4), a0
            0x005281c8      2250           movea.l (a0), a1
            0x005281ca      b3e9fffc       cmpa.l -0x4(a1), a1
        ┌─< 0x005281ce      6702           beq.b 0x5281d2
        │   0x005281d0      4e4d           trap 0xd
        └─> 0x005281d2      f22947800210   fmove.s 0x210(a1), fp7
            0x005281d8      f22947a30224   fmul.s 0x224(a1), fp7
            0x005281de      f22944000214   fmove.s 0x214(a1), fp0
            0x005281e4      f22944230220   fmul.s 0x220(a1), fp0
            0x005281ea      f20003a8       fsub fp0, fp7
            0x005281ee      24680018       movea.l 0x18(a0), a2
            0x005281f2      f21247a3       fmul.s (a2), fp7
            0x005281f6      f22944000224   fmove.s 0x224(a1), fp0
            0x005281fc      f2001c20       fdiv fp7, fp0
            0x00528200      f2276400       fmove.s fp0, -(a7)
            0x00528204      486effea       pea.l -0x16(a6)
            0x00528208      48790083fc7c   pea.l 0x83fc7c
            0x0052820e      4e93           jsr (a3)                    ; fcn.0000000c
            0x00528210      dec4           adda.w d4, a7
            0x00528212      f229441a0214   fneg.s 0x214(a1), fp0
            0x00528218      f23944230083.  fmul.s 0x83fbdc, fp0
            0x00528220      f2001c20       fdiv fp7, fp0
            0x00528224      f2276400       fmove.s fp0, -(a7)
            0x00528228      486effe6       pea.l -0x1a(a6)
            0x0052822c      48790083fc80   pea.l 0x83fc80
            0x00528232      4e93           jsr (a3)                    ; fcn.0000000c
            0x00528234      dec4           adda.w d4, a7
            0x00528236      f23944000083.  fmove.s 0x83fbdc, fp0
            0x0052823e      f2001c23       fmul fp7, fp0
            0x00528242      f229449a0220   fneg.s 0x220(a1), fp1
            0x00528248      f20000a0       fdiv fp0, fp1
            0x0052824c      f2276480       fmove.s fp1, -(a7)
            0x00528250      486effe8       pea.l -0x18(a6)
            0x00528254      48790083fc7a   pea.l 0x83fc7a
            0x0052825a      4e93           jsr (a3)                    ; fcn.0000000c
            0x0052825c      dec4           adda.w d4, a7
            0x0052825e      f22944000210   fmove.s 0x210(a1), fp0
            0x00528264      f2001c20       fdiv fp7, fp0
            0x00528268      f2276400       fmove.s fp0, -(a7)
            0x0052826c      486effec       pea.l -0x14(a6)
            0x00528270      48790083fc7e   pea.l 0x83fc7e
            0x00528276      4e93           jsr (a3)                    ; fcn.0000000c
            0x00528278      dec4           adda.w d4, a7
            0x0052827a      30280020       move.w 0x20(a0), d0
            0x0052827e      b045           cmp.w d5, d0
        ┌─< 0x00528280      6e68           bgt.b 0x5282ea
        │   0x00528282      322effea       move.w -0x16(a6), d1
        │   0x00528286      48c1           ext.l d1
       ┌──< 0x00528288      6a02           bpl.b 0x52828c
       ││   0x0052828a      4481           neg.l d1
       └──> 0x0052828c      0c810000028b   cmpi.l 0x28b, d1
       ┌──< 0x00528292      6d04           blt.b 0x528298
       ││   0x00528294      7e03           moveq 0x3, d7
      ┌───< 0x00528296      601a           bra.b 0x5282b2
      │└──> 0x00528298      0c8100000206   cmpi.l 0x206, d1
      │┌──< 0x0052829e      6d04           blt.b 0x5282a4
      │││   0x005282a0      7e02           moveq 0x2, d7
     ┌────< 0x005282a2      600e           bra.b 0x5282b2
     ││└──> 0x005282a4      0c8100000167   cmpi.l 0x167, d1
     ││┌──< 0x005282aa      6d04           blt.b 0x5282b0
     ││││   0x005282ac      7e01           moveq 0x1, d7
    ┌─────< 0x005282ae      6002           bra.b 0x5282b2
    │││└──> 0x005282b0      7e00           moveq 0x0, d7
    └└└───> 0x005282b2      b045           cmp.w d5, d0
       ┌──< 0x005282b4      6636           bne.b 0x5282ec
       ││   0x005282b6      322effec       move.w -0x14(a6), d1
       ││   0x005282ba      48c1           ext.l d1
      ┌───< 0x005282bc      6a02           bpl.b 0x5282c0
      │││   0x005282be      4481           neg.l d1
      └───> 0x005282c0      0c810000028b   cmpi.l 0x28b, d1
      ┌───< 0x005282c6      6d06           blt.b 0x5282ce
      │││   0x005282c8      48c7           ext.l d7
      │││   0x005282ca      de84           add.l d4, d7
     ┌────< 0x005282cc      601e           bra.b 0x5282ec
     │└───> 0x005282ce      0c8100000206   cmpi.l 0x206, d1
     │┌───< 0x005282d4      6d06           blt.b 0x5282dc
     ││││   0x005282d6      48c7           ext.l d7
     ││││   0x005282d8      5087           addq.l 0x8, d7
    ┌─────< 0x005282da      6010           bra.b 0x5282ec
    ││└───> 0x005282dc      0c8100000167   cmpi.l 0x167, d1
    ││┌───< 0x005282e2      6d08           blt.b 0x5282ec
    │││││   0x005282e4      48c7           ext.l d7
    │││││   0x005282e6      5887           addq.l 0x4, d7
   ┌──────< 0x005282e8      6002           bra.b 0x5282ec
   │││││└─> 0x005282ea      3e00           move.w d0, d7
   └└└└└──> 0x005282ec      33c70083fc1a   move.w d7, 0x83fc1a
            0x005282f2      45f90083fbba   lea.l 0x83fbba, a2
            0x005282f8      33f272020083.  move.w 0x2(a2, d7.w), 0x83fc1e.l
            0x00528300      30390083fc10   move.w 0x83fc10, d0
            0x00528306      48c0           ext.l d0
            0x00528308      e180           asl.l 0x8, d0
            0x0052830a      20680018       movea.l 0x18(a0), a0
            0x0052830e      32280004       move.w 0x4(a0), d1
            0x00528312      48c1           ext.l d1
            0x00528314      eb81           asl.l 0x5, d1
            0x00528316      4481           neg.l d1
            0x00528318      d280           add.l d0, d1
            0x0052831a      2e01           move.l d1, d7
            0x0052831c      30390083fc12   move.w 0x83fc12, d0
            0x00528322      48c0           ext.l d0
            0x00528324      e180           asl.l 0x8, d0
            0x00528326      32280006       move.w 0x6(a0), d1
            0x0052832a      48c1           ext.l d1
            0x0052832c      eb81           asl.l 0x5, d1
            0x0052832e      4481           neg.l d1
            0x00528330      d280           add.l d0, d1
            0x00528332      2c01           move.l d1, d6
            0x00528334      302effea       move.w -0x16(a6), d0
            0x00528338      48c0           ext.l d0
            0x0052833a      4c070800       muls.l d7, d0
            0x0052833e      322effe6       move.w -0x1a(a6), d1
            0x00528342      48c1           ext.l d1
            0x00528344      4c061800       muls.l d6, d1
            0x00528348      d280           add.l d0, d1
            0x0052834a      3029030e       move.w 0x30e(a1), d0
            0x0052834e      48c0           ext.l d0
            0x00528350      e780           asl.l 0x3, d0
            0x00528352      34290022       move.w 0x22(a1), d2
            0x00528356      48c2           ext.l d2
            0x00528358      d082           add.l d2, d0
            0x0052835a      e180           asl.l 0x8, d0
            0x0052835c      eb80           asl.l 0x5, d0
            0x0052835e      d081           add.l d1, d0
            0x00528360      2d40fff8       move.l d0, -0x8(a6)
            0x00528364      322effe8       move.w -0x18(a6), d1
            0x00528368      48c1           ext.l d1
            0x0052836a      4c071800       muls.l d7, d1
            0x0052836e      342effec       move.w -0x14(a6), d2
            0x00528372      48c2           ext.l d2
            0x00528374      4c062800       muls.l d6, d2
            0x00528378      d481           add.l d1, d2
            0x0052837a      32290310       move.w 0x310(a1), d1
            0x0052837e      48c1           ext.l d1
            0x00528380      e781           asl.l 0x3, d1
            0x00528382      36290024       move.w 0x24(a1), d3
            0x00528386      48c3           ext.l d3
            0x00528388      d283           add.l d3, d1
            0x0052838a      e181           asl.l 0x8, d1
            0x0052838c      eb81           asl.l 0x5, d1
            0x0052838e      d282           add.l d2, d1
            0x00528390      2d41fffc       move.l d1, -0x4(a6)
            0x00528394      4c7c08000000.  divs.l 0x1000, d0
            0x0052839c      048000000040   subi.l 0x40, d0
            0x005283a2      068000000010   addi.l 0x10, d0
            0x005283a8      2f00           move.l d0, -(a7)
            0x005283aa      33ef00020083.  move.w 0x2(a7), 0x83fc82.l
            0x005283b2      584f           addq.w 0x4, a7
            0x005283b4      4c7c18010000.  divs.l 0x1000, d1
            0x005283bc      30390083fc1e   move.w 0x83fc1e, d0
            0x005283c2      02800000ffff   andi.l 0xffff, d0
            0x005283c8      e780           asl.l 0x3, d0
            0x005283ca      4480           neg.l d0
            0x005283cc      d081           add.l d1, d0
            0x005283ce      068000000010   addi.l 0x10, d0
            0x005283d4      2f00           move.l d0, -(a7)
            0x005283d6      33ef00020083.  move.w 0x2(a7), 0x83fc84.l
            0x005283de      584f           addq.w 0x4, a7
            0x005283e0      30390083fc14   move.w 0x83fc14, d0
            0x005283e6      48c0           ext.l d0
            0x005283e8      4480           neg.l d0
            0x005283ea      2f00           move.l d0, -(a7)
            0x005283ec      33ef00020083.  move.w 0x2(a7), 0x83fc86.l
            0x005283f4      584f           addq.w 0x4, a7
            0x005283f6      30390083fc16   move.w 0x83fc16, d0
            0x005283fc      48c0           ext.l d0
            0x005283fe      4480           neg.l d0
            0x00528400      2f00           move.l d0, -(a7)
            0x00528402      33ef00020083.  move.w 0x2(a7), 0x83fc88.l
            0x0052840a      584f           addq.w 0x4, a7
            0x0052840c      f21fd0c1       fmovem (a7)+, fp0-fp1/fp7
            0x00528410      4cdf0fff       movem.l (a7)+, d0-d7/a0-a3
            0x00528414      4e5e           unlk a6
            0x00528416      4e75           rts
┌ 24: BRUSH2COM.setup_flat ();
│           0x00528418      4e56ff18       link.w a6, 0xff18
│           0x0052841c      bfd5           cmpa.l (a5), a7
│       ┌─< 0x0052841e      6206           bhi.b 0x528426
│       │   0x00528420      44fc0002       move.w 0x2, ccr
│       │   0x00528424      4e76           trapv
│       └─> 0x00528426      defc00ac       adda.w 0xac, a7
│           0x0052842a      48e7fff8       movem.l d0-d7/a0-a4, -(a7)
│           0x0052842e      f227e0e7       fmovem fp0-fp2/fp5-fp7, -(a7)
            0x00528432      7801           moveq 0x1, d4
            0x00528434      7a00           moveq 0x0, d5
            0x00528436      f23c43003b9a.  fmove.l 0x3b9ac9ff, fp6
            0x0052843e      f23c4280c465.  fmove.l 0xc4653601, fp5
            0x00528446      f23c40003b9a.  fmove.l 0x3b9ac9ff, fp0
            0x0052844e      f22e6400ffd6   fmove.s fp0, -0x2a(a6)
            0x00528454      f23c4000c465.  fmove.l 0xc4653601, fp0
            0x0052845c      f22e6400ffda   fmove.s fp0, -0x26(a6)
            0x00528462      7e01           moveq 0x1, d7
            0x00528464      2054           movea.l (a4), a0
            0x00528466      b1e8fffc       cmpa.l -0x4(a0), a0
        ┌─< 0x0052846a      6702           beq.b 0x52846e
        │   0x0052846c      4e4d           trap 0xd
        └─> 0x0052846e      226c0010       movea.l 0x10(a4), a1
            0x00528472      3011           move.w (a1), d0
            0x00528474      48c0           ext.l d0
            0x00528476      32290004       move.w 0x4(a1), d1
            0x0052847a      48c1           ext.l d1
            0x0052847c      d280           add.l d0, d1
            0x0052847e      2f01           move.l d1, -(a7)
            0x00528480      34290002       move.w 0x2(a1), d2
            0x00528484      48c2           ext.l d2
            0x00528486      36290006       move.w 0x6(a1), d3
            0x0052848a      48c3           ext.l d3
            0x0052848c      d682           add.l d2, d3
            0x0052848e      226c0018       movea.l 0x18(a4), a1
            0x00528492      f2114400       fmove.s (a1), fp0
            0x00528496      f228442302a0   fmul.s 0x2a0(a0), fp0
            0x0052849c      7c01           moveq 0x1, d6
        ┌─> 0x0052849e      f2304480662e   fmove.s 0x2e(a0, d6.w), fp1
        ╎   0x005284a4      f22844a30210   fmul.s 0x210(a0), fp1
        ╎   0x005284aa      f23045006632   fmove.s 0x32(a0, d6.w), fp2
        ╎   0x005284b0      f22845230214   fmul.s 0x214(a0), fp2
        ╎   0x005284b6      f2000522       fadd fp1, fp2
        ╎   0x005284ba      f2284522021c   fadd.s 0x21c(a0), fp2
        ╎   0x005284c0      f22e6500ffe2   fmove.s fp2, -0x1e(a6)
        ╎   0x005284c6      f2304480662e   fmove.s 0x2e(a0, d6.w), fp1
        ╎   0x005284cc      f22844a30220   fmul.s 0x220(a0), fp1
        ╎   0x005284d2      f23045006632   fmove.s 0x32(a0, d6.w), fp2
        ╎   0x005284d8      f22845230224   fmul.s 0x224(a0), fp2
        ╎   0x005284de      f2000522       fadd fp1, fp2
        ╎   0x005284e2      f2284522022c   fadd.s 0x22c(a0), fp2
        ╎   0x005284e8      f22e6500ffe6   fmove.s fp2, -0x1a(a6)
        ╎   0x005284ee      f2304480662e   fmove.s 0x2e(a0, d6.w), fp1
        ╎   0x005284f4      f22844a30230   fmul.s 0x230(a0), fp1
        ╎   0x005284fa      f23045006632   fmove.s 0x32(a0, d6.w), fp2
        ╎   0x00528500      f22845230234   fmul.s 0x234(a0), fp2
        ╎   0x00528506      f2000522       fadd fp1, fp2
        ╎   0x0052850a      f2284522023c   fadd.s 0x23c(a0), fp2
        ╎   0x00528510      f22e6500ffea   fmove.s fp2, -0x16(a6)
        ╎   0x00528516      f22e4780ffea   fmove.s -0x16(a6), fp7
        ╎   0x0052851c      f22847a202a0   fadd.s 0x2a0(a0), fp7
        ╎   0x00528522      f20543b8       fcmp.l d5, fp7
        ╎   0x00528526      f296002c       fbf.w 0x528554
        ╎   0x0052852a      45f90083fbfc   lea.l 0x83fbfc, a2
        ╎   0x00528530      f22e4480ffe2   fmove.s -0x1e(a6), fp1
        ╎   0x00528536      f23c40a33b9a.  fmul.l 0x3b9ac9ff, fp1
        ╎   0x0052853e      f2326480661c   fmove.s fp1, 0x1c(a2, d6.w)
        ╎   0x00528544      f22e4480ffe6   fmove.s -0x1a(a6), fp1
        ╎   0x0052854a      f23c40a33b9a.  fmul.l 0x3b9ac9ff, fp1
       ┌──< 0x00528552      606a           bra.b 0x5285be
       │╎   0x00528554      f2000080       fmove fp0, fp1
       │╎   0x00528558      f2001ca0       fdiv fp7, fp1
       │╎   0x0052855c      f2000780       fmove fp1, fp7
       │╎   0x00528560      f20543b8       fcmp.l d5, fp7
       │╎   0x00528564      f29b0004       fbf.w 0x52856a
       │╎   0x00528568      7e00           moveq 0x0, d7
       │╎   0x0052856a      45f90083fbfc   lea.l 0x83fbfc, a2
       │╎   0x00528570      f22e4480ffe2   fmove.s -0x1e(a6), fp1
       │╎   0x00528576      f2001ca3       fmul fp7, fp1
       │╎   0x0052857a      f23944a30083.  fmul.s 0x83fbec, fp1
       │╎   0x00528582      32290004       move.w 0x4(a1), d1
       │╎   0x00528586      48c1           ext.l d1
       │╎   0x00528588      f20140a2       fadd.l d1, fp1
       │╎   0x0052858c      f23c40a00000.  fdiv.l 0x8, fp1
       │╎   0x00528594      f2326480661c   fmove.s fp1, 0x1c(a2, d6.w)
       │╎   0x0052859a      f22e4480ffe6   fmove.s -0x1a(a6), fp1
       │╎   0x005285a0      f2001ca3       fmul fp7, fp1
       │╎   0x005285a4      f23944a30083.  fmul.s 0x83fbe0, fp1
       │╎   0x005285ac      32290006       move.w 0x6(a1), d1
       │╎   0x005285b0      48c1           ext.l d1
       │╎   0x005285b2      f20140a2       fadd.l d1, fp1
       │╎   0x005285b6      f23c40a00000.  fdiv.l 0x8, fp1
       └──> 0x005285be      f23264806620   fmove.s fp1, 0x20(a2, d6.w)
        ╎   0x005285c4      4a07           tst.b d7
       ┌──< 0x005285c6      6754           beq.b 0x52861c
       │╎   0x005285c8      45f90083fbfc   lea.l 0x83fbfc, a2
       │╎   0x005285ce      f23246b8661c   fcmp.s 0x1c(a2, d6.w), fp5
       │╎   0x005285d4      f29b0008       fbf.w 0x5285de
       │╎   0x005285d8      f2324680661c   fmove.s 0x1c(a2, d6.w), fp5
       │╎   0x005285de      f2324738661c   fcmp.s 0x1c(a2, d6.w), fp6
       │╎   0x005285e4      f29d0008       fbf.w 0x5285ee
       │╎   0x005285e8      f2324700661c   fmove.s 0x1c(a2, d6.w), fp6
       │╎   0x005285ee      f23244806620   fmove.s 0x20(a2, d6.w), fp1
       │╎   0x005285f4      f22e44b8ffda   fcmp.s -0x26(a6), fp1
       │╎   0x005285fa      f29d0008       fbf.w 0x528604
       │╎   0x005285fe      2d726620ffda   move.l 0x20(a2, d6.w), -0x26(a6)
       │╎   0x00528604      f23244806620   fmove.s 0x20(a2, d6.w), fp1
       │╎   0x0052860a      f22e44b8ffd6   fcmp.s -0x2a(a6), fp1
       │╎   0x00528610      f29b0028       fbf.w 0x52863a
       │╎   0x00528614      2d726620ffd6   move.l 0x20(a2, d6.w), -0x2a(a6)
      ┌───< 0x0052861a      601e           bra.b 0x52863a
      │└──> 0x0052861c      f2004300       fmove.l d0, fp6
      │ ╎   0x00528620      2217           move.l (a7), d1
      │ ╎   0x00528622      f2014280       fmove.l d1, fp5
      │ ╎   0x00528626      f2024080       fmove.l d2, fp1
      │ ╎   0x0052862a      f22e6480ffd6   fmove.s fp1, -0x2a(a6)
      │ ╎   0x00528630      f2034080       fmove.l d3, fp1
      │ ╎   0x00528634      f22e6480ffda   fmove.s fp1, -0x26(a6)
      └───> 0x0052863a      2217           move.l (a7), d1
        ╎   0x0052863c      5246           addq.w 0x1, d6
        ╎   0x0052863e      0c460004       cmpi.w 0x4, d6
        └─< 0x00528642      6f00fe5a       ble.w 0x52849e
            0x00528646      584f           addq.w 0x4, a7
            0x00528648      13c70083fced   move.b d7, 0x83fced
            0x0052864e      44390083fced   neg.b 0x83fced
            0x00528654      52390083fced   addq.b 0x1, 0x83fced.l
            0x0052865a      554f           subq.w 0x2, a7
            0x0052865c      f2276700       fmove.s fp6, -(a7)
            0x00528660      4267           clr.w -(a7)
            0x00528662      49eeffc0       lea.l -0x40(a6), a4
            0x00528666      4ebaf096       jsr BRUSH2COM.clip_x(pc)
            0x0052866a      5c4f           addq.w 0x6, a7
            0x0052866c      286effc0       movea.l -0x40(a6), a4
            0x00528670      3c17           move.w (a7), d6
            0x00528672      f2276680       fmove.s fp5, -(a7)
            0x00528676      3f04           move.w d4, -(a7)
            0x00528678      49eeffc0       lea.l -0x40(a6), a4
            0x0052867c      4ebaf080       jsr BRUSH2COM.clip_x(pc)
            0x00528680      5c4f           addq.w 0x6, a7
            0x00528682      286effc0       movea.l -0x40(a6), a4
            0x00528686      3d57fffa       move.w (a7), -0x6(a6)
            0x0052868a      2f2effd6       move.l -0x2a(a6), -(a7)
            0x0052868e      4267           clr.w -(a7)
            0x00528690      49eeffc0       lea.l -0x40(a6), a4
            0x00528694      4ebaf128       jsr BRUSH2COM.clip_y(pc)
            0x00528698      5c4f           addq.w 0x6, a7
            0x0052869a      286effc0       movea.l -0x40(a6), a4
            0x0052869e      3e17           move.w (a7), d7
            0x005286a0      2f2effda       move.l -0x26(a6), -(a7)
            0x005286a4      3f04           move.w d4, -(a7)
            0x005286a6      49eeffc0       lea.l -0x40(a6), a4
            0x005286aa      4ebaf112       jsr BRUSH2COM.clip_y(pc)
            0x005286ae      5c4f           addq.w 0x6, a7
            0x005286b0      286effc0       movea.l -0x40(a6), a4
            0x005286b4      3d5ffffe       move.w (a7)+, -0x2(a6)
            0x005286b8      48c6           ext.l d6
            0x005286ba      2006           move.l d6, d0
            0x005286bc      0280fffffff8   andi.l 0xfffffff8, d0
            0x005286c2      33c00083fc10   move.w d0, 0x83fc10
            0x005286c8      322efffa       move.w -0x6(a6), d1
            0x005286cc      48c1           ext.l d1
            0x005286ce      48c0           ext.l d0
            0x005286d0      4480           neg.l d0
            0x005286d2      d081           add.l d1, d0
            0x005286d4      33c00083fc14   move.w d0, 0x83fc14
            0x005286da      48c0           ext.l d0
            0x005286dc      5e80           addq.l 0x7, d0
            0x005286de      0280fffffff8   andi.l 0xfffffff8, d0
            0x005286e4      33c00083fc14   move.w d0, 0x83fc14
            0x005286ea      33c70083fc12   move.w d7, 0x83fc12
            0x005286f0      302efffe       move.w -0x2(a6), d0
            0x005286f4      48c0           ext.l d0
            0x005286f6      48c7           ext.l d7
            0x005286f8      9087           sub.l d7, d0
            0x005286fa      33c00083fc16   move.w d0, 0x83fc16
            0x00528700      206c0010       movea.l 0x10(a4), a0
            0x00528704      30390083fc10   move.w 0x83fc10, d0
            0x0052870a      48c0           ext.l d0
            0x0052870c      3210           move.w (a0), d1
            0x0052870e      48c1           ext.l d1
            0x00528710      4481           neg.l d1
            0x00528712      d280           add.l d0, d1
            0x00528714      33c10083fc46   move.w d1, 0x83fc46
            0x0052871a      30390083fc12   move.w 0x83fc12, d0
            0x00528720      48c0           ext.l d0
            0x00528722      32280002       move.w 0x2(a0), d1
            0x00528726      48c1           ext.l d1
            0x00528728      4481           neg.l d1
            0x0052872a      d280           add.l d0, d1
            0x0052872c      33c10083fc48   move.w d1, 0x83fc48
            0x00528732      4a790083fc14   tst.w 0x83fc14
        ┌─< 0x00528738      671e           beq.b 0x528758
        │   0x0052873a      4a790083fc16   tst.w 0x83fc16
       ┌──< 0x00528740      6f16           ble.b 0x528758
       ││   0x00528742      30390083fc14   move.w 0x83fc14, d0
       ││   0x00528748      0c400008       cmpi.w 0x8, d0
      ┌───< 0x0052874c      6e34           bgt.b 0x528782
      │││   0x0052874e      30390083fc16   move.w 0x83fc16, d0
      │││   0x00528754      b044           cmp.w d4, d0
     ┌────< 0x00528756      662a           bne.b 0x528782
     ││└└─> 0x00528758      2054           movea.l (a4), a0
     ││     0x0052875a      b1e8fffc       cmpa.l -0x4(a0), a0
     ││ ┌─< 0x0052875e      6702           beq.b 0x528762
     ││ │   0x00528760      4e4d           trap 0xd
     ││ └─> 0x00528762      4228061e       clr.b 0x61e(a0)
     ││     0x00528766      13fc00050083.  move.b 0x5, 0x83fc78.l
     ││     0x0052876e      23fadde60083.  move.l 0x526556(pc), 0x83fc10.l
     ││     0x00528776      23fadde20083.  move.l 0x52655a(pc), 0x83fc14.l
     ││ ┌─< 0x0052877e      600004f2       bra.w 0x528c72
     └└───> 0x00528782      42790083fc18   clr.w 0x83fc18
        │   0x00528788      13c40083fc78   move.b d4, 0x83fc78
        │   0x0052878e      2054           movea.l (a4), a0
        │   0x00528790      b1e8fffc       cmpa.l -0x4(a0), a0
       ┌──< 0x00528794      6702           beq.b 0x528798
       ││   0x00528796      4e4d           trap 0xd
       └──> 0x00528798      1144061e       move.b d4, 0x61e(a0)
        │   0x0052879c      102c0014       move.b 0x14(a4), d0
        │   0x005287a0      4880           ext.w d0
        │   0x005287a2      3200           move.w d0, d1
        │   0x005287a4      0c410004       cmpi.w 0x4, d1
       ┌──< 0x005287a8      620000bc       bhi.w 0x528866
       ││   0x005287ac      d241           add.w d1, d1
       ││   0x005287ae      323b1006       move.w 0x5287b6(pc, d1.w), d1
       ││   0x005287b2      4efb1002       jmp 0x5287b6(pc, d1.w)
       ││   0x005287b6      0042007a       ori.w 0x7a, d2
       ││   0x005287ba      00b000b0000a.  ori.l 0xb0000a, 0x2c(a0, d1.w)
       ││   0x005287c2      00160c01       ori.b 0x1, (a6)
       ││   0x005287c6      0002660a       ori.b 0xa, d2
       ││   0x005287ca      9efc000a       suba.w 0xa, a7
       ││   0x005287ce      3f3c0091       move.w 0x91, -(a7)
      ┌───< 0x005287d2      6008           bra.b 0x5287dc
      │││   0x005287d4      9efc000a       suba.w 0xa, a7
      │││   0x005287d8      3f3c0092       move.w 0x92, -(a7)
      └───> 0x005287dc      4eb90051f338   jsr BRUSHCOM.b_control_state
       ││   0x005287e2      544f           addq.w 0x2, a7
       ││   0x005287e4      23df0083fbfe   move.l (a7)+, 0x83fbfe
       ││   0x005287ea      23df0083fc02   move.l (a7)+, 0x83fc02
       ││   0x005287f0      33df0083fc06   move.w (a7)+, 0x83fc06
      ┌───< 0x005287f6      606e           bra.b 0x528866
      │││   0x005287f8      122c0016       move.b 0x16(a4), d1
      │││   0x005287fc      0c010002       cmpi.b 0x2, d1
     ┌────< 0x00528800      660a           bne.b 0x52880c
     ││││   0x00528802      9efc000a       suba.w 0xa, a7
     ││││   0x00528806      3f3c008d       move.w 0x8d, -(a7)
    ┌─────< 0x0052880a      6008           bra.b 0x528814
    │└────> 0x0052880c      9efc000a       suba.w 0xa, a7
    │ │││   0x00528810      3f3c008e       move.w 0x8e, -(a7)
    └─────> 0x00528814      4eb90051f338   jsr BRUSHCOM.b_control_state
      │││   0x0052881a      544f           addq.w 0x2, a7
      │││   0x0052881c      23df0083fbfe   move.l (a7)+, 0x83fbfe
      │││   0x00528822      23df0083fc02   move.l (a7)+, 0x83fc02
      │││   0x00528828      33df0083fc06   move.w (a7)+, 0x83fc06
     ┌────< 0x0052882e      6036           bra.b 0x528866
     ││││   0x00528830      122c0016       move.b 0x16(a4), d1
     ││││   0x00528834      0c010002       cmpi.b 0x2, d1
    ┌─────< 0x00528838      660a           bne.b 0x528844
    │││││   0x0052883a      9efc000a       suba.w 0xa, a7
    │││││   0x0052883e      3f3c008f       move.w 0x8f, -(a7)
   ┌──────< 0x00528842      6008           bra.b 0x52884c
   │└─────> 0x00528844      9efc000a       suba.w 0xa, a7
   │ ││││   0x00528848      3f3c0090       move.w 0x90, -(a7)
   └──────> 0x0052884c      4eb90051f338   jsr BRUSHCOM.b_control_state
     ││││   0x00528852      544f           addq.w 0x2, a7
     ││││   0x00528854      23df0083fbfe   move.l (a7)+, 0x83fbfe
     ││││   0x0052885a      23df0083fc02   move.l (a7)+, 0x83fc02
     ││││   0x00528860      33df0083fc06   move.w (a7)+, 0x83fc06
     └└└──> 0x00528866      12390083fbba   move.b 0x83fbba, d1
        │   0x0052886c      0c010003       cmpi.b 0x3, d1
       ┌──< 0x00528870      67000142       beq.w 0x5289b4
       ││   0x00528874      342c0020       move.w 0x20(a4), d2
       ││   0x00528878      0c42ffff       cmpi.w 0xffff, d2
      ┌───< 0x0052887c      66000136       bne.w 0x5289b4
      │││   0x00528880      f22844000230   fmove.s 0x230(a0), fp0
      │││   0x00528886      f2054038       fcmp.l d5, fp0
      │││   0x0052888a      f2960128       fbf.w 0x5289b4
      │││   0x0052888e      f22844000234   fmove.s 0x234(a0), fp0
      │││   0x00528894      f2054038       fcmp.l d5, fp0
      │││   0x00528898      f296011a       fbf.w 0x5289b4
      │││   0x0052889c      f2284400023c   fmove.s 0x23c(a0), fp0
      │││   0x005288a2      f2054038       fcmp.l d5, fp0
      │││   0x005288a6      f296010c       fbf.w 0x5289b4
      │││   0x005288aa      f22844000210   fmove.s 0x210(a0), fp0
      │││   0x005288b0      f2044038       fcmp.l d4, fp0
      │││   0x005288b4      f29600fe       fbf.w 0x5289b4
      │││   0x005288b8      f22844000214   fmove.s 0x214(a0), fp0
      │││   0x005288be      f2054038       fcmp.l d5, fp0
      │││   0x005288c2      f29600f0       fbf.w 0x5289b4
      │││   0x005288c6      f2284400021c   fmove.s 0x21c(a0), fp0
      │││   0x005288cc      f2054038       fcmp.l d5, fp0
      │││   0x005288d0      f29600e2       fbf.w 0x5289b4
      │││   0x005288d4      f22844000220   fmove.s 0x220(a0), fp0
      │││   0x005288da      f2054038       fcmp.l d5, fp0
      │││   0x005288de      f29600d4       fbf.w 0x5289b4
      │││   0x005288e2      f22844000224   fmove.s 0x224(a0), fp0
      │││   0x005288e8      f2044038       fcmp.l d4, fp0
      │││   0x005288ec      f29600c6       fbf.w 0x5289b4
      │││   0x005288f0      f2284400022c   fmove.s 0x22c(a0), fp0
      │││   0x005288f6      f2054038       fcmp.l d5, fp0
      │││   0x005288fa      f29600b8       fbf.w 0x5289b4
      │││   0x005288fe      3428030e       move.w 0x30e(a0), d2
      │││   0x00528902      48c2           ext.l d2
      │││   0x00528904      36390083fc10   move.w 0x83fc10, d3
      │││   0x0052890a      48c3           ext.l d3
      │││   0x0052890c      d682           add.l d2, d3
      │││   0x0052890e      226c0018       movea.l 0x18(a4), a1
      │││   0x00528912      34290004       move.w 0x4(a1), d2
      │││   0x00528916      48c2           ext.l d2
      │││   0x00528918      85fc0008       divs.w 0x8, d2
      │││   0x0052891c      48c2           ext.l d2
      │││   0x0052891e      4482           neg.l d2
      │││   0x00528920      d483           add.l d3, d2
      │││   0x00528922      36280022       move.w 0x22(a0), d3
      │││   0x00528926      48c3           ext.l d3
      │││   0x00528928      87fc0008       divs.w 0x8, d3
      │││   0x0052892c      48c3           ext.l d3
      │││   0x0052892e      d682           add.l d2, d3
      │││   0x00528930      33c30083fc7c   move.w d3, 0x83fc7c
      │││   0x00528936      34280310       move.w 0x310(a0), d2
      │││   0x0052893a      48c2           ext.l d2
      │││   0x0052893c      36390083fc12   move.w 0x83fc12, d3
      │││   0x00528942      48c3           ext.l d3
      │││   0x00528944      d682           add.l d2, d3
      │││   0x00528946      34290006       move.w 0x6(a1), d2
      │││   0x0052894a      48c2           ext.l d2
      │││   0x0052894c      85fc0008       divs.w 0x8, d2
      │││   0x00528950      48c2           ext.l d2
      │││   0x00528952      4482           neg.l d2
      │││   0x00528954      d483           add.l d3, d2
      │││   0x00528956      36280024       move.w 0x24(a0), d3
      │││   0x0052895a      48c3           ext.l d3
      │││   0x0052895c      87fc0008       divs.w 0x8, d3
      │││   0x00528960      48c3           ext.l d3
      │││   0x00528962      d682           add.l d2, d3
      │││   0x00528964      33c30083fc7e   move.w d3, 0x83fc7e
      │││   0x0052896a      34290004       move.w 0x4(a1), d2
      │││   0x0052896e      02420007       andi.w 0x7, d2
     ┌────< 0x00528972      6640           bne.b 0x5289b4
     ││││   0x00528974      34280022       move.w 0x22(a0), d2
     ││││   0x00528978      02420007       andi.w 0x7, d2
    ┌─────< 0x0052897c      6636           bne.b 0x5289b4
    │││││   0x0052897e      34290006       move.w 0x6(a1), d2
    │││││   0x00528982      02420007       andi.w 0x7, d2
   ┌──────< 0x00528986      662c           bne.b 0x5289b4
   ││││││   0x00528988      34280024       move.w 0x24(a0), d2
   ││││││   0x0052898c      02420007       andi.w 0x7, d2
  ┌───────< 0x00528990      6622           bne.b 0x5289b4
  │││││││   0x00528992      34390083fc7c   move.w 0x83fc7c, d2
  │││││││   0x00528998      02420007       andi.w 0x7, d2
  ────────< 0x0052899c      6616           bne.b 0x5289b4
  │││││││   0x0052899e      13fc00040083.  move.b 0x4, 0x83fc78.l
  │││││││   0x005289a6      13ec00160083.  move.b 0x16(a4), 0x83fc79.l
  │││││││   0x005289ae      13c00083fc7a   move.b d0, 0x83fc7a
  └└└└└└──> 0x005289b4      10390083fc78   move.b 0x83fc78, d0
        │   0x005289ba      b004           cmp.b d4, d0
       ┌──< 0x005289bc      660002b4       bne.w 0x528c72
       ││   0x005289c0      4a01           tst.b d1
      ┌───< 0x005289c2      6610           bne.b 0x5289d4
      │││   0x005289c4      49eeffc0       lea.l -0x40(a6), a4
      │││   0x005289c8      4ebaf7d4       jsr BRUSH2COM.rotate_readside(pc)
     ┌────> 0x005289cc      286effc0       movea.l -0x40(a6), a4
    ┌─────< 0x005289d0      600002a0       bra.w 0x528c72
    │╎└───> 0x005289d4      0c010003       cmpi.b 0x3, d1
    │╎┌───< 0x005289d8      6622           bne.b 0x5289fc
    │╎│││   0x005289da      48680210       pea.l 0x210(a0)
    │╎│││   0x005289de      486802a0       pea.l 0x2a0(a0)
    │╎│││   0x005289e2      226c0018       movea.l 0x18(a4), a1
    │╎│││   0x005289e6      4851           pea.l (a1)
    │╎│││   0x005289e8      48790083fbfc   pea.l 0x83fbfc
    │╎│││   0x005289ee      49eeffc0       lea.l -0x40(a6), a4
    │╎│││   0x005289f2      4ebaee8c       jsr BRUSH2COM.image_readside(pc)
    │╎│││   0x005289f6      defc0010       adda.w 0x10, a7
    │└────< 0x005289fa      60d0           bra.b 0x5289cc
    │ └───> 0x005289fc      302c0020       move.w 0x20(a4), d0
    │  ││   0x00528a00      3f00           move.w d0, -(a7)
    │  ││   0x00528a02      0c40fffe       cmpi.w 0xfffe, d0
    │ ┌───< 0x00528a06      665c           bne.b 0x528a64
    │ │││   0x00528a08      34390083fc14   move.w 0x83fc14, d2
    │ │││   0x00528a0e      48c2           ext.l d2
    │ │││   0x00528a10      36280312       move.w 0x312(a0), d3
    │ │││   0x00528a14      48c3           ext.l d3
    │ │││   0x00528a16      f2024000       fmove.l d2, fp0
    │ │││   0x00528a1a      f2034020       fdiv.l d3, fp0
    │ │││   0x00528a1e      f2000398       fabs fp0, fp7
    │ │││   0x00528a22      f23c47b83efa.  fcmp.s 0, fp7
    │ │││   0x00528a2a      f29d0006       fbf.w 0x528a32
    │ │││   0x00528a2e      7e00           moveq 0x0, d7
    │┌────< 0x00528a30      6022           bra.b 0x528a54
    │││││   0x00528a32      f23c47b83ec7.  fcmp.s 0, fp7
    │││││   0x00528a3a      f29d0006       fbf.w 0x528a42
    │││││   0x00528a3e      7e01           moveq 0x1, d7
   ┌──────< 0x00528a40      6012           bra.b 0x528a54
   ││││││   0x00528a42      f23c47b83e94.  fcmp.s 0, fp7
   ││││││   0x00528a4a      f29d0006       fbf.w 0x528a52
   ││││││   0x00528a4e      7e02           moveq 0x2, d7
  ┌───────< 0x00528a50      6002           bra.b 0x528a54
  │││││││   0x00528a52      7e03           moveq 0x3, d7
  └└─└────> 0x00528a54      48c7           ext.l d7
    │ │││   0x00528a56      2007           move.l d7, d0
    │ │││   0x00528a58      e180           asl.l 0x8, d0
    │ │││   0x00528a5a      5080           addq.l 0x8, d0
    │ │││   0x00528a5c      33c00083fc1c   move.w d0, 0x83fc1c
    │┌────< 0x00528a62      6022           bra.b 0x528a86
    ││└───> 0x00528a64      0c40ffff       cmpi.w 0xffff, d0
    ││┌───< 0x00528a68      660c           bne.b 0x528a76
    │││││   0x00528a6a      7e00           moveq 0x0, d7
    │││││   0x00528a6c      33fc000c0083.  move.w 0xc, 0x83fc1c.l
   ┌──────< 0x00528a74      6010           bra.b 0x528a86
   │││└───> 0x00528a76      3e00           move.w d0, d7
   │││ ││   0x00528a78      48c7           ext.l d7
   │││ ││   0x00528a7a      2407           move.l d7, d2
   │││ ││   0x00528a7c      e182           asl.l 0x8, d2
   │││ ││   0x00528a7e      5082           addq.l 0x8, d2
   │││ ││   0x00528a80      33c20083fc1c   move.w d2, 0x83fc1c
   └─└────> 0x00528a86      226c0018       movea.l 0x18(a4), a1
    │  ││   0x00528a8a      10290008       move.b 0x8(a1), d0
    │  ││   0x00528a8e      0c000002       cmpi.b 0x2, d0
    │ ┌───< 0x00528a92      6610           bne.b 0x528aa4
    │ │││   0x00528a94      4282           clr.l d2
    │ │││   0x00528a96      34390083fc1c   move.w 0x83fc1c, d2
    │ │││   0x00528a9c      068200004000   addi.l 0x4000, d2
    │┌────< 0x00528aa2      6018           bra.b 0x528abc
    ││└───> 0x00528aa4      b004           cmp.b d4, d0
    ││┌───< 0x00528aa6      661a           bne.b 0x528ac2
    │││││   0x00528aa8      4282           clr.l d2
    │││││   0x00528aaa      34390083fc1c   move.w 0x83fc1c, d2
    │││││   0x00528ab0      068200004000   addi.l 0x4000, d2
    │││││   0x00528ab6      068200008000   addi.l 0x8000, d2
    │└────> 0x00528abc      33c20083fc1c   move.w d2, 0x83fc1c
    │ └───> 0x00528ac2      33f90083fc1c.  move.w 0x83fc1c, 0x83fc1a.l
    │  ││   0x00528acc      45f90083fbba   lea.l 0x83fbba, a2
    │  ││   0x00528ad2      2f0a           move.l a2, -(a7)
    │  ││   0x00528ad4      33f272020083.  move.w 0x2(a2, d7.w), 0x83fc1e.l
    │  ││   0x00528adc      7c18           moveq 0x18, d6
    │  ││   0x00528ade      10390083fbba   move.b 0x83fbba, d0
    │  ││   0x00528ae4      0c000002       cmpi.b 0x2, d0
    │ ┌───< 0x00528ae8      6710           beq.b 0x528afa
    │ │││   0x00528aea      4282           clr.l d2
    │ │││   0x00528aec      34390083fc1c   move.w 0x83fc1c, d2
    │ │││   0x00528af2      028200000004   andi.l 0x4, d2
    │┌────< 0x00528af8      6704           beq.b 0x528afe
    ││└───> 0x00528afa      7c10           moveq 0x10, d6
    ││┌───< 0x00528afc      6010           bra.b 0x528b0e
    │└────> 0x00528afe      4282           clr.l d2
    │ │││   0x00528b00      34390083fc1e   move.w 0x83fc1e, d2
    │ │││   0x00528b06      e282           asr.l 0x1, d2
    │ │││   0x00528b08      5382           subq.l 0x1, d2
    │ │││   0x00528b0a      e782           asl.l 0x3, d2
    │ │││   0x00528b0c      3c02           move.w d2, d6
    │ └───> 0x00528b0e      b004           cmp.b d4, d0
    │ ┌───< 0x00528b10      6636           bne.b 0x528b48
    │ │││   0x00528b12      2654           movea.l (a4), a3
    │ │││   0x00528b14      b7ebfffc       cmpa.l -0x4(a3), a3
    │┌────< 0x00528b18      6702           beq.b 0x528b1c
    │││││   0x00528b1a      4e4d           trap 0xd
    │└────> 0x00528b1c      486b0210       pea.l 0x210(a3)
    │ │││   0x00528b20      486b02a0       pea.l 0x2a0(a3)
    │ │││   0x00528b24      4851           pea.l (a1)
    │ │││   0x00528b26      48790083fbfc   pea.l 0x83fbfc
    │ │││   0x00528b2c      3f3c0018       move.w 0x18, -(a7)
    │ │││   0x00528b30      3f06           move.w d6, -(a7)
    │ │││   0x00528b32      49eeffc0       lea.l -0x40(a6), a4
    │ │││   0x00528b36      4ebaefe6       jsr BRUSH2COM.persp_readside(pc)
    │ │││   0x00528b3a      defc0014       adda.w 0x14, a7
    │ │││   0x00528b3e      286effc0       movea.l -0x40(a6), a4
    │ │││   0x00528b42      5c4f           addq.w 0x6, a7
    │┌────< 0x00528b44      6000012c       bra.w 0x528c72
    ││└───> 0x00528b48      13fc00020083.  move.b 0x2, 0x83fc78.l
    ││ ││   0x00528b50      2654           movea.l (a4), a3
    ││ ││   0x00528b52      b7ebfffc       cmpa.l -0x4(a3), a3
    ││┌───< 0x00528b56      6702           beq.b 0x528b5a
    │││││   0x00528b58      4e4d           trap 0xd
    ││└───> 0x00528b5a      41f90083fc90   lea.l 0x83fc90, a0
    ││ ││   0x00528b60      45eb0210       lea.l 0x210(a3), a2
    ││ ││   0x00528b64      7011           moveq 0x11, d0
    ││┌───> 0x00528b66      20da           move.l (a2)+, (a0)+
    ││└───< 0x00528b68      51c8fffc       dbra d0, 0x528b66
    ││ ││   0x00528b6c      23eb02a00083.  move.l 0x2a0(a3), 0x83fcd8.l
    ││ ││   0x00528b74      23eb02a40083.  move.l 0x2a4(a3), 0x83fcdc.l
    ││ ││   0x00528b7c      23eb02a80083.  move.l 0x2a8(a3), 0x83fce0.l
    ││ ││   0x00528b84      23d10083fce4   move.l (a1), 0x83fce4
    ││ ││   0x00528b8a      23e900040083.  move.l 0x4(a1), 0x83fce8.l
    ││ ││   0x00528b92      13e900080083.  move.b 0x8(a1), 0x83fcec.l
    ││ ││   0x00528b9a      13c40083fc86   move.b d4, 0x83fc86
    ││ ││   0x00528ba0      30290004       move.w 0x4(a1), d0
    ││ ││   0x00528ba4      48c0           ext.l d0
    ││ ││   0x00528ba6      81fc0008       divs.w 0x8, d0
    ││ ││   0x00528baa      34390083fc10   move.w 0x83fc10, d2
    ││ ││   0x00528bb0      48c2           ext.l d2
    ││ ││   0x00528bb2      48c0           ext.l d0
    ││ ││   0x00528bb4      4480           neg.l d0
    ││ ││   0x00528bb6      d082           add.l d2, d0
    ││ ││   0x00528bb8      33c00083fc7a   move.w d0, 0x83fc7a
    ││ ││   0x00528bbe      30290006       move.w 0x6(a1), d0
    ││ ││   0x00528bc2      48c0           ext.l d0
    ││ ││   0x00528bc4      81fc0008       divs.w 0x8, d0
    ││ ││   0x00528bc8      34390083fc12   move.w 0x83fc12, d2
    ││ ││   0x00528bce      48c2           ext.l d2
    ││ ││   0x00528bd0      48c0           ext.l d0
    ││ ││   0x00528bd2      4480           neg.l d0
    ││ ││   0x00528bd4      d082           add.l d2, d0
    ││ ││   0x00528bd6      33c00083fc7c   move.w d0, 0x83fc7c
    ││ ││   0x00528bdc      30390083fc7a   move.w 0x83fc7a, d0
    ││ ││   0x00528be2      48c0           ext.l d0
    ││ ││   0x00528be4      34390083fc14   move.w 0x83fc14, d2
    ││ ││   0x00528bea      48c2           ext.l d2
    ││ ││   0x00528bec      d480           add.l d0, d2
    ││ ││   0x00528bee      5282           addq.l 0x1, d2
    ││ ││   0x00528bf0      33c20083fc7e   move.w d2, 0x83fc7e
    ││ ││   0x00528bf6      30390083fc7c   move.w 0x83fc7c, d0
    ││ ││   0x00528bfc      48c0           ext.l d0
    ││ ││   0x00528bfe      34390083fc16   move.w 0x83fc16, d2
    ││ ││   0x00528c04      48c2           ext.l d2
    ││ ││   0x00528c06      d480           add.l d0, d2
    ││ ││   0x00528c08      33c20083fc80   move.w d2, 0x83fc80
    ││ ││   0x00528c0e      302b030e       move.w 0x30e(a3), d0
    ││ ││   0x00528c12      48c0           ext.l d0
    ││ ││   0x00528c14      e780           asl.l 0x3, d0
    ││ ││   0x00528c16      342b0022       move.w 0x22(a3), d2
    ││ ││   0x00528c1a      48c2           ext.l d2
    ││ ││   0x00528c1c      d480           add.l d0, d2
    ││ ││   0x00528c1e      048200000018   subi.l 0x18, d2
    ││ ││   0x00528c24      33c20083fc82   move.w d2, 0x83fc82
    ││ ││   0x00528c2a      302b0310       move.w 0x310(a3), d0
    ││ ││   0x00528c2e      48c0           ext.l d0
    ││ ││   0x00528c30      e780           asl.l 0x3, d0
    ││ ││   0x00528c32      342b0024       move.w 0x24(a3), d2
    ││ ││   0x00528c36      48c2           ext.l d2
    ││ ││   0x00528c38      d480           add.l d0, d2
    ││ ││   0x00528c3a      48c6           ext.l d6
    ││ ││   0x00528c3c      9486           sub.l d6, d2
    ││ ││   0x00528c3e      5182           subq.l 0x8, d2
    ││ ││   0x00528c40      33c20083fc84   move.w d2, 0x83fc84
    ││ ││   0x00528c46      302f0004       move.w 0x4(a7), d0
    ││ ││   0x00528c4a      0c40000f       cmpi.w 0xf, d0
    ││┌───< 0x00528c4e      6704           beq.b 0x528c54
    │││││   0x00528c50      5c4f           addq.w 0x6, a7
   ┌──────< 0x00528c52      601e           bra.b 0x528c72
   │││└───> 0x00528c54      2057           movea.l (a7), a0
   │││ ││   0x00528c56      30307202       move.w 0x2(a0, d7.w), d0
   │││ ││   0x00528c5a      0c400004       cmpi.w 0x4, d0
   │││┌───< 0x00528c5e      6704           beq.b 0x528c64
   ││││││   0x00528c60      5c4f           addq.w 0x6, a7
  ┌───────< 0x00528c62      600e           bra.b 0x528c72
  ││││└───> 0x00528c64      48c2           ext.l d2
  ││││ ││   0x00528c66      2002           move.l d2, d0
  ││││ ││   0x00528c68      5080           addq.l 0x8, d0
  ││││ ││   0x00528c6a      33c00083fc84   move.w d0, 0x83fc84
  ││││ ││   0x00528c70      5c4f           addq.w 0x6, a7
  └└└└─└└─> 0x00528c72      206c0010       movea.l 0x10(a4), a0
            0x00528c76      20b90083fc10   move.l 0x83fc10, (a0)
            0x00528c7c      21790083fc14.  move.l 0x83fc14, 0x4(a0)
            0x00528c84      f21fd0e7       fmovem (a7)+, fp0-fp2/fp5-fp7
            0x00528c88      4cdf1fff       movem.l (a7)+, d0-d7/a0-a4
            0x00528c8c      4e5e           unlk a6
            0x00528c8e      4e75           rts
┌ 24: BRUSH2COM.setup_shape ();
│           0x00528c90      4e56ffa6       link.w a6, 0xffa6
│           0x00528c94      bfd5           cmpa.l (a5), a7
│       ┌─< 0x00528c96      6206           bhi.b 0x528c9e
│       │   0x00528c98      44fc0002       move.w 0x2, ccr
│       │   0x00528c9c      4e76           trapv
│       └─> 0x00528c9e      defc0058       adda.w 0x58, a7
│           0x00528ca2      48e7fff0       movem.l d0-d7/a0-a3, -(a7)
│           0x00528ca6      f227e001       fmovem fp0, -(a7)
            0x00528caa      47f90052b4e0   lea.l t_integer, a3
            0x00528cb0      7401           moveq 0x1, d2
            0x00528cb2      7602           moveq 0x2, d3
            0x00528cb4      7803           moveq 0x3, d4
            0x00528cb6      7a06           moveq 0x6, d5
            0x00528cb8      7c04           moveq 0x4, d6
            0x00528cba      7e05           moveq 0x5, d7
            0x00528cbc      13c50083fc78   move.b d5, 0x83fc78
            0x00528cc2      102c0016       move.b 0x16(a4), d0
            0x00528cc6      b003           cmp.b d3, d0
        ┌─< 0x00528cc8      6608           bne.b 0x528cd2
        │   0x00528cca      13c60083fc4a   move.b d6, 0x83fc4a
       ┌──< 0x00528cd0      6006           bra.b 0x528cd8
       │└─> 0x00528cd2      13c70083fc4a   move.b d7, 0x83fc4a
       └──> 0x00528cd8      2054           movea.l (a4), a0
            0x00528cda      b1e8fffc       cmpa.l -0x4(a0), a0
        ┌─< 0x00528cde      6702           beq.b 0x528ce2
        │   0x00528ce0      4e4d           trap 0xd
        └─> 0x00528ce2      4eb90052b5d0   jsr t_flush
            0x00528ce8      48780006       pea.l 0x6
            0x00528cec      4e93           jsr (a3)                    ; fcn.0000000c
            0x00528cee      584f           addq.w 0x4, a7
            0x00528cf0      102c0024       move.b 0x24(a4), d0
            0x00528cf4      49c0           extb.l d0
            0x00528cf6      2f00           move.l d0, -(a7)
            0x00528cf8      4e93           jsr (a3)                    ; fcn.0000000c
            0x00528cfa      584f           addq.w 0x4, a7
            0x00528cfc      102c0022       move.b 0x22(a4), d0
            0x00528d00      49c0           extb.l d0
            0x00528d02      2f00           move.l d0, -(a7)
            0x00528d04      4e93           jsr (a3)                    ; fcn.0000000c
            0x00528d06      584f           addq.w 0x4, a7
            0x00528d08      48680312       pea.l 0x312(a0)
            0x00528d0c      3f03           move.w d3, -(a7)
            0x00528d0e      4eb90052b512   jsr t_words
            0x00528d14      5c4f           addq.w 0x6, a7
            0x00528d16      30280602       move.w 0x602(a0), d0
            0x00528d1a      48c0           ext.l d0
            0x00528d1c      f2004000       fmove.l d0, fp0
            0x00528d20      f2286400033c   fmove.s fp0, 0x33c(a0)
            0x00528d26      30280604       move.w 0x604(a0), d0
            0x00528d2a      48c0           ext.l d0
            0x00528d2c      f2004000       fmove.l d0, fp0
            0x00528d30      f22864000340   fmove.s fp0, 0x340(a0)
            0x00528d36      30280606       move.w 0x606(a0), d0
            0x00528d3a      48c0           ext.l d0
            0x00528d3c      f2004000       fmove.l d0, fp0
            0x00528d40      f22864000344   fmove.s fp0, 0x344(a0)
            0x00528d46      30280608       move.w 0x608(a0), d0
            0x00528d4a      48c0           ext.l d0
            0x00528d4c      f2004000       fmove.l d0, fp0
            0x00528d50      f22864000348   fmove.s fp0, 0x348(a0)
            0x00528d56      10390083fbba   move.b 0x83fbba, d0
            0x00528d5c      b004           cmp.b d4, d0
        ┌─< 0x00528d5e      6656           bne.b 0x528db6
        │   0x00528d60      2f390083fc42   move.l 0x83fc42, -(a7)
        │   0x00528d66      4e93           jsr (a3)                    ; fcn.0000000c
        │   0x00528d68      584f           addq.w 0x4, a7
        │   0x00528d6a      48790083fc4c   pea.l 0x83fc4c
        │   0x00528d70      3f07           move.w d7, -(a7)
        │   0x00528d72      4eb90052b512   jsr t_words
        │   0x00528d78      5c4f           addq.w 0x6, a7
        │   0x00528d7a      48790083fc5a   pea.l 0x83fc5a
        │   0x00528d80      3f05           move.w d5, -(a7)
        │   0x00528d82      4eb90052b594   jsr t_reals
        │   0x00528d88      5c4f           addq.w 0x6, a7
        │   0x00528d8a      30390083fc72   move.w 0x83fc72, d0
        │   0x00528d90      48c0           ext.l d0
        │   0x00528d92      2f00           move.l d0, -(a7)
        │   0x00528d94      4e93           jsr (a3)                    ; fcn.0000000c
        │   0x00528d96      584f           addq.w 0x4, a7
        │   0x00528d98      30390083fc74   move.w 0x83fc74, d0
        │   0x00528d9e      48c0           ext.l d0
        │   0x00528da0      2f00           move.l d0, -(a7)
        │   0x00528da2      4e93           jsr (a3)                    ; fcn.0000000c
        │   0x00528da4      584f           addq.w 0x4, a7
        │   0x00528da6      30390083fc76   move.w 0x83fc76, d0
        │   0x00528dac      48c0           ext.l d0
        │   0x00528dae      2f00           move.l d0, -(a7)
        │   0x00528db0      4e93           jsr (a3)                    ; fcn.0000000c
        │   0x00528db2      584f           addq.w 0x4, a7
       ┌──< 0x00528db4      602c           bra.b 0x528de2
       │└─> 0x00528db6      3028030e       move.w 0x30e(a0), d0
       │    0x00528dba      48c0           ext.l d0
       │    0x00528dbc      f2284400033c   fmove.s 0x33c(a0), fp0
       │    0x00528dc2      f2004022       fadd.l d0, fp0
       │    0x00528dc6      f2286400033c   fmove.s fp0, 0x33c(a0)
       │    0x00528dcc      30280310       move.w 0x310(a0), d0
       │    0x00528dd0      48c0           ext.l d0
       │    0x00528dd2      f22844000340   fmove.s 0x340(a0), fp0
       │    0x00528dd8      f2004022       fadd.l d0, fp0
       │    0x00528ddc      f22864000340   fmove.s fp0, 0x340(a0)
       └──> 0x00528de2      48680210       pea.l 0x210(a0)
            0x00528de6      3f3c000c       move.w 0xc, -(a7)
            0x00528dea      4eb90052b594   jsr t_reals
            0x00528df0      5c4f           addq.w 0x6, a7
            0x00528df2      486802a0       pea.l 0x2a0(a0)
            0x00528df6      3f04           move.w d4, -(a7)
            0x00528df8      4eb90052b594   jsr t_reals
            0x00528dfe      5c4f           addq.w 0x6, a7
            0x00528e00      226c0010       movea.l 0x10(a4), a1
            0x00528e04      4851           pea.l (a1)
            0x00528e06      3f06           move.w d6, -(a7)
            0x00528e08      4eb90052b512   jsr t_words
            0x00528e0e      5c4f           addq.w 0x6, a7
            0x00528e10      246c0018       movea.l 0x18(a4), a2
            0x00528e14      4852           pea.l (a2)
            0x00528e16      3f02           move.w d2, -(a7)
            0x00528e18      4eb90052b594   jsr t_reals
            0x00528e1e      5c4f           addq.w 0x6, a7
            0x00528e20      486a0004       pea.l 0x4(a2)
            0x00528e24      3f03           move.w d3, -(a7)
            0x00528e26      4eb90052b512   jsr t_words
            0x00528e2c      5c4f           addq.w 0x6, a7
            0x00528e2e      102a0008       move.b 0x8(a2), d0
            0x00528e32      49c0           extb.l d0
            0x00528e34      2f00           move.l d0, -(a7)
            0x00528e36      4e93           jsr (a3)                    ; fcn.0000000c
            0x00528e38      584f           addq.w 0x4, a7
            0x00528e3a      4868033c       pea.l 0x33c(a0)
            0x00528e3e      3f03           move.w d3, -(a7)
            0x00528e40      4eb90052b594   jsr t_reals
            0x00528e46      5c4f           addq.w 0x6, a7
            0x00528e48      48680344       pea.l 0x344(a0)
            0x00528e4c      3f03           move.w d3, -(a7)
            0x00528e4e      4eb90052b594   jsr t_reals
            0x00528e54      5c4f           addq.w 0x6, a7
            0x00528e56      30390083fc7a   move.w 0x83fc7a, d0
            0x00528e5c      48c0           ext.l d0
            0x00528e5e      2f00           move.l d0, -(a7)
            0x00528e60      4e93           jsr (a3)                    ; fcn.0000000c
            0x00528e62      584f           addq.w 0x4, a7
            0x00528e64      3028034c       move.w 0x34c(a0), d0
            0x00528e68      48c0           ext.l d0
            0x00528e6a      2f00           move.l d0, -(a7)
            0x00528e6c      4e93           jsr (a3)                    ; fcn.0000000c
            0x00528e6e      584f           addq.w 0x4, a7
            0x00528e70      4868034e       pea.l 0x34e(a0)
            0x00528e74      3f3c0040       move.w 0x40, -(a7)
            0x00528e78      4eb90052b594   jsr t_reals
            0x00528e7e      5c4f           addq.w 0x6, a7
            0x00528e80      10390083fbba   move.b 0x83fbba, d0
            0x00528e86      b004           cmp.b d4, d0
        ┌─< 0x00528e88      6604           bne.b 0x528e8e
        │   0x00528e8a      4ebae7e8       jsr BRUSH2COM.send_lights(pc)
        └─> 0x00528e8e      23fad6ec0083.  move.l 0x52657c(pc), 0x83fc10.l
            0x00528e96      23fad6e80083.  move.l 0x526580(pc), 0x83fc14.l
            0x00528e9e      554f           subq.w 0x2, a7
            0x00528ea0      48790083fc10   pea.l 0x83fc10
            0x00528ea6      1f02           move.b d2, -(a7)
            0x00528ea8      4eb90052b65a   jsr t_get_word
            0x00528eae      5c4f           addq.w 0x6, a7
            0x00528eb0      4a1f           tst.b (a7)+
        ┌─< 0x00528eb2      675c           beq.b 0x528f10
        │   0x00528eb4      554f           subq.w 0x2, a7
        │   0x00528eb6      48790083fc12   pea.l 0x83fc12
        │   0x00528ebc      1f02           move.b d2, -(a7)
        │   0x00528ebe      4eb90052b65a   jsr t_get_word
        │   0x00528ec4      5c4f           addq.w 0x6, a7
        │   0x00528ec6      4a1f           tst.b (a7)+
       ┌──< 0x00528ec8      6746           beq.b 0x528f10
       ││   0x00528eca      554f           subq.w 0x2, a7
       ││   0x00528ecc      48790083fc14   pea.l 0x83fc14
       ││   0x00528ed2      1f02           move.b d2, -(a7)
       ││   0x00528ed4      4eb90052b65a   jsr t_get_word
       ││   0x00528eda      5c4f           addq.w 0x6, a7
       ││   0x00528edc      4a1f           tst.b (a7)+
      ┌───< 0x00528ede      6730           beq.b 0x528f10
      │││   0x00528ee0      554f           subq.w 0x2, a7
      │││   0x00528ee2      48790083fc16   pea.l 0x83fc16
      │││   0x00528ee8      1f02           move.b d2, -(a7)
      │││   0x00528eea      4eb90052b65a   jsr t_get_word
      │││   0x00528ef0      5c4f           addq.w 0x6, a7
      │││   0x00528ef2      4a1f           tst.b (a7)+
     ┌────< 0x00528ef4      661a           bne.b 0x528f10
     ││││   0x00528ef6      487ad68d       pea.l 0x526585(pc)
     ││││   0x00528efa      48780017       pea.l 0x17
     ││││   0x00528efe      2f17           move.l (a7), -(a7)
     ││││   0x00528f00      4eb9004047ea   jsr p_wts_o
     ││││   0x00528f06      defc000c       adda.w 0xc, a7
     ││││   0x00528f0a      4eb900404946   jsr p_wtln_o
     └└└└─> 0x00528f10      30390083fc10   move.w 0x83fc10, d0
            0x00528f16      48c0           ext.l d0
            0x00528f18      3211           move.w (a1), d1
            0x00528f1a      48c1           ext.l d1
            0x00528f1c      4481           neg.l d1
            0x00528f1e      d280           add.l d0, d1
            0x00528f20      33c10083fc46   move.w d1, 0x83fc46
            0x00528f26      30390083fc12   move.w 0x83fc12, d0
            0x00528f2c      48c0           ext.l d0
            0x00528f2e      32290002       move.w 0x2(a1), d1
            0x00528f32      48c1           ext.l d1
            0x00528f34      4481           neg.l d1
            0x00528f36      d280           add.l d0, d1
            0x00528f38      33c10083fc48   move.w d1, 0x83fc48
            0x00528f3e      22b90083fc10   move.l 0x83fc10, (a1)
            0x00528f44      23790083fc14.  move.l 0x83fc14, 0x4(a1)
            0x00528f4c      4228061e       clr.b 0x61e(a0)
            0x00528f50      4a690004       tst.w 0x4(a1)
        ┌─< 0x00528f54      670a           beq.b 0x528f60
        │   0x00528f56      4a690006       tst.w 0x6(a1)
       ┌──< 0x00528f5a      6704           beq.b 0x528f60
       ││   0x00528f5c      5228061e       addq.b 0x1, 0x61e(a0)
       └└─> 0x00528f60      422802f1       clr.b 0x2f1(a0)
            0x00528f64      3028034c       move.w 0x34c(a0), d0
            0x00528f68      b042           cmp.w d2, d0
        ┌─< 0x00528f6a      6650           bne.b 0x528fbc
        │   0x00528f6c      f2124400       fmove.s (a2), fp0
        │   0x00528f70      f23c44383f80.  fcmp.s 1, fp0
        │   0x00528f78      f2960042       fbf.w 0x528fbc
        │   0x00528f7c      4eb90052b5d0   jsr t_flush
        │   0x00528f82      2268061a       movea.l 0x61a(a0), a1
        │   0x00528f86      b2c2           cmpa.w d2, a1
       ┌──< 0x00528f88      6610           bne.b 0x528f9a
       ││   0x00528f8a      4868061a       pea.l 0x61a(a0)
       ││   0x00528f8e      48781212       pea.l 0x1212
       ││   0x00528f92      4eb900403a92   jsr p_New
       ││   0x00528f98      504f           addq.w 0x8, a7
       └──> 0x00528f9a      554f           subq.w 0x2, a7
        │   0x00528f9c      2f28061a       move.l 0x61a(a0), -(a7)
        │   0x00528fa0      2268061a       movea.l 0x61a(a0), a1
        │   0x00528fa4      b3e9fffc       cmpa.l -0x4(a1), a1
       ┌──< 0x00528fa8      6702           beq.b 0x528fac
       ││   0x00528faa      4e4d           trap 0xd
       └──> 0x00528fac      43e90486       lea.l 0x486(a1), a1
        │   0x00528fb0      2f09           move.l a1, -(a7)
        │   0x00528fb2      4eb90052bce6   jsr t_send_dots
        │   0x00528fb8      504f           addq.w 0x8, a7
        │   0x00528fba      4a1f           tst.b (a7)+
        └─> 0x00528fbc      f21fd080       fmovem (a7)+, fp0
            0x00528fc0      4cdf0fff       movem.l (a7)+, d0-d7/a0-a3
            0x00528fc4      4e5e           unlk a6
            0x00528fc6      4e75           rts
            ; CALL XREF from MENU3DCOM.PAS.update_many @ 0x50d5aa
            ; CALL XREF from PASTECOM.load_cutout @ 0x673914
            ; CALL XREF from PASTECOM.do_image_cutout @ 0x677b76
┌ 24: BRUSH2COM.br_size_3d ();
│           0x00528fc8      4e56feb4       link.w a6, 0xfeb4
│           0x00528fcc      bfd5           cmpa.l (a5), a7
│       ┌─< 0x00528fce      6206           bhi.b 0x528fd6
│       │   0x00528fd0      44fc0002       move.w 0x2, ccr
│       │   0x00528fd4      4e76           trapv
│       └─> 0x00528fd6      defc0144       adda.w 0x144, a7
│           0x00528fda      48e7f8f8       movem.l d0-d4/a0-a4, -(a7)
│           0x00528fde      f227e001       fmovem fp0, -(a7)
            0x00528fe2      720c           moveq 0xc, d1
            0x00528fe4      7401           moveq 0x1, d2
            0x00528fe6      7603           moveq 0x3, d3
            0x00528fe8      7800           moveq 0x0, d4
            0x00528fea      4a390083fcf8   tst.b 0x83fcf8
        ┌─< 0x00528ff0      670000e2       beq.w 0x5290d4
        │   0x00528ff4      487ad5a7       pea.l 0x52659d(pc)
        │   0x00528ff8      48780011       pea.l 0x11
        │   0x00528ffc      2f17           move.l (a7), -(a7)
        │   0x00528ffe      4eb9004047ea   jsr p_wts_o
        │   0x00529004      dec1           adda.w d1, a7
        │   0x00529006      302e0018       move.w 0x18(a6), d0
        │   0x0052900a      48c0           ext.l d0
        │   0x0052900c      2f00           move.l d0, -(a7)
        │   0x0052900e      48780000       pea.l 0x0
        │   0x00529012      4eb9004070e4   jsr p_wti_o
        │   0x00529018      504f           addq.w 0x8, a7
        │   0x0052901a      487ad593       pea.l 0x5265af(pc)
        │   0x0052901e      48780005       pea.l 0x5
        │   0x00529022      2f17           move.l (a7), -(a7)
        │   0x00529024      4eb9004047ea   jsr p_wts_o
        │   0x0052902a      dec1           adda.w d1, a7
        │   0x0052902c      102e001c       move.b 0x1c(a6), d0
        │   0x00529030      49c0           extb.l d0
        │   0x00529032      2f00           move.l d0, -(a7)
        │   0x00529034      48780000       pea.l 0x0
        │   0x00529038      4eb9004070e4   jsr p_wti_o
        │   0x0052903e      504f           addq.w 0x8, a7
        │   0x00529040      487ad573       pea.l 0x5265b5(pc)
        │   0x00529044      48780004       pea.l 0x4
        │   0x00529048      2f17           move.l (a7), -(a7)
        │   0x0052904a      4eb9004047ea   jsr p_wts_o
        │   0x00529050      dec1           adda.w d1, a7
        │   0x00529052      102e000e       move.b 0xe(a6), d0
        │   0x00529056      49c0           extb.l d0
        │   0x00529058      2f00           move.l d0, -(a7)
        │   0x0052905a      48780000       pea.l 0x0
        │   0x0052905e      4eb9004070e4   jsr p_wti_o
        │   0x00529064      504f           addq.w 0x8, a7
        │   0x00529066      487ad552       pea.l 0x5265ba(pc)
        │   0x0052906a      48780008       pea.l 0x8
        │   0x0052906e      2f17           move.l (a7), -(a7)
        │   0x00529070      4eb9004047ea   jsr p_wts_o
        │   0x00529076      dec1           adda.w d1, a7
        │   0x00529078      102e000c       move.b 0xc(a6), d0
        │   0x0052907c      49c0           extb.l d0
        │   0x0052907e      2f00           move.l d0, -(a7)
        │   0x00529080      48780000       pea.l 0x0
        │   0x00529084      4eb9004070e4   jsr p_wti_o
        │   0x0052908a      9efc00f8       suba.w 0xf8, a7
        │   0x0052908e      206e0008       movea.l 0x8(a6), a0
        │   0x00529092      2f280004       move.l 0x4(a0), -(a7)
        │   0x00529096      2f10           move.l (a0), -(a7)
        │   0x00529098      48780000       pea.l 0x0
        │   0x0052909c      4eb90044d9f2   jsr SYSTEM_STRING.area_str
        │   0x005290a2      dec1           adda.w d1, a7
        │   0x005290a4      487ad51d       pea.l 0x5265c3(pc)
        │   0x005290a8      4878000d       pea.l 0xd
        │   0x005290ac      2f17           move.l (a7), -(a7)
        │   0x005290ae      4eb9004047ea   jsr p_wts_o
        │   0x005290b4      dec1           adda.w d1, a7
        │   0x005290b6      486f0001       pea.l 0x1(a7)
        │   0x005290ba      42a7           clr.l -(a7)
        │   0x005290bc      1f6f00080003   move.b 0x8(a7), 0x3(a7)
        │   0x005290c2      2f17           move.l (a7), -(a7)
        │   0x005290c4      4eb9004047ea   jsr p_wts_o
        │   0x005290ca      defc010c       adda.w 0x10c, a7
        │   0x005290ce      4eb900404946   jsr p_wtln_o
        └─> 0x005290d4      2d6e0014fff8   move.l 0x14(a6), -0x8(a6)
            0x005290da      3642           movea.w d2, a3
            0x005290dc      13ee001c0083.  move.b 0x1c(a6), 0x83fbfc.l
            0x005290e4      13ee001a0083.  move.b 0x1a(a6), 0x83fc4b.l
            0x005290ec      42390083fc7a   clr.b 0x83fc7a
            0x005290f2      206efff8       movea.l -0x8(a6), a0
            0x005290f6      b1e8fffc       cmpa.l -0x4(a0), a0
        ┌─< 0x005290fa      6702           beq.b 0x5290fe
        │   0x005290fc      4e4d           trap 0xd
        └─> 0x005290fe      4a2802da       tst.b 0x2da(a0)
        ┌─< 0x00529102      6608           bne.b 0x52910c
        │   0x00529104      102802d9       move.b 0x2d9(a0), d0
        │   0x00529108      b002           cmp.b d2, d0
       ┌──< 0x0052910a      6606           bne.b 0x529112
       │└─> 0x0052910c      52390083fc7a   addq.b 0x1, 0x83fc7a.l
       └──> 0x00529112      10390083fc7a   move.b 0x83fc7a, d0
            0x00529118      4880           ext.w d0
            0x0052911a      33c00083fc7a   move.w d0, 0x83fc7a
            0x00529120      23e8030e0083.  move.l 0x30e(a0), 0x83fc08.l
            0x00529128      23e803120083.  move.l 0x312(a0), 0x83fc0c.l
            0x00529130      10390083fbba   move.b 0x83fbba, d0
            0x00529136      b003           cmp.b d3, d0
        ┌─< 0x00529138      66000186       bne.w 0x5292c0
        │   0x0052913c      302802e8       move.w 0x2e8(a0), d0
        │   0x00529140      48c0           ext.l d0
        │   0x00529142      81fc0040       divs.w 0x40, d0
        │   0x00529146      33c00083fc4c   move.w d0, 0x83fc4c
        │   0x0052914c      0c4000ff       cmpi.w 0xff, d0
       ┌──< 0x00529150      6f08           ble.b 0x52915a
       ││   0x00529152      33fc00ff0083.  move.w 0xff, 0x83fc4c.l
       └──> 0x0052915a      42390083fc4e   clr.b 0x83fc4e
        │   0x00529160      4a2802da       tst.b 0x2da(a0)
       ┌──< 0x00529164      6608           bne.b 0x52916e
       ││   0x00529166      102802d9       move.b 0x2d9(a0), d0
       ││   0x0052916a      b002           cmp.b d2, d0
      ┌───< 0x0052916c      6606           bne.b 0x529174
      │└──> 0x0052916e      52390083fc4e   addq.b 0x1, 0x83fc4e.l
      └───> 0x00529174      10390083fc4e   move.b 0x83fc4e, d0
        │   0x0052917a      4880           ext.w d0
        │   0x0052917c      33c00083fc4e   move.w d0, 0x83fc4e
        │   0x00529182      33e802dc0083.  move.w 0x2dc(a0), 0x83fc50.l
        │   0x0052918a      33e802de0083.  move.w 0x2de(a0), 0x83fc52.l
        │   0x00529192      33e802e00083.  move.w 0x2e0(a0), 0x83fc54.l
        │   0x0052919a      43f90083fc56   lea.l 0x83fc56, a1
        │   0x005291a0      45e80620       lea.l 0x620(a0), a2
        │   0x005291a4      7007           moveq 0x7, d0
       ┌──> 0x005291a6      22da           move.l (a2)+, (a1)+
       └──< 0x005291a8      51c8fffc       dbra d0, 0x5291a6
        │   0x005291ac      32da           move.w (a2)+, (a1)+
        │   0x005291ae      4a390083fc58   tst.b 0x83fc58
       ┌──< 0x005291b4      660c           bne.b 0x5291c2
       ││   0x005291b6      f2044000       fmove.l d4, fp0
       ││   0x005291ba      f23964000083.  fmove.s fp0, 0x83fc6e
       └──> 0x005291c2      4a390083fc57   tst.b 0x83fc57
       ┌──< 0x005291c8      660c           bne.b 0x5291d6
       ││   0x005291ca      f2044000       fmove.l d4, fp0
       ││   0x005291ce      f23964000083.  fmove.s fp0, 0x83fc6a
       └──> 0x005291d6      4a390083fc56   tst.b 0x83fc56
       ┌──< 0x005291dc      664a           bne.b 0x529228
       ││   0x005291de      3028002e       move.w 0x2e(a0), d0
       ││   0x005291e2      48c0           ext.l d0
       ││   0x005291e4      f2004000       fmove.l d0, fp0
       ││   0x005291e8      f23964000083.  fmove.s fp0, 0x83fc62
       ││   0x005291f0      30280032       move.w 0x32(a0), d0
       ││   0x005291f4      48c0           ext.l d0
       ││   0x005291f6      f2004000       fmove.l d0, fp0
       ││   0x005291fa      f23964000083.  fmove.s fp0, 0x83fc5a
       ││   0x00529202      30280030       move.w 0x30(a0), d0
       ││   0x00529206      48c0           ext.l d0
       ││   0x00529208      f2004000       fmove.l d0, fp0
       ││   0x0052920c      f23964000083.  fmove.s fp0, 0x83fc66
       ││   0x00529214      30280034       move.w 0x34(a0), d0
       ││   0x00529218      48c0           ext.l d0
       ││   0x0052921a      f2004000       fmove.l d0, fp0
       ││   0x0052921e      f23964000083.  fmove.s fp0, 0x83fc5e
      ┌───< 0x00529226      6060           bra.b 0x529288
      │└──> 0x00529228      3028002e       move.w 0x2e(a0), d0
      │ │   0x0052922c      48c0           ext.l d0
      │ │   0x0052922e      f2284400062c   fmove.s 0x62c(a0), fp0
      │ │   0x00529234      f2004022       fadd.l d0, fp0
      │ │   0x00529238      f23964000083.  fmove.s fp0, 0x83fc62
      │ │   0x00529240      30280032       move.w 0x32(a0), d0
      │ │   0x00529244      48c0           ext.l d0
      │ │   0x00529246      f22844000624   fmove.s 0x624(a0), fp0
      │ │   0x0052924c      f2004022       fadd.l d0, fp0
      │ │   0x00529250      f23964000083.  fmove.s fp0, 0x83fc5a
      │ │   0x00529258      30280030       move.w 0x30(a0), d0
      │ │   0x0052925c      48c0           ext.l d0
      │ │   0x0052925e      f22844000630   fmove.s 0x630(a0), fp0
      │ │   0x00529264      f2004022       fadd.l d0, fp0
      │ │   0x00529268      f23964000083.  fmove.s fp0, 0x83fc66
      │ │   0x00529270      30280034       move.w 0x34(a0), d0
      │ │   0x00529274      48c0           ext.l d0
      │ │   0x00529276      f22844000628   fmove.s 0x628(a0), fp0
      │ │   0x0052927c      f2004022       fadd.l d0, fp0
      │ │   0x00529280      f23964000083.  fmove.s fp0, 0x83fc5e
      └───> 0x00529288      102e001c       move.b 0x1c(a6), d0
        │   0x0052928c      b003           cmp.b d3, d0
       ┌──< 0x0052928e      6618           bne.b 0x5292a8
       ││   0x00529290      3642           movea.w d2, a3
       ││   0x00529292      4ebadd7e       jsr BRUSH2COM.flush_src_image(pc)
       ││   0x00529296      23f90083fcf4.  move.l 0x83fcf4, 0x83fc42.l
       ││   0x005292a0      42390083fc40   clr.b 0x83fc40
      ┌───< 0x005292a6      6018           bra.b 0x5292c0
      │└──> 0x005292a8      594f           subq.w 0x4, a7
      │ │   0x005292aa      2f2efff8       move.l -0x8(a6), -(a7)
      │ │   0x005292ae      48790083fbfc   pea.l 0x83fbfc
      │ │   0x005292b4      49eefff8       lea.l -0x8(a6), a4
      │ │   0x005292b8      4ebae11a       jsr BRUSH2COM.src_image_loade(pc)
      │ │   0x005292bc      504f           addq.w 0x8, a7
      │ │   0x005292be      265f           movea.l (a7)+, a3
      └─└─> 0x005292c0      206efff8       movea.l -0x8(a6), a0
            0x005292c4      b1e8fffc       cmpa.l -0x4(a0), a0
        ┌─< 0x005292c8      6702           beq.b 0x5292cc
        │   0x005292ca      4e4d           trap 0xd
        └─> 0x005292cc      4a68034c       tst.w 0x34c(a0)
        ┌─< 0x005292d0      660a           bne.b 0x5292dc
        │   0x005292d2      49eefff8       lea.l -0x8(a6), a4
        │   0x005292d6      4ebaf140       jsr BRUSH2COM.setup_flat(pc)
       ┌──< 0x005292da      602a           bra.b 0x529306
       │└─> 0x005292dc      4a390083fcee   tst.b 0x83fcee
       │┌─< 0x005292e2      660a           bne.b 0x5292ee
       ││   0x005292e4      49eefff8       lea.l -0x8(a6), a4
       ││   0x005292e8      4ebaf9a6       jsr BRUSH2COM.setup_shape(pc)
      ┌───< 0x005292ec      6018           bra.b 0x529306
      ││└─> 0x005292ee      487ad2e1       pea.l 0x5265d1(pc)
      ││    0x005292f2      48780020       pea.l 0x20
      ││    0x005292f6      2f17           move.l (a7), -(a7)
      ││    0x005292f8      4eb9004047ea   jsr p_wts_o
      ││    0x005292fe      dec1           adda.w d1, a7
      ││    0x00529300      4eb900404946   jsr p_wtln_o
      └└──> 0x00529306      13c20083fcee   move.b d2, 0x83fcee
            0x0052930c      4a390083fcf8   tst.b 0x83fcf8
        ┌─< 0x00529312      674a           beq.b 0x52935e
        │   0x00529314      9efc0100       suba.w 0x100, a7
        │   0x00529318      206e0008       movea.l 0x8(a6), a0
        │   0x0052931c      2f280004       move.l 0x4(a0), -(a7)
        │   0x00529320      2f10           move.l (a0), -(a7)
        │   0x00529322      48780000       pea.l 0x0
        │   0x00529326      4eb90044d9f2   jsr SYSTEM_STRING.area_str
        │   0x0052932c      dec1           adda.w d1, a7
        │   0x0052932e      487ad2c2       pea.l 0x5265f2(pc)
        │   0x00529332      4878000d       pea.l 0xd
        │   0x00529336      2f17           move.l (a7), -(a7)
        │   0x00529338      4eb9004047ea   jsr p_wts_o
        │   0x0052933e      dec1           adda.w d1, a7
        │   0x00529340      486f0001       pea.l 0x1(a7)
        │   0x00529344      42a7           clr.l -(a7)
        │   0x00529346      1f6f00080003   move.b 0x8(a7), 0x3(a7)
        │   0x0052934c      2f17           move.l (a7), -(a7)
        │   0x0052934e      4eb9004047ea   jsr p_wts_o
        │   0x00529354      defc010c       adda.w 0x10c, a7
        │   0x00529358      4eb900404946   jsr p_wtln_o
        └─> 0x0052935e      10390083fbba   move.b 0x83fbba, d0
            0x00529364      b003           cmp.b d3, d0
        ┌─< 0x00529366      6632           bne.b 0x52939a
        │   0x00529368      b6c2           cmpa.w d2, a3
       ┌──< 0x0052936a      672e           beq.b 0x52939a
       ││   0x0052936c      10390083fc78   move.b 0x83fc78, d0
       ││   0x00529372      0c000005       cmpi.b 0x5, d0
      ┌───< 0x00529376      6622           bne.b 0x52939a
      │││   0x00529378      4a390083fc40   tst.b 0x83fc40
     ┌────< 0x0052937e      671a           beq.b 0x52939a
     ││││   0x00529380      b7ebfffc       cmpa.l -0x4(a3), a3
    ┌─────< 0x00529384      6702           beq.b 0x529388
    │││││   0x00529386      4e4d           trap 0xd
    └─────> 0x00529388      277ad088000c   move.l 0x526412(pc), 0xc(a3)
     ││││   0x0052938e      277ad0860010   move.l 0x526416(pc), 0x10(a3)
     ││││   0x00529394      377ad0840014   move.w 0x52641a(pc), 0x14(a3)
     └└└└─> 0x0052939a      102e001c       move.b 0x1c(a6), d0
            0x0052939e      4880           ext.w d0
            0x005293a0      013ad25e       btst.l d0, 0x526600(pc)
        ┌─< 0x005293a4      6710           beq.b 0x5293b6
        │   0x005293a6      4eb900529aae   jsr BRUSH2COM.br_size_start
        │   0x005293ac      4227           clr.b -(a7)
        │   0x005293ae      4eb900529b98   jsr BRUSH2COM.br_size_done
        │   0x005293b4      544f           addq.w 0x2, a7
        └─> 0x005293b6      f21fd080       fmovem (a7)+, fp0
            0x005293ba      4cdf1f1f       movem.l (a7)+, d0-d4/a0-a4
            0x005293be      4e5e           unlk a6
            0x005293c0      4e75           rts
            ; CALL XREF from BRUSH2COM.do_shape @ 0x529944
┌ 106: BRUSH2COM.set_disk_read_p ();
│           0x005293c2      4e56ffec       link.w a6, 0xffec
│           0x005293c6      bfd5           cmpa.l (a5), a7
│       ┌─< 0x005293c8      6206           bhi.b 0x5293d0
│       │   0x005293ca      44fc0002       move.w 0x2, ccr
│       │   0x005293ce      4e76           trapv
│       └─> 0x005293d0      defc0014       adda.w 0x14, a7
│           0x005293d4      48e7c0c0       movem.l d0-d1/a0-a1, -(a7)
│           0x005293d8      41f90083fc08   lea.l 0x83fc08, a0
│           0x005293de      43f90083fc0a   lea.l 0x83fc0a, a1
│           0x005293e4      33fc0020fff8.  move.w 0x20, 0xfff8005e.l
│           0x005293ec      33d0fff80064   move.w (a0), 0xfff80064
│           0x005293f2      3010           move.w (a0), d0
│           0x005293f4      48c0           ext.l d0
│           0x005293f6      32390083fc0c   move.w 0x83fc0c, d1
│           0x005293fc      48c1           ext.l d1
│           0x005293fe      d280           add.l d0, d1
│           0x00529400      5381           subq.l 0x1, d1
│           0x00529402      33c1fff80066   move.w d1, 0xfff80066
│           0x00529408      33d1fff80068   move.w (a1), 0xfff80068
│           0x0052940e      3011           move.w (a1), d0
│           0x00529410      48c0           ext.l d0
│           0x00529412      32390083fc0e   move.w 0x83fc0e, d1
│           0x00529418      48c1           ext.l d1
│           0x0052941a      d280           add.l d0, d1
│           0x0052941c      5381           subq.l 0x1, d1
│           0x0052941e      33c1fff8006a   move.w d1, 0xfff8006a
│           0x00529424      4cdf0303       movem.l (a7)+, d0-d1/a0-a1
│           0x00529428      4e5e           unlk a6
└           0x0052942a      4e75           rts
┌ 178: BRUSH2COM.set_disk_main_a ();
│           0x0052942c      4e56fff4       link.w a6, 0xfff4
│           0x00529430      bfd5           cmpa.l (a5), a7
│       ┌─< 0x00529432      6206           bhi.b 0x52943a
│       │   0x00529434      44fc0002       move.w 0x2, ccr
│       │   0x00529438      4e76           trapv
│       └─> 0x0052943a      defc000c       adda.w 0xc, a7
│           0x0052943e      48e78000       movem.l d0, -(a7)
│           0x00529442      4279fff80040   clr.w 0xfff80040
│           0x00529448      33f90083fc10.  move.w 0x83fc10, 0xfff840f0.l
│           0x00529452      33f90083fc12.  move.w 0x83fc12, 0xfff840f2.l
│           0x0052945c      30390083fc14   move.w 0x83fc14, d0
│           0x00529462      48c0           ext.l d0
│           0x00529464      5380           subq.l 0x1, d0
│           0x00529466      33c0fff80044   move.w d0, 0xfff80044
│           0x0052946c      30390083fc16   move.w 0x83fc16, d0
│           0x00529472      48c0           ext.l d0
│           0x00529474      5380           subq.l 0x1, d0
│           0x00529476      33c0fff80046   move.w d0, 0xfff80046
│           0x0052947c      33f90083fc04.  move.w 0x83fc04, 0xfff84002.l
│           0x00529486      33f90083fc06.  move.w 0x83fc06, 0xfff84004.l
│           0x00529490      33f90083fc00.  move.w 0x83fc00, 0xfff80002.l
│           0x0052949a      33f90083fc02.  move.w 0x83fc02, 0xfff80004.l
│           0x005294a4      4279fff80018   clr.w 0xfff80018
│           0x005294aa      30390083fc1e   move.w 0x83fc1e, d0
│           0x005294b0      02800000ffff   andi.l 0xffff, d0
│           0x005294b6      4480           neg.l d0
│           0x005294b8      5080           addq.l 0x8, d0
│           0x005294ba      2f00           move.l d0, -(a7)
│           0x005294bc      33ef0002fff8.  move.w 0x2(a7), 0xfff80060.l
│           0x005294c4      584f           addq.w 0x4, a7
│           0x005294c6      33f90083fc1a.  move.w 0x83fc1a, 0xfff8000e.l
│           0x005294d0      4279fff80000   clr.w 0xfff80000
│           0x005294d6      4cdf0001       movem.l (a7)+, d0
│           0x005294da      4e5e           unlk a6
└           0x005294dc      4e75           rts
┌ 150: BRUSH2COM.do_rotate_card ();
│           0x005294de      4e56fff8       link.w a6, 0xfff8
│           0x005294e2      bfd5           cmpa.l (a5), a7
│       ┌─< 0x005294e4      6206           bhi.b 0x5294ec
│       │   0x005294e6      44fc0002       move.w 0x2, ccr
│       │   0x005294ea      4e76           trapv
│       └─> 0x005294ec      defc0008       adda.w 0x8, a7
│           0x005294f0      48e78000       movem.l d0, -(a7)
│           0x005294f4      33f90083fc80.  move.w 0x83fc80, 0xfff94002.l
│           0x005294fe      4279fff94002   clr.w 0xfff94002
│           0x00529504      33f90083fc7c.  move.w 0x83fc7c, 0xfff94002.l
│           0x0052950e      33f90083fc7e.  move.w 0x83fc7e, 0xfff94004.l
│           0x00529518      4279fff94004   clr.w 0xfff94004
│           0x0052951e      33f90083fc7a.  move.w 0x83fc7a, 0xfff94004.l
│           0x00529528      33f90083fc82.  move.w 0x83fc82, 0xfff94006.l
│           0x00529532      33f90083fc84.  move.w 0x83fc84, 0xfff94008.l
│           0x0052953c      33f90083fc86.  move.w 0x83fc86, 0xfff9400a.l
│           0x00529546      33f90083fc88.  move.w 0x83fc88, 0xfff9400c.l
│           0x00529550      30390083fc1a   move.w 0x83fc1a, d0
│           0x00529556      02800000ffff   andi.l 0xffff, d0
│           0x0052955c      e180           asl.l 0x8, d0
│           0x0052955e      e980           asl.l 0x4, d0
│           0x00529560      33c0fff9400e   move.w d0, 0xfff9400e
│           0x00529566      4279fff94000   clr.w 0xfff94000
│           0x0052956c      4cdf0001       movem.l (a7)+, d0
│           0x00529570      4e5e           unlk a6
└           0x00529572      4e75           rts
┌ 208: BRUSH2COM.do_persp_card ();
│           0x00529574      4e56fffc       link.w a6, 0xfffc
│           0x00529578      bfd5           cmpa.l (a5), a7
│       ┌─< 0x0052957a      6206           bhi.b 0x529582
│       │   0x0052957c      44fc0002       move.w 0x2, ccr
│       │   0x00529580      4e76           trapv
│       └─> 0x00529582      defc0004       adda.w 0x4, a7
│           0x00529586      4279fff94004   clr.w 0xfff94004
│           0x0052958c      33fc0200fff9.  move.w 0x200, 0xfff94004.l
│           0x00529594      4279fff94004   clr.w 0xfff94004
│           0x0052959a      4279fff94004   clr.w 0xfff94004
│           0x005295a0      33f90083fc7a.  move.w 0x83fc7a, 0xfff94002.l
│           0x005295aa      33f90083fc7c.  move.w 0x83fc7c, 0xfff94002.l
│           0x005295b4      33f90083fc7e.  move.w 0x83fc7e, 0xfff94002.l
│           0x005295be      33f90083fc80.  move.w 0x83fc80, 0xfff94002.l
│           0x005295c8      33f90083fc82.  move.w 0x83fc82, 0xfff94006.l
│           0x005295d2      33f90083fc84.  move.w 0x83fc84, 0xfff94006.l
│           0x005295dc      33f90083fc1c.  move.w 0x83fc1c, 0xfff9400a.l
│           0x005295e6      33f90083fc86.  move.w 0x83fc86, 0xfff94020.l
│           0x005295f0      33f90083fc88.  move.w 0x83fc88, 0xfff94020.l
│           0x005295fa      33f90083fc8a.  move.w 0x83fc8a, 0xfff94020.l
│           0x00529604      33f90083fc8c.  move.w 0x83fc8c, 0xfff94020.l
│           0x0052960e      33f90083fc8e.  move.w 0x83fc8e, 0xfff94020.l
│           0x00529618      33f90083fc90.  move.w 0x83fc90, 0xfff94020.l
│           0x00529622      33f90083fc92.  move.w 0x83fc92, 0xfff94020.l
│           0x0052962c      33f90083fc94.  move.w 0x83fc94, 0xfff94020.l
│           0x00529636      33f90083fc96.  move.w 0x83fc96, 0xfff94020.l
│           0x00529640      4e5e           unlk a6
└           0x00529642      4e75           rts
┌ 116: BRUSH2COM.do_cap_flat ();
│           0x00529644      4e56ffd2       link.w a6, 0xffd2
│           0x00529648      bfd5           cmpa.l (a5), a7
│       ┌─< 0x0052964a      6206           bhi.b 0x529652
│       │   0x0052964c      44fc0002       move.w 0x2, ccr
│       │   0x00529650      4e76           trapv
│       └─> 0x00529652      defc002e       adda.w 0x2e, a7
│           0x00529656      48e7f0f8       movem.l d0-d3/a0-a4, -(a7)
│           0x0052965a      41f90052b594   lea.l t_reals, a0
│           0x00529660      43f90052b4e0   lea.l t_integer, a1
│           0x00529666      45f90083fc86   lea.l 0x83fc86, a2
│           0x0052966c      47f90052b512   lea.l t_words, a3
│           0x00529672      49f90083fc10   lea.l 0x83fc10, a4
│           0x00529678      7401           moveq 0x1, d2
│           0x0052967a      7602           moveq 0x2, d3
│           0x0052967c      4eb90052b5d0   jsr t_flush
│           0x00529682      4a12           tst.b (a2)
│       ┌─< 0x00529684      6706           beq.b 0x52968c
│       │   0x00529686      48780003       pea.l 0x3
│      ┌──< 0x0052968a      6004           bra.b 0x529690
│      │└─> 0x0052968c      48780008       pea.l 0x8
│      └──> 0x00529690      4e91           jsr (a1)                    ; fcn.0000000a
│           0x00529692      584f           addq.w 0x4, a7
│           0x00529694      48790083fc08   pea.l 0x83fc08
│           0x0052969a      3f3c0004       move.w 0x4, -(a7)
│           0x0052969e      4e93           jsr (a3)                    ; fcn.0000000c
│           0x005296a0      5c4f           addq.w 0x6, a7
│           0x005296a2      48790083fc20   pea.l 0x83fc20
│           0x005296a8      3f3c0008       move.w 0x8, -(a7)
│           0x005296ac      4e90           jsr (a0)                    ; fcn.00000009
│           0x005296ae      5c4f           addq.w 0x6, a7
│           0x005296b0      10390083fced   move.b 0x83fced, d0
└           0x005296b6      49c0           extb.l d0
            0x005296b8      2f00           move.l d0, -(a7)
            0x005296ba      4e91           jsr (a1)                    ; fcn.0000000a
            0x005296bc      584f           addq.w 0x4, a7
            0x005296be      4854           pea.l (a4)
            0x005296c0      3f03           move.w d3, -(a7)
            0x005296c2      4e93           jsr (a3)                    ; fcn.0000000c
            0x005296c4      5c4f           addq.w 0x6, a7
            0x005296c6      3014           move.w (a4), d0
            0x005296c8      48c0           ext.l d0
            0x005296ca      32390083fc14   move.w 0x83fc14, d1
            0x005296d0      48c1           ext.l d1
            0x005296d2      d280           add.l d0, d1
            0x005296d4      5381           subq.l 0x1, d1
            0x005296d6      2f01           move.l d1, -(a7)
            0x005296d8      4e91           jsr (a1)                    ; fcn.0000000a
            0x005296da      584f           addq.w 0x4, a7
            0x005296dc      30390083fc12   move.w 0x83fc12, d0
            0x005296e2      48c0           ext.l d0
            0x005296e4      32390083fc16   move.w 0x83fc16, d1
            0x005296ea      48c1           ext.l d1
            0x005296ec      d280           add.l d0, d1
            0x005296ee      5381           subq.l 0x1, d1
            0x005296f0      2f01           move.l d1, -(a7)
            0x005296f2      4e91           jsr (a1)                    ; fcn.0000000a
            0x005296f4      584f           addq.w 0x4, a7
            0x005296f6      48790083fc7a   pea.l 0x83fc7a
            0x005296fc      3f3c0006       move.w 0x6, -(a7)
            0x00529700      4e93           jsr (a3)                    ; fcn.0000000c
            0x00529702      5c4f           addq.w 0x6, a7
            0x00529704      30390083fc1c   move.w 0x83fc1c, d0
            0x0052970a      02800000ffff   andi.l 0xffff, d0
            0x00529710      2f00           move.l d0, -(a7)
            0x00529712      4e91           jsr (a1)                    ; fcn.0000000a
            0x00529714      584f           addq.w 0x4, a7
            0x00529716      4a12           tst.b (a2)
        ┌─< 0x00529718      6756           beq.b 0x529770
        │   0x0052971a      48790083fbf4   pea.l 0x83fbf4
        │   0x00529720      3f02           move.w d2, -(a7)
        │   0x00529722      4e90           jsr (a0)                    ; fcn.00000009
        │   0x00529724      5c4f           addq.w 0x6, a7
        │   0x00529726      48790083fbe4   pea.l 0x83fbe4
        │   0x0052972c      3f02           move.w d2, -(a7)
        │   0x0052972e      4e90           jsr (a0)                    ; fcn.00000009
        │   0x00529730      5c4f           addq.w 0x6, a7
        │   0x00529732      48790083fbdc   pea.l 0x83fbdc
        │   0x00529738      3f02           move.w d2, -(a7)
        │   0x0052973a      4e90           jsr (a0)                    ; fcn.00000009
        │   0x0052973c      5c4f           addq.w 0x6, a7
        │   0x0052973e      48790083fce4   pea.l 0x83fce4
        │   0x00529744      3f02           move.w d2, -(a7)
        │   0x00529746      4e90           jsr (a0)                    ; fcn.00000009
        │   0x00529748      5c4f           addq.w 0x6, a7
        │   0x0052974a      48790083fce8   pea.l 0x83fce8
        │   0x00529750      3f03           move.w d3, -(a7)
        │   0x00529752      4e93           jsr (a3)                    ; fcn.0000000c
        │   0x00529754      5c4f           addq.w 0x6, a7
        │   0x00529756      48790083fc90   pea.l 0x83fc90
        │   0x0052975c      3f3c000c       move.w 0xc, -(a7)
        │   0x00529760      4e90           jsr (a0)                    ; fcn.00000009
        │   0x00529762      5c4f           addq.w 0x6, a7
        │   0x00529764      48790083fcd8   pea.l 0x83fcd8
        │   0x0052976a      3f3c0003       move.w 0x3, -(a7)
       ┌──< 0x0052976e      6008           bra.b 0x529778
       │└─> 0x00529770      48790083fc88   pea.l 0x83fc88
       │    0x00529776      3f03           move.w d3, -(a7)
       └──> 0x00529778      4e90           jsr (a0)                    ; fcn.00000009
            0x0052977a      5c4f           addq.w 0x6, a7
            0x0052977c      4279fff94000   clr.w 0xfff94000
            0x00529782      4a12           tst.b (a2)
        ┌─< 0x00529784      6706           beq.b 0x52978c
        │   0x00529786      48780004       pea.l 0x4
       ┌──< 0x0052978a      6004           bra.b 0x529790
       │└─> 0x0052978c      48780009       pea.l 0x9
       └──> 0x00529790      4e91           jsr (a1)                    ; fcn.0000000a
            0x00529792      584f           addq.w 0x4, a7
            0x00529794      4cdf1f0f       movem.l (a7)+, d0-d3/a0-a4
            0x00529798      4e5e           unlk a6
            0x0052979a      4e75           rts
┌ 358: BRUSH2COM.do_image_flat ();
│           0x0052979c      4e56ffc6       link.w a6, 0xffc6
│           0x005297a0      bfd5           cmpa.l (a5), a7
│       ┌─< 0x005297a2      6206           bhi.b 0x5297aa
│       │   0x005297a4      44fc0002       move.w 0x2, ccr
│       │   0x005297a8      4e76           trapv
│       └─> 0x005297aa      defc0038       adda.w 0x38, a7
│           0x005297ae      48e7e0f8       movem.l d0-d2/a0-a4, -(a7)
│           0x005297b2      41f80004       lea.l 0x4, a0
│           0x005297b6      43f9004070e4   lea.l p_wti_o, a1
│           0x005297bc      45f90083fc0c   lea.l 0x83fc0c, a2
│           0x005297c2      47f9004047ea   lea.l p_wts_o, a3
│           0x005297c8      49f90083fc08   lea.l 0x83fc08, a4
│           0x005297ce      720c           moveq 0xc, d1
│           0x005297d0      7414           moveq 0x14, d2
│           0x005297d2      4a390083fc40   tst.b 0x83fc40
│       ┌─< 0x005297d8      677e           beq.b 0x529858
│       │   0x005297da      4a390083fcf9   tst.b 0x83fcf9
│      ┌──< 0x005297e0      675a           beq.b 0x52983c
│      ││   0x005297e2      487ace1e       pea.l 0x526602(pc)
│      ││   0x005297e6      48780008       pea.l 0x8
│      ││   0x005297ea      2f17           move.l (a7), -(a7)
│      ││   0x005297ec      4e93           jsr (a3)                    ; fcn.0000000c
│      ││   0x005297ee      dec1           adda.w d1, a7
│      ││   0x005297f0      3014           move.w (a4), d0
│      ││   0x005297f2      48c0           ext.l d0
│      ││   0x005297f4      2f00           move.l d0, -(a7)
│      ││   0x005297f6      4850           pea.l (a0)
│      ││   0x005297f8      4e91           jsr (a1)                    ; fcn.0000000a
│      ││   0x005297fa      504f           addq.w 0x8, a7
│      ││   0x005297fc      30390083fc0a   move.w 0x83fc0a, d0
│      ││   0x00529802      48c0           ext.l d0
│      ││   0x00529804      2f00           move.l d0, -(a7)
│      ││   0x00529806      4850           pea.l (a0)
│      ││   0x00529808      4e91           jsr (a1)                    ; fcn.0000000a
│      ││   0x0052980a      504f           addq.w 0x8, a7
│      ││   0x0052980c      3012           move.w (a2), d0
│      ││   0x0052980e      48c0           ext.l d0
│      ││   0x00529810      2f00           move.l d0, -(a7)
│      ││   0x00529812      4850           pea.l (a0)
│      ││   0x00529814      4e91           jsr (a1)                    ; fcn.0000000a
│      ││   0x00529816      504f           addq.w 0x8, a7
│      ││   0x00529818      30390083fc0e   move.w 0x83fc0e, d0
│      ││   0x0052981e      48c0           ext.l d0
│      ││   0x00529820      2f00           move.l d0, -(a7)
│      ││   0x00529822      4850           pea.l (a0)
│      ││   0x00529824      4e91           jsr (a1)                    ; fcn.0000000a
│      ││   0x00529826      584f           addq.w 0x4, a7
│      ││   0x00529828      2eb90083fc42   move.l 0x83fc42, (a7)
│      ││   0x0052982e      4878000c       pea.l 0xc
│      ││   0x00529832      4e91           jsr (a1)                    ; fcn.0000000a
│      ││   0x00529834      504f           addq.w 0x8, a7
│      ││   0x00529836      4eb900404946   jsr p_wtln_o
│      └──> 0x0052983c      1f3c0002       move.b 0x2, -(a7)
│       │   0x00529840      2f12           move.l (a2), -(a7)
│       │   0x00529842      2f14           move.l (a4), -(a7)
│       │   0x00529844      2f390083fc42   move.l 0x83fc42, -(a7)
│       │   0x0052984a      2f3acdbe       move.l 0x52660a(pc), -(a7)
│       │   0x0052984e      3f12           move.w (a2), -(a7)
│       │   0x00529850      4eb9005202e4   jsr BRUSHCOM.br_image
│       │   0x00529856      dec2           adda.w d2, a7
│       └─> 0x00529858      4eb90051f298   jsr BRUSHCOM.brush_wait
│           0x0052985e      4eb90052b5d0   jsr t_flush
│           0x00529864      4850           pea.l (a0)
│           0x00529866      4eb90052b4e0   jsr t_integer
│           0x0052986c      544f           addq.w 0x2, a7
│           0x0052986e      486efffe       pea.l -0x2(a6)
│           0x00529872      1f3c0001       move.b 0x1, -(a7)
│           0x00529876      4eb90052b65a   jsr t_get_word
│           0x0052987c      5c4f           addq.w 0x6, a7
│           0x0052987e      4a1f           tst.b (a7)+
│       ┌─< 0x00529880      6642           bne.b 0x5298c4
│       │   0x00529882      487acd8b       pea.l 0x52660f(pc)
│       │   0x00529886      48780018       pea.l 0x18
│       │   0x0052988a      2f17           move.l (a7), -(a7)
│       │   0x0052988c      4e93           jsr (a3)                    ; fcn.0000000c
│       │   0x0052988e      dec1           adda.w d1, a7
│       │   0x00529890      4eb900404946   jsr p_wtln_o
│       │   0x00529896      554f           subq.w 0x2, a7
│       │   0x00529898      4eb90052bebc   jsr t_image_init
│       │   0x0052989e      4a1f           tst.b (a7)+
│      ┌──< 0x005298a0      6714           beq.b 0x5298b6
│      ││   0x005298a2      487acd84       pea.l 0x526628(pc)
│      ││   0x005298a6      48780008       pea.l 0x8
│      ││   0x005298aa      2f17           move.l (a7), -(a7)
│      ││   0x005298ac      4e93           jsr (a3)                    ; fcn.0000000c
│      ││   0x005298ae      dec1           adda.w d1, a7
│      ││   0x005298b0      4eb900404946   jsr p_wtln_o
│      └──> 0x005298b6      487800dc       pea.l 0xdc
│       │   0x005298ba      4eb900402e42   jsr p_Delay
│       │   0x005298c0      584f           addq.w 0x4, a7
│      ┌──< 0x005298c2      6036           bra.b 0x5298fa
│      │└─> 0x005298c4      10390083fbfc   move.b 0x83fbfc, d0
│      │    0x005298ca      4880           ext.w d0
│      │    0x005298cc      013acd62       btst.l d0, 0x526630(pc)
│      │┌─< 0x005298d0      6728           beq.b 0x5298fa
│      ││   0x005298d2      1f390083fc4a   move.b 0x83fc4a, -(a7)
│      ││   0x005298d8      2f390083fc14   move.l 0x83fc14, -(a7)
│      ││   0x005298de      2f390083fc10   move.l 0x83fc10, -(a7)
│      ││   0x005298e4      48780000       pea.l 0x0
│      ││   0x005298e8      2f390083fc46   move.l 0x83fc46, -(a7)
│      ││   0x005298ee      3f3c02d0       move.w 0x2d0, -(a7)
│      ││   0x005298f2      4eb9005202e4   jsr BRUSHCOM.br_image
│      ││   0x005298f8      dec2           adda.w d2, a7
│      └└─> 0x005298fa      4cdf1f07       movem.l (a7)+, d0-d2/a0-a4
│           0x005298fe      4e5e           unlk a6
└           0x00529900      4e75           rts
┌ 428: BRUSH2COM.do_shape ();
│           0x00529902      4e56ffb0       link.w a6, 0xffb0
│           0x00529906      bfd5           cmpa.l (a5), a7
│       ┌─< 0x00529908      6206           bhi.b 0x529910
│       │   0x0052990a      44fc0002       move.w 0x2, ccr
│       │   0x0052990e      4e76           trapv
│       └─> 0x00529910      defc004a       adda.w 0x4a, a7
│           0x00529914      48e7f9f8       movem.l d0-d4/d7/a0-a4, -(a7)
│           0x00529918      41f9004070e4   lea.l p_wti_o, a0
│           0x0052991e      43f90083fc0c   lea.l 0x83fc0c, a1
│           0x00529924      45f80004       lea.l 0x4, a2
│           0x00529928      47f90083fc08   lea.l 0x83fc08, a3
│           0x0052992e      49f90083fc42   lea.l 0x83fc42, a4
│           0x00529934      7402           moveq 0x2, d2
│           0x00529936      760c           moveq 0xc, d3
│           0x00529938      7814           moveq 0x14, d4
│           0x0052993a      10390083fbba   move.b 0x83fbba, d0
│           0x00529940      b002           cmp.b d2, d0
│       ┌─< 0x00529942      6628           bne.b 0x52996c
│       │   0x00529944      4ebafa7c       jsr BRUSH2COM.set_disk_read_p(pc)
│       │   0x00529948      4eb90052b5d0   jsr t_flush
│       │   0x0052994e      48780007       pea.l 0x7
│       │   0x00529952      4eb90052b4e0   jsr t_integer
│       │   0x00529958      544f           addq.w 0x2, a7
│       │   0x0052995a      3eb90083fc7a   move.w 0x83fc7a, (a7)
│       │   0x00529960      4eb90052b772   jsr t_doit
│       │   0x00529966      544f           addq.w 0x2, a7
│      ┌──< 0x00529968      6000013c       bra.w 0x529aa6
│      │└─> 0x0052996c      0c000003       cmpi.b 0x3, d0
│      │┌─< 0x00529970      6600011c       bne.w 0x529a8e
│      ││   0x00529974      4a390083fc40   tst.b 0x83fc40
│     ┌───< 0x0052997a      6778           beq.b 0x5299f4
│     │││   0x0052997c      4a390083fcf9   tst.b 0x83fcf9
│    ┌────< 0x00529982      675a           beq.b 0x5299de
│    ││││   0x00529984      487accac       pea.l 0x526632(pc)
│    ││││   0x00529988      48780008       pea.l 0x8
│    ││││   0x0052998c      2f17           move.l (a7), -(a7)
│    ││││   0x0052998e      4eb9004047ea   jsr p_wts_o
│    ││││   0x00529994      dec3           adda.w d3, a7
│    ││││   0x00529996      3213           move.w (a3), d1
│    ││││   0x00529998      48c1           ext.l d1
│    ││││   0x0052999a      2f01           move.l d1, -(a7)
│    ││││   0x0052999c      4852           pea.l (a2)
│    ││││   0x0052999e      4e90           jsr (a0)                    ; fcn.00000009
│    ││││   0x005299a0      504f           addq.w 0x8, a7
│    ││││   0x005299a2      32390083fc0a   move.w 0x83fc0a, d1
│    ││││   0x005299a8      48c1           ext.l d1
│    ││││   0x005299aa      2f01           move.l d1, -(a7)
│    ││││   0x005299ac      4852           pea.l (a2)
│    ││││   0x005299ae      4e90           jsr (a0)                    ; fcn.00000009
│    ││││   0x005299b0      504f           addq.w 0x8, a7
│    ││││   0x005299b2      3211           move.w (a1), d1
│    ││││   0x005299b4      48c1           ext.l d1
│    ││││   0x005299b6      2f01           move.l d1, -(a7)
│    ││││   0x005299b8      4852           pea.l (a2)
│    ││││   0x005299ba      4e90           jsr (a0)                    ; fcn.00000009
│    ││││   0x005299bc      504f           addq.w 0x8, a7
│    ││││   0x005299be      32390083fc0e   move.w 0x83fc0e, d1
│    ││││   0x005299c4      48c1           ext.l d1
│    ││││   0x005299c6      2f01           move.l d1, -(a7)
│    ││││   0x005299c8      4852           pea.l (a2)
│    ││││   0x005299ca      4e90           jsr (a0)                    ; fcn.00000009
│    ││││   0x005299cc      584f           addq.w 0x4, a7
│    ││││   0x005299ce      2e94           move.l (a4), (a7)
│    ││││   0x005299d0      4878000c       pea.l 0xc
│    ││││   0x005299d4      4e90           jsr (a0)                    ; fcn.00000009
│    ││││   0x005299d6      504f           addq.w 0x8, a7
│    ││││   0x005299d8      4eb900404946   jsr p_wtln_o
│    └────> 0x005299de      1f02           move.b d2, -(a7)
│     │││   0x005299e0      2f11           move.l (a1), -(a7)
│     │││   0x005299e2      2f13           move.l (a3), -(a7)
│     │││   0x005299e4      2f14           move.l (a4), -(a7)
│     │││   0x005299e6      2f3acc52       move.l 0x52663a(pc), -(a7)
│     │││   0x005299ea      3f11           move.w (a1), -(a7)
│     │││   0x005299ec      4eb9005202e4   jsr BRUSHCOM.br_image
│     │││   0x005299f2      dec4           adda.w d4, a7
│     └───> 0x005299f4      4eb90051f298   jsr BRUSHCOM.brush_wait
│      ││   0x005299fa      4eb90052b5d0   jsr t_flush
│      ││   0x00529a00      48780007       pea.l 0x7
│      ││   0x00529a04      4eb90052b4e0   jsr t_integer
│      ││   0x00529a0a      4eb900402e30   jsr p_Cur_Ticks
│      ││   0x00529a10      2e1f           move.l (a7)+, d7
│     ┌───> 0x00529a12      554f           subq.w 0x2, a7
│     ╎││   0x00529a14      486efffe       pea.l -0x2(a6)
│     ╎││   0x00529a18      4227           clr.b -(a7)
│     ╎││   0x00529a1a      4eb90052b65a   jsr t_get_word
│     ╎││   0x00529a20      5c4f           addq.w 0x6, a7
│     ╎││   0x00529a22      4a1f           tst.b (a7)+
│    ┌────< 0x00529a24      663e           bne.b 0x529a64
│    │╎││   0x00529a26      594f           subq.w 0x4, a7
│    │╎││   0x00529a28      4eb900402e30   jsr p_Cur_Ticks
│    │╎││   0x00529a2e      221f           move.l (a7)+, d1
│    │╎││   0x00529a30      9287           sub.l d7, d1
│    │╎││   0x00529a32      0c81000001f4   cmpi.l 0x1f4, d1
│   ┌─────< 0x00529a38      642a           bcc.b 0x529a64
│   ││╎││   0x00529a3a      1f390083fc4a   move.b 0x83fc4a, -(a7)
│   ││╎││   0x00529a40      2f390083fc14   move.l 0x83fc14, -(a7)
│   ││╎││   0x00529a46      2f390083fc10   move.l 0x83fc10, -(a7)
│   ││╎││   0x00529a4c      48780000       pea.l 0x0
│   ││╎││   0x00529a50      2f390083fc46   move.l 0x83fc46, -(a7)
│   ││╎││   0x00529a56      3f3c02d0       move.w 0x2d0, -(a7)
│   ││╎││   0x00529a5a      4eb9005202e4   jsr BRUSHCOM.br_image
│   ││╎││   0x00529a60      dec4           adda.w d4, a7
│   ││└───< 0x00529a62      60ae           bra.b 0x529a12
│   └└────> 0x00529a64      594f           subq.w 0x4, a7
│      ││   0x00529a66      4eb900402e30   jsr p_Cur_Ticks
│      ││   0x00529a6c      221f           move.l (a7)+, d1
│      ││   0x00529a6e      9287           sub.l d7, d1
│      ││   0x00529a70      0c81000001f4   cmpi.l 0x1f4, d1
│     ┌───< 0x00529a76      652e           bcs.b 0x529aa6
│     │││   0x00529a78      554f           subq.w 0x2, a7
│     │││   0x00529a7a      4eb90052bebc   jsr t_image_init
│     │││   0x00529a80      4a1f           tst.b (a7)+
│    ┌────< 0x00529a82      6722           beq.b 0x529aa6
│    ││││   0x00529a84      487acbb9       pea.l 0x52663f(pc)
│    ││││   0x00529a88      48780008       pea.l 0x8
│   ┌─────< 0x00529a8c      6008           bra.b 0x529a96
│   ││││└─> 0x00529a8e      487acbb8       pea.l 0x526648(pc)
│   ││││    0x00529a92      48780021       pea.l 0x21
│   └─────> 0x00529a96      2f17           move.l (a7), -(a7)
│    │││    0x00529a98      4eb9004047ea   jsr p_wts_o
│    │││    0x00529a9e      dec3           adda.w d3, a7
│    │││    0x00529aa0      4eb900404946   jsr p_wtln_o
│    └└└──> 0x00529aa6      4cdf1f9f       movem.l (a7)+, d0-d4/d7/a0-a4
│           0x00529aaa      4e5e           unlk a6
└           0x00529aac      4e75           rts
            ; CALL XREF from MENU3DCOM.PAS.update_final @ 0x50db68
            ; CALL XREF from PASTECOM.update_cutout @ 0x6746bc
┌ 118: BRUSH2COM.br_size_start ();
│           0x00529aae      4e56ffda       link.w a6, 0xffda
│           0x00529ab2      bfd5           cmpa.l (a5), a7
│       ┌─< 0x00529ab4      6206           bhi.b 0x529abc
│       │   0x00529ab6      44fc0002       move.w 0x2, ccr
│       │   0x00529aba      4e76           trapv
│       └─> 0x00529abc      defc0026       adda.w 0x26, a7
│           0x00529ac0      48e780e0       movem.l d0/a0-a2, -(a7)
│           0x00529ac4      41faf8fc       lea.l BRUSH2COM.set_disk_read_p(pc), a0
│           0x00529ac8      43f90083fbfc   lea.l 0x83fbfc, a1
│           0x00529ace      45faf95c       lea.l BRUSH2COM.set_disk_main_a(pc), a2
│           0x00529ad2      4a390083fcf8   tst.b 0x83fcf8
│       ┌─< 0x00529ad8      671a           beq.b 0x529af4
│       │   0x00529ada      487acb8e       pea.l 0x52666a(pc)
│       │   0x00529ade      4878000d       pea.l 0xd
│       │   0x00529ae2      2f17           move.l (a7), -(a7)
│       │   0x00529ae4      4eb9004047ea   jsr p_wts_o
│       │   0x00529aea      defc000c       adda.w 0xc, a7
│       │   0x00529aee      4eb900404946   jsr p_wtln_o
│       └─> 0x00529af4      4a11           tst.b (a1)
│       ┌─< 0x00529af6      6604           bne.b 0x529afc
│       │   0x00529af8      12bc0001       move.b 0x1, (a1)
│       └─> 0x00529afc      4eb90051f298   jsr BRUSHCOM.brush_wait
│           0x00529b02      33f90083fc18.  move.w 0x83fc18, 0xfff80010.l
│           0x00529b0c      10390083fc78   move.b 0x83fc78, d0
│           0x00529b12      4880           ext.w d0
│           0x00529b14      0c400006       cmpi.w 0x6, d0
│       ┌─< 0x00529b18      6270           bhi.b 0x529b8a
│       │   0x00529b1a      d040           add.w d0, d0
│       │   0x00529b1c      303b0006       move.w 0x529b24(pc, d0.w), d0
└       │   0x00529b20      4efb0002       jmp 0x529b24(pc, d0.w)
        │   0x00529b24      003e0048       
        │   0x00529b25      3e00           move.w d0, d7
        │   0x00529b27      4800           nbcd.b d0
        │   0x00529b29      5200           addq.b 0x1, d0
        │   0x00529b2b      5c00           addq.b 0x6, d0
        │   0x00529b2d      1000           move.b d0, d0
        │   0x00529b2f      0e006260       
        │   0x00529b30      00626056       ori.w 0x6056, -(a2)
        │   0x00529b34      4e90           jsr (a0)                    ; fcn.00000009
        │   0x00529b36      4227           clr.b -(a7)
        │   0x00529b38      1f390083fc79   move.b 0x83fc79, -(a7)
        │   0x00529b3e      1f390083fc7a   move.b 0x83fc7a, -(a7)
        │   0x00529b44      2f390083fc7c   move.l 0x83fc7c, -(a7)
        │   0x00529b4a      2f390083fc14   move.l 0x83fc14, -(a7)
        │   0x00529b50      2f390083fc10   move.l 0x83fc10, -(a7)
        │   0x00529b56      4eb900522722   jsr BRUSHCOM.str_any_str_cop
        │   0x00529b5c      defc0012       adda.w 0x12, a7
       ┌──< 0x00529b60      6028           bra.b 0x529b8a
       ││   0x00529b62      4e90           jsr (a0)                    ; fcn.00000009
       ││   0x00529b64      4e92           jsr (a2)                    ; fcn.00000009+0x2
       ││   0x00529b66      4ebaf976       jsr BRUSH2COM.do_rotate_card(pc)
      ┌───< 0x00529b6a      601e           bra.b 0x529b8a
      │││   0x00529b6c      4e90           jsr (a0)                    ; fcn.00000009
      │││   0x00529b6e      4e92           jsr (a2)                    ; fcn.00000009+0x2
      │││   0x00529b70      4ebafa02       jsr BRUSH2COM.do_persp_card(pc)
     ┌────< 0x00529b74      6014           bra.b 0x529b8a
     ││││   0x00529b76      4e90           jsr (a0)                    ; fcn.00000009
     ││││   0x00529b78      4e92           jsr (a2)                    ; fcn.00000009+0x2
     ││││   0x00529b7a      4ebafac8       jsr BRUSH2COM.do_cap_flat(pc)
    ┌─────< 0x00529b7e      600a           bra.b 0x529b8a
    │││││   0x00529b80      4ebafc1a       jsr BRUSH2COM.do_image_flat(pc)
   ┌──────< 0x00529b84      6004           bra.b 0x529b8a
   ││││││   0x00529b86      4ebafd7a       jsr BRUSH2COM.do_shape(pc)
   └└└└└└─> 0x00529b8a      42390083fcee   clr.b 0x83fcee
            0x00529b90      4cdf0701       movem.l (a7)+, d0/a0-a2
            0x00529b94      4e5e           unlk a6
            0x00529b96      4e75           rts
            ; CALL XREF from MENU3DCOM.PAS.update_final @ 0x50db96
            ; CALL XREF from MENU3DCOM.PAS.after_buy @ 0x512982
            ; CALL XREF from PASTECOM.load_unsized_cu @ 0x673672
            ; CALL XREF from PASTECOM.update_cutout @ 0x6746c4
┌ 122: BRUSH2COM.br_size_done ();
│           0x00529b98      4e56ffe8       link.w a6, 0xffe8
│           0x00529b9c      bfd5           cmpa.l (a5), a7
│       ┌─< 0x00529b9e      6206           bhi.b 0x529ba6
│       │   0x00529ba0      44fc0002       move.w 0x2, ccr
│       │   0x00529ba4      4e76           trapv
│       └─> 0x00529ba6      defc0018       adda.w 0x18, a7
│           0x00529baa      48e78080       movem.l d0/a0, -(a7)
│           0x00529bae      41f90083fbba   lea.l 0x83fbba, a0
│           0x00529bb4      4a2e0008       tst.b 0x8(a6)
│       ┌─< 0x00529bb8      670a           beq.b 0x529bc4
│       │   0x00529bba      1010           move.b (a0), d0
│       │   0x00529bbc      4880           ext.w d0
│       │   0x00529bbe      013acab8       btst.l d0, 0x526678(pc)
│      ┌──< 0x00529bc2      6706           beq.b 0x529bca
│      │└─> 0x00529bc4      4eb90051f298   jsr BRUSHCOM.brush_wait
│      └──> 0x00529bca      1010           move.b (a0), d0
│           0x00529bcc      0c000001       cmpi.b 0x1, d0
│       ┌─< 0x00529bd0      6606           bne.b 0x529bd8
│       │   0x00529bd2      4279fff9400a   clr.w 0xfff9400a
│       └─> 0x00529bd8      4267           clr.w -(a7)
│           0x00529bda      4eb90051f362   jsr BRUSHCOM.b_setup_control
│           0x00529be0      544f           addq.w 0x2, a7
│           0x00529be2      4279fff8005e   clr.w 0xfff8005e
│           0x00529be8      4a390083fcf8   tst.b 0x83fcf8
│       ┌─< 0x00529bee      671a           beq.b 0x529c0a
│       │   0x00529bf0      487aca88       pea.l 0x52667a(pc)
│       │   0x00529bf4      4878000c       pea.l 0xc
│       │   0x00529bf8      2f17           move.l (a7), -(a7)
│       │   0x00529bfa      4eb9004047ea   jsr p_wts_o
│       │   0x00529c00      defc000c       adda.w 0xc, a7
│       │   0x00529c04      4eb900404946   jsr p_wtln_o
│       └─> 0x00529c0a      4cdf0101       movem.l (a7)+, d0/a0
│           0x00529c0e      4e5e           unlk a6
└           0x00529c10      4e75           rts
            ; CALL XREF from BRUSH2COM.br_create_filte @ 0x529f00
┌ 68: BRUSH2COM.br_16_point_fil ();
│           0x00529c12      4e56fe50       link.w a6, 0xfe50
│           0x00529c16      bfd5           cmpa.l (a5), a7
│       ┌─< 0x00529c18      6206           bhi.b 0x529c20
│       │   0x00529c1a      44fc0002       move.w 0x2, ccr
│       │   0x00529c1e      4e76           trapv
│       └─> 0x00529c20      defc0050       adda.w 0x50, a7
│           0x00529c24      48e7fff0       movem.l d0-d7/a0-a3, -(a7)
│           0x00529c28      43eeffc6       lea.l -0x3a(a6), a1
│           0x00529c2c      45eefff8       lea.l -0x8(a6), a2
│           0x00529c30      47eeffd0       lea.l -0x30(a6), a3
│           0x00529c34      33ee0008fff8.  move.w 0x8(a6), 0xfff8000e.l
│           0x00529c3c      33fc00040083.  move.w 0x4, 0x83fbbc.l
│           0x00529c44      4293           clr.l (a3)
│           0x00529c46      7000           moveq 0x0, d0
│       ┌─> 0x00529c48      3280           move.w d0, (a1)
│       ╎   0x00529c4a      3200           move.w d0, d1
│       ╎   0x00529c4c      c3c0           muls.w d0, d1
│       ╎   0x00529c4e      2f01           move.l d1, -(a7)
│       ╎   0x00529c50      48c0           ext.l d0
│       ╎   0x00529c52      2400           move.l d0, d2
│       ╎   0x00529c54      4c012800       muls.l d1, d2
        ╎   0x00529c58      2602           move.l d2, d3
        ╎   0x00529c5a      4483           neg.l d3
        ╎   0x00529c5c      2801           move.l d1, d4
        ╎   0x00529c5e      4c3c48000000.  muls.l 0x2, d4
        ╎   0x00529c66      e784           asl.l 0x3, d4
        ╎   0x00529c68      2f04           move.l d4, -(a7)
        ╎   0x00529c6a      d883           add.l d3, d4
        ╎   0x00529c6c      48c0           ext.l d0
        ╎   0x00529c6e      2200           move.l d0, d1
        ╎   0x00529c70      ed81           asl.l 0x6, d1
        ╎   0x00529c72      9881           sub.l d1, d4
        ╎   0x00529c74      2d44ffe8       move.l d4, -0x18(a6)
        ╎   0x00529c78      2817           move.l (a7), d4
        ╎   0x00529c7a      4484           neg.l d4
        ╎   0x00529c7c      d882           add.l d2, d4
        ╎   0x00529c7e      068400000200   addi.l 0x200, d4
        ╎   0x00529c84      2d44ffec       move.l d4, -0x14(a6)
        ╎   0x00529c88      282f0004       move.l 0x4(a7), d4
        ╎   0x00529c8c      e784           asl.l 0x3, d4
        ╎   0x00529c8e      d684           add.l d4, d3
        ╎   0x00529c90      d283           add.l d3, d1
        ╎   0x00529c92      2d41fff0       move.l d1, -0x10(a6)
        ╎   0x00529c96      4484           neg.l d4
        ╎   0x00529c98      d882           add.l d2, d4
        ╎   0x00529c9a      504f           addq.w 0x8, a7
        ╎   0x00529c9c      2d44fff4       move.l d4, -0xc(a6)
        ╎   0x00529ca0      7200           moveq 0x0, d1
       ┌──> 0x00529ca2      3d41ffc4       move.w d1, -0x3c(a6)
       ╎╎   0x00529ca6      3401           move.w d1, d2
       ╎╎   0x00529ca8      c5c1           muls.w d1, d2
       ╎╎   0x00529caa      2f02           move.l d2, -(a7)
       ╎╎   0x00529cac      48c1           ext.l d1
       ╎╎   0x00529cae      2601           move.l d1, d3
       ╎╎   0x00529cb0      4c023800       muls.l d2, d3
       ╎╎   0x00529cb4      2f03           move.l d3, -(a7)
       ╎╎   0x00529cb6      2803           move.l d3, d4
       ╎╎   0x00529cb8      4484           neg.l d4
       ╎╎   0x00529cba      2f04           move.l d4, -(a7)
       ╎╎   0x00529cbc      4c3c28000000.  muls.l 0x2, d2
       ╎╎   0x00529cc4      e782           asl.l 0x3, d2
       ╎╎   0x00529cc6      2f02           move.l d2, -(a7)
       ╎╎   0x00529cc8      d484           add.l d4, d2
       ╎╎   0x00529cca      48c1           ext.l d1
       ╎╎   0x00529ccc      2f02           move.l d2, -(a7)
       ╎╎   0x00529cce      2401           move.l d1, d2
       ╎╎   0x00529cd0      ed82           asl.l 0x6, d2
       ╎╎   0x00529cd2      2f02           move.l d2, -(a7)
       ╎╎   0x00529cd4      282f0004       move.l 0x4(a7), d4
       ╎╎   0x00529cd8      9882           sub.l d2, d4
       ╎╎   0x00529cda      2d44ffd8       move.l d4, -0x28(a6)
       ╎╎   0x00529cde      282f0008       move.l 0x8(a7), d4
       ╎╎   0x00529ce2      4484           neg.l d4
       ╎╎   0x00529ce4      d883           add.l d3, d4
       ╎╎   0x00529ce6      068400000200   addi.l 0x200, d4
       ╎╎   0x00529cec      2d44ffdc       move.l d4, -0x24(a6)
       ╎╎   0x00529cf0      282f0014       move.l 0x14(a7), d4
       ╎╎   0x00529cf4      e784           asl.l 0x3, d4
       ╎╎   0x00529cf6      242f000c       move.l 0xc(a7), d2
       ╎╎   0x00529cfa      d484           add.l d4, d2
       ╎╎   0x00529cfc      2617           move.l (a7), d3
       ╎╎   0x00529cfe      d682           add.l d2, d3
       ╎╎   0x00529d00      2d43ffe0       move.l d3, -0x20(a6)
       ╎╎   0x00529d04      242f0010       move.l 0x10(a7), d2
       ╎╎   0x00529d08      4484           neg.l d4
       ╎╎   0x00529d0a      d882           add.l d2, d4
       ╎╎   0x00529d0c      defc0018       adda.w 0x18, a7
       ╎╎   0x00529d10      2d44ffe4       move.l d4, -0x1c(a6)
       ╎╎   0x00529d14      7e00           moveq 0x0, d7
      ┌───> 0x00529d16      42767320ff30   clr.w 0xff30(a6, d7.w * 2)
      ╎╎╎   0x00529d1c      42767320fea0   clr.w 0xfea0(a6, d7.w * 2)
      ╎╎╎   0x00529d22      5247           addq.w 0x1, d7
      ╎╎╎   0x00529d24      0c47003f       cmpi.w 0x3f, d7
      └───< 0x00529d28      6fec           ble.b 0x529d16
       ╎╎   0x00529d2a      4252           clr.w (a2)
       ╎╎   0x00529d2c      7e02           moveq 0x2, d7
       ╎╎   0x00529d2e      7401           moveq 0x1, d2
      ┌───> 0x00529d30      3d42ffc8       move.w d2, -0x38(a6)
      ╎╎╎   0x00529d34      7601           moveq 0x1, d3
     ┌────> 0x00529d36      3d43ffca       move.w d3, -0x36(a6)
     ╎╎╎╎   0x00529d3a      283624e4       move.l -0x1c(a6, d2.w), d4
     ╎╎╎╎   0x00529d3e      4c36480034d4   muls.l -0x2c(a6, d3.w), d4
     ╎╎╎╎   0x00529d44      2d44ffcc       move.l d4, -0x34(a6)
     ╎╎╎╎   0x00529d48      4c7c48000000.  divs.l 0x100, d4
     ╎╎╎╎   0x00529d50      3d44fffc       move.w d4, -0x4(a6)
     ╎╎╎╎   0x00529d54      4a80           tst.l d0
    ┌─────< 0x00529d56      6c06           bge.b 0x529d5e
    │╎╎╎╎   0x00529d58      068000000100   addi.l 0x100, d0
    └─────> 0x00529d5e      3d807320ff30   move.w d0, 0xff30(a6, d7.w * 2)
     ╎╎╎╎   0x00529d64      3d847320fea0   move.w d4, 0xfea0(a6, d7.w * 2)
     ╎╎╎╎   0x00529d6a      3012           move.w (a2), d0
     ╎╎╎╎   0x00529d6c      48c0           ext.l d0
     ╎╎╎╎   0x00529d6e      48c4           ext.l d4
     ╎╎╎╎   0x00529d70      d880           add.l d0, d4
     ╎╎╎╎   0x00529d72      3484           move.w d4, (a2)
     ╎╎╎╎   0x00529d74      48c7           ext.l d7
     ╎╎╎╎   0x00529d76      5287           addq.l 0x1, d7
     ╎╎╎╎   0x00529d78      3011           move.w (a1), d0
     ╎╎╎╎   0x00529d7a      5243           addq.w 0x1, d3
     ╎╎╎╎   0x00529d7c      0c430004       cmpi.w 0x4, d3
     └────< 0x00529d80      6fb4           ble.b 0x529d36
      ╎╎╎   0x00529d82      48c7           ext.l d7
      ╎╎╎   0x00529d84      5887           addq.l 0x4, d7
      ╎╎╎   0x00529d86      3011           move.w (a1), d0
      ╎╎╎   0x00529d88      5242           addq.w 0x1, d2
      ╎╎╎   0x00529d8a      0c420004       cmpi.w 0x4, d2
      └───< 0x00529d8e      6fa0           ble.b 0x529d30
       ╎╎   0x00529d90      3012           move.w (a2), d0
       ╎╎   0x00529d92      0c400400       cmpi.w 0x400, d0
      ┌───< 0x00529d96      6f40           ble.b 0x529dd8
      │╎╎   0x00529d98      3400           move.w d0, d2
     ┌────> 0x00529d9a      0c420401       cmpi.w 0x401, d2
    ┌─────< 0x00529d9e      6d36           blt.b 0x529dd6
    │╎│╎╎   0x00529da0      3d42fffa       move.w d2, -0x6(a6)
    │╎│╎╎   0x00529da4      7aff           moveq 0xff, d5
    │╎│╎╎   0x00529da6      7c00           moveq 0x0, d6
    │╎│╎╎   0x00529da8      7e00           moveq 0x0, d7
   ┌──────> 0x00529daa      ba767320ff30   cmp.w 0xff30(a6, d7.w * 2), d5
  ┌───────< 0x00529db0      6c08           bge.b 0x529dba
  │╎│╎│╎╎   0x00529db2      3a367320fea0   move.w 0xfea0(a6, d7.w * 2), d5
  │╎│╎│╎╎   0x00529db8      3c07           move.w d7, d6
  └───────> 0x00529dba      5247           addq.w 0x1, d7
   ╎│╎│╎╎   0x00529dbc      0c47003f       cmpi.w 0x3f, d7
   └──────< 0x00529dc0      6fe8           ble.b 0x529daa
    │╎│╎╎   0x00529dc2      36366320fea0   move.w 0xfea0(a6, d6.w * 2), d3
    │╎│╎╎   0x00529dc8      48c3           ext.l d3
    │╎│╎╎   0x00529dca      5383           subq.l 0x1, d3
    │╎│╎╎   0x00529dcc      3d836320fea0   move.w d3, 0xfea0(a6, d6.w * 2)
    │╎│╎╎   0x00529dd2      5342           subq.w 0x1, d2
    │└────< 0x00529dd4      68c4           bvc.b 0x529d9a
    └┌────< 0x00529dd6      604e           bra.b 0x529e26
     │└───> 0x00529dd8      0c400400       cmpi.w 0x400, d0
     │┌───< 0x00529ddc      6c48           bge.b 0x529e26
     ││╎╎   0x00529dde      3f00           move.w d0, -(a7)
     ││╎╎   0x00529de0      343c03ff       move.w 0x3ff, d2
    ┌─────> 0x00529de4      b457           cmp.w (a7), d2
   ┌──────< 0x00529de6      6d3c           blt.b 0x529e24
   │╎││╎╎   0x00529de8      3d42fffa       move.w d2, -0x6(a6)
   │╎││╎╎   0x00529dec      7aff           moveq 0xff, d5
   │╎││╎╎   0x00529dee      7c00           moveq 0x0, d6
   │╎││╎╎   0x00529df0      7e00           moveq 0x0, d7
  ┌───────> 0x00529df2      ba767320ff30   cmp.w 0xff30(a6, d7.w * 2), d5
  ────────< 0x00529df8      6c08           bge.b 0x529e02
  ╎│╎││╎╎   0x00529dfa      3a367320ff30   move.w 0xff30(a6, d7.w * 2), d5
  ╎│╎││╎╎   0x00529e00      3c07           move.w d7, d6
  ────────> 0x00529e02      5247           addq.w 0x1, d7
  ╎│╎││╎╎   0x00529e04      0c47003f       cmpi.w 0x3f, d7
  └───────< 0x00529e08      6fe8           ble.b 0x529df2
   │╎││╎╎   0x00529e0a      42766320ff30   clr.w 0xff30(a6, d6.w * 2)
   │╎││╎╎   0x00529e10      36366320fea0   move.w 0xfea0(a6, d6.w * 2), d3
   │╎││╎╎   0x00529e16      48c3           ext.l d3
   │╎││╎╎   0x00529e18      5283           addq.l 0x1, d3
   │╎││╎╎   0x00529e1a      3d836320fea0   move.w d3, 0xfea0(a6, d6.w * 2)
   │╎││╎╎   0x00529e20      5342           subq.w 0x1, d2
   │└─────< 0x00529e22      68c0           bvc.b 0x529de4
   └──────> 0x00529e24      544f           addq.w 0x2, a7
     └└───> 0x00529e26      554f           subq.w 0x2, a7
       ╎╎   0x00529e28      4eb900523ca0   jsr BRUSHCOM.b_8m_disk_store
       ╎╎   0x00529e2e      4a1f           tst.b (a7)+
      ┌───< 0x00529e30      6728           beq.b 0x529e5a
      │╎╎   0x00529e32      4279fff80004   clr.w 0xfff80004
      │╎╎   0x00529e38      33fc0007fff8.  move.w 0x7, 0xfff80018.l
      │╎╎   0x00529e40      7e00           moveq 0x0, d7
     ┌────> 0x00529e42      30367320fea0   move.w 0xfea0(a6, d7.w * 2), d0
     ╎│╎╎   0x00529e48      48c0           ext.l d0
     ╎│╎╎   0x00529e4a      e980           asl.l 0x4, d0
     ╎│╎╎   0x00529e4c      3d807320fea0   move.w d0, 0xfea0(a6, d7.w * 2)
     ╎│╎╎   0x00529e52      5247           addq.w 0x1, d7
     ╎│╎╎   0x00529e54      0c47003f       cmpi.w 0x3f, d7
     └────< 0x00529e58      6fe8           ble.b 0x529e42
      └───> 0x00529e5a      7e00           moveq 0x0, d7
      ┌───> 0x00529e5c      41f900000000   lea.l 0x0, a0
      ╎╎╎   0x00529e62      2013           move.l (a3), d0
      ╎╎╎   0x00529e64      34367320fea0   move.w 0xfea0(a6, d7.w * 2), d2
      ╎╎╎   0x00529e6a      48c2           ext.l d2
      ╎╎╎   0x00529e6c      2f02           move.l d2, -(a7)
      ╎╎╎   0x00529e6e      31af00020b30.  move.w 0x2(a7), 0xfff9e000(a0, d0.l * 2)
      ╎╎╎   0x00529e78      584f           addq.w 0x4, a7
      ╎╎╎   0x00529e7a      5280           addq.l 0x1, d0
      ╎╎╎   0x00529e7c      2680           move.l d0, (a3)
      ╎╎╎   0x00529e7e      5247           addq.w 0x1, d7
      ╎╎╎   0x00529e80      0c47003f       cmpi.w 0x3f, d7
      └───< 0x00529e84      6fd6           ble.b 0x529e5c
       ╎╎   0x00529e86      554f           subq.w 0x2, a7
       ╎╎   0x00529e88      4eb900523ca0   jsr BRUSHCOM.b_8m_disk_store
       ╎╎   0x00529e8e      4a1f           tst.b (a7)+
      ┌───< 0x00529e90      6706           beq.b 0x529e98
      │╎╎   0x00529e92      4279fff80018   clr.w 0xfff80018
      └───> 0x00529e98      3011           move.w (a1), d0
       ╎╎   0x00529e9a      5241           addq.w 0x1, d1
       ╎╎   0x00529e9c      0c410007       cmpi.w 0x7, d1
       └──< 0x00529ea0      6f00fe00       ble.w 0x529ca2
        ╎   0x00529ea4      3011           move.w (a1), d0
        ╎   0x00529ea6      5240           addq.w 0x1, d0
        ╎   0x00529ea8      0c400007       cmpi.w 0x7, d0
        └─< 0x00529eac      6f00fd9a       ble.w 0x529c48              ; BRUSH2COM.br_16_point_fil+0x36
            0x00529eb0      4cdf0fff       movem.l (a7)+, d0-d7/a0-a3
            0x00529eb4      4e5e           unlk a6
            0x00529eb6      4e75           rts
            ; CALL XREFS from BRUSH2COM.brush2_init @ 0x52b2d0, 0x52b2f6
┌ 112: BRUSH2COM.br_create_filte ();
│           0x00529eb8      4e56fd76       link.w a6, 0xfd76
│           0x00529ebc      bfd5           cmpa.l (a5), a7
│       ┌─< 0x00529ebe      6206           bhi.b 0x529ec6
│       │   0x00529ec0      44fc0002       move.w 0x2, ccr
│       │   0x00529ec4      4e76           trapv
│       └─> 0x00529ec6      defc0064       adda.w 0x64, a7
│           0x00529eca      48e7fff8       movem.l d0-d7/a0-a4, -(a7)
│           0x00529ece      43eefdda       lea.l -0x226(a6), a1
│           0x00529ed2      45eefdde       lea.l -0x222(a6), a2
│           0x00529ed6      47eefde2       lea.l -0x21e(a6), a3
│           0x00529eda      49eefde6       lea.l -0x21a(a6), a4
│           0x00529ede      4a6e000a       tst.w 0xa(a6)
│       ┌─< 0x00529ee2      6626           bne.b 0x529f0a
│       │   0x00529ee4      7000           moveq 0x0, d0
│      ┌──< 0x00529ee6      6722           beq.b 0x529f0a
│      ││   0x00529ee8      487ac875       pea.l 0x52675f(pc)
│      ││   0x00529eec      48780005       pea.l 0x5
│      ││   0x00529ef0      2f17           move.l (a7), -(a7)
│      ││   0x00529ef2      4eb9004047ea   jsr p_wts_o
│      ││   0x00529ef8      defc000a       adda.w 0xa, a7
│      ││   0x00529efc      3eae000a       move.w 0xa(a6), (a7)
│      ││   0x00529f00      4ebafd10       jsr BRUSH2COM.br_16_point_fil(pc)
│      ││   0x00529f04      544f           addq.w 0x2, a7
│     ┌───< 0x00529f06      60000994       bra.w loc.0052a89c
│     │└└─> 0x00529f0a      422effff       clr.b -0x1(a6)
│     │     0x00529f0e      422efffe       clr.b -0x2(a6)
│     │     0x00529f12      302e000a       move.w 0xa(a6), d0
│     │     0x00529f16      0c400011       cmpi.w 0x11, d0
│     │ ┌─< 0x00529f1a      62000322       bhi.w 0x52a23e
│     │ │   0x00529f1e      d040           add.w d0, d0
│     │ │   0x00529f20      303b0006       move.w 0x529f28(pc, d0.w), d0
└     │ │   0x00529f24      4efb0002       jmp 0x529f28(pc, d0.w)
      │ │   0x00529f28      0024005c       ori.b 0x5c, -(a4)
      │ │   0x00529f2c      009800b000c8   ori.l 0xb000c8, (a0)+
      │ │   0x00529f32      0104           btst.l d0, d4
      │ │   0x00529f34      013c0154016c   btst.l d0, 0x154016c
      │ │   0x00529f3a      01a4           bclr.b d0, -(a4)
      │ │   0x00529f3c      01dc           bset.b d0, (a4)+
      │ │   0x00529f3e      01f4020c       bset.b d0, 0xc(a4, d0.w)
      │ │   0x00529f42      0244027c       andi.w 0x27c, d4
      │ │   0x00529f46      029402ac02e2   andi.l 0x2ac02e2, (a4)
      │ │   0x00529f4c      22bac738       move.l 0x526686(pc), (a1)
      │ │   0x00529f50      24bac738       move.l 0x52668a(pc), (a2)
      │ │   0x00529f54      26bac738       move.l 0x52668e(pc), (a3)
      │ │   0x00529f58      28bac738       move.l 0x526692(pc), (a4)
      │ │   0x00529f5c      3d7ac738fdea   move.w 0x526696(pc), -0x216(a6)
      │ │   0x00529f62      2d7ac78efdec   move.l 0x5266f2(pc), -0x214(a6)
      │ │   0x00529f68      2d7ac78cfdf0   move.l 0x5266f6(pc), -0x210(a6)
      │ │   0x00529f6e      2d7ac78afdf4   move.l 0x5266fa(pc), -0x20c(a6)
      │ │   0x00529f74      2d7ac788fdf8   move.l 0x5266fe(pc), -0x208(a6)
      │ │   0x00529f7a      3d7ac786fdfc   move.w 0x526702(pc), -0x204(a6)
      │┌──< 0x00529f80      600002bc       bra.w 0x52a23e
      │││   0x00529f84      22bac712       move.l 0x526698(pc), (a1)
      │││   0x00529f88      24bac712       move.l 0x52669c(pc), (a2)
      │││   0x00529f8c      26bac712       move.l 0x5266a0(pc), (a3)
      │││   0x00529f90      28bac712       move.l 0x5266a4(pc), (a4)
      │││   0x00529f94      3d7ac712fdea   move.w 0x5266a8(pc), -0x216(a6)
    ┌┌────> 0x00529f9a      2d7ac756fdec   move.l 0x5266f2(pc), -0x214(a6)
    ╎╎│││   0x00529fa0      2d7ac754fdf0   move.l 0x5266f6(pc), -0x210(a6)
    ╎╎│││   0x00529fa6      2d7ac752fdf4   move.l 0x5266fa(pc), -0x20c(a6)
    ╎╎│││   0x00529fac      2d7ac750fdf8   move.l 0x5266fe(pc), -0x208(a6)
    ╎╎│││   0x00529fb2      3d7ac74efdfc   move.w 0x526702(pc), -0x204(a6)
    ╎╎│││   0x00529fb8      422efffe       clr.b -0x2(a6)
   ┌──────< 0x00529fbc      60000280       bra.w 0x52a23e
   │╎╎│││   0x00529fc0      22bac6e8       move.l 0x5266aa(pc), (a1)
   │╎╎│││   0x00529fc4      24bac6e8       move.l 0x5266ae(pc), (a2)
   │╎╎│││   0x00529fc8      26bac6e8       move.l 0x5266b2(pc), (a3)
   │╎╎│││   0x00529fcc      28bac6e8       move.l 0x5266b6(pc), (a4)
   │╎╎│││   0x00529fd0      3d7ac6e8fdea   move.w 0x5266ba(pc), -0x216(a6)
   │└─────< 0x00529fd6      60c2           bra.b 0x529f9a
   │ ╎│││   0x00529fd8      22bac6e2       move.l 0x5266bc(pc), (a1)
   │ ╎│││   0x00529fdc      24bac6e2       move.l 0x5266c0(pc), (a2)
   │ ╎│││   0x00529fe0      26bac6e2       move.l 0x5266c4(pc), (a3)
   │ ╎│││   0x00529fe4      28bac6e2       move.l 0x5266c8(pc), (a4)
   │ ╎│││   0x00529fe8      3d7ac6e2fdea   move.w 0x5266cc(pc), -0x216(a6)
   │ └────< 0x00529fee      60aa           bra.b 0x529f9a
   │  │││   0x00529ff0      22bac694       move.l 0x526686(pc), (a1)
   │  │││   0x00529ff4      24bac694       move.l 0x52668a(pc), (a2)
   │  │││   0x00529ff8      26bac694       move.l 0x52668e(pc), (a3)
   │  │││   0x00529ffc      28bac694       move.l 0x526692(pc), (a4)
   │  │││   0x0052a000      3d7ac694fdea   move.w 0x526696(pc), -0x216(a6)
   │  │││   0x0052a006      2d7ac6fcfdec   move.l 0x526704(pc), -0x214(a6)
   │  │││   0x0052a00c      2d7ac6fafdf0   move.l 0x526708(pc), -0x210(a6)
   │  │││   0x0052a012      2d7ac6f8fdf4   move.l 0x52670c(pc), -0x20c(a6)
   │  │││   0x0052a018      2d7ac6f6fdf8   move.l 0x526710(pc), -0x208(a6)
   │  │││   0x0052a01e      3d7ac6f4fdfc   move.w 0x526714(pc), -0x204(a6)
   │┌┌────> 0x0052a024      422effff       clr.b -0x1(a6)
  ┌───────< 0x0052a028      60000214       bra.w 0x52a23e
  ││╎╎│││   0x0052a02c      22bac66a       move.l 0x526698(pc), (a1)
  ││╎╎│││   0x0052a030      24bac66a       move.l 0x52669c(pc), (a2)
  ││╎╎│││   0x0052a034      26bac66a       move.l 0x5266a0(pc), (a3)
  ││╎╎│││   0x0052a038      28bac66a       move.l 0x5266a4(pc), (a4)
  ││╎╎│││   0x0052a03c      3d7ac66afdea   move.w 0x5266a8(pc), -0x216(a6)
  ────────> 0x0052a042      2d7ac6c0fdec   move.l 0x526704(pc), -0x214(a6)
  ││╎╎│││   0x0052a048      2d7ac6befdf0   move.l 0x526708(pc), -0x210(a6)
  ││╎╎│││   0x0052a04e      2d7ac6bcfdf4   move.l 0x52670c(pc), -0x20c(a6)
  ││╎╎│││   0x0052a054      2d7ac6bafdf8   move.l 0x526710(pc), -0x208(a6)
  ││╎╎│││   0x0052a05a      3d7ac6b8fdfc   move.w 0x526714(pc), -0x204(a6)
  ────────< 0x0052a060      600001dc       bra.w 0x52a23e
  ││╎╎│││   0x0052a064      22bac644       move.l 0x5266aa(pc), (a1)
  ││╎╎│││   0x0052a068      24bac644       move.l 0x5266ae(pc), (a2)
  ││╎╎│││   0x0052a06c      26bac644       move.l 0x5266b2(pc), (a3)
  ││╎╎│││   0x0052a070      28bac644       move.l 0x5266b6(pc), (a4)
  ││╎╎│││   0x0052a074      3d7ac644fdea   move.w 0x5266ba(pc), -0x216(a6)
  ────────< 0x0052a07a      60c6           bra.b 0x52a042
  ││╎╎│││   0x0052a07c      22bac63e       move.l 0x5266bc(pc), (a1)
  ││╎╎│││   0x0052a080      24bac63e       move.l 0x5266c0(pc), (a2)
  ││╎╎│││   0x0052a084      26bac63e       move.l 0x5266c4(pc), (a3)
  ││╎╎│││   0x0052a088      28bac63e       move.l 0x5266c8(pc), (a4)
  ││╎╎│││   0x0052a08c      3d7ac63efdea   move.w 0x5266cc(pc), -0x216(a6)
  ────────< 0x0052a092      60ae           bra.b 0x52a042
  ││╎╎│││   0x0052a094      22bac5f0       move.l 0x526686(pc), (a1)
  ││╎╎│││   0x0052a098      24bac5f0       move.l 0x52668a(pc), (a2)
  ││╎╎│││   0x0052a09c      26bac5f0       move.l 0x52668e(pc), (a3)
  ││╎╎│││   0x0052a0a0      28bac5f0       move.l 0x526692(pc), (a4)
  ││╎╎│││   0x0052a0a4      3d7ac5f0fdea   move.w 0x526696(pc), -0x216(a6)
  ││╎╎│││   0x0052a0aa      2d7ac66afdec   move.l 0x526716(pc), -0x214(a6)
  ││╎╎│││   0x0052a0b0      2d7ac668fdf0   move.l 0x52671a(pc), -0x210(a6)
  ││╎╎│││   0x0052a0b6      2d7ac666fdf4   move.l 0x52671e(pc), -0x20c(a6)
  ││╎╎│││   0x0052a0bc      2d7ac664fdf8   move.l 0x526722(pc), -0x208(a6)
  ││╎╎│││   0x0052a0c2      3d7ac662fdfc   move.w 0x526726(pc), -0x204(a6)
  ││└─────< 0x0052a0c8      6000ff5a       bra.w 0x52a024
  ││ ╎│││   0x0052a0cc      22bac5ca       move.l 0x526698(pc), (a1)
  ││ ╎│││   0x0052a0d0      24bac5ca       move.l 0x52669c(pc), (a2)
  ││ ╎│││   0x0052a0d4      26bac5ca       move.l 0x5266a0(pc), (a3)
  ││ ╎│││   0x0052a0d8      28bac5ca       move.l 0x5266a4(pc), (a4)
  ││ ╎│││   0x0052a0dc      3d7ac5cafdea   move.w 0x5266a8(pc), -0x216(a6)
  ──┌─────> 0x0052a0e2      2d7ac632fdec   move.l 0x526716(pc), -0x214(a6)
  ││╎╎│││   0x0052a0e8      2d7ac630fdf0   move.l 0x52671a(pc), -0x210(a6)
  ││╎╎│││   0x0052a0ee      2d7ac62efdf4   move.l 0x52671e(pc), -0x20c(a6)
  ││╎╎│││   0x0052a0f4      2d7ac62cfdf8   move.l 0x526722(pc), -0x208(a6)
  ││╎╎│││   0x0052a0fa      3d7ac62afdfc   move.w 0x526726(pc), -0x204(a6)
  ────────< 0x0052a100      6000013c       bra.w 0x52a23e
  ││╎╎│││   0x0052a104      22bac5a4       move.l 0x5266aa(pc), (a1)
  ││╎╎│││   0x0052a108      24bac5a4       move.l 0x5266ae(pc), (a2)
  ││╎╎│││   0x0052a10c      26bac5a4       move.l 0x5266b2(pc), (a3)
  ││╎╎│││   0x0052a110      28bac5a4       move.l 0x5266b6(pc), (a4)
  ││╎╎│││   0x0052a114      3d7ac5a4fdea   move.w 0x5266ba(pc), -0x216(a6)
  ────────< 0x0052a11a      60c6           bra.b 0x52a0e2
  ││╎╎│││   0x0052a11c      22bac59e       move.l 0x5266bc(pc), (a1)
  ││╎╎│││   0x0052a120      24bac59e       move.l 0x5266c0(pc), (a2)
  ││╎╎│││   0x0052a124      26bac59e       move.l 0x5266c4(pc), (a3)
  ││╎╎│││   0x0052a128      28bac59e       move.l 0x5266c8(pc), (a4)
  ││╎╎│││   0x0052a12c      3d7ac59efdea   move.w 0x5266cc(pc), -0x216(a6)
  ││└─────< 0x0052a132      60ae           bra.b 0x52a0e2
  ││ ╎│││   0x0052a134      22bac550       move.l 0x526686(pc), (a1)
  ││ ╎│││   0x0052a138      24bac550       move.l 0x52668a(pc), (a2)
  ││ ╎│││   0x0052a13c      26bac550       move.l 0x52668e(pc), (a3)
  ││ ╎│││   0x0052a140      28bac550       move.l 0x526692(pc), (a4)
  ││ ╎│││   0x0052a144      3d7ac550fdea   move.w 0x526696(pc), -0x216(a6)
  ││ ╎│││   0x0052a14a      2d7ac5dcfdec   move.l 0x526728(pc), -0x214(a6)
  ││ ╎│││   0x0052a150      2d7ac5dafdf0   move.l 0x52672c(pc), -0x210(a6)
  ││ ╎│││   0x0052a156      2d7ac5d8fdf4   move.l 0x526730(pc), -0x20c(a6)
  ││ ╎│││   0x0052a15c      2d7ac5d6fdf8   move.l 0x526734(pc), -0x208(a6)
  ││ ╎│││   0x0052a162      3d7ac5d4fdfc   move.w 0x526738(pc), -0x204(a6)
  ││ └────< 0x0052a168      6000feba       bra.w 0x52a024
  ││  │││   0x0052a16c      22bac52a       move.l 0x526698(pc), (a1)
  ││  │││   0x0052a170      24bac52a       move.l 0x52669c(pc), (a2)
  ││  │││   0x0052a174      26bac52a       move.l 0x5266a0(pc), (a3)
  ││  │││   0x0052a178      28bac52a       move.l 0x5266a4(pc), (a4)
  ││  │││   0x0052a17c      3d7ac52afdea   move.w 0x5266a8(pc), -0x216(a6)
  ││┌┌────> 0x0052a182      2d7ac5a4fdec   move.l 0x526728(pc), -0x214(a6)
  ││╎╎│││   0x0052a188      2d7ac5a2fdf0   move.l 0x52672c(pc), -0x210(a6)
  ││╎╎│││   0x0052a18e      2d7ac5a0fdf4   move.l 0x526730(pc), -0x20c(a6)
  ││╎╎│││   0x0052a194      2d7ac59efdf8   move.l 0x526734(pc), -0x208(a6)
  ││╎╎│││   0x0052a19a      3d7ac59cfdfc   move.w 0x526738(pc), -0x204(a6)
  ────────< 0x0052a1a0      6000009c       bra.w 0x52a23e
  ││╎╎│││   0x0052a1a4      22bac504       move.l 0x5266aa(pc), (a1)
  ││╎╎│││   0x0052a1a8      24bac504       move.l 0x5266ae(pc), (a2)
  ││╎╎│││   0x0052a1ac      26bac504       move.l 0x5266b2(pc), (a3)
  ││╎╎│││   0x0052a1b0      28bac504       move.l 0x5266b6(pc), (a4)
  ││╎╎│││   0x0052a1b4      3d7ac504fdea   move.w 0x5266ba(pc), -0x216(a6)
  ││└─────< 0x0052a1ba      60c6           bra.b 0x52a182
  ││ ╎│││   0x0052a1bc      22bac4fe       move.l 0x5266bc(pc), (a1)
  ││ ╎│││   0x0052a1c0      24bac4fe       move.l 0x5266c0(pc), (a2)
  ││ ╎│││   0x0052a1c4      26bac4fe       move.l 0x5266c4(pc), (a3)
  ││ ╎│││   0x0052a1c8      28bac4fe       move.l 0x5266c8(pc), (a4)
  ││ ╎│││   0x0052a1cc      3d7ac4fefdea   move.w 0x5266cc(pc), -0x216(a6)
  ││ └────< 0x0052a1d2      60ae           bra.b 0x52a182
  ││  │││   0x0052a1d4      22bac4f8       move.l 0x5266ce(pc), (a1)
  ││  │││   0x0052a1d8      24bac4f8       move.l 0x5266d2(pc), (a2)
  ││  │││   0x0052a1dc      26bac4f8       move.l 0x5266d6(pc), (a3)
  ││  │││   0x0052a1e0      28bac4f8       move.l 0x5266da(pc), (a4)
  ││  │││   0x0052a1e4      3d7ac4f8fdea   move.w 0x5266de(pc), -0x216(a6)
  ││  │││   0x0052a1ea      2d7ac54efdec   move.l 0x52673a(pc), -0x214(a6)
  ││  │││   0x0052a1f0      2d7ac54cfdf0   move.l 0x52673e(pc), -0x210(a6)
  ││  │││   0x0052a1f6      2d7ac54afdf4   move.l 0x526742(pc), -0x20c(a6)
  ││  │││   0x0052a1fc      2d7ac548fdf8   move.l 0x526746(pc), -0x208(a6)
  ││  │││   0x0052a202      3d7ac546fdfc   move.w 0x52674a(pc), -0x204(a6)
  ││ ┌────< 0x0052a208      6034           bra.b 0x52a23e
  ││ ││││   0x0052a20a      22bac4d4       move.l 0x5266e0(pc), (a1)
  ││ ││││   0x0052a20e      24bac4d4       move.l 0x5266e4(pc), (a2)
  ││ ││││   0x0052a212      26bac4d4       move.l 0x5266e8(pc), (a3)
  ││ ││││   0x0052a216      28bac4d4       move.l 0x5266ec(pc), (a4)
  ││ ││││   0x0052a21a      3d7ac4d4fdea   move.w 0x5266f0(pc), -0x216(a6)
  ││ ││││   0x0052a220      2d7ac52afdec   move.l 0x52674c(pc), -0x214(a6)
  ││ ││││   0x0052a226      2d7ac528fdf0   move.l 0x526750(pc), -0x210(a6)
  ││ ││││   0x0052a22c      2d7ac526fdf4   move.l 0x526754(pc), -0x20c(a6)
  ││ ││││   0x0052a232      2d7ac524fdf8   move.l 0x526758(pc), -0x208(a6)
  ││ ││││   0x0052a238      3d7ac522fdfc   move.w 0x52675c(pc), -0x204(a6)
  └└─└─└└─> 0x0052a23e      302e000a       move.w 0xa(a6), d0
      │     0x0052a242      0c40000f       cmpi.w 0xf, d0
      │ ┌─< 0x0052a246      6f06           ble.b 0x52a24e
      │ │   0x0052a248      3d7c000f000a   move.w 0xf, 0xa(a6)
      │ └─> 0x0052a24e      33ee000afff8.  move.w 0xa(a6), 0xfff8000e.l
      │     0x0052a256      41f90083fbba   lea.l 0x83fbba, a0
      │     0x0052a25c      302e000a       move.w 0xa(a6), d0
      │     0x0052a260      31aefdec0202   move.w -0x214(a6), 0x2(a0, d0.w)
      │     0x0052a266      4a2efffe       tst.b -0x2(a6)
      │ ┌─< 0x0052a26a      6706           beq.b 0x52a272
      │ │   0x0052a26c      31bc00040202   move.w 0x4, 0x2(a0, d0.w)
      │ └─> 0x0052a272      3d7c0007ffbe   move.w 0x7, -0x42(a6)
      │     0x0052a278      426effc0       clr.w -0x40(a6)
      │     0x0052a27c      302efdec       move.w -0x214(a6), d0
      │     0x0052a280      48c0           ext.l d0
      │     0x0052a282      5380           subq.l 0x1, d0
      │     0x0052a284      3d40ffc2       move.w d0, -0x3e(a6)
      │     0x0052a288      42aeffce       clr.l -0x32(a6)
      │     0x0052a28c      7e00           moveq 0x0, d7
      │     0x0052a28e      7000           moveq 0x0, d0
      │ ┌─> 0x0052a290      3d40ffb4       move.w d0, -0x4c(a6)
      │ ╎   0x0052a294      7a00           moveq 0x0, d5
      │┌──> 0x0052a296      32360320fdee   move.w 0xfdee(a6, d0.w * 2), d1
      │╎╎   0x0052a29c      c3f65320fddc   muls.w 0xfddc(a6, d5.w * 2), d1
      │╎╎   0x0052a2a2      3d41ffd6       move.w d1, -0x2a(a6)
      │╎╎   0x0052a2a6      4a41           tst.w d1
     ┌────< 0x0052a2a8      671a           beq.b 0x52a2c4
     ││╎╎   0x0052a2aa      48c1           ext.l d1
     ││╎╎   0x0052a2ac      d3aeffce       add.l d1, -0x32(a6)
     ││╎╎   0x0052a2b0      ba6effbe       cmp.w -0x42(a6), d5
    ┌─────< 0x0052a2b4      6c04           bge.b 0x52a2ba
    │││╎╎   0x0052a2b6      3d45ffbe       move.w d5, -0x42(a6)
    └─────> 0x0052a2ba      ba6effc0       cmp.w -0x40(a6), d5
    ┌─────< 0x0052a2be      6f04           ble.b 0x52a2c4
    │││╎╎   0x0052a2c0      3d45ffc0       move.w d5, -0x40(a6)
    └└────> 0x0052a2c4      3d817320fdfe   move.w d1, 0xfdfe(a6, d7.w * 2)
      │╎╎   0x0052a2ca      48c7           ext.l d7
      │╎╎   0x0052a2cc      5287           addq.l 0x1, d7
      │╎╎   0x0052a2ce      5245           addq.w 0x1, d5
      │╎╎   0x0052a2d0      0c450007       cmpi.w 0x7, d5
      │└──< 0x0052a2d4      6fc0           ble.b 0x52a296
      │ ╎   0x0052a2d6      5240           addq.w 0x1, d0
      │ ╎   0x0052a2d8      0c400007       cmpi.w 0x7, d0
      │ └─< 0x0052a2dc      6fb2           ble.b 0x52a290
      │     0x0052a2de      7e40           moveq 0x40, d7
      │ ┌─> 0x0052a2e0      42767320fdfe   clr.w 0xfdfe(a6, d7.w * 2)
      │ ╎   0x0052a2e6      5247           addq.w 0x1, d7
      │ ╎   0x0052a2e8      0c470047       cmpi.w 0x47, d7
      │ └─< 0x0052a2ec      6ff2           ble.b 0x52a2e0
      │     0x0052a2ee      202effce       move.l -0x32(a6), d0
      │     0x0052a2f2      0c8000004000   cmpi.l 0x4000, d0
      │ ┌─< 0x0052a2f8      671a           beq.b 0x52a314
      │ │   0x0052a2fa      487ac469       pea.l 0x526765(pc)
      │ │   0x0052a2fe      4878001c       pea.l 0x1c
      │ │   0x0052a302      2f17           move.l (a7), -(a7)
      │ │   0x0052a304      4eb9004047ea   jsr p_wts_o
      │ │   0x0052a30a      defc000c       adda.w 0xc, a7
      │ │   0x0052a30e      4eb900404946   jsr p_wtln_o
      │ └─> 0x0052a314      302effc0       move.w -0x40(a6), d0
      │     0x0052a318      0c400006       cmpi.w 0x6, d0
      │ ┌─< 0x0052a31c      6f52           ble.b 0x52a370
      │ │   0x0052a31e      487ac462       pea.l 0x526782(pc)
      │ │   0x0052a322      4878001c       pea.l 0x1c
      │ │   0x0052a326      2f17           move.l (a7), -(a7)
      │ │   0x0052a328      4eb9004047ea   jsr p_wts_o
      │ │   0x0052a32e      defc000c       adda.w 0xc, a7
      │ │   0x0052a332      322effbe       move.w -0x42(a6), d1
      │ │   0x0052a336      48c1           ext.l d1
      │ │   0x0052a338      2f01           move.l d1, -(a7)
      │ │   0x0052a33a      4878000c       pea.l 0xc
      │ │   0x0052a33e      4eb9004070e4   jsr p_wti_o
      │ │   0x0052a344      504f           addq.w 0x8, a7
      │ │   0x0052a346      48c0           ext.l d0
      │ │   0x0052a348      2f00           move.l d0, -(a7)
      │ │   0x0052a34a      4878000c       pea.l 0xc
      │ │   0x0052a34e      4eb9004070e4   jsr p_wti_o
      │ │   0x0052a354      504f           addq.w 0x8, a7
      │ │   0x0052a356      322effc2       move.w -0x3e(a6), d1
      │ │   0x0052a35a      48c1           ext.l d1
      │ │   0x0052a35c      2f01           move.l d1, -(a7)
      │ │   0x0052a35e      4878000c       pea.l 0xc
      │ │   0x0052a362      4eb9004070e4   jsr p_wti_o
      │ │   0x0052a368      504f           addq.w 0x8, a7
      │ │   0x0052a36a      4eb900404946   jsr p_wtln_o
      │ └─> 0x0052a370      7a00           moveq 0x0, d5
      │ ┌─> 0x0052a372      42b654de       clr.l -0x22(a6, d5.w)
      │ ╎   0x0052a376      5245           addq.w 0x1, d5
      │ ╎   0x0052a378      0c450007       cmpi.w 0x7, d5
      │ └─< 0x0052a37c      6ff4           ble.b 0x52a372
      │     0x0052a37e      4a2e0008       tst.b 0x8(a6)
      │ ┌─< 0x0052a382      67000394       beq.w 0x52a718
      │ │   0x0052a386      42aeffca       clr.l -0x36(a6)
      │ │   0x0052a38a      7000           moveq 0x0, d0
      │┌──> 0x0052a38c      3d40ffb8       move.w d0, -0x48(a6)
      │╎│   0x0052a390      48c0           ext.l d0
      │╎│   0x0052a392      7208           moveq 0x8, d1
      │╎│   0x0052a394      9280           sub.l d0, d1
      │╎│   0x0052a396      3d41ffbc       move.w d1, -0x44(a6)
      │╎│   0x0052a39a      4a2efffe       tst.b -0x2(a6)
     ┌────< 0x0052a39e      6752           beq.b 0x52a3f2
     ││╎│   0x0052a3a0      3200           move.w d0, d1
     ││╎│   0x0052a3a2      c3c0           muls.w d0, d1
     ││╎│   0x0052a3a4      48c0           ext.l d0
     ││╎│   0x0052a3a6      2400           move.l d0, d2
     ││╎│   0x0052a3a8      4c012800       muls.l d1, d2
     ││╎│   0x0052a3ac      2602           move.l d2, d3
     ││╎│   0x0052a3ae      4483           neg.l d3
     ││╎│   0x0052a3b0      2801           move.l d1, d4
     ││╎│   0x0052a3b2      4c3c48000000.  muls.l 0x2, d4
     ││╎│   0x0052a3ba      e784           asl.l 0x3, d4
     ││╎│   0x0052a3bc      2f04           move.l d4, -(a7)
     ││╎│   0x0052a3be      d883           add.l d3, d4
     ││╎│   0x0052a3c0      ed80           asl.l 0x6, d0
     ││╎│   0x0052a3c2      9880           sub.l d0, d4
     ││╎│   0x0052a3c4      2d44ffde       move.l d4, -0x22(a6)
     ││╎│   0x0052a3c8      2817           move.l (a7), d4
     ││╎│   0x0052a3ca      4484           neg.l d4
     ││╎│   0x0052a3cc      d882           add.l d2, d4
     ││╎│   0x0052a3ce      068400000200   addi.l 0x200, d4
     ││╎│   0x0052a3d4      2d44ffe2       move.l d4, -0x1e(a6)
     ││╎│   0x0052a3d8      e781           asl.l 0x3, d1
     ││╎│   0x0052a3da      d681           add.l d1, d3
     ││╎│   0x0052a3dc      d083           add.l d3, d0
     ││╎│   0x0052a3de      2d40ffe6       move.l d0, -0x1a(a6)
     ││╎│   0x0052a3e2      4481           neg.l d1
     ││╎│   0x0052a3e4      d282           add.l d2, d1
     ││╎│   0x0052a3e6      584f           addq.w 0x4, a7
     ││╎│   0x0052a3e8      2d41ffea       move.l d1, -0x16(a6)
     ││╎│   0x0052a3ec      3d7c0003ffc2   move.w 0x3, -0x3e(a6)
     └────> 0x0052a3f2      7200           moveq 0x0, d1
      │╎│   ; CODE XREF from BRUSH2COM @ +0x4424
     ┌────> 0x0052a3f4      3d41ffb6       move.w d1, -0x4a(a6)
     ╎│╎│   0x0052a3f8      2f00           move.l d0, -(a7)
     ╎│╎│   0x0052a3fa      48c1           ext.l d1
     ╎│╎│   0x0052a3fc      7408           moveq 0x8, d2
     ╎│╎│   0x0052a3fe      9481           sub.l d1, d2
     ╎│╎│   0x0052a400      3d42ffba       move.w d2, -0x46(a6)
     ╎│╎│   0x0052a404      4a2effff       tst.b -0x1(a6)
    ┌─────< 0x0052a408      675c           beq.b 0x52a466
    │╎│╎│   0x0052a40a      3401           move.w d1, d2
    │╎│╎│   0x0052a40c      c5c1           muls.w d1, d2
    │╎│╎│   0x0052a40e      2f02           move.l d2, -(a7)
    │╎│╎│   0x0052a410      48c1           ext.l d1
    │╎│╎│   0x0052a412      2601           move.l d1, d3
    │╎│╎│   0x0052a414      4c023800       muls.l d2, d3
    │╎│╎│   0x0052a418      2803           move.l d3, d4
    │╎│╎│   0x0052a41a      4484           neg.l d4
    │╎│╎│   0x0052a41c      4c3c28000000.  muls.l 0x2, d2
    │╎│╎│   0x0052a424      e782           asl.l 0x3, d2
    │╎│╎│   0x0052a426      2f02           move.l d2, -(a7)
    │╎│╎│   0x0052a428      d484           add.l d4, d2
    │╎│╎│   0x0052a42a      ed81           asl.l 0x6, d1
    │╎│╎│   0x0052a42c      9481           sub.l d1, d2
    │╎│╎│   0x0052a42e      2d42ffe6       move.l d2, -0x1a(a6)
    │╎│╎│   0x0052a432      2417           move.l (a7), d2
    │╎│╎│   0x0052a434      4482           neg.l d2
    │╎│╎│   0x0052a436      d483           add.l d3, d2
    │╎│╎│   0x0052a438      068200000200   addi.l 0x200, d2
    │╎│╎│   0x0052a43e      2d42ffea       move.l d2, -0x16(a6)
    │╎│╎│   0x0052a442      242f0004       move.l 0x4(a7), d2
    │╎│╎│   0x0052a446      e782           asl.l 0x3, d2
    │╎│╎│   0x0052a448      d882           add.l d2, d4
    │╎│╎│   0x0052a44a      d284           add.l d4, d1
    │╎│╎│   0x0052a44c      2d41ffee       move.l d1, -0x12(a6)
    │╎│╎│   0x0052a450      4482           neg.l d2
    │╎│╎│   0x0052a452      d483           add.l d3, d2
    │╎│╎│   0x0052a454      504f           addq.w 0x8, a7
    │╎│╎│   0x0052a456      2d42fff2       move.l d2, -0xe(a6)
    │╎│╎│   0x0052a45a      3d7c0003ffbe   move.w 0x3, -0x42(a6)
    │╎│╎│   0x0052a460      3d7c0005ffc0   move.w 0x5, -0x40(a6)
    └─────> 0x0052a466      7e00           moveq 0x0, d7
    ┌─────> 0x0052a468      42767320ff1e   clr.w 0xff1e(a6, d7.w * 2)
    ╎╎│╎│   0x0052a46e      42767320fe8e   clr.w 0xfe8e(a6, d7.w * 2)
    ╎╎│╎│   0x0052a474      5247           addq.w 0x1, d7
    ╎╎│╎│   0x0052a476      0c47003f       cmpi.w 0x3f, d7
    └─────< 0x0052a47a      6fec           ble.b 0x52a468
     ╎│╎│   0x0052a47c      7e00           moveq 0x0, d7
     ╎│╎│   0x0052a47e      426effb4       clr.w -0x4c(a6)
     ╎│╎│   0x0052a482      426effd2       clr.w -0x2e(a6)
     ╎│╎│   0x0052a486      342effbe       move.w -0x42(a6), d2
     ╎│╎│   0x0052a48a      48c2           ext.l d2
     ╎│╎│   0x0052a48c      5382           subq.l 0x1, d2
     ╎│╎│   0x0052a48e      2f00           move.l d0, -(a7)
     ╎│╎│   0x0052a490      2f01           move.l d1, -(a7)
     ╎│╎│   ; CODE XREF from BRUSH2COM @ +0x42f2
    ┌─────> 0x0052a492      202f0004       move.l 0x4(a7), d0
    ╎╎│╎│   0x0052a496      2217           move.l (a7), d1
    ╎╎│╎│   0x0052a498      362effb4       move.w -0x4c(a6), d3
    ╎╎│╎│   0x0052a49c      b66effc2       cmp.w -0x3e(a6), d3
   ┌──────< 0x0052a4a0      6f06           ble.b 0x52a4a8
   │╎╎│╎│   0x0052a4a2      504f           addq.w 0x8, a7
  ┌───────< 0x0052a4a4      6000012c       bra.w 0x52a5d2
  │└──────> 0x0052a4a8      3a02           move.w d2, d5
  │ ╎╎│╎│   0x0052a4aa      48c3           ext.l d3
  │ ╎╎│╎│   0x0052a4ac      2803           move.l d3, d4
  │ ╎╎│╎│   0x0052a4ae      e784           asl.l 0x3, d4
  │ ╎╎│╎│   0x0052a4b0      48c5           ext.l d5
  │ ╎╎│╎│   0x0052a4b2      d885           add.l d5, d4
  │ ╎╎│╎│   0x0052a4b4      3e04           move.w d4, d7
  │ ╎╎│╎│   0x0052a4b6      382effb4       move.w -0x4c(a6), d4
  │ ╎╎│╎│   0x0052a4ba      302effbc       move.w -0x44(a6), d0
  │ ╎╎│╎│   0x0052a4be      c1f64320fdf0   muls.w 0xfdf0(a6, d4.w * 2), d0
  │ ╎╎│╎│   0x0052a4c4      2f00           move.l d0, -(a7)
  │ ╎╎│╎│   0x0052a4c6      2f01           move.l d1, -(a7)
  │┌──────> 0x0052a4c8      202f0004       move.l 0x4(a7), d0
  │╎╎╎│╎│   0x0052a4cc      2217           move.l (a7), d1
  │╎╎╎│╎│   0x0052a4ce      ba6effc0       cmp.w -0x40(a6), d5
  ────────< 0x0052a4d2      6f06           ble.b 0x52a4da
  │╎╎╎│╎│   0x0052a4d4      504f           addq.w 0x8, a7
  ────────< 0x0052a4d6      600000ea       bra.w 0x52a5c2
  ────────> 0x0052a4da      4a2effff       tst.b -0x1(a6)
  ────────< 0x0052a4de      671c           beq.b 0x52a4fc
  │╎╎╎│╎│   0x0052a4e0      322effb8       move.w -0x48(a6), d1
  │╎╎╎│╎│   0x0052a4e4      c3f64320fdee   muls.w 0xfdee(a6, d4.w * 2), d1
  │╎╎╎│╎│   0x0052a4ea      d280           add.l d0, d1
  │╎╎╎│╎│   0x0052a4ec      4c36180054de   muls.l -0x22(a6, d5.w), d1
  ────────> 0x0052a4f2      4c3c18000000.  muls.l 0x2, d1
  ────────< 0x0052a4fa      607e           bra.b 0x52a57a
  ────────> 0x0052a4fc      4a2efffe       tst.b -0x2(a6)
  ────────< 0x0052a500      6726           beq.b 0x52a528
  │╎╎╎│╎│   0x0052a502      302effba       move.w -0x46(a6), d0
  │╎╎╎│╎│   0x0052a506      c1f65320fdde   muls.w 0xfdde(a6, d5.w * 2), d0
  │╎╎╎│╎│   0x0052a50c      2f00           move.l d0, -(a7)
  │╎╎╎│╎│   0x0052a50e      302effb6       move.w -0x4a(a6), d0
  │╎╎╎│╎│   0x0052a512      c1f65320fddc   muls.w 0xfddc(a6, d5.w * 2), d0
  │╎╎╎│╎│   0x0052a518      221f           move.l (a7)+, d1
  │╎╎╎│╎│   0x0052a51a      d280           add.l d0, d1
  │╎╎╎│╎│   0x0052a51c      302effb4       move.w -0x4c(a6), d0
  │╎╎╎│╎│   0x0052a520      4c36180004de   muls.l -0x22(a6, d0.w), d1
  ────────< 0x0052a526      60ca           bra.b 0x52a4f2
  ────────> 0x0052a528      302effba       move.w -0x46(a6), d0
  │╎╎╎│╎│   0x0052a52c      c1f67320fe00   muls.w 0xfe00(a6, d7.w * 2), d0
  │╎╎╎│╎│   0x0052a532      2f00           move.l d0, -(a7)
  │╎╎╎│╎│   0x0052a534      302effb6       move.w -0x4a(a6), d0
  │╎╎╎│╎│   0x0052a538      c1f67320fdfe   muls.w 0xfdfe(a6, d7.w * 2), d0
  │╎╎╎│╎│   0x0052a53e      221f           move.l (a7)+, d1
  │╎╎╎│╎│   0x0052a540      d280           add.l d0, d1
  │╎╎╎│╎│   0x0052a542      302effb8       move.w -0x48(a6), d0
  │╎╎╎│╎│   0x0052a546      48c0           ext.l d0
  │╎╎╎│╎│   0x0052a548      4c001800       muls.l d0, d1
  │╎╎╎│╎│   0x0052a54c      302effba       move.w -0x46(a6), d0
  │╎╎╎│╎│   0x0052a550      c1f67320fe10   muls.w 0xfe10(a6, d7.w * 2), d0
  │╎╎╎│╎│   0x0052a556      2f00           move.l d0, -(a7)
  │╎╎╎│╎│   0x0052a558      302effb6       move.w -0x4a(a6), d0
  │╎╎╎│╎│   0x0052a55c      c1f67320fe0e   muls.w 0xfe0e(a6, d7.w * 2), d0
  │╎╎╎│╎│   0x0052a562      2f01           move.l d1, -(a7)
  │╎╎╎│╎│   0x0052a564      222f0004       move.l 0x4(a7), d1
  │╎╎╎│╎│   0x0052a568      d280           add.l d0, d1
  │╎╎╎│╎│   0x0052a56a      302effbc       move.w -0x44(a6), d0
  │╎╎╎│╎│   0x0052a56e      48c0           ext.l d0
  │╎╎╎│╎│   0x0052a570      4c001800       muls.l d0, d1
  │╎╎╎│╎│   0x0052a574      201f           move.l (a7)+, d0
  │╎╎╎│╎│   0x0052a576      d280           add.l d0, d1
  │╎╎╎│╎│   0x0052a578      584f           addq.w 0x4, a7
  ────────> 0x0052a57a      2d41ffc6       move.l d1, -0x3a(a6)
  │╎╎╎│╎│   0x0052a57e      202effc6       move.l -0x3a(a6), d0
  │╎╎╎│╎│   0x0052a582      0280000003ff   andi.l 0x3ff, d0
  │╎╎╎│╎│   0x0052a588      3d807320ff1e   move.w d0, 0xff1e(a6, d7.w * 2)
  │╎╎╎│╎│   0x0052a58e      202effc6       move.l -0x3a(a6), d0
  │╎╎╎│╎│   0x0052a592      4c7c08000000.  divs.l 0x400, d0
  │╎╎╎│╎│   0x0052a59a      3d40ffd6       move.w d0, -0x2a(a6)
  │╎╎╎│╎│   0x0052a59e      3f00           move.w d0, -(a7)
  │╎╎╎│╎│   0x0052a5a0      3d807320fe8e   move.w d0, 0xfe8e(a6, d7.w * 2)
  │╎╎╎│╎│   0x0052a5a6      302effd2       move.w -0x2e(a6), d0
  │╎╎╎│╎│   0x0052a5aa      48c0           ext.l d0
  │╎╎╎│╎│   0x0052a5ac      321f           move.w (a7)+, d1
  │╎╎╎│╎│   0x0052a5ae      48c1           ext.l d1
  │╎╎╎│╎│   0x0052a5b0      d280           add.l d0, d1
  │╎╎╎│╎│   0x0052a5b2      3d41ffd2       move.w d1, -0x2e(a6)
  │╎╎╎│╎│   0x0052a5b6      48c7           ext.l d7
  │╎╎╎│╎│   0x0052a5b8      5287           addq.l 0x1, d7
  │╎╎╎│╎│   0x0052a5ba      48c5           ext.l d5
  │╎╎╎│╎│   0x0052a5bc      5285           addq.l 0x1, d5
  │└──────< 0x0052a5be      6000ff08       bra.w 0x52a4c8
  │ ╎╎│╎│   ; CODE XREF from BRUSH2COM @ +0x41fa
  ────────> 0x0052a5c2      302effb4       move.w -0x4c(a6), d0
  │ ╎╎│╎│   0x0052a5c6      48c0           ext.l d0
  │ ╎╎│╎│   0x0052a5c8      5280           addq.l 0x1, d0
  │ ╎╎│╎│   0x0052a5ca      3d40ffb4       move.w d0, -0x4c(a6)
  │ └─────< 0x0052a5ce      6000fec2       bra.w 0x52a492
  │  ╎│╎│   ; CODE XREF from BRUSH2COM @ +0x41c8
  └───────> 0x0052a5d2      342effd2       move.w -0x2e(a6), d2
     ╎│╎│   0x0052a5d6      0c420400       cmpi.w 0x400, d2
    ┌─────< 0x0052a5da      6f4a           ble.b 0x52a626
    │╎│╎│   0x0052a5dc      3602           move.w d2, d3
   ┌──────> 0x0052a5de      0c430401       cmpi.w 0x401, d3
  ┌───────< 0x0052a5e2      6d40           blt.b 0x52a624
  │╎│╎│╎│   0x0052a5e4      3d43ffd4       move.w d3, -0x2c(a6)
  │╎│╎│╎│   0x0052a5e8      3d7cffffffd8   move.w 0xffff, -0x28(a6)
  │╎│╎│╎│   0x0052a5ee      7c00           moveq 0x0, d6
  │╎│╎│╎│   0x0052a5f0      7e00           moveq 0x0, d7
  ────────> 0x0052a5f2      38367320ff1e   move.w 0xff1e(a6, d7.w * 2), d4
  │╎│╎│╎│   0x0052a5f8      b86effd8       cmp.w -0x28(a6), d4
  ────────< 0x0052a5fc      6f0a           ble.b 0x52a608
  │╎│╎│╎│   0x0052a5fe      3d767320fe8e.  move.w 0xfe8e(a6, d7.w * 2), -0x28(a6)
  │╎│╎│╎│   0x0052a606      3c07           move.w d7, d6
  ────────> 0x0052a608      5247           addq.w 0x1, d7
  │╎│╎│╎│   0x0052a60a      0c47003f       cmpi.w 0x3f, d7
  ────────< 0x0052a60e      6fe2           ble.b 0x52a5f2
  │╎│╎│╎│   0x0052a610      38366320fe8e   move.w 0xfe8e(a6, d6.w * 2), d4
  │╎│╎│╎│   0x0052a616      48c4           ext.l d4
  │╎│╎│╎│   0x0052a618      5384           subq.l 0x1, d4
  │╎│╎│╎│   0x0052a61a      3d846320fe8e   move.w d4, 0xfe8e(a6, d6.w * 2)
  │╎│╎│╎│   0x0052a620      5343           subq.w 0x1, d3
  │└──────< 0x0052a622      68ba           bvc.b 0x52a5de
  └┌──────< 0x0052a624      6054           bra.b 0x52a67a
   │└─────> 0x0052a626      0c420400       cmpi.w 0x400, d2
   │┌─────< 0x0052a62a      6c4e           bge.b 0x52a67a
   ││╎│╎│   0x0052a62c      3f02           move.w d2, -(a7)
   ││╎│╎│   0x0052a62e      363c03ff       move.w 0x3ff, d3
  ┌───────> 0x0052a632      b657           cmp.w (a7), d3
  ────────< 0x0052a634      6d42           blt.b 0x52a678
  ╎││╎│╎│   0x0052a636      3d43ffd4       move.w d3, -0x2c(a6)
  ╎││╎│╎│   0x0052a63a      3d7cffffffd8   move.w 0xffff, -0x28(a6)
  ╎││╎│╎│   0x0052a640      7c00           moveq 0x0, d6
  ╎││╎│╎│   0x0052a642      7e00           moveq 0x0, d7
  ────────> 0x0052a644      38367320ff1e   move.w 0xff1e(a6, d7.w * 2), d4
  ╎││╎│╎│   0x0052a64a      b86effd8       cmp.w -0x28(a6), d4
  ────────< 0x0052a64e      6f06           ble.b 0x52a656
  ╎││╎│╎│   0x0052a650      3d44ffd8       move.w d4, -0x28(a6)
  ╎││╎│╎│   0x0052a654      3c07           move.w d7, d6
  ────────> 0x0052a656      5247           addq.w 0x1, d7
  ╎││╎│╎│   0x0052a658      0c47003f       cmpi.w 0x3f, d7
  ────────< 0x0052a65c      6fe6           ble.b 0x52a644
  ╎││╎│╎│   0x0052a65e      42766320ff1e   clr.w 0xff1e(a6, d6.w * 2)
  ╎││╎│╎│   0x0052a664      38366320fe8e   move.w 0xfe8e(a6, d6.w * 2), d4
  ╎││╎│╎│   0x0052a66a      48c4           ext.l d4
  ╎││╎│╎│   0x0052a66c      5284           addq.l 0x1, d4
  ╎││╎│╎│   0x0052a66e      3d846320fe8e   move.w d4, 0xfe8e(a6, d6.w * 2)
  ╎││╎│╎│   0x0052a674      5343           subq.w 0x1, d3
  └───────< 0x0052a676      68ba           bvc.b 0x52a632
  ────────> 0x0052a678      544f           addq.w 0x2, a7
   ││╎│╎│   ; CODE XREF from BRUSH2COM @ +0x4348
   └└─────> 0x0052a67a      554f           subq.w 0x2, a7
     ╎│╎│   0x0052a67c      4eb900523ca0   jsr BRUSHCOM.b_8m_disk_store
     ╎│╎│   0x0052a682      4a1f           tst.b (a7)+
    ┌─────< 0x0052a684      6728           beq.b 0x52a6ae
    │╎│╎│   0x0052a686      4279fff80004   clr.w 0xfff80004
    │╎│╎│   0x0052a68c      33fc0007fff8.  move.w 0x7, 0xfff80018.l
    │╎│╎│   0x0052a694      7e00           moveq 0x0, d7
   ┌──────> 0x0052a696      34367320fe8e   move.w 0xfe8e(a6, d7.w * 2), d2
   ╎│╎│╎│   0x0052a69c      48c2           ext.l d2
   ╎│╎│╎│   0x0052a69e      e982           asl.l 0x4, d2
   ╎│╎│╎│   0x0052a6a0      3d827320fe8e   move.w d2, 0xfe8e(a6, d7.w * 2)
   ╎│╎│╎│   0x0052a6a6      5247           addq.w 0x1, d7
   ╎│╎│╎│   0x0052a6a8      0c47003f       cmpi.w 0x3f, d7
   └──────< 0x0052a6ac      6fe8           ble.b 0x52a696
    └─────> 0x0052a6ae      7e00           moveq 0x0, d7
    ┌─────> 0x0052a6b0      41f900000000   lea.l 0x0, a0
    ╎╎│╎│   0x0052a6b6      242effca       move.l -0x36(a6), d2
    ╎╎│╎│   0x0052a6ba      36367320fe8e   move.w 0xfe8e(a6, d7.w * 2), d3
    ╎╎│╎│   0x0052a6c0      48c3           ext.l d3
    ╎╎│╎│   0x0052a6c2      2f03           move.l d3, -(a7)
    ╎╎│╎│   0x0052a6c4      31af00022b30.  move.w 0x2(a7), 0xfff9e000(a0, d2.l * 2)
    ╎╎│╎│   0x0052a6ce      584f           addq.w 0x4, a7
    ╎╎│╎│   0x0052a6d0      5282           addq.l 0x1, d2
    ╎╎│╎│   0x0052a6d2      2d42ffca       move.l d2, -0x36(a6)
    ╎╎│╎│   0x0052a6d6      5247           addq.w 0x1, d7
    ╎╎│╎│   0x0052a6d8      0c47003f       cmpi.w 0x3f, d7
    └─────< 0x0052a6dc      6fd2           ble.b 0x52a6b0
     ╎│╎│   0x0052a6de      554f           subq.w 0x2, a7
     ╎│╎│   0x0052a6e0      4eb900523ca0   jsr BRUSHCOM.b_8m_disk_store
     ╎│╎│   0x0052a6e6      4a1f           tst.b (a7)+
    ┌─────< 0x0052a6e8      6706           beq.b 0x52a6f0
    │╎│╎│   0x0052a6ea      4279fff80018   clr.w 0xfff80018
    └─────> 0x0052a6f0      322effb6       move.w -0x4a(a6), d1
     ╎│╎│   0x0052a6f4      2017           move.l (a7), d0
     ╎│╎│   0x0052a6f6      5241           addq.w 0x1, d1
     ╎│╎│   0x0052a6f8      0c410007       cmpi.w 0x7, d1
    ┌─────< 0x0052a6fc      6e06           bgt.b 0x52a704
    │╎│╎│   0x0052a6fe      584f           addq.w 0x4, a7
    │└────< 0x0052a700      6000fcf2       bra.w 0x52a3f4
    └─────> 0x0052a704      584f           addq.w 0x4, a7
      │╎│   0x0052a706      302effb8       move.w -0x48(a6), d0
      │╎│   0x0052a70a      5240           addq.w 0x1, d0
      │╎│   0x0052a70c      0c400007       cmpi.w 0x7, d0
      │└──< 0x0052a710      6f00fc7a       ble.w 0x52a38c
      │┌──< 0x0052a714      60000186       bra.w loc.0052a89c
      ││└─> 0x0052a718      426effd2       clr.w -0x2e(a6)
      ││    0x0052a71c      7e00           moveq 0x0, d7
      ││┌─> 0x0052a71e      42767320ff1e   clr.w 0xff1e(a6, d7.w * 2)
      ││╎   0x0052a724      42767320fe8e   clr.w 0xfe8e(a6, d7.w * 2)
      ││╎   0x0052a72a      5247           addq.w 0x1, d7
      ││╎   0x0052a72c      0c47003f       cmpi.w 0x3f, d7
      ││└─< 0x0052a730      6fec           ble.b 0x52a71e
      ││    0x0052a732      7e00           moveq 0x0, d7
      ││┌─> 0x0052a734      30367320fe10   move.w 0xfe10(a6, d7.w * 2), d0
      ││╎   0x0052a73a      48c0           ext.l d0
      ││╎   0x0052a73c      e780           asl.l 0x3, d0
      ││╎   0x0052a73e      e780           asl.l 0x3, d0
      ││╎   0x0052a740      2d40ffc6       move.l d0, -0x3a(a6)
      ││╎   0x0052a744      2200           move.l d0, d1
      ││╎   0x0052a746      0281000003ff   andi.l 0x3ff, d1
      ││╎   0x0052a74c      3d817320ff1e   move.w d1, 0xff1e(a6, d7.w * 2)
      ││╎   0x0052a752      4c7c08000000.  divs.l 0x400, d0
      ││╎   0x0052a75a      3d40ffd6       move.w d0, -0x2a(a6)
      ││╎   0x0052a75e      3d807320fe8e   move.w d0, 0xfe8e(a6, d7.w * 2)
      ││╎   0x0052a764      322effd2       move.w -0x2e(a6), d1
      ││╎   0x0052a768      48c1           ext.l d1
      ││╎   0x0052a76a      48c0           ext.l d0
      ││╎   0x0052a76c      d081           add.l d1, d0
      ││╎   0x0052a76e      3d40ffd2       move.w d0, -0x2e(a6)
      ││╎   0x0052a772      5247           addq.w 0x1, d7
      ││╎   0x0052a774      0c470036       cmpi.w 0x36, d7
      ││└─< 0x0052a778      6fba           ble.b 0x52a734
      ││    0x0052a77a      302effd2       move.w -0x2e(a6), d0
      ││    0x0052a77e      0c400400       cmpi.w 0x400, d0
      ││┌─< 0x0052a782      6f4a           ble.b 0x52a7ce
      │││   0x0052a784      3200           move.w d0, d1
     ┌────> 0x0052a786      0c410401       cmpi.w 0x401, d1
    ┌─────< 0x0052a78a      6d40           blt.b 0x52a7cc
    │╎│││   0x0052a78c      3d41ffd4       move.w d1, -0x2c(a6)
    │╎│││   0x0052a790      3d7cffffffd8   move.w 0xffff, -0x28(a6)
    │╎│││   0x0052a796      7c00           moveq 0x0, d6
    │╎│││   0x0052a798      7e00           moveq 0x0, d7
   ┌──────> 0x0052a79a      34367320ff1e   move.w 0xff1e(a6, d7.w * 2), d2
   ╎│╎│││   0x0052a7a0      b46effd8       cmp.w -0x28(a6), d2
  ┌───────< 0x0052a7a4      6f0a           ble.b 0x52a7b0
  │╎│╎│││   0x0052a7a6      3d767320fe8e.  move.w 0xfe8e(a6, d7.w * 2), -0x28(a6)
  │╎│╎│││   0x0052a7ae      3c07           move.w d7, d6
  └───────> 0x0052a7b0      5247           addq.w 0x1, d7
   ╎│╎│││   0x0052a7b2      0c47003f       cmpi.w 0x3f, d7
   └──────< 0x0052a7b6      6fe2           ble.b 0x52a79a
    │╎│││   0x0052a7b8      34366320fe8e   move.w 0xfe8e(a6, d6.w * 2), d2
    │╎│││   0x0052a7be      48c2           ext.l d2
    │╎│││   0x0052a7c0      5382           subq.l 0x1, d2
    │╎│││   0x0052a7c2      3d826320fe8e   move.w d2, 0xfe8e(a6, d6.w * 2)
    │╎│││   0x0052a7c8      5341           subq.w 0x1, d1
    │└────< 0x0052a7ca      68ba           bvc.b 0x52a786
    └┌────< 0x0052a7cc      6054           bra.b 0x52a822
     │││└─> 0x0052a7ce      0c400400       cmpi.w 0x400, d0
     │││┌─< 0x0052a7d2      6c4e           bge.b 0x52a822
     ││││   0x0052a7d4      3f00           move.w d0, -(a7)
     ││││   0x0052a7d6      323c03ff       move.w 0x3ff, d1
    ┌─────> 0x0052a7da      b257           cmp.w (a7), d1
   ┌──────< 0x0052a7dc      6d42           blt.b 0x52a820
   │╎││││   0x0052a7de      3d41ffd4       move.w d1, -0x2c(a6)
   │╎││││   0x0052a7e2      3d7cffffffd8   move.w 0xffff, -0x28(a6)
   │╎││││   0x0052a7e8      7c00           moveq 0x0, d6
   │╎││││   0x0052a7ea      7e00           moveq 0x0, d7
  ┌───────> 0x0052a7ec      34367320ff1e   move.w 0xff1e(a6, d7.w * 2), d2
  ╎│╎││││   0x0052a7f2      b46effd8       cmp.w -0x28(a6), d2
  ────────< 0x0052a7f6      6f06           ble.b 0x52a7fe
  ╎│╎││││   0x0052a7f8      3d42ffd8       move.w d2, -0x28(a6)
  ╎│╎││││   0x0052a7fc      3c07           move.w d7, d6
  ────────> 0x0052a7fe      5247           addq.w 0x1, d7
  ╎│╎││││   0x0052a800      0c47003f       cmpi.w 0x3f, d7
  └───────< 0x0052a804      6fe6           ble.b 0x52a7ec
   │╎││││   0x0052a806      42766320ff1e   clr.w 0xff1e(a6, d6.w * 2)
   │╎││││   0x0052a80c      34366320fe8e   move.w 0xfe8e(a6, d6.w * 2), d2
   │╎││││   0x0052a812      48c2           ext.l d2
   │╎││││   0x0052a814      5282           addq.l 0x1, d2
   │╎││││   0x0052a816      3d826320fe8e   move.w d2, 0xfe8e(a6, d6.w * 2)
   │╎││││   0x0052a81c      5341           subq.w 0x1, d1
   │└─────< 0x0052a81e      68ba           bvc.b 0x52a7da
   └──────> 0x0052a820      544f           addq.w 0x2, a7
     └──└─> 0x0052a822      554f           subq.w 0x2, a7
      ││    0x0052a824      4eb900523ca0   jsr BRUSHCOM.b_8m_disk_store
      ││    0x0052a82a      4a1f           tst.b (a7)+
      ││┌─< 0x0052a82c      6728           beq.b 0x52a856
      │││   0x0052a82e      4279fff80004   clr.w 0xfff80004
      │││   0x0052a834      33fc0007fff8.  move.w 0x7, 0xfff80018.l
      │││   0x0052a83c      7e00           moveq 0x0, d7
     ┌────> 0x0052a83e      30367320fe8e   move.w 0xfe8e(a6, d7.w * 2), d0
     ╎│││   0x0052a844      48c0           ext.l d0
     ╎│││   0x0052a846      e980           asl.l 0x4, d0
     ╎│││   0x0052a848      3d807320fe8e   move.w d0, 0xfe8e(a6, d7.w * 2)
     ╎│││   0x0052a84e      5247           addq.w 0x1, d7
     ╎│││   0x0052a850      0c47003f       cmpi.w 0x3f, d7
     └────< 0x0052a854      6fe8           ble.b 0x52a83e
      ││└─> 0x0052a856      42aeffca       clr.l -0x36(a6)
      ││    0x0052a85a      7e00           moveq 0x0, d7
      ││┌─> 0x0052a85c      41f900000000   lea.l 0x0, a0
      ││╎   0x0052a862      202effca       move.l -0x36(a6), d0
      ││╎   0x0052a866      32367320fe8e   move.w 0xfe8e(a6, d7.w * 2), d1
      ││╎   0x0052a86c      48c1           ext.l d1
      ││╎   0x0052a86e      2f01           move.l d1, -(a7)
      ││╎   0x0052a870      31af00020b30.  move.w 0x2(a7), 0xfff9e000(a0, d0.l * 2)
      ││╎   0x0052a87a      584f           addq.w 0x4, a7
      ││╎   0x0052a87c      5280           addq.l 0x1, d0
      ││╎   0x0052a87e      2d40ffca       move.l d0, -0x36(a6)
      ││╎   0x0052a882      5247           addq.w 0x1, d7
      ││╎   0x0052a884      0c47003f       cmpi.w 0x3f, d7
      ││└─< 0x0052a888      6fd2           ble.b 0x52a85c
      ││    0x0052a88a      554f           subq.w 0x2, a7
      ││    0x0052a88c      4eb900523ca0   jsr BRUSHCOM.b_8m_disk_store
      ││    0x0052a892      4a1f           tst.b (a7)+
      ││┌─< 0x0052a894      6706           beq.b loc.0052a89c
      │││   0x0052a896      4279fff80018   clr.w 0xfff80018
      │││   ; CODE XREF from BRUSH2COM.br_create_filte @ 0x529f06
      │││   ; CODE XREF from BRUSH2COM @ +0x4438
├ 8: loc.0052a89c ();
│     └└└─> 0x0052a89c      4cdf1fff       movem.l (a7)+, d0-d7/a0-a4
│           0x0052a8a0      4e5e           unlk a6
└           0x0052a8a2      4e75           rts
            ; CALL XREF from fcn.004add0e @ 0x4ade9c
┌ 24: BRUSH2COM.br_filter_copy ();
│           0x0052a8a4      4e56ff7e       link.w a6, 0xff7e
│           0x0052a8a8      bfd5           cmpa.l (a5), a7
│       ┌─< 0x0052a8aa      6206           bhi.b 0x52a8b2
│       │   0x0052a8ac      44fc0002       move.w 0x2, ccr
│       │   0x0052a8b0      4e76           trapv
│       └─> 0x0052a8b2      defc0060       adda.w 0x60, a7
│           0x0052a8b6      48e7fff8       movem.l d0-d7/a0-a4, -(a7)
│           0x0052a8ba      f227e001       fmovem fp0, -(a7)
            0x0052a8be      43eefff4       lea.l -0xc(a6), a1
            0x0052a8c2      45ee000c       lea.l 0xc(a6), a2
            0x0052a8c6      47ee0016       lea.l 0x16(a6), a3
            0x0052a8ca      49f90083fbba   lea.l 0x83fbba, a4
            0x0052a8d0      7c0f           moveq 0xf, d6
            0x0052a8d2      594f           subq.w 0x4, a7
            0x0052a8d4      4eb900676376   jsr PASTECOM.new_cutout
            0x0052a8da      229f           move.l (a7)+, (a1)
            0x0052a8dc      2051           movea.l (a1), a0
            0x0052a8de      b1e8fffc       cmpa.l -0x4(a0), a0
        ┌─< 0x0052a8e2      6702           beq.b 0x52a8e6
        │   0x0052a8e4      4e4d           trap 0xd
        └─> 0x0052a8e6      302e0012       move.w 0x12(a6), d0
            0x0052a8ea      02400007       andi.w 0x7, d0
        ┌─< 0x0052a8ee      6608           bne.b 0x52a8f8
        │   0x0052a8f0      3013           move.w (a3), d0
        │   0x0052a8f2      02400007       andi.w 0x7, d0
       ┌──< 0x0052a8f6      671a           beq.b 0x52a912
       │└─> 0x0052a8f8      487abea5       pea.l 0x52679f(pc)
       │    0x0052a8fc      48780021       pea.l 0x21
       │    0x0052a900      2f17           move.l (a7), -(a7)
       │    0x0052a902      4eb9004047ea   jsr p_wts_o
       │    0x0052a908      defc000c       adda.w 0xc, a7
       │    0x0052a90c      4eb900404946   jsr p_wtln_o
       └──> 0x0052a912      1014           move.b (a4), d0
            0x0052a914      0c000003       cmpi.b 0x3, d0
        ┌─< 0x0052a918      6714           beq.b 0x52a92e
        │   0x0052a91a      3012           move.w (a2), d0
        │   0x0052a91c      b046           cmp.w d6, d0
       ┌──< 0x0052a91e      6f0e           ble.b 0x52a92e
       ││   0x0052a920      3f12           move.w (a2), -(a7)
       ││   0x0052a922      4227           clr.b -(a7)
       ││   0x0052a924      4ebaf592       jsr BRUSH2COM.br_create_filte(pc)
       ││   0x0052a928      584f           addq.w 0x4, a7
       ││   0x0052a92a      7e0f           moveq 0xf, d7
      ┌───< 0x0052a92c      6002           bra.b 0x52a930
      │└└─> 0x0052a92e      3e12           move.w (a2), d7
      └───> 0x0052a930      216e0012030e   move.l 0x12(a6), 0x30e(a0)
            0x0052a936      21530312       move.l (a3), 0x312(a0)
            0x0052a93a      3013           move.w (a3), d0
            0x0052a93c      48c0           ext.l d0
            0x0052a93e      2200           move.l d0, d1
            0x0052a940      e581           asl.l 0x2, d1
            0x0052a942      31410022       move.w d1, 0x22(a0)
            0x0052a946      342e0018       move.w 0x18(a6), d2
            0x0052a94a      48c2           ext.l d2
            0x0052a94c      2602           move.l d2, d3
            0x0052a94e      e583           asl.l 0x2, d3
            0x0052a950      31430024       move.w d3, 0x24(a0)
            0x0052a954      f2014000       fmove.l d1, fp0
            0x0052a958      f23944230083.  fmul.s 0x83fbf4, fp0
            0x0052a960      f200001a       fneg fp0
            0x0052a964      f22864000036   fmove.s fp0, 0x36(a0)
            0x0052a96a      f2034000       fmove.l d3, fp0
            0x0052a96e      f23944230083.  fmul.s 0x83fbe4, fp0
            0x0052a976      f200001a       fneg fp0
            0x0052a97a      f2286400003a   fmove.s fp0, 0x3a(a0)
            0x0052a980      f228441a0036   fneg.s 0x36(a0), fp0
            0x0052a986      f2286400003e   fmove.s fp0, 0x3e(a0)
            0x0052a98c      2168003a0042   move.l 0x3a(a0), 0x42(a0)
            0x0052a992      2168003e0046   move.l 0x3e(a0), 0x46(a0)
            0x0052a998      f228441a0042   fneg.s 0x42(a0), fp0
            0x0052a99e      f2286400004a   fmove.s fp0, 0x4a(a0)
            0x0052a9a4      21680036004e   move.l 0x36(a0), 0x4e(a0)
            0x0052a9aa      2168004a0052   move.l 0x4a(a0), 0x52(a0)
            0x0052a9b0      2d7c3f800000.  move.l 0x3f800000, -0x16(a6)
            0x0052a9b8      382e000e       move.w 0xe(a6), d4
            0x0052a9bc      48c4           ext.l d4
            0x0052a9be      2a04           move.l d4, d5
            0x0052a9c0      e785           asl.l 0x3, d5
            0x0052a9c2      d285           add.l d5, d1
            0x0052a9c4      3d41ffee       move.w d1, -0x12(a6)
            0x0052a9c8      322e0010       move.w 0x10(a6), d1
            0x0052a9cc      48c1           ext.l d1
            0x0052a9ce      2a01           move.l d1, d5
            0x0052a9d0      e785           asl.l 0x3, d5
            0x0052a9d2      d685           add.l d5, d3
            0x0052a9d4      3d43fff0       move.w d3, -0x10(a6)
            0x0052a9d8      3d44ffe2       move.w d4, -0x1e(a6)
            0x0052a9dc      3d41ffe4       move.w d1, -0x1c(a6)
            0x0052a9e0      3d40ffe6       move.w d0, -0x1a(a6)
            0x0052a9e4      3d42ffe8       move.w d2, -0x18(a6)
            0x0052a9e8      1f3c0001       move.b 0x1, -(a7)
            0x0052a9ec      4227           clr.b -(a7)
            0x0052a9ee      3f07           move.w d7, -(a7)
            0x0052a9f0      2f11           move.l (a1), -(a7)
            0x0052a9f2      486effea       pea.l -0x16(a6)
            0x0052a9f6      1f2e000a       move.b 0xa(a6), -(a7)
            0x0052a9fa      1f2e0008       move.b 0x8(a6), -(a7)
            0x0052a9fe      486effe2       pea.l -0x1e(a6)
            0x0052aa02      4ebae5c4       jsr BRUSH2COM.br_size_3d(pc)
            0x0052aa06      defc0016       adda.w 0x16, a7
            0x0052aa0a      1014           move.b (a4), d0
            0x0052aa0c      0c000003       cmpi.b 0x3, d0
        ┌─< 0x0052aa10      6710           beq.b 0x52aa22
        │   0x0052aa12      3012           move.w (a2), d0
        │   0x0052aa14      b046           cmp.w d6, d0
       ┌──< 0x0052aa16      6f0a           ble.b 0x52aa22
       ││   0x0052aa18      3f06           move.w d6, -(a7)
       ││   0x0052aa1a      4227           clr.b -(a7)
       ││   0x0052aa1c      4ebaf49a       jsr BRUSH2COM.br_create_filte(pc)
       ││   0x0052aa20      584f           addq.w 0x4, a7
       └└─> 0x0052aa22      4851           pea.l (a1)
            0x0052aa24      48780720       pea.l 0x720
            0x0052aa28      4eb900403b98   jsr p_Dispos
            0x0052aa2e      504f           addq.w 0x8, a7
            0x0052aa30      1d7c0001001a   move.b 0x1, 0x1a(a6)
            0x0052aa36      f21fd080       fmovem (a7)+, fp0
            0x0052aa3a      4cdf1fff       movem.l (a7)+, d0-d7/a0-a4
            0x0052aa3e      4e5e           unlk a6
            0x0052aa40      4e75           rts
            ; CALL XREF from fcn.004add0e @ 0x4adf34
            ; CALL XREF from MENUEFFECTCOM.do_field @ 0x743ad6
            ; CALL XREF from PANEL_VIDEO.cleanup @ 0x798ae2
┌ 438: BRUSH2COM.br_field_interp (int32_t arg_12h);
│           ; arg int32_t arg_12h @ a6+0x12
│           0x0052aa42      4e56ff8e       link.w a6, 0xff8e
│           0x0052aa46      bfd5           cmpa.l (a5), a7
│       ┌─< 0x0052aa48      6206           bhi.b 0x52aa50
│       │   0x0052aa4a      44fc0002       move.w 0x2, ccr
│       │   0x0052aa4e      4e76           trapv
│       └─> 0x0052aa50      defc0050       adda.w 0x50, a7
│           0x0052aa54      48e7f9f8       movem.l d0-d4/d7/a0-a4, -(a7)
│           0x0052aa58      41ee0014       lea.l 0x14(a6), a0
│           0x0052aa5c      43ee000e       lea.l 0xe(a6), a1
│           0x0052aa60      45ee0016       lea.l 0x16(a6), a2
│           0x0052aa64      47eeffe2       lea.l -0x1e(a6), a3
│           0x0052aa68      49eefffa       lea.l -0x6(a6), a4
│           0x0052aa6c      7601           moveq 0x1, d3
│           0x0052aa6e      7807           moveq 0x7, d4
│           0x0052aa70      302e0012       move.w 0x12(a6), d0
│           0x0052aa74      c044           and.w d4, d0
│       ┌─< 0x0052aa76      661c           bne.b 0x52aa94
│       │   0x0052aa78      3011           move.w (a1), d0
│       │   0x0052aa7a      c044           and.w d4, d0
│      ┌──< 0x0052aa7c      6616           bne.b 0x52aa94
│      ││   0x0052aa7e      3010           move.w (a0), d0
│      ││   0x0052aa80      c043           and.w d3, d0
│     ┌───< 0x0052aa82      6610           bne.b 0x52aa94
│     │││   0x0052aa84      302e0018       move.w 0x18(a6), d0
│     │││   0x0052aa88      c043           and.w d3, d0
│    ┌────< 0x0052aa8a      6608           bne.b 0x52aa94
│    ││││   0x0052aa8c      302e0010       move.w 0x10(a6), d0
│    ││││   0x0052aa90      c043           and.w d3, d0
│   ┌─────< 0x0052aa92      671a           beq.b 0x52aaae
│   │└└└└─> 0x0052aa94      487abd2b       pea.l 0x5267c1(pc)
│   │       0x0052aa98      48780027       pea.l 0x27
│   │       0x0052aa9c      2f17           move.l (a7), -(a7)
│   │       0x0052aa9e      4eb9004047ea   jsr p_wts_o
│   │       0x0052aaa4      defc000c       adda.w 0xc, a7
│   │       0x0052aaa8      4eb900404946   jsr p_wtln_o
│   └─────> 0x0052aaae      3d6e0012ffe0   move.w 0x12(a6), -0x20(a6)
│           0x0052aab4      3d51fff0       move.w (a1), -0x10(a6)
│           0x0052aab8      3d52fff4       move.w (a2), -0xc(a6)
│           0x0052aabc      3d43fff6       move.w d3, -0xa(a6)
│           0x0052aac0      3d51fff8       move.w (a1), -0x8(a6)
│           0x0052aac4      3d52fffc       move.w (a2), -0x4(a6)
│           0x0052aac8      3d43fffe       move.w d3, -0x2(a6)
│           0x0052aacc      3d6e0012ffe4   move.w 0x12(a6), -0x1c(a6)
│           0x0052aad2      3d51ffe8       move.w (a1), -0x18(a6)
│           0x0052aad6      3d52ffec       move.w (a2), -0x14(a6)
│           0x0052aada      3d43ffee       move.w d3, -0x12(a6)
│           0x0052aade      4a2e000c       tst.b 0xc(a6)
│       ┌─< 0x0052aae2      671a           beq.b 0x52aafe
│       │   0x0052aae4      3690           move.w (a0), (a3)
│       │   0x0052aae6      302e0010       move.w 0x10(a6), d0
│       │   0x0052aaea      48c0           ext.l d0
│       │   0x0052aaec      2200           move.l d0, d1
│       │   0x0052aaee      5281           addq.l 0x1, d1
│       │   0x0052aaf0      3881           move.w d1, (a4)
│       │   0x0052aaf2      3d40fff2       move.w d0, -0xe(a6)
│       │   0x0052aaf6      3010           move.w (a0), d0
│       │   0x0052aaf8      48c0           ext.l d0
│       │   0x0052aafa      5480           addq.l 0x2, d0
│      ┌──< 0x0052aafc      601c           bra.b 0x52ab1a
│      │└─> 0x0052aafe      3010           move.w (a0), d0
│      │    0x0052ab00      48c0           ext.l d0
│      │    0x0052ab02      2200           move.l d0, d1
│      │    0x0052ab04      5281           addq.l 0x1, d1
│      │    0x0052ab06      3681           move.w d1, (a3)
│      │    0x0052ab08      322e0010       move.w 0x10(a6), d1
│      │    0x0052ab0c      48c1           ext.l d1
│      │    0x0052ab0e      2401           move.l d1, d2
│      │    0x0052ab10      5282           addq.l 0x1, d2
│      │    0x0052ab12      3882           move.w d2, (a4)
│      │    0x0052ab14      3d41fff2       move.w d1, -0xe(a6)
│      │    0x0052ab18      5380           subq.l 0x1, d0
│      └──> 0x0052ab1a      3d40ffe6       move.w d0, -0x1a(a6)
│           0x0052ab1e      3d41ffea       move.w d1, -0x16(a6)
│           0x0052ab22      3010           move.w (a0), d0
│           0x0052ab24      48c0           ext.l d0
│           0x0052ab26      322e0018       move.w 0x18(a6), d1
│           0x0052ab2a      48c1           ext.l d1
│           0x0052ab2c      d280           add.l d0, d1
│           0x0052ab2e      3412           move.w (a2), d2
│           0x0052ab30      48c2           ext.l d2
│           0x0052ab32      85fc0002       divs.w 0x2, d2
│           0x0052ab36      3f02           move.w d2, -(a7)
│           0x0052ab38      7e01           moveq 0x1, d7
│       ┌─> 0x0052ab3a      be57           cmp.w (a7), d7
│      ┌──< 0x0052ab3c      6e0000b0       bgt.w 0x52abee
│      │╎   0x0052ab40      4227           clr.b -(a7)
│      │╎   0x0052ab42      1f2e000a       move.b 0xa(a6), -(a7)
│      │╎   0x0052ab46      1f2e0008       move.b 0x8(a6), -(a7)
│      │╎   0x0052ab4a      2f2effe0       move.l -0x20(a6), -(a7)
│      │╎   0x0052ab4e      2f2efff4       move.l -0xc(a6), -(a7)
│      │╎   0x0052ab52      2f2efff0       move.l -0x10(a6), -(a7)
│      │╎   0x0052ab56      4eb900522722   jsr BRUSHCOM.str_any_str_cop
│      │╎   0x0052ab5c      defc0010       adda.w 0x10, a7
│      │╎   0x0052ab60      4217           clr.b (a7)
│      │╎   0x0052ab62      1f2e000a       move.b 0xa(a6), -(a7)
│      │╎   0x0052ab66      1f2e0008       move.b 0x8(a6), -(a7)
│      │╎   0x0052ab6a      2f2effe0       move.l -0x20(a6), -(a7)
│      │╎   0x0052ab6e      2f2efffc       move.l -0x4(a6), -(a7)
│      │╎   0x0052ab72      2f2efff8       move.l -0x8(a6), -(a7)
│      │╎   0x0052ab76      4eb900522722   jsr BRUSHCOM.str_any_str_cop
│      │╎   0x0052ab7c      defc0012       adda.w 0x12, a7
│      │╎   0x0052ab80      b06effe6       cmp.w -0x1a(a6), d0
│     ┌───< 0x0052ab84      6e2e           bgt.b 0x52abb4
│     ││╎   0x0052ab86      342effe6       move.w -0x1a(a6), d2
│     ││╎   0x0052ab8a      48c2           ext.l d2
│     ││╎   0x0052ab8c      b481           cmp.l d1, d2
│    ┌────< 0x0052ab8e      6c24           bge.b 0x52abb4
│    │││╎   0x0052ab90      4227           clr.b -(a7)
│    │││╎   0x0052ab92      1f2e000a       move.b 0xa(a6), -(a7)
│    │││╎   0x0052ab96      1f2e0008       move.b 0x8(a6), -(a7)
│    │││╎   0x0052ab9a      3f3c2000       move.w 0x2000, -(a7)
│    │││╎   0x0052ab9e      2f2effe4       move.l -0x1c(a6), -(a7)
│    │││╎   0x0052aba2      2f2effec       move.l -0x14(a6), -(a7)
│    │││╎   0x0052aba6      2f2effe8       move.l -0x18(a6), -(a7)
│    │││╎   0x0052abaa      4eb900523258   jsr BRUSHCOM.br_mix
│    │││╎   0x0052abb0      defc0014       adda.w 0x14, a7
│    └└───> 0x0052abb4      3413           move.w (a3), d2
│      │╎   0x0052abb6      48c2           ext.l d2
│      │╎   0x0052abb8      5482           addq.l 0x2, d2
│      │╎   0x0052abba      3682           move.w d2, (a3)
│      │╎   0x0052abbc      3414           move.w (a4), d2
│      │╎   0x0052abbe      48c2           ext.l d2
│      │╎   0x0052abc0      5482           addq.l 0x2, d2
│      │╎   0x0052abc2      3882           move.w d2, (a4)
│      │╎   0x0052abc4      342efff2       move.w -0xe(a6), d2
│      │╎   0x0052abc8      48c2           ext.l d2
│      │╎   0x0052abca      5482           addq.l 0x2, d2
│      │╎   0x0052abcc      3d42fff2       move.w d2, -0xe(a6)
│      │╎   0x0052abd0      342effe6       move.w -0x1a(a6), d2
│      │╎   0x0052abd4      48c2           ext.l d2
│      │╎   0x0052abd6      5482           addq.l 0x2, d2
│      │╎   0x0052abd8      3d42ffe6       move.w d2, -0x1a(a6)
│      │╎   0x0052abdc      342effea       move.w -0x16(a6), d2
│      │╎   0x0052abe0      48c2           ext.l d2
│      │╎   0x0052abe2      5482           addq.l 0x2, d2
│      │╎   0x0052abe4      3d42ffea       move.w d2, -0x16(a6)
│      │╎   0x0052abe8      5247           addq.w 0x1, d7
│      │└─< 0x0052abea      6800ff4e       bvc.w 0x52ab3a
│      └──> 0x0052abee      544f           addq.w 0x2, a7
│           0x0052abf0      4cdf1f9f       movem.l (a7)+, d0-d4/d7/a0-a4
│           0x0052abf4      4e5e           unlk a6
└           0x0052abf6      4e75           rts
            ; CALL XREF from MENUEFFECTCOM.do_hicon @ 0x73ebb2
            ; CALL XREFS from MENUEFFECTCOM.do_key @ 0x73fd34, 0x73fe1a, 0x73ff28
┌ 198: BRUSH2COM.br_key ();
│           0x0052abf8      4e56ffe8       link.w a6, 0xffe8
│           0x0052abfc      bfd5           cmpa.l (a5), a7
│       ┌─< 0x0052abfe      6206           bhi.b 0x52ac06
│       │   0x0052ac00      44fc0002       move.w 0x2, ccr
│       │   0x0052ac04      4e76           trapv
│       └─> 0x0052ac06      defc0018       adda.w 0x18, a7
│           0x0052ac0a      48e7c000       movem.l d0-d1, -(a7)
│           0x0052ac0e      7202           moveq 0x2, d1
│           0x0052ac10      4eb90051f298   jsr BRUSHCOM.brush_wait
│           0x0052ac16      10390083fbba   move.b 0x83fbba, d0
│           0x0052ac1c      b001           cmp.b d1, d0
│       ┌─< 0x0052ac1e      6618           bne.b 0x52ac38
│       │   0x0052ac20      48780002       pea.l 0x2
│       │   0x0052ac24      4eb90052b4e0   jsr t_integer
│       │   0x0052ac2a      584f           addq.w 0x4, a7
│       │   0x0052ac2c      48780000       pea.l 0x0
│       │   0x0052ac30      4eb90052b4e0   jsr t_integer
│       │   0x0052ac36      584f           addq.w 0x4, a7
│       └─> 0x0052ac38      4279fff80004   clr.w 0xfff80004
│           0x0052ac3e      4279fff8000e   clr.w 0xfff8000e
│           0x0052ac44      33fc000ffff8.  move.w 0xf, 0xfff80018.l
│           0x0052ac4c      2f2e0016       move.l 0x16(a6), -(a7)
│           0x0052ac50      3f3c0300       move.w 0x300, -(a7)
│           0x0052ac54      4eb900516b1a   jsr fcn.00516b1a
│           0x0052ac5a      5c4f           addq.w 0x6, a7
│           0x0052ac5c      33fc0008fff8.  move.w 0x8, 0xfff80018.l
│           0x0052ac64      1f3c0005       move.b 0x5, -(a7)
│           0x0052ac68      4eb900522436   jsr BRUSHCOM.set_write_en
│           0x0052ac6e      544f           addq.w 0x2, a7
│           0x0052ac70      102e0014       move.b 0x14(a6), d0
│           0x0052ac74      b001           cmp.b d1, d0
│       ┌─< 0x0052ac76      6606           bne.b 0x52ac7e
│       │   0x0052ac78      3f3c00da       move.w 0xda, -(a7)
│      ┌──< 0x0052ac7c      6004           bra.b 0x52ac82
│      │└─> 0x0052ac7e      3f3c00db       move.w 0xdb, -(a7)
│      └──> 0x0052ac82      4eb90051f362   jsr BRUSHCOM.b_setup_control
│           0x0052ac88      544f           addq.w 0x2, a7
│           0x0052ac8a      1f00           move.b d0, -(a7)
│           0x0052ac8c      2f2e000c       move.l 0xc(a6), -(a7)
│           0x0052ac90      2f2e0008       move.l 0x8(a6), -(a7)
│           0x0052ac94      4eb90051f826   jsr BRUSHCOM.b_dest_area
│           0x0052ac9a      504f           addq.w 0x8, a7
│           0x0052ac9c      4217           clr.b (a7)
│           0x0052ac9e      2f2e0010       move.l 0x10(a6), -(a7)
│           0x0052aca2      4eb90051f67c   jsr BRUSHCOM.b_source_pos
│           0x0052aca8      5c4f           addq.w 0x6, a7
│           0x0052acaa      4279fff9400a   clr.w 0xfff9400a
│           0x0052acb0      4279fff80000   clr.w 0xfff80000
│           0x0052acb6      4cdf0003       movem.l (a7)+, d0-d1
│           0x0052acba      4e5e           unlk a6
└           0x0052acbc      4e75           rts
            ; CALL XREF from MENUEFFECTCOM.do_colour @ 0x741928
┌ 228: BRUSH2COM.br_fettle ();
│           0x0052acbe      4e56ffe8       link.w a6, 0xffe8
│           0x0052acc2      bfd5           cmpa.l (a5), a7
│       ┌─< 0x0052acc4      6206           bhi.b 0x52accc
│       │   0x0052acc6      44fc0002       move.w 0x2, ccr
│       │   0x0052acca      4e76           trapv
│       └─> 0x0052accc      defc0018       adda.w 0x18, a7
│           0x0052acd0      48e7c000       movem.l d0-d1, -(a7)
│           0x0052acd4      7202           moveq 0x2, d1
│           0x0052acd6      4eb90051f298   jsr BRUSHCOM.brush_wait
│           0x0052acdc      10390083fbba   move.b 0x83fbba, d0
│           0x0052ace2      b001           cmp.b d1, d0
│       ┌─< 0x0052ace4      6618           bne.b 0x52acfe
│       │   0x0052ace6      48780002       pea.l 0x2
│       │   0x0052acea      4eb90052b4e0   jsr t_integer
│       │   0x0052acf0      584f           addq.w 0x4, a7
│       │   0x0052acf2      48780000       pea.l 0x0
│       │   0x0052acf6      4eb90052b4e0   jsr t_integer
│       │   0x0052acfc      584f           addq.w 0x4, a7
│       └─> 0x0052acfe      4279fff80004   clr.w 0xfff80004
│           0x0052ad04      4279fff8000e   clr.w 0xfff8000e
│           0x0052ad0a      33fc0011fff8.  move.w 0x11, 0xfff80018.l
│           0x0052ad12      2f2e0016       move.l 0x16(a6), -(a7)
│           0x0052ad16      3f3c0400       move.w 0x400, -(a7)
│           0x0052ad1a      4eb900516b1a   jsr fcn.00516b1a
│           0x0052ad20      5c4f           addq.w 0x6, a7
│           0x0052ad22      33fc0012fff8.  move.w 0x12, 0xfff80018.l
│           0x0052ad2a      2f2e0016       move.l 0x16(a6), -(a7)
│           0x0052ad2e      069700000800   addi.l 0x800, (a7)
│           0x0052ad34      3f3c0800       move.w 0x800, -(a7)
│           0x0052ad38      4eb900516b1a   jsr fcn.00516b1a
│           0x0052ad3e      5c4f           addq.w 0x6, a7
│           0x0052ad40      33fc0010fff8.  move.w 0x10, 0xfff80018.l
│           0x0052ad48      1f3c0005       move.b 0x5, -(a7)
│           0x0052ad4c      4eb900522436   jsr BRUSHCOM.set_write_en
│           0x0052ad52      544f           addq.w 0x2, a7
│           0x0052ad54      102e0014       move.b 0x14(a6), d0
│           0x0052ad58      b001           cmp.b d1, d0
│       ┌─< 0x0052ad5a      6606           bne.b 0x52ad62
│       │   0x0052ad5c      3f3c00dc       move.w 0xdc, -(a7)
│      ┌──< 0x0052ad60      6004           bra.b 0x52ad66
│      │└─> 0x0052ad62      3f3c00dd       move.w 0xdd, -(a7)
│      └──> 0x0052ad66      4eb90051f362   jsr BRUSHCOM.b_setup_control
│           0x0052ad6c      544f           addq.w 0x2, a7
│           0x0052ad6e      1f00           move.b d0, -(a7)
│           0x0052ad70      2f2e000c       move.l 0xc(a6), -(a7)
│           0x0052ad74      2f2e0008       move.l 0x8(a6), -(a7)
│           0x0052ad78      4eb90051f826   jsr BRUSHCOM.b_dest_area
│           0x0052ad7e      504f           addq.w 0x8, a7
│           0x0052ad80      4217           clr.b (a7)
│           0x0052ad82      2f2e0010       move.l 0x10(a6), -(a7)
│           0x0052ad86      4eb90051f67c   jsr BRUSHCOM.b_source_pos
│           0x0052ad8c      5c4f           addq.w 0x6, a7
│           0x0052ad8e      4279fff9400a   clr.w 0xfff9400a
│           0x0052ad94      4279fff80000   clr.w 0xfff80000
│           0x0052ad9a      4cdf0003       movem.l (a7)+, d0-d1
│           0x0052ad9e      4e5e           unlk a6
└           0x0052ada0      4e75           rts
            ; CALL XREF from MENUPASTECOM.men_pasteup_box @ 0x4b58a2
            ; CALL XREF from MENUPOS2DCOM.menupos2d_init @ 0x4bc116
            ; CALL XREF from PASTECOM.paste_init @ 0x678528
┌ 30: BRUSH2COM.br_size_card ();
│           0x0052ada2      4e56fffc       link.w a6, 0xfffc
│           0x0052ada6      bfd5           cmpa.l (a5), a7
│       ┌─< 0x0052ada8      6206           bhi.b 0x52adb0
│       │   0x0052adaa      44fc0002       move.w 0x2, ccr
│       │   0x0052adae      4e76           trapv
│       └─> 0x0052adb0      defc0004       adda.w 0x4, a7
│           0x0052adb4      1d790083fbba.  move.b 0x83fbba, 0x8(a6)
│           0x0052adbc      4e5e           unlk a6
└           0x0052adbe      4e75           rts
┌ 60: BRUSH2COM.br_hw_size_card ();
│           0x0052adc0      4e56fff6       link.w a6, 0xfff6
│           0x0052adc4      bfd5           cmpa.l (a5), a7
│       ┌─< 0x0052adc6      6206           bhi.b 0x52adce
│       │   0x0052adc8      44fc0002       move.w 0x2, ccr
│       │   0x0052adcc      4e76           trapv
│       └─> 0x0052adce      defc000a       adda.w 0xa, a7
│           0x0052add2      48e78000       movem.l d0, -(a7)
│           0x0052add6      4279fff9400e   clr.w 0xfff9400e
│           0x0052addc      3039fff9400e   move.w 0xfff9400e, d0
│           0x0052ade2      02800000ffff   andi.l 0xffff, d0
│           0x0052ade8      028000000003   andi.l 0x3, d0
│           0x0052adee      1f00           move.b d0, -(a7)
│           0x0052adf0      1d5f0008       move.b (a7)+, 0x8(a6)
│           0x0052adf4      4cdf0001       movem.l (a7)+, d0
│           0x0052adf8      4e5e           unlk a6
└           0x0052adfa      4e75           rts
            ; CALL XREF from MENUARTISTCOM.aspect_changed @ 0x4e0afa
            ; CALL XREF from BRUSH2COM.brush2_init @ 0x52b30c
┌ 24: BRUSH2COM.init_br2_areas ();
│           0x0052adfc      4e56ffd0       link.w a6, 0xffd0
│           0x0052ae00      bfd5           cmpa.l (a5), a7
│       ┌─< 0x0052ae02      6206           bhi.b 0x52ae0a
│       │   0x0052ae04      44fc0002       move.w 0x2, ccr
│       │   0x0052ae08      4e76           trapv
│       └─> 0x0052ae0a      defc002c       adda.w 0x2c, a7
│           0x0052ae0e      48e7f0c0       movem.l d0-d3/a0-a1, -(a7)
│           0x0052ae12      f227e001       fmovem fp0, -(a7)
            0x0052ae16      41f900633e18   lea.l HANDCOM.get_subpixel, a0
            0x0052ae1c      43f900633e68   lea.l HANDCOM.get_subline, a1
            0x0052ae22      7408           moveq 0x8, d2
            0x0052ae24      7601           moveq 0x1, d3
            0x0052ae26      594f           subq.w 0x4, a7
            0x0052ae28      4e90           jsr (a0)                    ; fcn.00000009
            0x0052ae2a      f2024000       fmove.l d2, fp0
            0x0052ae2e      f21f4420       fdiv.s (a7)+, fp0
            0x0052ae32      f23964000083.  fmove.s fp0, 0x83fbf8
            0x0052ae3a      594f           subq.w 0x4, a7
            0x0052ae3c      4e90           jsr (a0)                    ; fcn.00000009
            0x0052ae3e      23d70083fbec   move.l (a7), 0x83fbec
            0x0052ae44      4e90           jsr (a0)                    ; fcn.00000009
            0x0052ae46      f21f4400       fmove.s (a7)+, fp0
            0x0052ae4a      f2024020       fdiv.l d2, fp0
            0x0052ae4e      f23964000083.  fmove.s fp0, 0x83fbf0
            0x0052ae56      594f           subq.w 0x4, a7
            0x0052ae58      4e90           jsr (a0)                    ; fcn.00000009
            0x0052ae5a      f2034000       fmove.l d3, fp0
            0x0052ae5e      f21f4420       fdiv.s (a7)+, fp0
            0x0052ae62      f23964000083.  fmove.s fp0, 0x83fbf4
            0x0052ae6a      594f           subq.w 0x4, a7
            0x0052ae6c      4e91           jsr (a1)                    ; fcn.0000000a
            0x0052ae6e      f2024000       fmove.l d2, fp0
            0x0052ae72      f21f4420       fdiv.s (a7)+, fp0
            0x0052ae76      f23964000083.  fmove.s fp0, 0x83fbe8
            0x0052ae7e      594f           subq.w 0x4, a7
            0x0052ae80      4e91           jsr (a1)                    ; fcn.0000000a
            0x0052ae82      23d70083fbe0   move.l (a7), 0x83fbe0
            0x0052ae88      4e91           jsr (a1)                    ; fcn.0000000a
            0x0052ae8a      f2034000       fmove.l d3, fp0
            0x0052ae8e      f21f4420       fdiv.s (a7)+, fp0
            0x0052ae92      f23964000083.  fmove.s fp0, 0x83fbe4
            0x0052ae9a      594f           subq.w 0x4, a7
            0x0052ae9c      4eb900633bb2   jsr HANDCOM.get_pixel_aspec
            0x0052aea2      2d5ffffc       move.l (a7)+, -0x4(a6)
            0x0052aea6      302efffc       move.w -0x4(a6), d0
            0x0052aeaa      48c0           ext.l d0
            0x0052aeac      322efffe       move.w -0x2(a6), d1
            0x0052aeb0      48c1           ext.l d1
            0x0052aeb2      f2004000       fmove.l d0, fp0
            0x0052aeb6      f2014020       fdiv.l d1, fp0
            0x0052aeba      f23964000083.  fmove.s fp0, 0x83fbdc
            0x0052aec2      f21fd080       fmovem (a7)+, fp0
            0x0052aec6      4cdf030f       movem.l (a7)+, d0-d3/a0-a1
            0x0052aeca      4e5e           unlk a6
            0x0052aecc      4e75           rts
┌ 206: BRUSH2COM.image_command ();
│           ; var int32_t var_16h @ a7+0x16
│           ; var int32_t var_1ah @ a7+0x1a
│           ; var int32_t var_1eh @ a7+0x1e
│           ; var int32_t var_22h @ a7+0x22
│           0x0052aece      4e56fca6       link.w a6, 0xfca6
│           0x0052aed2      bfd5           cmpa.l (a5), a7
│       ┌─< 0x0052aed4      6206           bhi.b 0x52aedc
│       │   0x0052aed6      44fc0002       move.w 0x2, ccr
│       │   0x0052aeda      4e76           trapv
│       └─> 0x0052aedc      defc015a       adda.w 0x15a, a7
│           0x0052aee0      48e7f0f0       movem.l d0-d3/a0-a3, -(a7)
│           0x0052aee4      45f9004047ea   lea.l p_wts_o, a2
│           0x0052aeea      47eefe00       lea.l -0x200(a6), a3
│           0x0052aeee      720c           moveq 0xc, d1
│           0x0052aef0      7410           moveq 0x10, d2
│           0x0052aef2      7604           moveq 0x4, d3
│           0x0052aef4      204b           movea.l a3, a0
│           0x0052aef6      43fab930       lea.l 0x526828(pc), a1
│           0x0052aefa      7008           moveq 0x8, d0
│       ┌─> 0x0052aefc      20d9           move.l (a1)+, (a0)+
│       └─< 0x0052aefe      51c8fffc       dbra d0, 0x52aefc
│           0x0052af02      30d9           move.w (a1)+, (a0)+
│           0x0052af04      10d9           move.b (a1)+, (a0)+
│           0x0052af06      554f           subq.w 0x2, a7
│           0x0052af08      4eb90043cc02   jsr G1_INPUT.g_end_of_line
│           0x0052af0e      4a1f           tst.b (a7)+
│       ┌─< 0x0052af10      671a           beq.b 0x52af2c
│       │   0x0052af12      486efe01       pea.l -0x1ff(a6)
│       │   0x0052af16      42a7           clr.l -(a7)
│       │   0x0052af18      1f530003       move.b (a3), 0x3(a7)
│       │   0x0052af1c      2f17           move.l (a7), -(a7)
│       │   0x0052af1e      4e92           jsr (a2)                    ; fcn.00000009+0x2
│       │   0x0052af20      dec1           adda.w d1, a7
│       │   0x0052af22      4eb900404946   jsr p_wtln_o
│      ┌──< 0x0052af28      600001b4       bra.w loc.0052b0de
│      │└─> 0x0052af2c      9efc0100       suba.w 0x100, a7
│      │    0x0052af30      204f           movea.l a7, a0
│      │    0x0052af32      224b           movea.l a3, a1
│      │    0x0052af34      703f           moveq 0x3f, d0
│      │┌─> 0x0052af36      20d9           move.l (a1)+, (a0)+
│      │└─< 0x0052af38      51c8fffc       dbra d0, 0x52af36
│      │    0x0052af3c      9efc0012       suba.w 0x12, a7
│      │    0x0052af40      4eb90043cefe   jsr G1_INPUT.g_name
│      │    0x0052af46      9efc000e       suba.w 0xe, a7
│      │    0x0052af4a      2f2f000e       move.l 0xe(a7), -(a7)
│      │    0x0052af4e      2f6f00160004   move.l 0x16(a7), 0x4(a7)
│      │    0x0052af54      2f6f001a0008   move.l 0x1a(a7), 0x8(a7)
│      │    0x0052af5a      2f6f001e000c   move.l 0x1e(a7), 0xc(a7)
│      │    0x0052af60      1f6f00220010   move.b 0x22(a7), 0x10(a7)
│      │    0x0052af66      554f           subq.w 0x2, a7
│      │    0x0052af68      486f0026       pea.l 0x26(a7)
│      │    0x0052af6c      4267           clr.w -(a7)
│      │    0x0052af6e      3f3c00ff       move.w 0xff, -(a7)
│      │    0x0052af72      486f000a       pea.l 0xa(a7)
│      │    0x0052af76      4267           clr.w -(a7)
│      │    0x0052af78      3f02           move.w d2, -(a7)
│      │    0x0052af7a      4eb9004401ac   jsr G4_LEXICAL.g_compare
│      │    0x0052af80      dec2           adda.w d2, a7
│      │    0x0052af82      301f           move.w (a7)+, d0
│      │    0x0052af84      defc0124       adda.w 0x124, a7
│      │    0x0052af88      5340           subq.w 0x1, d0
│      │    0x0052af8a      0c400006       cmpi.w 0x6, d0
│      │┌─< 0x0052af8e      6200014e       bhi.w loc.0052b0de
│      ││   0x0052af92      d040           add.w d0, d0
│      ││   0x0052af94      303b0006       move.w 0x52af9c(pc, d0.w), d0
└      ││   0x0052af98      4efb0002       jmp 0x52af9c(pc, d0.w)
       ││   0x0052af9c      000e00c8       
       ││   0x0052af9d      0e00c800       
       ││   0x0052af9e      00c800f0       
       ││   0x0052af9f      c800           and.b d0, d4
       ││   0x0052afa1      f0010801       fint fp2, fp0
       ││   0x0052afa5      2201           move.l d1, d1
       ││   0x0052afa7      3001           move.w d1, d0
       ││   0x0052afa9      3e55           movea.w (a5), a7
       ││   0x0052afab      4f4eb900       
       ││   0x0052afac      4eb90052bebc   jsr t_image_init
       ││   0x0052afb2      4a1f           tst.b (a7)+
      ┌───< 0x0052afb4      67000098       beq.w 0x52b04e
      │││   0x0052afb8      487ab896       pea.l 0x526850(pc)
      │││   0x0052afbc      48780011       pea.l 0x11
      │││   0x0052afc0      2f17           move.l (a7), -(a7)
      │││   0x0052afc2      4e92           jsr (a2)                    ; fcn.00000009+0x2
      │││   0x0052afc4      dec1           adda.w d1, a7
      │││   0x0052afc6      4eb90043cbc8   jsr G1_INPUT.g_skip_spaces
      │││   0x0052afcc      554f           subq.w 0x2, a7
      │││   0x0052afce      4eb90043cc02   jsr G1_INPUT.g_end_of_line
      │││   0x0052afd4      4a1f           tst.b (a7)+
     ┌────< 0x0052afd6      6706           beq.b 0x52afde
     ││││   0x0052afd8      487800dc       pea.l 0xdc
    ┌─────< 0x0052afdc      6012           bra.b 0x52aff0
    │└────> 0x0052afde      594f           subq.w 0x4, a7
    │ │││   0x0052afe0      48780001       pea.l 0x1
    │ │││   0x0052afe4      487803e7       pea.l 0x3e7
    │ │││   0x0052afe8      4eb90043e376   jsr G2_EXPRESSION.g_number
    │ │││   0x0052afee      504f           addq.w 0x8, a7
    └─────> 0x0052aff0      4eb900402e42   jsr p_Delay
      │││   0x0052aff6      584f           addq.w 0x4, a7
      │││   0x0052aff8      4eb90052b5d0   jsr t_flush
      │││   0x0052affe      48780005       pea.l 0x5
      │││   0x0052b002      4eb90052b4e0   jsr t_integer
      │││   0x0052b008      544f           addq.w 0x2, a7
      │││   0x0052b00a      486eff00       pea.l -0x100(a6)
      │││   0x0052b00e      4eb90052b70a   jsr t_get_string
      │││   0x0052b014      584f           addq.w 0x4, a7
      │││   0x0052b016      4a1f           tst.b (a7)+
     ┌────< 0x0052b018      672a           beq.b 0x52b044
     ││││   0x0052b01a      487ab846       pea.l 0x526862(pc)
     ││││   0x0052b01e      48780002       pea.l 0x2
     ││││   0x0052b022      2f17           move.l (a7), -(a7)
     ││││   0x0052b024      4e92           jsr (a2)                    ; fcn.00000009+0x2
     ││││   0x0052b026      dec1           adda.w d1, a7
     ││││   0x0052b028      486eff01       pea.l -0xff(a6)
     ││││   0x0052b02c      42a7           clr.l -(a7)
     ││││   0x0052b02e      1f6eff000003   move.b -0x100(a6), 0x3(a7)
     ││││   0x0052b034      2f17           move.l (a7), -(a7)
     ││││   0x0052b036      4e92           jsr (a2)                    ; fcn.00000009+0x2
     ││││   0x0052b038      dec1           adda.w d1, a7
     ││││   0x0052b03a      487ab829       pea.l 0x526865(pc)
     ││││   0x0052b03e      4878000a       pea.l 0xa
    ┌─────< 0x0052b042      6012           bra.b 0x52b056
    │└────> 0x0052b044      487ab82a       pea.l 0x526870(pc)
    │ │││   0x0052b048      48780012       pea.l 0x12
    │┌────< 0x0052b04c      6008           bra.b 0x52b056
    ││└───> 0x0052b04e      487ab833       pea.l 0x526883(pc)
    ││ ││   0x0052b052      48780016       pea.l 0x16
    └└────> 0x0052b056      2f17           move.l (a7), -(a7)
       ││   0x0052b058      4e92           jsr (a2)                    ; fcn.00000009+0x2
       ││   0x0052b05a      dec1           adda.w d1, a7
       ││   0x0052b05c      4eb900404946   jsr p_wtln_o
      ┌───< 0x0052b062      607a           bra.b loc.0052b0de
      │││   0x0052b064      1f3c0003       move.b 0x3, -(a7)
      │││   0x0052b068      514f           subq.w 0x8, a7
      │││   0x0052b06a      4227           clr.b -(a7)
      │││   0x0052b06c      4eb9006336ea   jsr HANDCOM.get_area
      │││   0x0052b072      544f           addq.w 0x2, a7
      │││   0x0052b074      48780000       pea.l 0x0
      │││   0x0052b078      2f3ab820       move.l 0x52689a(pc), -(a7)
    ┌┌────> 0x0052b07c      3f3c02d0       move.w 0x2d0, -(a7)
    ╎╎│││   0x0052b080      4eb9005202e4   jsr BRUSHCOM.br_image
    ╎╎│││   0x0052b086      defc0014       adda.w 0x14, a7
   ┌──────< 0x0052b08a      6052           bra.b loc.0052b0de
   │╎╎│││   0x0052b08c      1f03           move.b d3, -(a7)
   │╎╎│││   0x0052b08e      514f           subq.w 0x8, a7
   │╎╎│││   0x0052b090      4227           clr.b -(a7)
   │╎╎│││   0x0052b092      4eb9006336ea   jsr HANDCOM.get_area
   │╎╎│││   0x0052b098      544f           addq.w 0x2, a7
   │╎╎│││   0x0052b09a      48780000       pea.l 0x0
   │╎╎│││   0x0052b09e      2f3ab7fe       move.l 0x52689e(pc), -(a7)
   │└─────< 0x0052b0a2      60d8           bra.b 0x52b07c
   │ ╎│││   0x0052b0a4      1f03           move.b d3, -(a7)
   │ ╎│││   0x0052b0a6      514f           subq.w 0x8, a7
   │ ╎│││   0x0052b0a8      4227           clr.b -(a7)
   │ ╎│││   0x0052b0aa      4eb9006336ea   jsr HANDCOM.get_area
   │ ╎│││   0x0052b0b0      544f           addq.w 0x2, a7
   │ ╎│││   0x0052b0b2      2f390083fcf4   move.l 0x83fcf4, -(a7)
   │ ╎│││   0x0052b0b8      2f3ab7e8       move.l 0x5268a2(pc), -(a7)
   │ └────< 0x0052b0bc      60be           bra.b 0x52b07c
   │  │││   0x0052b0be      44390083fcf8   neg.b 0x83fcf8
   │  │││   0x0052b0c4      52390083fcf8   addq.b 0x1, 0x83fcf8.l
   │ ┌────< 0x0052b0ca      6012           bra.b loc.0052b0de
   │ ││││   0x0052b0cc      44390083fcf9   neg.b 0x83fcf9
   │ ││││   0x0052b0d2      52390083fcf9   addq.b 0x1, 0x83fcf9.l
   │┌─────< 0x0052b0d8      6004           bra.b loc.0052b0de
   ││││││   0x0052b0da      4ebab8fa       jsr BRUSH2COM.show_src_image(pc)
   ││││││   ; CODE XREF from BRUSH2COM.image_command @ 0x52af28
├ 8: loc.0052b0de ();
│  └└└└└└─> 0x0052b0de      4cdf0f0f       movem.l (a7)+, d0-d3/a0-a3
│           0x0052b0e2      4e5e           unlk a6
└           0x0052b0e4      4e75           rts
┌ 176: BRUSH2COM.filt_points ();
│           0x0052b0e6      4e56ffaa       link.w a6, 0xffaa
│           0x0052b0ea      bfd5           cmpa.l (a5), a7
│       ┌─< 0x0052b0ec      6206           bhi.b 0x52b0f4
│       │   0x0052b0ee      44fc0002       move.w 0x2, ccr
│       │   0x0052b0f2      4e76           trapv
│       └─> 0x0052b0f4      defc0038       adda.w 0x38, a7
│           0x0052b0f8      48e7ffc0       movem.l d0-d7/a0-a1, -(a7)
│           0x0052b0fc      43eefffe       lea.l -0x2(a6), a1
│           0x0052b100      3d7c00b0fff6   move.w 0xb0, -0xa(a6)
│           0x0052b106      3d7c0011fff8   move.w 0x11, -0x8(a6)
│           0x0052b10c      3d7c0012fffa   move.w 0x12, -0x6(a6)
│           0x0052b112      3d7c0013fffc   move.w 0x13, -0x4(a6)
│           0x0052b118      7a00           moveq 0x0, d5
│           0x0052b11a      7000           moveq 0x0, d0
│       ┌─> 0x0052b11c      1280           move.b d0, (a1)
│       ╎   0x0052b11e      7200           moveq 0x0, d1
│      ┌──> 0x0052b120      1d41ffff       move.b d1, -0x1(a6)
│      ╎╎   0x0052b124      7400           moveq 0x0, d2
│     ┌───> 0x0052b126      2d42ffee       move.l d2, -0x12(a6)
│     ╎╎╎   0x0052b12a      7640           moveq 0x40, d3
│     ╎╎╎   0x0052b12c      9682           sub.l d2, d3
│     ╎╎╎   0x0052b12e      2f03           move.l d3, -(a7)
│     ╎╎╎   0x0052b130      7800           moveq 0x0, d4
│    ┌────> 0x0052b132      2d44ffe6       move.l d4, -0x1a(a6)
│    ╎╎╎╎   0x0052b136      4a01           tst.b d1
│   ┌─────< 0x0052b138      6704           beq.b 0x52b13e
│   │╎╎╎╎   0x0052b13a      2e03           move.l d3, d7
│  ┌──────< 0x0052b13c      6002           bra.b 0x52b140
│  │└─────> 0x0052b13e      2e02           move.l d2, d7
│  └──────> 0x0052b140      4a00           tst.b d0
│   ┌─────< 0x0052b142      6706           beq.b 0x52b14a
│   │╎╎╎╎   0x0052b144      2e3c000002ee   move.l 0x2ee, d7
│   └─────> 0x0052b14a      4a84           tst.l d4
│   ┌─────< 0x0052b14c      6604           bne.b 0x52b152
│   │╎╎╎╎   0x0052b14e      7cc0           moveq 0xc0, d6
│  ┌──────< 0x0052b150      6022           bra.b 0x52b174
│  │└─────> 0x0052b152      0c8400000001   cmpi.l 0x1, d4
│  │┌─────< 0x0052b158      6604           bne.b 0x52b15e
│  ││╎╎╎╎   0x0052b15a      7ce0           moveq 0xe0, d6
│ ┌───────< 0x0052b15c      6016           bra.b 0x52b174
│ ││└─────> 0x0052b15e      0c8400000002   cmpi.l 0x2, d4
│ ││┌─────< 0x0052b164      6604           bne.b 0x52b16a
│ │││╎╎╎╎   0x0052b166      7c20           moveq 0x20, d6
│ ────────< 0x0052b168      600a           bra.b 0x52b174
│ ││└─────> 0x0052b16a      0c8400000003   cmpi.l 0x3, d4
│ ││┌─────< 0x0052b170      6602           bne.b 0x52b174
│ │││╎╎╎╎   0x0052b172      7c40           moveq 0x40, d6
│ └└└─────> 0x0052b174      0c870000000b   cmpi.l 0xb, d7
│   ┌─────< 0x0052b17a      6c10           bge.b 0x52b18c
│   │╎╎╎╎   0x0052b17c      41f900000000   lea.l 0x0, a0
│   │╎╎╎╎   0x0052b182      31aefff65b30.  move.w -0xa(a6), 0xfff95000(a0, d5.l * 2)
│   └─────> 0x0052b18c      263c00000206   move.l 0x206, d3
│    ╎╎╎╎   0x0052b192      d686           add.l d6, d3
│    ╎╎╎╎   0x0052b194      4c7c38030000.  divs.l 0x20, d3
     ╎╎╎╎   0x0052b19c      2f03           move.l d3, -(a7)
     ╎╎╎╎   0x0052b19e      0c870000000b   cmpi.l 0xb, d7
    ┌─────< 0x0052b1a4      6d14           blt.b 0x52b1ba
    │╎╎╎╎   0x0052b1a6      be83           cmp.l d3, d7
   ┌──────< 0x0052b1a8      6c10           bge.b 0x52b1ba
   ││╎╎╎╎   0x0052b1aa      41f900000000   lea.l 0x0, a0
   ││╎╎╎╎   0x0052b1b0      31aefff85b30.  move.w -0x8(a6), 0xfff95000(a0, d5.l * 2)
   └└─────> 0x0052b1ba      263c0000028b   move.l 0x28b, d3
     ╎╎╎╎   0x0052b1c0      d686           add.l d6, d3
     ╎╎╎╎   0x0052b1c2      4c7c38030000.  divs.l 0x20, d3
     ╎╎╎╎   0x0052b1ca      2017           move.l (a7), d0
     ╎╎╎╎   0x0052b1cc      be80           cmp.l d0, d7
    ┌─────< 0x0052b1ce      6d14           blt.b 0x52b1e4
    │╎╎╎╎   0x0052b1d0      be83           cmp.l d3, d7
   ┌──────< 0x0052b1d2      6c10           bge.b 0x52b1e4
   ││╎╎╎╎   0x0052b1d4      41f900000000   lea.l 0x0, a0
   ││╎╎╎╎   0x0052b1da      31aefffa5b30.  move.w -0x6(a6), 0xfff95000(a0, d5.l * 2)
   └└─────> 0x0052b1e4      be83           cmp.l d3, d7
    ┌─────< 0x0052b1e6      6d10           blt.b 0x52b1f8
    │╎╎╎╎   0x0052b1e8      41f900000000   lea.l 0x0, a0
    │╎╎╎╎   0x0052b1ee      31aefffc5b30.  move.w -0x4(a6), 0xfff95000(a0, d5.l * 2)
    └─────> 0x0052b1f8      584f           addq.w 0x4, a7
     ╎╎╎╎   0x0052b1fa      5285           addq.l 0x1, d5
     ╎╎╎╎   0x0052b1fc      1011           move.b (a1), d0
     ╎╎╎╎   0x0052b1fe      2617           move.l (a7), d3
     ╎╎╎╎   0x0052b200      5284           addq.l 0x1, d4
     ╎╎╎╎   0x0052b202      0c8400000003   cmpi.l 0x3, d4
     └────< 0x0052b208      6f00ff28       ble.w 0x52b132              ; BRUSH2COM.filt_points+0x4c
      ╎╎╎   0x0052b20c      584f           addq.w 0x4, a7
      ╎╎╎   0x0052b20e      1011           move.b (a1), d0
      ╎╎╎   0x0052b210      5282           addq.l 0x1, d2
      ╎╎╎   0x0052b212      0c820000003f   cmpi.l 0x3f, d2
      └───< 0x0052b218      6f00ff0c       ble.w 0x52b126              ; BRUSH2COM.filt_points+0x40
       ╎╎   0x0052b21c      1011           move.b (a1), d0
       ╎╎   0x0052b21e      5201           addq.b 0x1, d1
       ╎╎   0x0052b220      0c010001       cmpi.b 0x1, d1
       └──< 0x0052b224      6f00fefa       ble.w 0x52b120              ; BRUSH2COM.filt_points+0x3a
        ╎   0x0052b228      1011           move.b (a1), d0
        ╎   0x0052b22a      5200           addq.b 0x1, d0
        ╎   0x0052b22c      0c000001       cmpi.b 0x1, d0
        └─< 0x0052b230      6f00feea       ble.w 0x52b11c              ; BRUSH2COM.filt_points+0x36
            0x0052b234      4cdf03ff       movem.l (a7)+, d0-d7/a0-a1
            0x0052b238      4e5e           unlk a6
            0x0052b23a      4e75           rts
            ; CALL XREF from MAVIS_PAINT.cleanup_system @ 0x6d28aa
            ; CALL XREF from MAVIS_PAINT.mavis_dpb_mainp @ 0x6d2e8a
┌ 240: BRUSH2COM.brush2_init ();
│           0x0052b23c      4e56fe96       link.w a6, 0xfe96
│           0x0052b240      bfd5           cmpa.l (a5), a7
│       ┌─< 0x0052b242      6206           bhi.b 0x52b24a
│       │   0x0052b244      44fc0002       move.w 0x2, ccr
│       │   0x0052b248      4e76           trapv
│       └─> 0x0052b24a      defc0050       adda.w 0x50, a7
│           0x0052b24e      48e7f9f0       movem.l d0-d4/d7/a0-a3, -(a7)
│           0x0052b252      45f9004047ea   lea.l p_wts_o, a2
│           0x0052b258      47f900404946   lea.l p_wtln_o, a3
│           0x0052b25e      720c           moveq 0xc, d1
│           0x0052b260      7401           moveq 0x1, d2
│           0x0052b262      760f           moveq 0xf, d3
│           0x0052b264      7808           moveq 0x8, d4
│           0x0052b266      42390083fcf8   clr.b 0x83fcf8
│           0x0052b26c      42390083fcf9   clr.b 0x83fcf9
│           0x0052b272      42390083fcee   clr.b 0x83fcee
│           0x0052b278      4279fff9400e   clr.w 0xfff9400e
│           0x0052b27e      3e39fff9400e   move.w 0xfff9400e, d7
│           0x0052b284      02870000ffff   andi.l 0xffff, d7
│           0x0052b28a      2007           move.l d7, d0
│           0x0052b28c      028000000003   andi.l 0x3, d0
│           0x0052b292      1f00           move.b d0, -(a7)
│           0x0052b294      13df0083fbba   move.b (a7)+, 0x83fbba
│           0x0052b29a      4a2e0008       tst.b 0x8(a6)
│       ┌─< 0x0052b29e      6740           beq.b 0x52b2e0
│       │   0x0052b2a0      487ab605       pea.l 0x5268a7(pc)
│       │   0x0052b2a4      48780012       pea.l 0x12
│       │   0x0052b2a8      2f17           move.l (a7), -(a7)
│       │   0x0052b2aa      4e92           jsr (a2)                    ; fcn.00000009+0x2
│       │   0x0052b2ac      dec1           adda.w d1, a7
│       │   0x0052b2ae      7e00           moveq 0x0, d7
│      ┌──> 0x0052b2b0      48c7           ext.l d7
│      ╎│   0x0052b2b2      2f07           move.l d7, -(a7)
│      ╎│   0x0052b2b4      48780003       pea.l 0x3
│      ╎│   0x0052b2b8      4eb9004070e4   jsr p_wti_o
│      ╎│   0x0052b2be      504f           addq.w 0x8, a7
│      ╎│   0x0052b2c0      486d0010       pea.l 0x10(a5)
│      ╎│   0x0052b2c4      4eb90040497e   jsr p_break
│      ╎│   0x0052b2ca      544f           addq.w 0x2, a7
│      ╎│   0x0052b2cc      3e87           move.w d7, (a7)
│      ╎│   0x0052b2ce      1f02           move.b d2, -(a7)
│      ╎│   0x0052b2d0      4ebaebe6       jsr BRUSH2COM.br_create_filte(pc)
│      ╎│   0x0052b2d4      584f           addq.w 0x4, a7
│      ╎│   0x0052b2d6      5247           addq.w 0x1, d7
│      ╎│   0x0052b2d8      be43           cmp.w d3, d7
│      └──< 0x0052b2da      6fd4           ble.b 0x52b2b0
│       │   0x0052b2dc      4e93           jsr (a3)                    ; fcn.0000000c
│      ┌──< 0x0052b2de      601c           bra.b 0x52b2fc
│      │└─> 0x0052b2e0      41f90083fbbc   lea.l 0x83fbbc, a0
│      │    0x0052b2e6      43fab500       lea.l 0x5267e8(pc), a1
│      │    0x0052b2ea      7007           moveq 0x7, d0
│      │┌─> 0x0052b2ec      20d9           move.l (a1)+, (a0)+
│      │└─< 0x0052b2ee      51c8fffc       dbra d0, 0x52b2ec
│      │    0x0052b2f2      3f03           move.w d3, -(a7)
│      │    0x0052b2f4      4227           clr.b -(a7)
│      │    0x0052b2f6      4ebaebc0       jsr BRUSH2COM.br_create_filte(pc)
│      │    0x0052b2fa      584f           addq.w 0x4, a7
│      └──> 0x0052b2fc      514f           subq.w 0x8, a7
│           0x0052b2fe      4eb9006339f2   jsr HANDCOM.get_picture_are
│           0x0052b304      2d5ffef0       move.l (a7)+, -0x110(a6)
│           0x0052b308      2d5ffef4       move.l (a7)+, -0x10c(a6)
│           0x0052b30c      4ebafaee       jsr BRUSH2COM.init_br2_areas(pc)
│           0x0052b310      10390083fbba   move.b 0x83fbba, d0
│           0x0052b316      4880           ext.w d0
│           0x0052b318      5340           subq.w 0x1, d0
│           0x0052b31a      0c400002       cmpi.w 0x2, d0
│       ┌─< 0x0052b31e      6200019c       bhi.w 0x52b4bc
│       │   0x0052b322      d040           add.w d0, d0
│       │   0x0052b324      303b0006       move.w 0x52b32c(pc, d0.w), d0
└       │   0x0052b328      4efb0002       jmp 0x52b32c(pc, d0.w)
        │   0x0052b32c      00060024       ori.b 0x24, d6
        │   0x0052b330      008c33c4       
        │   0x0052b331      8c33c4ff       or.b -0x1(a3, a4.w), d6
        │   0x0052b335      f940           invalid
        │   0x0052b337      0a4ebafd       
        │   0x0052b338      4ebafdac       jsr BRUSH2COM.filt_points(pc)
        │   0x0052b33c      487ab57c       pea.l 0x5268ba(pc)
        │   0x0052b340      48780011       pea.l 0x11
        │   0x0052b344      2f17           move.l (a7), -(a7)
        │   0x0052b346      4e92           jsr (a2)                    ; fcn.00000009+0x2
        │   0x0052b348      dec1           adda.w d1, a7
        │   0x0052b34a      4e93           jsr (a3)                    ; fcn.0000000c
       ┌──< 0x0052b34c      6000016e       bra.w 0x52b4bc
       ││   0x0052b350      554f           subq.w 0x2, a7
       ││   0x0052b352      4eb90052be36   jsr t_init
       ││   0x0052b358      4a1f           tst.b (a7)+
      ┌───< 0x0052b35a      6748           beq.b 0x52b3a4
      │││   0x0052b35c      4eb90052b5d0   jsr t_flush
      │││   0x0052b362      48780005       pea.l 0x5
      │││   0x0052b366      4eb90052b4e0   jsr t_integer
      │││   0x0052b36c      544f           addq.w 0x2, a7
      │││   0x0052b36e      486efef8       pea.l -0x108(a6)
      │││   0x0052b372      4eb90052b70a   jsr t_get_string
      │││   0x0052b378      584f           addq.w 0x4, a7
      │││   0x0052b37a      4a1f           tst.b (a7)+
     ┌────< 0x0052b37c      671c           beq.b 0x52b39a
     ││││   0x0052b37e      486efef9       pea.l -0x107(a6)
     ││││   0x0052b382      42a7           clr.l -(a7)
     ││││   0x0052b384      1f6efef80003   move.b -0x108(a6), 0x3(a7)
     ││││   0x0052b38a      2f17           move.l (a7), -(a7)
     ││││   0x0052b38c      4e92           jsr (a2)                    ; fcn.00000009+0x2
     ││││   0x0052b38e      dec1           adda.w d1, a7
     ││││   0x0052b390      487ab53a       pea.l 0x5268cc(pc)
     ││││   0x0052b394      4878000a       pea.l 0xa
    ┌─────< 0x0052b398      6012           bra.b 0x52b3ac
    │└────> 0x0052b39a      487ab53b       pea.l 0x5268d7(pc)
    │ │││   0x0052b39e      48780029       pea.l 0x29
    │┌────< 0x0052b3a2      6008           bra.b 0x52b3ac
    ││└───> 0x0052b3a4      487ab55b       pea.l 0x526901(pc)
    ││ ││   0x0052b3a8      4878001a       pea.l 0x1a
    └└────> 0x0052b3ac      2f17           move.l (a7), -(a7)
       ││   0x0052b3ae      4e92           jsr (a2)                    ; fcn.00000009+0x2
       ││   0x0052b3b0      dec1           adda.w d1, a7
       ││   0x0052b3b2      4e93           jsr (a3)                    ; fcn.0000000c
      ┌───< 0x0052b3b4      60000106       bra.w 0x52b4bc
      │││   0x0052b3b8      487ab562       pea.l 0x52691c(pc)
      │││   0x0052b3bc      4878001b       pea.l 0x1b
      │││   0x0052b3c0      2f17           move.l (a7), -(a7)
      │││   0x0052b3c2      4e92           jsr (a2)                    ; fcn.00000009+0x2
      │││   0x0052b3c4      dec1           adda.w d1, a7
      │││   0x0052b3c6      4e93           jsr (a3)                    ; fcn.0000000c
      │││   0x0052b3c8      487800aa       pea.l 0xaa
      │││   0x0052b3cc      4eb900402e42   jsr p_Delay
      │││   0x0052b3d2      584f           addq.w 0x4, a7
      │││   0x0052b3d4      4eb90052b5d0   jsr t_flush
      │││   0x0052b3da      48780005       pea.l 0x5
      │││   0x0052b3de      4eb90052b4e0   jsr t_integer
      │││   0x0052b3e4      544f           addq.w 0x2, a7
      │││   0x0052b3e6      486efef8       pea.l -0x108(a6)
      │││   0x0052b3ea      4eb90052b70a   jsr t_get_string
      │││   0x0052b3f0      584f           addq.w 0x4, a7
      │││   0x0052b3f2      4a1f           tst.b (a7)+
     ┌────< 0x0052b3f4      671c           beq.b 0x52b412
     ││││   0x0052b3f6      486efef9       pea.l -0x107(a6)
     ││││   0x0052b3fa      42a7           clr.l -(a7)
     ││││   0x0052b3fc      1f6efef80003   move.b -0x108(a6), 0x3(a7)
     ││││   0x0052b402      2f17           move.l (a7), -(a7)
     ││││   0x0052b404      4e92           jsr (a2)                    ; fcn.00000009+0x2
     ││││   0x0052b406      dec1           adda.w d1, a7
     ││││   0x0052b408      487ab52e       pea.l 0x526938(pc)
     ││││   0x0052b40c      4878000e       pea.l 0xe
    ┌─────< 0x0052b410      6078           bra.b 0x52b48a
    │└────> 0x0052b412      487ab533       pea.l 0x526947(pc)
    │ │││   0x0052b416      4878002d       pea.l 0x2d
    │ │││   0x0052b41a      2f17           move.l (a7), -(a7)
    │ │││   0x0052b41c      4e92           jsr (a2)                    ; fcn.00000009+0x2
    │ │││   0x0052b41e      dec1           adda.w d1, a7
    │ │││   0x0052b420      4e93           jsr (a3)                    ; fcn.0000000c
    │ │││   0x0052b422      554f           subq.w 0x2, a7
    │ │││   0x0052b424      4eb90052bebc   jsr t_image_init
    │ │││   0x0052b42a      4a1f           tst.b (a7)+
    │┌────< 0x0052b42c      6754           beq.b 0x52b482
    │││││   0x0052b42e      487800dc       pea.l 0xdc
    │││││   0x0052b432      4eb900402e42   jsr p_Delay
    │││││   0x0052b438      584f           addq.w 0x4, a7
    │││││   0x0052b43a      4eb90052b5d0   jsr t_flush
    │││││   0x0052b440      48780005       pea.l 0x5
    │││││   0x0052b444      4eb90052b4e0   jsr t_integer
    │││││   0x0052b44a      544f           addq.w 0x2, a7
    │││││   0x0052b44c      486efef8       pea.l -0x108(a6)
    │││││   0x0052b450      4eb90052b70a   jsr t_get_string
    │││││   0x0052b456      584f           addq.w 0x4, a7
    │││││   0x0052b458      4a1f           tst.b (a7)+
   ┌──────< 0x0052b45a      671c           beq.b 0x52b478
   ││││││   0x0052b45c      486efef9       pea.l -0x107(a6)
   ││││││   0x0052b460      42a7           clr.l -(a7)
   ││││││   0x0052b462      1f6efef80003   move.b -0x108(a6), 0x3(a7)
   ││││││   0x0052b468      2f17           move.l (a7), -(a7)
   ││││││   0x0052b46a      4e92           jsr (a2)                    ; fcn.00000009+0x2
   ││││││   0x0052b46c      dec1           adda.w d1, a7
   ││││││   0x0052b46e      487ab505       pea.l 0x526975(pc)
   ││││││   0x0052b472      4878000c       pea.l 0xc
  ┌───────< 0x0052b476      6012           bra.b 0x52b48a
  │└──────> 0x0052b478      487ab508       pea.l 0x526982(pc)
  │ │││││   0x0052b47c      4878002b       pea.l 0x2b
  │┌──────< 0x0052b480      6008           bra.b 0x52b48a
  │││└────> 0x0052b482      487ab52a       pea.l 0x5269ae(pc)
  │││ │││   0x0052b486      48780021       pea.l 0x21
  └└└─────> 0x0052b48a      2f17           move.l (a7), -(a7)
      │││   0x0052b48c      4e92           jsr (a2)                    ; fcn.00000009+0x2
      │││   0x0052b48e      dec1           adda.w d1, a7
      │││   0x0052b490      4e93           jsr (a3)                    ; fcn.0000000c
      │││   0x0052b492      9efc0012       suba.w 0x12, a7
      │││   0x0052b496      2f3ab537       move.l 0x5269cf(pc), -(a7)
      │││   0x0052b49a      3f7ab5370004   move.w 0x5269d3(pc), 0x4(a7)
      │││   0x0052b4a0      1f02           move.b d2, -(a7)
      │││   0x0052b4a2      48780001       pea.l 0x1
      │││   0x0052b4a6      486efee6       pea.l -0x11a(a6)
      │││   0x0052b4aa      487afa22       pea.l BRUSH2COM.image_command(pc)
      │││   0x0052b4ae      4eb90043b79c   jsr G0_MAIN.g_new_command
      │││   0x0052b4b4      defc0020       adda.w 0x20, a7
      │││   0x0052b4b8      2d5ffffc       move.l (a7)+, -0x4(a6)
      └└└─> 0x0052b4bc      23c20083fcf0   move.l d2, 0x83fcf0
            0x0052b4c2      302efef6       move.w -0x10a(a6), d0
            0x0052b4c6      c1eefef4       muls.w -0x10c(a6), d0
            0x0052b4ca      4c440800       divs.l d4, d0
            0x0052b4ce      23c00083fcf4   move.l d0, 0x83fcf4
            0x0052b4d4      4cdf0f9f       movem.l (a7)+, d0-d4/d7/a0-a3
            0x0052b4d8      4e5e           unlk a6
