            ;-- C0_CURSOR_DRIVER:
            0x0044ed62      .byte 0x00
            0x0044ed63      .byte 0x78
            0x0044ed64      .byte 0x02
            0x0044ed65      .byte 0xd8
            0x0044ed66      .byte 0x01
            0x0044ed67      .byte 0xf8
            0x0044ed68      .byte 0x0b
            0x0044ed69      .byte 0x60
            0x0044ed6a      .byte 0x01
            0x0044ed6b      .byte 0xf8
            0x0044ed6c      .byte 0x05
            0x0044ed6d      .byte 0xb0
            0x0044ed6e      .byte 0x07
            0x0044ed6f      .byte 0xf8
            0x0044ed70      .byte 0x0b
            0x0044ed71      .byte 0x60
            0x0044ed72      .byte 0x00
            0x0044ed73      .byte 0x00
            0x0044ed74      .byte 0x00
            0x0044ed75      .byte 0x00
            0x0044ed76      .byte 0x10
            0x0044ed77     .string "ram upd area st " ; len=16
            0x0044ed87      .byte 0x05
            0x0044ed88     .string " siz " ; len=5
            0x0044ed8d      .byte 0x00
            0x0044ed8e      .byte 0x00
            0x0044ed8f      .byte 0x00
            0x0044ed90      .byte 0x00
            0x0044ed91      .byte 0x00
            0x0044ed92      .byte 0x00
            0x0044ed93      .byte 0x00
            0x0044ed94      .byte 0x00
            0x0044ed95      .byte 0x00
            0x0044ed96      .byte 0x00
            0x0044ed97      .byte 0x00
            0x0044ed98      .byte 0x00
            0x0044ed99      .byte 0x00
            0x0044ed9a      .byte 0x00
            0x0044ed9b      .byte 0x00
            0x0044ed9c      .byte 0x00
            0x0044ed9d      .byte 0x00
            0x0044ed9e      .byte 0x00
            0x0044ed9f      .byte 0x00
            0x0044eda0      .byte 0x00
            0x0044eda1      .byte 0x00
            0x0044eda2      .byte 0x00
            0x0044eda3      .byte 0x00
            0x0044eda4      .byte 0x00
            0x0044eda5      .byte 0x00
            0x0044eda6      .byte 0x00
            0x0044eda7      .byte 0x00
            0x0044eda8      .byte 0x00
            0x0044eda9      .byte 0x00
            0x0044edaa      .byte 0x00
            0x0044edab      .byte 0x00
            0x0044edac      .byte 0x00
            0x0044edad      .byte 0x00
            0x0044edae      .byte 0x00
            0x0044edaf      .byte 0x00
            0x0044edb0      .byte 0x00
            0x0044edb1      .byte 0x01
            0x0044edb2      .byte 0x00
            0x0044edb3      .byte 0x00
            0x0044edb4      .byte 0x00
            0x0044edb5      .byte 0x02
            0x0044edb6      .byte 0x00
            0x0044edb7      .byte 0x00
            0x0044edb8      .byte 0x00
            0x0044edb9      .byte 0x02
            0x0044edba      .byte 0x00
            0x0044edbb      .byte 0x00
            0x0044edbc      .byte 0x00
            0x0044edbd      .byte 0x02
            0x0044edbe      .byte 0x00
            0x0044edbf      .byte 0x00
            0x0044edc0      .byte 0x00
            0x0044edc1      .byte 0x03
            0x0044edc2      .byte 0x00
            0x0044edc3      .byte 0x00
            0x0044edc4      .byte 0x00
            0x0044edc5      .byte 0x00
            0x0044edc6      .byte 0x00
            0x0044edc7      .byte 0x00
            0x0044edc8      .byte 0x00
            0x0044edc9      .byte 0x06
            0x0044edca      .byte 0x00
            0x0044edcb      .byte 0x00
            0x0044edcc      .byte 0x00
            0x0044edcd      .byte 0x08
            0x0044edce      .byte 0x00
            0x0044edcf      .byte 0x00
            0x0044edd0      .byte 0x00
            0x0044edd1      .byte 0x00
            0x0044edd2      .byte 0x00
            0x0044edd3      .byte 0x00
            0x0044edd4      .byte 0x00
            0x0044edd5      .byte 0x01
            0x0044edd6      .byte 0x00
            0x0044edd7      .byte 0x00
            0x0044edd8      .byte 0x00
            0x0044edd9      .byte 0x02
            0x0044edda      .byte 0x00
            0x0044eddb      .byte 0x00
            0x0044eddc      .byte 0x00
            0x0044eddd      .byte 0x02
            0x0044edde      .byte 0x00
            0x0044eddf      .byte 0x00
            0x0044ede0      .byte 0x00
            0x0044ede1      .byte 0x02
            0x0044ede2      .byte 0x00
            0x0044ede3      .byte 0x00
            0x0044ede4      .byte 0x00
            0x0044ede5      .byte 0x03
            0x0044ede6      .byte 0x00
            0x0044ede7      .byte 0x00
            0x0044ede8      .byte 0x00
            0x0044ede9      .byte 0x00
            0x0044edea      .byte 0x00
            0x0044edeb      .byte 0x00
            0x0044edec      .byte 0x00
            0x0044eded      .byte 0x00
            0x0044edee      .byte 0x00
            0x0044edef      .byte 0x00
            0x0044edf0      .byte 0x00
            0x0044edf1      .byte 0x00
            0x0044edf2      .byte 0x00
            0x0044edf3      .byte 0x00
            0x0044edf4      .byte 0x00
            0x0044edf5      .byte 0x00
            0x0044edf6      .byte 0x00
            0x0044edf7      .byte 0x00
            0x0044edf8      .byte 0x00
            0x0044edf9      .byte 0x00
            0x0044edfa      .byte 0x00
            0x0044edfb      .byte 0x00
            0x0044edfc      .byte 0x00
            0x0044edfd      .byte 0x00
            0x0044edfe      .byte 0x00
            0x0044edff      .byte 0x00
            0x0044ee00      .byte 0x00
            0x0044ee01      .byte 0x00
            0x0044ee02      .byte 0x00
            0x0044ee03      .byte 0x00
            0x0044ee04      .byte 0x00
            0x0044ee05      .byte 0x00
            0x0044ee06      .byte 0x00
            0x0044ee07      .byte 0x00
            0x0044ee08      .byte 0x00
            0x0044ee09      .byte 0x00
            0x0044ee0a      .byte 0x00
            0x0044ee0b      .byte 0x00
            0x0044ee0c      .byte 0x00
            0x0044ee0d      .byte 0x00
            0x0044ee0e      .byte 0x00
            0x0044ee0f      .byte 0x00
            0x0044ee10      .byte 0x00
            0x0044ee11      .byte 0x00
            0x0044ee12      .byte 0x00
            0x0044ee13      .byte 0x00
            0x0044ee14      .byte 0x00
            0x0044ee15      .byte 0x00
            0x0044ee16      .byte 0x00
            0x0044ee17      .byte 0x00
            0x0044ee18      .byte 0x00
            0x0044ee19      .byte 0x00
            0x0044ee1a      .byte 0x00
            0x0044ee1b      .byte 0x00
            0x0044ee1c      .byte 0x00
            0x0044ee1d      .byte 0x00
            0x0044ee1e      .byte 0x00
            0x0044ee1f      .byte 0x00
            0x0044ee20      .byte 0x00
            0x0044ee21      .byte 0x00
            0x0044ee22      .byte 0x00
            0x0044ee23      .byte 0x00
            0x0044ee24      .byte 0x00
            0x0044ee25      .byte 0x00
            0x0044ee26      .byte 0x00
            0x0044ee27      .byte 0x00
            0x0044ee28      .byte 0x00
            0x0044ee29      .byte 0x00
            0x0044ee2a      .byte 0x00
            0x0044ee2b      .byte 0x00
            0x0044ee2c      .byte 0x00
            0x0044ee2d      .byte 0x00
            0x0044ee2e      .byte 0x00
            0x0044ee2f      .byte 0x00
            0x0044ee30      .byte 0x00
            0x0044ee31      .byte 0x01
            0x0044ee32      .byte 0x00
            0x0044ee33      .byte 0x00
            0x0044ee34      .byte 0x00
            0x0044ee35      .byte 0x02
            0x0044ee36      .byte 0x00
            0x0044ee37      .byte 0x00
            0x0044ee38      .byte 0x00
            0x0044ee39      .byte 0x02
            0x0044ee3a      .byte 0x00
            0x0044ee3b      .byte 0x00
            0x0044ee3c      .byte 0x00
            0x0044ee3d      .byte 0x02
            0x0044ee3e      .byte 0x00
            0x0044ee3f      .byte 0x00
            0x0044ee40      .byte 0x00
            0x0044ee41      .byte 0x04
            0x0044ee42      .byte 0x00
            0x0044ee43      .byte 0x00
            0x0044ee44      .byte 0x00
            0x0044ee45      .byte 0x00
            0x0044ee46      .byte 0x00
            0x0044ee47      .byte 0x00
            0x0044ee48      .byte 0x00
            0x0044ee49      .byte 0x06
            0x0044ee4a      .byte 0x00
            0x0044ee4b      .byte 0x00
            0x0044ee4c      .byte 0x00
            0x0044ee4d      .byte 0x07
            0x0044ee4e      .byte 0x00
            0x0044ee4f      .byte 0x00
            0x0044ee50      .byte 0x00
            0x0044ee51      .byte 0x00
            0x0044ee52      .byte 0x00
            0x0044ee53      .byte 0x00
            0x0044ee54      .byte 0x00
            0x0044ee55      .byte 0x01
            0x0044ee56      .byte 0x00
            0x0044ee57      .byte 0x00
            0x0044ee58      .byte 0x00
            0x0044ee59      .byte 0x02
            0x0044ee5a      .byte 0x00
            0x0044ee5b      .byte 0x00
            0x0044ee5c      .byte 0x00
            0x0044ee5d      .byte 0x02
            0x0044ee5e      .byte 0x00
            0x0044ee5f      .byte 0x00
            0x0044ee60      .byte 0x00
            0x0044ee61      .byte 0x02
            0x0044ee62      .byte 0x00
            0x0044ee63      .byte 0x00
            0x0044ee64      .byte 0x00
            0x0044ee65      .byte 0x04
            0x0044ee66      .byte 0x00
            0x0044ee67      .byte 0x00
            0x0044ee68      .byte 0x00
            0x0044ee69      .byte 0x00
            0x0044ee6a      .byte 0x00
            0x0044ee6b      .byte 0x00
            0x0044ee6c      .byte 0x00
            0x0044ee6d      .byte 0x00
            0x0044ee6e      .byte 0x00
            0x0044ee6f      .byte 0x00
            0x0044ee70      .byte 0x00
            0x0044ee71      .byte 0x00
            0x0044ee72      .byte 0x00
            0x0044ee73      .byte 0x00
            0x0044ee74      .byte 0x00
            0x0044ee75      .byte 0x00
            0x0044ee76      .byte 0x00
            0x0044ee77      .byte 0x00
            0x0044ee78      .byte 0x00
            0x0044ee79      .byte 0x00
            0x0044ee7a      .byte 0x00
            0x0044ee7b      .byte 0x00
            0x0044ee7c      .byte 0x00
            0x0044ee7d      .byte 0x00
            0x0044ee7e      .byte 0x00
            0x0044ee7f      .byte 0x00
            0x0044ee80      .byte 0x00
            0x0044ee81      .byte 0x00
            0x0044ee82      .byte 0x00
            0x0044ee83      .byte 0x00
            0x0044ee84      .byte 0x00
            0x0044ee85      .byte 0x00
            0x0044ee86      .byte 0x00
            0x0044ee87      .byte 0x00
            0x0044ee88      .byte 0x00
            0x0044ee89      .byte 0x00
            0x0044ee8a      .byte 0x00
            0x0044ee8b      .byte 0x00
            0x0044ee8c      .byte 0x00
            0x0044ee8d      .byte 0x00
            0x0044ee8e      .byte 0x00
            0x0044ee8f      .byte 0x00
            0x0044ee90      .byte 0x00
            0x0044ee91      .byte 0x00
            0x0044ee92      .byte 0x00
            0x0044ee93      .byte 0x00
            0x0044ee94      .byte 0x00
            0x0044ee95      .byte 0x00
            0x0044ee96      .byte 0x00
            0x0044ee97      .byte 0x00
            0x0044ee98      .byte 0x00
            0x0044ee99      .byte 0x00
            0x0044ee9a      .byte 0x00
            0x0044ee9b      .byte 0x00
            0x0044ee9c      .byte 0x00
            0x0044ee9d      .byte 0x00
            0x0044ee9e      .byte 0x00
            0x0044ee9f      .byte 0x00
            0x0044eea0      .byte 0x00
            0x0044eea1      .byte 0x00
            0x0044eea2      .byte 0x00
            0x0044eea3      .byte 0x00
            0x0044eea4      .byte 0x00
            0x0044eea5      .byte 0x01
            0x0044eea6      .byte 0x00
            0x0044eea7      .byte 0x00
            0x0044eea8      .byte 0x00
            0x0044eea9      .byte 0x02
            0x0044eeaa      .byte 0x00
            0x0044eeab      .byte 0x00
            0x0044eeac      .byte 0x00
            0x0044eead      .byte 0x02
            0x0044eeae      .byte 0x00
            0x0044eeaf      .byte 0x00
            0x0044eeb0      .byte 0x00
            0x0044eeb1      .byte 0x02
            0x0044eeb2      .byte 0x00
            0x0044eeb3      .byte 0x00
            0x0044eeb4      .byte 0x00
            0x0044eeb5      .byte 0x02
            0x0044eeb6      .byte 0x00
            0x0044eeb7      .byte 0x00
            0x0044eeb8      .byte 0x00
            0x0044eeb9      .byte 0x02
            0x0044eeba      .byte 0x00
            0x0044eebb      .byte 0x00
            0x0044eebc      .byte 0x00
            0x0044eebd      .byte 0x02
            0x0044eebe      .byte 0x00
            0x0044eebf      .byte 0x00
            0x0044eec0      .byte 0x00
            0x0044eec1      .byte 0x02
            0x0044eec2      .byte 0x00
            0x0044eec3      .byte 0x00
            0x0044eec4      .byte 0x00
            0x0044eec5      .byte 0x03
            0x0044eec6      .byte 0x00
            0x0044eec7      .byte 0x00
            0x0044eec8      .byte 0x00
            0x0044eec9      .byte 0x04
            0x0044eeca      .byte 0x00
            0x0044eecb      .byte 0x00
            0x0044eecc      .byte 0x00
            0x0044eecd      .byte 0x05
            0x0044eece      .byte 0x00
            0x0044eecf      .byte 0x00
            0x0044eed0      .byte 0x00
            0x0044eed1      .byte 0x06
            0x0044eed2      .byte 0x00
            0x0044eed3      .byte 0x00
            0x0044eed4      .byte 0x00
            0x0044eed5      .byte 0x07
            0x0044eed6      .byte 0x00
            0x0044eed7      .byte 0x00
            0x0044eed8      .byte 0x00
            0x0044eed9      .byte 0x08
            0x0044eeda      .byte 0x00
            0x0044eedb      .byte 0x00
            0x0044eedc      .byte 0x00
            0x0044eedd      .byte 0x01
            0x0044eede      .byte 0x00
            0x0044eedf      .byte 0x00
            0x0044eee0      .byte 0x00
            0x0044eee1      .byte 0x02
            0x0044eee2      .byte 0x00
            0x0044eee3      .byte 0x00
            0x0044eee4      .byte 0x00
            0x0044eee5      .byte 0x02
            0x0044eee6      .byte 0x00
            0x0044eee7      .byte 0x00
            0x0044eee8      .byte 0x00
            0x0044eee9      .byte 0x02
            0x0044eeea      .byte 0x00
            0x0044eeeb      .byte 0x00
            0x0044eeec      .byte 0x00
            0x0044eeed      .byte 0x02
            0x0044eeee      .byte 0x00
            0x0044eeef      .byte 0x00
            0x0044eef0      .byte 0x00
            0x0044eef1      .byte 0x02
            0x0044eef2      .byte 0x00
            0x0044eef3      .byte 0x00
            0x0044eef4      .byte 0x00
            0x0044eef5      .byte 0x02
            0x0044eef6      .byte 0x00
            0x0044eef7      .byte 0x00
            0x0044eef8      .byte 0x00
            0x0044eef9      .byte 0x02
            0x0044eefa      .byte 0x00
            0x0044eefb      .byte 0x00
            0x0044eefc      .byte 0x00
            0x0044eefd      .byte 0x03
            0x0044eefe      .byte 0x00
            0x0044eeff      .byte 0x00
            0x0044ef00      .byte 0x00
            0x0044ef01      .byte 0x00
            0x0044ef02      .byte 0x00
            0x0044ef03      .byte 0x00
            0x0044ef04      .byte 0x00
            0x0044ef05      .byte 0x00
            0x0044ef06      .byte 0x00
            0x0044ef07      .byte 0x00
            0x0044ef08      .byte 0x00
            0x0044ef09      .byte 0x00
            0x0044ef0a      .byte 0x00
            0x0044ef0b      .byte 0x00
            0x0044ef0c      .byte 0x00
            0x0044ef0d      .byte 0x00
            0x0044ef0e      .byte 0x00
            0x0044ef0f      .byte 0x00
            0x0044ef10      .byte 0x00
            0x0044ef11      .byte 0x00
            0x0044ef12      .byte 0x00
            0x0044ef13      .byte 0x00
            0x0044ef14      .byte 0x00
            0x0044ef15      .byte 0x00
            0x0044ef16      .byte 0x00
            0x0044ef17      .byte 0x00
            0x0044ef18      .byte 0x00
            0x0044ef19      .byte 0x00
            0x0044ef1a      .byte 0x00
            0x0044ef1b      .byte 0x00
            0x0044ef1c      .byte 0x00
            0x0044ef1d      .byte 0x00
            0x0044ef1e      .byte 0x00
            0x0044ef1f      .byte 0x00
            0x0044ef20      .byte 0x00
            0x0044ef21      .byte 0x00
            0x0044ef22      .byte 0x00
            0x0044ef23      .byte 0x00
            0x0044ef24      .byte 0x00
            0x0044ef25      .byte 0x00
            0x0044ef26      .byte 0x00
            0x0044ef27      .byte 0x00
            0x0044ef28      .byte 0x00
            0x0044ef29      .byte 0x00
            0x0044ef2a      .byte 0x00
            0x0044ef2b      .byte 0x00
            0x0044ef2c      .byte 0x00
            0x0044ef2d      .byte 0x01
            0x0044ef2e      .byte 0x00
            0x0044ef2f      .byte 0x00
            0x0044ef30      .byte 0x00
            0x0044ef31      .byte 0x02
            0x0044ef32      .byte 0x00
            0x0044ef33      .byte 0x00
            0x0044ef34      .byte 0x00
            0x0044ef35      .byte 0x02
            0x0044ef36      .byte 0x00
            0x0044ef37      .byte 0x00
            0x0044ef38      .byte 0x00
            0x0044ef39      .byte 0x02
            0x0044ef3a      .byte 0x00
            0x0044ef3b      .byte 0x00
            0x0044ef3c      .byte 0x00
            0x0044ef3d      .byte 0x02
            0x0044ef3e      .byte 0x00
            0x0044ef3f      .byte 0x00
            0x0044ef40      .byte 0x00
            0x0044ef41      .byte 0x02
            0x0044ef42      .byte 0x00
            0x0044ef43      .byte 0x00
            0x0044ef44      .byte 0x00
            0x0044ef45      .byte 0x03
            0x0044ef46      .byte 0x00
            0x0044ef47      .byte 0x00
            0x0044ef48      .byte 0x00
            0x0044ef49      .byte 0x04
            0x0044ef4a      .byte 0x00
            0x0044ef4b      .byte 0x00
            0x0044ef4c      .byte 0x00
            0x0044ef4d      .byte 0x05
            0x0044ef4e      .byte 0x00
            0x0044ef4f      .byte 0x00
            0x0044ef50      .byte 0x00
            0x0044ef51      .byte 0x06
            0x0044ef52      .byte 0x00
            0x0044ef53      .byte 0x00
            0x0044ef54      .byte 0x00
            0x0044ef55      .byte 0x07
            0x0044ef56      .byte 0x00
            0x0044ef57      .byte 0x00
            0x0044ef58      .byte 0x00
            0x0044ef59      .byte 0x08
            0x0044ef5a      .byte 0x00
            0x0044ef5b      .byte 0x00
            0x0044ef5c      .byte 0x00
            0x0044ef5d      .byte 0x09
            0x0044ef5e      .byte 0x00
            0x0044ef5f      .byte 0x00
            0x0044ef60      .byte 0x00
            0x0044ef61      .byte 0x02
            0x0044ef62      .byte 0x00
            0x0044ef63      .byte 0x00
            0x0044ef64      .byte 0x00
            0x0044ef65      .byte 0x02
            0x0044ef66      .byte 0x00
            0x0044ef67      .byte 0x00
            0x0044ef68      .byte 0x00
            0x0044ef69      .byte 0x02
            0x0044ef6a      .byte 0x00
            0x0044ef6b      .byte 0x00
            0x0044ef6c      .byte 0x00
            0x0044ef6d      .byte 0x02
            0x0044ef6e      .byte 0x00
            0x0044ef6f      .byte 0x00
            0x0044ef70      .byte 0x00
            0x0044ef71      .byte 0x02
            0x0044ef72      .byte 0x00
            0x0044ef73      .byte 0x00
            0x0044ef74      .byte 0x00
            0x0044ef75      .byte 0x0a
            0x0044ef76      .byte 0x00
            0x0044ef77      .byte 0x00
            0x0044ef78      .byte 0x00
            0x0044ef79      .byte 0x00
            0x0044ef7a      .byte 0x00
            0x0044ef7b      .byte 0x00
            0x0044ef7c      .byte 0x00
            0x0044ef7d      .byte 0x00
            0x0044ef7e      .byte 0x00
            0x0044ef7f      .byte 0x00
            0x0044ef80      .byte 0x00
            0x0044ef81      .byte 0x00
            0x0044ef82      .byte 0x00
            0x0044ef83      .byte 0x00
            0x0044ef84      .byte 0x00
            0x0044ef85      .byte 0x00
            0x0044ef86      .byte 0x00
            0x0044ef87      .byte 0x00
            0x0044ef88      .byte 0x00
            0x0044ef89      .byte 0x00
            0x0044ef8a      .byte 0x00
            0x0044ef8b      .byte 0x00
            0x0044ef8c      .byte 0x00
            0x0044ef8d      .byte 0x00
            0x0044ef8e      .byte 0x00
            0x0044ef8f      .byte 0x00
            0x0044ef90      .byte 0x00
            0x0044ef91      .byte 0x00
            0x0044ef92      .byte 0x00
            0x0044ef93      .byte 0x00
            0x0044ef94      .byte 0x00
            0x0044ef95      .byte 0x00
            0x0044ef96      .byte 0x00
            0x0044ef97      .byte 0x00
            0x0044ef98      .byte 0x00
            0x0044ef99      .byte 0x01
            0x0044ef9a      .byte 0x00
            0x0044ef9b      .byte 0x00
            0x0044ef9c      .byte 0x00
            0x0044ef9d      .byte 0x02
            0x0044ef9e      .byte 0x00
            0x0044ef9f      .byte 0x00
            0x0044efa0      .byte 0x00
            0x0044efa1      .byte 0x02
            0x0044efa2      .byte 0x00
            0x0044efa3      .byte 0x00
            0x0044efa4      .byte 0x00
            0x0044efa5      .byte 0x02
            0x0044efa6      .byte 0x00
            0x0044efa7      .byte 0x00
            0x0044efa8      .byte 0x00
            0x0044efa9      .byte 0x02
            0x0044efaa      .byte 0x00
            0x0044efab      .byte 0x00
            0x0044efac      .byte 0x00
            0x0044efad      .byte 0x02
            0x0044efae      .byte 0x00
            0x0044efaf      .byte 0x00
            0x0044efb0      .byte 0x00
            0x0044efb1      .byte 0x02
            0x0044efb2      .byte 0x00
            0x0044efb3      .byte 0x00
            0x0044efb4      .byte 0x00
            0x0044efb5      .byte 0x02
            0x0044efb6      .byte 0x00
            0x0044efb7      .byte 0x00
            0x0044efb8      .byte 0x00
            0x0044efb9      .byte 0x02
            0x0044efba      .byte 0x00
            0x0044efbb      .byte 0x00
            0x0044efbc      .byte 0x00
            0x0044efbd      .byte 0x02
            0x0044efbe      .byte 0x00
            0x0044efbf      .byte 0x00
            0x0044efc0      .byte 0x00
            0x0044efc1      .byte 0x03
            0x0044efc2      .byte 0x00
            0x0044efc3      .byte 0x00
            0x0044efc4      .byte 0x00
            0x0044efc5      .byte 0x03
            0x0044efc6      .byte 0x00
            0x0044efc7      .byte 0x00
            0x0044efc8      .byte 0x00
            0x0044efc9      .byte 0x04
            0x0044efca      .byte 0x00
            0x0044efcb      .byte 0x00
            0x0044efcc      .byte 0x00
            0x0044efcd      .byte 0x05
            0x0044efce      .byte 0x00
            0x0044efcf      .byte 0x00
            0x0044efd0      .byte 0x00
            0x0044efd1      .byte 0x06
            0x0044efd2      .byte 0x00
            0x0044efd3      .byte 0x00
            0x0044efd4      .byte 0x00
            0x0044efd5      .byte 0x07
            0x0044efd6      .byte 0x00
            0x0044efd7      .byte 0x00
            0x0044efd8      .byte 0x00
            0x0044efd9      .byte 0x08
            0x0044efda      .byte 0x00
            0x0044efdb      .byte 0x00
            0x0044efdc      .byte 0x00
            0x0044efdd      .byte 0x01
            0x0044efde      .byte 0x00
            0x0044efdf      .byte 0x00
            0x0044efe0      .byte 0x00
            0x0044efe1      .byte 0x02
            0x0044efe2      .byte 0x00
            0x0044efe3      .byte 0x00
            0x0044efe4      .byte 0x00
            0x0044efe5      .byte 0x02
            0x0044efe6      .byte 0x00
            0x0044efe7      .byte 0x00
            0x0044efe8      .byte 0x00
            0x0044efe9      .byte 0x02
            0x0044efea      .byte 0x00
            0x0044efeb      .byte 0x00
            0x0044efec      .byte 0x00
            0x0044efed      .byte 0x02
            0x0044efee      .byte 0x00
            0x0044efef      .byte 0x00
            0x0044eff0      .byte 0x00
            0x0044eff1      .byte 0x02
            0x0044eff2      .byte 0x00
            0x0044eff3      .byte 0x00
            0x0044eff4      .byte 0x00
            0x0044eff5      .byte 0x02
            0x0044eff6      .byte 0x00
            0x0044eff7      .byte 0x00
            0x0044eff8      .byte 0x00
            0x0044eff9      .byte 0x02
            0x0044effa      .byte 0x00
            0x0044effb      .byte 0x00
            0x0044effc      .byte 0x00
            0x0044effd      .byte 0x02
            0x0044effe      .byte 0x00
            0x0044efff      .byte 0x00
            0x0044f000      .byte 0x00
            0x0044f001      .byte 0x03
            0x0044f002      .byte 0x00
            0x0044f003      .byte 0x00
            0x0044f004      .byte 0x00
            0x0044f005      .byte 0x03
            0x0044f006      .byte 0x00
            0x0044f007      .byte 0x00
            0x0044f008      .byte 0x00
            0x0044f009      .byte 0x00
            0x0044f00a      .byte 0x00
            0x0044f00b      .byte 0x00
            0x0044f00c      .byte 0x00
            0x0044f00d      .byte 0x00
            0x0044f00e      .byte 0x00
            0x0044f00f      .byte 0x00
            0x0044f010      .byte 0x00
            0x0044f011      .byte 0x00
            0x0044f012      .byte 0x00
            0x0044f013      .byte 0x00
            0x0044f014      .byte 0x00
            0x0044f015      .byte 0x00
            0x0044f016      .byte 0x00
            0x0044f017      .byte 0x00
            0x0044f018      .byte 0x00
            0x0044f019      .byte 0x00
            0x0044f01a      .byte 0x00
            0x0044f01b      .byte 0x00
            0x0044f01c      .byte 0x00
            0x0044f01d      .byte 0x00
            0x0044f01e      .byte 0x00
            0x0044f01f      .byte 0x00
            0x0044f020      .byte 0x00
            0x0044f021      .byte 0x00
            0x0044f022      .byte 0x00
            0x0044f023      .byte 0x00
            0x0044f024      .byte 0x00
            0x0044f025      .byte 0x01
            0x0044f026      .byte 0x00
            0x0044f027      .byte 0x00
            0x0044f028      .byte 0x00
            0x0044f029      .byte 0x01
            0x0044f02a      .byte 0x00
            0x0044f02b      .byte 0x00
            0x0044f02c      .byte 0x00
            0x0044f02d      .byte 0x02
            0x0044f02e      .byte 0x00
            0x0044f02f      .byte 0x00
            0x0044f030      .byte 0x00
            0x0044f031      .byte 0x02
            0x0044f032      .byte 0x00
            0x0044f033      .byte 0x00
            0x0044f034      .byte 0x00
            0x0044f035      .byte 0x02
            0x0044f036      .byte 0x00
            0x0044f037      .byte 0x00
            0x0044f038      .byte 0x00
            0x0044f039      .byte 0x02
            0x0044f03a      .byte 0x00
            0x0044f03b      .byte 0x00
            0x0044f03c      .byte 0x00
            0x0044f03d      .byte 0x02
            0x0044f03e      .byte 0x00
            0x0044f03f      .byte 0x00
            0x0044f040      .byte 0x00
            0x0044f041      .byte 0x02
            0x0044f042      .byte 0x00
            0x0044f043      .byte 0x00
            0x0044f044      .byte 0x00
            0x0044f045      .byte 0x03
            0x0044f046      .byte 0x00
            0x0044f047      .byte 0x00
            0x0044f048      .byte 0x00
            0x0044f049      .byte 0x04
            0x0044f04a      .byte 0x00
            0x0044f04b      .byte 0x00
            0x0044f04c      .byte 0x00
            0x0044f04d      .byte 0x05
            0x0044f04e      .byte 0x00
            0x0044f04f      .byte 0x00
            0x0044f050      .byte 0x00
            0x0044f051      .byte 0x06
            0x0044f052      .byte 0x00
            0x0044f053      .byte 0x00
            0x0044f054      .byte 0x00
            0x0044f055      .byte 0x07
            0x0044f056      .byte 0x00
            0x0044f057      .byte 0x00
            0x0044f058      .byte 0x00
            0x0044f059      .byte 0x08
            0x0044f05a      .byte 0x00
            0x0044f05b      .byte 0x00
            0x0044f05c      .byte 0x00
            0x0044f05d      .byte 0x09
            0x0044f05e      .byte 0x00
            0x0044f05f      .byte 0x00
            0x0044f060      .byte 0x00
            0x0044f061      .byte 0x02
            0x0044f062      .byte 0x00
            0x0044f063      .byte 0x00
            0x0044f064      .byte 0x00
            0x0044f065      .byte 0x02
            0x0044f066      .byte 0x00
            0x0044f067      .byte 0x00
            0x0044f068      .byte 0x00
            0x0044f069      .byte 0x02
            0x0044f06a      .byte 0x00
            0x0044f06b      .byte 0x00
            0x0044f06c      .byte 0x00
            0x0044f06d      .byte 0x02
            0x0044f06e      .byte 0x00
            0x0044f06f      .byte 0x00
            0x0044f070      .byte 0x00
            0x0044f071      .byte 0x02
            0x0044f072      .byte 0x00
            0x0044f073      .byte 0x00
            0x0044f074      .byte 0x00
            0x0044f075      .byte 0x02
            0x0044f076      .byte 0x00
            0x0044f077      .byte 0x00
            0x0044f078      .byte 0x00
            0x0044f079      .byte 0x02
            0x0044f07a      .byte 0x00
            0x0044f07b      .byte 0x00
            0x0044f07c      .byte 0x00
            0x0044f07d      .byte 0x0a
            0x0044f07e      .byte 0x00
            0x0044f07f      .byte 0x00
            0x0044f080      .byte 0x00
            0x0044f081      .byte 0x0a
            0x0044f082      .byte 0x00
            0x0044f083      .byte 0x00
            0x0044f084      .byte 0x00
            0x0044f085      .byte 0x00
            0x0044f086      .byte 0x00
            0x0044f087      .byte 0x00
            0x0044f088      .byte 0x00
            0x0044f089      .byte 0x00
            0x0044f08a      .byte 0x00
            0x0044f08b      .byte 0x00
            0x0044f08c      .byte 0x00
            0x0044f08d      .byte 0x00
            0x0044f08e      .byte 0x00
            0x0044f08f      .byte 0x00
            0x0044f090      .byte 0x00
            0x0044f091      .byte 0x00
            0x0044f092      .byte 0x00
            0x0044f093      .byte 0x00
            0x0044f094      .byte 0x00
            0x0044f095      .byte 0x00
            0x0044f096      .byte 0x00
            0x0044f097      .byte 0x00
            0x0044f098      .byte 0x00
            0x0044f099      .byte 0x00
            0x0044f09a      .byte 0x00
            0x0044f09b      .byte 0x00
            0x0044f09c      .byte 0x00
            0x0044f09d      .byte 0x01
            0x0044f09e      .byte 0x00
            0x0044f09f      .byte 0x00
            0x0044f0a0      .byte 0x00
            0x0044f0a1      .byte 0x01
            0x0044f0a2      .byte 0x00
            0x0044f0a3      .byte 0x00
            0x0044f0a4      .byte 0x00
            0x0044f0a5      .byte 0x02
            0x0044f0a6      .byte 0x00
            0x0044f0a7      .byte 0x00
            0x0044f0a8      .byte 0x00
            0x0044f0a9      .byte 0x02
            0x0044f0aa      .byte 0x00
            0x0044f0ab      .byte 0x00
            0x0044f0ac      .byte 0x00
            0x0044f0ad      .byte 0x02
            0x0044f0ae      .byte 0x00
            0x0044f0af      .byte 0x00
            0x0044f0b0      .byte 0x00
            0x0044f0b1      .byte 0x02
            0x0044f0b2      .byte 0x00
            0x0044f0b3      .byte 0x00
            0x0044f0b4      .byte 0x00
            0x0044f0b5      .byte 0x02
            0x0044f0b6      .byte 0x00
            0x0044f0b7      .byte 0x00
            0x0044f0b8      .byte 0x00
            0x0044f0b9      .byte 0x02
            0x0044f0ba      .byte 0x00
            0x0044f0bb      .byte 0x00
            0x0044f0bc      .byte 0x00
            0x0044f0bd      .byte 0x02
            0x0044f0be      .byte 0x00
            0x0044f0bf      .byte 0x00
            0x0044f0c0      .byte 0x00
            0x0044f0c1      .byte 0x02
            0x0044f0c2      .byte 0x00
            0x0044f0c3      .byte 0x00
            0x0044f0c4      .byte 0x00
            0x0044f0c5      .byte 0x03
            0x0044f0c6      .byte 0x00
            0x0044f0c7      .byte 0x00
            0x0044f0c8      .byte 0x00
            0x0044f0c9      .byte 0x04
            0x0044f0ca      .byte 0x00
            0x0044f0cb      .byte 0x00
            0x0044f0cc      .byte 0x00
            0x0044f0cd      .byte 0x05
            0x0044f0ce      .byte 0x00
            0x0044f0cf      .byte 0x00
            0x0044f0d0      .byte 0x00
            0x0044f0d1      .byte 0x06
            0x0044f0d2      .byte 0x00
            0x0044f0d3      .byte 0x00
            0x0044f0d4      .byte 0x00
            0x0044f0d5      .byte 0x07
            0x0044f0d6      .byte 0x00
            0x0044f0d7      .byte 0x00
            0x0044f0d8      .byte 0x00
            0x0044f0d9      .byte 0x08
            0x0044f0da      .byte 0x00
            0x0044f0db      .byte 0x00
            0x0044f0dc      .byte 0x00
            0x0044f0dd      .byte 0x09
            0x0044f0de      .byte 0x00
            0x0044f0df      .byte 0x00
            0x0044f0e0      .byte 0x00
            0x0044f0e1      .byte 0x02
            0x0044f0e2      .byte 0x00
            0x0044f0e3      .byte 0x00
            0x0044f0e4      .byte 0x00
            0x0044f0e5      .byte 0x02
            0x0044f0e6      .byte 0x00
            0x0044f0e7      .byte 0x00
            0x0044f0e8      .byte 0x00
            0x0044f0e9      .byte 0x02
            0x0044f0ea      .byte 0x00
            0x0044f0eb      .byte 0x00
            0x0044f0ec      .byte 0x00
            0x0044f0ed      .byte 0x02
            0x0044f0ee      .byte 0x00
            0x0044f0ef      .byte 0x00
            0x0044f0f0      .byte 0x00
            0x0044f0f1      .byte 0x02
            0x0044f0f2      .byte 0x00
            0x0044f0f3      .byte 0x00
            0x0044f0f4      .byte 0x00
            0x0044f0f5      .byte 0x02
            0x0044f0f6      .byte 0x00
            0x0044f0f7      .byte 0x00
            0x0044f0f8      .byte 0x00
            0x0044f0f9      .byte 0x02
            0x0044f0fa      .byte 0x00
            0x0044f0fb      .byte 0x00
            0x0044f0fc      .byte 0x00
            0x0044f0fd      .byte 0x02
            0x0044f0fe      .byte 0x00
            0x0044f0ff      .byte 0x00
            0x0044f100      .byte 0x00
            0x0044f101      .byte 0x02
            0x0044f102      .byte 0x00
            0x0044f103      .byte 0x00
            0x0044f104      .byte 0x00
            0x0044f105      .byte 0x0a
            0x0044f106      .byte 0x00
            0x0044f107      .byte 0x00
            0x0044f108      .byte 0x00
            0x0044f109      .byte 0x0a
            0x0044f10a      .byte 0x00
            0x0044f10b      .byte 0x00
            0x0044f10c      .byte 0x00
            0x0044f10d      .byte 0x00
            0x0044f10e      .byte 0x1f
            0x0044f10f     .string "filled box - full update st2 = " ; len=31
            0x0044f12e      .byte 0x00
            0x0044f12f      .byte 0x00
            0x0044f130      .byte 0x00
            0x0044f131      .byte 0x0d
            0x0044f132      .byte 0x00
            0x0044f133      .byte 0x00
            0x0044f134      .byte 0x00
            0x0044f135      .byte 0x0e
            0x0044f136      .byte 0x00
            0x0044f137      .byte 0x00
            0x0044f138      .byte 0x00
            0x0044f139      .byte 0x0f
            0x0044f13a      .byte 0x00
            0x0044f13b      .byte 0x00
            0x0044f13c      .byte 0x00
            0x0044f13d      .byte 0x00
            0x0044f13e      .byte 0x00
            0x0044f13f      .byte 0x00
            0x0044f140      .byte 0x00
            0x0044f141      .byte 0x00
            0x0044f142      .byte 0x00
            0x0044f143      .byte 0x00
            0x0044f144      .byte 0x00
            0x0044f145      .byte 0x00
            0x0044f146      .byte 0x00
            0x0044f147      .byte 0x00
            0x0044f148      .byte 0x00
            0x0044f149      .byte 0x00
            0x0044f14a      .byte 0x00
            0x0044f14b      .byte 0x00
            0x0044f14c      .byte 0x00
            0x0044f14d      .byte 0x00
            0x0044f14e      .byte 0x00
            0x0044f14f      .byte 0x00
            0x0044f150      .byte 0x00
            0x0044f151      .byte 0x00
            0x0044f152      .byte 0x00
            0x0044f153      .byte 0x00
            0x0044f154      .byte 0x00
            0x0044f155      .byte 0x00
            0x0044f156      .byte 0x00
            0x0044f157      .byte 0x00
            0x0044f158      .byte 0x00
            0x0044f159      .byte 0x00
            0x0044f15a      .byte 0x00
            0x0044f15b      .byte 0x00
            0x0044f15c      .byte 0x00
            0x0044f15d      .byte 0x00
            0x0044f15e      .byte 0x00
            0x0044f15f      .byte 0x02
            0x0044f160      .byte 0x00
            0x0044f161      .byte 0x03
            0x0044f162      .byte 0x00
            0x0044f163      .byte 0x00
            0x0044f164      .byte 0x00
            0x0044f165      .byte 0x0b
            0x0044f166      .byte 0x00
            0x0044f167      .byte 0x00
            0x0044f168      .byte 0x00
            0x0044f169      .byte 0x0c
            0x0044f16a      .byte 0x00
            0x0044f16b      .byte 0x00
            0x0044f16c      .byte 0x00
            0x0044f16d      .byte 0x0d
            0x0044f16e      .byte 0x00
            0x0044f16f      .byte 0x00
            0x0044f170      .byte 0x00
            0x0044f171      .byte 0x00
            0x0044f172      .byte 0x00
            0x0044f173      .byte 0x00
            0x0044f174      .byte 0x00
            0x0044f175      .byte 0x00
            0x0044f176      .byte 0x00
            0x0044f177      .byte 0x00
            0x0044f178      .byte 0x00
            0x0044f179      .byte 0x00
            0x0044f17a      .byte 0x00
            0x0044f17b      .byte 0x00
            0x0044f17c      .byte 0x00
            0x0044f17d      .byte 0x00
            0x0044f17e      .byte 0x00
            0x0044f17f      .byte 0x00
            0x0044f180      .byte 0x00
            0x0044f181      .byte 0x00
            0x0044f182      .byte 0x00
            0x0044f183      .byte 0x00
            0x0044f184      .byte 0x00
            0x0044f185      .byte 0x00
            0x0044f186      .byte 0x00
            0x0044f187      .byte 0x00
            0x0044f188      .byte 0x00
            0x0044f189      .byte 0x00
            0x0044f18a      .byte 0x00
            0x0044f18b      .byte 0x00
            0x0044f18c      .byte 0x00
            0x0044f18d      .byte 0x00
            0x0044f18e      .byte 0x00
            0x0044f18f      .byte 0x00
            0x0044f190      .byte 0x00
            0x0044f191      .byte 0x00
            0x0044f192      .byte 0x00
            0x0044f193      .byte 0x02
            0x0044f194      .byte 0x00
            0x0044f195      .byte 0x03
            0x0044f196      .byte 0x00
            0x0044f197      .byte 0x00
            0x0044f198      .byte 0x00
            0x0044f199      .byte 0x0a
            0x0044f19a      .byte 0x00
            0x0044f19b      .byte 0x00
            0x0044f19c      .byte 0x00
            0x0044f19d      .byte 0x0f
            0x0044f19e      .byte 0x00
            0x0044f19f      .byte 0x00
            0x0044f1a0      .byte 0x00
            0x0044f1a1      .byte 0x0f
            0x0044f1a2      .byte 0x00
            0x0044f1a3      .byte 0x00
            0x0044f1a4      .byte 0x00
            0x0044f1a5      .byte 0x0f
            0x0044f1a6      .byte 0x00
            0x0044f1a7      .byte 0x00
            0x0044f1a8      .byte 0x00
            0x0044f1a9      .byte 0x0c
            0x0044f1aa      .byte 0x00
            0x0044f1ab      .byte 0x00
            0x0044f1ac      .byte 0x00
            0x0044f1ad      .byte 0x0e
            0x0044f1ae      .byte 0x00
            0x0044f1af      .byte 0x00
            0x0044f1b0      .byte 0x00
            0x0044f1b1      .byte 0x09
            0x0044f1b2      .byte 0x00
            0x0044f1b3      .byte 0x00
            0x0044f1b4      .byte 0x00
            0x0044f1b5      .byte 0x0f
            0x0044f1b6      .byte 0x00
            0x0044f1b7      .byte 0x00
            0x0044f1b8      .byte 0x00
            0x0044f1b9      .byte 0x0f
            0x0044f1ba      .byte 0x00
            0x0044f1bb      .byte 0x00
            0x0044f1bc      .byte 0x00
            0x0044f1bd      .byte 0x0f
            0x0044f1be      .byte 0x00
            0x0044f1bf      .byte 0x00
            0x0044f1c0      .byte 0x00
            0x0044f1c1      .byte 0x08
            0x0044f1c2      .byte 0x00
            0x0044f1c3      .byte 0x00
            0x0044f1c4      .byte 0x00
            0x0044f1c5      .byte 0x00
            0x0044f1c6      .byte 0x00
            0x0044f1c7      .byte 0x06
            0x0044f1c8      .byte 0x00
            0x0044f1c9      .byte 0x0b
            0x0044f1ca      .byte 0x00
            0x0044f1cb      .byte 0x00
            0x0044f1cc      .byte 0x00
            0x0044f1cd      .byte 0x08
            0x0044f1ce      .byte 0x00
            0x0044f1cf      .byte 0x00
            0x0044f1d0      .byte 0x00
            0x0044f1d1      .byte 0x01
            0x0044f1d2      .byte 0x00
            0x0044f1d3      .byte 0x00
            0x0044f1d4      .byte 0x00
            0x0044f1d5      .byte 0x01
            0x0044f1d6      .byte 0x00
            0x0044f1d7      .byte 0x00
            0x0044f1d8      .byte 0x00
            0x0044f1d9      .byte 0x01
            0x0044f1da      .byte 0x00
            0x0044f1db      .byte 0x00
            0x0044f1dc      .byte 0x00
            0x0044f1dd      .byte 0x06
            0x0044f1de      .byte 0x00
            0x0044f1df      .byte 0x00
            0x0044f1e0      .byte 0x00
            0x0044f1e1      .byte 0x04
            0x0044f1e2      .byte 0x00
            0x0044f1e3      .byte 0x00
            0x0044f1e4      .byte 0x00
            0x0044f1e5      .byte 0x0a
            0x0044f1e6      .byte 0x00
            0x0044f1e7      .byte 0x00
            0x0044f1e8      .byte 0x00
            0x0044f1e9      .byte 0x0a
            0x0044f1ea      .byte 0x00
            0x0044f1eb      .byte 0x00
            0x0044f1ec      .byte 0x00
            0x0044f1ed      .byte 0x01
            0x0044f1ee      .byte 0x00
            0x0044f1ef      .byte 0x00
            0x0044f1f0      .byte 0x00
            0x0044f1f1      .byte 0x01
            0x0044f1f2      .byte 0x00
            0x0044f1f3      .byte 0x00
            0x0044f1f4      .byte 0x00
            0x0044f1f5      .byte 0x0e
            0x0044f1f6      .byte 0x00
            0x0044f1f7      .byte 0x00
            0x0044f1f8      .byte 0x00
            0x0044f1f9      .byte 0x0e
            0x0044f1fa      .byte 0x00
            0x0044f1fb      .byte 0x06
            0x0044f1fc      .byte 0x00
            0x0044f1fd      .byte 0x0b
            0x0044f1fe      .byte 0x00
            0x0044f1ff      .byte 0x00
            0x0044f200      .byte 0x00
            0x0044f201      .byte 0x0a
            0x0044f202      .byte 0x00
            0x0044f203      .byte 0x00
            0x0044f204      .byte 0x00
            0x0044f205      .byte 0x0a
            0x0044f206      .byte 0x00
            0x0044f207      .byte 0x00
            0x0044f208      .byte 0x00
            0x0044f209      .byte 0x0c
            0x0044f20a      .byte 0x00
            0x0044f20b      .byte 0x00
            0x0044f20c      .byte 0x00
            0x0044f20d      .byte 0x0c
            0x0044f20e      .byte 0x00
            0x0044f20f      .byte 0x00
            0x0044f210      .byte 0x00
            0x0044f211      .byte 0x0c
            0x0044f212      .byte 0x00
            0x0044f213      .byte 0x00
            0x0044f214      .byte 0x00
            0x0044f215      .byte 0x0c
            0x0044f216      .byte 0x00
            0x0044f217      .byte 0x00
            0x0044f218      .byte 0x00
            0x0044f219      .byte 0x0a
            0x0044f21a      .byte 0x00
            0x0044f21b      .byte 0x00
            0x0044f21c      .byte 0x00
            0x0044f21d      .byte 0x0a
            0x0044f21e      .byte 0x00
            0x0044f21f      .byte 0x00
            0x0044f220      .byte 0x00
            0x0044f221      .byte 0x00
            0x0044f222      .byte 0x00
            0x0044f223      .byte 0x00
            0x0044f224      .byte 0x00
            0x0044f225      .byte 0x00
            0x0044f226      .byte 0x00
            0x0044f227      .byte 0x00
            0x0044f228      .byte 0x00
            0x0044f229      .byte 0x00
            0x0044f22a      .byte 0x00
            0x0044f22b      .byte 0x00
            0x0044f22c      .byte 0x00
            0x0044f22d      .byte 0x00
            0x0044f22e      .byte 0x00
            0x0044f22f      .byte 0x04
            0x0044f230      .byte 0x00
            0x0044f231      .byte 0x08
            0x0044f232      .byte 0x00
            0x0044f233      .byte 0x00
            0x0044f234      .byte 0x00
            0x0044f235      .byte 0x08
            0x0044f236      .byte 0x00
            0x0044f237      .byte 0x00
            0x0044f238      .byte 0x00
            0x0044f239      .byte 0x08
            0x0044f23a      .byte 0x00
            0x0044f23b      .byte 0x00
            0x0044f23c      .byte 0x00
            0x0044f23d      .byte 0x06
            0x0044f23e      .byte 0x00
            0x0044f23f      .byte 0x00
            0x0044f240      .byte 0x00
            0x0044f241      .byte 0x06
            0x0044f242      .byte 0x00
            0x0044f243      .byte 0x00
            0x0044f244      .byte 0x00
            0x0044f245      .byte 0x06
            0x0044f246      .byte 0x00
            0x0044f247      .byte 0x00
            0x0044f248      .byte 0x00
            0x0044f249      .byte 0x06
            0x0044f24a      .byte 0x00
            0x0044f24b      .byte 0x00
            0x0044f24c      .byte 0x00
            0x0044f24d      .byte 0x08
            0x0044f24e      .byte 0x00
            0x0044f24f      .byte 0x00
            0x0044f250      .byte 0x00
            0x0044f251      .byte 0x08
            0x0044f252      .byte 0x00
            0x0044f253      .byte 0x00
            0x0044f254      .byte 0x00
            0x0044f255      .byte 0x00
            0x0044f256      .byte 0x00
            0x0044f257      .byte 0x00
            0x0044f258      .byte 0x00
            0x0044f259      .byte 0x00
            0x0044f25a      .byte 0x00
            0x0044f25b      .byte 0x00
            0x0044f25c      .byte 0x00
            0x0044f25d      .byte 0x00
            0x0044f25e      .byte 0x00
            0x0044f25f      .byte 0x00
            0x0044f260      .byte 0x00
            0x0044f261      .byte 0x00
            0x0044f262      .byte 0x00
            0x0044f263      .byte 0x04
            0x0044f264      .byte 0x00
            0x0044f265      .byte 0x08
            0x0044f266      .byte 0x00
            0x0044f267      .byte 0x00
            0x0044f268      .byte 0x00
            0x0044f269      .byte 0x0a
            0x0044f26a      .byte 0x00
            0x0044f26b      .byte 0x00
            0x0044f26c      .byte 0x00
            0x0044f26d      .byte 0x0a
            0x0044f26e      .byte 0x00
            0x0044f26f      .byte 0x00
            0x0044f270      .byte 0x00
            0x0044f271      .byte 0x0b
            0x0044f272      .byte 0x00
            0x0044f273      .byte 0x00
            0x0044f274      .byte 0x00
            0x0044f275      .byte 0x0b
            0x0044f276      .byte 0x00
            0x0044f277      .byte 0x00
            0x0044f278      .byte 0x00
            0x0044f279      .byte 0x00
            0x0044f27a      .byte 0x00
            0x0044f27b      .byte 0x00
            0x0044f27c      .byte 0x00
            0x0044f27d      .byte 0x00
            0x0044f27e      .byte 0x00
            0x0044f27f      .byte 0x00
            0x0044f280      .byte 0x00
            0x0044f281      .byte 0x00
            0x0044f282      .byte 0x00
            0x0044f283      .byte 0x00
            0x0044f284      .byte 0x00
            0x0044f285      .byte 0x00
            0x0044f286      .byte 0x00
            0x0044f287      .byte 0x00
            0x0044f288      .byte 0x00
            0x0044f289      .byte 0x00
            0x0044f28a      .byte 0x00
            0x0044f28b      .byte 0x00
            0x0044f28c      .byte 0x00
            0x0044f28d      .byte 0x00
            0x0044f28e      .byte 0x00
            0x0044f28f      .byte 0x00
            0x0044f290      .byte 0x00
            0x0044f291      .byte 0x00
            0x0044f292      .byte 0x00
            0x0044f293      .byte 0x00
            0x0044f294      .byte 0x00
            0x0044f295      .byte 0x00
            0x0044f296      .byte 0x00
            0x0044f297      .byte 0x02
            0x0044f298      .byte 0x00
            0x0044f299      .byte 0x04
            0x0044f29a      .byte 0x00
            0x0044f29b      .byte 0x00
            0x0044f29c      .byte 0x00
            0x0044f29d      .byte 0x02
            0x0044f29e      .byte 0x00
            0x0044f29f      .byte 0x00
            0x0044f2a0      .byte 0x00
            0x0044f2a1      .byte 0x02
            0x0044f2a2      .byte 0x00
            0x0044f2a3      .byte 0x00
            0x0044f2a4      .byte 0x00
            0x0044f2a5      .byte 0x03
            0x0044f2a6      .byte 0x00
            0x0044f2a7      .byte 0x00
            0x0044f2a8      .byte 0x00
            0x0044f2a9      .byte 0x03
            0x0044f2aa      .byte 0x00
            0x0044f2ab      .byte 0x00
            0x0044f2ac      .byte 0x00
            0x0044f2ad      .byte 0x00
            0x0044f2ae      .byte 0x00
            0x0044f2af      .byte 0x00
            0x0044f2b0      .byte 0x00
            0x0044f2b1      .byte 0x00
            0x0044f2b2      .byte 0x00
            0x0044f2b3      .byte 0x00
            0x0044f2b4      .byte 0x00
            0x0044f2b5      .byte 0x00
            0x0044f2b6      .byte 0x00
            0x0044f2b7      .byte 0x00
            0x0044f2b8      .byte 0x00
            0x0044f2b9      .byte 0x00
            0x0044f2ba      .byte 0x00
            0x0044f2bb      .byte 0x00
            0x0044f2bc      .byte 0x00
            0x0044f2bd      .byte 0x00
            0x0044f2be      .byte 0x00
            0x0044f2bf      .byte 0x00
            0x0044f2c0      .byte 0x00
            0x0044f2c1      .byte 0x00
            0x0044f2c2      .byte 0x00
            0x0044f2c3      .byte 0x00
            0x0044f2c4      .byte 0x00
            0x0044f2c5      .byte 0x00
            0x0044f2c6      .byte 0x00
            0x0044f2c7      .byte 0x00
            0x0044f2c8      .byte 0x00
            0x0044f2c9      .byte 0x00
            0x0044f2ca      .byte 0x00
            0x0044f2cb      .byte 0x02
            0x0044f2cc      .byte 0x00
            0x0044f2cd      .byte 0x04
            0x0044f2ce      .byte 0x00
            0x0044f2cf      .byte 0x00
            0x0044f2d0      .byte 0x00
            0x0044f2d1      .byte 0x0a
            0x0044f2d2      .byte 0x00
            0x0044f2d3      .byte 0x00
            0x0044f2d4      .byte 0x00
            0x0044f2d5      .byte 0x0b
            0x0044f2d6      .byte 0x00
            0x0044f2d7      .byte 0x00
            0x0044f2d8      .byte 0x00
            0x0044f2d9      .byte 0x00
            0x0044f2da      .byte 0x00
            0x0044f2db      .byte 0x00
            0x0044f2dc      .byte 0x00
            0x0044f2dd      .byte 0x00
            0x0044f2de      .byte 0x00
            0x0044f2df      .byte 0x00
            0x0044f2e0      .byte 0x00
            0x0044f2e1      .byte 0x00
            0x0044f2e2      .byte 0x00
            0x0044f2e3      .byte 0x00
            0x0044f2e4      .byte 0x00
            0x0044f2e5      .byte 0x00
            0x0044f2e6      .byte 0x00
            0x0044f2e7      .byte 0x00
            0x0044f2e8      .byte 0x00
            0x0044f2e9      .byte 0x00
            0x0044f2ea      .byte 0x00
            0x0044f2eb      .byte 0x00
            0x0044f2ec      .byte 0x00
            0x0044f2ed      .byte 0x00
            0x0044f2ee      .byte 0x00
            0x0044f2ef      .byte 0x00
            0x0044f2f0      .byte 0x00
            0x0044f2f1      .byte 0x00
            0x0044f2f2      .byte 0x00
            0x0044f2f3      .byte 0x00
            0x0044f2f4      .byte 0x00
            0x0044f2f5      .byte 0x00
            0x0044f2f6      .byte 0x00
            0x0044f2f7      .byte 0x00
            0x0044f2f8      .byte 0x00
            0x0044f2f9      .byte 0x00
            0x0044f2fa      .byte 0x00
            0x0044f2fb      .byte 0x00
            0x0044f2fc      .byte 0x00
            0x0044f2fd      .byte 0x00
            0x0044f2fe      .byte 0x00
            0x0044f2ff      .byte 0x01
            0x0044f300      .byte 0x00
            0x0044f301      .byte 0x02
            0x0044f302      .byte 0x00
            0x0044f303      .byte 0x00
            0x0044f304      .byte 0x00
            0x0044f305      .byte 0x02
            0x0044f306      .byte 0x00
            0x0044f307      .byte 0x00
            0x0044f308      .byte 0x00
            0x0044f309      .byte 0x03
            0x0044f30a      .byte 0x00
            0x0044f30b      .byte 0x00
            0x0044f30c      .byte 0x00
            0x0044f30d      .byte 0x00
            0x0044f30e      .byte 0x00
            0x0044f30f      .byte 0x00
            0x0044f310      .byte 0x00
            0x0044f311      .byte 0x00
            0x0044f312      .byte 0x00
            0x0044f313      .byte 0x00
            0x0044f314      .byte 0x00
            0x0044f315      .byte 0x00
            0x0044f316      .byte 0x00
            0x0044f317      .byte 0x00
            0x0044f318      .byte 0x00
            0x0044f319      .byte 0x00
            0x0044f31a      .byte 0x00
            0x0044f31b      .byte 0x00
            0x0044f31c      .byte 0x00
            0x0044f31d      .byte 0x00
            0x0044f31e      .byte 0x00
            0x0044f31f      .byte 0x00
            0x0044f320      .byte 0x00
            0x0044f321      .byte 0x00
            0x0044f322      .byte 0x00
            0x0044f323      .byte 0x00
            0x0044f324      .byte 0x00
            0x0044f325      .byte 0x00
            0x0044f326      .byte 0x00
            0x0044f327      .byte 0x00
            0x0044f328      .byte 0x00
            0x0044f329      .byte 0x00
            0x0044f32a      .byte 0x00
            0x0044f32b      .byte 0x00
            0x0044f32c      .byte 0x00
            0x0044f32d      .byte 0x00
            0x0044f32e      .byte 0x00
            0x0044f32f      .byte 0x00
            0x0044f330      .byte 0x00
            0x0044f331      .byte 0x00
            0x0044f332      .byte 0x00
            0x0044f333      .byte 0x01
            0x0044f334      .byte 0x00
            0x0044f335      .byte 0x02
            0x0044f336      .byte 0x00
            0x0044f337      .byte 0x00
            0x0044f338      .byte 0x00
            0x0044f339      .byte 0x0a
            0x0044f33a      .byte 0x00
            0x0044f33b      .byte 0x00
            0x0044f33c      .byte 0x00
            0x0044f33d      .byte 0x0a
            0x0044f33e      .byte 0x00
            0x0044f33f      .byte 0x00
            0x0044f340      .byte 0x00
            0x0044f341      .byte 0x0c
            0x0044f342      .byte 0x00
            0x0044f343      .byte 0x00
            0x0044f344      .byte 0x00
            0x0044f345      .byte 0x0c
            0x0044f346      .byte 0x00
            0x0044f347      .byte 0x00
            0x0044f348      .byte 0x00
            0x0044f349      .byte 0x00
            0x0044f34a      .byte 0x00
            0x0044f34b      .byte 0x00
            0x0044f34c      .byte 0x00
            0x0044f34d      .byte 0x00
            0x0044f34e      .byte 0x00
            0x0044f34f      .byte 0x00
            0x0044f350      .byte 0x00
            0x0044f351      .byte 0x00
            0x0044f352      .byte 0x00
            0x0044f353      .byte 0x00
            0x0044f354      .byte 0x00
            0x0044f355      .byte 0x00
            0x0044f356      .byte 0x00
            0x0044f357      .byte 0x00
            0x0044f358      .byte 0x00
            0x0044f359      .byte 0x00
            0x0044f35a      .byte 0x00
            0x0044f35b      .byte 0x00
            0x0044f35c      .byte 0x00
            0x0044f35d      .byte 0x00
            0x0044f35e      .byte 0x00
            0x0044f35f      .byte 0x00
            0x0044f360      .byte 0x00
            0x0044f361      .byte 0x00
            0x0044f362      .byte 0x00
            0x0044f363      .byte 0x00
            0x0044f364      .byte 0x00
            0x0044f365      .byte 0x00
            0x0044f366      .byte 0x00
            0x0044f367      .byte 0x02
            0x0044f368      .byte 0x00
            0x0044f369      .byte 0x04
            0x0044f36a      .byte 0x00
            0x0044f36b      .byte 0x00
            0x0044f36c      .byte 0x00
            0x0044f36d      .byte 0x02
            0x0044f36e      .byte 0x00
            0x0044f36f      .byte 0x00
            0x0044f370      .byte 0x00
            0x0044f371      .byte 0x02
            0x0044f372      .byte 0x00
            0x0044f373      .byte 0x00
            0x0044f374      .byte 0x00
            0x0044f375      .byte 0x09
            0x0044f376      .byte 0x00
            0x0044f377      .byte 0x00
            0x0044f378      .byte 0x00
            0x0044f379      .byte 0x09
            0x0044f37a      .byte 0x00
            0x0044f37b      .byte 0x00
            0x0044f37c      .byte 0x00
            0x0044f37d      .byte 0x00
            0x0044f37e      .byte 0x00
            0x0044f37f      .byte 0x00
            0x0044f380      .byte 0x00
            0x0044f381      .byte 0x00
            0x0044f382      .byte 0x00
            0x0044f383      .byte 0x00
            0x0044f384      .byte 0x00
            0x0044f385      .byte 0x00
            0x0044f386      .byte 0x00
            0x0044f387      .byte 0x00
            0x0044f388      .byte 0x00
            0x0044f389      .byte 0x00
            0x0044f38a      .byte 0x00
            0x0044f38b      .byte 0x00
            0x0044f38c      .byte 0x00
            0x0044f38d      .byte 0x00
            0x0044f38e      .byte 0x00
            0x0044f38f      .byte 0x00
            0x0044f390      .byte 0x00
            0x0044f391      .byte 0x00
            0x0044f392      .byte 0x00
            0x0044f393      .byte 0x00
            0x0044f394      .byte 0x00
            0x0044f395      .byte 0x00
            0x0044f396      .byte 0x00
            0x0044f397      .byte 0x00
            0x0044f398      .byte 0x00
            0x0044f399      .byte 0x00
            0x0044f39a      .byte 0x00
            0x0044f39b      .byte 0x02
            0x0044f39c      .byte 0x00
            0x0044f39d      .byte 0x04
            0x0044f39e      .byte 0x00
            0x0044f39f      .byte 0x00
            0x0044f3a0      .byte 0x00
            0x0044f3a1      .byte 0x0a
            0x0044f3a2      .byte 0x00
            0x0044f3a3      .byte 0x00
            0x0044f3a4      .byte 0x00
            0x0044f3a5      .byte 0x0c
            0x0044f3a6      .byte 0x00
            0x0044f3a7      .byte 0x00
            0x0044f3a8      .byte 0x00
            0x0044f3a9      .byte 0x00
            0x0044f3aa      .byte 0x00
            0x0044f3ab      .byte 0x00
            0x0044f3ac      .byte 0x00
            0x0044f3ad      .byte 0x00
            0x0044f3ae      .byte 0x00
            0x0044f3af      .byte 0x00
            0x0044f3b0      .byte 0x00
            0x0044f3b1      .byte 0x00
            0x0044f3b2      .byte 0x00
            0x0044f3b3      .byte 0x00
            0x0044f3b4      .byte 0x00
            0x0044f3b5      .byte 0x00
            0x0044f3b6      .byte 0x00
            0x0044f3b7      .byte 0x00
            0x0044f3b8      .byte 0x00
            0x0044f3b9      .byte 0x00
            0x0044f3ba      .byte 0x00
            0x0044f3bb      .byte 0x00
            0x0044f3bc      .byte 0x00
            0x0044f3bd      .byte 0x00
            0x0044f3be      .byte 0x00
            0x0044f3bf      .byte 0x00
            0x0044f3c0      .byte 0x00
            0x0044f3c1      .byte 0x00
            0x0044f3c2      .byte 0x00
            0x0044f3c3      .byte 0x00
            0x0044f3c4      .byte 0x00
            0x0044f3c5      .byte 0x00
            0x0044f3c6      .byte 0x00
            0x0044f3c7      .byte 0x00
            0x0044f3c8      .byte 0x00
            0x0044f3c9      .byte 0x00
            0x0044f3ca      .byte 0x00
            0x0044f3cb      .byte 0x00
            0x0044f3cc      .byte 0x00
            0x0044f3cd      .byte 0x00
            0x0044f3ce      .byte 0x00
            0x0044f3cf      .byte 0x01
            0x0044f3d0      .byte 0x00
            0x0044f3d1      .byte 0x02
            0x0044f3d2      .byte 0x00
            0x0044f3d3      .byte 0x00
            0x0044f3d4      .byte 0x00
            0x0044f3d5      .byte 0x02
            0x0044f3d6      .byte 0x00
            0x0044f3d7      .byte 0x00
            0x0044f3d8      .byte 0x00
            0x0044f3d9      .byte 0x09
            0x0044f3da      .byte 0x00
            0x0044f3db      .byte 0x00
            0x0044f3dc      .byte 0x00
            0x0044f3dd      .byte 0x00
            0x0044f3de      .byte 0x00
            0x0044f3df      .byte 0x00
            0x0044f3e0      .byte 0x00
            0x0044f3e1      .byte 0x00
            0x0044f3e2      .byte 0x00
            0x0044f3e3      .byte 0x00
            0x0044f3e4      .byte 0x00
            0x0044f3e5      .byte 0x00
            0x0044f3e6      .byte 0x00
            0x0044f3e7      .byte 0x00
            0x0044f3e8      .byte 0x00
            0x0044f3e9      .byte 0x00
            0x0044f3ea      .byte 0x00
            0x0044f3eb      .byte 0x00
            0x0044f3ec      .byte 0x00
            0x0044f3ed      .byte 0x00
            0x0044f3ee      .byte 0x00
            0x0044f3ef      .byte 0x00
            0x0044f3f0      .byte 0x00
            0x0044f3f1      .byte 0x00
            0x0044f3f2      .byte 0x00
            0x0044f3f3      .byte 0x00
            0x0044f3f4      .byte 0x00
            0x0044f3f5      .byte 0x00
            0x0044f3f6      .byte 0x00
            0x0044f3f7      .byte 0x00
            0x0044f3f8      .byte 0x00
            0x0044f3f9      .byte 0x00
            0x0044f3fa      .byte 0x00
            0x0044f3fb      .byte 0x00
            0x0044f3fc      .byte 0x00
            0x0044f3fd      .byte 0x00
            0x0044f3fe      .byte 0x00
            0x0044f3ff      .byte 0x00
            0x0044f400      .byte 0x00
            0x0044f401      .byte 0x00
            0x0044f402      .byte 0x00
            0x0044f403      .byte 0x01
            0x0044f404      .byte 0x00
            0x0044f405      .byte 0x02
            0x0044f406      .byte 0x23
            0x0044f407     .string "**** Soft assert : safe area origin" ; len=35
            0x0044f42a      .byte 0x00
            0x0044f42b      .byte 0x00
            0x0044f42c      .byte 0x00
            0x0044f42d      .byte 0x0d
            0x0044f42e      .byte 0x00
            0x0044f42f      .byte 0x00
            0x0044f430      .byte 0x00
            0x0044f431      .byte 0x0d
            0x0044f432      .byte 0x00
            0x0044f433      .byte 0x00
            0x0044f434      .byte 0x00
            0x0044f435      .byte 0x06
            0x0044f436      .byte 0x00
            0x0044f437      .byte 0x00
            0x0044f438      .byte 0x00
            0x0044f439      .byte 0x00
            0x0044f43a      .byte 0x00
            0x0044f43b      .byte 0x02
            0x0044f43c      .byte 0x00
            0x0044f43d      .byte 0x03
            0x0044f43e      .byte 0x00
            0x0044f43f      .byte 0x00
            0x0044f440      .byte 0x00
            0x0044f441      .byte 0x06
            0x0044f442      .byte 0x00
            0x0044f443      .byte 0x00
            0x0044f444      .byte 0x00
            0x0044f445      .byte 0x06
            0x0044f446      .byte 0x00
            0x0044f447      .byte 0x00
            0x0044f448      .byte 0x00
            0x0044f449      .byte 0x08
            0x0044f44a      .byte 0x00
            0x0044f44b      .byte 0x00
            0x0044f44c      .byte 0x00
            0x0044f44d      .byte 0x00
            0x0044f44e      .byte 0x00
            0x0044f44f      .byte 0x02
            0x0044f450      .byte 0x00
            0x0044f451      .byte 0x03
            0x0044f452      .byte 0x00
            0x0044f453      .byte 0x00
            0x0044f454      .byte 0x00
            0x0044f455      .byte 0x0d
            0x0044f456      .byte 0x00
            0x0044f457      .byte 0x00
            0x0044f458      .byte 0x00
            0x0044f459      .byte 0x0d
            0x0044f45a      .byte 0x00
            0x0044f45b      .byte 0x00
            0x0044f45c      .byte 0x00
            0x0044f45d      .byte 0x07
            0x0044f45e      .byte 0x00
            0x0044f45f      .byte 0x00
            0x0044f460      .byte 0x00
            0x0044f461      .byte 0x07
            0x0044f462      .byte 0x00
            0x0044f463      .byte 0x02
            0x0044f464      .byte 0x00
            0x0044f465      .byte 0x04
            0x0044f466      .byte 0x00
            0x0044f467      .byte 0x00
            0x0044f468      .byte 0x00
            0x0044f469      .byte 0x0b
            0x0044f46a      .byte 0x00
            0x0044f46b      .byte 0x00
            0x0044f46c      .byte 0x00
            0x0044f46d      .byte 0x0b
            0x0044f46e      .byte 0x00
            0x0044f46f      .byte 0x00
            0x0044f470      .byte 0x00
            0x0044f471      .byte 0x04
            0x0044f472      .byte 0x00
            0x0044f473      .byte 0x00
            0x0044f474      .byte 0x00
            0x0044f475      .byte 0x04
            0x0044f476      .byte 0x00
            0x0044f477      .byte 0x02
            0x0044f478      .byte 0x00
            0x0044f479      .byte 0x04
            0x0044f47a      .byte 0x00
            0x0044f47b      .byte 0x00
            0x0044f47c      .byte 0x00
            0x0044f47d      .byte 0x01
            0x0044f47e      .byte 0x00
            0x0044f47f      .byte 0x00
            0x0044f480      .byte 0x00
            0x0044f481      .byte 0x01
            0x0044f482      .byte 0x00
            0x0044f483      .byte 0x00
            0x0044f484      .byte 0x00
            0x0044f485      .byte 0x07
            0x0044f486      .byte 0x00
            0x0044f487      .byte 0x00
            0x0044f488      .byte 0x00
            0x0044f489      .byte 0x07
            0x0044f48a      .byte 0x00
            0x0044f48b      .byte 0x02
            0x0044f48c      .byte 0x00
            0x0044f48d      .byte 0x04
            0x0044f48e      .byte 0x00
            0x0044f48f      .byte 0x00
            0x0044f490      .byte 0x00
            0x0044f491      .byte 0x02
            0x0044f492      .byte 0x00
            0x0044f493      .byte 0x00
            0x0044f494      .byte 0x00
            0x0044f495      .byte 0x02
            0x0044f496      .byte 0x00
            0x0044f497      .byte 0x00
            0x0044f498      .byte 0x00
            0x0044f499      .byte 0x04
            0x0044f49a      .byte 0x00
            0x0044f49b      .byte 0x00
            0x0044f49c      .byte 0x00
            0x0044f49d      .byte 0x04
            0x0044f49e      .byte 0x00
            0x0044f49f      .byte 0x02
            0x0044f4a0      .byte 0x00
            0x0044f4a1      .byte 0x04
            0x0044f4a2      .byte 0x00
            0x0044f4a3      .byte 0x00
            0x0044f4a4      .byte 0x00
            0x0044f4a5      .byte 0x0d
            0x0044f4a6      .byte 0x00
            0x0044f4a7      .byte 0x00
            0x0044f4a8      .byte 0x00
            0x0044f4a9      .byte 0x0d
            0x0044f4aa      .byte 0x00
            0x0044f4ab      .byte 0x00
            0x0044f4ac      .byte 0x00
            0x0044f4ad      .byte 0x06
            0x0044f4ae      .byte 0x00
            0x0044f4af      .byte 0x00
            0x0044f4b0      .byte 0x00
            0x0044f4b1      .byte 0x06
            0x0044f4b2      .byte 0x00
            0x0044f4b3      .byte 0x02
            0x0044f4b4      .byte 0x00
            0x0044f4b5      .byte 0x04
            0x0044f4b6      .byte 0x00
            0x0044f4b7      .byte 0x00
            0x0044f4b8      .byte 0x00
            0x0044f4b9      .byte 0x0b
            0x0044f4ba      .byte 0x00
            0x0044f4bb      .byte 0x00
            0x0044f4bc      .byte 0x00
            0x0044f4bd      .byte 0x0b
            0x0044f4be      .byte 0x00
            0x0044f4bf      .byte 0x00
            0x0044f4c0      .byte 0x00
            0x0044f4c1      .byte 0x05
            0x0044f4c2      .byte 0x00
            0x0044f4c3      .byte 0x00
            0x0044f4c4      .byte 0x00
            0x0044f4c5      .byte 0x05
            0x0044f4c6      .byte 0x00
            0x0044f4c7      .byte 0x02
            0x0044f4c8      .byte 0x00
            0x0044f4c9      .byte 0x04
            0x0044f4ca      .byte 0x00
            0x0044f4cb      .byte 0x00
            0x0044f4cc      .byte 0x00
            0x0044f4cd      .byte 0x0d
            0x0044f4ce      .byte 0x00
            0x0044f4cf      .byte 0x00
            0x0044f4d0      .byte 0x00
            0x0044f4d1      .byte 0x07
            0x0044f4d2      .byte 0x00
            0x0044f4d3      .byte 0x00
            0x0044f4d4      .byte 0x00
            0x0044f4d5      .byte 0x00
            0x0044f4d6      .byte 0x00
            0x0044f4d7      .byte 0x00
            0x0044f4d8      .byte 0x00
            0x0044f4d9      .byte 0x00
            0x0044f4da      .byte 0x00
            0x0044f4db      .byte 0x01
            0x0044f4dc      .byte 0x00
            0x0044f4dd      .byte 0x02
            0x0044f4de      .byte 0x00
            0x0044f4df      .byte 0x00
            0x0044f4e0      .byte 0x00
            0x0044f4e1      .byte 0x0b
            0x0044f4e2      .byte 0x00
            0x0044f4e3      .byte 0x00
            0x0044f4e4      .byte 0x00
            0x0044f4e5      .byte 0x04
            0x0044f4e6      .byte 0x00
            0x0044f4e7      .byte 0x00
            0x0044f4e8      .byte 0x00
            0x0044f4e9      .byte 0x00
            0x0044f4ea      .byte 0x00
            0x0044f4eb      .byte 0x00
            0x0044f4ec      .byte 0x00
            0x0044f4ed      .byte 0x00
            0x0044f4ee      .byte 0x00
            0x0044f4ef      .byte 0x01
            0x0044f4f0      .byte 0x00
            0x0044f4f1      .byte 0x02
            0x0044f4f2      .byte 0x00
            0x0044f4f3      .byte 0x00
            0x0044f4f4      .byte 0x00
            0x0044f4f5      .byte 0x01
            0x0044f4f6      .byte 0x00
            0x0044f4f7      .byte 0x00
            0x0044f4f8      .byte 0x00
            0x0044f4f9      .byte 0x07
            0x0044f4fa      .byte 0x00
            0x0044f4fb      .byte 0x00
            0x0044f4fc      .byte 0x00
            0x0044f4fd      .byte 0x00
            0x0044f4fe      .byte 0x00
            0x0044f4ff      .byte 0x00
            0x0044f500      .byte 0x00
            0x0044f501      .byte 0x00
            0x0044f502      .byte 0x00
            0x0044f503      .byte 0x01
            0x0044f504      .byte 0x00
            0x0044f505      .byte 0x02
            0x0044f506      .byte 0x00
            0x0044f507      .byte 0x00
            0x0044f508      .byte 0x00
            0x0044f509      .byte 0x02
            0x0044f50a      .byte 0x00
            0x0044f50b      .byte 0x00
            0x0044f50c      .byte 0x00
            0x0044f50d      .byte 0x04
            0x0044f50e      .byte 0x00
            0x0044f50f      .byte 0x00
            0x0044f510      .byte 0x00
            0x0044f511      .byte 0x00
            0x0044f512      .byte 0x00
            0x0044f513      .byte 0x00
            0x0044f514      .byte 0x00
            0x0044f515      .byte 0x00
            0x0044f516      .byte 0x00
            0x0044f517      .byte 0x01
            0x0044f518      .byte 0x00
            0x0044f519      .byte 0x02
            0x0044f51a      .byte 0x00
            0x0044f51b      .byte 0x00
            0x0044f51c      .byte 0x00
            0x0044f51d      .byte 0x0d
            0x0044f51e      .byte 0x00
            0x0044f51f      .byte 0x00
            0x0044f520      .byte 0x00
            0x0044f521      .byte 0x06
            0x0044f522      .byte 0x00
            0x0044f523      .byte 0x00
            0x0044f524      .byte 0x00
            0x0044f525      .byte 0x00
            0x0044f526      .byte 0x00
            0x0044f527      .byte 0x00
            0x0044f528      .byte 0x00
            0x0044f529      .byte 0x00
            0x0044f52a      .byte 0x00
            0x0044f52b      .byte 0x01
            0x0044f52c      .byte 0x00
            0x0044f52d      .byte 0x02
            0x0044f52e      .byte 0x00
            0x0044f52f      .byte 0x00
            0x0044f530      .byte 0x00
            0x0044f531      .byte 0x0b
            0x0044f532      .byte 0x00
            0x0044f533      .byte 0x00
            0x0044f534      .byte 0x00
            0x0044f535      .byte 0x05
            0x0044f536      .byte 0x00
            0x0044f537      .byte 0x00
            0x0044f538      .byte 0x00
            0x0044f539      .byte 0x00
            0x0044f53a      .byte 0x00
            0x0044f53b      .byte 0x00
            0x0044f53c      .byte 0x00
            0x0044f53d      .byte 0x00
            0x0044f53e      .byte 0x00
            0x0044f53f      .byte 0x01
            0x0044f540      .byte 0x00
            0x0044f541      .byte 0x02
            0x0044f542      .byte 0x23
            0x0044f543     .string "**** Soft assert : safe area origin" ; len=35
            0x0044f566      .byte 0x0e
            0x0044f567     .string "c_no_cross csr" ; len=14
            0x0044f575      .byte 0x24
            0x0044f576     .string "c0_cursor_off - wiping cursor store " ; len=36
            0x0044f59a      .byte 0x24
            0x0044f59b     .string "c0_cur_offset. Cursor_scroll_offset " ; len=36
            0x0044f5bf      .byte 0x24
            0x0044f5c0     .string "c0_cur_offset. Cursor_scroll_offset " ; len=36
            0x0044f5e4      .byte 0x21
            0x0044f5e5     .string "c0_gr_offset. Grid_scroll_offset " ; len=33
            0x0044f606      .byte 0x21
            0x0044f607     .string "c0_gr_offset. Grid_scroll_offset " ; len=33
            0x0044f628      .byte 0x00
            0x0044f629      .byte 0x10
            0x0044f62a      .byte 0x00
            0x0044f62b      .byte 0x10
            0x0044f62c      .byte 0x00
            0x0044f62d      .byte 0x00
            0x0044f62e      .byte 0xff
            0x0044f62f      .byte 0xb7
            0x0044f630      .byte 0xff
            0x0044f631      .byte 0xc5
            0x0044f632      .byte 0x00
            0x0044f633      .byte 0x0f
            0x0044f634      .byte 0x02
            0x0044f635      .byte 0xbc
            0x0044f636      .byte 0x02
            0x0044f637      .byte 0x08
            0x0044f638      .byte 0x00
            0x0044f639      .byte 0x10
            0x0044f63a      .byte 0x00
            0x0044f63b      .byte 0x10
            0x0044f63c      .byte 0x00
            0x0044f63d      .byte 0x00
            0x0044f63e      .byte 0xff
            0x0044f63f      .byte 0x97
            0x0044f640      .byte 0xff
            0x0044f641      .byte 0xa5
            0x0044f642      .byte 0x00
            0x0044f643      .byte 0x0f
            0x0044f644      .byte 0x02
            0x0044f645      .byte 0xd0
            0x0044f646      .byte 0x02
            0x0044f647      .byte 0x40
            0x0044f648      .byte 0x00
            0x0044f649      .byte 0x10
            0x0044f64a      .byte 0x00
            0x0044f64b      .byte 0x10
            0x0044f64c      .byte 0x00
            0x0044f64d      .byte 0x00
            0x0044f64e      .byte 0xff
            0x0044f64f      .byte 0x97
            0x0044f650      .byte 0xff
            0x0044f651      .byte 0xa5
            0x0044f652      .byte 0x00
            0x0044f653      .byte 0x0f
            0x0044f654      .byte 0x02
            0x0044f655      .byte 0xd0
            0x0044f656      .byte 0x01
            0x0044f657      .byte 0xe6
            0x0044f658      .byte 0x00
            0x0044f659      .byte 0x10
            0x0044f65a      .byte 0x00
            0x0044f65b      .byte 0x10
            0x0044f65c      .byte 0x00
            0x0044f65d      .byte 0x00
            0x0044f65e      .byte 0xff
            0x0044f65f      .byte 0xb3
            0x0044f660      .byte 0xff
            0x0044f661      .byte 0xc1
            0x0044f662      .byte 0x00
            0x0044f663      .byte 0x0f
            0x0044f664      .byte 0x02
            0x0044f665      .byte 0xb0
            0x0044f666      .byte 0x02
            0x0044f667      .byte 0x08
            0x0044f668      .byte 0x00
            0x0044f669      .byte 0x10
            0x0044f66a      .byte 0x00
            0x0044f66b      .byte 0x10
            0x0044f66c      .byte 0x00
            0x0044f66d      .byte 0x00
            0x0044f66e      .byte 0xff
            0x0044f66f      .byte 0xfd
            0x0044f670      .byte 0x00
            0x0044f671      .byte 0x0d
            0x0044f672      .byte 0x00
            0x0044f673      .byte 0x10
            0x0044f674      .byte 0x02
            0x0044f675      .byte 0xd0
            0x0044f676      .byte 0x02
            0x0044f677      .byte 0x00
            0x0044f678      .byte 0x00
            0x0044f679      .byte 0x10
            0x0044f67a      .byte 0x00
            0x0044f67b      .byte 0x10
            0x0044f67c      .byte 0x00
            0x0044f67d      .byte 0x00
            0x0044f67e      .byte 0xff
            0x0044f67f      .byte 0xfd
            0x0044f680      .byte 0x00
            0x0044f681      .byte 0x0c
            0x0044f682      .byte 0x00
            0x0044f683      .byte 0x0e
            0x0044f684      .byte 0x02
            0x0044f685      .byte 0xd0
            0x0044f686      .byte 0x02
            0x0044f687      .byte 0x00
            0x0044f688      .byte 0x02
            0x0044f689      .byte 0xd0
            0x0044f68a      .byte 0x02
            0x0044f68b      .byte 0x00
            0x0044f68c      .byte 0x00
            0x0044f68d      .byte 0x10
            0x0044f68e      .byte 0x00
            0x0044f68f      .byte 0x10
            0x0044f690      .byte 0xff
            0x0044f691      .byte 0x84
            0x0044f692      .byte 0xff
            0x0044f693      .byte 0xfa
            0x0044f694      .byte 0xff
            0x0044f695      .byte 0x94
            0x0044f696      .byte 0x00
            0x0044f697      .byte 0x0a
            0x0044f698      .byte 0x00
            0x0044f699      .byte 0x10
            0x0044f69a      .byte 0x00
            0x0044f69b      .byte 0x10
            0x0044f69c      .byte 0xff
            0x0044f69d      .byte 0x84
            0x0044f69e      .byte 0xff
            0x0044f69f      .byte 0xfa
            0x0044f6a0      .byte 0xff
            0x0044f6a1      .byte 0x94
            0x0044f6a2      .byte 0x00
            0x0044f6a3      .byte 0x0a
            0x0044f6a4      .byte 0x00
            0x0044f6a5      .byte 0x10
            0x0044f6a6      .byte 0x00
            0x0044f6a7      .byte 0x10
            0x0044f6a8      .byte 0xff
            0x0044f6a9      .byte 0x88
            0x0044f6aa      .byte 0xff
            0x0044f6ab      .byte 0xf8
            0x0044f6ac      .byte 0xff
            0x0044f6ad      .byte 0x98
            0x0044f6ae      .byte 0x00
            0x0044f6af      .byte 0x0a
            0x0044f6b0      .byte 0x00
            0x0044f6b1      .byte 0x10
            0x0044f6b2      .byte 0x00
            0x0044f6b3      .byte 0x10
            0x0044f6b4      .byte 0xff
            0x0044f6b5      .byte 0x86
            0x0044f6b6      .byte 0xff
            0x0044f6b7      .byte 0xfa
            0x0044f6b8      .byte 0xff
            0x0044f6b9      .byte 0x98
            0x0044f6ba      .byte 0x00
            0x0044f6bb      .byte 0x0a
            0x0044f6bc      .byte 0x00
            0x0044f6bd      .byte 0x10
            0x0044f6be      .byte 0x00
            0x0044f6bf      .byte 0x10
            0x0044f6c0      .byte 0xff
            0x0044f6c1      .byte 0x7d
            0x0044f6c2      .byte 0xff
            0x0044f6c3      .byte 0xdf
            0x0044f6c4      .byte 0xff
            0x0044f6c5      .byte 0x8e
            0x0044f6c6      .byte 0xff
            0x0044f6c7      .byte 0xef
            0x0044f6c8      .byte 0x00
            0x0044f6c9      .byte 0x10
            0x0044f6ca      .byte 0x00
            0x0044f6cb      .byte 0x10
            0x0044f6cc      .byte 0xff
            0x0044f6cd      .byte 0x7d
            0x0044f6ce      .byte 0xff
            0x0044f6cf      .byte 0xd3
            0x0044f6d0      .byte 0xff
            0x0044f6d1      .byte 0x8e
            0x0044f6d2      .byte 0xff
            0x0044f6d3      .byte 0xe3
            0x0044f6d4      .byte 0x00
            0x0044f6d5      .byte 0x10
            0x0044f6d6      .byte 0x00
            0x0044f6d7      .byte 0x10
            0x0044f6d8      .byte 0xff
            0x0044f6d9      .byte 0x7d
            0x0044f6da      .byte 0xff
            0x0044f6db      .byte 0xdf
            0x0044f6dc      .byte 0xff
            0x0044f6dd      .byte 0x8d
            0x0044f6de      .byte 0xff
            0x0044f6df      .byte 0xef
            0x0044f6e0      .byte 0x00
            0x0044f6e1      .byte 0x10
            0x0044f6e2      .byte 0x00
            0x0044f6e3      .byte 0x10
            0x0044f6e4      .byte 0xff
            0x0044f6e5      .byte 0x7d
            0x0044f6e6      .byte 0xff
            0x0044f6e7      .byte 0xd3
            0x0044f6e8      .byte 0xff
            0x0044f6e9      .byte 0x8d
            0x0044f6ea      .byte 0xff
            0x0044f6eb      .byte 0xe3
            0x0044f6ec      .byte 0x40
            0x0044f6ed      .byte 0x03
 62: C0_CURSOR_DRIVER.ok_to_update_th ();
           0x0044f6ee      4e56fff4       link.w a6, 0xfff4
           0x0044f6f2      bfd5           cmpa.l (a5), a7
       < 0x0044f6f4      6206           bhi.b 0x44f6fc
          0x0044f6f6      44fc0002       move.w 0x2, ccr
          0x0044f6fa      4e76           trapv
       > 0x0044f6fc      defc000c       adda.w 0xc, a7
           0x0044f700      48e7c000       movem.l d0-d1, -(a7)
           0x0044f704      1039007edfea   move.b 0x7edfea, d0
           0x0044f70a      4400           neg.b d0
           0x0044f70c      5200           addq.b 0x1, d0
           0x0044f70e      1239007ed7e0   move.b 0x7ed7e0, d1
           0x0044f714      4401           neg.b d1
           0x0044f716      5201           addq.b 0x1, d1
           0x0044f718      c200           and.b d0, d1
           0x0044f71a      4881           ext.w d1
           0x0044f71c      43bc0001       chk.w 0x1, d1
           0x0044f720      1d410008       move.b d1, 0x8(a6)
           0x0044f724      4cdf0003       movem.l (a7)+, d0-d1
           0x0044f728      4e5e           unlk a6
           0x0044f72a      4e75           rts
            ; CALL XREF from C0_CURSOR_DRIVER.c_cur_enable @ 0x44fe5a
            ; CALL XREF from C0_CURSOR_DRIVER.c_grid_enable @ 0x44fe94
 72: C0_CURSOR_DRIVER.dgl_ctrl_set ();
           0x0044f72c      4e56ffd0       link.w a6, 0xffd0
           0x0044f730      bfd5           cmpa.l (a5), a7
       < 0x0044f732      6206           bhi.b 0x44f73a
          0x0044f734      44fc0002       move.w 0x2, ccr
          0x0044f738      4e76           trapv
       > 0x0044f73a      defc0030       adda.w 0x30, a7
           0x0044f73e      48e7f0e0       movem.l d0-d3/a0-a2, -(a7)
           0x0044f742      41f9007ef01e   lea.l 0x7ef01e, a0
           0x0044f748      43ee0008       lea.l 0x8(a6), a1
           0x0044f74c      45f9006d1a76   lea.l PUT_BITS, a2
           0x0044f752      223c0000ffff   move.l 0xffff, d1
           0x0044f758      740c           moveq 0xc, d2
           0x0044f75a      7601           moveq 0x1, d3
           0x0044f75c      102e000a       move.b 0xa(a6), d0
           0x0044f760      4880           ext.w d0
           0x0044f762      0c400006       cmpi.w 0x6, d0
       < 0x0044f766      6302           bls.b 0x44f76a
          0x0044f768      4e4e           trap 0xe
       > 0x0044f76a      d040           add.w d0, d0
           0x0044f76c      303b0006       move.w 0x44f774(pc, d0.w), d0
           0x0044f770      4efb0002       jmp 0x44f774(pc, d0.w)
            0x0044f774      000e0034       
            0x0044f775      0e003400       
            0x0044f776      003400540076   ori.b 0x54, 0x76(a4, d0.w)
            0x0044f77c      009800bc00e0   ori.l 0xbc00e0, (a0)+
            0x0044f782      594f           subq.w 0x4, a7
            0x0044f784      3f3c000d       move.w 0xd, -(a7)
            0x0044f788      3f03           move.w d3, -(a7)
            0x0044f78a      4280           clr.l d0
            0x0044f78c      3011           move.w (a1), d0
            0x0044f78e      2f00           move.l d0, -(a7)
            0x0044f790      3010           move.w (a0), d0
            0x0044f792      c081           and.l d1, d0
            0x0044f794      2f00           move.l d0, -(a7)
            0x0044f796      4e92           jsr (a2)                    ; fcn.00000009+0x2
            0x0044f798      dec2           adda.w d2, a7
            0x0044f79a      201f           move.l (a7)+, d0
            0x0044f79c      b081           cmp.l d1, d0
        < 0x0044f79e      6302           bls.b 0x44f7a2
           0x0044f7a0      4e4f           trap 0xf
  > 0x0044f7a2      3080           move.w d0, (a0)
  < 0x0044f7a4      600000d0       bra.w 0x44f876
     0x0044f7a8      594f           subq.w 0x4, a7
     0x0044f7aa      3f02           move.w d2, -(a7)
     0x0044f7ac      3f03           move.w d3, -(a7)
     0x0044f7ae      4280           clr.l d0
     0x0044f7b0      3011           move.w (a1), d0
     0x0044f7b2      2f00           move.l d0, -(a7)
     0x0044f7b4      3010           move.w (a0), d0
     0x0044f7b6      c081           and.l d1, d0
     0x0044f7b8      2f00           move.l d0, -(a7)
     0x0044f7ba      4e92           jsr (a2)                    ; fcn.00000009+0x2
     0x0044f7bc      dec2           adda.w d2, a7
     0x0044f7be      201f           move.l (a7)+, d0
     0x0044f7c0      b081           cmp.l d1, d0
  < 0x0044f7c2      6302           bls.b 0x44f7c6
     0x0044f7c4      4e4f           trap 0xf
  < 0x0044f7c6      60da           bra.b 0x44f7a2
      0x0044f7c8      594f           subq.w 0x4, a7
      0x0044f7ca      3f3c000a       move.w 0xa, -(a7)
      0x0044f7ce      3f03           move.w d3, -(a7)
      0x0044f7d0      4280           clr.l d0
      0x0044f7d2      3011           move.w (a1), d0
      0x0044f7d4      2f00           move.l d0, -(a7)
      0x0044f7d6      3010           move.w (a0), d0
      0x0044f7d8      c081           and.l d1, d0
      0x0044f7da      2f00           move.l d0, -(a7)
      0x0044f7dc      4e92           jsr (a2)                    ; fcn.00000009+0x2
      0x0044f7de      dec2           adda.w d2, a7
      0x0044f7e0      201f           move.l (a7)+, d0
      0x0044f7e2      b081           cmp.l d1, d0
  < 0x0044f7e4      6302           bls.b 0x44f7e8
     0x0044f7e6      4e4f           trap 0xf
  < 0x0044f7e8      60b8           bra.b 0x44f7a2
       0x0044f7ea      594f           subq.w 0x4, a7
       0x0044f7ec      3f3c0008       move.w 0x8, -(a7)
       0x0044f7f0      3f03           move.w d3, -(a7)
       0x0044f7f2      4280           clr.l d0
       0x0044f7f4      3011           move.w (a1), d0
       0x0044f7f6      2f00           move.l d0, -(a7)
       0x0044f7f8      3010           move.w (a0), d0
       0x0044f7fa      c081           and.l d1, d0
       0x0044f7fc      2f00           move.l d0, -(a7)
       0x0044f7fe      4e92           jsr (a2)                    ; fcn.00000009+0x2
       0x0044f800      dec2           adda.w d2, a7
       0x0044f802      201f           move.l (a7)+, d0
       0x0044f804      b081           cmp.l d1, d0
   < 0x0044f806      6302           bls.b 0x44f80a
      0x0044f808      4e4f           trap 0xf
   < 0x0044f80a      6096           bra.b 0x44f7a2
        0x0044f80c      594f           subq.w 0x4, a7
        0x0044f80e      3f3c0005       move.w 0x5, -(a7)
        0x0044f812      3f03           move.w d3, -(a7)
        0x0044f814      4280           clr.l d0
        0x0044f816      3011           move.w (a1), d0
        0x0044f818      2f00           move.l d0, -(a7)
        0x0044f81a      3010           move.w (a0), d0
        0x0044f81c      c081           and.l d1, d0
        0x0044f81e      2f00           move.l d0, -(a7)
        0x0044f820      4e92           jsr (a2)                    ; fcn.00000009+0x2
        0x0044f822      dec2           adda.w d2, a7
        0x0044f824      201f           move.l (a7)+, d0
        0x0044f826      b081           cmp.l d1, d0
    < 0x0044f828      6302           bls.b 0x44f82c
       0x0044f82a      4e4f           trap 0xf
    < 0x0044f82c      6000ff74       bra.w 0x44f7a2
         0x0044f830      594f           subq.w 0x4, a7
         0x0044f832      3f3c0002       move.w 0x2, -(a7)
         0x0044f836      3f03           move.w d3, -(a7)
         0x0044f838      4280           clr.l d0
         0x0044f83a      3011           move.w (a1), d0
         0x0044f83c      2f00           move.l d0, -(a7)
         0x0044f83e      3010           move.w (a0), d0
         0x0044f840      c081           and.l d1, d0
         0x0044f842      2f00           move.l d0, -(a7)
         0x0044f844      4e92           jsr (a2)                    ; fcn.00000009+0x2
         0x0044f846      dec2           adda.w d2, a7
         0x0044f848      201f           move.l (a7)+, d0
         0x0044f84a      b081           cmp.l d1, d0
     < 0x0044f84c      6302           bls.b 0x44f850
        0x0044f84e      4e4f           trap 0xf
     < 0x0044f850      6000ff50       bra.w 0x44f7a2
          0x0044f854      594f           subq.w 0x4, a7
          0x0044f856      4267           clr.w -(a7)
          0x0044f858      3f03           move.w d3, -(a7)
          0x0044f85a      4280           clr.l d0
          0x0044f85c      3011           move.w (a1), d0
          0x0044f85e      2f00           move.l d0, -(a7)
          0x0044f860      3010           move.w (a0), d0
          0x0044f862      c081           and.l d1, d0
          0x0044f864      2f00           move.l d0, -(a7)
          0x0044f866      4e92           jsr (a2)                    ; fcn.00000009+0x2
          0x0044f868      dec2           adda.w d2, a7
          0x0044f86a      201f           move.l (a7)+, d0
          0x0044f86c      b081           cmp.l d1, d0
      < 0x0044f86e      6302           bls.b 0x44f872
         0x0044f870      4e4f           trap 0xf
      < 0x0044f872      6000ff2e       bra.w 0x44f7a2
        > 0x0044f876      4cdf070f       movem.l (a7)+, d0-d3/a0-a2
            0x0044f87a      4e5e           unlk a6
            0x0044f87c      4e75           rts
 30: C0_CURSOR_DRIVER.dgl_ctrl_reg_va ();
           0x0044f87e      4e56fffc       link.w a6, 0xfffc
           0x0044f882      bfd5           cmpa.l (a5), a7
       < 0x0044f884      6206           bhi.b 0x44f88c
          0x0044f886      44fc0002       move.w 0x2, ccr
          0x0044f88a      4e76           trapv
       > 0x0044f88c      defc0004       adda.w 0x4, a7
           0x0044f890      3d79007ef01e.  move.w 0x7ef01e, 0x8(a6)
           0x0044f898      4e5e           unlk a6
           0x0044f89a      4e75           rts
            ; CALL XREF from fcn.0051a58c @ 0x51a5b6
 30: C0_CURSOR_DRIVER.hdp_ctrl_reg_va ();
           0x0044f89c      4e56fffc       link.w a6, 0xfffc
           0x0044f8a0      bfd5           cmpa.l (a5), a7
       < 0x0044f8a2      6206           bhi.b 0x44f8aa
          0x0044f8a4      44fc0002       move.w 0x2, ccr
          0x0044f8a8      4e76           trapv
       > 0x0044f8aa      defc0004       adda.w 0x4, a7
           0x0044f8ae      3d79007ef01c.  move.w 0x7ef01c, 0x8(a6)
           0x0044f8b6      4e5e           unlk a6
           0x0044f8b8      4e75           rts
            ; CALL XREF from C0_CURSOR_DRIVER.c0_init @ 0x4531fe
            ; CALL XREF from PANEL.enter_panel @ 0x775d1e
            ; CALL XREF from PANEL_OUTPUT.fade @ 0x7933a8
 76: C0_CURSOR_DRIVER.hdp_ctrl_set ();
           0x0044f8ba      4e56ffc8       link.w a6, 0xffc8
           0x0044f8be      bfd5           cmpa.l (a5), a7
       < 0x0044f8c0      6206           bhi.b 0x44f8c8
          0x0044f8c2      44fc0002       move.w 0x2, ccr
          0x0044f8c6      4e76           trapv
       > 0x0044f8c8      defc0038       adda.w 0x38, a7
           0x0044f8cc      48e7fce0       movem.l d0-d5/a0-a2, -(a7)
           0x0044f8d0      41f9007ef01c   lea.l 0x7ef01c, a0
           0x0044f8d6      43ee0008       lea.l 0x8(a6), a1
           0x0044f8da      45f9006d1a76   lea.l PUT_BITS, a2
           0x0044f8e0      223c0000ffff   move.l 0xffff, d1
           0x0044f8e6      740c           moveq 0xc, d2
           0x0044f8e8      7601           moveq 0x1, d3
           0x0044f8ea      7802           moveq 0x2, d4
           0x0044f8ec      7a07           moveq 0x7, d5
           0x0044f8ee      102e000a       move.b 0xa(a6), d0
           0x0044f8f2      4880           ext.w d0
           0x0044f8f4      0c400006       cmpi.w 0x6, d0
       < 0x0044f8f8      6302           bls.b 0x44f8fc
          0x0044f8fa      4e4e           trap 0xe
       > 0x0044f8fc      d040           add.w d0, d0
           0x0044f8fe      303b0006       move.w 0x44f906(pc, d0.w), d0
           0x0044f902      4efb0002       jmp 0x44f906(pc, d0.w)
            0x0044f906      000e0034       
            0x0044f907      0e003400       
            0x0044f908      00340054005a   ori.b 0x54, 0x5a(a4, d0.w)
            0x0044f90e      007c009e       ori.w 0x9e, sr
            0x0044f912      00c0594f       
            0x0044f913      c059           and.w (a1)+, d0
            0x0044f915      4f3f3c00       
            0x0044f916      3f3c000e       move.w 0xe, -(a7)
            0x0044f91a      3f04           move.w d4, -(a7)
            0x0044f91c      4280           clr.l d0
            0x0044f91e      3011           move.w (a1), d0
            0x0044f920      2f00           move.l d0, -(a7)
            0x0044f922      3010           move.w (a0), d0
            0x0044f924      c081           and.l d1, d0
            0x0044f926      2f00           move.l d0, -(a7)
            0x0044f928      4e92           jsr (a2)                    ; fcn.00000009+0x2
            0x0044f92a      dec2           adda.w d2, a7
            0x0044f92c      201f           move.l (a7)+, d0
            0x0044f92e      b081           cmp.l d1, d0
        < 0x0044f930      6302           bls.b 0x44f934
           0x0044f932      4e4f           trap 0xf
   > 0x0044f934      3080           move.w d0, (a0)
   < 0x0044f936      600000b0       bra.w 0x44f9e8
      0x0044f93a      594f           subq.w 0x4, a7
      0x0044f93c      3f02           move.w d2, -(a7)
      0x0044f93e      3f04           move.w d4, -(a7)
      0x0044f940      4280           clr.l d0
      0x0044f942      3011           move.w (a1), d0
      0x0044f944      2f00           move.l d0, -(a7)
      0x0044f946      3010           move.w (a0), d0
      0x0044f948      c081           and.l d1, d0
      0x0044f94a      2f00           move.l d0, -(a7)
      0x0044f94c      4e92           jsr (a2)                    ; fcn.00000009+0x2
      0x0044f94e      dec2           adda.w d2, a7
      0x0044f950      201f           move.l (a7)+, d0
      0x0044f952      b081           cmp.l d1, d0
  < 0x0044f954      6302           bls.b 0x44f958
     0x0044f956      4e4f           trap 0xf
  < 0x0044f958      60da           bra.b 0x44f934
       0x0044f95a      3091           move.w (a1), (a0)
   < 0x0044f95c      6000008a       bra.w 0x44f9e8
      0x0044f960      594f           subq.w 0x4, a7
      0x0044f962      3f3c0009       move.w 0x9, -(a7)
      0x0044f966      3f03           move.w d3, -(a7)
      0x0044f968      4280           clr.l d0
      0x0044f96a      3011           move.w (a1), d0
      0x0044f96c      2f00           move.l d0, -(a7)
      0x0044f96e      3010           move.w (a0), d0
      0x0044f970      c081           and.l d1, d0
      0x0044f972      2f00           move.l d0, -(a7)
      0x0044f974      4e92           jsr (a2)                    ; fcn.00000009+0x2
      0x0044f976      dec2           adda.w d2, a7
      0x0044f978      201f           move.l (a7)+, d0
      0x0044f97a      b081           cmp.l d1, d0
  < 0x0044f97c      6302           bls.b 0x44f980
     0x0044f97e      4e4f           trap 0xf
  < 0x0044f980      60b2           bra.b 0x44f934
       0x0044f982      594f           subq.w 0x4, a7
       0x0044f984      3f3c0008       move.w 0x8, -(a7)
       0x0044f988      3f03           move.w d3, -(a7)
       0x0044f98a      4280           clr.l d0
       0x0044f98c      3011           move.w (a1), d0
       0x0044f98e      2f00           move.l d0, -(a7)
       0x0044f990      3010           move.w (a0), d0
       0x0044f992      c081           and.l d1, d0
       0x0044f994      2f00           move.l d0, -(a7)
       0x0044f996      4e92           jsr (a2)                    ; fcn.00000009+0x2
       0x0044f998      dec2           adda.w d2, a7
       0x0044f99a      201f           move.l (a7)+, d0
       0x0044f99c      b081           cmp.l d1, d0
   < 0x0044f99e      6302           bls.b 0x44f9a2
      0x0044f9a0      4e4f           trap 0xf
   < 0x0044f9a2      6090           bra.b 0x44f934
        0x0044f9a4      594f           subq.w 0x4, a7
        0x0044f9a6      3f05           move.w d5, -(a7)
        0x0044f9a8      3f03           move.w d3, -(a7)
        0x0044f9aa      4280           clr.l d0
        0x0044f9ac      3011           move.w (a1), d0
        0x0044f9ae      2f00           move.l d0, -(a7)
        0x0044f9b0      3010           move.w (a0), d0
        0x0044f9b2      c081           and.l d1, d0
        0x0044f9b4      2f00           move.l d0, -(a7)
        0x0044f9b6      4e92           jsr (a2)                    ; fcn.00000009+0x2
        0x0044f9b8      dec2           adda.w d2, a7
        0x0044f9ba      201f           move.l (a7)+, d0
        0x0044f9bc      b081           cmp.l d1, d0
    < 0x0044f9be      6302           bls.b 0x44f9c2
       0x0044f9c0      4e4f           trap 0xf
    < 0x0044f9c2      6000ff70       bra.w 0x44f934
         0x0044f9c6      594f           subq.w 0x4, a7
         0x0044f9c8      4267           clr.w -(a7)
         0x0044f9ca      3f05           move.w d5, -(a7)
         0x0044f9cc      4280           clr.l d0
         0x0044f9ce      3011           move.w (a1), d0
         0x0044f9d0      2f00           move.l d0, -(a7)
         0x0044f9d2      3010           move.w (a0), d0
         0x0044f9d4      c081           and.l d1, d0
         0x0044f9d6      2f00           move.l d0, -(a7)
         0x0044f9d8      4e92           jsr (a2)                    ; fcn.00000009+0x2
         0x0044f9da      dec2           adda.w d2, a7
         0x0044f9dc      201f           move.l (a7)+, d0
         0x0044f9de      b081           cmp.l d1, d0
     < 0x0044f9e0      6302           bls.b 0x44f9e4
        0x0044f9e2      4e4f           trap 0xf
     < 0x0044f9e4      6000ff4e       bra.w 0x44f934
   > 0x0044f9e8      4cdf073f       movem.l (a7)+, d0-d5/a0-a2
            0x0044f9ec      4e5e           unlk a6
            0x0044f9ee      4e75           rts
            ; CALL XREFS from C0_CURSOR_DRIVER.limit_area @ 0x44fb3e, 0x44fb52
 114: C0_CURSOR_DRIVER.point_visible ();
           0x0044f9f0      4e56ffde       link.w a6, 0xffde
           0x0044f9f4      bfd5           cmpa.l (a5), a7
       < 0x0044f9f6      6206           bhi.b 0x44f9fe
          0x0044f9f8      44fc0002       move.w 0x2, ccr
          0x0044f9fc      4e76           trapv
       > 0x0044f9fe      defc0022       adda.w 0x22, a7
           0x0044fa02      48e780f8       movem.l d0/a0-a4, -(a7)
           0x0044fa06      43ee000c       lea.l 0xc(a6), a1
           0x0044fa0a      45f9007ecfb8   lea.l 0x7ecfb8, a2
           0x0044fa10      47f9007ecfbc   lea.l 0x7ecfbc, a3
           0x0044fa16      49f9007ecfba   lea.l 0x7ecfba, a4
           0x0044fa1c      12bc0001       move.b 0x1, (a1)
           0x0044fa20      206e0008       movea.l 0x8(a6), a0
           0x0044fa24      3010           move.w (a0), d0
           0x0044fa26      b052           cmp.w (a2), d0
       < 0x0044fa28      6c06           bge.b 0x44fa30
          0x0044fa2a      4211           clr.b (a1)
          0x0044fa2c      3092           move.w (a2), (a0)
      < 0x0044fa2e      6008           bra.b 0x44fa38
      > 0x0044fa30      b053           cmp.w (a3), d0
      < 0x0044fa32      6f04           ble.b 0x44fa38
         0x0044fa34      4211           clr.b (a1)
         0x0044fa36      3093           move.w (a3), (a0)
      > 0x0044fa38      30280002       move.w 0x2(a0), d0
           0x0044fa3c      b054           cmp.w (a4), d0
       < 0x0044fa3e      6c08           bge.b 0x44fa48
          0x0044fa40      4211           clr.b (a1)
          0x0044fa42      31540002       move.w (a4), 0x2(a0)
      < 0x0044fa46      6012           bra.b 0x44fa5a
      > 0x0044fa48      b079007ecfbe   cmp.w 0x7ecfbe, d0
      < 0x0044fa4e      6f0a           ble.b 0x44fa5a
         0x0044fa50      4211           clr.b (a1)
         0x0044fa52      3179007ecfbe.  move.w 0x7ecfbe, 0x2(a0)
      > 0x0044fa5a      4cdf1f01       movem.l (a7)+, d0/a0-a4
           0x0044fa5e      4e5e           unlk a6
           0x0044fa60      4e75           rts
            ; CALL XREF from C0_CURSOR_DRIVER.c0_make_box @ 0x450998
            ; CALL XREF from C0_CURSOR_DRIVER.filled_box @ 0x450bda
 312: C0_CURSOR_DRIVER.limit_area ();
           0x0044fa62      4e56ffca       link.w a6, 0xffca
           0x0044fa66      bfd5           cmpa.l (a5), a7
       < 0x0044fa68      6206           bhi.b 0x44fa70
          0x0044fa6a      44fc0002       move.w 0x2, ccr
          0x0044fa6e      4e76           trapv
       > 0x0044fa70      defc002e       adda.w 0x2e, a7
           0x0044fa74      48e7f0f0       movem.l d0-d3/a0-a3, -(a7)
           0x0044fa78      43eefff8       lea.l -0x8(a6), a1
           0x0044fa7c      45eefffa       lea.l -0x6(a6), a2
           0x0044fa80      47eefffc       lea.l -0x4(a6), a3
           0x0044fa84      243cffff8000   move.l 0xffff8000, d2
           0x0044fa8a      263c0000ffff   move.l 0xffff, d3
           0x0044fa90      206e0008       movea.l 0x8(a6), a0
           0x0044fa94      4a680004       tst.w 0x4(a0)
       < 0x0044fa98      6c2e           bge.b 0x44fac8
          0x0044fa9a      3010           move.w (a0), d0
          0x0044fa9c      48c0           ext.l d0
          0x0044fa9e      32280004       move.w 0x4(a0), d1
          0x0044faa2      48c1           ext.l d1
          0x0044faa4      d280           add.l d0, d1
          0x0044faa6      9282           sub.l d2, d1
          0x0044faa8      b283           cmp.l d3, d1
      < 0x0044faaa      6302           bls.b 0x44faae
         0x0044faac      4e4f           trap 0xf
      > 0x0044faae      d282           add.l d2, d1
          0x0044fab0      3081           move.w d1, (a0)
          0x0044fab2      30280004       move.w 0x4(a0), d0
          0x0044fab6      48c0           ext.l d0
          0x0044fab8      4480           neg.l d0
          0x0044faba      9082           sub.l d2, d0
          0x0044fabc      b083           cmp.l d3, d0
      < 0x0044fabe      6302           bls.b 0x44fac2
         0x0044fac0      4e4f           trap 0xf
      > 0x0044fac2      d082           add.l d2, d0
          0x0044fac4      31400004       move.w d0, 0x4(a0)
       > 0x0044fac8      4a680006       tst.w 0x6(a0)
       < 0x0044facc      6c32           bge.b 0x44fb00
          0x0044face      30280002       move.w 0x2(a0), d0
          0x0044fad2      48c0           ext.l d0
          0x0044fad4      32280006       move.w 0x6(a0), d1
          0x0044fad8      48c1           ext.l d1
          0x0044fada      d280           add.l d0, d1
          0x0044fadc      9282           sub.l d2, d1
          0x0044fade      b283           cmp.l d3, d1
      < 0x0044fae0      6302           bls.b 0x44fae4
         0x0044fae2      4e4f           trap 0xf
      > 0x0044fae4      d282           add.l d2, d1
          0x0044fae6      31410002       move.w d1, 0x2(a0)
          0x0044faea      30280006       move.w 0x6(a0), d0
          0x0044faee      48c0           ext.l d0
          0x0044faf0      4480           neg.l d0
          0x0044faf2      9082           sub.l d2, d0
          0x0044faf4      b083           cmp.l d3, d0
      < 0x0044faf6      6302           bls.b 0x44fafa
         0x0044faf8      4e4f           trap 0xf
      > 0x0044fafa      d082           add.l d2, d0
          0x0044fafc      31400006       move.w d0, 0x6(a0)
       > 0x0044fb00      3290           move.w (a0), (a1)
           0x0044fb02      34a80002       move.w 0x2(a0), (a2)
           0x0044fb06      3010           move.w (a0), d0
           0x0044fb08      48c0           ext.l d0
           0x0044fb0a      32280004       move.w 0x4(a0), d1
           0x0044fb0e      48c1           ext.l d1
           0x0044fb10      d280           add.l d0, d1
           0x0044fb12      9282           sub.l d2, d1
           0x0044fb14      b283           cmp.l d3, d1
       < 0x0044fb16      6302           bls.b 0x44fb1a
          0x0044fb18      4e4f           trap 0xf
       > 0x0044fb1a      d282           add.l d2, d1
           0x0044fb1c      3681           move.w d1, (a3)
           0x0044fb1e      30280002       move.w 0x2(a0), d0
           0x0044fb22      48c0           ext.l d0
           0x0044fb24      32280006       move.w 0x6(a0), d1
           0x0044fb28      48c1           ext.l d1
           0x0044fb2a      d280           add.l d0, d1
           0x0044fb2c      9282           sub.l d2, d1
           0x0044fb2e      b283           cmp.l d3, d1
       < 0x0044fb30      6302           bls.b 0x44fb34
          0x0044fb32      4e4f           trap 0xf
       > 0x0044fb34      d282           add.l d2, d1
           0x0044fb36      3d41fffe       move.w d1, -0x2(a6)
           0x0044fb3a      554f           subq.w 0x2, a7
           0x0044fb3c      4851           pea.l (a1)
           0x0044fb3e      4ebafeb0       jsr C0_CURSOR_DRIVER.point_visible(pc)
           0x0044fb42      584f           addq.w 0x4, a7
           0x0044fb44      4a1f           tst.b (a7)+
       < 0x0044fb46      6606           bne.b 0x44fb4e
          0x0044fb48      3091           move.w (a1), (a0)
          0x0044fb4a      31520002       move.w (a2), 0x2(a0)
       > 0x0044fb4e      554f           subq.w 0x2, a7
           0x0044fb50      4853           pea.l (a3)
           0x0044fb52      4ebafe9c       jsr C0_CURSOR_DRIVER.point_visible(pc)
           0x0044fb56      584f           addq.w 0x4, a7
           0x0044fb58      4a1f           tst.b (a7)+
       < 0x0044fb5a      6636           bne.b 0x44fb92
          0x0044fb5c      3013           move.w (a3), d0
          0x0044fb5e      48c0           ext.l d0
          0x0044fb60      3211           move.w (a1), d1
          0x0044fb62      48c1           ext.l d1
          0x0044fb64      4481           neg.l d1
          0x0044fb66      d280           add.l d0, d1
          0x0044fb68      9282           sub.l d2, d1
          0x0044fb6a      b283           cmp.l d3, d1
      < 0x0044fb6c      6302           bls.b 0x44fb70
         0x0044fb6e      4e4f           trap 0xf
      > 0x0044fb70      d282           add.l d2, d1
          0x0044fb72      31410004       move.w d1, 0x4(a0)
          0x0044fb76      302efffe       move.w -0x2(a6), d0
          0x0044fb7a      48c0           ext.l d0
          0x0044fb7c      3212           move.w (a2), d1
          0x0044fb7e      48c1           ext.l d1
          0x0044fb80      4481           neg.l d1
          0x0044fb82      d280           add.l d0, d1
          0x0044fb84      9282           sub.l d2, d1
          0x0044fb86      b283           cmp.l d3, d1
      < 0x0044fb88      6302           bls.b 0x44fb8c
         0x0044fb8a      4e4f           trap 0xf
      > 0x0044fb8c      d282           add.l d2, d1
          0x0044fb8e      31410006       move.w d1, 0x6(a0)
       > 0x0044fb92      4cdf0f0f       movem.l (a7)+, d0-d3/a0-a3
           0x0044fb96      4e5e           unlk a6
           0x0044fb98      4e75           rts
 174: C0_CURSOR_DRIVER.define_area ();
           0x0044fb9a      4e56ffd8       link.w a6, 0xffd8
           0x0044fb9e      bfd5           cmpa.l (a5), a7
       < 0x0044fba0      6206           bhi.b 0x44fba8
          0x0044fba2      44fc0002       move.w 0x2, ccr
          0x0044fba6      4e76           trapv
       > 0x0044fba8      defc0028       adda.w 0x28, a7
           0x0044fbac      48e7f880       movem.l d0-d4/a0, -(a7)
           0x0044fbb0      263cffff8000   move.l 0xffff8000, d3
           0x0044fbb6      283c0000ffff   move.l 0xffff, d4
           0x0044fbbc      206e0008       movea.l 0x8(a6), a0
           0x0044fbc0      30ae0010       move.w 0x10(a6), (a0)
           0x0044fbc4      302e000c       move.w 0xc(a6), d0
           0x0044fbc8      48c0           ext.l d0
           0x0044fbca      322e0010       move.w 0x10(a6), d1
           0x0044fbce      48c1           ext.l d1
           0x0044fbd0      2400           move.l d0, d2
           0x0044fbd2      9481           sub.l d1, d2
           0x0044fbd4      9483           sub.l d3, d2
           0x0044fbd6      b484           cmp.l d4, d2
       < 0x0044fbd8      6302           bls.b 0x44fbdc
          0x0044fbda      4e4f           trap 0xf
       > 0x0044fbdc      d483           add.l d3, d2
           0x0044fbde      31420004       move.w d2, 0x4(a0)
           0x0044fbe2      b280           cmp.l d0, d1
       < 0x0044fbe4      6f18           ble.b 0x44fbfe
          0x0044fbe6      3080           move.w d0, (a0)
          0x0044fbe8      32280004       move.w 0x4(a0), d1
          0x0044fbec      48c1           ext.l d1
          0x0044fbee      4481           neg.l d1
          0x0044fbf0      9283           sub.l d3, d1
          0x0044fbf2      b284           cmp.l d4, d1
      < 0x0044fbf4      6302           bls.b 0x44fbf8
         0x0044fbf6      4e4f           trap 0xf
      > 0x0044fbf8      d283           add.l d3, d1
          0x0044fbfa      31410004       move.w d1, 0x4(a0)
       > 0x0044fbfe      316e00120002   move.w 0x12(a6), 0x2(a0)
           0x0044fc04      302e000e       move.w 0xe(a6), d0
           0x0044fc08      48c0           ext.l d0
           0x0044fc0a      322e0012       move.w 0x12(a6), d1
           0x0044fc0e      48c1           ext.l d1
           0x0044fc10      2400           move.l d0, d2
           0x0044fc12      9481           sub.l d1, d2
           0x0044fc14      9483           sub.l d3, d2
           0x0044fc16      b484           cmp.l d4, d2
       < 0x0044fc18      6302           bls.b 0x44fc1c
          0x0044fc1a      4e4f           trap 0xf
       > 0x0044fc1c      d483           add.l d3, d2
           0x0044fc1e      31420006       move.w d2, 0x6(a0)
           0x0044fc22      b280           cmp.l d0, d1
       < 0x0044fc24      6f1a           ble.b 0x44fc40
          0x0044fc26      31400002       move.w d0, 0x2(a0)
          0x0044fc2a      32280006       move.w 0x6(a0), d1
          0x0044fc2e      48c1           ext.l d1
          0x0044fc30      4481           neg.l d1
          0x0044fc32      9283           sub.l d3, d1
          0x0044fc34      b284           cmp.l d4, d1
      < 0x0044fc36      6302           bls.b 0x44fc3a
         0x0044fc38      4e4f           trap 0xf
      > 0x0044fc3a      d283           add.l d3, d1
          0x0044fc3c      31410006       move.w d1, 0x6(a0)
       > 0x0044fc40      4cdf011f       movem.l (a7)+, d0-d4/a0
           0x0044fc44      4e5e           unlk a6
           0x0044fc46      4e75           rts
            ; CALL XREFS from C0_CURSOR_DRIVER.calc_upd_area @ 0x44fdea, 0x44fe20
 292: C0_CURSOR_DRIVER.calc_bounds ();
           0x0044fc48      4e56ffae       link.w a6, 0xffae
           0x0044fc4c      bfd5           cmpa.l (a5), a7
       < 0x0044fc4e      6206           bhi.b 0x44fc56
          0x0044fc50      44fc0002       move.w 0x2, ccr
          0x0044fc54      4e76           trapv
       > 0x0044fc56      defc0050       adda.w 0x50, a7
           0x0044fc5a      48e7fff8       movem.l d0-d7/a0-a4, -(a7)
           0x0044fc5e      43ee0012       lea.l 0x12(a6), a1
           0x0044fc62      45ee000c       lea.l 0xc(a6), a2
           0x0044fc66      47ee0010       lea.l 0x10(a6), a3
           0x0044fc6a      49ee0014       lea.l 0x14(a6), a4
           0x0044fc6e      2a3cffff8000   move.l 0xffff8000, d5
           0x0044fc74      2c3c0000ffff   move.l 0xffff, d6
           0x0044fc7a      302e0016       move.w 0x16(a6), d0
           0x0044fc7e      b051           cmp.w (a1), d0
       < 0x0044fc80      6614           bne.b 0x44fc96
          0x0044fc82      3214           move.w (a4), d1
          0x0044fc84      b253           cmp.w (a3), d1
      < 0x0044fc86      660e           bne.b 0x44fc96
         0x0044fc88      2052           movea.l (a2), a0
         0x0044fc8a      4250           clr.w (a0)
         0x0044fc8c      206e0008       movea.l 0x8(a6), a0
         0x0044fc90      4250           clr.w (a0)
     < 0x0044fc92      600000d0       bra.w 0x44fd64
     > 0x0044fc96      b051           cmp.w (a1), d0
      < 0x0044fc98      6634           bne.b 0x44fcce
         0x0044fc9a      3214           move.w (a4), d1
         0x0044fc9c      b253           cmp.w (a3), d1
     < 0x0044fc9e      6c18           bge.b 0x44fcb8
        0x0044fca0      2052           movea.l (a2), a0
        0x0044fca2      48c0           ext.l d0
        0x0044fca4      48c1           ext.l d1
        0x0044fca6      2400           move.l d0, d2
        0x0044fca8      d481           add.l d1, d2
        0x0044fcaa      9485           sub.l d5, d2
        0x0044fcac      b486           cmp.l d6, d2
    < 0x0044fcae      6302           bls.b 0x44fcb2
       0x0044fcb0      4e4f           trap 0xf
   > 0x0044fcb2      d485           add.l d5, d2
       0x0044fcb4      3082           move.w d2, (a0)
   < 0x0044fcb6      6024           bra.b 0x44fcdc
   > 0x0044fcb8      2052           movea.l (a2), a0
       0x0044fcba      3211           move.w (a1), d1
       0x0044fcbc      48c1           ext.l d1
       0x0044fcbe      3413           move.w (a3), d2
       0x0044fcc0      48c2           ext.l d2
       0x0044fcc2      d481           add.l d1, d2
       0x0044fcc4      9485           sub.l d5, d2
       0x0044fcc6      b486           cmp.l d6, d2
   < 0x0044fcc8      6302           bls.b 0x44fccc
      0x0044fcca      4e4f           trap 0xf
   > 0x0044fccc      60e4           bra.b 0x44fcb2
     > 0x0044fcce      b051           cmp.w (a1), d0
     < 0x0044fcd0      6c06           bge.b 0x44fcd8
        0x0044fcd2      2052           movea.l (a2), a0
        0x0044fcd4      3080           move.w d0, (a0)
    < 0x0044fcd6      6004           bra.b 0x44fcdc
    > 0x0044fcd8      2052           movea.l (a2), a0
        0x0044fcda      3091           move.w (a1), (a0)
    > 0x0044fcdc      2052           movea.l (a2), a0
          0x0044fcde      3210           move.w (a0), d1
          0x0044fce0      48c1           ext.l d1
          0x0044fce2      02810000fffc   andi.l 0xfffc, d1
          0x0044fce8      9285           sub.l d5, d1
          0x0044fcea      b286           cmp.l d6, d1
      < 0x0044fcec      6302           bls.b 0x44fcf0
         0x0044fcee      4e4f           trap 0xf
      > 0x0044fcf0      d285           add.l d5, d1
          0x0044fcf2      3081           move.w d1, (a0)
          0x0044fcf4      48c0           ext.l d0
          0x0044fcf6      3414           move.w (a4), d2
          0x0044fcf8      48c2           ext.l d2
          0x0044fcfa      d480           add.l d0, d2
          0x0044fcfc      3611           move.w (a1), d3
          0x0044fcfe      48c3           ext.l d3
          0x0044fd00      3813           move.w (a3), d4
          0x0044fd02      48c4           ext.l d4
          0x0044fd04      d883           add.l d3, d4
          0x0044fd06      b484           cmp.l d4, d2
      < 0x0044fd08      660c           bne.b 0x44fd16
         0x0044fd0a      b083           cmp.l d3, d0
     < 0x0044fd0c      6f04           ble.b 0x44fd12
        0x0044fd0e      3e00           move.w d0, d7
    < 0x0044fd10      6022           bra.b 0x44fd34
    > 0x0044fd12      3e03           move.w d3, d7
    < 0x0044fd14      601e           bra.b 0x44fd34
    > 0x0044fd16      b484           cmp.l d4, d2
    < 0x0044fd18      6f0e           ble.b 0x44fd28
       0x0044fd1a      9485           sub.l d5, d2
       0x0044fd1c      b486           cmp.l d6, d2
   < 0x0044fd1e      6302           bls.b 0x44fd22
      0x0044fd20      4e4f           trap 0xf
   > 0x0044fd22      d485           add.l d5, d2
       0x0044fd24      3e02           move.w d2, d7
   < 0x0044fd26      600c           bra.b 0x44fd34
   > 0x0044fd28      9885           sub.l d5, d4
       0x0044fd2a      b886           cmp.l d6, d4
   < 0x0044fd2c      6302           bls.b 0x44fd30
      0x0044fd2e      4e4f           trap 0xf
   > 0x0044fd30      d885           add.l d5, d4
       0x0044fd32      3e04           move.w d4, d7
   > 0x0044fd34      48c7           ext.l d7
          0x0044fd36      2407           move.l d7, d2
          0x0044fd38      5682           addq.l 0x3, d2
          0x0044fd3a      02820000fffc   andi.l 0xfffc, d2
          0x0044fd40      9485           sub.l d5, d2
          0x0044fd42      b486           cmp.l d6, d2
      < 0x0044fd44      6302           bls.b 0x44fd48
         0x0044fd46      4e4f           trap 0xf
      > 0x0044fd48      d485           add.l d5, d2
          0x0044fd4a      3e02           move.w d2, d7
          0x0044fd4c      206e0008       movea.l 0x8(a6), a0
          0x0044fd50      48c7           ext.l d7
          0x0044fd52      48c1           ext.l d1
          0x0044fd54      4481           neg.l d1
          0x0044fd56      d287           add.l d7, d1
          0x0044fd58      9285           sub.l d5, d1
          0x0044fd5a      b286           cmp.l d6, d1
      < 0x0044fd5c      6302           bls.b 0x44fd60
         0x0044fd5e      4e4f           trap 0xf
      > 0x0044fd60      d285           add.l d5, d1
          0x0044fd62      3081           move.w d1, (a0)
     > 0x0044fd64      4cdf1fff       movem.l (a7)+, d0-d7/a0-a4
           0x0044fd68      4e5e           unlk a6
           0x0044fd6a      4e75           rts
            ; CALL XREF from C0_CURSOR_DRIVER.filled_box @ 0x450d58
 194: C0_CURSOR_DRIVER.calc_upd_area ();
           0x0044fd6c      4e56ffce       link.w a6, 0xffce
           0x0044fd70      bfd5           cmpa.l (a5), a7
       < 0x0044fd72      6206           bhi.b 0x44fd7a
          0x0044fd74      44fc0002       move.w 0x2, ccr
          0x0044fd78      4e76           trapv
       > 0x0044fd7a      defc0032       adda.w 0x32, a7
           0x0044fd7e      48e7e0c0       movem.l d0-d2/a0-a1, -(a7)
           0x0044fd82      7410           moveq 0x10, d2
           0x0044fd84      206e000c       movea.l 0xc(a6), a0
           0x0044fd88      10baefe8       move.b 0x44ed72(pc), (a0)
           0x0044fd8c      117aefe50001   move.b 0x44ed73(pc), 0x1(a0)
           0x0044fd92      117aefe00002   move.b 0x44ed74(pc), 0x2(a0)
           0x0044fd98      117aefdb0003   move.b 0x44ed75(pc), 0x3(a0)
           0x0044fd9e      226e0008       movea.l 0x8(a6), a1
           0x0044fda2      12b9007ecfc0   move.b 0x7ecfc0, (a1)
           0x0044fda8      1379007ecfc1.  move.b 0x7ecfc1, 0x1(a1)
           0x0044fdb0      1379007ecfc2.  move.b 0x7ecfc2, 0x2(a1)
           0x0044fdb8      1379007ecfc3.  move.b 0x7ecfc3, 0x3(a1)
           0x0044fdc0      302e0018       move.w 0x18(a6), d0
           0x0044fdc4      b06e0010       cmp.w 0x10(a6), d0
       < 0x0044fdc8      660e           bne.b 0x44fdd8
          0x0044fdca      322e001c       move.w 0x1c(a6), d1
          0x0044fdce      b26e0014       cmp.w 0x14(a6), d1
      < 0x0044fdd2      6604           bne.b 0x44fdd8
         0x0044fdd4      4251           clr.w (a1)
     < 0x0044fdd6      6018           bra.b 0x44fdf0
     > 0x0044fdd8      3f00           move.w d0, -(a7)
          0x0044fdda      3f2e001c       move.w 0x1c(a6), -(a7)
          0x0044fdde      3f2e0010       move.w 0x10(a6), -(a7)
          0x0044fde2      3f2e0014       move.w 0x14(a6), -(a7)
          0x0044fde6      4850           pea.l (a0)
          0x0044fde8      4851           pea.l (a1)
          0x0044fdea      4ebafe5c       jsr C0_CURSOR_DRIVER.calc_bounds(pc)
          0x0044fdee      dec2           adda.w d2, a7
     > 0x0044fdf0      302e001a       move.w 0x1a(a6), d0
           0x0044fdf4      b06e0012       cmp.w 0x12(a6), d0
       < 0x0044fdf8      6610           bne.b 0x44fe0a
          0x0044fdfa      322e001e       move.w 0x1e(a6), d1
          0x0044fdfe      b26e0016       cmp.w 0x16(a6), d1
      < 0x0044fe02      6606           bne.b 0x44fe0a
         0x0044fe04      42690002       clr.w 0x2(a1)
     < 0x0044fe08      601c           bra.b 0x44fe26
     > 0x0044fe0a      3f00           move.w d0, -(a7)
          0x0044fe0c      3f2e001e       move.w 0x1e(a6), -(a7)
          0x0044fe10      3f2e0012       move.w 0x12(a6), -(a7)
          0x0044fe14      3f2e0016       move.w 0x16(a6), -(a7)
          0x0044fe18      48680002       pea.l 0x2(a0)
          0x0044fe1c      48690002       pea.l 0x2(a1)
          0x0044fe20      4ebafe26       jsr C0_CURSOR_DRIVER.calc_bounds(pc)
          0x0044fe24      dec2           adda.w d2, a7
     > 0x0044fe26      4cdf0307       movem.l (a7)+, d0-d2/a0-a1
           0x0044fe2a      4e5e           unlk a6
           0x0044fe2c      4e75           rts
            ; XREFS: CALL 0x00450dc0  CALL 0x00450dde  CALL 0x00450e2a  
            ; XREFS: CALL 0x00451f28  CALL 0x00451fb6  CALL 0x00452120  
            ; XREFS: CALL 0x0045216c  CALL 0x0045219a  CALL 0x0045227a  
            ; XREFS: CALL 0x0045326c  
 54: C0_CURSOR_DRIVER.c_cur_enable ();
           0x0044fe2e      4e56fff8       link.w a6, 0xfff8
           0x0044fe32      bfd5           cmpa.l (a5), a7
       < 0x0044fe34      6206           bhi.b 0x44fe3c
          0x0044fe36      44fc0002       move.w 0x2, ccr
          0x0044fe3a      4e76           trapv
       > 0x0044fe3c      defc0008       adda.w 0x8, a7
           0x0044fe40      13ee0008007e.  move.b 0x8(a6), 0x7ef004.l
           0x0044fe48      4a2e0008       tst.b 0x8(a6)
       < 0x0044fe4c      6706           beq.b 0x44fe54
          0x0044fe4e      4227           clr.b -(a7)
          0x0044fe50      4267           clr.w -(a7)
      < 0x0044fe52      6006           bra.b 0x44fe5a
      > 0x0044fe54      4227           clr.b -(a7)
          0x0044fe56      3f3c0001       move.w 0x1, -(a7)
      > 0x0044fe5a      4ebaf8d0       jsr C0_CURSOR_DRIVER.dgl_ctrl_set(pc)
           0x0044fe5e      584f           addq.w 0x4, a7
           0x0044fe60      4e5e           unlk a6
           0x0044fe62      4e75           rts
            ; CALL XREF from C0_CURSOR_DRIVER.c0_make_test_pa @ 0x451e56
            ; CALL XREF from C0_CURSOR_DRIVER.c0_grid_off @ 0x45230a
            ; CALL XREF from C0_CURSOR_DRIVER.c0_init @ 0x453272
 62: C0_CURSOR_DRIVER.c_grid_enable ();
           0x0044fe64      4e56fff4       link.w a6, 0xfff4
           0x0044fe68      bfd5           cmpa.l (a5), a7
       < 0x0044fe6a      6206           bhi.b 0x44fe72
          0x0044fe6c      44fc0002       move.w 0x2, ccr
          0x0044fe70      4e76           trapv
       > 0x0044fe72      defc000c       adda.w 0xc, a7
           0x0044fe76      48e78000       movem.l d0, -(a7)
           0x0044fe7a      7001           moveq 0x1, d0
           0x0044fe7c      13ee0008007e.  move.b 0x8(a6), 0x7ef005.l
           0x0044fe84      4a2e0008       tst.b 0x8(a6)
       < 0x0044fe88      6706           beq.b 0x44fe90
          0x0044fe8a      1f00           move.b d0, -(a7)
          0x0044fe8c      4267           clr.w -(a7)
      < 0x0044fe8e      6004           bra.b 0x44fe94
      > 0x0044fe90      1f00           move.b d0, -(a7)
          0x0044fe92      3f00           move.w d0, -(a7)
      > 0x0044fe94      4ebaf896       jsr C0_CURSOR_DRIVER.dgl_ctrl_set(pc)
           0x0044fe98      584f           addq.w 0x4, a7
           0x0044fe9a      4cdf0001       movem.l (a7)+, d0
           0x0044fe9e      4e5e           unlk a6
           0x0044fea0      4e75           rts
            ; XREFS: CALL 0x0044ff80  CALL 0x00450018  CALL 0x00451162  
            ; XREFS: CALL 0x00451220  CALL 0x00451bdc  CALL 0x00451c84  
            ; XREFS: CALL 0x00451d0e  CALL 0x004521fc  CALL 0x00452216  
 66: C0_CURSOR_DRIVER.four_off ();
           ; var int32_t var_4h @ a6-0x4
           0x0044fea2      4e56fff0       link.w a6, 0xfff0
           0x0044fea6      bfd5           cmpa.l (a5), a7
       < 0x0044fea8      6206           bhi.b 0x44feb0
          0x0044feaa      44fc0002       move.w 0x2, ccr
          0x0044feae      4e76           trapv
       > 0x0044feb0      defc000c       adda.w 0xc, a7
           0x0044feb4      48e78000       movem.l d0, -(a7)
           0x0044feb8      202e0008       move.l 0x8(a6), d0
           0x0044febc      0c80000000ff   cmpi.l 0xff, d0
       < 0x0044fec2      6302           bls.b 0x44fec6
          0x0044fec4      4e4f           trap 0xf
       > 0x0044fec6      1d40fffc       move.b d0, -0x4(a6)
           0x0044feca      1d40fffd       move.b d0, -0x3(a6)
           0x0044fece      1d40fffe       move.b d0, -0x2(a6)
           0x0044fed2      1d40ffff       move.b d0, -0x1(a6)
           0x0044fed6      2d6efffc000c   move.l -0x4(a6), 0xc(a6)
           0x0044fedc      4cdf0001       movem.l (a7)+, d0
           0x0044fee0      4e5e           unlk a6
           0x0044fee2      4e75           rts
            ; CALL XREF from C0_CURSOR_DRIVER.c_cross_cursor @ 0x451f5e
 410: C0_CURSOR_DRIVER.c_make_cross ();
           0x0044fee4      4e56ff38       link.w a6, 0xff38
           0x0044fee8      bfd5           cmpa.l (a5), a7
       < 0x0044feea      6206           bhi.b 0x44fef2
          0x0044feec      44fc0002       move.w 0x2, ccr
          0x0044fef0      4e76           trapv
       > 0x0044fef2      defc0040       adda.w 0x40, a7
           0x0044fef6      48e7f3f8       movem.l d0-d3/d6-d7/a0-a4, -(a7)
           0x0044fefa      45f9007ef028   lea.l 0x7ef028, a2
           0x0044ff00      47eeff80       lea.l -0x80(a6), a3
           0x0044ff04      49f9007ed7e0   lea.l 0x7ed7e0, a4
           0x0044ff0a      721f           moveq 0x1f, d1
           0x0044ff0c      740c           moveq 0xc, d2
           0x0044ff0e      7601           moveq 0x1, d3
       > 0x0044ff10      4a14           tst.b (a4)
      < 0x0044ff12      670e           beq.b 0x44ff22
         0x0044ff14      48780001       pea.l 0x1
         0x0044ff18      4eb900402e42   jsr p_Delay
         0x0044ff1e      584f           addq.w 0x4, a7
      < 0x0044ff20      60ee           bra.b 0x44ff10
      > 0x0044ff22      41f9007ecfdc   lea.l 0x7ecfdc, a0
           0x0044ff28      2f08           move.l a0, -(a7)
           0x0044ff2a      2e1f           move.l (a7)+, d7
           0x0044ff2c      4a39007ecfb4   tst.b 0x7ecfb4
       < 0x0044ff32      6710           beq.b 0x44ff44
          0x0044ff34      204b           movea.l a3, a0
          0x0044ff36      43faee56       lea.l 0x44ed8e(pc), a1
          0x0044ff3a      701f           moveq 0x1f, d0
      > 0x0044ff3c      20d9           move.l (a1)+, (a0)+
      < 0x0044ff3e      51c8fffc       dbra d0, 0x44ff3c
      < 0x0044ff42      6026           bra.b 0x44ff6a
      > 0x0044ff44      4a39007ef03b   tst.b 0x7ef03b
      < 0x0044ff4a      6710           beq.b 0x44ff5c
         0x0044ff4c      204b           movea.l a3, a0
         0x0044ff4e      43faef3e       lea.l 0x44ee8e(pc), a1
         0x0044ff52      701f           moveq 0x1f, d0
     > 0x0044ff54      20d9           move.l (a1)+, (a0)+
     < 0x0044ff56      51c8fffc       dbra d0, 0x44ff54
     < 0x0044ff5a      600e           bra.b 0x44ff6a
     > 0x0044ff5c      204b           movea.l a3, a0
         0x0044ff5e      43faf02e       lea.l 0x44ef8e(pc), a1
         0x0044ff62      701f           moveq 0x1f, d0
     > 0x0044ff64      20d9           move.l (a1)+, (a0)+
     < 0x0044ff66      51c8fffc       dbra d0, 0x44ff64
     > 0x0044ff6a      7c00           moveq 0x0, d6
       > 0x0044ff6c      594f           subq.w 0x4, a7
          0x0044ff6e      bc81           cmp.l d1, d6
      < 0x0044ff70      6302           bls.b 0x44ff74
         0x0044ff72      4e4f           trap 0xf
      > 0x0044ff74      2006           move.l d6, d0
          0x0044ff76      e580           asl.l 0x2, d0
          0x0044ff78      41eeff78       lea.l -0x88(a6), a0
          0x0044ff7c      2f300808       move.l 0x8(a0, d0.l), -(a7)
          0x0044ff80      4ebaff20       jsr C0_CURSOR_DRIVER.four_off(pc)
          0x0044ff84      584f           addq.w 0x4, a7
          0x0044ff86      3012           move.w (a2), d0
          0x0044ff88      48c0           ext.l d0
          0x0044ff8a      2f00           move.l d0, -(a7)
          0x0044ff8c      2f07           move.l d7, -(a7)
          0x0044ff8e      4eb9006d1d32   jsr MEM_FILL
          0x0044ff94      dec2           adda.w d2, a7
          0x0044ff96      3012           move.w (a2), d0
          0x0044ff98      48c0           ext.l d0
          0x0044ff9a      de80           add.l d0, d7
          0x0044ff9c      5286           addq.l 0x1, d6
          0x0044ff9e      bc81           cmp.l d1, d6
       < 0x0044ffa0      6fca           ble.b 0x44ff6c
           0x0044ffa2      41f9007ed3dc   lea.l 0x7ed3dc, a0
           0x0044ffa8      2f08           move.l a0, -(a7)
           0x0044ffaa      2e1f           move.l (a7)+, d7
           0x0044ffac      4a39007ecfb4   tst.b 0x7ecfb4
       < 0x0044ffb2      6710           beq.b 0x44ffc4
          0x0044ffb4      204b           movea.l a3, a0
          0x0044ffb6      43faee56       lea.l 0x44ee0e(pc), a1
          0x0044ffba      701f           moveq 0x1f, d0
      > 0x0044ffbc      20d9           move.l (a1)+, (a0)+
      < 0x0044ffbe      51c8fffc       dbra d0, 0x44ffbc
      < 0x0044ffc2      603e           bra.b 0x450002
      > 0x0044ffc4      4a39007ef03b   tst.b 0x7ef03b
      < 0x0044ffca      6710           beq.b 0x44ffdc
         0x0044ffcc      204b           movea.l a3, a0
         0x0044ffce      43faef3e       lea.l 0x44ef0e(pc), a1
         0x0044ffd2      701f           moveq 0x1f, d0
     > 0x0044ffd4      20d9           move.l (a1)+, (a0)+
     < 0x0044ffd6      51c8fffc       dbra d0, 0x44ffd4
     < 0x0044ffda      6026           bra.b 0x450002
     > 0x0044ffdc      4a39007ef03a   tst.b 0x7ef03a
     < 0x0044ffe2      6710           beq.b 0x44fff4
        0x0044ffe4      204b           movea.l a3, a0
        0x0044ffe6      43faf0a6       lea.l 0x44f08e(pc), a1
        0x0044ffea      701f           moveq 0x1f, d0
    > 0x0044ffec      20d9           move.l (a1)+, (a0)+
    < 0x0044ffee      51c8fffc       dbra d0, 0x44ffec
    < 0x0044fff2      600e           bra.b 0x450002
    > 0x0044fff4      204b           movea.l a3, a0
        0x0044fff6      43faf016       lea.l 0x44f00e(pc), a1
        0x0044fffa      701f           moveq 0x1f, d0
    > 0x0044fffc      20d9           move.l (a1)+, (a0)+
    < 0x0044fffe      51c8fffc       dbra d0, 0x44fffc
    > 0x00450002      7c00           moveq 0x0, d6
       > 0x00450004      594f           subq.w 0x4, a7
          0x00450006      bc81           cmp.l d1, d6
      < 0x00450008      6302           bls.b 0x45000c
         0x0045000a      4e4f           trap 0xf
      > 0x0045000c      2006           move.l d6, d0
          0x0045000e      e580           asl.l 0x2, d0
          0x00450010      41eeff78       lea.l -0x88(a6), a0
          0x00450014      2f300808       move.l 0x8(a0, d0.l), -(a7)
          0x00450018      4ebafe88       jsr C0_CURSOR_DRIVER.four_off(pc)
          0x0045001c      584f           addq.w 0x4, a7
          0x0045001e      3012           move.w (a2), d0
          0x00450020      48c0           ext.l d0
          0x00450022      2f00           move.l d0, -(a7)
          0x00450024      2f07           move.l d7, -(a7)
          0x00450026      4eb9006d1d32   jsr MEM_FILL
          0x0045002c      dec2           adda.w d2, a7
          0x0045002e      3012           move.w (a2), d0
          0x00450030      48c0           ext.l d0
          0x00450032      de80           add.l d0, d7
          0x00450034      5286           addq.l 0x1, d6
          0x00450036      bc81           cmp.l d1, d6
       < 0x00450038      6fca           ble.b 0x450004
           0x0045003a      3012           move.w (a2), d0
           0x0045003c      c1fc0020       muls.w 0x20, d0
           0x00450040      48780000       pea.l 0x0
           0x00450044      48780400       pea.l 0x400
           0x00450048      9197           sub.l d0, (a7)
           0x0045004a      d087           add.l d7, d0
           0x0045004c      2f00           move.l d0, -(a7)
           0x0045004e      4eb9006d1d32   jsr MEM_FILL
           0x00450054      dec2           adda.w d2, a7
           0x00450056      33fc0400007e.  move.w 0x400, 0x7ed7dc.l
           0x0045005e      33fc0400007e.  move.w 0x400, 0x7ed7de.l
           0x00450066      23faed0a007e.  move.l 0x44ed72(pc), 0x7ed7e2.l
           0x0045006e      13c3007ed7e1   move.b d3, 0x7ed7e1
           0x00450074      1883           move.b d3, (a4)
           0x00450076      4cdf1fcf       movem.l (a7)+, d0-d3/d6-d7/a0-a4
           0x0045007a      4e5e           unlk a6
           0x0045007c      4e75           rts
 188: C0_CURSOR_DRIVER.set_state ();
           0x0045007e      4e56ffdc       link.w a6, 0xffdc
           0x00450082      bfd5           cmpa.l (a5), a7
       < 0x00450084      6206           bhi.b 0x45008c
          0x00450086      44fc0002       move.w 0x2, ccr
          0x0045008a      4e76           trapv
       > 0x0045008c      defc0024       adda.w 0x24, a7
           0x00450090      48e7f0c0       movem.l d0-d3/a0-a1, -(a7)
           0x00450094      43ee0010       lea.l 0x10(a6), a1
           0x00450098      243c000003ff   move.l 0x3ff, d2
           0x0045009e      263c000000ff   move.l 0xff, d3
           0x004500a4      4a39007ecfb3   tst.b 0x7ecfb3
       < 0x004500aa      672a           beq.b 0x4500d6
          0x004500ac      2011           move.l (a1), d0
          0x004500ae      5280           addq.l 0x1, d0
          0x004500b0      b082           cmp.l d2, d0
      < 0x004500b2      6302           bls.b 0x4500b6
         0x004500b4      4e4f           trap 0xf
      > 0x004500b6      206e0014       movea.l 0x14(a6), a0
          0x004500ba      222e000c       move.l 0xc(a6), d1
          0x004500be      c283           and.l d3, d1
          0x004500c0      11810800       move.b d1, (a0, d0.l)
          0x004500c4      4a91           tst.l (a1)
      < 0x004500c6      6d6a           blt.b 0x450132
         0x004500c8      2011           move.l (a1), d0
         0x004500ca      b082           cmp.l d2, d0
     < 0x004500cc      6e64           bgt.b 0x450132
        0x004500ce      b082           cmp.l d2, d0
    < 0x004500d0      6302           bls.b 0x4500d4
       0x004500d2      4e4f           trap 0xf
   > 0x004500d4      6052           bra.b 0x450128
    > 0x004500d6      2011           move.l (a1), d0
        0x004500d8      5280           addq.l 0x1, d0
        0x004500da      b082           cmp.l d2, d0
    < 0x004500dc      6302           bls.b 0x4500e0
       0x004500de      4e4f           trap 0xf
    > 0x004500e0      206e0014       movea.l 0x14(a6), a0
        0x004500e4      222e000c       move.l 0xc(a6), d1
        0x004500e8      c283           and.l d3, d1
        0x004500ea      11810800       move.b d1, (a0, d0.l)
        0x004500ee      2011           move.l (a1), d0
        0x004500f0      5480           addq.l 0x2, d0
        0x004500f2      b082           cmp.l d2, d0
    < 0x004500f4      6302           bls.b 0x4500f8
       0x004500f6      4e4f           trap 0xf
    > 0x004500f8      11810800       move.b d1, (a0, d0.l)
        0x004500fc      2011           move.l (a1), d0
        0x004500fe      5380           subq.l 0x1, d0
        0x00450100      4a80           tst.l d0
    < 0x00450102      6d14           blt.b 0x450118
       0x00450104      b082           cmp.l d2, d0
   < 0x00450106      6e10           bgt.b 0x450118
      0x00450108      b082           cmp.l d2, d0
  < 0x0045010a      6302           bls.b 0x45010e
     0x0045010c      4e4f           trap 0xf
  > 0x0045010e      222e0008       move.l 0x8(a6), d1
      0x00450112      c283           and.l d3, d1
      0x00450114      11810800       move.b d1, (a0, d0.l)
   > 0x00450118      4a91           tst.l (a1)
    < 0x0045011a      6d16           blt.b 0x450132
       0x0045011c      2011           move.l (a1), d0
       0x0045011e      b082           cmp.l d2, d0
   < 0x00450120      6e10           bgt.b 0x450132
      0x00450122      b082           cmp.l d2, d0
  < 0x00450124      6302           bls.b 0x450128
     0x00450126      4e4f           trap 0xf
  > 0x00450128      222e0008       move.l 0x8(a6), d1
       0x0045012c      c283           and.l d3, d1
       0x0045012e      11810800       move.b d1, (a0, d0.l)
    > 0x00450132      4cdf030f       movem.l (a7)+, d0-d3/a0-a1
           0x00450136      4e5e           unlk a6
           0x00450138      4e75           rts
 60: C0_CURSOR_DRIVER.hair_clear_pal ();
           0x0045013a      4e56ffe0       link.w a6, 0xffe0
           0x0045013e      bfd5           cmpa.l (a5), a7
       < 0x00450140      6206           bhi.b 0x450148
          0x00450142      44fc0002       move.w 0x2, ccr
          0x00450146      4e76           trapv
       > 0x00450148      defc0020       adda.w 0x20, a7
           0x0045014c      48e780e0       movem.l d0/a0-a2, -(a7)
           0x00450150      41f80000       lea.l 0x0, a0
           0x00450154      43ee0008       lea.l 0x8(a6), a1
           0x00450158      45f9007ecfc2   lea.l 0x7ecfc2, a2
           0x0045015e      102e000c       move.b 0xc(a6), d0
           0x00450162      4880           ext.w d0
           0x00450164      0c400003       cmpi.w 0x3, d0
       < 0x00450168      6302           bls.b 0x45016c
          0x0045016a      4e4e           trap 0xe
       > 0x0045016c      d040           add.w d0, d0
           0x0045016e      303b0006       move.w 0x450176(pc, d0.w), d0
           0x00450172      4efb0002       jmp 0x450176(pc, d0.w)
            0x00450176      00080026       
            0x00450177      08002600       
            0x00450178      0026003a       ori.b 0x3a, -(a6)
            0x0045017c      004e4850       
            0x0045017d      4e48           trap 0x8
            0x0045017f      5048           addq.w 0x8, a0
            0x00450181      7800           moveq 0x0, d4
            0x00450183      80303900       or.b (a0, d3.l), d0
            0x00450187      7ecf           moveq 0xcf, d7
            0x00450189      d848           add.w a0, d4
            0x0045018b      c0d0           mulu.w (a0), d0
            0x0045018d      912f004e       sub.b d0, 0x4e(a7)
            0x00450191      b900           eor.b d4, d0
        < 0x00450193      6d1d           blt.b 0x4501b2
           0x00450195      32de           move.w (a6)+, (a1)+
           0x00450197      fc000c60       fsdiv fp3, fp0
           0x0045019b      2848           movea.l a0, a4
           0x0045019d      5048           addq.w 0x8, a0
           0x0045019f      7800           moveq 0x0, d4
           0x004501a1      80301248       or.b 0x48(a0, d1.w), d0
           0x004501a5      c0d0           mulu.w (a0), d0
           0x004501a7      9104           subx.b d4, d0
           0x004501a9      8000           or.b d0, d0
           0x004501ab      00008060       ori.b 0x60, d0
           0x004501af      de48           add.w a0, d7
           0x004501b1      5048           addq.w 0x8, a0
            0x004501b3      7800           moveq 0x0, d4
            0x004501b5      20301248       move.l 0x48(a0, d1.w), d0
            0x004501b9      c0d0           mulu.w (a0), d0
            0x004501bb      9104           subx.b d4, d0
            0x004501bd      8000           or.b d0, d0
            0x004501bf      00002060       ori.b 0x60, d0
            0x004501c3      ca4cdf07       
            0x004501c4      4cdf0701       movem.l (a7)+, d0/a0-a2
            0x004501c8      4e5e           unlk a6
            0x004501ca      4e75           rts
 64: C0_CURSOR_DRIVER.grid_clear_pal ();
           0x004501cc      4e56ffdc       link.w a6, 0xffdc
           0x004501d0      bfd5           cmpa.l (a5), a7
       < 0x004501d2      6206           bhi.b 0x4501da
          0x004501d4      44fc0002       move.w 0x2, ccr
          0x004501d8      4e76           trapv
       > 0x004501da      defc0024       adda.w 0x24, a7
           0x004501de      48e780f0       movem.l d0/a0-a3, -(a7)
           0x004501e2      41f80000       lea.l 0x0, a0
           0x004501e6      43fafcba       lea.l C0_CURSOR_DRIVER.four_off(pc), a1
           0x004501ea      45ee0008       lea.l 0x8(a6), a2
           0x004501ee      47f9007ecfd2   lea.l 0x7ecfd2, a3
           0x004501f4      102e000c       move.b 0xc(a6), d0
           0x004501f8      4880           ext.w d0
           0x004501fa      0c400003       cmpi.w 0x3, d0
       < 0x004501fe      6302           bls.b 0x450202
          0x00450200      4e4e           trap 0xe
       > 0x00450202      d040           add.w d0, d0
           0x00450204      303b0006       move.w 0x45020c(pc, d0.w), d0
           0x00450208      4efb0002       jmp 0x45020c(pc, d0.w)
            0x0045020c      00080022       
            0x0045020d      08002200       
            0x0045020e      0022003e       ori.b 0x3e, -(a2)
            0x00450212      0058594f       ori.w 0x594f, (a0)+
            0x00450216      4850           pea.l (a0)
            0x00450218      4e91           jsr (a1)                    ; fcn.0000000a
            0x0045021a      584f           addq.w 0x4, a7
            0x0045021c      48780080       pea.l 0x80
            0x00450220      2f12           move.l (a2), -(a7)
        > 0x00450222      4eb9006d1d32   jsr MEM_FILL
           0x00450228      defc000c       adda.w 0xc, a7
       < 0x0045022c      6036           bra.b 0x450264
          0x0045022e      594f           subq.w 0x4, a7
          0x00450230      4850           pea.l (a0)
          0x00450232      4e91           jsr (a1)                    ; fcn.0000000a
          0x00450234      584f           addq.w 0x4, a7
          0x00450236      48780080       pea.l 0x80
          0x0045023a      3013           move.w (a3), d0
          0x0045023c      48c0           ext.l d0
          0x0045023e      d092           add.l (a2), d0
          0x00450240      048000000080   subi.l 0x80, d0
      > 0x00450246      2f00           move.l d0, -(a7)
      < 0x00450248      60d8           bra.b 0x450222
          0x0045024a      594f           subq.w 0x4, a7
          0x0045024c      4850           pea.l (a0)
          0x0045024e      4e91           jsr (a1)                    ; fcn.0000000a
          0x00450250      584f           addq.w 0x4, a7
          0x00450252      48780020       pea.l 0x20
          0x00450256      3013           move.w (a3), d0
          0x00450258      48c0           ext.l d0
          0x0045025a      d092           add.l (a2), d0
          0x0045025c      048000000020   subi.l 0x20, d0
      < 0x00450262      60e2           bra.b 0x450246
       > 0x00450264      4cdf0f01       movem.l (a7)+, d0/a0-a3
            0x00450268      4e5e           unlk a6
            0x0045026a      4e75           rts
            ; CALL XREF from CURSORCOM.cross_hair_curs @ 0x45582a
 84: C0_CURSOR_DRIVER.c_cross_hair ();
           0x0045026c      4e56ffa0       link.w a6, 0xffa0
           0x00450270      bfd5           cmpa.l (a5), a7
       < 0x00450272      6206           bhi.b 0x45027a
          0x00450274      44fc0002       move.w 0x2, ccr
          0x00450278      4e76           trapv
       > 0x0045027a      defc004e       adda.w 0x4e, a7
           0x0045027e      48e7fff8       movem.l d0-d7/a0-a4, -(a7)
           0x00450282      43fafc1e       lea.l C0_CURSOR_DRIVER.four_off(pc), a1
           0x00450286      45ee000c       lea.l 0xc(a6), a2
           0x0045028a      47ee000e       lea.l 0xe(a6), a3
           0x0045028e      49f9007edfea   lea.l 0x7edfea, a4
           0x00450294      243cffff8000   move.l 0xffff8000, d2
           0x0045029a      263c0000ffff   move.l 0xffff, d3
           0x004502a0      7801           moveq 0x1, d4
           0x004502a2      7a06           moveq 0x6, d5
           0x004502a4      554f           subq.w 0x2, a7
           0x004502a6      4eb900518c62   jsr OUTCOM.get_palstate
           0x004502ac      101f           move.b (a7)+, d0
           0x004502ae      4880           ext.w d0
           0x004502b0      b045           cmp.w d5, d0
       < 0x004502b2      6302           bls.b 0x4502b6
          0x004502b4      4e4e           trap 0xe
       > 0x004502b6      d040           add.w d0, d0
           0x004502b8      303b0006       move.w 0x4502c0(pc, d0.w), d0
           0x004502bc      4efb0002       jmp 0x4502c0(pc, d0.w)
            0x004502c0      001a0012       ori.b 0x12, (a2)+
            0x004502c4      000e0012       
            0x004502c5      0e001200       
            0x004502c6      0012000e       ori.b 0xe, (a2)
            0x004502ca      00160016       ori.b 0x16, (a6)
            0x004502ce      7c00           moveq 0x0, d6
        < 0x004502d0      600a           bra.b 0x4502dc
           0x004502d2      7c01           moveq 0x1, d6
       < 0x004502d4      6006           bra.b 0x4502dc
          0x004502d6      7c02           moveq 0x2, d6
      < 0x004502d8      6002           bra.b 0x4502dc
         0x004502da      7c03           moveq 0x3, d6
      > 0x004502dc      4a39007ecfb3   tst.b 0x7ecfb3
        < 0x004502e2      6724           beq.b 0x450308
           0x004502e4      3012           move.w (a2), d0
           0x004502e6      48c0           ext.l d0
           0x004502e8      5580           subq.l 0x2, d0
           0x004502ea      9082           sub.l d2, d0
           0x004502ec      b083           cmp.l d3, d0
       < 0x004502ee      6302           bls.b 0x4502f2
          0x004502f0      4e4f           trap 0xf
       > 0x004502f2      d082           add.l d2, d0
           0x004502f4      3480           move.w d0, (a2)
           0x004502f6      3013           move.w (a3), d0
           0x004502f8      48c0           ext.l d0
           0x004502fa      5580           subq.l 0x2, d0
           0x004502fc      9082           sub.l d2, d0
           0x004502fe      b083           cmp.l d3, d0
       < 0x00450300      6302           bls.b 0x450304
          0x00450302      4e4f           trap 0xf
       > 0x00450304      d082           add.l d2, d0
           0x00450306      3680           move.w d0, (a3)
        > 0x00450308      554f           subq.w 0x2, a7
            0x0045030a      4852           pea.l (a2)
            0x0045030c      4ebaf6e2       jsr C0_CURSOR_DRIVER.point_visible(pc)
            0x00450310      584f           addq.w 0x4, a7
            0x00450312      101f           move.b (a7)+, d0
            0x00450314      4880           ext.w d0
            0x00450316      4184           chk.w d4, d0
            0x00450318      1e00           move.b d0, d7
        > 0x0045031a      4a14           tst.b (a4)
       < 0x0045031c      670e           beq.b 0x45032c
          0x0045031e      48780001       pea.l 0x1
          0x00450322      4eb900402e42   jsr p_Delay
          0x00450328      584f           addq.w 0x4, a7
       < 0x0045032a      60ee           bra.b 0x45031a
       > 0x0045032c      41f9007ed7e6   lea.l 0x7ed7e6, a0
            0x00450332      2f08           move.l a0, -(a7)
            0x00450334      2e1f           move.l (a7)+, d7
            0x00450336      3012           move.w (a2), d0
            0x00450338      48c0           ext.l d0
            0x0045033a      3239007ecfd8   move.w 0x7ecfd8, d1
            0x00450340      48c1           ext.l d1
            0x00450342      d280           add.l d0, d1
            0x00450344      9282           sub.l d2, d1
            0x00450346      b283           cmp.l d3, d1
        < 0x00450348      6302           bls.b 0x45034c
           0x0045034a      4e4f           trap 0xf
        > 0x0045034c      d282           add.l d2, d1
            0x0045034e      3481           move.w d1, (a2)
            0x00450350      594f           subq.w 0x4, a7
            0x00450352      48780004       pea.l 0x4
            0x00450356      4e91           jsr (a1)                    ; fcn.0000000a
            0x00450358      584f           addq.w 0x4, a7
            0x0045035a      3039007ecfc0   move.w 0x7ecfc0, d0
            0x00450360      48c0           ext.l d0
            0x00450362      2f00           move.l d0, -(a7)
            0x00450364      2f07           move.l d7, -(a7)
            0x00450366      4eb9006d1d32   jsr MEM_FILL
            0x0045036c      defc000c       adda.w 0xc, a7
            0x00450370      4a2e000a       tst.b 0xa(a6)
        < 0x00450374      6722           beq.b 0x450398
           0x00450376      4879007ed7e6   pea.l 0x7ed7e6
           0x0045037c      48c1           ext.l d1
           0x0045037e      2f01           move.l d1, -(a7)
           0x00450380      594f           subq.w 0x4, a7
           0x00450382      48780003       pea.l 0x3
           0x00450386      4e91           jsr (a1)                    ; fcn.0000000a
           0x00450388      48780002       pea.l 0x2
           0x0045038c      4e91           jsr (a1)                    ; fcn.0000000a
           0x0045038e      584f           addq.w 0x4, a7
           0x00450390      4ebafcec       jsr C0_CURSOR_DRIVER.set_state(pc)
           0x00450394      defc0010       adda.w 0x10, a7
        > 0x00450398      41f9007edbe6   lea.l 0x7edbe6, a0
            0x0045039e      2f08           move.l a0, -(a7)
            0x004503a0      2e1f           move.l (a7)+, d7
            0x004503a2      3013           move.w (a3), d0
            0x004503a4      48c0           ext.l d0
            0x004503a6      3239007ecfda   move.w 0x7ecfda, d1
            0x004503ac      48c1           ext.l d1
            0x004503ae      d280           add.l d0, d1
            0x004503b0      9282           sub.l d2, d1
            0x004503b2      b283           cmp.l d3, d1
        < 0x004503b4      6302           bls.b 0x4503b8
           0x004503b6      4e4f           trap 0xf
        > 0x004503b8      d282           add.l d2, d1
            0x004503ba      3681           move.w d1, (a3)
            0x004503bc      594f           subq.w 0x4, a7
            0x004503be      4878000d       pea.l 0xd
            0x004503c2      4e91           jsr (a1)                    ; fcn.0000000a
            0x004503c4      584f           addq.w 0x4, a7
            0x004503c6      3039007ecfc2   move.w 0x7ecfc2, d0
            0x004503cc      48c0           ext.l d0
            0x004503ce      2f00           move.l d0, -(a7)
            0x004503d0      2f07           move.l d7, -(a7)
            0x004503d2      4eb9006d1d32   jsr MEM_FILL
            0x004503d8      defc000c       adda.w 0xc, a7
            0x004503dc      4a2e0008       tst.b 0x8(a6)
        < 0x004503e0      6722           beq.b 0x450404
           0x004503e2      4879007edbe6   pea.l 0x7edbe6
           0x004503e8      48c1           ext.l d1
           0x004503ea      2f01           move.l d1, -(a7)
           0x004503ec      594f           subq.w 0x4, a7
           0x004503ee      4878000c       pea.l 0xc
           0x004503f2      4e91           jsr (a1)                    ; fcn.0000000a
           0x004503f4      4878000b       pea.l 0xb
           0x004503f8      4e91           jsr (a1)                    ; fcn.0000000a
           0x004503fa      584f           addq.w 0x4, a7
           0x004503fc      4ebafc80       jsr C0_CURSOR_DRIVER.set_state(pc)
           0x00450400      defc0010       adda.w 0x10, a7
        > 0x00450404      4886           ext.w d6
            0x00450406      4dbc0003       chk.w 0x3, d6
            0x0045040a      1f06           move.b d6, -(a7)
            0x0045040c      2f07           move.l d7, -(a7)
            0x0045040e      4ebafd2a       jsr C0_CURSOR_DRIVER.hair_clear_pal(pc)
            0x00450412      5c4f           addq.w 0x6, a7
            0x00450414      23f9007ecfc0.  move.l 0x7ecfc0, 0x7edfe6.l
            0x0045041e      23fae952007e.  move.l 0x44ed72(pc), 0x7edfec.l
            0x00450426      4239007ef006   clr.b 0x7ef006
            0x0045042c      13c5007edfeb   move.b d5, 0x7edfeb
            0x00450432      1884           move.b d4, (a4)
            0x00450434      33f9007ecfcc.  move.w 0x7ecfcc, 0x7ef008.l
            0x0045043e      33f9007ecfce.  move.w 0x7ecfce, 0x7ef00a.l
            0x00450448      1f04           move.b d4, -(a7)
            0x0045044a      4ebaf9e2       jsr C0_CURSOR_DRIVER.c_cur_enable(pc)
            0x0045044e      544f           addq.w 0x2, a7
            0x00450450      4cdf1fff       movem.l (a7)+, d0-d7/a0-a4
            0x00450454      4e5e           unlk a6
            0x00450456      4e75           rts
            ; CALL XREF from CURSORCOM.box_hair_cursor @ 0x4558ae
 84: C0_CURSOR_DRIVER.c_box_hair ();
           0x00450458      4e56ff9a       link.w a6, 0xff9a
           0x0045045c      bfd5           cmpa.l (a5), a7
       < 0x0045045e      6206           bhi.b 0x450466
          0x00450460      44fc0002       move.w 0x2, ccr
          0x00450464      4e76           trapv
       > 0x00450466      defc0054       adda.w 0x54, a7
           0x0045046a      48e7fff8       movem.l d0-d7/a0-a4, -(a7)
           0x0045046e      43fafa32       lea.l C0_CURSOR_DRIVER.four_off(pc), a1
           0x00450472      45ee0014       lea.l 0x14(a6), a2
           0x00450476      47ee000c       lea.l 0xc(a6), a3
           0x0045047a      49f9007ed7e6   lea.l 0x7ed7e6, a4
           0x00450480      263cffff8000   move.l 0xffff8000, d3
           0x00450486      283c0000ffff   move.l 0xffff, d4
           0x0045048c      7a01           moveq 0x1, d5
           0x0045048e      554f           subq.w 0x2, a7
           0x00450490      4eb900518c62   jsr OUTCOM.get_palstate
           0x00450496      101f           move.b (a7)+, d0
           0x00450498      4880           ext.w d0
           0x0045049a      0c400006       cmpi.w 0x6, d0
       < 0x0045049e      6302           bls.b 0x4504a2
          0x004504a0      4e4e           trap 0xe
       > 0x004504a2      d040           add.w d0, d0
           0x004504a4      303b0006       move.w 0x4504ac(pc, d0.w), d0
           0x004504a8      4efb0002       jmp 0x4504ac(pc, d0.w)
            0x004504ac      001a0012       ori.b 0x12, (a2)+
            0x004504b0      000e0012       
            0x004504b1      0e001200       
            0x004504b2      0012000e       ori.b 0xe, (a2)
            0x004504b6      00160016       ori.b 0x16, (a6)
            0x004504ba      7c00           moveq 0x0, d6
        < 0x004504bc      600a           bra.b 0x4504c8
           0x004504be      7c01           moveq 0x1, d6
       < 0x004504c0      6006           bra.b 0x4504c8
          0x004504c2      7c02           moveq 0x2, d6
      < 0x004504c4      6002           bra.b 0x4504c8
         0x004504c6      7c03           moveq 0x3, d6
      > 0x004504c8      4a39007ecfb3   tst.b 0x7ecfb3
        < 0x004504ce      6750           beq.b 0x450520
           0x004504d0      3012           move.w (a2), d0
           0x004504d2      48c0           ext.l d0
           0x004504d4      5580           subq.l 0x2, d0
           0x004504d6      9083           sub.l d3, d0
           0x004504d8      b084           cmp.l d4, d0
       < 0x004504da      6302           bls.b 0x4504de
          0x004504dc      4e4f           trap 0xf
       > 0x004504de      d083           add.l d3, d0
           0x004504e0      3480           move.w d0, (a2)
           0x004504e2      302e0016       move.w 0x16(a6), d0
           0x004504e6      48c0           ext.l d0
           0x004504e8      5580           subq.l 0x2, d0
           0x004504ea      9083           sub.l d3, d0
           0x004504ec      b084           cmp.l d4, d0
       < 0x004504ee      6302           bls.b 0x4504f2
          0x004504f0      4e4f           trap 0xf
       > 0x004504f2      d083           add.l d3, d0
           0x004504f4      3d400016       move.w d0, 0x16(a6)
           0x004504f8      3013           move.w (a3), d0
           0x004504fa      48c0           ext.l d0
           0x004504fc      5580           subq.l 0x2, d0
           0x004504fe      9083           sub.l d3, d0
           0x00450500      b084           cmp.l d4, d0
       < 0x00450502      6302           bls.b 0x450506
          0x00450504      4e4f           trap 0xf
       > 0x00450506      d083           add.l d3, d0
           0x00450508      3680           move.w d0, (a3)
           0x0045050a      302e000e       move.w 0xe(a6), d0
           0x0045050e      48c0           ext.l d0
           0x00450510      5580           subq.l 0x2, d0
           0x00450512      9083           sub.l d3, d0
           0x00450514      b084           cmp.l d4, d0
       < 0x00450516      6302           bls.b 0x45051a
          0x00450518      4e4f           trap 0xf
       > 0x0045051a      d083           add.l d3, d0
           0x0045051c      3d40000e       move.w d0, 0xe(a6)
        > 0x00450520      554f           subq.w 0x2, a7
            0x00450522      4852           pea.l (a2)
            0x00450524      4ebaf4ca       jsr C0_CURSOR_DRIVER.point_visible(pc)
            0x00450528      584f           addq.w 0x4, a7
            0x0045052a      101f           move.b (a7)+, d0
            0x0045052c      4880           ext.w d0
            0x0045052e      4185           chk.w d5, d0
            0x00450530      1e00           move.b d0, d7
            0x00450532      554f           subq.w 0x2, a7
            0x00450534      4853           pea.l (a3)
            0x00450536      4ebaf4b8       jsr C0_CURSOR_DRIVER.point_visible(pc)
            0x0045053a      584f           addq.w 0x4, a7
            0x0045053c      101f           move.b (a7)+, d0
            0x0045053e      4880           ext.w d0
            0x00450540      4185           chk.w d5, d0
            0x00450542      1e00           move.b d0, d7
        > 0x00450544      4a39007edfea   tst.b 0x7edfea
       < 0x0045054a      670e           beq.b 0x45055a
          0x0045054c      48780001       pea.l 0x1
          0x00450550      4eb900402e42   jsr p_Delay
          0x00450556      584f           addq.w 0x4, a7
       < 0x00450558      60ea           bra.b 0x450544
       > 0x0045055a      204c           movea.l a4, a0
            0x0045055c      2f08           move.l a0, -(a7)
            0x0045055e      2e1f           move.l (a7)+, d7
            0x00450560      3012           move.w (a2), d0
            0x00450562      48c0           ext.l d0
            0x00450564      3239007ecfd8   move.w 0x7ecfd8, d1
            0x0045056a      48c1           ext.l d1
            0x0045056c      d081           add.l d1, d0
            0x0045056e      9083           sub.l d3, d0
            0x00450570      b084           cmp.l d4, d0
        < 0x00450572      6302           bls.b 0x450576
           0x00450574      4e4f           trap 0xf
        > 0x00450576      d083           add.l d3, d0
            0x00450578      3480           move.w d0, (a2)
            0x0045057a      3413           move.w (a3), d2
            0x0045057c      48c2           ext.l d2
            0x0045057e      d282           add.l d2, d1
            0x00450580      9283           sub.l d3, d1
            0x00450582      b284           cmp.l d4, d1
        < 0x00450584      6302           bls.b 0x450588
           0x00450586      4e4f           trap 0xf
        > 0x00450588      d283           add.l d3, d1
            0x0045058a      3681           move.w d1, (a3)
            0x0045058c      594f           subq.w 0x4, a7
            0x0045058e      48780004       pea.l 0x4
            0x00450592      4e91           jsr (a1)                    ; fcn.0000000a
            0x00450594      584f           addq.w 0x4, a7
            0x00450596      3439007ecfc0   move.w 0x7ecfc0, d2
            0x0045059c      48c2           ext.l d2
            0x0045059e      2f02           move.l d2, -(a7)
            0x004505a0      2f07           move.l d7, -(a7)
            0x004505a2      4eb9006d1d32   jsr MEM_FILL
            0x004505a8      defc000c       adda.w 0xc, a7
            0x004505ac      4a2e0012       tst.b 0x12(a6)
        < 0x004505b0      671e           beq.b 0x4505d0
           0x004505b2      4854           pea.l (a4)
           0x004505b4      48c0           ext.l d0
           0x004505b6      2f00           move.l d0, -(a7)
           0x004505b8      594f           subq.w 0x4, a7
           0x004505ba      48780003       pea.l 0x3
           0x004505be      4e91           jsr (a1)                    ; fcn.0000000a
           0x004505c0      48780002       pea.l 0x2
           0x004505c4      4e91           jsr (a1)                    ; fcn.0000000a
           0x004505c6      584f           addq.w 0x4, a7
           0x004505c8      4ebafab4       jsr C0_CURSOR_DRIVER.set_state(pc)
           0x004505cc      defc0010       adda.w 0x10, a7
        > 0x004505d0      4a2e000a       tst.b 0xa(a6)
        < 0x004505d4      671e           beq.b 0x4505f4
           0x004505d6      4854           pea.l (a4)
           0x004505d8      48c1           ext.l d1
           0x004505da      2f01           move.l d1, -(a7)
           0x004505dc      594f           subq.w 0x4, a7
           0x004505de      48780003       pea.l 0x3
           0x004505e2      4e91           jsr (a1)                    ; fcn.0000000a
           0x004505e4      48780002       pea.l 0x2
           0x004505e8      4e91           jsr (a1)                    ; fcn.0000000a
           0x004505ea      584f           addq.w 0x4, a7
           0x004505ec      4ebafa90       jsr C0_CURSOR_DRIVER.set_state(pc)
           0x004505f0      defc0010       adda.w 0x10, a7
        > 0x004505f4      41f9007edbe6   lea.l 0x7edbe6, a0
            0x004505fa      2f08           move.l a0, -(a7)
            0x004505fc      2e1f           move.l (a7)+, d7
            0x004505fe      302e0016       move.w 0x16(a6), d0
            0x00450602      48c0           ext.l d0
            0x00450604      3239007ecfda   move.w 0x7ecfda, d1
            0x0045060a      48c1           ext.l d1
            0x0045060c      d081           add.l d1, d0
            0x0045060e      9083           sub.l d3, d0
            0x00450610      b084           cmp.l d4, d0
        < 0x00450612      6302           bls.b 0x450616
           0x00450614      4e4f           trap 0xf
        > 0x00450616      d083           add.l d3, d0
            0x00450618      3d400016       move.w d0, 0x16(a6)
            0x0045061c      342e000e       move.w 0xe(a6), d2
            0x00450620      48c2           ext.l d2
            0x00450622      d282           add.l d2, d1
            0x00450624      9283           sub.l d3, d1
            0x00450626      b284           cmp.l d4, d1
        < 0x00450628      6302           bls.b 0x45062c
           0x0045062a      4e4f           trap 0xf
        > 0x0045062c      d283           add.l d3, d1
            0x0045062e      3d41000e       move.w d1, 0xe(a6)
            0x00450632      594f           subq.w 0x4, a7
            0x00450634      4878000d       pea.l 0xd
            0x00450638      4e91           jsr (a1)                    ; fcn.0000000a
            0x0045063a      584f           addq.w 0x4, a7
            0x0045063c      3439007ecfc2   move.w 0x7ecfc2, d2
            0x00450642      48c2           ext.l d2
            0x00450644      2f02           move.l d2, -(a7)
            0x00450646      2f07           move.l d7, -(a7)
            0x00450648      4eb9006d1d32   jsr MEM_FILL
            0x0045064e      defc000c       adda.w 0xc, a7
            0x00450652      4a2e0010       tst.b 0x10(a6)
        < 0x00450656      6722           beq.b 0x45067a
           0x00450658      4879007edbe6   pea.l 0x7edbe6
           0x0045065e      48c0           ext.l d0
           0x00450660      2f00           move.l d0, -(a7)
           0x00450662      594f           subq.w 0x4, a7
           0x00450664      4878000c       pea.l 0xc
           0x00450668      4e91           jsr (a1)                    ; fcn.0000000a
           0x0045066a      4878000b       pea.l 0xb
           0x0045066e      4e91           jsr (a1)                    ; fcn.0000000a
           0x00450670      584f           addq.w 0x4, a7
           0x00450672      4ebafa0a       jsr C0_CURSOR_DRIVER.set_state(pc)
           0x00450676      defc0010       adda.w 0x10, a7
        > 0x0045067a      4a2e0008       tst.b 0x8(a6)
        < 0x0045067e      6722           beq.b 0x4506a2
           0x00450680      4879007edbe6   pea.l 0x7edbe6
           0x00450686      48c1           ext.l d1
           0x00450688      2f01           move.l d1, -(a7)
           0x0045068a      594f           subq.w 0x4, a7
           0x0045068c      4878000c       pea.l 0xc
           0x00450690      4e91           jsr (a1)                    ; fcn.0000000a
           0x00450692      4878000b       pea.l 0xb
           0x00450696      4e91           jsr (a1)                    ; fcn.0000000a
           0x00450698      584f           addq.w 0x4, a7
           0x0045069a      4ebaf9e2       jsr C0_CURSOR_DRIVER.set_state(pc)
           0x0045069e      defc0010       adda.w 0x10, a7
        > 0x004506a2      4886           ext.w d6
            0x004506a4      4dbc0003       chk.w 0x3, d6
            0x004506a8      1f06           move.b d6, -(a7)
            0x004506aa      2f07           move.l d7, -(a7)
            0x004506ac      4ebafa8c       jsr C0_CURSOR_DRIVER.hair_clear_pal(pc)
            0x004506b0      5c4f           addq.w 0x6, a7
            0x004506b2      23f9007ecfc0.  move.l 0x7ecfc0, 0x7edfe6.l
            0x004506bc      23fae6b4007e.  move.l 0x44ed72(pc), 0x7edfec.l
            0x004506c4      4239007ef006   clr.b 0x7ef006
            0x004506ca      13fc0006007e.  move.b 0x6, 0x7edfeb.l
            0x004506d2      13c5007edfea   move.b d5, 0x7edfea
            0x004506d8      33f9007ecfcc.  move.w 0x7ecfcc, 0x7ef008.l
            0x004506e2      33f9007ecfce.  move.w 0x7ecfce, 0x7ef00a.l
            0x004506ec      1f05           move.b d5, -(a7)
            0x004506ee      4ebaf73e       jsr C0_CURSOR_DRIVER.c_cur_enable(pc)
            0x004506f2      544f           addq.w 0x2, a7
            0x004506f4      4cdf1fff       movem.l (a7)+, d0-d7/a0-a4
            0x004506f8      4e5e           unlk a6
            0x004506fa      4e75           rts
            ; CALL XREFS from C0_CURSOR_DRIVER.c0_make_box @ 0x450a2a, 0x450b04
 390: C0_CURSOR_DRIVER.set_drop_state ();
           0x004506fc      4e56ffb8       link.w a6, 0xffb8
           0x00450700      bfd5           cmpa.l (a5), a7
       < 0x00450702      6206           bhi.b 0x45070a
          0x00450704      44fc0002       move.w 0x2, ccr
          0x00450708      4e76           trapv
       > 0x0045070a      defc0044       adda.w 0x44, a7
           0x0045070e      48e7fde0       movem.l d0-d5/d7/a0-a2, -(a7)
           0x00450712      45ee0014       lea.l 0x14(a6), a2
           0x00450716      263c000003ff   move.l 0x3ff, d3
           0x0045071c      283c000000ff   move.l 0xff, d4
           0x00450722      7a0c           moveq 0xc, d5
           0x00450724      206e0028       movea.l 0x28(a6), a0
           0x00450728      2248           movea.l a0, a1
           0x0045072a      2f09           move.l a1, -(a7)
           0x0045072c      2e1f           move.l (a7)+, d7
           0x0045072e      4a39007ecfb3   tst.b 0x7ecfb3
       < 0x00450734      677a           beq.b 0x4507b0
          0x00450736      226e0024       movea.l 0x24(a6), a1
          0x0045073a      2011           move.l (a1), d0
          0x0045073c      b083           cmp.l d3, d0
      < 0x0045073e      6302           bls.b 0x450742
         0x00450740      4e4f           trap 0xf
      > 0x00450742      222e001c       move.l 0x1c(a6), d1
          0x00450746      c284           and.l d4, d1
          0x00450748      11810800       move.b d1, (a0, d0.l)
          0x0045074c      2011           move.l (a1), d0
          0x0045074e      5280           addq.l 0x1, d0
          0x00450750      b083           cmp.l d3, d0
      < 0x00450752      6302           bls.b 0x450756
         0x00450754      4e4f           trap 0xf
      > 0x00450756      2212           move.l (a2), d1
          0x00450758      c284           and.l d4, d1
          0x0045075a      11810800       move.b d1, (a0, d0.l)
          0x0045075e      202e0020       move.l 0x20(a6), d0
          0x00450762      0c8000000002   cmpi.l 0x2, d0
      < 0x00450768      6f18           ble.b 0x450782
         0x0045076a      2f2e0010       move.l 0x10(a6), -(a7)
         0x0045076e      2f00           move.l d0, -(a7)
         0x00450770      5597           subq.l 0x2, (a7)
         0x00450772      2207           move.l d7, d1
         0x00450774      d291           add.l (a1), d1
         0x00450776      5481           addq.l 0x2, d1
         0x00450778      2f01           move.l d1, -(a7)
         0x0045077a      4eb9006d1d32   jsr MEM_FILL
         0x00450780      dec5           adda.w d5, a7
      > 0x00450782      d191           add.l d0, (a1)
          0x00450784      2011           move.l (a1), d0
          0x00450786      b083           cmp.l d3, d0
      < 0x00450788      6302           bls.b 0x45078c
         0x0045078a      4e4f           trap 0xf
      > 0x0045078c      222e000c       move.l 0xc(a6), d1
          0x00450790      c284           and.l d4, d1
          0x00450792      11810800       move.b d1, (a0, d0.l)
          0x00450796      2011           move.l (a1), d0
          0x00450798      5280           addq.l 0x1, d0
          0x0045079a      b083           cmp.l d3, d0
      < 0x0045079c      6302           bls.b 0x4507a0
         0x0045079e      4e4f           trap 0xf
      > 0x004507a0      222e0008       move.l 0x8(a6), d1
          0x004507a4      c284           and.l d4, d1
          0x004507a6      11810800       move.b d1, (a0, d0.l)
          0x004507aa      5491           addq.l 0x2, (a1)
      < 0x004507ac      600000cc       bra.w 0x45087a
      > 0x004507b0      226e0024       movea.l 0x24(a6), a1
          0x004507b4      2011           move.l (a1), d0
          0x004507b6      b083           cmp.l d3, d0
      < 0x004507b8      6302           bls.b 0x4507bc
         0x004507ba      4e4f           trap 0xf
      > 0x004507bc      222e001c       move.l 0x1c(a6), d1
          0x004507c0      c284           and.l d4, d1
          0x004507c2      11810800       move.b d1, (a0, d0.l)
          0x004507c6      2011           move.l (a1), d0
          0x004507c8      5280           addq.l 0x1, d0
          0x004507ca      b083           cmp.l d3, d0
      < 0x004507cc      6302           bls.b 0x4507d0
         0x004507ce      4e4f           trap 0xf
      > 0x004507d0      222e0018       move.l 0x18(a6), d1
          0x004507d4      c284           and.l d4, d1
          0x004507d6      11810800       move.b d1, (a0, d0.l)
          0x004507da      202e0020       move.l 0x20(a6), d0
          0x004507de      0c8000000004   cmpi.l 0x4, d0
      < 0x004507e4      6f12           ble.b 0x4507f8
         0x004507e6      2211           move.l (a1), d1
         0x004507e8      5481           addq.l 0x2, d1
         0x004507ea      b283           cmp.l d3, d1
     < 0x004507ec      6302           bls.b 0x4507f0
        0x004507ee      4e4f           trap 0xf
     > 0x004507f0      2412           move.l (a2), d2
         0x004507f2      c484           and.l d4, d2
         0x004507f4      11821800       move.b d2, (a0, d1.l)
      > 0x004507f8      0c8000000005   cmpi.l 0x5, d0
      < 0x004507fe      6f12           ble.b 0x450812
         0x00450800      2211           move.l (a1), d1
         0x00450802      5681           addq.l 0x3, d1
         0x00450804      b283           cmp.l d3, d1
     < 0x00450806      6302           bls.b 0x45080a
        0x00450808      4e4f           trap 0xf
     > 0x0045080a      2412           move.l (a2), d2
         0x0045080c      c484           and.l d4, d2
         0x0045080e      11821800       move.b d2, (a0, d1.l)
      > 0x00450812      0c8000000006   cmpi.l 0x6, d0
      < 0x00450818      6f18           ble.b 0x450832
         0x0045081a      2f2e0010       move.l 0x10(a6), -(a7)
         0x0045081e      2f00           move.l d0, -(a7)
         0x00450820      5d97           subq.l 0x6, (a7)
         0x00450822      2207           move.l d7, d1
         0x00450824      d291           add.l (a1), d1
         0x00450826      5881           addq.l 0x4, d1
         0x00450828      2f01           move.l d1, -(a7)
         0x0045082a      4eb9006d1d32   jsr MEM_FILL
         0x00450830      dec5           adda.w d5, a7
      > 0x00450832      d191           add.l d0, (a1)
          0x00450834      5591           subq.l 0x2, (a1)
          0x00450836      2011           move.l (a1), d0
          0x00450838      b083           cmp.l d3, d0
      < 0x0045083a      6302           bls.b 0x45083e
         0x0045083c      4e4f           trap 0xf
      > 0x0045083e      222e000c       move.l 0xc(a6), d1
          0x00450842      c284           and.l d4, d1
          0x00450844      11810800       move.b d1, (a0, d0.l)
          0x00450848      2011           move.l (a1), d0
          0x0045084a      5280           addq.l 0x1, d0
          0x0045084c      b083           cmp.l d3, d0
      < 0x0045084e      6302           bls.b 0x450852
         0x00450850      4e4f           trap 0xf
      > 0x00450852      11810800       move.b d1, (a0, d0.l)
          0x00450856      2011           move.l (a1), d0
          0x00450858      5480           addq.l 0x2, d0
          0x0045085a      b083           cmp.l d3, d0
      < 0x0045085c      6302           bls.b 0x450860
         0x0045085e      4e4f           trap 0xf
      > 0x00450860      222e0008       move.l 0x8(a6), d1
          0x00450864      c284           and.l d4, d1
          0x00450866      11810800       move.b d1, (a0, d0.l)
          0x0045086a      2011           move.l (a1), d0
          0x0045086c      5680           addq.l 0x3, d0
          0x0045086e      b083           cmp.l d3, d0
      < 0x00450870      6302           bls.b 0x450874
         0x00450872      4e4f           trap 0xf
      > 0x00450874      11810800       move.b d1, (a0, d0.l)
          0x00450878      5891           addq.l 0x4, (a1)
      > 0x0045087a      4cdf07bf       movem.l (a7)+, d0-d5/d7/a0-a2
           0x0045087e      4e5e           unlk a6
           0x00450880      4e75           rts
            ; CALL XREFS from C0_CURSOR_DRIVER.c0_make_box @ 0x450a54, 0x450b32
 170: C0_CURSOR_DRIVER.set_no_drop_sta ();
           0x00450882      4e56ffcc       link.w a6, 0xffcc
           0x00450886      bfd5           cmpa.l (a5), a7
       < 0x00450888      6206           bhi.b 0x450890
          0x0045088a      44fc0002       move.w 0x2, ccr
          0x0045088e      4e76           trapv
       > 0x00450890      defc0030       adda.w 0x30, a7
           0x00450894      48e7e0c0       movem.l d0-d2/a0-a1, -(a7)
           0x00450898      243c000003ff   move.l 0x3ff, d2
           0x0045089e      206e001c       movea.l 0x1c(a6), a0
           0x004508a2      2248           movea.l a0, a1
           0x004508a4      2f09           move.l a1, -(a7)
           0x004508a6      2d5ffffc       move.l (a7)+, -0x4(a6)
           0x004508aa      226e0018       movea.l 0x18(a6), a1
           0x004508ae      2011           move.l (a1), d0
           0x004508b0      b082           cmp.l d2, d0
       < 0x004508b2      6302           bls.b 0x4508b6
          0x004508b4      4e4f           trap 0xf
       > 0x004508b6      222e0010       move.l 0x10(a6), d1
           0x004508ba      0281000000ff   andi.l 0xff, d1
           0x004508c0      11810800       move.b d1, (a0, d0.l)
           0x004508c4      2011           move.l (a1), d0
           0x004508c6      5280           addq.l 0x1, d0
           0x004508c8      b082           cmp.l d2, d0
       < 0x004508ca      6302           bls.b 0x4508ce
          0x004508cc      4e4f           trap 0xf
       > 0x004508ce      11810800       move.b d1, (a0, d0.l)
           0x004508d2      202e0014       move.l 0x14(a6), d0
           0x004508d6      0c8000000004   cmpi.l 0x4, d0
       < 0x004508dc      6f1c           ble.b 0x4508fa
          0x004508de      2f2e000c       move.l 0xc(a6), -(a7)
          0x004508e2      2f00           move.l d0, -(a7)
          0x004508e4      5997           subq.l 0x4, (a7)
          0x004508e6      222efffc       move.l -0x4(a6), d1
          0x004508ea      d291           add.l (a1), d1
          0x004508ec      5481           addq.l 0x2, d1
          0x004508ee      2f01           move.l d1, -(a7)
          0x004508f0      4eb9006d1d32   jsr MEM_FILL
          0x004508f6      defc000c       adda.w 0xc, a7
       > 0x004508fa      d191           add.l d0, (a1)
           0x004508fc      5591           subq.l 0x2, (a1)
           0x004508fe      2011           move.l (a1), d0
           0x00450900      b082           cmp.l d2, d0
       < 0x00450902      6302           bls.b 0x450906
          0x00450904      4e4f           trap 0xf
       > 0x00450906      222e0008       move.l 0x8(a6), d1
           0x0045090a      0281000000ff   andi.l 0xff, d1
           0x00450910      11810800       move.b d1, (a0, d0.l)
           0x00450914      2011           move.l (a1), d0
           0x00450916      5280           addq.l 0x1, d0
           0x00450918      b082           cmp.l d2, d0
       < 0x0045091a      6302           bls.b 0x45091e
          0x0045091c      4e4f           trap 0xf
       > 0x0045091e      11810800       move.b d1, (a0, d0.l)
           0x00450922      5491           addq.l 0x2, (a1)
           0x00450924      4cdf0307       movem.l (a7)+, d0-d2/a0-a1
           0x00450928      4e5e           unlk a6
           0x0045092a      4e75           rts
            ; CALL XREF from C0_CURSOR_DRIVER.c_copy_cursor @ 0x4520ba
            ; CALL XREF from C0_CURSOR_DRIVER.c_box_cursor @ 0x452148
 604: C0_CURSOR_DRIVER.c0_make_box ();
           0x0045092c      4e56ff98       link.w a6, 0xff98
           0x00450930      bfd5           cmpa.l (a5), a7
       < 0x00450932      6206           bhi.b 0x45093a
          0x00450934      44fc0002       move.w 0x2, ccr
          0x00450938      4e76           trapv
       > 0x0045093a      defc0060       adda.w 0x60, a7
           0x0045093e      48e7fff8       movem.l d0-d7/a0-a4, -(a7)
           0x00450942      43faf55e       lea.l C0_CURSOR_DRIVER.four_off(pc), a1
           0x00450946      45eefff8       lea.l -0x8(a6), a2
           0x0045094a      47ee0008       lea.l 0x8(a6), a3
           0x0045094e      49f9007ed7e6   lea.l 0x7ed7e6, a4
           0x00450954      243cffff8000   move.l 0xffff8000, d2
           0x0045095a      760c           moveq 0xc, d3
           0x0045095c      283c0000ffff   move.l 0xffff, d4
           0x00450962      7a24           moveq 0x24, d5
           0x00450964      7c18           moveq 0x18, d6
           0x00450966      4a39007ecfb4   tst.b 0x7ecfb4
       < 0x0045096c      6728           beq.b 0x450996
          0x0045096e      3013           move.w (a3), d0
          0x00450970      48c0           ext.l d0
          0x00450972      5380           subq.l 0x1, d0
          0x00450974      9082           sub.l d2, d0
          0x00450976      b084           cmp.l d4, d0
      < 0x00450978      6302           bls.b 0x45097c
         0x0045097a      4e4f           trap 0xf
      > 0x0045097c      d082           add.l d2, d0
          0x0045097e      3680           move.w d0, (a3)
          0x00450980      302e000a       move.w 0xa(a6), d0
          0x00450984      48c0           ext.l d0
          0x00450986      5580           subq.l 0x2, d0
          0x00450988      9082           sub.l d2, d0
          0x0045098a      b084           cmp.l d4, d0
      < 0x0045098c      6302           bls.b 0x450990
         0x0045098e      4e4f           trap 0xf
      > 0x00450990      d082           add.l d2, d0
          0x00450992      3d40000a       move.w d0, 0xa(a6)
       > 0x00450996      4853           pea.l (a3)
           0x00450998      4ebaf0c8       jsr C0_CURSOR_DRIVER.limit_area(pc)
       > 0x0045099c      584f           addq.w 0x4, a7
          0x0045099e      4a39007edfea   tst.b 0x7edfea
      < 0x004509a4      670c           beq.b 0x4509b2
         0x004509a6      48780001       pea.l 0x1
         0x004509aa      4eb900402e42   jsr p_Delay
      < 0x004509b0      60ea           bra.b 0x45099c
      > 0x004509b2      204c           movea.l a4, a0
           0x004509b4      2f08           move.l a0, -(a7)
           0x004509b6      2e1f           move.l (a7)+, d7
           0x004509b8      3013           move.w (a3), d0
           0x004509ba      48c0           ext.l d0
           0x004509bc      3239007ecfd8   move.w 0x7ecfd8, d1
           0x004509c2      48c1           ext.l d1
           0x004509c4      d280           add.l d0, d1
           0x004509c6      9282           sub.l d2, d1
           0x004509c8      b284           cmp.l d4, d1
       < 0x004509ca      6302           bls.b 0x4509ce
          0x004509cc      4e4f           trap 0xf
       > 0x004509ce      d282           add.l d2, d1
           0x004509d0      3681           move.w d1, (a3)
           0x004509d2      594f           subq.w 0x4, a7
           0x004509d4      48780000       pea.l 0x0
           0x004509d8      4e91           jsr (a1)                    ; fcn.0000000a
           0x004509da      584f           addq.w 0x4, a7
           0x004509dc      48c1           ext.l d1
           0x004509de      2f01           move.l d1, -(a7)
           0x004509e0      2f07           move.l d7, -(a7)
           0x004509e2      4eb9006d1d32   jsr MEM_FILL
           0x004509e8      dec3           adda.w d3, a7
           0x004509ea      48c1           ext.l d1
           0x004509ec      2481           move.l d1, (a2)
           0x004509ee      4a39007ecfb7   tst.b 0x7ecfb7
       < 0x004509f4      673c           beq.b 0x450a32
          0x004509f6      4854           pea.l (a4)
          0x004509f8      4852           pea.l (a2)
          0x004509fa      302e000c       move.w 0xc(a6), d0
          0x004509fe      48c0           ext.l d0
          0x00450a00      2f00           move.l d0, -(a7)
          0x00450a02      594f           subq.w 0x4, a7
          0x00450a04      48780001       pea.l 0x1
          0x00450a08      4e91           jsr (a1)                    ; fcn.0000000a
          0x00450a0a      48780002       pea.l 0x2
          0x00450a0e      4e91           jsr (a1)                    ; fcn.0000000a
          0x00450a10      48780003       pea.l 0x3
          0x00450a14      4e91           jsr (a1)                    ; fcn.0000000a
          0x00450a16      48780004       pea.l 0x4
          0x00450a1a      4e91           jsr (a1)                    ; fcn.0000000a
          0x00450a1c      48780002       pea.l 0x2
          0x00450a20      4e91           jsr (a1)                    ; fcn.0000000a
          0x00450a22      48780005       pea.l 0x5
          0x00450a26      4e91           jsr (a1)                    ; fcn.0000000a
          0x00450a28      584f           addq.w 0x4, a7
          0x00450a2a      4ebafcd0       jsr C0_CURSOR_DRIVER.set_drop_state(pc)
          0x00450a2e      dec5           adda.w d5, a7
      < 0x00450a30      6028           bra.b 0x450a5a
      > 0x00450a32      4854           pea.l (a4)
          0x00450a34      4852           pea.l (a2)
          0x00450a36      302e000c       move.w 0xc(a6), d0
          0x00450a3a      48c0           ext.l d0
          0x00450a3c      2f00           move.l d0, -(a7)
          0x00450a3e      594f           subq.w 0x4, a7
          0x00450a40      48780001       pea.l 0x1
          0x00450a44      4e91           jsr (a1)                    ; fcn.0000000a
          0x00450a46      48780004       pea.l 0x4
          0x00450a4a      4e91           jsr (a1)                    ; fcn.0000000a
          0x00450a4c      48780001       pea.l 0x1
          0x00450a50      4e91           jsr (a1)                    ; fcn.0000000a
          0x00450a52      584f           addq.w 0x4, a7
          0x00450a54      4ebafe2c       jsr C0_CURSOR_DRIVER.set_no_drop_sta(pc)
          0x00450a58      dec6           adda.w d6, a7
      > 0x00450a5a      3039007ecfc0   move.w 0x7ecfc0, d0
           0x00450a60      48c0           ext.l d0
           0x00450a62      9092           sub.l (a2), d0
           0x00450a64      4a80           tst.l d0
       < 0x00450a66      6f18           ble.b 0x450a80
          0x00450a68      594f           subq.w 0x4, a7
          0x00450a6a      48780000       pea.l 0x0
          0x00450a6e      4e91           jsr (a1)                    ; fcn.0000000a
          0x00450a70      2e80           move.l d0, (a7)
          0x00450a72      2207           move.l d7, d1
          0x00450a74      d292           add.l (a2), d1
          0x00450a76      2f01           move.l d1, -(a7)
          0x00450a78      4eb9006d1d32   jsr MEM_FILL
          0x00450a7e      dec3           adda.w d3, a7
       > 0x00450a80      41f9007edbe6   lea.l 0x7edbe6, a0
           0x00450a86      2f08           move.l a0, -(a7)
           0x00450a88      2e1f           move.l (a7)+, d7
           0x00450a8a      302e000a       move.w 0xa(a6), d0
           0x00450a8e      48c0           ext.l d0
           0x00450a90      3239007ecfda   move.w 0x7ecfda, d1
           0x00450a96      48c1           ext.l d1
           0x00450a98      d280           add.l d0, d1
           0x00450a9a      9282           sub.l d2, d1
           0x00450a9c      b284           cmp.l d4, d1
       < 0x00450a9e      6302           bls.b 0x450aa2
          0x00450aa0      4e4f           trap 0xf
       > 0x00450aa2      d282           add.l d2, d1
           0x00450aa4      3d41000a       move.w d1, 0xa(a6)
           0x00450aa8      594f           subq.w 0x4, a7
           0x00450aaa      48780000       pea.l 0x0
           0x00450aae      4e91           jsr (a1)                    ; fcn.0000000a
           0x00450ab0      584f           addq.w 0x4, a7
           0x00450ab2      48c1           ext.l d1
           0x00450ab4      2f01           move.l d1, -(a7)
           0x00450ab6      2f07           move.l d7, -(a7)
           0x00450ab8      4eb9006d1d32   jsr MEM_FILL
           0x00450abe      dec3           adda.w d3, a7
           0x00450ac0      48c1           ext.l d1
           0x00450ac2      2481           move.l d1, (a2)
           0x00450ac4      4a39007ecfb7   tst.b 0x7ecfb7
       < 0x00450aca      6740           beq.b 0x450b0c
          0x00450acc      4879007edbe6   pea.l 0x7edbe6
          0x00450ad2      4852           pea.l (a2)
          0x00450ad4      302e000e       move.w 0xe(a6), d0
          0x00450ad8      48c0           ext.l d0
          0x00450ada      2f00           move.l d0, -(a7)
          0x00450adc      594f           subq.w 0x4, a7
          0x00450ade      4878000b       pea.l 0xb
          0x00450ae2      4e91           jsr (a1)                    ; fcn.0000000a
          0x00450ae4      4878000b       pea.l 0xb
          0x00450ae8      4e91           jsr (a1)                    ; fcn.0000000a
          0x00450aea      4878000c       pea.l 0xc
          0x00450aee      4e91           jsr (a1)                    ; fcn.0000000a
          0x00450af0      4878000d       pea.l 0xd
          0x00450af4      4e91           jsr (a1)                    ; fcn.0000000a
          0x00450af6      4878000e       pea.l 0xe
          0x00450afa      4e91           jsr (a1)                    ; fcn.0000000a
          0x00450afc      4878000f       pea.l 0xf
          0x00450b00      4e91           jsr (a1)                    ; fcn.0000000a
          0x00450b02      584f           addq.w 0x4, a7
          0x00450b04      4ebafbf6       jsr C0_CURSOR_DRIVER.set_drop_state(pc)
          0x00450b08      dec5           adda.w d5, a7
      < 0x00450b0a      602c           bra.b 0x450b38
      > 0x00450b0c      4879007edbe6   pea.l 0x7edbe6
          0x00450b12      4852           pea.l (a2)
          0x00450b14      302e000e       move.w 0xe(a6), d0
          0x00450b18      48c0           ext.l d0
          0x00450b1a      2f00           move.l d0, -(a7)
          0x00450b1c      594f           subq.w 0x4, a7
          0x00450b1e      4878000b       pea.l 0xb
          0x00450b22      4e91           jsr (a1)                    ; fcn.0000000a
          0x00450b24      4878000d       pea.l 0xd
          0x00450b28      4e91           jsr (a1)                    ; fcn.0000000a
          0x00450b2a      4878000b       pea.l 0xb
          0x00450b2e      4e91           jsr (a1)                    ; fcn.0000000a
          0x00450b30      584f           addq.w 0x4, a7
          0x00450b32      4ebafd4e       jsr C0_CURSOR_DRIVER.set_no_drop_sta(pc)
          0x00450b36      dec6           adda.w d6, a7
      > 0x00450b38      3039007ecfc2   move.w 0x7ecfc2, d0
           0x00450b3e      48c0           ext.l d0
           0x00450b40      9092           sub.l (a2), d0
           0x00450b42      4a80           tst.l d0
       < 0x00450b44      6f18           ble.b 0x450b5e
          0x00450b46      594f           subq.w 0x4, a7
          0x00450b48      48780000       pea.l 0x0
          0x00450b4c      4e91           jsr (a1)                    ; fcn.0000000a
          0x00450b4e      2e80           move.l d0, (a7)
          0x00450b50      2207           move.l d7, d1
          0x00450b52      d292           add.l (a2), d1
          0x00450b54      2f01           move.l d1, -(a7)
          0x00450b56      4eb9006d1d32   jsr MEM_FILL
          0x00450b5c      dec3           adda.w d3, a7
       > 0x00450b5e      23f9007ecfc0.  move.l 0x7ecfc0, 0x7edfe6.l
           0x00450b68      23fae208007e.  move.l 0x44ed72(pc), 0x7edfec.l
           0x00450b70      13fc0001007e.  move.b 0x1, 0x7edfea.l
           0x00450b78      13fc0002007e.  move.b 0x2, 0x7edfeb.l
           0x00450b80      4cdf1fff       movem.l (a7)+, d0-d7/a0-a4
           0x00450b84      4e5e           unlk a6
           0x00450b86      4e75           rts
            ; CALL XREF from C0_CURSOR_DRIVER.c_make_filled_b @ 0x450db6
            ; CALL XREF from C0_CURSOR_DRIVER.c_make_hidden_b @ 0x450dec
 532: C0_CURSOR_DRIVER.filled_box ();
           0x00450b88      4e56ffa8       link.w a6, 0xffa8
           0x00450b8c      bfd5           cmpa.l (a5), a7
       < 0x00450b8e      6206           bhi.b 0x450b96
          0x00450b90      44fc0002       move.w 0x2, ccr
          0x00450b94      4e76           trapv
       > 0x00450b96      defc0050       adda.w 0x50, a7
           0x00450b9a      48e7fff8       movem.l d0-d7/a0-a4, -(a7)
           0x00450b9e      43ee0008       lea.l 0x8(a6), a1
           0x00450ba2      45ee000a       lea.l 0xa(a6), a2
           0x00450ba6      47ee000c       lea.l 0xc(a6), a3
           0x00450baa      49faf2f6       lea.l C0_CURSOR_DRIVER.four_off(pc), a4
           0x00450bae      740c           moveq 0xc, d2
           0x00450bb0      263cffff8000   move.l 0xffff8000, d3
           0x00450bb6      7801           moveq 0x1, d4
           0x00450bb8      2a3c0000ffff   move.l 0xffff, d5
           0x00450bbe      4a39007ecfb4   tst.b 0x7ecfb4
       < 0x00450bc4      6712           beq.b 0x450bd8
          0x00450bc6      3012           move.w (a2), d0
          0x00450bc8      48c0           ext.l d0
          0x00450bca      5380           subq.l 0x1, d0
          0x00450bcc      9083           sub.l d3, d0
          0x00450bce      b085           cmp.l d5, d0
      < 0x00450bd0      6302           bls.b 0x450bd4
         0x00450bd2      4e4f           trap 0xf
      > 0x00450bd4      d083           add.l d3, d0
          0x00450bd6      3480           move.w d0, (a2)
       > 0x00450bd8      4851           pea.l (a1)
           0x00450bda      4ebaee86       jsr C0_CURSOR_DRIVER.limit_area(pc)
       > 0x00450bde      584f           addq.w 0x4, a7
          0x00450be0      4a39007edfea   tst.b 0x7edfea
      < 0x00450be6      670c           beq.b 0x450bf4
         0x00450be8      48780001       pea.l 0x1
         0x00450bec      4eb900402e42   jsr p_Delay
      < 0x00450bf2      60ea           bra.b 0x450bde
      > 0x00450bf4      41f9007ed7e6   lea.l 0x7ed7e6, a0
           0x00450bfa      2f08           move.l a0, -(a7)
           0x00450bfc      2c1f           move.l (a7)+, d6
           0x00450bfe      3011           move.w (a1), d0
           0x00450c00      48c0           ext.l d0
           0x00450c02      3239007ecfd8   move.w 0x7ecfd8, d1
           0x00450c08      48c1           ext.l d1
           0x00450c0a      d280           add.l d0, d1
           0x00450c0c      9283           sub.l d3, d1
           0x00450c0e      b285           cmp.l d5, d1
       < 0x00450c10      6302           bls.b 0x450c14
          0x00450c12      4e4f           trap 0xf
       > 0x00450c14      d283           add.l d3, d1
           0x00450c16      3281           move.w d1, (a1)
           0x00450c18      4a53           tst.w (a3)
       < 0x00450c1a      6602           bne.b 0x450c1e
          0x00450c1c      3684           move.w d4, (a3)
       > 0x00450c1e      594f           subq.w 0x4, a7
           0x00450c20      48780000       pea.l 0x0
           0x00450c24      4e94           jsr (a4)                    ; fcn.0000000d
           0x00450c26      584f           addq.w 0x4, a7
           0x00450c28      3011           move.w (a1), d0
           0x00450c2a      48c0           ext.l d0
           0x00450c2c      2f00           move.l d0, -(a7)
           0x00450c2e      2f06           move.l d6, -(a7)
           0x00450c30      4eb9006d1d32   jsr MEM_FILL
           0x00450c36      dec2           adda.w d2, a7
           0x00450c38      3011           move.w (a1), d0
           0x00450c3a      48c0           ext.l d0
           0x00450c3c      2e00           move.l d0, d7
           0x00450c3e      594f           subq.w 0x4, a7
           0x00450c40      48780001       pea.l 0x1
           0x00450c44      4e94           jsr (a4)                    ; fcn.0000000d
           0x00450c46      584f           addq.w 0x4, a7
           0x00450c48      3013           move.w (a3), d0
           0x00450c4a      48c0           ext.l d0
           0x00450c4c      2f00           move.l d0, -(a7)
           0x00450c4e      2f06           move.l d6, -(a7)
           0x00450c50      df97           add.l d7, (a7)
           0x00450c52      4eb9006d1d32   jsr MEM_FILL
           0x00450c58      dec2           adda.w d2, a7
           0x00450c5a      3013           move.w (a3), d0
           0x00450c5c      48c0           ext.l d0
           0x00450c5e      de80           add.l d0, d7
           0x00450c60      3039007ecfc0   move.w 0x7ecfc0, d0
           0x00450c66      48c0           ext.l d0
           0x00450c68      9087           sub.l d7, d0
           0x00450c6a      4a80           tst.l d0
       < 0x00450c6c      6f16           ble.b 0x450c84
          0x00450c6e      594f           subq.w 0x4, a7
          0x00450c70      48780000       pea.l 0x0
          0x00450c74      4e94           jsr (a4)                    ; fcn.0000000d
          0x00450c76      2e80           move.l d0, (a7)
          0x00450c78      2f06           move.l d6, -(a7)
          0x00450c7a      df97           add.l d7, (a7)
          0x00450c7c      4eb9006d1d32   jsr MEM_FILL
          0x00450c82      dec2           adda.w d2, a7
       > 0x00450c84      41f9007edbe6   lea.l 0x7edbe6, a0
           0x00450c8a      2f08           move.l a0, -(a7)
           0x00450c8c      2c1f           move.l (a7)+, d6
           0x00450c8e      3012           move.w (a2), d0
           0x00450c90      48c0           ext.l d0
           0x00450c92      3239007ecfda   move.w 0x7ecfda, d1
           0x00450c98      48c1           ext.l d1
           0x00450c9a      d280           add.l d0, d1
           0x00450c9c      9283           sub.l d3, d1
           0x00450c9e      b285           cmp.l d5, d1
       < 0x00450ca0      6302           bls.b 0x450ca4
          0x00450ca2      4e4f           trap 0xf
       > 0x00450ca4      d283           add.l d3, d1
           0x00450ca6      3481           move.w d1, (a2)
           0x00450ca8      4a6e000e       tst.w 0xe(a6)
       < 0x00450cac      6604           bne.b 0x450cb2
          0x00450cae      3d44000e       move.w d4, 0xe(a6)
       > 0x00450cb2      594f           subq.w 0x4, a7
           0x00450cb4      48780000       pea.l 0x0
           0x00450cb8      4e94           jsr (a4)                    ; fcn.0000000d
           0x00450cba      584f           addq.w 0x4, a7
           0x00450cbc      3012           move.w (a2), d0
           0x00450cbe      48c0           ext.l d0
           0x00450cc0      2f00           move.l d0, -(a7)
           0x00450cc2      2f06           move.l d6, -(a7)
           0x00450cc4      4eb9006d1d32   jsr MEM_FILL
           0x00450cca      dec2           adda.w d2, a7
           0x00450ccc      3012           move.w (a2), d0
           0x00450cce      48c0           ext.l d0
           0x00450cd0      2e00           move.l d0, d7
           0x00450cd2      594f           subq.w 0x4, a7
           0x00450cd4      4878000b       pea.l 0xb
           0x00450cd8      4e94           jsr (a4)                    ; fcn.0000000d
           0x00450cda      584f           addq.w 0x4, a7
           0x00450cdc      302e000e       move.w 0xe(a6), d0
           0x00450ce0      48c0           ext.l d0
           0x00450ce2      2f00           move.l d0, -(a7)
           0x00450ce4      2f06           move.l d6, -(a7)
           0x00450ce6      df97           add.l d7, (a7)
           0x00450ce8      4eb9006d1d32   jsr MEM_FILL
           0x00450cee      dec2           adda.w d2, a7
           0x00450cf0      302e000e       move.w 0xe(a6), d0
           0x00450cf4      48c0           ext.l d0
           0x00450cf6      de80           add.l d0, d7
           0x00450cf8      3039007ecfc2   move.w 0x7ecfc2, d0
           0x00450cfe      48c0           ext.l d0
           0x00450d00      9087           sub.l d7, d0
           0x00450d02      4a80           tst.l d0
       < 0x00450d04      6f16           ble.b 0x450d1c
          0x00450d06      594f           subq.w 0x4, a7
          0x00450d08      48780000       pea.l 0x0
          0x00450d0c      4e94           jsr (a4)                    ; fcn.0000000d
          0x00450d0e      2e80           move.l d0, (a7)
          0x00450d10      2f06           move.l d6, -(a7)
          0x00450d12      df97           add.l d7, (a7)
          0x00450d14      4eb9006d1d32   jsr MEM_FILL
          0x00450d1a      dec2           adda.w d2, a7
       > 0x00450d1c      1039007edfeb   move.b 0x7edfeb, d0
           0x00450d22      0c000003       cmpi.b 0x3, d0
       < 0x00450d26      6714           beq.b 0x450d3c
          0x00450d28      23fae048007e.  move.l 0x44ed72(pc), 0x7edfec.l
          0x00450d30      23f9007ecfc0.  move.l 0x7ecfc0, 0x7edfe6.l
      < 0x00450d3a      6024           bra.b 0x450d60
      > 0x00450d3c      2f39007ef036   move.l 0x7ef036, -(a7)
          0x00450d42      2f39007ef032   move.l 0x7ef032, -(a7)
          0x00450d48      2f13           move.l (a3), -(a7)
          0x00450d4a      2f11           move.l (a1), -(a7)
          0x00450d4c      4879007edfec   pea.l 0x7edfec
          0x00450d52      4879007edfe6   pea.l 0x7edfe6
          0x00450d58      4ebaf012       jsr C0_CURSOR_DRIVER.calc_upd_area(pc)
          0x00450d5c      defc0018       adda.w 0x18, a7
      > 0x00450d60      23d1007ef032   move.l (a1), 0x7ef032
           0x00450d66      23d3007ef036   move.l (a3), 0x7ef036
           0x00450d6c      4239007ef006   clr.b 0x7ef006
           0x00450d72      13fc0003007e.  move.b 0x3, 0x7edfeb.l
           0x00450d7a      33f9007ecfcc.  move.w 0x7ecfcc, 0x7ef008.l
           0x00450d84      33f9007ecfce.  move.w 0x7ecfce, 0x7ef00a.l
           0x00450d8e      13c4007edfea   move.b d4, 0x7edfea
           0x00450d94      4cdf1fff       movem.l (a7)+, d0-d7/a0-a4
           0x00450d98      4e5e           unlk a6
           0x00450d9a      4e75           rts
            ; CALL XREF from CURSORCOM.filled_cursor @ 0x4556b6
 46: C0_CURSOR_DRIVER.c_make_filled_b ();
           0x00450d9c      4e56fff4       link.w a6, 0xfff4
           0x00450da0      bfd5           cmpa.l (a5), a7
       < 0x00450da2      6206           bhi.b 0x450daa
          0x00450da4      44fc0002       move.w 0x2, ccr
          0x00450da8      4e76           trapv
       > 0x00450daa      defc000c       adda.w 0xc, a7
           0x00450dae      2f2e000c       move.l 0xc(a6), -(a7)
           0x00450db2      2f2e0008       move.l 0x8(a6), -(a7)
           0x00450db6      4ebafdd0       jsr C0_CURSOR_DRIVER.filled_box(pc)
           0x00450dba      5c4f           addq.w 0x6, a7
           0x00450dbc      1ebc0001       move.b 0x1, (a7)
           0x00450dc0      4ebaf06c       jsr C0_CURSOR_DRIVER.c_cur_enable(pc)
           0x00450dc4      544f           addq.w 0x2, a7
           0x00450dc6      4e5e           unlk a6
           0x00450dc8      4e75           rts
            ; CALL XREF from CURSORCOM.hidden_cursor @ 0x4557c8
            ; CALL XREF from PANEL_OUTPUT.output_window @ 0x790d52
 44: C0_CURSOR_DRIVER.c_make_hidden_b ();
           0x00450dca      4e56fff4       link.w a6, 0xfff4
           0x00450dce      bfd5           cmpa.l (a5), a7
       < 0x00450dd0      6206           bhi.b 0x450dd8
          0x00450dd2      44fc0002       move.w 0x2, ccr
          0x00450dd6      4e76           trapv
       > 0x00450dd8      defc000c       adda.w 0xc, a7
           0x00450ddc      4227           clr.b -(a7)
           0x00450dde      4ebaf04e       jsr C0_CURSOR_DRIVER.c_cur_enable(pc)
           0x00450de2      544f           addq.w 0x2, a7
           0x00450de4      2f2e000c       move.l 0xc(a6), -(a7)
           0x00450de8      2f2e0008       move.l 0x8(a6), -(a7)
           0x00450dec      4ebafd9a       jsr C0_CURSOR_DRIVER.filled_box(pc)
           0x00450df0      504f           addq.w 0x8, a7
           0x00450df2      4e5e           unlk a6
           0x00450df4      4e75           rts
 452: C0_CURSOR_DRIVER.box_safe_area_o ();
           0x00450df6      4e56ffac       link.w a6, 0xffac
           0x00450dfa      bfd5           cmpa.l (a5), a7
       < 0x00450dfc      6206           bhi.b 0x450e04
          0x00450dfe      44fc0002       move.w 0x2, ccr
          0x00450e02      4e76           trapv
       > 0x00450e04      defc0044       adda.w 0x44, a7
           0x00450e08      48e7fbf8       movem.l d0-d4/d6-d7/a0-a4, -(a7)
           0x00450e0c      43faf094       lea.l C0_CURSOR_DRIVER.four_off(pc), a1
           0x00450e10      45f9006d1d32   lea.l MEM_FILL, a2
           0x00450e16      47eefff8       lea.l -0x8(a6), a3
           0x00450e1a      49eefffc       lea.l -0x4(a6), a4
           0x00450e1e      740c           moveq 0xc, d2
           0x00450e20      7601           moveq 0x1, d3
           0x00450e22      283cffff8000   move.l 0xffff8000, d4
           0x00450e28      1f03           move.b d3, -(a7)
           0x00450e2a      4ebaf002       jsr C0_CURSOR_DRIVER.c_cur_enable(pc)
           0x00450e2e      544f           addq.w 0x2, a7
           0x00450e30      26b9007ef02a   move.l 0x7ef02a, (a3)
           0x00450e36      28b9007ef02e   move.l 0x7ef02e, (a4)
       > 0x00450e3c      4a39007edfea   tst.b 0x7edfea
      < 0x00450e42      670e           beq.b 0x450e52
         0x00450e44      48780001       pea.l 0x1
         0x00450e48      4eb900402e42   jsr p_Delay
         0x00450e4e      584f           addq.w 0x4, a7
      < 0x00450e50      60ea           bra.b 0x450e3c
      > 0x00450e52      41f9007ed7e6   lea.l 0x7ed7e6, a0
           0x00450e58      2f08           move.l a0, -(a7)
           0x00450e5a      2c1f           move.l (a7)+, d6
           0x00450e5c      3013           move.w (a3), d0
           0x00450e5e      48c0           ext.l d0
           0x00450e60      3239007ecfd8   move.w 0x7ecfd8, d1
           0x00450e66      48c1           ext.l d1
           0x00450e68      d280           add.l d0, d1
           0x00450e6a      9284           sub.l d4, d1
           0x00450e6c      0c810000ffff   cmpi.l 0xffff, d1
       < 0x00450e72      6302           bls.b 0x450e76
          0x00450e74      4e4f           trap 0xf
       > 0x00450e76      d284           add.l d4, d1
           0x00450e78      3681           move.w d1, (a3)
           0x00450e7a      4a54           tst.w (a4)
       < 0x00450e7c      6602           bne.b 0x450e80
          0x00450e7e      3883           move.w d3, (a4)
       > 0x00450e80      594f           subq.w 0x4, a7
           0x00450e82      48780009       pea.l 0x9
           0x00450e86      4e91           jsr (a1)                    ; fcn.0000000a
           0x00450e88      584f           addq.w 0x4, a7
           0x00450e8a      3013           move.w (a3), d0
           0x00450e8c      48c0           ext.l d0
           0x00450e8e      2f00           move.l d0, -(a7)
           0x00450e90      2f06           move.l d6, -(a7)
           0x00450e92      4e92           jsr (a2)                    ; fcn.00000009+0x2
           0x00450e94      dec2           adda.w d2, a7
           0x00450e96      3013           move.w (a3), d0
           0x00450e98      48c0           ext.l d0
           0x00450e9a      2e00           move.l d0, d7
           0x00450e9c      594f           subq.w 0x4, a7
           0x00450e9e      4878000f       pea.l 0xf
           0x00450ea2      4e91           jsr (a1)                    ; fcn.0000000a
           0x00450ea4      584f           addq.w 0x4, a7
           0x00450ea6      3014           move.w (a4), d0
           0x00450ea8      48c0           ext.l d0
           0x00450eaa      2f00           move.l d0, -(a7)
           0x00450eac      2f06           move.l d6, -(a7)
           0x00450eae      df97           add.l d7, (a7)
           0x00450eb0      4e92           jsr (a2)                    ; fcn.00000009+0x2
           0x00450eb2      dec2           adda.w d2, a7
           0x00450eb4      3014           move.w (a4), d0
           0x00450eb6      48c0           ext.l d0
           0x00450eb8      de80           add.l d0, d7
           0x00450eba      3039007ecfc0   move.w 0x7ecfc0, d0
           0x00450ec0      48c0           ext.l d0
           0x00450ec2      9087           sub.l d7, d0
           0x00450ec4      4a80           tst.l d0
       < 0x00450ec6      6f12           ble.b 0x450eda
          0x00450ec8      594f           subq.w 0x4, a7
          0x00450eca      48780009       pea.l 0x9
          0x00450ece      4e91           jsr (a1)                    ; fcn.0000000a
          0x00450ed0      2e80           move.l d0, (a7)
          0x00450ed2      2f06           move.l d6, -(a7)
          0x00450ed4      df97           add.l d7, (a7)
          0x00450ed6      4e92           jsr (a2)                    ; fcn.00000009+0x2
          0x00450ed8      dec2           adda.w d2, a7
       > 0x00450eda      41f9007edbe6   lea.l 0x7edbe6, a0
           0x00450ee0      2f08           move.l a0, -(a7)
           0x00450ee2      2c1f           move.l (a7)+, d6
           0x00450ee4      302efffa       move.w -0x6(a6), d0
           0x00450ee8      48c0           ext.l d0
           0x00450eea      3239007ecfda   move.w 0x7ecfda, d1
           0x00450ef0      48c1           ext.l d1
           0x00450ef2      d280           add.l d0, d1
           0x00450ef4      9284           sub.l d4, d1
           0x00450ef6      0c810000ffff   cmpi.l 0xffff, d1
       < 0x00450efc      6302           bls.b 0x450f00
          0x00450efe      4e4f           trap 0xf
       > 0x00450f00      d284           add.l d4, d1
           0x00450f02      3d41fffa       move.w d1, -0x6(a6)
           0x00450f06      4a6efffe       tst.w -0x2(a6)
       < 0x00450f0a      6604           bne.b 0x450f10
          0x00450f0c      3d43fffe       move.w d3, -0x2(a6)
       > 0x00450f10      594f           subq.w 0x4, a7
           0x00450f12      4878000a       pea.l 0xa
           0x00450f16      4e91           jsr (a1)                    ; fcn.0000000a
           0x00450f18      584f           addq.w 0x4, a7
           0x00450f1a      302efffa       move.w -0x6(a6), d0
           0x00450f1e      48c0           ext.l d0
           0x00450f20      2f00           move.l d0, -(a7)
           0x00450f22      2f06           move.l d6, -(a7)
           0x00450f24      4e92           jsr (a2)                    ; fcn.00000009+0x2
           0x00450f26      dec2           adda.w d2, a7
           0x00450f28      302efffa       move.w -0x6(a6), d0
           0x00450f2c      48c0           ext.l d0
           0x00450f2e      2e00           move.l d0, d7
           0x00450f30      594f           subq.w 0x4, a7
           0x00450f32      48780001       pea.l 0x1
           0x00450f36      4e91           jsr (a1)                    ; fcn.0000000a
           0x00450f38      584f           addq.w 0x4, a7
           0x00450f3a      302efffe       move.w -0x2(a6), d0
           0x00450f3e      48c0           ext.l d0
           0x00450f40      2f00           move.l d0, -(a7)
           0x00450f42      2f06           move.l d6, -(a7)
           0x00450f44      df97           add.l d7, (a7)
           0x00450f46      4e92           jsr (a2)                    ; fcn.00000009+0x2
           0x00450f48      dec2           adda.w d2, a7
           0x00450f4a      302efffe       move.w -0x2(a6), d0
           0x00450f4e      48c0           ext.l d0
           0x00450f50      de80           add.l d0, d7
           0x00450f52      3039007ecfc2   move.w 0x7ecfc2, d0
           0x00450f58      48c0           ext.l d0
           0x00450f5a      9087           sub.l d7, d0
           0x00450f5c      4a80           tst.l d0
       < 0x00450f5e      6f12           ble.b 0x450f72
          0x00450f60      594f           subq.w 0x4, a7
          0x00450f62      4878000a       pea.l 0xa
          0x00450f66      4e91           jsr (a1)                    ; fcn.0000000a
          0x00450f68      2e80           move.l d0, (a7)
          0x00450f6a      2f06           move.l d6, -(a7)
          0x00450f6c      df97           add.l d7, (a7)
          0x00450f6e      4e92           jsr (a2)                    ; fcn.00000009+0x2
          0x00450f70      dec2           adda.w d2, a7
       > 0x00450f72      23f9007ecfc0.  move.l 0x7ecfc0, 0x7edfe6.l
           0x00450f7c      23faddf4007e.  move.l 0x44ed72(pc), 0x7edfec.l
           0x00450f84      4239007ef006   clr.b 0x7ef006
           0x00450f8a      13fc0003007e.  move.b 0x3, 0x7edfeb.l
           0x00450f92      33f9007ecfcc.  move.w 0x7ecfcc, 0x7ef008.l
           0x00450f9c      33f9007ecfce.  move.w 0x7ecfce, 0x7ef00a.l
           0x00450fa6      4eb90045235c   jsr C0_CURSOR_DRIVER.c_grid_off
           0x00450fac      13c3007edfea   move.b d3, 0x7edfea
           0x00450fb2      4cdf1fdf       movem.l (a7)+, d0-d4/d6-d7/a0-a4
           0x00450fb6      4e5e           unlk a6
           0x00450fb8      4e75           rts
 228: C0_CURSOR_DRIVER.fill_grid_point ();
           0x00450fba      4e56ffd0       link.w a6, 0xffd0
           0x00450fbe      bfd5           cmpa.l (a5), a7
       < 0x00450fc0      6206           bhi.b 0x450fc8
          0x00450fc2      44fc0002       move.w 0x2, ccr
          0x00450fc6      4e76           trapv
       > 0x00450fc8      defc002c       adda.w 0x2c, a7
           0x00450fcc      48e7f3c0       movem.l d0-d3/d6-d7/a0-a1, -(a7)
           0x00450fd0      243cffff8000   move.l 0xffff8000, d2
           0x00450fd6      263c0000ffff   move.l 0xffff, d3
           0x00450fdc      302e0008       move.w 0x8(a6), d0
           0x00450fe0      48c0           ext.l d0
           0x00450fe2      322e000c       move.w 0xc(a6), d1
           0x00450fe6      48c1           ext.l d1
           0x00450fe8      4481           neg.l d1
           0x00450fea      d280           add.l d0, d1
           0x00450fec      5281           addq.l 0x1, d1
           0x00450fee      9282           sub.l d2, d1
           0x00450ff0      b283           cmp.l d3, d1
       < 0x00450ff2      6302           bls.b 0x450ff6
          0x00450ff4      4e4f           trap 0xf
       > 0x00450ff6      d282           add.l d2, d1
           0x00450ff8      3e01           move.w d1, d7
           0x00450ffa      7c01           moveq 0x1, d6
       > 0x00450ffc      4a47           tst.w d7
      < 0x00450ffe      6c26           bge.b 0x451026
         0x00451000      48c6           ext.l d6
         0x00451002      2006           move.l d6, d0
         0x00451004      5280           addq.l 0x1, d0
         0x00451006      9082           sub.l d2, d0
         0x00451008      b083           cmp.l d3, d0
     < 0x0045100a      6302           bls.b 0x45100e
        0x0045100c      4e4f           trap 0xf
     > 0x0045100e      d082           add.l d2, d0
         0x00451010      3c00           move.w d0, d6
         0x00451012      48c7           ext.l d7
         0x00451014      2007           move.l d7, d0
         0x00451016      5280           addq.l 0x1, d0
         0x00451018      9082           sub.l d2, d0
         0x0045101a      b083           cmp.l d3, d0
     < 0x0045101c      6302           bls.b 0x451020
        0x0045101e      4e4f           trap 0xf
     > 0x00451020      d082           add.l d2, d0
         0x00451022      3e00           move.w d0, d7
      < 0x00451024      60d6           bra.b 0x450ffc
      > 0x00451026      206e0016       movea.l 0x16(a6), a0
           0x0045102a      226e0012       movea.l 0x12(a6), a1
       > 0x0045102e      0c4703ff       cmpi.w 0x3ff, d7
      < 0x00451032      6e62           bgt.b 0x451096
         0x00451034      bc6e000a       cmp.w 0xa(a6), d6
     < 0x00451038      6e5c           bgt.b 0x451096
        0x0045103a      4fbc03ff       chk.w 0x3ff, d7
        0x0045103e      48c6           ext.l d6
        0x00451040      2006           move.l d6, d0
        0x00451042      4281           clr.l d1
        0x00451044      322e000e       move.w 0xe(a6), d1
        0x00451048      b081           cmp.l d1, d0
    < 0x0045104a      620a           bhi.b 0x451056
       0x0045104c      4281           clr.l d1
       0x0045104e      322e0010       move.w 0x10(a6), d1
       0x00451052      9081           sub.l d1, d0
   < 0x00451054      6402           bcc.b 0x451058
   > 0x00451056      4e4f           trap 0xf
   > 0x00451058      e580           asl.l 0x2, d0
        0x0045105a      20310800       move.l (a1, d0.l), d0
        0x0045105e      0280000000ff   andi.l 0xff, d0
        0x00451064      0c80000000ff   cmpi.l 0xff, d0
    < 0x0045106a      6302           bls.b 0x45106e
       0x0045106c      4e4f           trap 0xf
    > 0x0045106e      11807000       move.b d0, (a0, d7.w)
        0x00451072      48c7           ext.l d7
        0x00451074      2007           move.l d7, d0
        0x00451076      5280           addq.l 0x1, d0
        0x00451078      9082           sub.l d2, d0
        0x0045107a      b083           cmp.l d3, d0
    < 0x0045107c      6302           bls.b 0x451080
       0x0045107e      4e4f           trap 0xf
    > 0x00451080      d082           add.l d2, d0
        0x00451082      3e00           move.w d0, d7
        0x00451084      2006           move.l d6, d0
        0x00451086      5280           addq.l 0x1, d0
        0x00451088      9082           sub.l d2, d0
        0x0045108a      b083           cmp.l d3, d0
    < 0x0045108c      6302           bls.b 0x451090
       0x0045108e      4e4f           trap 0xf
    > 0x00451090      d082           add.l d2, d0
        0x00451092      3c00           move.w d0, d6
     < 0x00451094      6098           bra.b 0x45102e
     > 0x00451096      4cdf03cf       movem.l (a7)+, d0-d3/d6-d7/a0-a1
           0x0045109a      4e5e           unlk a6
           0x0045109c      4e75           rts
 416: C0_CURSOR_DRIVER.set_safe_area ();
           0x0045109e      4e56ffac       link.w a6, 0xffac
           0x004510a2      bfd5           cmpa.l (a5), a7
       < 0x004510a4      6206           bhi.b 0x4510ac
          0x004510a6      44fc0002       move.w 0x2, ccr
          0x004510aa      4e76           trapv
       > 0x004510ac      defc0048       adda.w 0x48, a7
           0x004510b0      48e7fff8       movem.l d0-d7/a0-a4, -(a7)
           0x004510b4      43f9007ecfb4   lea.l 0x7ecfb4, a1
           0x004510ba      45ee0014       lea.l 0x14(a6), a2
           0x004510be      47ee001c       lea.l 0x1c(a6), a3
           0x004510c2      49ee0016       lea.l 0x16(a6), a4
           0x004510c6      263c000003ff   move.l 0x3ff, d3
           0x004510cc      283c000000ff   move.l 0xff, d4
           0x004510d2      4a11           tst.b (a1)
       < 0x004510d4      6704           beq.b 0x4510da
          0x004510d6      7a02           moveq 0x2, d5
      < 0x004510d8      6002           bra.b 0x4510dc
      > 0x004510da      7a04           moveq 0x4, d5
      > 0x004510dc      23d2007ef02a   move.l (a2), 0x7ef02a
           0x004510e2      23ee0018007e.  move.l 0x18(a6), 0x7ef02e.l
           0x004510ea      4a13           tst.b (a3)
       < 0x004510ec      6704           beq.b 0x4510f2
          0x004510ee      3012           move.w (a2), d0
      < 0x004510f0      6002           bra.b 0x4510f4
      > 0x004510f2      3014           move.w (a4), d0
      > 0x004510f4      48c0           ext.l d0
           0x004510f6      2e00           move.l d0, d7
           0x004510f8      2005           move.l d5, d0
           0x004510fa      5380           subq.l 0x1, d0
           0x004510fc      4480           neg.l d0
           0x004510fe      d083           add.l d3, d0
           0x00451100      4a87           tst.l d7
       < 0x00451102      6d72           blt.b 0x451176
          0x00451104      be80           cmp.l d0, d7
      < 0x00451106      6e6e           bgt.b 0x451176
         0x00451108      be83           cmp.l d3, d7
     < 0x0045110a      6302           bls.b 0x45110e
        0x0045110c      4e4f           trap 0xf
     > 0x0045110e      206e001e       movea.l 0x1e(a6), a0
         0x00451112      222e0010       move.l 0x10(a6), d1
         0x00451116      c284           and.l d4, d1
         0x00451118      11817800       move.b d1, (a0, d7.l)
         0x0045111c      5287           addq.l 0x1, d7
         0x0045111e      4a11           tst.b (a1)
     < 0x00451120      660c           bne.b 0x45112e
        0x00451122      be83           cmp.l d3, d7
    < 0x00451124      6302           bls.b 0x451128
       0x00451126      4e4f           trap 0xf
    > 0x00451128      11817800       move.b d1, (a0, d7.l)
        0x0045112c      5287           addq.l 0x1, d7
     > 0x0045112e      be83           cmp.l d3, d7
     < 0x00451130      6302           bls.b 0x451134
        0x00451132      4e4f           trap 0xf
     > 0x00451134      222e000c       move.l 0xc(a6), d1
         0x00451138      c284           and.l d4, d1
         0x0045113a      11817800       move.b d1, (a0, d7.l)
         0x0045113e      5287           addq.l 0x1, d7
         0x00451140      4a11           tst.b (a1)
     < 0x00451142      660a           bne.b 0x45114e
        0x00451144      be83           cmp.l d3, d7
    < 0x00451146      6302           bls.b 0x45114a
       0x00451148      4e4f           trap 0xf
    > 0x0045114a      11817800       move.b d1, (a0, d7.l)
     > 0x0045114e      4a13           tst.b (a3)
     < 0x00451150      6704           beq.b 0x451156
        0x00451152      3212           move.w (a2), d1
    < 0x00451154      6002           bra.b 0x451158
    > 0x00451156      3214           move.w (a4), d1
    > 0x00451158      48c1           ext.l d1
         0x0045115a      2c01           move.l d1, d6
         0x0045115c      594f           subq.w 0x4, a7
         0x0045115e      48780000       pea.l 0x0
         0x00451162      4ebaed3e       jsr C0_CURSOR_DRIVER.four_off(pc)
         0x00451166      2e86           move.l d6, (a7)
         0x00451168      2f2e0008       move.l 0x8(a6), -(a7)
         0x0045116c      4eb9006d1d32   jsr MEM_FILL
         0x00451172      defc000c       adda.w 0xc, a7
      > 0x00451176      4a13           tst.b (a3)
       < 0x00451178      670a           beq.b 0x451184
          0x0045117a      3212           move.w (a2), d1
          0x0045117c      48c1           ext.l d1
          0x0045117e      342e0018       move.w 0x18(a6), d2
      < 0x00451182      6008           bra.b 0x45118c
      > 0x00451184      3214           move.w (a4), d1
          0x00451186      48c1           ext.l d1
          0x00451188      342e001a       move.w 0x1a(a6), d2
      > 0x0045118c      48c2           ext.l d2
           0x0045118e      d481           add.l d1, d2
           0x00451190      9485           sub.l d5, d2
           0x00451192      2e02           move.l d2, d7
           0x00451194      4a87           tst.l d7
       < 0x00451196      6d00009e       blt.w 0x451236
          0x0045119a      be80           cmp.l d0, d7
      < 0x0045119c      6e000098       bgt.w 0x451236
         0x004511a0      be83           cmp.l d3, d7
     < 0x004511a2      6302           bls.b 0x4511a6
        0x004511a4      4e4f           trap 0xf
     > 0x004511a6      206e001e       movea.l 0x1e(a6), a0
         0x004511aa      202e000c       move.l 0xc(a6), d0
         0x004511ae      c084           and.l d4, d0
         0x004511b0      11807800       move.b d0, (a0, d7.l)
         0x004511b4      5287           addq.l 0x1, d7
         0x004511b6      4a11           tst.b (a1)
     < 0x004511b8      660c           bne.b 0x4511c6
        0x004511ba      be83           cmp.l d3, d7
    < 0x004511bc      6302           bls.b 0x4511c0
       0x004511be      4e4f           trap 0xf
    > 0x004511c0      11807800       move.b d0, (a0, d7.l)
        0x004511c4      5287           addq.l 0x1, d7
     > 0x004511c6      be83           cmp.l d3, d7
     < 0x004511c8      6302           bls.b 0x4511cc
        0x004511ca      4e4f           trap 0xf
     > 0x004511cc      202e0010       move.l 0x10(a6), d0
         0x004511d0      c084           and.l d4, d0
         0x004511d2      11807800       move.b d0, (a0, d7.l)
         0x004511d6      5287           addq.l 0x1, d7
         0x004511d8      4a11           tst.b (a1)
     < 0x004511da      660a           bne.b 0x4511e6
        0x004511dc      be83           cmp.l d3, d7
    < 0x004511de      6302           bls.b 0x4511e2
       0x004511e0      4e4f           trap 0xf
    > 0x004511e2      11807800       move.b d0, (a0, d7.l)
     > 0x004511e6      4a13           tst.b (a3)
     < 0x004511e8      670a           beq.b 0x4511f4
        0x004511ea      3012           move.w (a2), d0
        0x004511ec      48c0           ext.l d0
        0x004511ee      322e0018       move.w 0x18(a6), d1
    < 0x004511f2      6008           bra.b 0x4511fc
    > 0x004511f4      3014           move.w (a4), d0
        0x004511f6      48c0           ext.l d0
        0x004511f8      322e001a       move.w 0x1a(a6), d1
    > 0x004511fc      48c1           ext.l d1
         0x004511fe      d280           add.l d0, d1
         0x00451200      2e01           move.l d1, d7
         0x00451202      4a13           tst.b (a3)
     < 0x00451204      6708           beq.b 0x45120e
        0x00451206      3039007ecfd0   move.w 0x7ecfd0, d0
    < 0x0045120c      6006           bra.b 0x451214
    > 0x0045120e      3039007ecfd2   move.w 0x7ecfd2, d0
    > 0x00451214      48c0           ext.l d0
         0x00451216      9087           sub.l d7, d0
         0x00451218      2c00           move.l d0, d6
         0x0045121a      594f           subq.w 0x4, a7
         0x0045121c      48780000       pea.l 0x0
         0x00451220      4ebaec80       jsr C0_CURSOR_DRIVER.four_off(pc)
         0x00451224      2e86           move.l d6, (a7)
         0x00451226      2f2e0008       move.l 0x8(a6), -(a7)
         0x0045122a      df97           add.l d7, (a7)
         0x0045122c      4eb9006d1d32   jsr MEM_FILL
         0x00451232      defc000c       adda.w 0xc, a7
      > 0x00451236      4cdf1fff       movem.l (a7)+, d0-d7/a0-a4
           0x0045123a      4e5e           unlk a6
           0x0045123c      4e75           rts
            ; CALL XREF from MENUGRIDCOM.redraw_grid_ove @ 0x4ff4da
 70: C0_CURSOR_DRIVER.c_grid_overlay ();
           0x0045123e      4e56ff34       link.w a6, 0xff34
           0x00451242      bfd5           cmpa.l (a5), a7
       < 0x00451244      6206           bhi.b 0x45124c
          0x00451246      44fc0002       move.w 0x2, ccr
          0x0045124a      4e76           trapv
       > 0x0045124c      defc007a       adda.w 0x7a, a7
           0x00451250      48e7fff8       movem.l d0-d7/a0-a4, -(a7)
           0x00451254      45ee0008       lea.l 0x8(a6), a2
           0x00451258      47ee0018       lea.l 0x18(a6), a3
           0x0045125c      7401           moveq 0x1, d2
           0x0045125e      263cffff8000   move.l 0xffff8000, d3
           0x00451264      780c           moveq 0xc, d4
           0x00451266      554f           subq.w 0x2, a7
           0x00451268      4eb900518c62   jsr OUTCOM.get_palstate
           0x0045126e      101f           move.b (a7)+, d0
           0x00451270      4880           ext.w d0
           0x00451272      0c400006       cmpi.w 0x6, d0
       < 0x00451276      6302           bls.b 0x45127a
          0x00451278      4e4e           trap 0xe
       > 0x0045127a      d040           add.w d0, d0
           0x0045127c      303b0006       move.w 0x451284(pc, d0.w), d0
           0x00451280      4efb0002       jmp 0x451284(pc, d0.w)
            0x00451284      00220014       ori.b 0x14, -(a2)
            0x00451288      000e0014       
            0x00451289      0e001400       
            0x0045128a      0014000e       ori.b 0xe, (a4)
            0x0045128e      001a001a       ori.b 0x1a, (a2)+
            0x00451292      422efffe       clr.b -0x2(a6)
        < 0x00451296      6014           bra.b 0x4512ac
           0x00451298      1d42fffe       move.b d2, -0x2(a6)
       < 0x0045129c      600e           bra.b 0x4512ac
          0x0045129e      1d7c0002fffe   move.b 0x2, -0x2(a6)
      < 0x004512a4      6006           bra.b 0x4512ac
         0x004512a6      1d7c0003fffe   move.b 0x3, -0x2(a6)
      > 0x004512ac      4a2e001a       tst.b 0x1a(a6)
        < 0x004512b0      660a           bne.b 0x4512bc
           0x004512b2      4a13           tst.b (a3)
       < 0x004512b4      6606           bne.b 0x4512bc
          0x004512b6      4227           clr.b -(a7)
      < 0x004512b8      60000442       bra.w 0x4516fc
     > 0x004512bc      4a39007ee7f4   tst.b 0x7ee7f4
      < 0x004512c2      670e           beq.b 0x4512d2
         0x004512c4      48780001       pea.l 0x1
         0x004512c8      4eb900402e42   jsr p_Delay
         0x004512ce      584f           addq.w 0x4, a7
     < 0x004512d0      60ea           bra.b 0x4512bc
      > 0x004512d2      4a39007eeffe   tst.b 0x7eeffe
      < 0x004512d8      670e           beq.b 0x4512e8
         0x004512da      48780001       pea.l 0x1
         0x004512de      4eb900402e42   jsr p_Delay
         0x004512e4      584f           addq.w 0x4, a7
      < 0x004512e6      60ea           bra.b 0x4512d2
       > 0x004512e8      41f9007edff0   lea.l 0x7edff0, a0
           0x004512ee      2f08           move.l a0, -(a7)
           0x004512f0      2d5fffb2       move.l (a7)+, -0x4e(a6)
           0x004512f4      41f9007ee3f0   lea.l 0x7ee3f0, a0
           0x004512fa      2f08           move.l a0, -(a7)
           0x004512fc      2a1f           move.l (a7)+, d5
           0x004512fe      4a13           tst.b (a3)
       < 0x00451300      6700009e       beq.w 0x4513a0
          0x00451304      4a52           tst.w (a2)
      < 0x00451306      6d06           blt.b 0x45130e
         0x00451308      4a6e000a       tst.w 0xa(a6)
     < 0x0045130c      6c4e           bge.b 0x45135c
     > 0x0045130e      487ae0f7       pea.l 0x44f407(pc)
         0x00451312      48780023       pea.l 0x23
         0x00451316      2f17           move.l (a7), -(a7)
         0x00451318      4eb9004047ea   jsr p_wts_o
         0x0045131e      dec4           adda.w d4, a7
         0x00451320      3012           move.w (a2), d0
         0x00451322      48c0           ext.l d0
         0x00451324      2f00           move.l d0, -(a7)
         0x00451326      4878000c       pea.l 0xc
         0x0045132a      4eb9004070e4   jsr p_wti_o
         0x00451330      504f           addq.w 0x8, a7
         0x00451332      302e000a       move.w 0xa(a6), d0
         0x00451336      48c0           ext.l d0
         0x00451338      2f00           move.l d0, -(a7)
         0x0045133a      4878000c       pea.l 0xc
         0x0045133e      4eb9004070e4   jsr p_wti_o
         0x00451344      504f           addq.w 0x8, a7
         0x00451346      4eb900404946   jsr p_wtln_o
         0x0045134c      4a52           tst.w (a2)
     < 0x0045134e      6c02           bge.b 0x451352
        0x00451350      4252           clr.w (a2)
     > 0x00451352      4a6e000a       tst.w 0xa(a6)
     < 0x00451356      6c04           bge.b 0x45135c
        0x00451358      426e000a       clr.w 0xa(a6)
     > 0x0045135c      594f           subq.w 0x4, a7
          0x0045135e      4878000c       pea.l 0xc
          0x00451362      4ebaeb3e       jsr C0_CURSOR_DRIVER.four_off(pc)
          0x00451366      584f           addq.w 0x4, a7
          0x00451368      302e000c       move.w 0xc(a6), d0
          0x0045136c      48c0           ext.l d0
          0x0045136e      2f00           move.l d0, -(a7)
          0x00451370      3012           move.w (a2), d0
          0x00451372      48c0           ext.l d0
          0x00451374      d0aeffb2       add.l -0x4e(a6), d0
          0x00451378      2f00           move.l d0, -(a7)
          0x0045137a      4eb9006d1d32   jsr MEM_FILL
          0x00451380      504f           addq.w 0x8, a7
          0x00451382      48780009       pea.l 0x9
          0x00451386      4ebaeb1a       jsr C0_CURSOR_DRIVER.four_off(pc)
          0x0045138a      584f           addq.w 0x4, a7
          0x0045138c      302e000e       move.w 0xe(a6), d0
          0x00451390      48c0           ext.l d0
          0x00451392      2f00           move.l d0, -(a7)
          0x00451394      302e000a       move.w 0xa(a6), d0
          0x00451398      48c0           ext.l d0
          0x0045139a      d085           add.l d5, d0
          0x0045139c      2f00           move.l d0, -(a7)
      < 0x0045139e      6038           bra.b 0x4513d8
      > 0x004513a0      594f           subq.w 0x4, a7
          0x004513a2      4878000c       pea.l 0xc
          0x004513a6      4ebaeafa       jsr C0_CURSOR_DRIVER.four_off(pc)
          0x004513aa      584f           addq.w 0x4, a7
          0x004513ac      3039007ecfd0   move.w 0x7ecfd0, d0
          0x004513b2      48c0           ext.l d0
          0x004513b4      2f00           move.l d0, -(a7)
          0x004513b6      2f2effb2       move.l -0x4e(a6), -(a7)
          0x004513ba      4eb9006d1d32   jsr MEM_FILL
          0x004513c0      504f           addq.w 0x8, a7
          0x004513c2      48780009       pea.l 0x9
          0x004513c6      4ebaeada       jsr C0_CURSOR_DRIVER.four_off(pc)
          0x004513ca      584f           addq.w 0x4, a7
          0x004513cc      3039007ecfd2   move.w 0x7ecfd2, d0
          0x004513d2      48c0           ext.l d0
          0x004513d4      2f00           move.l d0, -(a7)
          0x004513d6      2f05           move.l d5, -(a7)
      > 0x004513d8      4eb9006d1d32   jsr MEM_FILL
           0x004513de      dec4           adda.w d4, a7
           0x004513e0      286e0014       movea.l 0x14(a6), a4
       > 0x004513e4      4a2e001a       tst.b 0x1a(a6)
      < 0x004513e8      67000116       beq.w 0x451500
         0x004513ec      b8c2           cmpa.w d2, a4
     < 0x004513ee      67000110       beq.w 0x451500
        0x004513f2      b9ecfffc       cmpa.l -0x4(a4), a4
    < 0x004513f6      6702           beq.b 0x4513fa
       0x004513f8      4e4d           trap 0xd
    > 0x004513fa      302c0008       move.w 0x8(a4), d0
        0x004513fe      48c0           ext.l d0
        0x00451400      2200           move.l d0, d1
    < 0x00451402      6a02           bpl.b 0x451406
       0x00451404      4481           neg.l d1
    > 0x00451406      9283           sub.l d3, d1
        0x00451408      0c810000ffff   cmpi.l 0xffff, d1
    < 0x0045140e      6302           bls.b 0x451412
       0x00451410      4e4f           trap 0xf
    > 0x00451412      d283           add.l d3, d1
        0x00451414      3e01           move.w d1, d7
        0x00451416      4a39007ecfb3   tst.b 0x7ecfb3
    < 0x0045141c      6706           beq.b 0x451424
       0x0045141e      48c7           ext.l d7
       0x00451420      8ffc0002       divs.w 0x2, d7
    > 0x00451424      4a2c000a       tst.b 0xa(a4)
    < 0x00451428      67000094       beq.w 0x4514be
       0x0045142c      4a80           tst.l d0
   < 0x0045142e      6c48           bge.b 0x451478
      0x00451430      7200           moveq 0x0, d1
  < 0x00451432      6718           beq.b 0x45144c
     0x00451434      4a13           tst.b (a3)
  < 0x00451436      6614           bne.b 0x45144c
     0x00451438      41eeffc0       lea.l -0x40(a6), a0
     0x0045143c      43fadd58       lea.l 0x44f196(pc), a1
     0x00451440      720c           moveq 0xc, d1
  > 0x00451442      20d9           move.l (a1)+, (a0)+
  < 0x00451444      51c9fffc       dbra d1, 0x451442
  < 0x00451448      60000084       bra.w 0x4514ce
  > 0x0045144c      4a39007ecfb3   tst.b 0x7ecfb3
  < 0x00451452      6712           beq.b 0x451466
     0x00451454      41eeffc0       lea.l -0x40(a6), a0
     0x00451458      43fade74       lea.l 0x44f2ce(pc), a1
     0x0045145c      720c           moveq 0xc, d1
  > 0x0045145e      20d9           move.l (a1)+, (a0)+
  < 0x00451460      51c9fffc       dbra d1, 0x45145e
  < 0x00451464      6068           bra.b 0x4514ce
  > 0x00451466      41eeffc0       lea.l -0x40(a6), a0
      0x0045146a      43faddfa       lea.l 0x44f266(pc), a1
      0x0045146e      720c           moveq 0xc, d1
  > 0x00451470      20d9           move.l (a1)+, (a0)+
  < 0x00451472      51c9fffc       dbra d1, 0x451470
  < 0x00451476      6056           bra.b 0x4514ce
  > 0x00451478      7200           moveq 0x0, d1
  < 0x0045147a      6716           beq.b 0x451492
     0x0045147c      4a13           tst.b (a3)
  < 0x0045147e      6612           bne.b 0x451492
     0x00451480      41eeffc0       lea.l -0x40(a6), a0
     0x00451484      43fadd78       lea.l 0x44f1fe(pc), a1
     0x00451488      720c           moveq 0xc, d1
  > 0x0045148a      20d9           move.l (a1)+, (a0)+
  < 0x0045148c      51c9fffc       dbra d1, 0x45148a
  < 0x00451490      603c           bra.b 0x4514ce
  > 0x00451492      4a39007ecfb3   tst.b 0x7ecfb3
  < 0x00451498      6712           beq.b 0x4514ac
     0x0045149a      41eeffc0       lea.l -0x40(a6), a0
     0x0045149e      43fadefe       lea.l 0x44f39e(pc), a1
     0x004514a2      720c           moveq 0xc, d1
  > 0x004514a4      20d9           move.l (a1)+, (a0)+
  < 0x004514a6      51c9fffc       dbra d1, 0x4514a4
  < 0x004514aa      6022           bra.b 0x4514ce
  > 0x004514ac      41eeffc0       lea.l -0x40(a6), a0
      0x004514b0      43fade84       lea.l 0x44f336(pc), a1
      0x004514b4      720c           moveq 0xc, d1
  > 0x004514b6      20d9           move.l (a1)+, (a0)+
  < 0x004514b8      51c9fffc       dbra d1, 0x4514b6
  < 0x004514bc      6010           bra.b 0x4514ce
  > 0x004514be      41eeffc0       lea.l -0x40(a6), a0
      0x004514c2      43fadc6a       lea.l 0x44f12e(pc), a1
      0x004514c6      700c           moveq 0xc, d0
  > 0x004514c8      20d9           move.l (a1)+, (a0)+
  < 0x004514ca      51c8fffc       dbra d0, 0x4514c8
  > 0x004514ce      41eefff0       lea.l -0x10(a6), a0
        0x004514d2      700b           moveq 0xb, d0
    > 0x004514d4      2f20           move.l -(a0), -(a7)
    < 0x004514d6      51c8fffc       dbra d0, 0x4514d4
        0x004514da      4879007edff0   pea.l 0x7edff0
        0x004514e0      486f0004       pea.l 0x4(a7)
        0x004514e4      3f02           move.w d2, -(a7)
        0x004514e6      3f04           move.w d4, -(a7)
        0x004514e8      3f2efff0       move.w -0x10(a6), -(a7)
        0x004514ec      3f2efff2       move.w -0xe(a6), -(a7)
        0x004514f0      3f07           move.w d7, -(a7)
        0x004514f2      4ebafac6       jsr C0_CURSOR_DRIVER.fill_grid_point(pc)
        0x004514f6      defc0042       adda.w 0x42, a7
        0x004514fa      2854           movea.l (a4), a4
     < 0x004514fc      6000fee6       bra.w 0x4513e4
     > 0x00451500      286e0010       movea.l 0x10(a6), a4
       > 0x00451504      4a2e001a       tst.b 0x1a(a6)
      < 0x00451508      67000116       beq.w 0x451620
         0x0045150c      b8c2           cmpa.w d2, a4
     < 0x0045150e      67000110       beq.w 0x451620
        0x00451512      b9ecfffc       cmpa.l -0x4(a4), a4
    < 0x00451516      6702           beq.b 0x45151a
       0x00451518      4e4d           trap 0xd
    > 0x0045151a      302c0008       move.w 0x8(a4), d0
        0x0045151e      48c0           ext.l d0
        0x00451520      2200           move.l d0, d1
    < 0x00451522      6a02           bpl.b 0x451526
       0x00451524      4481           neg.l d1
    > 0x00451526      9283           sub.l d3, d1
        0x00451528      0c810000ffff   cmpi.l 0xffff, d1
    < 0x0045152e      6302           bls.b 0x451532
       0x00451530      4e4f           trap 0xf
    > 0x00451532      d283           add.l d3, d1
        0x00451534      3c01           move.w d1, d6
        0x00451536      4a39007ecfb3   tst.b 0x7ecfb3
    < 0x0045153c      6706           beq.b 0x451544
       0x0045153e      48c6           ext.l d6
       0x00451540      8dfc0002       divs.w 0x2, d6
    > 0x00451544      4a2c000a       tst.b 0xa(a4)
    < 0x00451548      67000094       beq.w 0x4515de
       0x0045154c      4a80           tst.l d0
   < 0x0045154e      6c48           bge.b 0x451598
      0x00451550      7200           moveq 0x0, d1
  < 0x00451552      6718           beq.b 0x45156c
     0x00451554      4a13           tst.b (a3)
  < 0x00451556      6614           bne.b 0x45156c
     0x00451558      41eeffc0       lea.l -0x40(a6), a0
     0x0045155c      43fadc6c       lea.l 0x44f1ca(pc), a1
     0x00451560      720c           moveq 0xc, d1
  > 0x00451562      20d9           move.l (a1)+, (a0)+
  < 0x00451564      51c9fffc       dbra d1, 0x451562
  < 0x00451568      60000084       bra.w 0x4515ee
  > 0x0045156c      4a39007ecfb3   tst.b 0x7ecfb3
  < 0x00451572      6712           beq.b 0x451586
     0x00451574      41eeffc0       lea.l -0x40(a6), a0
     0x00451578      43fadd88       lea.l 0x44f302(pc), a1
     0x0045157c      720c           moveq 0xc, d1
  > 0x0045157e      20d9           move.l (a1)+, (a0)+
  < 0x00451580      51c9fffc       dbra d1, 0x45157e
  < 0x00451584      6068           bra.b 0x4515ee
  > 0x00451586      41eeffc0       lea.l -0x40(a6), a0
      0x0045158a      43fadd0e       lea.l 0x44f29a(pc), a1
      0x0045158e      720c           moveq 0xc, d1
  > 0x00451590      20d9           move.l (a1)+, (a0)+
  < 0x00451592      51c9fffc       dbra d1, 0x451590
  < 0x00451596      6056           bra.b 0x4515ee
  > 0x00451598      7200           moveq 0x0, d1
  < 0x0045159a      6716           beq.b 0x4515b2
     0x0045159c      4a13           tst.b (a3)
  < 0x0045159e      6612           bne.b 0x4515b2
     0x004515a0      41eeffc0       lea.l -0x40(a6), a0
     0x004515a4      43fadc8c       lea.l 0x44f232(pc), a1
     0x004515a8      720c           moveq 0xc, d1
  > 0x004515aa      20d9           move.l (a1)+, (a0)+
  < 0x004515ac      51c9fffc       dbra d1, 0x4515aa
  < 0x004515b0      603c           bra.b 0x4515ee
  > 0x004515b2      4a39007ecfb3   tst.b 0x7ecfb3
  < 0x004515b8      6712           beq.b 0x4515cc
     0x004515ba      41eeffc0       lea.l -0x40(a6), a0
     0x004515be      43fade12       lea.l 0x44f3d2(pc), a1
     0x004515c2      720c           moveq 0xc, d1
  > 0x004515c4      20d9           move.l (a1)+, (a0)+
  < 0x004515c6      51c9fffc       dbra d1, 0x4515c4
  < 0x004515ca      6022           bra.b 0x4515ee
  > 0x004515cc      41eeffc0       lea.l -0x40(a6), a0
      0x004515d0      43fadd98       lea.l 0x44f36a(pc), a1
      0x004515d4      720c           moveq 0xc, d1
  > 0x004515d6      20d9           move.l (a1)+, (a0)+
  < 0x004515d8      51c9fffc       dbra d1, 0x4515d6
  < 0x004515dc      6010           bra.b 0x4515ee
  > 0x004515de      41eeffc0       lea.l -0x40(a6), a0
      0x004515e2      43fadb7e       lea.l 0x44f162(pc), a1
      0x004515e6      700c           moveq 0xc, d0
  > 0x004515e8      20d9           move.l (a1)+, (a0)+
  < 0x004515ea      51c8fffc       dbra d0, 0x4515e8
  > 0x004515ee      41eefff0       lea.l -0x10(a6), a0
        0x004515f2      700b           moveq 0xb, d0
    > 0x004515f4      2f20           move.l -(a0), -(a7)
    < 0x004515f6      51c8fffc       dbra d0, 0x4515f4
        0x004515fa      4879007ee3f0   pea.l 0x7ee3f0
        0x00451600      486f0004       pea.l 0x4(a7)
        0x00451604      3f02           move.w d2, -(a7)
        0x00451606      3f04           move.w d4, -(a7)
        0x00451608      3f2efff0       move.w -0x10(a6), -(a7)
        0x0045160c      3f2efff2       move.w -0xe(a6), -(a7)
        0x00451610      3f06           move.w d6, -(a7)
        0x00451612      4ebaf9a6       jsr C0_CURSOR_DRIVER.fill_grid_point(pc)
        0x00451616      defc0042       adda.w 0x42, a7
        0x0045161a      2854           movea.l (a4), a4
     < 0x0045161c      6000fee6       bra.w 0x451504
     > 0x00451620      4a13           tst.b (a3)
       < 0x00451622      674a           beq.b 0x45166e
          0x00451624      4852           pea.l (a2)
          0x00451626      4ebae43a       jsr C0_CURSOR_DRIVER.limit_area(pc)
          0x0045162a      584f           addq.w 0x4, a7
          0x0045162c      4879007edff0   pea.l 0x7edff0
          0x00451632      1f02           move.b d2, -(a7)
          0x00451634      2f2e000c       move.l 0xc(a6), -(a7)
          0x00451638      2f12           move.l (a2), -(a7)
          0x0045163a      4878000a       pea.l 0xa
          0x0045163e      4878000b       pea.l 0xb
          0x00451642      2f2effb2       move.l -0x4e(a6), -(a7)
          0x00451646      4ebafa56       jsr C0_CURSOR_DRIVER.set_safe_area(pc)
          0x0045164a      defc001a       adda.w 0x1a, a7
          0x0045164e      4879007ee3f0   pea.l 0x7ee3f0
          0x00451654      4227           clr.b -(a7)
          0x00451656      2f2e000c       move.l 0xc(a6), -(a7)
          0x0045165a      2f12           move.l (a2), -(a7)
          0x0045165c      48780002       pea.l 0x2
          0x00451660      48780003       pea.l 0x3
          0x00451664      2f05           move.l d5, -(a7)
          0x00451666      4ebafa36       jsr C0_CURSOR_DRIVER.set_safe_area(pc)
          0x0045166a      defc001a       adda.w 0x1a, a7
       > 0x0045166e      102efffe       move.b -0x2(a6), d0
           0x00451672      4880           ext.w d0
           0x00451674      41bc0003       chk.w 0x3, d0
           0x00451678      1f00           move.b d0, -(a7)
           0x0045167a      2f05           move.l d5, -(a7)
           0x0045167c      4ebaeb4e       jsr C0_CURSOR_DRIVER.grid_clear_pal(pc)
           0x00451680      5c4f           addq.w 0x6, a7
           0x00451682      3039007ecfd0   move.w 0x7ecfd0, d0
           0x00451688      48c0           ext.l d0
           0x0045168a      5680           addq.l 0x3, d0
           0x0045168c      02800000fffc   andi.l 0xfffc, d0
           0x00451692      9083           sub.l d3, d0
           0x00451694      0c800000ffff   cmpi.l 0xffff, d0
       < 0x0045169a      6302           bls.b 0x45169e
          0x0045169c      4e4f           trap 0xf
       > 0x0045169e      d083           add.l d3, d0
           0x004516a0      33c0007ee7f0   move.w d0, 0x7ee7f0
           0x004516a6      3039007ecfd2   move.w 0x7ecfd2, d0
           0x004516ac      48c0           ext.l d0
           0x004516ae      5680           addq.l 0x3, d0
           0x004516b0      02800000fffc   andi.l 0xfffc, d0
           0x004516b6      9083           sub.l d3, d0
           0x004516b8      0c800000ffff   cmpi.l 0xffff, d0
       < 0x004516be      6302           bls.b 0x4516c2
          0x004516c0      4e4f           trap 0xf
       > 0x004516c2      d083           add.l d3, d0
           0x004516c4      33c0007ee7f2   move.w d0, 0x7ee7f2
           0x004516ca      23fad6a6007e.  move.l 0x44ed72(pc), 0x7ee7f6.l
           0x004516d2      13fc0005007e.  move.b 0x5, 0x7ee7f5.l
           0x004516da      13c2007ee7f4   move.b d2, 0x7ee7f4
           0x004516e0      13c2007eeffe   move.b d2, 0x7eeffe
           0x004516e6      33f9007ecfc8.  move.w 0x7ecfc8, 0x7ef00c.l
           0x004516f0      33f9007ecfca.  move.w 0x7ecfca, 0x7ef00e.l
           0x004516fa      1f02           move.b d2, -(a7)
      > 0x004516fc      4ebae766       jsr C0_CURSOR_DRIVER.c_grid_enable(pc)
            0x00451700      544f           addq.w 0x2, a7
            0x00451702      4cdf1fff       movem.l (a7)+, d0-d7/a0-a4
            0x00451706      4e5e           unlk a6
            0x00451708      4e75           rts
            ; CALL XREF from MENUGRIDCOM.redraw_grid_ove @ 0x4ff4b6
 70: C0_CURSOR_DRIVER.c_grid2_overlay ();
           0x0045170a      4e56ff70       link.w a6, 0xff70
           0x0045170e      bfd5           cmpa.l (a5), a7
       < 0x00451710      6206           bhi.b 0x451718
          0x00451712      44fc0002       move.w 0x2, ccr
          0x00451716      4e76           trapv
       > 0x00451718      defc005e       adda.w 0x5e, a7
           0x0045171c      48e7fff8       movem.l d0-d7/a0-a4, -(a7)
           0x00451720      45ee000c       lea.l 0xc(a6), a2
           0x00451724      47eefffe       lea.l -0x2(a6), a3
           0x00451728      7401           moveq 0x1, d2
           0x0045172a      263cffff8000   move.l 0xffff8000, d3
           0x00451730      7802           moveq 0x2, d4
           0x00451732      554f           subq.w 0x2, a7
           0x00451734      4eb900518c62   jsr OUTCOM.get_palstate
           0x0045173a      101f           move.b (a7)+, d0
           0x0045173c      4880           ext.w d0
           0x0045173e      0c400006       cmpi.w 0x6, d0
       < 0x00451742      6302           bls.b 0x451746
          0x00451744      4e4e           trap 0xe
       > 0x00451746      d040           add.w d0, d0
           0x00451748      303b0006       move.w 0x451750(pc, d0.w), d0
           0x0045174c      4efb0002       jmp 0x451750(pc, d0.w)
            0x00451750      001a0012       ori.b 0x12, (a2)+
            0x00451754      000e0012       
            0x00451755      0e001200       
            0x00451756      0012000e       ori.b 0xe, (a2)
            0x0045175a      00160016       ori.b 0x16, (a6)
            0x0045175e      4213           clr.b (a3)
        < 0x00451760      600c           bra.b 0x45176e
           0x00451762      1682           move.b d2, (a3)
       < 0x00451764      6008           bra.b 0x45176e
          0x00451766      1684           move.b d4, (a3)
      < 0x00451768      6004           bra.b 0x45176e
         0x0045176a      16bc0003       move.b 0x3, (a3)
      > 0x0045176e      4a2e001e       tst.b 0x1e(a6)
        < 0x00451772      660c           bne.b 0x451780
           0x00451774      4a2e001c       tst.b 0x1c(a6)
       < 0x00451778      6606           bne.b 0x451780
          0x0045177a      4227           clr.b -(a7)
      < 0x0045177c      60000424       bra.w 0x451ba2
     > 0x00451780      4a39007ee7f4   tst.b 0x7ee7f4
      < 0x00451786      670e           beq.b 0x451796
         0x00451788      48780001       pea.l 0x1
         0x0045178c      4eb900402e42   jsr p_Delay
         0x00451792      584f           addq.w 0x4, a7
     < 0x00451794      60ea           bra.b 0x451780
      > 0x00451796      4a39007eeffe   tst.b 0x7eeffe
      < 0x0045179c      670e           beq.b 0x4517ac
         0x0045179e      48780001       pea.l 0x1
         0x004517a2      4eb900402e42   jsr p_Delay
         0x004517a8      584f           addq.w 0x4, a7
      < 0x004517aa      60ea           bra.b 0x451796
       > 0x004517ac      41f9007edff0   lea.l 0x7edff0, a0
           0x004517b2      2f08           move.l a0, -(a7)
           0x004517b4      2d5fffd2       move.l (a7)+, -0x2e(a6)
           0x004517b8      41f9007ee3f0   lea.l 0x7ee3f0, a0
           0x004517be      2f08           move.l a0, -(a7)
           0x004517c0      2a1f           move.l (a7)+, d5
           0x004517c2      4a2e001c       tst.b 0x1c(a6)
       < 0x004517c6      670000a0       beq.w 0x451868
          0x004517ca      4a52           tst.w (a2)
      < 0x004517cc      6d06           blt.b 0x4517d4
         0x004517ce      4a6e000e       tst.w 0xe(a6)
     < 0x004517d2      6c50           bge.b 0x451824
     > 0x004517d4      487add6d       pea.l 0x44f543(pc)
         0x004517d8      48780023       pea.l 0x23
         0x004517dc      2f17           move.l (a7), -(a7)
         0x004517de      4eb9004047ea   jsr p_wts_o
         0x004517e4      defc000c       adda.w 0xc, a7
         0x004517e8      3012           move.w (a2), d0
         0x004517ea      48c0           ext.l d0
         0x004517ec      2f00           move.l d0, -(a7)
         0x004517ee      4878000c       pea.l 0xc
         0x004517f2      4eb9004070e4   jsr p_wti_o
         0x004517f8      504f           addq.w 0x8, a7
         0x004517fa      302e000e       move.w 0xe(a6), d0
         0x004517fe      48c0           ext.l d0
         0x00451800      2f00           move.l d0, -(a7)
         0x00451802      4878000c       pea.l 0xc
         0x00451806      4eb9004070e4   jsr p_wti_o
         0x0045180c      504f           addq.w 0x8, a7
         0x0045180e      4eb900404946   jsr p_wtln_o
         0x00451814      4a52           tst.w (a2)
     < 0x00451816      6c02           bge.b 0x45181a
        0x00451818      4252           clr.w (a2)
     > 0x0045181a      4a6e000e       tst.w 0xe(a6)
     < 0x0045181e      6c04           bge.b 0x451824
        0x00451820      426e000e       clr.w 0xe(a6)
     > 0x00451824      594f           subq.w 0x4, a7
          0x00451826      48780006       pea.l 0x6
          0x0045182a      4ebae676       jsr C0_CURSOR_DRIVER.four_off(pc)
          0x0045182e      584f           addq.w 0x4, a7
          0x00451830      302e0010       move.w 0x10(a6), d0
          0x00451834      48c0           ext.l d0
          0x00451836      2f00           move.l d0, -(a7)
          0x00451838      3012           move.w (a2), d0
          0x0045183a      48c0           ext.l d0
          0x0045183c      d0aeffd2       add.l -0x2e(a6), d0
          0x00451840      2f00           move.l d0, -(a7)
          0x00451842      4eb9006d1d32   jsr MEM_FILL
          0x00451848      504f           addq.w 0x8, a7
          0x0045184a      48780005       pea.l 0x5
          0x0045184e      4ebae652       jsr C0_CURSOR_DRIVER.four_off(pc)
          0x00451852      584f           addq.w 0x4, a7
          0x00451854      302e0012       move.w 0x12(a6), d0
          0x00451858      48c0           ext.l d0
          0x0045185a      2f00           move.l d0, -(a7)
          0x0045185c      302e000e       move.w 0xe(a6), d0
          0x00451860      48c0           ext.l d0
          0x00451862      d085           add.l d5, d0
          0x00451864      2f00           move.l d0, -(a7)
      < 0x00451866      6038           bra.b 0x4518a0
      > 0x00451868      594f           subq.w 0x4, a7
          0x0045186a      48780006       pea.l 0x6
          0x0045186e      4ebae632       jsr C0_CURSOR_DRIVER.four_off(pc)
          0x00451872      584f           addq.w 0x4, a7
          0x00451874      3039007ecfd0   move.w 0x7ecfd0, d0
          0x0045187a      48c0           ext.l d0
          0x0045187c      2f00           move.l d0, -(a7)
          0x0045187e      2f2effd2       move.l -0x2e(a6), -(a7)
          0x00451882      4eb9006d1d32   jsr MEM_FILL
          0x00451888      504f           addq.w 0x8, a7
          0x0045188a      48780005       pea.l 0x5
          0x0045188e      4ebae612       jsr C0_CURSOR_DRIVER.four_off(pc)
          0x00451892      584f           addq.w 0x4, a7
          0x00451894      3039007ecfd2   move.w 0x7ecfd2, d0
          0x0045189a      48c0           ext.l d0
          0x0045189c      2f00           move.l d0, -(a7)
          0x0045189e      2f05           move.l d5, -(a7)
      > 0x004518a0      4eb9006d1d32   jsr MEM_FILL
           0x004518a6      defc000c       adda.w 0xc, a7
           0x004518aa      286e0018       movea.l 0x18(a6), a4
       > 0x004518ae      4a2e001e       tst.b 0x1e(a6)
      < 0x004518b2      67000104       beq.w 0x4519b8
         0x004518b6      b8c2           cmpa.w d2, a4
     < 0x004518b8      670000fe       beq.w 0x4519b8
        0x004518bc      b9ecfffc       cmpa.l -0x4(a4), a4
    < 0x004518c0      6702           beq.b 0x4518c4
       0x004518c2      4e4d           trap 0xd
    > 0x004518c4      302c0008       move.w 0x8(a4), d0
        0x004518c8      48c0           ext.l d0
        0x004518ca      2200           move.l d0, d1
    < 0x004518cc      6a02           bpl.b 0x4518d0
       0x004518ce      4481           neg.l d1
    > 0x004518d0      9283           sub.l d3, d1
        0x004518d2      0c810000ffff   cmpi.l 0xffff, d1
    < 0x004518d8      6302           bls.b 0x4518dc
       0x004518da      4e4f           trap 0xf
    > 0x004518dc      d283           add.l d3, d1
        0x004518de      3e01           move.w d1, d7
        0x004518e0      4a39007ecfb3   tst.b 0x7ecfb3
    < 0x004518e6      6704           beq.b 0x4518ec
       0x004518e8      48c7           ext.l d7
       0x004518ea      8fc4           divs.w d4, d7
    > 0x004518ec      4a2c000a       tst.b 0xa(a4)
    < 0x004518f0      670000c0       beq.w 0x4519b2
       0x004518f4      b06e0008       cmp.w 0x8(a6), d0
   < 0x004518f8      662c           bne.b 0x451926
      0x004518fa      4a39007ecfb3   tst.b 0x7ecfb3
  < 0x00451900      6712           beq.b 0x451914
     0x00451902      41eeffe0       lea.l -0x20(a6), a0
     0x00451906      43fadbea       lea.l 0x44f4f2(pc), a1
     0x0045190a      7204           moveq 0x4, d1
  > 0x0045190c      20d9           move.l (a1)+, (a0)+
  < 0x0045190e      51c9fffc       dbra d1, 0x45190c
  < 0x00451912      606c           bra.b 0x451980
  > 0x00451914      41eeffe0       lea.l -0x20(a6), a0
      0x00451918      43fadb60       lea.l 0x44f47a(pc), a1
      0x0045191c      7204           moveq 0x4, d1
  > 0x0045191e      20d9           move.l (a1)+, (a0)+
  < 0x00451920      51c9fffc       dbra d1, 0x45191e
  < 0x00451924      605a           bra.b 0x451980
  > 0x00451926      4a80           tst.l d0
  < 0x00451928      6c2c           bge.b 0x451956
     0x0045192a      4a39007ecfb3   tst.b 0x7ecfb3
  < 0x00451930      6712           beq.b 0x451944
     0x00451932      41eeffe0       lea.l -0x20(a6), a0
     0x00451936      43fadb92       lea.l 0x44f4ca(pc), a1
     0x0045193a      7204           moveq 0x4, d1
  > 0x0045193c      20d9           move.l (a1)+, (a0)+
  < 0x0045193e      51c9fffc       dbra d1, 0x45193c
  < 0x00451942      603c           bra.b 0x451980
  > 0x00451944      41eeffe0       lea.l -0x20(a6), a0
     0x00451948      43fadb08       lea.l 0x44f452(pc), a1
     0x0045194c      7204           moveq 0x4, d1
  > 0x0045194e      20d9           move.l (a1)+, (a0)+
  < 0x00451950      51c9fffc       dbra d1, 0x45194e
  < 0x00451954      602a           bra.b 0x451980
  > 0x00451956      4a39007ecfb3   tst.b 0x7ecfb3
  < 0x0045195c      6712           beq.b 0x451970
     0x0045195e      41eeffe0       lea.l -0x20(a6), a0
     0x00451962      43fadbb6       lea.l 0x44f51a(pc), a1
     0x00451966      7204           moveq 0x4, d1
  > 0x00451968      20d9           move.l (a1)+, (a0)+
  < 0x0045196a      51c9fffc       dbra d1, 0x451968
  < 0x0045196e      6010           bra.b 0x451980
  > 0x00451970      41eeffe0       lea.l -0x20(a6), a0
      0x00451974      43fadb2c       lea.l 0x44f4a2(pc), a1
      0x00451978      7204           moveq 0x4, d1
  > 0x0045197a      20d9           move.l (a1)+, (a0)+
  < 0x0045197c      51c9fffc       dbra d1, 0x45197a
  > 0x00451980      2f2effec       move.l -0x14(a6), -(a7)
       0x00451984      2f2effe8       move.l -0x18(a6), -(a7)
       0x00451988      2f2effe4       move.l -0x1c(a6), -(a7)
       0x0045198c      2f2effe0       move.l -0x20(a6), -(a7)
       0x00451990      4879007edff0   pea.l 0x7edff0
       0x00451996      486f0004       pea.l 0x4(a7)
       0x0045199a      3f02           move.w d2, -(a7)
       0x0045199c      3f3c0004       move.w 0x4, -(a7)
       0x004519a0      3f2efff0       move.w -0x10(a6), -(a7)
       0x004519a4      3f2efff2       move.w -0xe(a6), -(a7)
       0x004519a8      3f07           move.w d7, -(a7)
       0x004519aa      4ebaf60e       jsr C0_CURSOR_DRIVER.fill_grid_point(pc)
       0x004519ae      defc0022       adda.w 0x22, a7
    > 0x004519b2      2854           movea.l (a4), a4
     < 0x004519b4      6000fef8       bra.w 0x4518ae
     > 0x004519b8      286e0014       movea.l 0x14(a6), a4
       > 0x004519bc      4a2e001e       tst.b 0x1e(a6)
      < 0x004519c0      67000104       beq.w 0x451ac6
         0x004519c4      b8c2           cmpa.w d2, a4
     < 0x004519c6      670000fe       beq.w 0x451ac6
        0x004519ca      b9ecfffc       cmpa.l -0x4(a4), a4
    < 0x004519ce      6702           beq.b 0x4519d2
       0x004519d0      4e4d           trap 0xd
    > 0x004519d2      302c0008       move.w 0x8(a4), d0
        0x004519d6      48c0           ext.l d0
        0x004519d8      2200           move.l d0, d1
    < 0x004519da      6a02           bpl.b 0x4519de
       0x004519dc      4481           neg.l d1
    > 0x004519de      9283           sub.l d3, d1
        0x004519e0      0c810000ffff   cmpi.l 0xffff, d1
    < 0x004519e6      6302           bls.b 0x4519ea
       0x004519e8      4e4f           trap 0xf
    > 0x004519ea      d283           add.l d3, d1
        0x004519ec      3c01           move.w d1, d6
        0x004519ee      4a39007ecfb3   tst.b 0x7ecfb3
    < 0x004519f4      6704           beq.b 0x4519fa
       0x004519f6      48c6           ext.l d6
       0x004519f8      8dc4           divs.w d4, d6
    > 0x004519fa      4a2c000a       tst.b 0xa(a4)
    < 0x004519fe      670000c0       beq.w 0x451ac0
       0x00451a02      b06e000a       cmp.w 0xa(a6), d0
   < 0x00451a06      662c           bne.b 0x451a34
      0x00451a08      4a39007ecfb3   tst.b 0x7ecfb3
  < 0x00451a0e      6712           beq.b 0x451a22
     0x00451a10      41eeffe0       lea.l -0x20(a6), a0
     0x00451a14      43fadaf0       lea.l 0x44f506(pc), a1
     0x00451a18      7204           moveq 0x4, d1
  > 0x00451a1a      20d9           move.l (a1)+, (a0)+
  < 0x00451a1c      51c9fffc       dbra d1, 0x451a1a
  < 0x00451a20      606c           bra.b 0x451a8e
  > 0x00451a22      41eeffe0       lea.l -0x20(a6), a0
      0x00451a26      43fada66       lea.l 0x44f48e(pc), a1
      0x00451a2a      7204           moveq 0x4, d1
  > 0x00451a2c      20d9           move.l (a1)+, (a0)+
  < 0x00451a2e      51c9fffc       dbra d1, 0x451a2c
  < 0x00451a32      605a           bra.b 0x451a8e
  > 0x00451a34      4a80           tst.l d0
  < 0x00451a36      6c2c           bge.b 0x451a64
     0x00451a38      4a39007ecfb3   tst.b 0x7ecfb3
  < 0x00451a3e      6712           beq.b 0x451a52
     0x00451a40      41eeffe0       lea.l -0x20(a6), a0
     0x00451a44      43fada98       lea.l 0x44f4de(pc), a1
     0x00451a48      7204           moveq 0x4, d1
  > 0x00451a4a      20d9           move.l (a1)+, (a0)+
  < 0x00451a4c      51c9fffc       dbra d1, 0x451a4a
  < 0x00451a50      603c           bra.b 0x451a8e
  > 0x00451a52      41eeffe0       lea.l -0x20(a6), a0
     0x00451a56      43fada0e       lea.l 0x44f466(pc), a1
     0x00451a5a      7204           moveq 0x4, d1
  > 0x00451a5c      20d9           move.l (a1)+, (a0)+
  < 0x00451a5e      51c9fffc       dbra d1, 0x451a5c
  < 0x00451a62      602a           bra.b 0x451a8e
  > 0x00451a64      4a39007ecfb3   tst.b 0x7ecfb3
  < 0x00451a6a      6712           beq.b 0x451a7e
     0x00451a6c      41eeffe0       lea.l -0x20(a6), a0
     0x00451a70      43fadabc       lea.l 0x44f52e(pc), a1
     0x00451a74      7204           moveq 0x4, d1
  > 0x00451a76      20d9           move.l (a1)+, (a0)+
  < 0x00451a78      51c9fffc       dbra d1, 0x451a76
  < 0x00451a7c      6010           bra.b 0x451a8e
  > 0x00451a7e      41eeffe0       lea.l -0x20(a6), a0
      0x00451a82      43fada32       lea.l 0x44f4b6(pc), a1
      0x00451a86      7204           moveq 0x4, d1
  > 0x00451a88      20d9           move.l (a1)+, (a0)+
  < 0x00451a8a      51c9fffc       dbra d1, 0x451a88
  > 0x00451a8e      2f2effec       move.l -0x14(a6), -(a7)
       0x00451a92      2f2effe8       move.l -0x18(a6), -(a7)
       0x00451a96      2f2effe4       move.l -0x1c(a6), -(a7)
       0x00451a9a      2f2effe0       move.l -0x20(a6), -(a7)
       0x00451a9e      4879007ee3f0   pea.l 0x7ee3f0
       0x00451aa4      486f0004       pea.l 0x4(a7)
       0x00451aa8      3f02           move.w d2, -(a7)
       0x00451aaa      3f3c0004       move.w 0x4, -(a7)
       0x00451aae      3f2efff0       move.w -0x10(a6), -(a7)
       0x00451ab2      3f2efff2       move.w -0xe(a6), -(a7)
       0x00451ab6      3f06           move.w d6, -(a7)
       0x00451ab8      4ebaf500       jsr C0_CURSOR_DRIVER.fill_grid_point(pc)
       0x00451abc      defc0022       adda.w 0x22, a7
    > 0x00451ac0      2854           movea.l (a4), a4
     < 0x00451ac2      6000fef8       bra.w 0x4519bc
     > 0x00451ac6      4a2e001c       tst.b 0x1c(a6)
       < 0x00451aca      674a           beq.b 0x451b16
          0x00451acc      4852           pea.l (a2)
          0x00451ace      4ebadf92       jsr C0_CURSOR_DRIVER.limit_area(pc)
          0x00451ad2      584f           addq.w 0x4, a7
          0x00451ad4      4879007edff0   pea.l 0x7edff0
          0x00451ada      1f02           move.b d2, -(a7)
          0x00451adc      2f2e0010       move.l 0x10(a6), -(a7)
          0x00451ae0      2f12           move.l (a2), -(a7)
          0x00451ae2      4878000d       pea.l 0xd
          0x00451ae6      48780007       pea.l 0x7
          0x00451aea      2f2effd2       move.l -0x2e(a6), -(a7)
          0x00451aee      4ebaf5ae       jsr C0_CURSOR_DRIVER.set_safe_area(pc)
          0x00451af2      defc001a       adda.w 0x1a, a7
          0x00451af6      4879007ee3f0   pea.l 0x7ee3f0
          0x00451afc      4227           clr.b -(a7)
          0x00451afe      2f2e0010       move.l 0x10(a6), -(a7)
          0x00451b02      2f12           move.l (a2), -(a7)
          0x00451b04      4878000b       pea.l 0xb
          0x00451b08      48780004       pea.l 0x4
          0x00451b0c      2f05           move.l d5, -(a7)
          0x00451b0e      4ebaf58e       jsr C0_CURSOR_DRIVER.set_safe_area(pc)
          0x00451b12      defc001a       adda.w 0x1a, a7
       > 0x00451b16      1013           move.b (a3), d0
           0x00451b18      4880           ext.w d0
           0x00451b1a      41bc0003       chk.w 0x3, d0
           0x00451b1e      1f00           move.b d0, -(a7)
           0x00451b20      2f05           move.l d5, -(a7)
           0x00451b22      4ebae6a8       jsr C0_CURSOR_DRIVER.grid_clear_pal(pc)
           0x00451b26      5c4f           addq.w 0x6, a7
           0x00451b28      3039007ecfd0   move.w 0x7ecfd0, d0
           0x00451b2e      48c0           ext.l d0
           0x00451b30      5680           addq.l 0x3, d0
           0x00451b32      02800000fffc   andi.l 0xfffc, d0
           0x00451b38      9083           sub.l d3, d0
           0x00451b3a      0c800000ffff   cmpi.l 0xffff, d0
       < 0x00451b40      6302           bls.b 0x451b44
          0x00451b42      4e4f           trap 0xf
       > 0x00451b44      d083           add.l d3, d0
           0x00451b46      33c0007ee7f0   move.w d0, 0x7ee7f0
           0x00451b4c      3039007ecfd2   move.w 0x7ecfd2, d0
           0x00451b52      48c0           ext.l d0
           0x00451b54      5680           addq.l 0x3, d0
           0x00451b56      02800000fffc   andi.l 0xfffc, d0
           0x00451b5c      9083           sub.l d3, d0
           0x00451b5e      0c800000ffff   cmpi.l 0xffff, d0
       < 0x00451b64      6302           bls.b 0x451b68
          0x00451b66      4e4f           trap 0xf
       > 0x00451b68      d083           add.l d3, d0
           0x00451b6a      33c0007ee7f2   move.w d0, 0x7ee7f2
           0x00451b70      23fad200007e.  move.l 0x44ed72(pc), 0x7ee7f6.l
           0x00451b78      13fc0005007e.  move.b 0x5, 0x7ee7f5.l
           0x00451b80      13c2007ee7f4   move.b d2, 0x7ee7f4
           0x00451b86      13c2007eeffe   move.b d2, 0x7eeffe
           0x00451b8c      33f9007ecfc8.  move.w 0x7ecfc8, 0x7ef00c.l
           0x00451b96      33f9007ecfca.  move.w 0x7ecfca, 0x7ef00e.l
           0x00451ba0      1f02           move.b d2, -(a7)
      > 0x00451ba2      4ebae2c0       jsr C0_CURSOR_DRIVER.c_grid_enable(pc)
            0x00451ba6      544f           addq.w 0x2, a7
            0x00451ba8      4cdf1fff       movem.l (a7)+, d0-d7/a0-a4
            0x00451bac      4e5e           unlk a6
            0x00451bae      4e75           rts
            ; CALL XREF from C0_CURSOR_DRIVER.test_grid @ 0x451c68
            ; CALL XREF from C0_CURSOR_DRIVER.test_cursor @ 0x451cd4
 140: C0_CURSOR_DRIVER.set_pattern ();
           0x00451bb0      4e56ffc4       link.w a6, 0xffc4
           0x00451bb4      bfd5           cmpa.l (a5), a7
       < 0x00451bb6      6206           bhi.b 0x451bbe
          0x00451bb8      44fc0002       move.w 0x2, ccr
          0x00451bbc      4e76           trapv
       > 0x00451bbe      defc003c       adda.w 0x3c, a7
           0x00451bc2      48e7f8e0       movem.l d0-d4/a0-a2, -(a7)
           0x00451bc6      43ee0014       lea.l 0x14(a6), a1
           0x00451bca      45f9006d1d32   lea.l MEM_FILL, a2
           0x00451bd0      740c           moveq 0xc, d2
           0x00451bd2      206e0018       movea.l 0x18(a6), a0
           0x00451bd6      594f           subq.w 0x4, a7
           0x00451bd8      48780000       pea.l 0x0
           0x00451bdc      4ebae2c4       jsr C0_CURSOR_DRIVER.four_off(pc)
           0x00451be0      2e91           move.l (a1), (a7)
           0x00451be2      2f10           move.l (a0), -(a7)
           0x00451be4      4e92           jsr (a2)                    ; fcn.00000009+0x2
           0x00451be6      dec2           adda.w d2, a7
           0x00451be8      2010           move.l (a0), d0
           0x00451bea      d091           add.l (a1), d0
           0x00451bec      2080           move.l d0, (a0)
           0x00451bee      2f2e0010       move.l 0x10(a6), -(a7)
           0x00451bf2      2f11           move.l (a1), -(a7)
           0x00451bf4      2f00           move.l d0, -(a7)
           0x00451bf6      4e92           jsr (a2)                    ; fcn.00000009+0x2
           0x00451bf8      dec2           adda.w d2, a7
           0x00451bfa      d091           add.l (a1), d0
           0x00451bfc      2080           move.l d0, (a0)
           0x00451bfe      2f2e000c       move.l 0xc(a6), -(a7)
           0x00451c02      2f11           move.l (a1), -(a7)
           0x00451c04      2f00           move.l d0, -(a7)
           0x00451c06      4e92           jsr (a2)                    ; fcn.00000009+0x2
           0x00451c08      dec2           adda.w d2, a7
           0x00451c0a      d091           add.l (a1), d0
           0x00451c0c      2080           move.l d0, (a0)
           0x00451c0e      7803           moveq 0x3, d4
           0x00451c10      2611           move.l (a1), d3
           0x00451c12      4eb900406a74   jsr fcn.00406a74
           0x00451c18      2f2e0008       move.l 0x8(a6), -(a7)
           0x00451c1c      3239007ecfc0   move.w 0x7ecfc0, d1
           0x00451c22      48c1           ext.l d1
           0x00451c24      4484           neg.l d4
           0x00451c26      d881           add.l d1, d4
           0x00451c28      2f04           move.l d4, -(a7)
           0x00451c2a      2f00           move.l d0, -(a7)
           0x00451c2c      4e92           jsr (a2)                    ; fcn.00000009+0x2
           0x00451c2e      dec2           adda.w d2, a7
           0x00451c30      d091           add.l (a1), d0
           0x00451c32      2080           move.l d0, (a0)
           0x00451c34      4cdf071f       movem.l (a7)+, d0-d4/a0-a2
           0x00451c38      4e5e           unlk a6
           0x00451c3a      4e75           rts
            ; CALL XREFS from C0_CURSOR_DRIVER.c0_make_test_pa @ 0x451dde, 0x451e1a
 100: C0_CURSOR_DRIVER.test_grid ();
           0x00451c3c      4e56ffe8       link.w a6, 0xffe8
           0x00451c40      bfd5           cmpa.l (a5), a7
       < 0x00451c42      6206           bhi.b 0x451c4a
          0x00451c44      44fc0002       move.w 0x2, ccr
          0x00451c48      4e76           trapv
       > 0x00451c4a      defc0018       adda.w 0x18, a7
           0x00451c4e      4a2e0022       tst.b 0x22(a6)
       < 0x00451c52      671e           beq.b 0x451c72
          0x00451c54      486e001c       pea.l 0x1c(a6)
          0x00451c58      2f2e0018       move.l 0x18(a6), -(a7)
          0x00451c5c      2f2e0010       move.l 0x10(a6), -(a7)
          0x00451c60      2f2e000c       move.l 0xc(a6), -(a7)
          0x00451c64      2f2e0008       move.l 0x8(a6), -(a7)
          0x00451c68      4ebaff46       jsr C0_CURSOR_DRIVER.set_pattern(pc)
          0x00451c6c      defc0014       adda.w 0x14, a7
      < 0x00451c70      602a           bra.b 0x451c9c
      > 0x00451c72      4a2e0020       tst.b 0x20(a6)
      < 0x00451c76      6706           beq.b 0x451c7e
         0x00451c78      2f2e0008       move.l 0x8(a6), -(a7)
     < 0x00451c7c      600c           bra.b 0x451c8a
     > 0x00451c7e      594f           subq.w 0x4, a7
         0x00451c80      48780000       pea.l 0x0
         0x00451c84      4ebae21c       jsr C0_CURSOR_DRIVER.four_off(pc)
         0x00451c88      584f           addq.w 0x4, a7
     > 0x00451c8a      2f2e0014       move.l 0x14(a6), -(a7)
          0x00451c8e      2f2e001c       move.l 0x1c(a6), -(a7)
          0x00451c92      4eb9006d1d32   jsr MEM_FILL
          0x00451c98      defc000c       adda.w 0xc, a7
      > 0x00451c9c      4e5e           unlk a6
           0x00451c9e      4e75           rts
            ; CALL XREFS from C0_CURSOR_DRIVER.c0_make_test_pa @ 0x451eb0, 0x451eec
 142: C0_CURSOR_DRIVER.test_cursor ();
           0x00451ca0      4e56ffd4       link.w a6, 0xffd4
           0x00451ca4      bfd5           cmpa.l (a5), a7
       < 0x00451ca6      6206           bhi.b 0x451cae
          0x00451ca8      44fc0002       move.w 0x2, ccr
          0x00451cac      4e76           trapv
       > 0x00451cae      defc0028       adda.w 0x28, a7
           0x00451cb2      48e71980       movem.l d3-d4/d7/a0, -(a7)
           0x00451cb6      41ee0008       lea.l 0x8(a6), a0
           0x00451cba      4a2e0022       tst.b 0x22(a6)
       < 0x00451cbe      673e           beq.b 0x451cfe
          0x00451cc0      7e01           moveq 0x1, d7
      > 0x00451cc2      486e001c       pea.l 0x1c(a6)
         0x00451cc6      2f2e0018       move.l 0x18(a6), -(a7)
         0x00451cca      2f2e0010       move.l 0x10(a6), -(a7)
         0x00451cce      2f2e000c       move.l 0xc(a6), -(a7)
         0x00451cd2      2f10           move.l (a0), -(a7)
         0x00451cd4      4ebafeda       jsr C0_CURSOR_DRIVER.set_pattern(pc)
         0x00451cd8      defc0014       adda.w 0x14, a7
         0x00451cdc      5287           addq.l 0x1, d7
         0x00451cde      0c8700000004   cmpi.l 0x4, d7
      < 0x00451ce4      6fdc           ble.b 0x451cc2
          0x00451ce6      7810           moveq 0x10, d4
          0x00451ce8      262e0018       move.l 0x18(a6), d3
          0x00451cec      4eb900406a74   jsr fcn.00406a74
          0x00451cf2      2f10           move.l (a0), -(a7)
          0x00451cf4      4484           neg.l d4
          0x00451cf6      d8ae0014       add.l 0x14(a6), d4
          0x00451cfa      2f04           move.l d4, -(a7)
      < 0x00451cfc      601a           bra.b 0x451d18
      > 0x00451cfe      4a2e0020       tst.b 0x20(a6)
      < 0x00451d02      6704           beq.b 0x451d08
         0x00451d04      2f10           move.l (a0), -(a7)
     < 0x00451d06      600c           bra.b 0x451d14
     > 0x00451d08      594f           subq.w 0x4, a7
         0x00451d0a      48780000       pea.l 0x0
         0x00451d0e      4ebae192       jsr C0_CURSOR_DRIVER.four_off(pc)
         0x00451d12      584f           addq.w 0x4, a7
     > 0x00451d14      2f2e0014       move.l 0x14(a6), -(a7)
      > 0x00451d18      2f2e001c       move.l 0x1c(a6), -(a7)
           0x00451d1c      4eb9006d1d32   jsr MEM_FILL
           0x00451d22      defc000c       adda.w 0xc, a7
           0x00451d26      4cdf0198       movem.l (a7)+, d3-d4/d7/a0
           0x00451d2a      4e5e           unlk a6
           0x00451d2c      4e75           rts
            ; CALL XREF from C2_CURSOR_DIAG.test_pattern_co @ 0x45488e
 520: C0_CURSOR_DRIVER.c0_make_test_pa ();
           0x00451d2e      4e56ff98       link.w a6, 0xff98
           0x00451d32      bfd5           cmpa.l (a5), a7
       < 0x00451d34      6206           bhi.b 0x451d3c
          0x00451d36      44fc0002       move.w 0x2, ccr
          0x00451d3a      4e76           trapv
       > 0x00451d3c      defc0054       adda.w 0x54, a7
           0x00451d40      48e7f7f8       movem.l d0-d3/d5-d7/a0-a4, -(a7)
           0x00451d44      43fae15c       lea.l C0_CURSOR_DRIVER.four_off(pc), a1
           0x00451d48      45f9007ecfc0   lea.l 0x7ecfc0, a2
           0x00451d4e      47f80001       lea.l 0x1, a3
           0x00451d52      49f900402e42   lea.l p_Delay, a4
           0x00451d58      7201           moveq 0x1, d1
           0x00451d5a      741c           moveq 0x1c, d2
           0x00451d5c      7607           moveq 0x7, d3
           0x00451d5e      2d7c000000b4.  move.l 0xb4, -0x8(a6)
           0x00451d66      2d7c0000002d.  move.l 0x2d, -0x10(a6)
           0x00451d6e      554f           subq.w 0x2, a7
           0x00451d70      4eb900478a3a   jsr CONFIGCOM.tvsys
           0x00451d76      101f           move.b (a7)+, d0
           0x00451d78      b001           cmp.b d1, d0
       < 0x00451d7a      6606           bne.b 0x451d82
          0x00451d7c      7a78           moveq 0x78, d5
          0x00451d7e      7c1e           moveq 0x1e, d6
      < 0x00451d80      6008           bra.b 0x451d8a
      > 0x00451d82      2a3c00000090   move.l 0x90, d5
          0x00451d88      7c24           moveq 0x24, d6
      > 0x00451d8a      4a39007ee7f4   tst.b 0x7ee7f4
      < 0x00451d90      6708           beq.b 0x451d9a
         0x00451d92      4853           pea.l (a3)
         0x00451d94      4e94           jsr (a4)                    ; fcn.0000000d
         0x00451d96      584f           addq.w 0x4, a7
      < 0x00451d98      60f0           bra.b 0x451d8a
      > 0x00451d9a      4a39007eeffe   tst.b 0x7eeffe
      < 0x00451da0      6708           beq.b 0x451daa
         0x00451da2      4853           pea.l (a3)
         0x00451da4      4e94           jsr (a4)                    ; fcn.0000000d
         0x00451da6      584f           addq.w 0x4, a7
      < 0x00451da8      60f0           bra.b 0x451d9a
      > 0x00451daa      41f9007edff0   lea.l 0x7edff0, a0
           0x00451db0      2f08           move.l a0, -(a7)
           0x00451db2      2e1f           move.l (a7)+, d7
           0x00451db4      1f2e000a       move.b 0xa(a6), -(a7)
           0x00451db8      1f2e0008       move.b 0x8(a6), -(a7)
           0x00451dbc      2f07           move.l d7, -(a7)
           0x00451dbe      2f2efff8       move.l -0x8(a6), -(a7)
           0x00451dc2      3012           move.w (a2), d0
           0x00451dc4      48c0           ext.l d0
           0x00451dc6      2f00           move.l d0, -(a7)
           0x00451dc8      594f           subq.w 0x4, a7
           0x00451dca      48780006       pea.l 0x6
           0x00451dce      4e91           jsr (a1)                    ; fcn.0000000a
           0x00451dd0      48780008       pea.l 0x8
           0x00451dd4      4e91           jsr (a1)                    ; fcn.0000000a
           0x00451dd6      48780007       pea.l 0x7
           0x00451dda      4e91           jsr (a1)                    ; fcn.0000000a
           0x00451ddc      584f           addq.w 0x4, a7
           0x00451dde      4ebafe5c       jsr C0_CURSOR_DRIVER.test_grid(pc)
           0x00451de2      dec2           adda.w d2, a7
           0x00451de4      41f9007ee3f0   lea.l 0x7ee3f0, a0
           0x00451dea      2f08           move.l a0, -(a7)
           0x00451dec      2e1f           move.l (a7)+, d7
           0x00451dee      1f2e0008       move.b 0x8(a6), -(a7)
           0x00451df2      1f2e000a       move.b 0xa(a6), -(a7)
           0x00451df6      2f07           move.l d7, -(a7)
           0x00451df8      2f05           move.l d5, -(a7)
           0x00451dfa      3039007ecfc2   move.w 0x7ecfc2, d0
           0x00451e00      48c0           ext.l d0
           0x00451e02      2f00           move.l d0, -(a7)
           0x00451e04      594f           subq.w 0x4, a7
           0x00451e06      4878000b       pea.l 0xb
           0x00451e0a      4e91           jsr (a1)                    ; fcn.0000000a
           0x00451e0c      4878000c       pea.l 0xc
           0x00451e10      4e91           jsr (a1)                    ; fcn.0000000a
           0x00451e12      4878000d       pea.l 0xd
           0x00451e16      4e91           jsr (a1)                    ; fcn.0000000a
           0x00451e18      584f           addq.w 0x4, a7
           0x00451e1a      4ebafe20       jsr C0_CURSOR_DRIVER.test_grid(pc)
           0x00451e1e      dec2           adda.w d2, a7
           0x00451e20      23d2007ee7f0   move.l (a2), 0x7ee7f0
           0x00451e26      23facf4a007e.  move.l 0x44ed72(pc), 0x7ee7f6.l
           0x00451e2e      13c3007ee7f5   move.b d3, 0x7ee7f5
           0x00451e34      13c1007ee7f4   move.b d1, 0x7ee7f4
           0x00451e3a      13c1007eeffe   move.b d1, 0x7eeffe
           0x00451e40      33f9007ecfc8.  move.w 0x7ecfc8, 0x7ef00c.l
           0x00451e4a      33f9007ecfca.  move.w 0x7ecfca, 0x7ef00e.l
           0x00451e54      1f01           move.b d1, -(a7)
           0x00451e56      4ebae00c       jsr C0_CURSOR_DRIVER.c_grid_enable(pc)
           0x00451e5a      544f           addq.w 0x2, a7
       > 0x00451e5c      4a39007ed7e0   tst.b 0x7ed7e0
      < 0x00451e62      6708           beq.b 0x451e6c
         0x00451e64      4853           pea.l (a3)
         0x00451e66      4e94           jsr (a4)                    ; fcn.0000000d
         0x00451e68      584f           addq.w 0x4, a7
      < 0x00451e6a      60f0           bra.b 0x451e5c
      > 0x00451e6c      4a39007edfea   tst.b 0x7edfea
      < 0x00451e72      6708           beq.b 0x451e7c
         0x00451e74      4853           pea.l (a3)
         0x00451e76      4e94           jsr (a4)                    ; fcn.0000000d
         0x00451e78      584f           addq.w 0x4, a7
      < 0x00451e7a      60f0           bra.b 0x451e6c
      > 0x00451e7c      41f9007ecfdc   lea.l 0x7ecfdc, a0
           0x00451e82      2f08           move.l a0, -(a7)
           0x00451e84      2e1f           move.l (a7)+, d7
           0x00451e86      1f2e000a       move.b 0xa(a6), -(a7)
           0x00451e8a      1f2e0008       move.b 0x8(a6), -(a7)
           0x00451e8e      2f07           move.l d7, -(a7)
           0x00451e90      2f2efff0       move.l -0x10(a6), -(a7)
           0x00451e94      3012           move.w (a2), d0
           0x00451e96      48c0           ext.l d0
           0x00451e98      2f00           move.l d0, -(a7)
           0x00451e9a      594f           subq.w 0x4, a7
           0x00451e9c      48780006       pea.l 0x6
           0x00451ea0      4e91           jsr (a1)                    ; fcn.0000000a
           0x00451ea2      48780008       pea.l 0x8
           0x00451ea6      4e91           jsr (a1)                    ; fcn.0000000a
           0x00451ea8      48780007       pea.l 0x7
           0x00451eac      4e91           jsr (a1)                    ; fcn.0000000a
           0x00451eae      584f           addq.w 0x4, a7
           0x00451eb0      4ebafdee       jsr C0_CURSOR_DRIVER.test_cursor(pc)
           0x00451eb4      dec2           adda.w d2, a7
           0x00451eb6      41f9007ed3dc   lea.l 0x7ed3dc, a0
           0x00451ebc      2f08           move.l a0, -(a7)
           0x00451ebe      2e1f           move.l (a7)+, d7
           0x00451ec0      1f2e0008       move.b 0x8(a6), -(a7)
           0x00451ec4      1f2e000a       move.b 0xa(a6), -(a7)
           0x00451ec8      2f07           move.l d7, -(a7)
           0x00451eca      2f06           move.l d6, -(a7)
           0x00451ecc      3039007ecfc2   move.w 0x7ecfc2, d0
           0x00451ed2      48c0           ext.l d0
           0x00451ed4      2f00           move.l d0, -(a7)
           0x00451ed6      594f           subq.w 0x4, a7
           0x00451ed8      4878000b       pea.l 0xb
           0x00451edc      4e91           jsr (a1)                    ; fcn.0000000a
           0x00451ede      4878000c       pea.l 0xc
           0x00451ee2      4e91           jsr (a1)                    ; fcn.0000000a
           0x00451ee4      4878000d       pea.l 0xd
           0x00451ee8      4e91           jsr (a1)                    ; fcn.0000000a
           0x00451eea      584f           addq.w 0x4, a7
           0x00451eec      4ebafdb2       jsr C0_CURSOR_DRIVER.test_cursor(pc)
           0x00451ef0      dec2           adda.w d2, a7
           0x00451ef2      23d2007ed7dc   move.l (a2), 0x7ed7dc
           0x00451ef8      23face78007e.  move.l 0x44ed72(pc), 0x7ed7e2.l
           0x00451f00      13c3007ed7e1   move.b d3, 0x7ed7e1
           0x00451f06      13c1007ed7e0   move.b d1, 0x7ed7e0
           0x00451f0c      13c1007edfea   move.b d1, 0x7edfea
           0x00451f12      33f9007ecfc8.  move.w 0x7ecfc8, 0x7ef008.l
           0x00451f1c      33f9007ecfca.  move.w 0x7ecfca, 0x7ef00a.l
           0x00451f26      1f01           move.b d1, -(a7)
           0x00451f28      4ebadf04       jsr C0_CURSOR_DRIVER.c_cur_enable(pc)
           0x00451f2c      544f           addq.w 0x2, a7
           0x00451f2e      4cdf1fef       movem.l (a7)+, d0-d3/d5-d7/a0-a4
           0x00451f32      4e5e           unlk a6
           0x00451f34      4e75           rts
            ; CALL XREF from C2_CURSOR_DIAG.cross_command @ 0x4543e6
            ; CALL XREF from CURSORCOM.cross_cursor @ 0x4553ee
 142: C0_CURSOR_DRIVER.c_cross_cursor ();
           0x00451f36      4e56ffea       link.w a6, 0xffea
           0x00451f3a      bfd5           cmpa.l (a5), a7
       < 0x00451f3c      6206           bhi.b 0x451f44
          0x00451f3e      44fc0002       move.w 0x2, ccr
          0x00451f42      4e76           trapv
       > 0x00451f44      defc0016       adda.w 0x16, a7
           0x00451f48      48e7f000       movem.l d0-d3, -(a7)
           0x00451f4c      7401           moveq 0x1, d2
           0x00451f4e      263cffff8000   move.l 0xffff8000, d3
           0x00451f54      1039007ed7e1   move.b 0x7ed7e1, d0
           0x00451f5a      b002           cmp.b d2, d0
       < 0x00451f5c      6704           beq.b 0x451f62
          0x00451f5e      4ebadf84       jsr C0_CURSOR_DRIVER.c_make_cross(pc)
       > 0x00451f62      13c2007ef006   move.b d2, 0x7ef006
           0x00451f68      3039007ecfcc   move.w 0x7ecfcc, d0
           0x00451f6e      48c0           ext.l d0
           0x00451f70      322e0008       move.w 0x8(a6), d1
           0x00451f74      48c1           ext.l d1
           0x00451f76      4481           neg.l d1
           0x00451f78      d280           add.l d0, d1
           0x00451f7a      9283           sub.l d3, d1
           0x00451f7c      0c810000ffff   cmpi.l 0xffff, d1
       < 0x00451f82      6302           bls.b 0x451f86
          0x00451f84      4e4f           trap 0xf
       > 0x00451f86      d283           add.l d3, d1
           0x00451f88      33c1007ef008   move.w d1, 0x7ef008
           0x00451f8e      3039007ecfce   move.w 0x7ecfce, d0
           0x00451f94      48c0           ext.l d0
           0x00451f96      322e000a       move.w 0xa(a6), d1
           0x00451f9a      48c1           ext.l d1
           0x00451f9c      4481           neg.l d1
           0x00451f9e      d280           add.l d0, d1
           0x00451fa0      9283           sub.l d3, d1
           0x00451fa2      0c810000ffff   cmpi.l 0xffff, d1
       < 0x00451fa8      6302           bls.b 0x451fac
          0x00451faa      4e4f           trap 0xf
       > 0x00451fac      d283           add.l d3, d1
           0x00451fae      33c1007ef00a   move.w d1, 0x7ef00a
           0x00451fb4      1f02           move.b d2, -(a7)
           0x00451fb6      4ebade76       jsr C0_CURSOR_DRIVER.c_cur_enable(pc)
           0x00451fba      544f           addq.w 0x2, a7
           0x00451fbc      4cdf000f       movem.l (a7)+, d0-d3
           0x00451fc0      4e5e           unlk a6
           0x00451fc2      4e75           rts
            ; CALL XREF from CURSORCOM.copy_cursor @ 0x45546a
 362: C0_CURSOR_DRIVER.c_copy_cursor ();
           0x00451fc4      4e56ffb4       link.w a6, 0xffb4
           0x00451fc8      bfd5           cmpa.l (a5), a7
       < 0x00451fca      6206           bhi.b 0x451fd2
          0x00451fcc      44fc0002       move.w 0x2, ccr
          0x00451fd0      4e76           trapv
       > 0x00451fd2      defc0044       adda.w 0x44, a7
           0x00451fd6      48e7fff0       movem.l d0-d7/a0-a3, -(a7)
           0x00451fda      41ee0008       lea.l 0x8(a6), a0
           0x00451fde      43ee000a       lea.l 0xa(a6), a1
           0x00451fe2      45f9007edfeb   lea.l 0x7edfeb, a2
           0x00451fe8      47f9007ecfd4   lea.l 0x7ecfd4, a3
           0x00451fee      283cffff8000   move.l 0xffff8000, d4
           0x00451ff4      2a3c0000ffff   move.l 0xffff, d5
           0x00451ffa      2c3c000003fc   move.l 0x3fc, d6
           0x00452000      7efc           moveq 0xfc, d7
           0x00452002      302e000c       move.w 0xc(a6), d0
           0x00452006      48c0           ext.l d0
           0x00452008      3210           move.w (a0), d1
           0x0045200a      48c1           ext.l d1
           0x0045200c      d280           add.l d0, d1
           0x0045200e      b286           cmp.l d6, d1
       < 0x00452010      6f0e           ble.b 0x452020
          0x00452012      2406           move.l d6, d2
          0x00452014      9480           sub.l d0, d2
          0x00452016      9484           sub.l d4, d2
          0x00452018      b485           cmp.l d5, d2
      < 0x0045201a      6302           bls.b 0x45201e
         0x0045201c      4e4f           trap 0xf
     > 0x0045201e      6010           bra.b 0x452030
      > 0x00452020      b287           cmp.l d7, d1
      < 0x00452022      6c10           bge.b 0x452034
         0x00452024      74fc           moveq 0xfc, d2
         0x00452026      9480           sub.l d0, d2
         0x00452028      9484           sub.l d4, d2
         0x0045202a      b485           cmp.l d5, d2
     < 0x0045202c      6302           bls.b 0x452030
        0x0045202e      4e4f           trap 0xf
     > 0x00452030      d484           add.l d4, d2
          0x00452032      3082           move.w d2, (a0)
       > 0x00452034      322e000e       move.w 0xe(a6), d1
           0x00452038      48c1           ext.l d1
           0x0045203a      3411           move.w (a1), d2
           0x0045203c      48c2           ext.l d2
           0x0045203e      d481           add.l d1, d2
           0x00452040      b486           cmp.l d6, d2
       < 0x00452042      6f0e           ble.b 0x452052
          0x00452044      2606           move.l d6, d3
          0x00452046      9681           sub.l d1, d3
          0x00452048      9684           sub.l d4, d3
          0x0045204a      b685           cmp.l d5, d3
      < 0x0045204c      6302           bls.b 0x452050
         0x0045204e      4e4f           trap 0xf
     > 0x00452050      6010           bra.b 0x452062
      > 0x00452052      b487           cmp.l d7, d2
      < 0x00452054      6c10           bge.b 0x452066
         0x00452056      76fc           moveq 0xfc, d3
         0x00452058      9681           sub.l d1, d3
         0x0045205a      9684           sub.l d4, d3
         0x0045205c      b685           cmp.l d5, d3
     < 0x0045205e      6302           bls.b 0x452062
        0x00452060      4e4f           trap 0xf
     > 0x00452062      d684           add.l d4, d3
          0x00452064      3283           move.w d3, (a1)
       > 0x00452066      1412           move.b (a2), d2
           0x00452068      0c020008       cmpi.b 0x8, d2
       < 0x0045206c      6610           bne.b 0x45207e
          0x0045206e      3410           move.w (a0), d2
          0x00452070      b453           cmp.w (a3), d2
      < 0x00452072      660a           bne.b 0x45207e
         0x00452074      3411           move.w (a1), d2
         0x00452076      b479007ecfd6   cmp.w 0x7ecfd6, d2
     < 0x0045207c      6742           beq.b 0x4520c0
     > 0x0045207e      426efff8       clr.w -0x8(a6)
          0x00452082      426efffa       clr.w -0x6(a6)
          0x00452086      3410           move.w (a0), d2
          0x00452088      48c2           ext.l d2
      < 0x0045208a      6a02           bpl.b 0x45208e
         0x0045208c      4482           neg.l d2
      > 0x0045208e      9484           sub.l d4, d2
          0x00452090      b485           cmp.l d5, d2
      < 0x00452092      6302           bls.b 0x452096
         0x00452094      4e4f           trap 0xf
      > 0x00452096      d484           add.l d4, d2
          0x00452098      3d42fffc       move.w d2, -0x4(a6)
          0x0045209c      3411           move.w (a1), d2
          0x0045209e      48c2           ext.l d2
      < 0x004520a0      6a02           bpl.b 0x4520a4
         0x004520a2      4482           neg.l d2
      > 0x004520a4      9484           sub.l d4, d2
          0x004520a6      b485           cmp.l d5, d2
      < 0x004520a8      6302           bls.b 0x4520ac
         0x004520aa      4e4f           trap 0xf
      > 0x004520ac      d484           add.l d4, d2
          0x004520ae      3d42fffe       move.w d2, -0x2(a6)
          0x004520b2      2f2efffc       move.l -0x4(a6), -(a7)
          0x004520b6      2f2efff8       move.l -0x8(a6), -(a7)
          0x004520ba      4ebae870       jsr C0_CURSOR_DRIVER.c0_make_box(pc)
          0x004520be      504f           addq.w 0x8, a7
     > 0x004520c0      2690           move.l (a0), (a3)
           0x004520c2      14bc0008       move.b 0x8, (a2)
           0x004520c6      4239007ef006   clr.b 0x7ef006
           0x004520cc      4a50           tst.w (a0)
       < 0x004520ce      6f02           ble.b 0x4520d2
          0x004520d0      4250           clr.w (a0)
       > 0x004520d2      4a51           tst.w (a1)
       < 0x004520d4      6f02           ble.b 0x4520d8
          0x004520d6      4251           clr.w (a1)
       > 0x004520d8      3439007ecfcc   move.w 0x7ecfcc, d2
           0x004520de      48c2           ext.l d2
           0x004520e0      9480           sub.l d0, d2
           0x004520e2      3610           move.w (a0), d3
           0x004520e4      48c3           ext.l d3
           0x004520e6      4483           neg.l d3
           0x004520e8      d682           add.l d2, d3
           0x004520ea      9684           sub.l d4, d3
           0x004520ec      b685           cmp.l d5, d3
       < 0x004520ee      6302           bls.b 0x4520f2
          0x004520f0      4e4f           trap 0xf
       > 0x004520f2      d684           add.l d4, d3
           0x004520f4      33c3007ef008   move.w d3, 0x7ef008
           0x004520fa      3439007ecfce   move.w 0x7ecfce, d2
           0x00452100      48c2           ext.l d2
           0x00452102      9481           sub.l d1, d2
           0x00452104      3611           move.w (a1), d3
           0x00452106      48c3           ext.l d3
           0x00452108      4483           neg.l d3
           0x0045210a      d682           add.l d2, d3
           0x0045210c      9684           sub.l d4, d3
           0x0045210e      b685           cmp.l d5, d3
       < 0x00452110      6302           bls.b 0x452114
          0x00452112      4e4f           trap 0xf
       > 0x00452114      d684           add.l d4, d3
           0x00452116      33c3007ef00a   move.w d3, 0x7ef00a
           0x0045211c      1f3c0001       move.b 0x1, -(a7)
           0x00452120      4ebadd0c       jsr C0_CURSOR_DRIVER.c_cur_enable(pc)
           0x00452124      544f           addq.w 0x2, a7
           0x00452126      4cdf0fff       movem.l (a7)+, d0-d7/a0-a3
           0x0045212a      4e5e           unlk a6
           0x0045212c      4e75           rts
            ; CALL XREF from CURSORCOM.box_cursor @ 0x455590
 72: C0_CURSOR_DRIVER.c_box_cursor ();
           0x0045212e      4e56fff4       link.w a6, 0xfff4
           0x00452132      bfd5           cmpa.l (a5), a7
       < 0x00452134      6206           bhi.b 0x45213c
          0x00452136      44fc0002       move.w 0x2, ccr
          0x0045213a      4e76           trapv
       > 0x0045213c      defc000c       adda.w 0xc, a7
           0x00452140      2f2e000c       move.l 0xc(a6), -(a7)
           0x00452144      2f2e0008       move.l 0x8(a6), -(a7)
           0x00452148      4ebae7e2       jsr C0_CURSOR_DRIVER.c0_make_box(pc)
           0x0045214c      504f           addq.w 0x8, a7
           0x0045214e      4239007ef006   clr.b 0x7ef006
           0x00452154      33f9007ecfcc.  move.w 0x7ecfcc, 0x7ef008.l
           0x0045215e      33f9007ecfce.  move.w 0x7ecfce, 0x7ef00a.l
           0x00452168      1f3c0001       move.b 0x1, -(a7)
           0x0045216c      4ebadcc0       jsr C0_CURSOR_DRIVER.c_cur_enable(pc)
           0x00452170      544f           addq.w 0x2, a7
           0x00452172      4e5e           unlk a6
           0x00452174      4e75           rts
            ; CALL XREF from CURSORCOM.cursor_off @ 0x455908
            ; CALL XREF from CURSORCOM.no_cross_cursor @ 0x455964
 46: C0_CURSOR_DRIVER.c_no_cross_curs ();
           0x00452176      4e56fffa       link.w a6, 0xfffa
           0x0045217a      bfd5           cmpa.l (a5), a7
       < 0x0045217c      6206           bhi.b 0x452184
          0x0045217e      44fc0002       move.w 0x2, ccr
          0x00452182      4e76           trapv
       > 0x00452184      defc0006       adda.w 0x6, a7
           0x00452188      4a39007ef006   tst.b 0x7ef006
       < 0x0045218e      6710           beq.b 0x4521a0
          0x00452190      4a39007ef004   tst.b 0x7ef004
      < 0x00452196      6708           beq.b 0x4521a0
         0x00452198      4227           clr.b -(a7)
         0x0045219a      4ebadc92       jsr C0_CURSOR_DRIVER.c_cur_enable(pc)
         0x0045219e      544f           addq.w 0x2, a7
      > 0x004521a0      4e5e           unlk a6
           0x004521a2      4e75           rts
            ; CALL XREF from C0_CURSOR_DRIVER.c0_cursor_off @ 0x45228e
            ; CALL XREF from C0_CURSOR_DRIVER.c0_grid_off @ 0x452318
 188: C0_CURSOR_DRIVER.cg_clear ();
           0x004521a4      4e56ffcc       link.w a6, 0xffcc
           0x004521a8      bfd5           cmpa.l (a5), a7
       < 0x004521aa      6206           bhi.b 0x4521b2
          0x004521ac      44fc0002       move.w 0x2, ccr
          0x004521b0      4e76           trapv
       > 0x004521b2      defc0034       adda.w 0x34, a7
           0x004521b6      48e798e0       movem.l d0/d3-d4/a0-a2, -(a7)
           0x004521ba      202e000c       move.l 0xc(a6), d0
           0x004521be      5380           subq.l 0x1, d0
           0x004521c0      0c8000000003   cmpi.l 0x3, d0
       < 0x004521c6      6302           bls.b 0x4521ca
          0x004521c8      4e4f           trap 0xf
       > 0x004521ca      2800           move.l d0, d4
           0x004521cc      263c0000080a   move.l 0x80a, d3
           0x004521d2      4eb900406a74   jsr fcn.00406a74
           0x004521d8      41f9007ecfb2   lea.l 0x7ecfb2, a0
           0x004521de      43f0482a       lea.l 0x2a(a0, d4.l), a1
       > 0x004521e2      4a290804       tst.b 0x804(a1)
      < 0x004521e6      670e           beq.b 0x4521f6
         0x004521e8      48780001       pea.l 0x1
         0x004521ec      4eb900402e42   jsr p_Delay
         0x004521f2      584f           addq.w 0x4, a7
      < 0x004521f4      60ec           bra.b 0x4521e2
      > 0x004521f6      594f           subq.w 0x4, a7
           0x004521f8      48780000       pea.l 0x0
           0x004521fc      4ebadca4       jsr C0_CURSOR_DRIVER.four_off(pc)
           0x00452200      584f           addq.w 0x4, a7
           0x00452202      48780400       pea.l 0x400
           0x00452206      2449           movea.l a1, a2
           0x00452208      2f0a           move.l a2, -(a7)
           0x0045220a      4eb9006d1d32   jsr MEM_FILL
           0x00452210      504f           addq.w 0x8, a7
           0x00452212      48780000       pea.l 0x0
           0x00452216      4ebadc8a       jsr C0_CURSOR_DRIVER.four_off(pc)
           0x0045221a      584f           addq.w 0x4, a7
           0x0045221c      48780400       pea.l 0x400
           0x00452220      45e90400       lea.l 0x400(a1), a2
           0x00452224      2f0a           move.l a2, -(a7)
           0x00452226      4eb9006d1d32   jsr MEM_FILL
           0x0045222c      defc000c       adda.w 0xc, a7
           0x00452230      336e00080800   move.w 0x8(a6), 0x800(a1)
           0x00452236      336e000a0802   move.w 0xa(a6), 0x802(a1)
           0x0045223c      137acb340806   move.b 0x44ed72(pc), 0x806(a1)
           0x00452242      137acb2f0807   move.b 0x44ed73(pc), 0x807(a1)
           0x00452248      137acb2a0808   move.b 0x44ed74(pc), 0x808(a1)
           0x0045224e      137acb250809   move.b 0x44ed75(pc), 0x809(a1)
           0x00452254      42290805       clr.b 0x805(a1)
           0x00452258      4cdf0719       movem.l (a7)+, d0/d3-d4/a0-a2
           0x0045225c      4e5e           unlk a6
           0x0045225e      4e75           rts
            ; CALL XREF from C0_CURSOR_DRIVER.c_cursor_off @ 0x4522e8
            ; CALL XREF from C0_CURSOR_DRIVER.c0_clear @ 0x4523a4
 112: C0_CURSOR_DRIVER.c0_cursor_off ();
           0x00452260      4e56ffd8       link.w a6, 0xffd8
           0x00452264      bfd5           cmpa.l (a5), a7
       < 0x00452266      6206           bhi.b 0x45226e
          0x00452268      44fc0002       move.w 0x2, ccr
          0x0045226c      4e76           trapv
       > 0x0045226e      defc0024       adda.w 0x24, a7
           0x00452272      48e7d980       movem.l d0-d1/d3-d4/d7/a0, -(a7)
           0x00452276      7201           moveq 0x1, d1
           0x00452278      4227           clr.b -(a7)
           0x0045227a      4ebadbb2       jsr C0_CURSOR_DRIVER.c_cur_enable(pc)
           0x0045227e      544f           addq.w 0x2, a7
           0x00452280      13c1007ef006   move.b d1, 0x7ef006
           0x00452286      7e01           moveq 0x1, d7
       > 0x00452288      2f07           move.l d7, -(a7)
          0x0045228a      2f2e0008       move.l 0x8(a6), -(a7)
          0x0045228e      4ebaff14       jsr C0_CURSOR_DRIVER.cg_clear(pc)
          0x00452292      504f           addq.w 0x8, a7
          0x00452294      2007           move.l d7, d0
          0x00452296      5380           subq.l 0x1, d0
          0x00452298      0c8000000003   cmpi.l 0x3, d0
      < 0x0045229e      6302           bls.b 0x4522a2
         0x004522a0      4e4f           trap 0xf
      > 0x004522a2      2800           move.l d0, d4
          0x004522a4      263c0000080a   move.l 0x80a, d3
          0x004522aa      4eb900406a74   jsr fcn.00406a74
          0x004522b0      41f9007ecfb2   lea.l 0x7ecfb2, a0
          0x004522b6      41f04800       lea.l (a0, d4.l), a0
          0x004522ba      1141082e       move.b d1, 0x82e(a0)
          0x004522be      5287           addq.l 0x1, d7
          0x004522c0      0c8700000002   cmpi.l 0x2, d7
       < 0x004522c6      6fc0           ble.b 0x452288
           0x004522c8      4cdf019b       movem.l (a7)+, d0-d1/d3-d4/d7/a0
           0x004522cc      4e5e           unlk a6
           0x004522ce      4e75           rts
            ; CALL XREF from CURSORCOM.cursor_off @ 0x455914
            ; CALL XREF from CURSORCOM.c_force_cross_c @ 0x455936
            ; CALL XREF from CURSORCOM.cursor_init @ 0x455d5c
            ; CALL XREF from PANEL_OUTPUT.normal_output @ 0x7906d8
 34: C0_CURSOR_DRIVER.c_cursor_off ();
           0x004522d0      4e56fff8       link.w a6, 0xfff8
           0x004522d4      bfd5           cmpa.l (a5), a7
       < 0x004522d6      6206           bhi.b 0x4522de
          0x004522d8      44fc0002       move.w 0x2, ccr
          0x004522dc      4e76           trapv
       > 0x004522de      defc0008       adda.w 0x8, a7
           0x004522e2      2f39007ecfc0   move.l 0x7ecfc0, -(a7)
           0x004522e8      4ebaff76       jsr C0_CURSOR_DRIVER.c0_cursor_off(pc)
           0x004522ec      584f           addq.w 0x4, a7
           0x004522ee      4e5e           unlk a6
           0x004522f0      4e75           rts
            ; CALL XREF from C0_CURSOR_DRIVER.c_grid_off @ 0x452374
            ; CALL XREF from C0_CURSOR_DRIVER.c0_clear @ 0x4523aa
 106: C0_CURSOR_DRIVER.c0_grid_off ();
           0x004522f2      4e56ffdc       link.w a6, 0xffdc
           0x004522f6      bfd5           cmpa.l (a5), a7
       < 0x004522f8      6206           bhi.b 0x452300
          0x004522fa      44fc0002       move.w 0x2, ccr
          0x004522fe      4e76           trapv
       > 0x00452300      defc0020       adda.w 0x20, a7
           0x00452304      48e79980       movem.l d0/d3-d4/d7/a0, -(a7)
           0x00452308      4227           clr.b -(a7)
           0x0045230a      4ebadb58       jsr C0_CURSOR_DRIVER.c_grid_enable(pc)
           0x0045230e      544f           addq.w 0x2, a7
           0x00452310      7e03           moveq 0x3, d7
       > 0x00452312      2f07           move.l d7, -(a7)
          0x00452314      2f2e0008       move.l 0x8(a6), -(a7)
          0x00452318      4ebafe8a       jsr C0_CURSOR_DRIVER.cg_clear(pc)
          0x0045231c      504f           addq.w 0x8, a7
          0x0045231e      2007           move.l d7, d0
          0x00452320      5380           subq.l 0x1, d0
          0x00452322      0c8000000003   cmpi.l 0x3, d0
      < 0x00452328      6302           bls.b 0x45232c
         0x0045232a      4e4f           trap 0xf
      > 0x0045232c      2800           move.l d0, d4
          0x0045232e      263c0000080a   move.l 0x80a, d3
          0x00452334      4eb900406a74   jsr fcn.00406a74
          0x0045233a      41f9007ecfb2   lea.l 0x7ecfb2, a0
          0x00452340      41f04800       lea.l (a0, d4.l), a0
          0x00452344      117c0001082e   move.b 0x1, 0x82e(a0)
          0x0045234a      5287           addq.l 0x1, d7
          0x0045234c      0c8700000004   cmpi.l 0x4, d7
       < 0x00452352      6fbe           ble.b 0x452312
           0x00452354      4cdf0199       movem.l (a7)+, d0/d3-d4/d7/a0
           0x00452358      4e5e           unlk a6
           0x0045235a      4e75           rts
            ; CALL XREF from C0_CURSOR_DRIVER.box_safe_area_o @ 0x450fa6
            ; CALL XREF from CURSORCOM.grid_off @ 0x4558da
            ; CALL XREF from CURSORCOM.cursor_init @ 0x455d56
            ; CALL XREF from MENUGRIDCOM.do_released @ 0x5031e0
 34: C0_CURSOR_DRIVER.c_grid_off ();
           0x0045235c      4e56fff8       link.w a6, 0xfff8
           0x00452360      bfd5           cmpa.l (a5), a7
       < 0x00452362      6206           bhi.b 0x45236a
          0x00452364      44fc0002       move.w 0x2, ccr
          0x00452368      4e76           trapv
       > 0x0045236a      defc0008       adda.w 0x8, a7
           0x0045236e      2f39007ecfd0   move.l 0x7ecfd0, -(a7)
           0x00452374      4ebaff7c       jsr C0_CURSOR_DRIVER.c0_grid_off(pc)
           0x00452378      584f           addq.w 0x4, a7
           0x0045237a      4e5e           unlk a6
           0x0045237c      4e75           rts
            ; CALL XREF from C0_CURSOR_DRIVER.c0_init @ 0x453242
 94: C0_CURSOR_DRIVER.c0_clear ();
           0x0045237e      4e56ffec       link.w a6, 0xffec
           0x00452382      bfd5           cmpa.l (a5), a7
       < 0x00452384      6206           bhi.b 0x45238c
          0x00452386      44fc0002       move.w 0x2, ccr
          0x0045238a      4e76           trapv
       > 0x0045238c      defc000c       adda.w 0xc, a7
           0x00452390      48e70080       movem.l a0, -(a7)
           0x00452394      41eefffc       lea.l -0x4(a6), a0
           0x00452398      30bc0400       move.w 0x400, (a0)
           0x0045239c      3d7c0400fffe   move.w 0x400, -0x2(a6)
           0x004523a2      2f10           move.l (a0), -(a7)
           0x004523a4      4ebafeba       jsr C0_CURSOR_DRIVER.c0_cursor_off(pc)
           0x004523a8      2e90           move.l (a0), (a7)
           0x004523aa      4ebaff46       jsr C0_CURSOR_DRIVER.c0_grid_off(pc)
           0x004523ae      584f           addq.w 0x4, a7
           0x004523b0      4279007ef010   clr.w 0x7ef010
           0x004523b6      4279007ef012   clr.w 0x7ef012
           0x004523bc      4279007ef014   clr.w 0x7ef014
           0x004523c2      4279007ef016   clr.w 0x7ef016
           0x004523c8      4279007ef018   clr.w 0x7ef018
           0x004523ce      4279007ef01a   clr.w 0x7ef01a
           0x004523d4      4cdf0100       movem.l (a7)+, a0
           0x004523d8      4e5e           unlk a6
           0x004523da      4e75           rts
            ; CALL XREF from C2_CURSOR_DIAG.shadow_command @ 0x454210
 30: C0_CURSOR_DRIVER.c0_drop_shadow ();
           0x004523dc      4e56fffc       link.w a6, 0xfffc
           0x004523e0      bfd5           cmpa.l (a5), a7
       < 0x004523e2      6206           bhi.b 0x4523ea
          0x004523e4      44fc0002       move.w 0x2, ccr
          0x004523e8      4e76           trapv
       > 0x004523ea      defc0004       adda.w 0x4, a7
           0x004523ee      13ee0008007e.  move.b 0x8(a6), 0x7ecfb7.l
           0x004523f6      4e5e           unlk a6
           0x004523f8      4e75           rts
            ; CALL XREF from C2_CURSOR_DIAG.coffset_command @ 0x453e4c
 294: C0_CURSOR_DRIVER.c0_cur_offset ();
           ; var int32_t var_8h @ a7+0x8
           0x004523fa      4e56fec8       link.w a6, 0xfec8
           0x004523fe      bfd5           cmpa.l (a5), a7
       < 0x00452400      6206           bhi.b 0x452408
          0x00452402      44fc0002       move.w 0x2, ccr
          0x00452406      4e76           trapv
       > 0x00452408      defc0138       adda.w 0x138, a7
           0x0045240c      48e7f8f8       movem.l d0-d4/a0-a4, -(a7)
           0x00452410      41f9007ecfcc   lea.l 0x7ecfcc, a0
           0x00452416      43f9007ef008   lea.l 0x7ef008, a1
           0x0045241c      45f9007ef00a   lea.l 0x7ef00a, a2
           0x00452422      47f9004047ea   lea.l p_wts_o, a3
           0x00452428      49f9007ecfce   lea.l 0x7ecfce, a4
           0x0045242e      243cffff8000   move.l 0xffff8000, d2
           0x00452434      263c0000ffff   move.l 0xffff, d3
           0x0045243a      780c           moveq 0xc, d4
           0x0045243c      9efc0100       suba.w 0x100, a7
           0x00452440      2f10           move.l (a0), -(a7)
           0x00452442      48780000       pea.l 0x0
           0x00452446      4eb90044dd86   jsr SYSTEM_STRING.point_str
           0x0045244c      504f           addq.w 0x8, a7
           0x0045244e      487ad14b       pea.l 0x44f59b(pc)
           0x00452452      48780024       pea.l 0x24
           0x00452456      2f17           move.l (a7), -(a7)
           0x00452458      4e93           jsr (a3)                    ; fcn.0000000c
           0x0045245a      dec4           adda.w d4, a7
           0x0045245c      486f0001       pea.l 0x1(a7)
           0x00452460      42a7           clr.l -(a7)
           0x00452462      1f6f00080003   move.b 0x8(a7), 0x3(a7)
           0x00452468      2f17           move.l (a7), -(a7)
           0x0045246a      4e93           jsr (a3)                    ; fcn.0000000c
           0x0045246c      defc010c       adda.w 0x10c, a7
           0x00452470      4eb900404946   jsr p_wtln_o
           0x00452476      3011           move.w (a1), d0
           0x00452478      48c0           ext.l d0
           0x0045247a      3210           move.w (a0), d1
           0x0045247c      48c1           ext.l d1
           0x0045247e      4481           neg.l d1
           0x00452480      d280           add.l d0, d1
           0x00452482      9282           sub.l d2, d1
           0x00452484      b283           cmp.l d3, d1
       < 0x00452486      6302           bls.b 0x45248a
          0x00452488      4e4f           trap 0xf
       > 0x0045248a      d282           add.l d2, d1
           0x0045248c      3281           move.w d1, (a1)
           0x0045248e      3012           move.w (a2), d0
           0x00452490      48c0           ext.l d0
           0x00452492      3214           move.w (a4), d1
           0x00452494      48c1           ext.l d1
           0x00452496      4481           neg.l d1
           0x00452498      d280           add.l d0, d1
           0x0045249a      9282           sub.l d2, d1
           0x0045249c      b283           cmp.l d3, d1
       < 0x0045249e      6302           bls.b 0x4524a2
          0x004524a0      4e4f           trap 0xf
       > 0x004524a2      d282           add.l d2, d1
           0x004524a4      3481           move.w d1, (a2)
           0x004524a6      30ae000a       move.w 0xa(a6), (a0)
           0x004524aa      38ae0008       move.w 0x8(a6), (a4)
           0x004524ae      3011           move.w (a1), d0
           0x004524b0      48c0           ext.l d0
           0x004524b2      322e000a       move.w 0xa(a6), d1
           0x004524b6      48c1           ext.l d1
           0x004524b8      d280           add.l d0, d1
           0x004524ba      9282           sub.l d2, d1
           0x004524bc      b283           cmp.l d3, d1
       < 0x004524be      6302           bls.b 0x4524c2
          0x004524c0      4e4f           trap 0xf
       > 0x004524c2      d282           add.l d2, d1
           0x004524c4      3281           move.w d1, (a1)
           0x004524c6      3012           move.w (a2), d0
           0x004524c8      48c0           ext.l d0
           0x004524ca      322e0008       move.w 0x8(a6), d1
           0x004524ce      48c1           ext.l d1
           0x004524d0      d280           add.l d0, d1
           0x004524d2      9282           sub.l d2, d1
           0x004524d4      b283           cmp.l d3, d1
       < 0x004524d6      6302           bls.b 0x4524da
          0x004524d8      4e4f           trap 0xf
       > 0x004524da      d282           add.l d2, d1
           0x004524dc      3481           move.w d1, (a2)
           0x004524de      9efc0100       suba.w 0x100, a7
           0x004524e2      2f10           move.l (a0), -(a7)
           0x004524e4      48780000       pea.l 0x0
           0x004524e8      4eb90044dd86   jsr SYSTEM_STRING.point_str
           0x004524ee      504f           addq.w 0x8, a7
           0x004524f0      487ad0ce       pea.l 0x44f5c0(pc)
           0x004524f4      48780024       pea.l 0x24
           0x004524f8      2f17           move.l (a7), -(a7)
           0x004524fa      4e93           jsr (a3)                    ; fcn.0000000c
           0x004524fc      dec4           adda.w d4, a7
           0x004524fe      486f0001       pea.l 0x1(a7)
           0x00452502      42a7           clr.l -(a7)
           0x00452504      1f6f00080003   move.b 0x8(a7), 0x3(a7)
           0x0045250a      2f17           move.l (a7), -(a7)
           0x0045250c      4e93           jsr (a3)                    ; fcn.0000000c
           0x0045250e      defc010c       adda.w 0x10c, a7
           0x00452512      4eb900404946   jsr p_wtln_o
           0x00452518      4cdf1f1f       movem.l (a7)+, d0-d4/a0-a4
           0x0045251c      4e5e           unlk a6
           0x0045251e      4e75           rts
            ; CALL XREF from C2_CURSOR_DIAG.goffset_command @ 0x453ed6
 294: C0_CURSOR_DRIVER.c0_gr_offset ();
           ; var int32_t var_8h @ a7+0x8
           0x00452520      4e56fec8       link.w a6, 0xfec8
           0x00452524      bfd5           cmpa.l (a5), a7
       < 0x00452526      6206           bhi.b 0x45252e
          0x00452528      44fc0002       move.w 0x2, ccr
          0x0045252c      4e76           trapv
       > 0x0045252e      defc0138       adda.w 0x138, a7
           0x00452532      48e7f8f8       movem.l d0-d4/a0-a4, -(a7)
           0x00452536      41f9007ecfc8   lea.l 0x7ecfc8, a0
           0x0045253c      43f9007ef00c   lea.l 0x7ef00c, a1
           0x00452542      45f9007ef00e   lea.l 0x7ef00e, a2
           0x00452548      47f9004047ea   lea.l p_wts_o, a3
           0x0045254e      49f9007ecfca   lea.l 0x7ecfca, a4
           0x00452554      243cffff8000   move.l 0xffff8000, d2
           0x0045255a      263c0000ffff   move.l 0xffff, d3
           0x00452560      780c           moveq 0xc, d4
           0x00452562      9efc0100       suba.w 0x100, a7
           0x00452566      2f10           move.l (a0), -(a7)
           0x00452568      48780000       pea.l 0x0
           0x0045256c      4eb90044dd86   jsr SYSTEM_STRING.point_str
           0x00452572      504f           addq.w 0x8, a7
           0x00452574      487ad06f       pea.l 0x44f5e5(pc)
           0x00452578      48780021       pea.l 0x21
           0x0045257c      2f17           move.l (a7), -(a7)
           0x0045257e      4e93           jsr (a3)                    ; fcn.0000000c
           0x00452580      dec4           adda.w d4, a7
           0x00452582      486f0001       pea.l 0x1(a7)
           0x00452586      42a7           clr.l -(a7)
           0x00452588      1f6f00080003   move.b 0x8(a7), 0x3(a7)
           0x0045258e      2f17           move.l (a7), -(a7)
           0x00452590      4e93           jsr (a3)                    ; fcn.0000000c
           0x00452592      defc010c       adda.w 0x10c, a7
           0x00452596      4eb900404946   jsr p_wtln_o
           0x0045259c      3011           move.w (a1), d0
           0x0045259e      48c0           ext.l d0
           0x004525a0      3210           move.w (a0), d1
           0x004525a2      48c1           ext.l d1
           0x004525a4      4481           neg.l d1
           0x004525a6      d280           add.l d0, d1
           0x004525a8      9282           sub.l d2, d1
           0x004525aa      b283           cmp.l d3, d1
       < 0x004525ac      6302           bls.b 0x4525b0
          0x004525ae      4e4f           trap 0xf
       > 0x004525b0      d282           add.l d2, d1
           0x004525b2      3281           move.w d1, (a1)
           0x004525b4      3012           move.w (a2), d0
           0x004525b6      48c0           ext.l d0
           0x004525b8      3214           move.w (a4), d1
           0x004525ba      48c1           ext.l d1
           0x004525bc      4481           neg.l d1
           0x004525be      d280           add.l d0, d1
           0x004525c0      9282           sub.l d2, d1
           0x004525c2      b283           cmp.l d3, d1
       < 0x004525c4      6302           bls.b 0x4525c8
          0x004525c6      4e4f           trap 0xf
       > 0x004525c8      d282           add.l d2, d1
           0x004525ca      3481           move.w d1, (a2)
           0x004525cc      30ae000a       move.w 0xa(a6), (a0)
           0x004525d0      38ae0008       move.w 0x8(a6), (a4)
           0x004525d4      3011           move.w (a1), d0
           0x004525d6      48c0           ext.l d0
           0x004525d8      322e000a       move.w 0xa(a6), d1
           0x004525dc      48c1           ext.l d1
           0x004525de      d280           add.l d0, d1
           0x004525e0      9282           sub.l d2, d1
           0x004525e2      b283           cmp.l d3, d1
       < 0x004525e4      6302           bls.b 0x4525e8
          0x004525e6      4e4f           trap 0xf
       > 0x004525e8      d282           add.l d2, d1
           0x004525ea      3281           move.w d1, (a1)
           0x004525ec      3012           move.w (a2), d0
           0x004525ee      48c0           ext.l d0
           0x004525f0      322e0008       move.w 0x8(a6), d1
           0x004525f4      48c1           ext.l d1
           0x004525f6      d280           add.l d0, d1
           0x004525f8      9282           sub.l d2, d1
           0x004525fa      b283           cmp.l d3, d1
       < 0x004525fc      6302           bls.b 0x452600
          0x004525fe      4e4f           trap 0xf
       > 0x00452600      d282           add.l d2, d1
           0x00452602      3481           move.w d1, (a2)
           0x00452604      9efc0100       suba.w 0x100, a7
           0x00452608      2f10           move.l (a0), -(a7)
           0x0045260a      48780000       pea.l 0x0
           0x0045260e      4eb90044dd86   jsr SYSTEM_STRING.point_str
           0x00452614      504f           addq.w 0x8, a7
           0x00452616      487acfef       pea.l 0x44f607(pc)
           0x0045261a      48780021       pea.l 0x21
           0x0045261e      2f17           move.l (a7), -(a7)
           0x00452620      4e93           jsr (a3)                    ; fcn.0000000c
           0x00452622      dec4           adda.w d4, a7
           0x00452624      486f0001       pea.l 0x1(a7)
           0x00452628      42a7           clr.l -(a7)
           0x0045262a      1f6f00080003   move.b 0x8(a7), 0x3(a7)
           0x00452630      2f17           move.l (a7), -(a7)
           0x00452632      4e93           jsr (a3)                    ; fcn.0000000c
           0x00452634      defc010c       adda.w 0x10c, a7
           0x00452638      4eb900404946   jsr p_wtln_o
           0x0045263e      4cdf1f1f       movem.l (a7)+, d0-d4/a0-a4
           0x00452642      4e5e           unlk a6
           0x00452644      4e75           rts
            ; CALL XREF from C2_CURSOR_DIAG.cscroll_command @ 0x453f7e
            ; CALL XREF from PANEL_OUTPUT.output_window @ 0x790d92
 108: C0_CURSOR_DRIVER.c0_cur_scroll ();
           0x00452646      4e56fff0       link.w a6, 0xfff0
           0x0045264a      bfd5           cmpa.l (a5), a7
       < 0x0045264c      6206           bhi.b 0x452654
          0x0045264e      44fc0002       move.w 0x2, ccr
          0x00452652      4e76           trapv
       > 0x00452654      defc0010       adda.w 0x10, a7
           0x00452658      48e7e000       movem.l d0-d2, -(a7)
           0x0045265c      243cffff8000   move.l 0xffff8000, d2
           0x00452662      3039007ecfcc   move.w 0x7ecfcc, d0
           0x00452668      48c0           ext.l d0
           0x0045266a      322e000a       move.w 0xa(a6), d1
           0x0045266e      48c1           ext.l d1
           0x00452670      d280           add.l d0, d1
           0x00452672      9282           sub.l d2, d1
           0x00452674      0c810000ffff   cmpi.l 0xffff, d1
       < 0x0045267a      6302           bls.b 0x45267e
          0x0045267c      4e4f           trap 0xf
       > 0x0045267e      d282           add.l d2, d1
           0x00452680      33c1007ef008   move.w d1, 0x7ef008
           0x00452686      3039007ecfce   move.w 0x7ecfce, d0
           0x0045268c      48c0           ext.l d0
           0x0045268e      322e0008       move.w 0x8(a6), d1
           0x00452692      48c1           ext.l d1
           0x00452694      d280           add.l d0, d1
           0x00452696      9282           sub.l d2, d1
           0x00452698      0c810000ffff   cmpi.l 0xffff, d1
       < 0x0045269e      6302           bls.b 0x4526a2
          0x004526a0      4e4f           trap 0xf
       > 0x004526a2      d282           add.l d2, d1
           0x004526a4      33c1007ef00a   move.w d1, 0x7ef00a
           0x004526aa      4cdf0007       movem.l (a7)+, d0-d2
           0x004526ae      4e5e           unlk a6
           0x004526b0      4e75           rts
            ; CALL XREF from C2_CURSOR_DIAG.gscroll_command @ 0x454026
 108: C0_CURSOR_DRIVER.c0_gr_scroll ();
           0x004526b2      4e56fff0       link.w a6, 0xfff0
           0x004526b6      bfd5           cmpa.l (a5), a7
       < 0x004526b8      6206           bhi.b 0x4526c0
          0x004526ba      44fc0002       move.w 0x2, ccr
          0x004526be      4e76           trapv
       > 0x004526c0      defc0010       adda.w 0x10, a7
           0x004526c4      48e7e000       movem.l d0-d2, -(a7)
           0x004526c8      243cffff8000   move.l 0xffff8000, d2
           0x004526ce      3039007ecfc8   move.w 0x7ecfc8, d0
           0x004526d4      48c0           ext.l d0
           0x004526d6      322e000a       move.w 0xa(a6), d1
           0x004526da      48c1           ext.l d1
           0x004526dc      d280           add.l d0, d1
           0x004526de      9282           sub.l d2, d1
           0x004526e0      0c810000ffff   cmpi.l 0xffff, d1
       < 0x004526e6      6302           bls.b 0x4526ea
          0x004526e8      4e4f           trap 0xf
       > 0x004526ea      d282           add.l d2, d1
           0x004526ec      33c1007ef00c   move.w d1, 0x7ef00c
           0x004526f2      3039007ecfca   move.w 0x7ecfca, d0
           0x004526f8      48c0           ext.l d0
           0x004526fa      322e0008       move.w 0x8(a6), d1
           0x004526fe      48c1           ext.l d1
           0x00452700      d280           add.l d0, d1
           0x00452702      9282           sub.l d2, d1
           0x00452704      0c810000ffff   cmpi.l 0xffff, d1
       < 0x0045270a      6302           bls.b 0x45270e
          0x0045270c      4e4f           trap 0xf
       > 0x0045270e      d282           add.l d2, d1
           0x00452710      33c1007ef00e   move.w d1, 0x7ef00e
           0x00452716      4cdf0007       movem.l (a7)+, d0-d2
           0x0045271a      4e5e           unlk a6
           0x0045271c      4e75           rts
            ; CALL XREF from C2_CURSOR_DIAG.zoom_command @ 0x454918
 30: C0_CURSOR_DRIVER.c0_zoom ();
           0x0045271e      4e56fffc       link.w a6, 0xfffc
           0x00452722      bfd5           cmpa.l (a5), a7
       < 0x00452724      6206           bhi.b 0x45272c
          0x00452726      44fc0002       move.w 0x2, ccr
          0x0045272a      4e76           trapv
       > 0x0045272c      defc0004       adda.w 0x4, a7
           0x00452730      33ee0008007e.  move.w 0x8(a6), 0x7ef028.l
           0x00452738      4e5e           unlk a6
           0x0045273a      4e75           rts
            ; CALL XREFS from CURSORCOM.nobble_cursor @ 0x454fe4, 0x454ff0
 30: C0_CURSOR_DRIVER.c_nobble_cursor ();
           0x0045273c      4e56fffc       link.w a6, 0xfffc
           0x00452740      bfd5           cmpa.l (a5), a7
       < 0x00452742      6206           bhi.b 0x45274a
          0x00452744      44fc0002       move.w 0x2, ccr
          0x00452748      4e76           trapv
       > 0x0045274a      defc0004       adda.w 0x4, a7
           0x0045274e      13ee0008007e.  move.b 0x8(a6), 0x7ef03c.l
           0x00452756      4e5e           unlk a6
           0x00452758      4e75           rts
            ; CALL XREF from C0_CURSOR_DRIVER.c0_init @ 0x453252
            ; CALL XREF from C2_CURSOR_DIAG.test_pattern_co @ 0x4548a0
            ; CALL XREF from C2_CURSOR_DIAG.ccolour_command @ 0x4549bc
            ; CALL XREF from CURSORCOM.cursor_colour @ 0x455046
            ; CALL XREF from CURSORCOM.cursor_init @ 0x455df8
 230: C0_CURSOR_DRIVER.c_cur_colour ();
           0x0045275a      4e56ffba       link.w a6, 0xffba
           0x0045275e      bfd5           cmpa.l (a5), a7
       < 0x00452760      6206           bhi.b 0x452768
          0x00452762      44fc0002       move.w 0x2, ccr
          0x00452766      4e76           trapv
       > 0x00452768      defc0038       adda.w 0x38, a7
           0x0045276c      48e7f1f0       movem.l d0-d3/d7/a0-a3, -(a7)
           0x00452770      41f9007ef010   lea.l 0x7ef010, a0
           0x00452776      43f9007ef012   lea.l 0x7ef012, a1
           0x0045277c      45f9007ef014   lea.l 0x7ef014, a2
           0x00452782      47f9007ef026   lea.l 0x7ef026, a3
           0x00452788      343c00ff       move.w 0xff, d2
           0x0045278c      7601           moveq 0x1, d3
           0x0045278e      4a39007ef03c   tst.b 0x7ef03c
       < 0x00452794      660000a2       bne.w 0x452838
          0x00452798      7000           moveq 0x0, d0
          0x0045279a      4a13           tst.b (a3)
      < 0x0045279c      6618           bne.b 0x4527b6
         0x0045279e      3210           move.w (a0), d1
         0x004527a0      b26e000c       cmp.w 0xc(a6), d1
     < 0x004527a4      6610           bne.b 0x4527b6
        0x004527a6      3211           move.w (a1), d1
        0x004527a8      b26e000a       cmp.w 0xa(a6), d1
    < 0x004527ac      6608           bne.b 0x4527b6
       0x004527ae      3212           move.w (a2), d1
       0x004527b0      b26e0008       cmp.w 0x8(a6), d1
   < 0x004527b4      6702           beq.b 0x4527b8
   > 0x004527b6      5200           addq.b 0x1, d0
   > 0x004527b8      4880           ext.w d0
          0x004527ba      4183           chk.w d3, d0
          0x004527bc      1e00           move.b d0, d7
          0x004527be      30ae000c       move.w 0xc(a6), (a0)
          0x004527c2      32ae000a       move.w 0xa(a6), (a1)
          0x004527c6      34ae0008       move.w 0x8(a6), (a2)
          0x004527ca      4a39007ecfb5   tst.b 0x7ecfb5
      < 0x004527d0      6766           beq.b 0x452838
         0x004527d2      3010           move.w (a0), d0
         0x004527d4      4182           chk.w d2, d0
         0x004527d6      3d40fff4       move.w d0, -0xc(a6)
         0x004527da      3011           move.w (a1), d0
         0x004527dc      4182           chk.w d2, d0
         0x004527de      3d40fff6       move.w d0, -0xa(a6)
         0x004527e2      3012           move.w (a2), d0
         0x004527e4      4182           chk.w d2, d0
         0x004527e6      3d40fff8       move.w d0, -0x8(a6)
         0x004527ea      3039007ef016   move.w 0x7ef016, d0
         0x004527f0      4182           chk.w d2, d0
         0x004527f2      3d40fffa       move.w d0, -0x6(a6)
         0x004527f6      3039007ef018   move.w 0x7ef018, d0
         0x004527fc      4182           chk.w d2, d0
         0x004527fe      3d40fffc       move.w d0, -0x4(a6)
         0x00452802      3039007ef01a   move.w 0x7ef01a, d0
         0x00452808      4182           chk.w d2, d0
         0x0045280a      3d40fffe       move.w d0, -0x2(a6)
         0x0045280e      4a07           tst.b d7
     < 0x00452810      6720           beq.b 0x452832
        0x00452812      2f2efff6       move.l -0xa(a6), -(a7)
        0x00452816      3f2efff4       move.w -0xc(a6), -(a7)
        0x0045281a      2f2efffc       move.l -0x4(a6), -(a7)
        0x0045281e      3f2efffa       move.w -0x6(a6), -(a7)
        0x00452822      4879007ef022   pea.l 0x7ef022
        0x00452828      4eb9005b7842   jsr DOMINO_DUMMY.dom_curs_col
        0x0045282e      defc0010       adda.w 0x10, a7
     > 0x00452832      4887           ext.w d7
         0x00452834      4f83           chk.w d3, d7
         0x00452836      1687           move.b d7, (a3)
      > 0x00452838      4cdf0f8f       movem.l (a7)+, d0-d3/d7/a0-a3
           0x0045283c      4e5e           unlk a6
           0x0045283e      4e75           rts
            ; CALL XREF from C0_CURSOR_DRIVER.c0_init @ 0x453264
            ; CALL XREF from C2_CURSOR_DIAG.test_pattern_co @ 0x4548b4
            ; CALL XREF from C2_CURSOR_DIAG.gcolour_command @ 0x454a60
            ; CALL XREF from CURSORCOM.grid_colour @ 0x455398
 220: C0_CURSOR_DRIVER.c_gr_colour ();
           0x00452840      4e56ffba       link.w a6, 0xffba
           0x00452844      bfd5           cmpa.l (a5), a7
       < 0x00452846      6206           bhi.b 0x45284e
          0x00452848      44fc0002       move.w 0x2, ccr
          0x0045284c      4e76           trapv
       > 0x0045284e      defc0038       adda.w 0x38, a7
           0x00452852      48e7f1f0       movem.l d0-d3/d7/a0-a3, -(a7)
           0x00452856      41f9007ef016   lea.l 0x7ef016, a0
           0x0045285c      43f9007ef018   lea.l 0x7ef018, a1
           0x00452862      45f9007ef01a   lea.l 0x7ef01a, a2
           0x00452868      47f9007ef026   lea.l 0x7ef026, a3
           0x0045286e      343c00ff       move.w 0xff, d2
           0x00452872      7601           moveq 0x1, d3
           0x00452874      7000           moveq 0x0, d0
           0x00452876      4a13           tst.b (a3)
       < 0x00452878      6618           bne.b 0x452892
          0x0045287a      3210           move.w (a0), d1
          0x0045287c      b26e000c       cmp.w 0xc(a6), d1
      < 0x00452880      6610           bne.b 0x452892
         0x00452882      3211           move.w (a1), d1
         0x00452884      b26e000a       cmp.w 0xa(a6), d1
     < 0x00452888      6608           bne.b 0x452892
        0x0045288a      3212           move.w (a2), d1
        0x0045288c      b26e0008       cmp.w 0x8(a6), d1
    < 0x00452890      6702           beq.b 0x452894
    > 0x00452892      5200           addq.b 0x1, d0
    > 0x00452894      4880           ext.w d0
           0x00452896      4183           chk.w d3, d0
           0x00452898      1e00           move.b d0, d7
           0x0045289a      30ae000c       move.w 0xc(a6), (a0)
           0x0045289e      32ae000a       move.w 0xa(a6), (a1)
           0x004528a2      34ae0008       move.w 0x8(a6), (a2)
           0x004528a6      4a39007ecfb5   tst.b 0x7ecfb5
       < 0x004528ac      6766           beq.b 0x452914
          0x004528ae      3039007ef010   move.w 0x7ef010, d0
          0x004528b4      4182           chk.w d2, d0
          0x004528b6      3d40fff4       move.w d0, -0xc(a6)
          0x004528ba      3039007ef012   move.w 0x7ef012, d0
          0x004528c0      4182           chk.w d2, d0
          0x004528c2      3d40fff6       move.w d0, -0xa(a6)
          0x004528c6      3039007ef014   move.w 0x7ef014, d0
          0x004528cc      4182           chk.w d2, d0
          0x004528ce      3d40fff8       move.w d0, -0x8(a6)
          0x004528d2      3010           move.w (a0), d0
          0x004528d4      4182           chk.w d2, d0
          0x004528d6      3d40fffa       move.w d0, -0x6(a6)
          0x004528da      3011           move.w (a1), d0
          0x004528dc      4182           chk.w d2, d0
          0x004528de      3d40fffc       move.w d0, -0x4(a6)
          0x004528e2      3012           move.w (a2), d0
          0x004528e4      4182           chk.w d2, d0
          0x004528e6      3d40fffe       move.w d0, -0x2(a6)
          0x004528ea      4a07           tst.b d7
      < 0x004528ec      6720           beq.b 0x45290e
         0x004528ee      2f2efff6       move.l -0xa(a6), -(a7)
         0x004528f2      3f2efff4       move.w -0xc(a6), -(a7)
         0x004528f6      2f2efffc       move.l -0x4(a6), -(a7)
         0x004528fa      3f2efffa       move.w -0x6(a6), -(a7)
         0x004528fe      4879007ef022   pea.l 0x7ef022
         0x00452904      4eb9005b7842   jsr DOMINO_DUMMY.dom_curs_col
         0x0045290a      defc0010       adda.w 0x10, a7
      > 0x0045290e      4887           ext.w d7
          0x00452910      4f83           chk.w d3, d7
          0x00452912      1687           move.b d7, (a3)
       > 0x00452914      4cdf0f8f       movem.l (a7)+, d0-d3/d7/a0-a3
           0x00452918      4e5e           unlk a6
           0x0045291a      4e75           rts
 22: C0_CURSOR_DRIVER.c_ds_colour ();
           0x0045291c      4e56fffc       link.w a6, 0xfffc
           0x00452920      bfd5           cmpa.l (a5), a7
       < 0x00452922      6206           bhi.b 0x45292a
          0x00452924      44fc0002       move.w 0x2, ccr
          0x00452928      4e76           trapv
       > 0x0045292a      defc0004       adda.w 0x4, a7
           0x0045292e      4e5e           unlk a6
           0x00452930      4e75           rts
            ; CALL XREF from C2_CURSOR_DIAG.clear_command @ 0x45410c
            ; CALL XREF from C2_CURSOR_DIAG.enable_command @ 0x454abc
            ; CALL XREF from C2_CURSOR_DIAG.disable_command @ 0x454ae2
 22: C0_CURSOR_DRIVER.c_enable ();
           0x00452932      4e56fffc       link.w a6, 0xfffc
           0x00452936      bfd5           cmpa.l (a5), a7
       < 0x00452938      6206           bhi.b 0x452940
          0x0045293a      44fc0002       move.w 0x2, ccr
          0x0045293e      4e76           trapv
       > 0x00452940      defc0004       adda.w 0x4, a7
           0x00452944      4e5e           unlk a6
           0x00452946      4e75           rts
 30: C0_CURSOR_DRIVER.c0_curs_updated ();
           0x00452948      4e56fffc       link.w a6, 0xfffc
           0x0045294c      bfd5           cmpa.l (a5), a7
       < 0x0045294e      6206           bhi.b 0x452956
          0x00452950      44fc0002       move.w 0x2, ccr
          0x00452954      4e76           trapv
       > 0x00452956      defc0004       adda.w 0x4, a7
           0x0045295a      1d79007ef020.  move.b 0x7ef020, 0x8(a6)
           0x00452962      4e5e           unlk a6
           0x00452964      4e75           rts
            ; CALL XREF from HANDCOM.init_areas @ 0x634a76
 36: C0_CURSOR_DRIVER.c_set_aspect_cu ();
           0x00452966      4e56fffc       link.w a6, 0xfffc
           0x0045296a      bfd5           cmpa.l (a5), a7
       < 0x0045296c      6206           bhi.b 0x452974
          0x0045296e      44fc0002       move.w 0x2, ccr
          0x00452972      4e76           trapv
       > 0x00452974      defc0004       adda.w 0x4, a7
           0x00452978      13ee0008007e.  move.b 0x8(a6), 0x7ef03a.l
           0x00452980      4239007ed7e1   clr.b 0x7ed7e1
           0x00452986      4e5e           unlk a6
           0x00452988      4e75           rts
 112: C0_CURSOR_DRIVER.presenter_adjus ();
           0x0045298a      4e56ffe8       link.w a6, 0xffe8
           0x0045298e      bfd5           cmpa.l (a5), a7
       < 0x00452990      6206           bhi.b 0x452998
          0x00452992      44fc0002       move.w 0x2, ccr
          0x00452996      4e76           trapv
       > 0x00452998      defc0018       adda.w 0x18, a7
           0x0045299c      48e7e080       movem.l d0-d2/a0, -(a7)
           0x004529a0      223cffff8000   move.l 0xffff8000, d1
           0x004529a6      243c0000ffff   move.l 0xffff, d2
           0x004529ac      206c0014       movea.l 0x14(a4), a0
           0x004529b0      3010           move.w (a0), d0
           0x004529b2      48c0           ext.l d0
           0x004529b4      5580           subq.l 0x2, d0
           0x004529b6      9081           sub.l d1, d0
           0x004529b8      b082           cmp.l d2, d0
       < 0x004529ba      6302           bls.b 0x4529be
          0x004529bc      4e4f           trap 0xf
       > 0x004529be      d081           add.l d1, d0
           0x004529c0      3080           move.w d0, (a0)
           0x004529c2      30280002       move.w 0x2(a0), d0
           0x004529c6      48c0           ext.l d0
           0x004529c8      5280           addq.l 0x1, d0
           0x004529ca      9081           sub.l d1, d0
           0x004529cc      b082           cmp.l d2, d0
       < 0x004529ce      6302           bls.b 0x4529d2
          0x004529d0      4e4f           trap 0xf
       > 0x004529d2      d081           add.l d1, d0
           0x004529d4      31400002       move.w d0, 0x2(a0)
           0x004529d8      206c0018       movea.l 0x18(a4), a0
           0x004529dc      30280002       move.w 0x2(a0), d0
           0x004529e0      48c0           ext.l d0
           0x004529e2      5980           subq.l 0x4, d0
           0x004529e4      9081           sub.l d1, d0
           0x004529e6      b082           cmp.l d2, d0
       < 0x004529e8      6302           bls.b 0x4529ec
          0x004529ea      4e4f           trap 0xf
       > 0x004529ec      d081           add.l d1, d0
           0x004529ee      31400002       move.w d0, 0x2(a0)
           0x004529f2      4cdf0107       movem.l (a7)+, d0-d2/a0
           0x004529f6      4e5e           unlk a6
           0x004529f8      4e75           rts
            ; CALL XREF from C0_CURSOR_DRIVER.c0_init @ 0x4530ee
 74: C0_CURSOR_DRIVER.get_defaults ();
           0x004529fa      4e56ffbe       link.w a6, 0xffbe
           0x004529fe      bfd5           cmpa.l (a5), a7
       < 0x00452a00      6206           bhi.b 0x452a08
          0x00452a02      44fc0002       move.w 0x2, ccr
          0x00452a06      4e76           trapv
       > 0x00452a08      defc0042       adda.w 0x42, a7
           0x00452a0c      48e7fef8       movem.l d0-d6/a0-a4, -(a7)
           0x00452a10      47ee0008       lea.l 0x8(a6), a3
           0x00452a14      243c000002d0   move.l 0x2d0, d2
           0x00452a1a      263cffff8000   move.l 0xffff8000, d3
           0x00452a20      383c0240       move.w 0x240, d4
           0x00452a24      2a3c0000ffff   move.l 0xffff, d5
           0x00452a2a      7c12           moveq 0x12, d6
           0x00452a2c      102e001c       move.b 0x1c(a6), d0
           0x00452a30      4880           ext.w d0
           0x00452a32      3200           move.w d0, d1
           0x00452a34      b246           cmp.w d6, d1
       < 0x00452a36      6302           bls.b 0x452a3a
          0x00452a38      4e4e           trap 0xe
       > 0x00452a3a      d241           add.w d1, d1
           0x00452a3c      323b1006       move.w 0x452a44(pc, d1.w), d1
           0x00452a40      4efb1002       jmp 0x452a44(pc, d1.w)
            0x00452a44      05ea057e       bset.b d2, 0x57e(a2)
            0x00452a48      050a0492       movep.w 0x492(a2), d2
            0x00452a4c      043603da0376.  subi.b 0xda, ([0x30e0026, a6])
            0x00452a56      00b4012a01a0.  ori.l 0x12a01a0, 0x16(a4, d0.w)
            0x00452a5e      028a0026       
            0x00452a5f      8a00           or.b d0, d5
            0x00452a61      2600           move.l d0, d3
            0x00452a63      b401           cmp.b d1, d2
            0x00452a65      2a01           move.l d1, d5
            0x00452a67      a002           invalid
            0x00452a69      1620           move.b -(a0), d3
            0x00452a6b      5310           subq.b 0x1, (a0)
            0x00452a6d      bacb           cmpa.w a3, a5
            0x00452a6f      ba11           cmp.b (a1), d5
            0x00452a71      7acb           moveq 0xcb, d5
            0x00452a73      b700           eor.b d3, d0
            0x00452a75      0111           btst.l d0, (a1)
            0x00452a77      7acb           moveq 0xcb, d5
            0x00452a79      b200           cmp.b d0, d1
            0x00452a7b      02117acb       andi.b 0xcb, (a1)
            0x00452a7f      ad00           invalid
            0x00452a81      0320           btst.l d1, -(a0)
        < 0x00452a83      6e001810       bgt.w 0x454295
           0x00452a87      bacb           cmpa.w a3, a5
           0x00452a89      a411           invalid
           0x00452a8b      7acb           moveq 0xcb, d5
           0x00452a8d      a100           invalid
           0x00452a8f      0111           btst.l d0, (a1)
           0x00452a91      7acb           moveq 0xcb, d5
           0x00452a93      9c00           sub.b d0, d6
           0x00452a95      02117acb       andi.b 0xcb, (a1)
           0x00452a99      9700           subx.b d0, d3
           0x00452a9b      0320           btst.l d1, -(a0)
       < 0x00452a9d      6e001410       bgt.w 0x453eaf              ; C2_CURSOR_DIAG.goffset_command+0x53
          0x00452aa1      bacb           cmpa.w a3, a5
          0x00452aa3      8e11           or.b (a1), d7
          0x00452aa5      7acb           moveq 0xcb, d5
          0x00452aa7      8b00           sbcd.b d0, d5
          0x00452aa9      0111           btst.l d0, (a1)
          0x00452aab      7acb           moveq 0xcb, d5
          0x00452aad      8600           or.b d0, d3
          0x00452aaf      02117acb       andi.b 0xcb, (a1)
          0x00452ab3      8100           sbcd.b d0, d0
          0x00452ab5      030c0000       movep.w 0x0(a4), d1
          0x00452ab9      0e660628       
      < 0x00452aba      6606           bne.b 0x452ac2
         0x00452abc      284e           movea.l a6, a4
         0x00452abe      4ebafeca       jsr C0_CURSOR_DRIVER.presenter_adjus(pc)
      > 0x00452ac2      206e0010       movea.l 0x10(a6), a0
          0x00452ac6      10bacb6c       move.b 0x44f634(pc), (a0)
          0x00452aca      117acb690001   move.b 0x44f635(pc), 0x1(a0)
          0x00452ad0      117acb640002   move.b 0x44f636(pc), 0x2(a0)
          0x00452ad6      117acb5f0003   move.b 0x44f637(pc), 0x3(a0)
   > 0x00452adc      226e000c       movea.l 0xc(a6), a1
      0x00452ae0      1290           move.b (a0), (a1)
      0x00452ae2      136800010001   move.b 0x1(a0), 0x1(a1)
      0x00452ae8      136800020002   move.b 0x2(a0), 0x2(a1)
      0x00452aee      136800030003   move.b 0x3(a0), 0x3(a1)
  < 0x00452af4      600005a4       bra.w 0x45309a
     0x00452af8      2053           movea.l (a3), a0
     0x00452afa      10bacb3c       move.b 0x44f638(pc), (a0)
     0x00452afe      117acb390001   move.b 0x44f639(pc), 0x1(a0)
     0x00452b04      117acb340002   move.b 0x44f63a(pc), 0x2(a0)
     0x00452b0a      117acb2f0003   move.b 0x44f63b(pc), 0x3(a0)
     0x00452b10      206e0018       movea.l 0x18(a6), a0
     0x00452b14      10bacb26       move.b 0x44f63c(pc), (a0)
     0x00452b18      117acb230001   move.b 0x44f63d(pc), 0x1(a0)
     0x00452b1e      117acb1e0002   move.b 0x44f63e(pc), 0x2(a0)
     0x00452b24      117acb190003   move.b 0x44f63f(pc), 0x3(a0)
     0x00452b2a      206e0014       movea.l 0x14(a6), a0
     0x00452b2e      10bacb10       move.b 0x44f640(pc), (a0)
     0x00452b32      117acb0d0001   move.b 0x44f641(pc), 0x1(a0)
     0x00452b38      117acb080002   move.b 0x44f642(pc), 0x2(a0)
     0x00452b3e      117acb030003   move.b 0x44f643(pc), 0x3(a0)
     0x00452b44      0c00000f       cmpi.b 0xf, d0
  < 0x00452b48      6606           bne.b 0x452b50
     0x00452b4a      284e           movea.l a6, a4
     0x00452b4c      4ebafe3c       jsr C0_CURSOR_DRIVER.presenter_adjus(pc)
  > 0x00452b50      206e0010       movea.l 0x10(a6), a0
     0x00452b54      10bacaee       move.b 0x44f644(pc), (a0)
     0x00452b58      117acaeb0001   move.b 0x44f645(pc), 0x1(a0)
     0x00452b5e      117acae60002   move.b 0x44f646(pc), 0x2(a0)
     0x00452b64      117acae10003   move.b 0x44f647(pc), 0x3(a0)
  < 0x00452b6a      6000ff70       bra.w 0x452adc
      0x00452b6e      2053           movea.l (a3), a0
      0x00452b70      10bacad6       move.b 0x44f648(pc), (a0)
      0x00452b74      117acad30001   move.b 0x44f649(pc), 0x1(a0)
      0x00452b7a      117acace0002   move.b 0x44f64a(pc), 0x2(a0)
      0x00452b80      117acac90003   move.b 0x44f64b(pc), 0x3(a0)
      0x00452b86      206e0018       movea.l 0x18(a6), a0
      0x00452b8a      10bacac0       move.b 0x44f64c(pc), (a0)
      0x00452b8e      117acabd0001   move.b 0x44f64d(pc), 0x1(a0)
      0x00452b94      117acab80002   move.b 0x44f64e(pc), 0x2(a0)
      0x00452b9a      117acab30003   move.b 0x44f64f(pc), 0x3(a0)
      0x00452ba0      206e0014       movea.l 0x14(a6), a0
      0x00452ba4      10bacaaa       move.b 0x44f650(pc), (a0)
      0x00452ba8      117acaa70001   move.b 0x44f651(pc), 0x1(a0)
      0x00452bae      117acaa20002   move.b 0x44f652(pc), 0x2(a0)
      0x00452bb4      117aca9d0003   move.b 0x44f653(pc), 0x3(a0)
      0x00452bba      0c000010       cmpi.b 0x10, d0
  < 0x00452bbe      6606           bne.b 0x452bc6
     0x00452bc0      284e           movea.l a6, a4
     0x00452bc2      4ebafdc6       jsr C0_CURSOR_DRIVER.presenter_adjus(pc)
  > 0x00452bc6      206e0010       movea.l 0x10(a6), a0
      0x00452bca      10baca88       move.b 0x44f654(pc), (a0)
      0x00452bce      117aca850001   move.b 0x44f655(pc), 0x1(a0)
      0x00452bd4      117aca800002   move.b 0x44f656(pc), 0x2(a0)
      0x00452bda      117aca7b0003   move.b 0x44f657(pc), 0x3(a0)
   < 0x00452be0      6000fefa       bra.w 0x452adc
       0x00452be4      2053           movea.l (a3), a0
       0x00452be6      10baca70       move.b 0x44f658(pc), (a0)
       0x00452bea      117aca6d0001   move.b 0x44f659(pc), 0x1(a0)
       0x00452bf0      117aca680002   move.b 0x44f65a(pc), 0x2(a0)
       0x00452bf6      117aca630003   move.b 0x44f65b(pc), 0x3(a0)
       0x00452bfc      206e0018       movea.l 0x18(a6), a0
       0x00452c00      10baca5a       move.b 0x44f65c(pc), (a0)
       0x00452c04      117aca570001   move.b 0x44f65d(pc), 0x1(a0)
       0x00452c0a      117aca520002   move.b 0x44f65e(pc), 0x2(a0)
       0x00452c10      117aca4d0003   move.b 0x44f65f(pc), 0x3(a0)
       0x00452c16      206e0014       movea.l 0x14(a6), a0
       0x00452c1a      10baca44       move.b 0x44f660(pc), (a0)
       0x00452c1e      117aca410001   move.b 0x44f661(pc), 0x1(a0)
       0x00452c24      117aca3c0002   move.b 0x44f662(pc), 0x2(a0)
       0x00452c2a      117aca370003   move.b 0x44f663(pc), 0x3(a0)
       0x00452c30      0c000011       cmpi.b 0x11, d0
   < 0x00452c34      6606           bne.b 0x452c3c
      0x00452c36      284e           movea.l a6, a4
      0x00452c38      4ebafd50       jsr C0_CURSOR_DRIVER.presenter_adjus(pc)
   > 0x00452c3c      206e0010       movea.l 0x10(a6), a0
       0x00452c40      10baca22       move.b 0x44f664(pc), (a0)
       0x00452c44      117aca1f0001   move.b 0x44f665(pc), 0x1(a0)
       0x00452c4a      117aca1a0002   move.b 0x44f666(pc), 0x2(a0)
       0x00452c50      117aca150003   move.b 0x44f667(pc), 0x3(a0)
    < 0x00452c56      6000fe84       bra.w 0x452adc
        0x00452c5a      2053           movea.l (a3), a0
        0x00452c5c      10baca0a       move.b 0x44f668(pc), (a0)
        0x00452c60      117aca070001   move.b 0x44f669(pc), 0x1(a0)
        0x00452c66      117aca020002   move.b 0x44f66a(pc), 0x2(a0)
        0x00452c6c      117ac9fd0003   move.b 0x44f66b(pc), 0x3(a0)
        0x00452c72      206e0018       movea.l 0x18(a6), a0
        0x00452c76      10bac9f4       move.b 0x44f66c(pc), (a0)
        0x00452c7a      117ac9f10001   move.b 0x44f66d(pc), 0x1(a0)
        0x00452c80      117ac9ec0002   move.b 0x44f66e(pc), 0x2(a0)
        0x00452c86      117ac9e70003   move.b 0x44f66f(pc), 0x3(a0)
        0x00452c8c      206e0014       movea.l 0x14(a6), a0
        0x00452c90      10bac9de       move.b 0x44f670(pc), (a0)
        0x00452c94      117ac9db0001   move.b 0x44f671(pc), 0x1(a0)
        0x00452c9a      117ac9d60002   move.b 0x44f672(pc), 0x2(a0)
        0x00452ca0      117ac9d10003   move.b 0x44f673(pc), 0x3(a0)
        0x00452ca6      b006           cmp.b d6, d0
    < 0x00452ca8      6606           bne.b 0x452cb0
       0x00452caa      284e           movea.l a6, a4
       0x00452cac      4ebafcdc       jsr C0_CURSOR_DRIVER.presenter_adjus(pc)
    > 0x00452cb0      206e0010       movea.l 0x10(a6), a0
        0x00452cb4      10bac9be       move.b 0x44f674(pc), (a0)
        0x00452cb8      117ac9bb0001   move.b 0x44f675(pc), 0x1(a0)
        0x00452cbe      117ac9b60002   move.b 0x44f676(pc), 0x2(a0)
        0x00452cc4      117ac9b10003   move.b 0x44f677(pc), 0x3(a0)
     < 0x00452cca      6000fe10       bra.w 0x452adc
         0x00452cce      2053           movea.l (a3), a0
         0x00452cd0      10bac9a6       move.b 0x44f678(pc), (a0)
         0x00452cd4      117ac9a30001   move.b 0x44f679(pc), 0x1(a0)
         0x00452cda      117ac99e0002   move.b 0x44f67a(pc), 0x2(a0)
         0x00452ce0      117ac9990003   move.b 0x44f67b(pc), 0x3(a0)
         0x00452ce6      206e0018       movea.l 0x18(a6), a0
         0x00452cea      10bac990       move.b 0x44f67c(pc), (a0)
         0x00452cee      117ac98d0001   move.b 0x44f67d(pc), 0x1(a0)
         0x00452cf4      117ac9880002   move.b 0x44f67e(pc), 0x2(a0)
         0x00452cfa      117ac9830003   move.b 0x44f67f(pc), 0x3(a0)
         0x00452d00      206e0014       movea.l 0x14(a6), a0
         0x00452d04      10bac97a       move.b 0x44f680(pc), (a0)
         0x00452d08      117ac9770001   move.b 0x44f681(pc), 0x1(a0)
         0x00452d0e      117ac9720002   move.b 0x44f682(pc), 0x2(a0)
         0x00452d14      117ac96d0003   move.b 0x44f683(pc), 0x3(a0)
         0x00452d1a      206e0010       movea.l 0x10(a6), a0
         0x00452d1e      10bac964       move.b 0x44f684(pc), (a0)
         0x00452d22      117ac9610001   move.b 0x44f685(pc), 0x1(a0)
         0x00452d28      117ac95c0002   move.b 0x44f686(pc), 0x2(a0)
         0x00452d2e      117ac9570003   move.b 0x44f687(pc), 0x3(a0)
         0x00452d34      206e000c       movea.l 0xc(a6), a0
         0x00452d38      10bac94e       move.b 0x44f688(pc), (a0)
         0x00452d3c      117ac94b0001   move.b 0x44f689(pc), 0x1(a0)
         0x00452d42      117ac9460002   move.b 0x44f68a(pc), 0x2(a0)
         0x00452d48      117ac9410003   move.b 0x44f68b(pc), 0x3(a0)
     < 0x00452d4e      6000034a       bra.w 0x45309a
        0x00452d52      206e0010       movea.l 0x10(a6), a0
        0x00452d56      3082           move.w d2, (a0)
        0x00452d58      226e000c       movea.l 0xc(a6), a1
        0x00452d5c      3282           move.w d2, (a1)
        0x00452d5e      2453           movea.l (a3), a2
        0x00452d60      14bac92a       move.b 0x44f68c(pc), (a2)
        0x00452d64      157ac9270001   move.b 0x44f68d(pc), 0x1(a2)
        0x00452d6a      157ac9220002   move.b 0x44f68e(pc), 0x2(a2)
        0x00452d70      157ac91d0003   move.b 0x44f68f(pc), 0x3(a2)
        0x00452d76      246e0018       movea.l 0x18(a6), a2
        0x00452d7a      14bac914       move.b 0x44f690(pc), (a2)
        0x00452d7e      157ac9110001   move.b 0x44f691(pc), 0x1(a2)
        0x00452d84      157ac90c0002   move.b 0x44f692(pc), 0x2(a2)
        0x00452d8a      157ac9070003   move.b 0x44f693(pc), 0x3(a2)
        0x00452d90      246e0014       movea.l 0x14(a6), a2
        0x00452d94      14bac8fe       move.b 0x44f694(pc), (a2)
        0x00452d98      157ac8fb0001   move.b 0x44f695(pc), 0x1(a2)
        0x00452d9e      157ac8f60002   move.b 0x44f696(pc), 0x2(a2)
        0x00452da4      157ac8f10003   move.b 0x44f697(pc), 0x3(a2)
    > 0x00452daa      317c01e60002   move.w 0x1e6, 0x2(a0)
       0x00452db0      337c01e60002   move.w 0x1e6, 0x2(a1)
   < 0x00452db6      600002e2       bra.w 0x45309a
      0x00452dba      206e0010       movea.l 0x10(a6), a0
      0x00452dbe      3082           move.w d2, (a0)
      0x00452dc0      226e000c       movea.l 0xc(a6), a1
      0x00452dc4      3282           move.w d2, (a1)
      0x00452dc6      2453           movea.l (a3), a2
      0x00452dc8      14bac8ce       move.b 0x44f698(pc), (a2)
      0x00452dcc      157ac8cb0001   move.b 0x44f699(pc), 0x1(a2)
      0x00452dd2      157ac8c60002   move.b 0x44f69a(pc), 0x2(a2)
      0x00452dd8      157ac8c10003   move.b 0x44f69b(pc), 0x3(a2)
      0x00452dde      246e0018       movea.l 0x18(a6), a2
      0x00452de2      14bac8b8       move.b 0x44f69c(pc), (a2)
      0x00452de6      157ac8b50001   move.b 0x44f69d(pc), 0x1(a2)
      0x00452dec      157ac8b00002   move.b 0x44f69e(pc), 0x2(a2)
      0x00452df2      157ac8ab0003   move.b 0x44f69f(pc), 0x3(a2)
      0x00452df8      246e0014       movea.l 0x14(a6), a2
      0x00452dfc      14bac8a2       move.b 0x44f6a0(pc), (a2)
      0x00452e00      157ac89f0001   move.b 0x44f6a1(pc), 0x1(a2)
      0x00452e06      157ac89a0002   move.b 0x44f6a2(pc), 0x2(a2)
      0x00452e0c      157ac8950003   move.b 0x44f6a3(pc), 0x3(a2)
  > 0x00452e12      31440002       move.w d4, 0x2(a0)
     0x00452e16      33440002       move.w d4, 0x2(a1)
  < 0x00452e1a      6000027e       bra.w 0x45309a
     0x00452e1e      206e0010       movea.l 0x10(a6), a0
     0x00452e22      3082           move.w d2, (a0)
     0x00452e24      226e000c       movea.l 0xc(a6), a1
     0x00452e28      3282           move.w d2, (a1)
     0x00452e2a      2453           movea.l (a3), a2
     0x00452e2c      14bac876       move.b 0x44f6a4(pc), (a2)
     0x00452e30      157ac8730001   move.b 0x44f6a5(pc), 0x1(a2)
     0x00452e36      157ac86e0002   move.b 0x44f6a6(pc), 0x2(a2)
     0x00452e3c      157ac8690003   move.b 0x44f6a7(pc), 0x3(a2)
     0x00452e42      246e0018       movea.l 0x18(a6), a2
     0x00452e46      14bac860       move.b 0x44f6a8(pc), (a2)
     0x00452e4a      157ac85d0001   move.b 0x44f6a9(pc), 0x1(a2)
     0x00452e50      157ac8580002   move.b 0x44f6aa(pc), 0x2(a2)
     0x00452e56      157ac8530003   move.b 0x44f6ab(pc), 0x3(a2)
     0x00452e5c      246e0014       movea.l 0x14(a6), a2
     0x00452e60      14bac84a       move.b 0x44f6ac(pc), (a2)
     0x00452e64      157ac8470001   move.b 0x44f6ad(pc), 0x1(a2)
     0x00452e6a      157ac8420002   move.b 0x44f6ae(pc), 0x2(a2)
     0x00452e70      157ac83d0003   move.b 0x44f6af(pc), 0x3(a2)
  < 0x00452e76      6000ff32       bra.w 0x452daa
      0x00452e7a      206e0010       movea.l 0x10(a6), a0
      0x00452e7e      3082           move.w d2, (a0)
      0x00452e80      226e000c       movea.l 0xc(a6), a1
      0x00452e84      3282           move.w d2, (a1)
      0x00452e86      2453           movea.l (a3), a2
      0x00452e88      14bac826       move.b 0x44f6b0(pc), (a2)
      0x00452e8c      157ac8230001   move.b 0x44f6b1(pc), 0x1(a2)
      0x00452e92      157ac81e0002   move.b 0x44f6b2(pc), 0x2(a2)
      0x00452e98      157ac8190003   move.b 0x44f6b3(pc), 0x3(a2)
      0x00452e9e      246e0018       movea.l 0x18(a6), a2
      0x00452ea2      14bac810       move.b 0x44f6b4(pc), (a2)
      0x00452ea6      157ac80d0001   move.b 0x44f6b5(pc), 0x1(a2)
      0x00452eac      157ac8080002   move.b 0x44f6b6(pc), 0x2(a2)
      0x00452eb2      157ac8030003   move.b 0x44f6b7(pc), 0x3(a2)
      0x00452eb8      246e0014       movea.l 0x14(a6), a2
      0x00452ebc      14bac7fa       move.b 0x44f6b8(pc), (a2)
      0x00452ec0      157ac7f70001   move.b 0x44f6b9(pc), 0x1(a2)
      0x00452ec6      157ac7f20002   move.b 0x44f6ba(pc), 0x2(a2)
      0x00452ecc      157ac7ed0003   move.b 0x44f6bb(pc), 0x3(a2)
  < 0x00452ed2      6000ff3e       bra.w 0x452e12
       0x00452ed6      2053           movea.l (a3), a0
       0x00452ed8      10bac7e2       move.b 0x44f6bc(pc), (a0)
       0x00452edc      117ac7df0001   move.b 0x44f6bd(pc), 0x1(a0)
       0x00452ee2      117ac7da0002   move.b 0x44f6be(pc), 0x2(a0)
       0x00452ee8      117ac7d50003   move.b 0x44f6bf(pc), 0x3(a0)
       0x00452eee      226e0010       movea.l 0x10(a6), a1
       0x00452ef2      3010           move.w (a0), d0
       0x00452ef4      48c0           ext.l d0
       0x00452ef6      d082           add.l d2, d0
       0x00452ef8      9083           sub.l d3, d0
       0x00452efa      b085           cmp.l d5, d0
   < 0x00452efc      6302           bls.b 0x452f00
      0x00452efe      4e4f           trap 0xf
   > 0x00452f00      d083           add.l d3, d0
       0x00452f02      3280           move.w d0, (a1)
       0x00452f04      206e000c       movea.l 0xc(a6), a0
       0x00452f08      3082           move.w d2, (a0)
       0x00452f0a      246e0018       movea.l 0x18(a6), a2
       0x00452f0e      14bac7b0       move.b 0x44f6c0(pc), (a2)
       0x00452f12      157ac7ad0001   move.b 0x44f6c1(pc), 0x1(a2)
       0x00452f18      157ac7a80002   move.b 0x44f6c2(pc), 0x2(a2)
       0x00452f1e      157ac7a30003   move.b 0x44f6c3(pc), 0x3(a2)
       0x00452f24      246e0014       movea.l 0x14(a6), a2
       0x00452f28      14bac79a       move.b 0x44f6c4(pc), (a2)
       0x00452f2c      157ac7970001   move.b 0x44f6c5(pc), 0x1(a2)
       0x00452f32      157ac7920002   move.b 0x44f6c6(pc), 0x2(a2)
       0x00452f38      157ac78d0003   move.b 0x44f6c7(pc), 0x3(a2)
   > 0x00452f3e      337c01e80002   move.w 0x1e8, 0x2(a1)
      0x00452f44      317c01e80002   move.w 0x1e8, 0x2(a0)
  < 0x00452f4a      6000014e       bra.w 0x45309a
     0x00452f4e      2053           movea.l (a3), a0
     0x00452f50      10bac776       move.b 0x44f6c8(pc), (a0)
     0x00452f54      117ac7730001   move.b 0x44f6c9(pc), 0x1(a0)
     0x00452f5a      117ac76e0002   move.b 0x44f6ca(pc), 0x2(a0)
     0x00452f60      117ac7690003   move.b 0x44f6cb(pc), 0x3(a0)
     0x00452f66      226e0010       movea.l 0x10(a6), a1
     0x00452f6a      3010           move.w (a0), d0
     0x00452f6c      48c0           ext.l d0
     0x00452f6e      d082           add.l d2, d0
     0x00452f70      9083           sub.l d3, d0
     0x00452f72      b085           cmp.l d5, d0
  < 0x00452f74      6302           bls.b 0x452f78
     0x00452f76      4e4f           trap 0xf
  > 0x00452f78      d083           add.l d3, d0
     0x00452f7a      3280           move.w d0, (a1)
     0x00452f7c      206e000c       movea.l 0xc(a6), a0
     0x00452f80      3082           move.w d2, (a0)
     0x00452f82      246e0018       movea.l 0x18(a6), a2
     0x00452f86      14bac744       move.b 0x44f6cc(pc), (a2)
     0x00452f8a      157ac7410001   move.b 0x44f6cd(pc), 0x1(a2)
     0x00452f90      157ac73c0002   move.b 0x44f6ce(pc), 0x2(a2)
     0x00452f96      157ac7370003   move.b 0x44f6cf(pc), 0x3(a2)
     0x00452f9c      246e0014       movea.l 0x14(a6), a2
     0x00452fa0      14bac72e       move.b 0x44f6d0(pc), (a2)
     0x00452fa4      157ac72b0001   move.b 0x44f6d1(pc), 0x1(a2)
     0x00452faa      157ac7260002   move.b 0x44f6d2(pc), 0x2(a2)
     0x00452fb0      157ac7210003   move.b 0x44f6d3(pc), 0x3(a2)
  > 0x00452fb6      33440002       move.w d4, 0x2(a1)
     0x00452fba      31440002       move.w d4, 0x2(a0)
  < 0x00452fbe      600000da       bra.w 0x45309a
     0x00452fc2      2053           movea.l (a3), a0
     0x00452fc4      10bac70e       move.b 0x44f6d4(pc), (a0)
     0x00452fc8      117ac70b0001   move.b 0x44f6d5(pc), 0x1(a0)
     0x00452fce      117ac7060002   move.b 0x44f6d6(pc), 0x2(a0)
     0x00452fd4      117ac7010003   move.b 0x44f6d7(pc), 0x3(a0)
     0x00452fda      226e0010       movea.l 0x10(a6), a1
     0x00452fde      3010           move.w (a0), d0
     0x00452fe0      48c0           ext.l d0
     0x00452fe2      d082           add.l d2, d0
     0x00452fe4      9083           sub.l d3, d0
     0x00452fe6      b085           cmp.l d5, d0
  < 0x00452fe8      6302           bls.b 0x452fec
     0x00452fea      4e4f           trap 0xf
  > 0x00452fec      d083           add.l d3, d0
     0x00452fee      3280           move.w d0, (a1)
     0x00452ff0      206e000c       movea.l 0xc(a6), a0
     0x00452ff4      3082           move.w d2, (a0)
     0x00452ff6      246e0018       movea.l 0x18(a6), a2
     0x00452ffa      14bac6dc       move.b 0x44f6d8(pc), (a2)
     0x00452ffe      157ac6d90001   move.b 0x44f6d9(pc), 0x1(a2)
     0x00453004      157ac6d40002   move.b 0x44f6da(pc), 0x2(a2)
     0x0045300a      157ac6cf0003   move.b 0x44f6db(pc), 0x3(a2)
     0x00453010      246e0014       movea.l 0x14(a6), a2
     0x00453014      14bac6c6       move.b 0x44f6dc(pc), (a2)
     0x00453018      157ac6c30001   move.b 0x44f6dd(pc), 0x1(a2)
     0x0045301e      157ac6be0002   move.b 0x44f6de(pc), 0x2(a2)
     0x00453024      157ac6b90003   move.b 0x44f6df(pc), 0x3(a2)
  < 0x0045302a      6000ff12       bra.w 0x452f3e
      0x0045302e      2053           movea.l (a3), a0
      0x00453030      10bac6ae       move.b 0x44f6e0(pc), (a0)
      0x00453034      117ac6ab0001   move.b 0x44f6e1(pc), 0x1(a0)
      0x0045303a      117ac6a60002   move.b 0x44f6e2(pc), 0x2(a0)
      0x00453040      117ac6a10003   move.b 0x44f6e3(pc), 0x3(a0)
      0x00453046      226e0010       movea.l 0x10(a6), a1
      0x0045304a      3010           move.w (a0), d0
      0x0045304c      48c0           ext.l d0
      0x0045304e      d082           add.l d2, d0
      0x00453050      9083           sub.l d3, d0
      0x00453052      b085           cmp.l d5, d0
  < 0x00453054      6302           bls.b 0x453058
     0x00453056      4e4f           trap 0xf
  > 0x00453058      d083           add.l d3, d0
      0x0045305a      3280           move.w d0, (a1)
      0x0045305c      206e000c       movea.l 0xc(a6), a0
      0x00453060      3082           move.w d2, (a0)
      0x00453062      246e0018       movea.l 0x18(a6), a2
      0x00453066      14bac67c       move.b 0x44f6e4(pc), (a2)
      0x0045306a      157ac6790001   move.b 0x44f6e5(pc), 0x1(a2)
      0x00453070      157ac6740002   move.b 0x44f6e6(pc), 0x2(a2)
      0x00453076      157ac66f0003   move.b 0x44f6e7(pc), 0x3(a2)
      0x0045307c      246e0014       movea.l 0x14(a6), a2
      0x00453080      14bac666       move.b 0x44f6e8(pc), (a2)
      0x00453084      157ac6630001   move.b 0x44f6e9(pc), 0x1(a2)
      0x0045308a      157ac65e0002   move.b 0x44f6ea(pc), 0x2(a2)
      0x00453090      157ac6590003   move.b 0x44f6eb(pc), 0x3(a2)
  < 0x00453096      6000ff1e       bra.w 0x452fb6
  > 0x0045309a      4cdf1f7f       movem.l (a7)+, d0-d6/a0-a4
          0x0045309e      4e5e           unlk a6
          0x004530a0      4e75           rts
          ; CALL XREF from fcn.00453430 @ 0x4534f8
 478: C0_CURSOR_DRIVER.c0_init ();
         0x004530a2      4e56ffae       link.w a6, 0xffae
         0x004530a6      bfd5           cmpa.l (a5), a7
     < 0x004530a8      6206           bhi.b 0x4530b0
        0x004530aa      44fc0002       move.w 0x2, ccr
        0x004530ae      4e76           trapv
     > 0x004530b0      defc004e       adda.w 0x4e, a7
         0x004530b4      48e7fff8       movem.l d0-d7/a0-a4, -(a7)
         0x004530b8      45f9007ecfc0   lea.l 0x7ecfc0, a2
         0x004530be      47f9007ecfd0   lea.l 0x7ecfd0, a3
         0x004530c4      49f9007ecfd8   lea.l 0x7ecfd8, a4
         0x004530ca      7401           moveq 0x1, d2
         0x004530cc      2a3cffff8000   move.l 0xffff8000, d5
         0x004530d2      2c3c0000ffff   move.l 0xffff, d6
         0x004530d8      1f2e001c       move.b 0x1c(a6), -(a7)
         0x004530dc      4879007ecfc8   pea.l 0x7ecfc8
         0x004530e2      4879007ecfcc   pea.l 0x7ecfcc
         0x004530e8      4852           pea.l (a2)
         0x004530ea      4853           pea.l (a3)
         0x004530ec      4854           pea.l (a4)
         0x004530ee      4ebaf90a       jsr C0_CURSOR_DRIVER.get_defaults(pc)
         0x004530f2      defc0016       adda.w 0x16, a7
         0x004530f6      13ee001a007e.  move.b 0x1a(a6), 0x7ecfb4.l
         0x004530fe      13ee0018007e.  move.b 0x18(a6), 0x7ecfb5.l
         0x00453106      13ee0016007e.  move.b 0x16(a6), 0x7ecfb3.l
         0x0045310e      3012           move.w (a2), d0
         0x00453110      48c0           ext.l d0
         0x00453112      3214           move.w (a4), d1
         0x00453114      48c1           ext.l d1
         0x00453116      d280           add.l d0, d1
         0x00453118      9285           sub.l d5, d1
         0x0045311a      b286           cmp.l d6, d1
     < 0x0045311c      6302           bls.b 0x453120
        0x0045311e      4e4f           trap 0xf
     > 0x00453120      d285           add.l d5, d1
         0x00453122      3481           move.w d1, (a2)
         0x00453124      3039007ecfc2   move.w 0x7ecfc2, d0
         0x0045312a      48c0           ext.l d0
         0x0045312c      3239007ecfda   move.w 0x7ecfda, d1
         0x00453132      48c1           ext.l d1
         0x00453134      d280           add.l d0, d1
         0x00453136      9285           sub.l d5, d1
         0x00453138      b286           cmp.l d6, d1
     < 0x0045313a      6302           bls.b 0x45313e
        0x0045313c      4e4f           trap 0xf
     > 0x0045313e      d285           add.l d5, d1
         0x00453140      33c1007ecfc2   move.w d1, 0x7ecfc2
         0x00453146      4279007ecfb8   clr.w 0x7ecfb8
         0x0045314c      4279007ecfba   clr.w 0x7ecfba
         0x00453152      33d3007ecfbc   move.w (a3), 0x7ecfbc
         0x00453158      33f9007ecfd2.  move.w 0x7ecfd2, 0x7ecfbe.l
         0x00453162      13c2007ecfb7   move.b d2, 0x7ecfb7
         0x00453168      33c2007ef028   move.w d2, 0x7ef028
         0x0045316e      4239007ecfb2   clr.b 0x7ecfb2
         0x00453174      4239007ef03a   clr.b 0x7ef03a
         0x0045317a      7e01           moveq 0x1, d7
     > 0x0045317c      2007           move.l d7, d0
        0x0045317e      5380           subq.l 0x1, d0
        0x00453180      0c8000000003   cmpi.l 0x3, d0
    < 0x00453186      6302           bls.b 0x45318a
       0x00453188      4e4f           trap 0xf
    > 0x0045318a      2800           move.l d0, d4
        0x0045318c      263c0000080a   move.l 0x80a, d3
        0x00453192      4eb900406a74   jsr fcn.00406a74
        0x00453198      41f9007ecfb2   lea.l 0x7ecfb2, a0
        0x0045319e      43f0482a       lea.l 0x2a(a0, d4.l), a1
        0x004531a2      42290804       clr.b 0x804(a1)
        0x004531a6      42290805       clr.b 0x805(a1)
        0x004531aa      5287           addq.l 0x1, d7
        0x004531ac      0c8700000004   cmpi.l 0x4, d7
     < 0x004531b2      6fc8           ble.b 0x45317c
         0x004531b4      4239007ef004   clr.b 0x7ef004
         0x004531ba      4239007ef005   clr.b 0x7ef005
         0x004531c0      13c2007ef006   move.b d2, 0x7ef006
         0x004531c6      4279007ef008   clr.w 0x7ef008
         0x004531cc      4279007ef00a   clr.w 0x7ef00a
         0x004531d2      4279007ef00c   clr.w 0x7ef00c
         0x004531d8      4279007ef00e   clr.w 0x7ef00e
         0x004531de      33fcf280007e.  move.w 0xf280, 0x7ef01c.l
         0x004531e6      4a39007ecfb3   tst.b 0x7ecfb3
     < 0x004531ec      6716           beq.b 0x453204
        0x004531ee      1f3c0003       move.b 0x3, -(a7)
        0x004531f2      202e0012       move.l 0x12(a6), d0
        0x004531f6      b086           cmp.l d6, d0
    < 0x004531f8      6302           bls.b 0x4531fc
       0x004531fa      4e4f           trap 0xf
    > 0x004531fc      3f00           move.w d0, -(a7)
        0x004531fe      4ebac6ba       jsr C0_CURSOR_DRIVER.hdp_ctrl_set(pc)
        0x00453202      584f           addq.w 0x4, a7
     > 0x00453204      33fc000f007e.  move.w 0xf, 0x7ef01e.l
         0x0045320c      4279007ecfd4   clr.w 0x7ecfd4
         0x00453212      4279007ecfd6   clr.w 0x7ecfd6
         0x00453218      4879007ecfdc   pea.l 0x7ecfdc
         0x0045321e      4879007ef004   pea.l 0x7ef004
         0x00453224      3f2e0010       move.w 0x10(a6), -(a7)
         0x00453228      3f2e000e       move.w 0xe(a6), -(a7)
         0x0045322c      3f2e000c       move.w 0xc(a6), -(a7)
         0x00453230      3f2e000a       move.w 0xa(a6), -(a7)
         0x00453234      3f2e0008       move.w 0x8(a6), -(a7)
         0x00453238      4eb90045352c   jsr c1_init
         0x0045323e      defc0012       adda.w 0x12, a7
         0x00453242      4ebaf13a       jsr C0_CURSOR_DRIVER.c0_clear(pc)
         0x00453246      3f3c00d2       move.w 0xd2, -(a7)
         0x0045324a      3f3c0010       move.w 0x10, -(a7)
         0x0045324e      3f3c0092       move.w 0x92, -(a7)
         0x00453252      4ebaf506       jsr C0_CURSOR_DRIVER.c_cur_colour(pc)
         0x00453256      584f           addq.w 0x4, a7
         0x00453258      3ebc009e       move.w 0x9e, (a7)
         0x0045325c      3f3c00ad       move.w 0xad, -(a7)
         0x00453260      3f3c0070       move.w 0x70, -(a7)
         0x00453264      4ebaf5da       jsr C0_CURSOR_DRIVER.c_gr_colour(pc)
         0x00453268      584f           addq.w 0x4, a7
         0x0045326a      1e82           move.b d2, (a7)
         0x0045326c      4ebacbc0       jsr C0_CURSOR_DRIVER.c_cur_enable(pc)
         0x00453270      4217           clr.b (a7)
         0x00453272      4ebacbf0       jsr C0_CURSOR_DRIVER.c_grid_enable(pc)
         0x00453276      544f           addq.w 0x2, a7
         0x00453278      4cdf1fff       movem.l (a7)+, d0-d7/a0-a4
         0x0045327c      4e5e           unlk a6
         0x0045327e      4e75           rts
          ; CALL XREF from MAVIS_COMMANDS @ +0x14b6
          ; CALL XREF from MAVIS_TEST.main_code @ 0x6d9af8
 172: C0_CURSOR_DRIVER.c_init ();
         0x00453280      4e56ff94       link.w a6, 0xff94
         0x00453284      bfd5           cmpa.l (a5), a7
     < 0x00453286      6206           bhi.b 0x45328e
        0x00453288      44fc0002       move.w 0x2, ccr
        0x0045328c      4e76           trapv
     > 0x0045328e      defc0058       adda.w 0x58, a7
         0x00453292      48e7fff8       movem.l d0-d7/a0-a4, -(a7)
         0x00453296      43f900478be0   lea.l CONFIGCOM.cfg_vo_type, a1
         0x0045329c      45eeffec       lea.l -0x14(a6), a2
         0x004532a0      47f900478a3a   lea.l CONFIGCOM.tvsys, a3
         0x004532a6      49eefff4       lea.l -0xc(a6), a4
         0x004532aa      7a00           moveq 0x0, d5
         0x004532ac      554f           subq.w 0x2, a7
         0x004532ae      4eb9004755c2   jsr CONFIG.cfg_gender
         0x004532b4      101f           move.b (a7)+, d0
         0x004532b6      0c00000e       cmpi.b 0xe, d0
     < 0x004532ba      6602           bne.b 0x4532be
        0x004532bc      5205           addq.b 0x1, d5
     > 0x004532be      4239007ef03b   clr.b 0x7ef03b
         0x004532c4      554f           subq.w 0x2, a7
         0x004532c6      4eb9004755c2   jsr CONFIG.cfg_gender
         0x004532cc      101f           move.b (a7)+, d0
         0x004532ce      0c000009       cmpi.b 0x9, d0
     < 0x004532d2      6606           bne.b 0x4532da
        0x004532d4      5239007ef03b   addq.b 0x1, 0x7ef03b.l
     > 0x004532da      554f           subq.w 0x2, a7
         0x004532dc      4852           pea.l (a2)
         0x004532de      4eb900475c00   jsr CONFIG.cfg_size_x4
         0x004532e4      584f           addq.w 0x4, a7
         0x004532e6      101f           move.b (a7)+, d0
         0x004532e8      4880           ext.w d0
         0x004532ea      41bc0001       chk.w 0x1, d0
         0x004532ee      1d40ffef       move.b d0, -0x11(a6)
         0x004532f2      7c00           moveq 0x0, d6
         0x004532f4      554f           subq.w 0x2, a7
         0x004532f6      4e91           jsr (a1)                    ; fcn.0000000a
         0x004532f8      121f           move.b (a7)+, d1
         0x004532fa      0c010006       cmpi.b 0x6, d1
     < 0x004532fe      6602           bne.b 0x453302
        0x00453300      5206           addq.b 0x1, d6
     > 0x00453302      4a00           tst.b d0
     < 0x00453304      670000b8       beq.w 0x4533be
        0x00453308      4a05           tst.b d5
    < 0x0045330a      670a           beq.b 0x453316
       0x0045330c      4a06           tst.b d6
   < 0x0045330e      6706           beq.b 0x453316
      0x00453310      7e0d           moveq 0xd, d7
  < 0x00453312      6000011c       bra.w fcn.00453430
  > 0x00453316      1212           move.b (a2), d1
       0x00453318      4881           ext.w d1
       0x0045331a      0c410004       cmpi.w 0x4, d1
   < 0x0045331e      6302           bls.b 0x453322
      0x00453320      4e4e           trap 0xe
   > 0x00453322      d241           add.w d1, d1
       0x00453324      323b1006       move.w 0x45332c(pc, d1.w), d1
       0x00453328      4efb1002       jmp 0x45332c(pc, d1.w)
        0x0045332c      000a0020       
        0x0045332d      0a002000       eori.b 0x0, d0
        0x00453331      3600           move.w d0, d3
        0x00453333      4c006255       
        0x00453334      0062554f       ori.w 0x554f, -(a2)
        0x00453338      4e91           jsr (a1)                    ; fcn.0000000a
        0x0045333a      121f           move.b (a7)+, d1
        0x0045333c      0c010008       cmpi.b 0x8, d1
    < 0x00453340      6604           bne.b 0x453346
       0x00453342      7e0e           moveq 0xe, d7
   < 0x00453344      6002           bra.b 0x453348
   > 0x00453346      7e08           moveq 0x8, d7
   < 0x00453348      600000e6       bra.w fcn.00453430
       0x0045334c      554f           subq.w 0x2, a7
       0x0045334e      4e91           jsr (a1)                    ; fcn.0000000a
       0x00453350      121f           move.b (a7)+, d1
       0x00453352      0c010008       cmpi.b 0x8, d1
   < 0x00453356      6604           bne.b 0x45335c
      0x00453358      7e0f           moveq 0xf, d7
  < 0x0045335a      6002           bra.b 0x45335e
  > 0x0045335c      7e09           moveq 0x9, d7
  < 0x0045335e      600000d0       bra.w fcn.00453430
      0x00453362      554f           subq.w 0x2, a7
      0x00453364      4e91           jsr (a1)                    ; fcn.0000000a
      0x00453366      121f           move.b (a7)+, d1
      0x00453368      0c010008       cmpi.b 0x8, d1
  < 0x0045336c      6604           bne.b 0x453372
     0x0045336e      7e10           moveq 0x10, d7
  < 0x00453370      6002           bra.b 0x453374
  > 0x00453372      7e0a           moveq 0xa, d7
  < 0x00453374      600000ba       bra.w fcn.00453430
     0x00453378      554f           subq.w 0x2, a7
     0x0045337a      4e91           jsr (a1)                    ; fcn.0000000a
     0x0045337c      121f           move.b (a7)+, d1
     0x0045337e      0c010008       cmpi.b 0x8, d1
  < 0x00453382      6604           bne.b 0x453388
     0x00453384      7e11           moveq 0x11, d7
  < 0x00453386      6002           bra.b 0x45338a
  > 0x00453388      7e0b           moveq 0xb, d7
  < 0x0045338a      600000a4       bra.w fcn.00453430
     0x0045338e      4a06           tst.b d6
  < 0x00453390      6616           bne.b 0x4533a8
     0x00453392      4212           clr.b (a2)
     0x00453394      554f           subq.w 0x2, a7
     0x00453396      4e91           jsr (a1)                    ; fcn.0000000a
     0x00453398      121f           move.b (a7)+, d1
     0x0045339a      0c010008       cmpi.b 0x8, d1
  < 0x0045339e      6604           bne.b 0x4533a4
     0x004533a0      7e0e           moveq 0xe, d7
  < 0x004533a2      6016           bra.b 0x4533ba
  > 0x004533a4      7e08           moveq 0x8, d7
  < 0x004533a6      6012           bra.b 0x4533ba
  > 0x004533a8      554f           subq.w 0x2, a7
     0x004533aa      4e91           jsr (a1)                    ; fcn.0000000a
     0x004533ac      121f           move.b (a7)+, d1
     0x004533ae      0c010008       cmpi.b 0x8, d1
  < 0x004533b2      6604           bne.b 0x4533b8
     0x004533b4      7e12           moveq 0x12, d7
  < 0x004533b6      6002           bra.b 0x4533ba
  > 0x004533b8      7e0c           moveq 0xc, d7
  < 0x004533ba      6074           bra.b fcn.00453430
  < 0x004533bc      6072           bra.b fcn.00453430
  > 0x004533be      554f           subq.w 0x2, a7
      0x004533c0      4eb900478d92   jsr CONFIGCOM.cfg_dgl_output_
      0x004533c6      4a1f           tst.b (a7)+
  < 0x004533c8      6714           beq.b 0x4533de
     0x004533ca      554f           subq.w 0x2, a7
     0x004533cc      4e93           jsr (a3)                    ; fcn.0000000c
     0x004533ce      121f           move.b (a7)+, d1
     0x004533d0      0c010001       cmpi.b 0x1, d1
  < 0x004533d4      6604           bne.b 0x4533da
     0x004533d6      7e07           moveq 0x7, d7
  < 0x004533d8      6056           bra.b fcn.00453430
  > 0x004533da      7e06           moveq 0x6, d7
  < 0x004533dc      6052           bra.b fcn.00453430
  > 0x004533de      554f           subq.w 0x2, a7
      0x004533e0      4eb900478d1a   jsr CONFIGCOM.cfg_vo_serial
      0x004533e6      4a1f           tst.b (a7)+
  < 0x004533e8      6714           beq.b 0x4533fe
     0x004533ea      554f           subq.w 0x2, a7
     0x004533ec      4e93           jsr (a3)                    ; fcn.0000000c
     0x004533ee      121f           move.b (a7)+, d1
     0x004533f0      0c010001       cmpi.b 0x1, d1
  < 0x004533f4      6604           bne.b 0x4533fa
     0x004533f6      7e05           moveq 0x5, d7
  < 0x004533f8      6036           bra.b fcn.00453430
  > 0x004533fa      7e04           moveq 0x4, d7
  < 0x004533fc      6032           bra.b fcn.00453430
  > 0x004533fe      554f           subq.w 0x2, a7
      0x00453400      4eb900478cde   jsr CONFIGCOM.cfg_vo_coded
      0x00453406      4a1f           tst.b (a7)+
  < 0x00453408      6714           beq.b 0x45341e
     0x0045340a      554f           subq.w 0x2, a7
     0x0045340c      4e93           jsr (a3)                    ; fcn.0000000c
     0x0045340e      121f           move.b (a7)+, d1
     0x00453410      0c010001       cmpi.b 0x1, d1
  < 0x00453414      6604           bne.b 0x45341a
     0x00453416      7e03           moveq 0x3, d7
  < 0x00453418      6016           bra.b fcn.00453430
  > 0x0045341a      7e02           moveq 0x2, d7
  < 0x0045341c      6012           bra.b fcn.00453430
  > 0x0045341e      554f           subq.w 0x2, a7
      0x00453420      4e93           jsr (a3)                    ; fcn.0000000c
      0x00453422      121f           move.b (a7)+, d1
      0x00453424      0c010001       cmpi.b 0x1, d1
  < 0x00453428      6604           bne.b 0x45342e
     0x0045342a      7e01           moveq 0x1, d7
  < 0x0045342c      6002           bra.b fcn.00453430
  > 0x0045342e      7e00           moveq 0x0, d7
      ; XREFS: CODE 0x00453312  CODE 0x004533d8  CODE 0x004533dc  
      ; XREFS: CODE 0x004533f8  CODE 0x004533fc  CODE 0x00453418  
      ; XREFS: CODE 0x0045341c  CODE 0x0045342c  
 216: fcn.00453430 ();
 > 0x00453430      4a12           tst.b (a2)
     < 0x00453432      661e           bne.b 0x453452
        0x00453434      554f           subq.w 0x2, a7
        0x00453436      4eb900475be2   jsr CONFIG.cfg_aspect
        0x0045343c      321f           move.w (a7)+, d1
        0x0045343e      0c410001       cmpi.w 0x1, d1
    < 0x00453442      660e           bne.b 0x453452
       0x00453444      4a06           tst.b d6
   < 0x00453446      660a           bne.b 0x453452
      0x00453448      2d7c00000001.  move.l 0x1, -0x4(a6)
  < 0x00453450      6004           bra.b 0x453456
  > 0x00453452      42aefffc       clr.l -0x4(a6)
        ; CODE XREF from fcn.00453430 @ 0x453450
  > 0x00453456      554f           subq.w 0x2, a7
         0x00453458      4852           pea.l (a2)
         0x0045345a      4eb900475c00   jsr CONFIG.cfg_size_x4
         0x00453460      544f           addq.w 0x2, a7
         0x00453462      4eb900478d92   jsr CONFIGCOM.cfg_dgl_output_
         0x00453468      122f0002       move.b 0x2(a7), d1
         0x0045346c      821f           or.b (a7)+, d1
         0x0045346e      544f           addq.w 0x2, a7
         0x00453470      4881           ext.w d1
         0x00453472      48c1           ext.l d1
         0x00453474      0481ffff8000   subi.l 0xffff8000, d1
         0x0045347a      0c810000ffff   cmpi.l 0xffff, d1
     < 0x00453480      6302           bls.b 0x453484
        0x00453482      4e4f           trap 0xf
     > 0x00453484      0681ffff8000   addi.l 0xffff8000, d1
         0x0045348a      3d41fff0       move.w d1, -0x10(a6)
         0x0045348e      554f           subq.w 0x2, a7
         0x00453490      4eb900478d92   jsr CONFIGCOM.cfg_dgl_output_
         0x00453496      141f           move.b (a7)+, d2
         0x00453498      4882           ext.w d2
         0x0045349a      3d42fff2       move.w d2, -0xe(a6)
         0x0045349e      4214           clr.b (a4)
         0x004534a0      554f           subq.w 0x2, a7
         0x004534a2      4e91           jsr (a1)                    ; fcn.0000000a
         0x004534a4      161f           move.b (a7)+, d3
         0x004534a6      4883           ext.w d3
         0x004534a8      41fac242       lea.l 0x44f6ec(pc), a0
         0x004534ac      3803           move.w d3, d4
         0x004534ae      e64c           lsr.w 0x3, d4
         0x004534b0      07304000       btst.l d3, (a0, d4.w)
     < 0x004534b4      6702           beq.b 0x4534b8
        0x004534b6      5214           addq.b 0x1, (a4)
     > 0x004534b8      1614           move.b (a4), d3
         0x004534ba      4883           ext.w d3
         0x004534bc      3883           move.w d3, (a4)
         0x004534be      4886           ext.w d6
         0x004534c0      3d46fff6       move.w d6, -0xa(a6)
         0x004534c4      554f           subq.w 0x2, a7
         0x004534c6      4eb900478d1a   jsr CONFIGCOM.cfg_vo_serial
         0x004534cc      181f           move.b (a7)+, d4
         0x004534ce      4884           ext.w d4
         0x004534d0      3d44fff8       move.w d4, -0x8(a6)
         0x004534d4      4239007ef03c   clr.b 0x7ef03c
         0x004534da      4887           ext.w d7
         0x004534dc      4fbc0012       chk.w 0x12, d7
         0x004534e0      1f07           move.b d7, -(a7)
         0x004534e2      1f05           move.b d5, -(a7)
         0x004534e4      1f06           move.b d6, -(a7)
         0x004534e6      1f00           move.b d0, -(a7)
         0x004534e8      2f2efffc       move.l -0x4(a6), -(a7)
         0x004534ec      3f01           move.w d1, -(a7)
         0x004534ee      3f02           move.w d2, -(a7)
         0x004534f0      3f03           move.w d3, -(a7)
         0x004534f2      3f2efff6       move.w -0xa(a6), -(a7)
         0x004534f6      3f04           move.w d4, -(a7)
         0x004534f8      4ebafba8       jsr C0_CURSOR_DRIVER.c0_init(pc)
         0x004534fc      defc0016       adda.w 0x16, a7
         0x00453500      4cdf1fff       movem.l (a7)+, d0-d7/a0-a4
         0x00453504      4e5e           unlk a6
