            ;-- DATE_UTILS:
            0x006a8874      .byte 0x00
            0x006a8875      .byte 0x00
            0x006a8876      .byte 0x00
            0x006a8877      .byte 0x00
            0x006a8878      .byte 0x00
            0x006a8879      .byte 0x00
            0x006a887a      .byte 0x00
            0x006a887b      .byte 0x00
            0x006a887c      .byte 0x00
            0x006a887d      .byte 0x00
            0x006a887e     .string "janfebmaraprmayjunjulaugsepoctnovdec" ; len=36
            0x006a88a2      .byte 0x00
            0x006a88a3      .byte 0x1f
            0x006a88a4      .byte 0x00
            0x006a88a5      .byte 0x1c
            0x006a88a6      .byte 0x00
            0x006a88a7      .byte 0x1f
            0x006a88a8      .byte 0x00
            0x006a88a9      .byte 0x1e
            0x006a88aa      .byte 0x00
            0x006a88ab      .byte 0x1f
            0x006a88ac      .byte 0x00
            0x006a88ad      .byte 0x1e
            0x006a88ae      .byte 0x00
            0x006a88af      .byte 0x1f
            0x006a88b0      .byte 0x00
            0x006a88b1      .byte 0x1f
            0x006a88b2      .byte 0x00
            0x006a88b3      .byte 0x1e
            0x006a88b4      .byte 0x00
            0x006a88b5      .byte 0x1f
            0x006a88b6      .byte 0x00
            0x006a88b7      .byte 0x1e
            0x006a88b8      .byte 0x00
            0x006a88b9      .byte 0x1f
            0x006a88ba     .string "7{[0-9][0-9]*}:{[0-9][0-9]*}:{[" ; len=31
            0x006a88d9      .byte 0x30
            0x006a88da     .string "-9][0-9]*}.{[0-9][0-9]*}` *[A-Za-z]* *{[0-9][0-9" ; len=48
            0x006a890a      .byte 0x5d
            0x006a890b     .string "*}[~A-Za-z0-9]*{[A-Za-z][A-Za-z][A-Za-z]}[~A-Za-z0-9]{[0-9][0-9]*} *{?*}," ; len=73
            0x006a8954      .byte 0x00
            0x006a8955      .byte 0x00
            0x006a8956      .byte 0x00
            0x006a8957      .byte 0x00
            0x006a8958      .byte 0x00
            0x006a8959      .byte 0x00
            0x006a895a      .byte 0x00
            0x006a895b      .byte 0x00
            0x006a895c      .byte 0x00
            0x006a895d      .byte 0x00
            0x006a895e      .byte 0x00
            0x006a895f      .byte 0x00
            0x006a8960      .byte 0x00
            0x006a8961      .byte 0x00
            0x006a8962      .byte 0x00
            0x006a8963      .byte 0x00
            0x006a8964      .byte 0x00
            0x006a8965      .byte 0x00
            0x006a8966      .byte 0x00
            0x006a8967      .byte 0x00
            0x006a8968      .byte 0x00
            0x006a8969      .byte 0x00
            0x006a896a      .byte 0x00
            0x006a896b      .byte 0x00
            0x006a896c      .byte 0x00
            0x006a896d      .byte 0x00
            0x006a896e      .byte 0x00
            0x006a896f      .byte 0x00
            0x006a8970      .byte 0x00
            0x006a8971      .byte 0x00
            0x006a8972      .byte 0x00
            0x006a8973      .byte 0x00
            0x006a8974      .byte 0x00
            0x006a8975      .byte 0x00
            0x006a8976      .byte 0x00
            0x006a8977      .byte 0x00
            0x006a8978      .byte 0x00
            0x006a8979      .byte 0x00
            0x006a897a      .byte 0x00
            0x006a897b      .byte 0x00
            0x006a897c      .byte 0x00
            0x006a897d      .byte 0x00
            0x006a897e      .byte 0x00
            0x006a897f      .byte 0x00
            0x006a8980      .byte 0x00
            0x006a8981      .byte 0x00
            0x006a8982      .byte 0x00
            0x006a8983      .byte 0x00
            0x006a8984      .byte 0x00
            0x006a8985      .byte 0x00
            0x006a8986      .byte 0x00
            0x006a8987      .byte 0x00
            0x006a8988      .byte 0x00
            0x006a8989      .byte 0x00
            0x006a898a      .byte 0x00
            0x006a898b      .byte 0x00
            0x006a898c      .byte 0x00
            0x006a898d      .byte 0x00
            0x006a898e      .byte 0x00
            0x006a898f      .byte 0x00
            0x006a8990      .byte 0x00
            0x006a8991      .byte 0x00
            0x006a8992      .byte 0x00
            0x006a8993     .string "7{[0-9][0-9]*}:{[0-9][0-9]*}:{[0-9][0-9]*}.{[0-9][0-9]*};" ; len=57
            0x006a89cc      .byte 0x00
            0x006a89cd      .byte 0x00
            0x006a89ce      .byte 0x00
            0x006a89cf      .byte 0x00
            0x006a89d0      .byte 0x00
            0x006a89d1      .byte 0x00
            0x006a89d2      .byte 0x00
            0x006a89d3      .byte 0x00
            0x006a89d4      .byte 0x00
            0x006a89d5      .byte 0x00
            0x006a89d6      .byte 0x00
            0x006a89d7      .byte 0x00
            0x006a89d8      .byte 0x00
            0x006a89d9      .byte 0x00
            0x006a89da      .byte 0x00
            0x006a89db      .byte 0x00
            0x006a89dc      .byte 0x00
            0x006a89dd      .byte 0x00
            0x006a89de      .byte 0x00
            0x006a89df      .byte 0x00
            0x006a89e0      .byte 0x00
            0x006a89e1      .byte 0x00
            0x006a89e2      .byte 0x00
            0x006a89e3      .byte 0x00
            0x006a89e4      .byte 0x00
            0x006a89e5      .byte 0x00
            0x006a89e6      .byte 0x00
            0x006a89e7      .byte 0x00
            0x006a89e8      .byte 0x00
            0x006a89e9      .byte 0x00
            0x006a89ea      .byte 0x00
            0x006a89eb      .byte 0x00
            0x006a89ec      .byte 0x00
            0x006a89ed      .byte 0x00
            0x006a89ee      .byte 0x00
            0x006a89ef      .byte 0x00
            0x006a89f0      .byte 0x00
            0x006a89f1      .byte 0x00
            0x006a89f2      .byte 0x01
            0x006a89f3      .byte 0x01
            0x006a89f4     .string "S" ; len=1
            0x006a89f5      .byte 0x20
            0x006a89f6     .string "*[A-Za-z]* *{[0-9][0-9]*}[~A-Za-" ; len=32
            0x006a8a16      .byte 0x7a
            0x006a8a17     .string "0-9]*{[0-9][0-9]*}[~A-Za-z0-9]{[0-9][0-9]*} *{?*}," ; len=50
            0x006a8a49      .byte 0x00
            0x006a8a4a      .byte 0x00
            0x006a8a4b      .byte 0x00
            0x006a8a4c      .byte 0x00
            0x006a8a4d      .byte 0x00
            0x006a8a4e      .byte 0x00
            0x006a8a4f      .byte 0x00
            0x006a8a50      .byte 0x00
            0x006a8a51      .byte 0x00
            0x006a8a52      .byte 0x00
            0x006a8a53      .byte 0x00
            0x006a8a54      .byte 0x00
            0x006a8a55      .byte 0x00
            0x006a8a56      .byte 0x00
            0x006a8a57      .byte 0x00
            0x006a8a58      .byte 0x00
            0x006a8a59      .byte 0x00
            0x006a8a5a      .byte 0x00
            0x006a8a5b      .byte 0x00
            0x006a8a5c      .byte 0x00
            0x006a8a5d      .byte 0x00
            0x006a8a5e      .byte 0x00
            0x006a8a5f      .byte 0x00
            0x006a8a60      .byte 0x00
            0x006a8a61      .byte 0x00
            0x006a8a62      .byte 0x00
            0x006a8a63      .byte 0x00
            0x006a8a64      .byte 0x00
            0x006a8a65      .byte 0x00
            0x006a8a66      .byte 0x00
            0x006a8a67      .byte 0x00
            0x006a8a68      .byte 0x00
            0x006a8a69      .byte 0x00
            0x006a8a6a      .byte 0x00
            0x006a8a6b      .byte 0x00
            0x006a8a6c      .byte 0x00
            0x006a8a6d      .byte 0x00
            0x006a8a6e      .byte 0x00
            0x006a8a6f      .byte 0x00
            0x006a8a70      .byte 0x00
            0x006a8a71      .byte 0x00
            0x006a8a72      .byte 0x00
            0x006a8a73      .byte 0x00
            0x006a8a74      .byte 0x00
            0x006a8a75      .byte 0x00
            0x006a8a76      .byte 0x00
            0x006a8a77      .byte 0x00
            0x006a8a78      .byte 0x00
            0x006a8a79      .byte 0x00
            0x006a8a7a      .byte 0x00
            0x006a8a7b      .byte 0x00
            0x006a8a7c      .byte 0x00
            0x006a8a7d      .byte 0x00
            0x006a8a7e      .byte 0x00
            0x006a8a7f      .byte 0x00
            0x006a8a80      .byte 0x00
            0x006a8a81      .byte 0x00
            0x006a8a82      .byte 0x00
            0x006a8a83      .byte 0x00
            0x006a8a84      .byte 0x00
            0x006a8a85      .byte 0x00
            0x006a8a86      .byte 0x00
            0x006a8a87      .byte 0x00
            0x006a8a88      .byte 0x00
            0x006a8a89      .byte 0x00
            0x006a8a8a      .byte 0x00
            0x006a8a8b      .byte 0x00
            0x006a8a8c      .byte 0x00
            0x006a8a8d      .byte 0x00
            0x006a8a8e      .byte 0x00
            0x006a8a8f      .byte 0x00
            0x006a8a90      .byte 0x00
            0x006a8a91      .byte 0x00
            0x006a8a92      .byte 0x00
            0x006a8a93      .byte 0x00
            0x006a8a94      .byte 0x00
            0x006a8a95      .byte 0x00
            0x006a8a96      .byte 0x00
            0x006a8a97      .byte 0x00
            0x006a8a98      .byte 0x00
            0x006a8a99      .byte 0x00
            0x006a8a9a      .byte 0x00
            0x006a8a9b      .byte 0x00
            0x006a8a9c      .byte 0x00
            0x006a8a9d      .byte 0x00
            0x006a8a9e      .byte 0x00
            0x006a8a9f      .byte 0x00
            0x006a8aa0      .byte 0x00
            0x006a8aa1      .byte 0x00
            0x006a8aa2      .byte 0x00
            0x006a8aa3      .byte 0x00
            0x006a8aa4      .byte 0x00
            0x006a8aa5      .byte 0x00
            0x006a8aa6      .byte 0x00
            0x006a8aa7      .byte 0x1d
            0x006a8aa8      .byte 0x21
            0x006a8aa9      .byte 0x00
            0x006a8aaa      .byte 0x00
            0x006a8aab      .byte 0x01
            0x006a8aac      .byte 0x00
            0x006a8aad      .byte 0x00
            0x006a8aae      .byte 0x00
            0x006a8aaf      .byte 0x44
            0x006a8ab0      .byte 0x03
            0x006a8ab1      .byte 0x00
            0x006a8ab2      .byte 0x00
            0x006a8ab3      .byte 0x00
            0x006a8ab4      .byte 0x00
            0x006a8ab5      .byte 0x00
            0x006a8ab6      .byte 0x00
            0x006a8ab7      .byte 0x00
            0x006a8ab8      .byte 0x00
            0x006a8ab9      .byte 0x00
            0x006a8aba      .byte 0x00
            0x006a8abb      .byte 0x00
            0x006a8abc      .byte 0x00
            0x006a8abd      .byte 0x00
            0x006a8abe      .byte 0x00
            0x006a8abf      .byte 0x00
            0x006a8ac0      .byte 0x00
            0x006a8ac1      .byte 0x00
            0x006a8ac2      .byte 0x00
            0x006a8ac3      .byte 0x00
            0x006a8ac4      .byte 0x00
            0x006a8ac5      .byte 0x00
            0x006a8ac6      .byte 0x00
            0x006a8ac7      .byte 0x00
            0x006a8ac8      .byte 0x00
            0x006a8ac9      .byte 0x00
            0x006a8aca      .byte 0x00
            0x006a8acb      .byte 0x00
            0x006a8acc      .byte 0x00
            0x006a8acd      .byte 0x00
            0x006a8ace      .byte 0x00
            0x006a8acf      .byte 0x00
            0x006a8ad0      .byte 0x00
            0x006a8ad1      .byte 0x00
            0x006a8ad2      .byte 0x00
            0x006a8ad3      .byte 0x00
            0x006a8ad4      .byte 0x00
            0x006a8ad5      .byte 0x00
            0x006a8ad6      .byte 0x00
            0x006a8ad7      .byte 0x00
            0x006a8ad8      .byte 0x00
            0x006a8ad9      .byte 0x00
            0x006a8ada      .byte 0x00
            0x006a8adb      .byte 0x00
            0x006a8adc      .byte 0x00
            0x006a8add      .byte 0x00
            0x006a8ade      .byte 0x00
            0x006a8adf      .byte 0x00
            0x006a8ae0      .byte 0x00
            0x006a8ae1      .byte 0x00
            0x006a8ae2      .byte 0x00
            0x006a8ae3      .byte 0x65
            0x006a8ae4      .byte 0x06
            0x006a8ae5      .byte 0x00
            0x006a8ae6      .byte 0x00
            0x006a8ae7      .byte 0x01
            0x006a8ae8      .byte 0x00
            0x006a8ae9      .byte 0x00
            0x006a8aea      .byte 0x00
            0x006a8aeb      .byte 0xd1
            0x006a8aec      .byte 0x00
            0x006a8aed      .byte 0x00
            0x006a8aee      .byte 0x00
            0x006a8aef      .byte 0x00
            0x006a8af0      .byte 0x00
            0x006a8af1      .byte 0x00
            0x006a8af2      .byte 0x00
            0x006a8af3      .byte 0x00
            0x006a8af4      .byte 0x00
            0x006a8af5      .byte 0x00
            0x006a8af6     .string "a *[A-Za-z]* *{[A-Za-z][A-Za-z][A-Za-z]}[~A-Za-z0-9]*{[0-9][0-9]*}[~A-Za-z0-9]*{[0-9][0-9]*} *{?*}," ; len=99
            0x006a8b59      .byte 0x00
            0x006a8b5a      .byte 0x00
            0x006a8b5b      .byte 0x00
            0x006a8b5c      .byte 0x00
            0x006a8b5d      .byte 0x00
            0x006a8b5e      .byte 0x00
            0x006a8b5f      .byte 0x00
            0x006a8b60      .byte 0x00
            0x006a8b61      .byte 0x00
            0x006a8b62      .byte 0x00
            0x006a8b63      .byte 0x00
            0x006a8b64      .byte 0x00
            0x006a8b65      .byte 0x00
            0x006a8b66      .byte 0x00
            0x006a8b67      .byte 0x00
            0x006a8b68      .byte 0x00
            0x006a8b69      .byte 0x00
            0x006a8b6a      .byte 0x00
            0x006a8b6b      .byte 0x00
            0x006a8b6c      .byte 0x00
            0x006a8b6d      .byte 0x00
            0x006a8b6e      .byte 0x00
            0x006a8b6f      .byte 0x00
            0x006a8b70      .byte 0x00
            0x006a8b71      .byte 0x00
            0x006a8b72      .byte 0x00
            0x006a8b73      .byte 0x00
            0x006a8b74      .byte 0x00
            0x006a8b75      .byte 0x00
            0x006a8b76      .byte 0x00
            0x006a8b77      .byte 0x00
            0x006a8b78      .byte 0x00
            0x006a8b79      .byte 0x00
            0x006a8b7a      .byte 0x00
            0x006a8b7b      .byte 0x00
            0x006a8b7c      .byte 0x00
            0x006a8b7d      .byte 0x00
            0x006a8b7e      .byte 0x00
            0x006a8b7f      .byte 0x00
            0x006a8b80      .byte 0x00
            0x006a8b81      .byte 0x00
            0x006a8b82      .byte 0x00
            0x006a8b83      .byte 0x00
            0x006a8b84      .byte 0x00
            0x006a8b85      .byte 0x00
            0x006a8b86      .byte 0x00
            0x006a8b87      .byte 0x00
            0x006a8b88      .byte 0x00
            0x006a8b89      .byte 0x00
            0x006a8b8a      .byte 0x00
            0x006a8b8b      .byte 0x00
            0x006a8b8c      .byte 0x00
            0x006a8b8d      .byte 0x00
            0x006a8b8e      .byte 0x00
            0x006a8b8f      .byte 0x00
            0x006a8b90      .byte 0x00
            0x006a8b91      .byte 0x00
            0x006a8b92      .byte 0x00
            0x006a8b93      .byte 0x00
            0x006a8b94      .byte 0x00
            0x006a8b95      .byte 0x00
            0x006a8b96      .byte 0x00
            0x006a8b97     .string "S *[A-Za-z]* *{[0-9][0-9]*}[~A-Za-z0-9]*{[0-9][0-9]*}[~A-Za-z0-9]{[0-9][0-9]*} *{?*}," ; len=85
            0x006a8bec      .byte 0x00
            0x006a8bed      .byte 0x00
            0x006a8bee      .byte 0x00
            0x006a8bef      .byte 0x00
            0x006a8bf0      .byte 0x00
            0x006a8bf1      .byte 0x00
            0x006a8bf2      .byte 0x00
            0x006a8bf3      .byte 0x00
            0x006a8bf4      .byte 0x00
            0x006a8bf5      .byte 0x00
            0x006a8bf6      .byte 0x02
            0x006a8bf7      .byte 0x01
            0x006a8bf8      .byte 0x09
            0x006a8bf9     .string " *TODAY *" ; len=9
            0x006a8c02      .byte 0x2c
            0x006a8c03     .string "* *{[0-9][0-9]*}[~A-Za-z0-9]*{[0-9][0-9]*}[~" ; len=44
            0x006a8c2f      .byte 0x41
            0x006a8c30     .string "-Za-z0-9]{[0-9][0-9]*} *{?*}," ; len=29
            0x006a8c4d      .byte 0x00
            0x006a8c4e      .byte 0x00
            0x006a8c4f      .byte 0x00
            0x006a8c50      .byte 0x00
            0x006a8c51      .byte 0x00
            0x006a8c52      .byte 0x00
            0x006a8c53      .byte 0x00
            0x006a8c54      .byte 0x00
            0x006a8c55      .byte 0x00
            0x006a8c56      .byte 0x00
            0x006a8c57      .byte 0x00
            0x006a8c58      .byte 0x00
            0x006a8c59      .byte 0x00
            0x006a8c5a      .byte 0x00
            0x006a8c5b      .byte 0x00
            0x006a8c5c      .byte 0x00
            0x006a8c5d      .byte 0x00
            0x006a8c5e      .byte 0x00
            0x006a8c5f      .byte 0x00
            0x006a8c60      .byte 0x00
            0x006a8c61      .byte 0x00
            0x006a8c62      .byte 0x00
            0x006a8c63      .byte 0x00
            0x006a8c64      .byte 0x00
            0x006a8c65      .byte 0x00
            0x006a8c66      .byte 0x00
            0x006a8c67      .byte 0x00
            0x006a8c68      .byte 0x00
            0x006a8c69      .byte 0x00
            0x006a8c6a      .byte 0x00
            0x006a8c6b      .byte 0x00
            0x006a8c6c      .byte 0x00
            0x006a8c6d      .byte 0x00
            0x006a8c6e      .byte 0x00
            0x006a8c6f      .byte 0x00
            0x006a8c70      .byte 0x00
            0x006a8c71      .byte 0x00
            0x006a8c72      .byte 0x00
            0x006a8c73      .byte 0x00
            0x006a8c74      .byte 0x00
            0x006a8c75      .byte 0x00
            0x006a8c76      .byte 0x00
            0x006a8c77      .byte 0x00
            0x006a8c78      .byte 0x00
            0x006a8c79      .byte 0x00
            0x006a8c7a      .byte 0x00
            0x006a8c7b      .byte 0x00
            0x006a8c7c      .byte 0x00
            0x006a8c7d      .byte 0x00
            0x006a8c7e      .byte 0x00
            0x006a8c7f      .byte 0x00
            0x006a8c80      .byte 0x00
            0x006a8c81      .byte 0x00
            0x006a8c82      .byte 0x00
            0x006a8c83      .byte 0x00
            0x006a8c84      .byte 0x00
            0x006a8c85      .byte 0x00
            0x006a8c86      .byte 0x00
            0x006a8c87      .byte 0x00
            0x006a8c88      .byte 0x00
            0x006a8c89      .byte 0x00
            0x006a8c8a      .byte 0x00
            0x006a8c8b      .byte 0x00
            0x006a8c8c      .byte 0x00
            0x006a8c8d      .byte 0x00
            0x006a8c8e      .byte 0x00
            0x006a8c8f      .byte 0x00
            0x006a8c90      .byte 0x00
            0x006a8c91      .byte 0x00
            0x006a8c92      .byte 0x00
            0x006a8c93      .byte 0x00
            0x006a8c94      .byte 0x00
            0x006a8c95      .byte 0x00
            0x006a8c96      .byte 0x00
            0x006a8c97      .byte 0x00
            0x006a8c98      .byte 0x00
            0x006a8c99      .byte 0x00
            0x006a8c9a      .byte 0x00
            0x006a8c9b      .byte 0x00
            0x006a8c9c      .byte 0x00
            0x006a8c9d      .byte 0x00
            0x006a8c9e      .byte 0x00
            0x006a8c9f      .byte 0x00
            0x006a8ca0      .byte 0x00
            0x006a8ca1      .byte 0x00
            0x006a8ca2      .byte 0x00
            0x006a8ca3      .byte 0x00
            0x006a8ca4      .byte 0x00
            0x006a8ca5      .byte 0x00
            0x006a8ca6      .byte 0x00
            0x006a8ca7      .byte 0x00
            0x006a8ca8      .byte 0x00
            0x006a8ca9      .byte 0x00
            0x006a8caa      .byte 0x00
            0x006a8cab      .byte 0x1d
            0x006a8cac      .byte 0x21
            0x006a8cad      .byte 0x00
            0x006a8cae      .byte 0x00
            0x006a8caf      .byte 0x01
            0x006a8cb0      .byte 0x00
            0x006a8cb1      .byte 0x00
            0x006a8cb2      .byte 0x00
            0x006a8cb3      .byte 0x44
            0x006a8cb4      .byte 0x03
            0x006a8cb5      .byte 0x00
            0x006a8cb6      .byte 0x00
            0x006a8cb7      .byte 0x00
            0x006a8cb8      .byte 0x00
            0x006a8cb9      .byte 0x00
            0x006a8cba      .byte 0x00
            0x006a8cbb      .byte 0x00
            0x006a8cbc      .byte 0x00
            0x006a8cbd      .byte 0x00
            0x006a8cbe      .byte 0x00
            0x006a8cbf      .byte 0x00
            0x006a8cc0      .byte 0x00
            0x006a8cc1      .byte 0x00
            0x006a8cc2      .byte 0x00
            0x006a8cc3      .byte 0x00
            0x006a8cc4      .byte 0x00
            0x006a8cc5      .byte 0x00
            0x006a8cc6      .byte 0x00
            0x006a8cc7      .byte 0x00
            0x006a8cc8      .byte 0x00
            0x006a8cc9      .byte 0x00
            0x006a8cca      .byte 0x00
            0x006a8ccb      .byte 0x00
            0x006a8ccc      .byte 0x00
            0x006a8ccd      .byte 0x00
            0x006a8cce      .byte 0x00
            0x006a8ccf      .byte 0x00
            0x006a8cd0      .byte 0x00
            0x006a8cd1      .byte 0x00
            0x006a8cd2      .byte 0x00
            0x006a8cd3      .byte 0x00
            0x006a8cd4      .byte 0x00
            0x006a8cd5      .byte 0x00
            0x006a8cd6      .byte 0x00
            0x006a8cd7      .byte 0x00
            0x006a8cd8      .byte 0x00
            0x006a8cd9      .byte 0x00
            0x006a8cda      .byte 0x00
            0x006a8cdb      .byte 0x00
            0x006a8cdc      .byte 0x00
            0x006a8cdd      .byte 0x00
            0x006a8cde      .byte 0x00
            0x006a8cdf      .byte 0x00
            0x006a8ce0      .byte 0x00
            0x006a8ce1      .byte 0x00
            0x006a8ce2      .byte 0x00
            0x006a8ce3      .byte 0x00
            0x006a8ce4      .byte 0x00
            0x006a8ce5      .byte 0x00
            0x006a8ce6      .byte 0x00
            0x006a8ce7      .byte 0x65
            0x006a8ce8      .byte 0x06
            0x006a8ce9      .byte 0x00
            0x006a8cea      .byte 0x00
            0x006a8ceb      .byte 0x01
            0x006a8cec      .byte 0x00
            0x006a8ced      .byte 0x00
            0x006a8cee      .byte 0x00
            0x006a8cef      .byte 0xd1
            0x006a8cf0      .byte 0x00
            0x006a8cf1      .byte 0x00
            0x006a8cf2      .byte 0x00
            0x006a8cf3      .byte 0x00
            0x006a8cf4      .byte 0x00
            0x006a8cf5      .byte 0x00
            0x006a8cf6      .byte 0x00
            0x006a8cf7      .byte 0x00
            0x006a8cf8      .byte 0x0d
            0x006a8cf9     .string " *YESTERDAY *" ; len=13
            0x006a8d06      .byte 0x2c
            0x006a8d07     .string "[A-Za-z][A-Za-z][A-Za-z]}[~A-Za-z0-9]*{[0-9]" ; len=44
            0x006a8d33      .byte 0x5b
            0x006a8d34     .string "0-9]*}[~A-Za-z0-9]*{[0-9][0-9]*} *{?*}," ; len=39
            0x006a8d5b      .byte 0x00
            0x006a8d5c      .byte 0x00
            0x006a8d5d      .byte 0x00
            0x006a8d5e      .byte 0x00
            0x006a8d5f      .byte 0x00
            0x006a8d60      .byte 0x00
            0x006a8d61      .byte 0x00
            0x006a8d62      .byte 0x00
            0x006a8d63      .byte 0x00
            0x006a8d64      .byte 0x00
            0x006a8d65      .byte 0x00
            0x006a8d66      .byte 0x00
            0x006a8d67      .byte 0x00
            0x006a8d68      .byte 0x00
            0x006a8d69      .byte 0x00
            0x006a8d6a      .byte 0x00
            0x006a8d6b      .byte 0x00
            0x006a8d6c      .byte 0x00
            0x006a8d6d      .byte 0x00
            0x006a8d6e      .byte 0x00
            0x006a8d6f      .byte 0x00
            0x006a8d70      .byte 0x00
            0x006a8d71      .byte 0x00
            0x006a8d72      .byte 0x00
            0x006a8d73      .byte 0x00
            0x006a8d74      .byte 0x00
            0x006a8d75      .byte 0x00
            0x006a8d76      .byte 0x00
            0x006a8d77      .byte 0x00
            0x006a8d78      .byte 0x00
            0x006a8d79      .byte 0x00
            0x006a8d7a      .byte 0x00
            0x006a8d7b      .byte 0x00
            0x006a8d7c      .byte 0x00
            0x006a8d7d      .byte 0x00
            0x006a8d7e      .byte 0x00
            0x006a8d7f      .byte 0x00
            0x006a8d80      .byte 0x00
            0x006a8d81      .byte 0x00
            0x006a8d82      .byte 0x00
            0x006a8d83      .byte 0x00
            0x006a8d84      .byte 0x00
            0x006a8d85      .byte 0x00
            0x006a8d86      .byte 0x00
            0x006a8d87      .byte 0x00
            0x006a8d88      .byte 0x00
            0x006a8d89      .byte 0x00
            0x006a8d8a      .byte 0x00
            0x006a8d8b      .byte 0x00
            0x006a8d8c      .byte 0x00
            0x006a8d8d      .byte 0x00
            0x006a8d8e      .byte 0x00
            0x006a8d8f      .byte 0x00
            0x006a8d90      .byte 0x00
            0x006a8d91      .byte 0x00
            0x006a8d92      .byte 0x00
            0x006a8d93      .byte 0x00
            0x006a8d94      .byte 0x00
            0x006a8d95      .byte 0x00
            0x006a8d96      .byte 0x00
            0x006a8d97      .byte 0x00
            0x006a8d98      .byte 0x00
            0x006a8d99      .byte 0x07
            0x006a8d9a     .string " *ALL *" ; len=7
            0x006a8da1      .byte 0x2c
            0x006a8da2     .string "*,* *{[0-9][0-9]*}[~A-Za-z0-9]*{[0-9][0-9]*}" ; len=44
            0x006a8dce      .byte 0x5b
            0x006a8dcf     .string "~A-Za-z0-9]{[0-9][0-9]*} *{?*}," ; len=31
            0x006a8dee      .byte 0x00
            0x006a8def      .byte 0x00
            0x006a8df0      .byte 0x00
            0x006a8df1      .byte 0x00
            0x006a8df2      .byte 0x00
            0x006a8df3      .byte 0x00
            0x006a8df4      .byte 0x00
            0x006a8df5      .byte 0x00
            0x006a8df6      .byte 0x00
            0x006a8df7      .byte 0x00
            0x006a8df8      .byte 0x07
            0x006a8df9     .string " *ALL *" ; len=7
            0x006a8e00      .byte 0x2c
            0x006a8e01     .string "*,* *{[0-9][0-9]*}[~A-Za-z0-9]*{[0-9][0-9]*}" ; len=44
            0x006a8e2d      .byte 0x5b
            0x006a8e2e     .string "~A-Za-z0-9]{[0-9][0-9]*} *{?*}," ; len=31
            0x006a8e4d      .byte 0x00
            0x006a8e4e      .byte 0x00
            0x006a8e4f      .byte 0x00
            0x006a8e50      .byte 0x00
            0x006a8e51      .byte 0x00
            0x006a8e52      .byte 0x00
            0x006a8e53      .byte 0x00
            0x006a8e54      .byte 0x00
            0x006a8e55      .byte 0x00
            0x006a8e56      .byte 0x00
            0x006a8e57      .byte 0x00
            0x006a8e58      .byte 0x00
            0x006a8e59      .byte 0x00
            0x006a8e5a      .byte 0x00
            0x006a8e5b      .byte 0x00
            0x006a8e5c      .byte 0x00
            0x006a8e5d      .byte 0x00
            0x006a8e5e      .byte 0x00
            0x006a8e5f      .byte 0x00
            0x006a8e60      .byte 0x00
            0x006a8e61      .byte 0x00
            0x006a8e62      .byte 0x00
            0x006a8e63      .byte 0x00
            0x006a8e64      .byte 0x00
            0x006a8e65      .byte 0x00
            0x006a8e66      .byte 0x00
            0x006a8e67      .byte 0x00
            0x006a8e68      .byte 0x00
            0x006a8e69      .byte 0x00
            0x006a8e6a      .byte 0x00
            0x006a8e6b      .byte 0x00
            0x006a8e6c      .byte 0x00
            0x006a8e6d      .byte 0x00
            0x006a8e6e      .byte 0x00
            0x006a8e6f      .byte 0x00
            0x006a8e70      .byte 0x00
            0x006a8e71      .byte 0x00
            0x006a8e72      .byte 0x00
            0x006a8e73      .byte 0x00
            0x006a8e74      .byte 0x00
            0x006a8e75      .byte 0x00
            0x006a8e76      .byte 0x00
            0x006a8e77      .byte 0x00
            0x006a8e78      .byte 0x00
            0x006a8e79      .byte 0x00
            0x006a8e7a      .byte 0x00
            0x006a8e7b      .byte 0x00
            0x006a8e7c      .byte 0x00
            0x006a8e7d      .byte 0x00
            0x006a8e7e      .byte 0x00
            0x006a8e7f      .byte 0x00
            0x006a8e80      .byte 0x00
            0x006a8e81      .byte 0x00
            0x006a8e82      .byte 0x00
            0x006a8e83      .byte 0x00
            0x006a8e84      .byte 0x00
            0x006a8e85      .byte 0x00
            0x006a8e86      .byte 0x00
            0x006a8e87      .byte 0x00
            0x006a8e88      .byte 0x00
            0x006a8e89      .byte 0x00
            0x006a8e8a      .byte 0x00
            0x006a8e8b      .byte 0x00
            0x006a8e8c      .byte 0x00
            0x006a8e8d      .byte 0x00
            0x006a8e8e      .byte 0x00
            0x006a8e8f      .byte 0x00
            0x006a8e90      .byte 0x00
            0x006a8e91      .byte 0x00
            0x006a8e92      .byte 0x00
            0x006a8e93      .byte 0x00
            0x006a8e94      .byte 0x00
            0x006a8e95      .byte 0x00
            0x006a8e96      .byte 0x00
            0x006a8e97      .byte 0x00
            0x006a8e98      .byte 0x00
            0x006a8e99      .byte 0x00
            0x006a8e9a      .byte 0x00
            0x006a8e9b      .byte 0x00
            0x006a8e9c      .byte 0x00
            0x006a8e9d      .byte 0x00
            0x006a8e9e      .byte 0x00
            0x006a8e9f      .byte 0x00
            0x006a8ea0      .byte 0x00
            0x006a8ea1      .byte 0x00
            0x006a8ea2      .byte 0x00
            0x006a8ea3      .byte 0x00
            0x006a8ea4      .byte 0x00
            0x006a8ea5      .byte 0x00
            0x006a8ea6      .byte 0x00
            0x006a8ea7      .byte 0x00
            0x006a8ea8      .byte 0x00
            0x006a8ea9      .byte 0x00
            0x006a8eaa      .byte 0x00
            0x006a8eab      .byte 0x1d
            0x006a8eac      .byte 0x21
            0x006a8ead      .byte 0x00
            0x006a8eae      .byte 0x00
            0x006a8eaf      .byte 0x01
            0x006a8eb0      .byte 0x00
            0x006a8eb1      .byte 0x00
            0x006a8eb2      .byte 0x00
            0x006a8eb3      .byte 0x44
            0x006a8eb4      .byte 0x03
            0x006a8eb5      .byte 0x00
            0x006a8eb6      .byte 0x00
            0x006a8eb7      .byte 0x00
            0x006a8eb8      .byte 0x00
            0x006a8eb9      .byte 0x00
            0x006a8eba      .byte 0x00
            0x006a8ebb      .byte 0x00
            0x006a8ebc      .byte 0x00
            0x006a8ebd      .byte 0x00
            0x006a8ebe      .byte 0x00
            0x006a8ebf      .byte 0x00
            0x006a8ec0      .byte 0x00
            0x006a8ec1      .byte 0x00
            0x006a8ec2      .byte 0x00
            0x006a8ec3      .byte 0x00
            0x006a8ec4      .byte 0x00
            0x006a8ec5      .byte 0x00
            0x006a8ec6      .byte 0x00
            0x006a8ec7      .byte 0x00
            0x006a8ec8      .byte 0x00
            0x006a8ec9      .byte 0x00
            0x006a8eca      .byte 0x00
            0x006a8ecb      .byte 0x00
            0x006a8ecc      .byte 0x00
            0x006a8ecd      .byte 0x00
            0x006a8ece      .byte 0x00
            0x006a8ecf      .byte 0x00
            0x006a8ed0      .byte 0x00
            0x006a8ed1      .byte 0x00
            0x006a8ed2      .byte 0x00
            0x006a8ed3      .byte 0x00
            0x006a8ed4      .byte 0x00
            0x006a8ed5      .byte 0x00
            0x006a8ed6      .byte 0x00
            0x006a8ed7      .byte 0x00
            0x006a8ed8      .byte 0x00
            0x006a8ed9      .byte 0x00
            0x006a8eda      .byte 0x00
            0x006a8edb      .byte 0x00
            0x006a8edc      .byte 0x00
            0x006a8edd      .byte 0x00
            0x006a8ede      .byte 0x00
            0x006a8edf      .byte 0x00
            0x006a8ee0      .byte 0x00
            0x006a8ee1      .byte 0x00
            0x006a8ee2      .byte 0x00
            0x006a8ee3      .byte 0x00
            0x006a8ee4      .byte 0x00
            0x006a8ee5      .byte 0x00
            0x006a8ee6      .byte 0x00
            0x006a8ee7      .byte 0x65
            0x006a8ee8      .byte 0x06
            0x006a8ee9      .byte 0x00
            0x006a8eea      .byte 0x00
            0x006a8eeb      .byte 0x01
            0x006a8eec      .byte 0x00
            0x006a8eed      .byte 0x00
            0x006a8eee      .byte 0x00
            0x006a8eef      .byte 0xd1
            0x006a8ef0      .byte 0x00
            0x006a8ef1      .byte 0x00
            0x006a8ef2      .byte 0x00
            0x006a8ef3      .byte 0x00
            0x006a8ef4      .byte 0x00
            0x006a8ef5      .byte 0x00
            0x006a8ef6      .byte 0x00
            0x006a8ef7      .byte 0x00
            0x006a8ef8      .byte 0x0e
            0x006a8ef9     .string " *EVERYTHING *" ; len=14
            0x006a8f07      .byte 0x2c
            0x006a8f08     .string "A-Za-z][A-Za-z][A-Za-z]}[~A-Za-z0-9]*{[0-9][" ; len=44
            0x006a8f34      .byte 0x30
            0x006a8f35     .string "-9]*}[~A-Za-z0-9]*{[0-9][0-9]*} *{?*}," ; len=38
            0x006a8f5b      .byte 0x00
            0x006a8f5c      .byte 0x00
            0x006a8f5d      .byte 0x00
            0x006a8f5e      .byte 0x00
            0x006a8f5f      .byte 0x00
            0x006a8f60      .byte 0x00
            0x006a8f61      .byte 0x00
            0x006a8f62      .byte 0x00
            0x006a8f63      .byte 0x00
            0x006a8f64      .byte 0x00
            0x006a8f65      .byte 0x00
            0x006a8f66      .byte 0x00
            0x006a8f67      .byte 0x00
            0x006a8f68      .byte 0x00
            0x006a8f69      .byte 0x00
            0x006a8f6a      .byte 0x00
            0x006a8f6b      .byte 0x00
            0x006a8f6c      .byte 0x00
            0x006a8f6d      .byte 0x00
            0x006a8f6e      .byte 0x00
            0x006a8f6f      .byte 0x00
            0x006a8f70      .byte 0x00
            0x006a8f71      .byte 0x00
            0x006a8f72      .byte 0x00
            0x006a8f73      .byte 0x00
            0x006a8f74      .byte 0x00
            0x006a8f75      .byte 0x00
            0x006a8f76      .byte 0x00
            0x006a8f77      .byte 0x00
            0x006a8f78      .byte 0x00
            0x006a8f79      .byte 0x00
            0x006a8f7a      .byte 0x00
            0x006a8f7b      .byte 0x00
            0x006a8f7c      .byte 0x00
            0x006a8f7d      .byte 0x00
            0x006a8f7e      .byte 0x00
            0x006a8f7f      .byte 0x00
            0x006a8f80      .byte 0x00
            0x006a8f81      .byte 0x00
            0x006a8f82      .byte 0x00
            0x006a8f83      .byte 0x00
            0x006a8f84      .byte 0x00
            0x006a8f85      .byte 0x00
            0x006a8f86      .byte 0x00
            0x006a8f87      .byte 0x00
            0x006a8f88      .byte 0x00
            0x006a8f89      .byte 0x00
            0x006a8f8a      .byte 0x00
            0x006a8f8b      .byte 0x00
            0x006a8f8c      .byte 0x00
            0x006a8f8d      .byte 0x00
            0x006a8f8e      .byte 0x00
            0x006a8f8f      .byte 0x00
            0x006a8f90      .byte 0x00
            0x006a8f91      .byte 0x00
            0x006a8f92      .byte 0x00
            0x006a8f93      .byte 0x00
            0x006a8f94      .byte 0x00
            0x006a8f95      .byte 0x00
            0x006a8f96      .byte 0x00
            0x006a8f97      .byte 0x00
            0x006a8f98      .byte 0x00
            0x006a8f99      .byte 0x10
            0x006a8f9a     .string " *BEFORE *{?*} *" ; len=16
            0x006a8faa      .byte 0x2c
            0x006a8fab     .string "9][0-9]*}[~A-Za-z0-9]*{[0-9][0-9]*}[~A-Za-z0" ; len=44
            0x006a8fd7      .byte 0x2d
            0x006a8fd8     .string "9]{[0-9][0-9]*} *{?*}," ; len=22
            0x006a8fee      .byte 0x00
            0x006a8fef      .byte 0x00
            0x006a8ff0      .byte 0x00
            0x006a8ff1      .byte 0x00
            0x006a8ff2      .byte 0x00
            0x006a8ff3      .byte 0x00
            0x006a8ff4      .byte 0x00
            0x006a8ff5      .byte 0x00
            0x006a8ff6      .byte 0x00
            0x006a8ff7      .byte 0x00
            0x006a8ff8      .byte 0x10
            0x006a8ff9     .string " *BEFORE *{?*} *" ; len=16
            0x006a9009      .byte 0x2c
            0x006a900a     .string "9][0-9]*}[~A-Za-z0-9]*{[0-9][0-9]*}[~A-Za-z0" ; len=44
            0x006a9036      .byte 0x2d
            0x006a9037     .string "9]{[0-9][0-9]*} *{?*}," ; len=22
            0x006a904d      .byte 0x00
            0x006a904e      .byte 0x00
            0x006a904f      .byte 0x00
            0x006a9050      .byte 0x00
            0x006a9051      .byte 0x00
            0x006a9052      .byte 0x00
            0x006a9053      .byte 0x00
            0x006a9054      .byte 0x00
            0x006a9055      .byte 0x00
            0x006a9056      .byte 0x00
            0x006a9057      .byte 0x00
            0x006a9058      .byte 0x00
            0x006a9059      .byte 0x00
            0x006a905a      .byte 0x00
            0x006a905b      .byte 0x00
            0x006a905c      .byte 0x00
            0x006a905d      .byte 0x00
            0x006a905e      .byte 0x00
            0x006a905f      .byte 0x00
            0x006a9060      .byte 0x00
            0x006a9061      .byte 0x00
            0x006a9062      .byte 0x00
            0x006a9063      .byte 0x00
            0x006a9064      .byte 0x00
            0x006a9065      .byte 0x00
            0x006a9066      .byte 0x00
            0x006a9067      .byte 0x00
            0x006a9068      .byte 0x00
            0x006a9069      .byte 0x00
            0x006a906a      .byte 0x00
            0x006a906b      .byte 0x00
            0x006a906c      .byte 0x00
            0x006a906d      .byte 0x00
            0x006a906e      .byte 0x00
            0x006a906f      .byte 0x00
            0x006a9070      .byte 0x00
            0x006a9071      .byte 0x00
            0x006a9072      .byte 0x00
            0x006a9073      .byte 0x00
            0x006a9074      .byte 0x00
            0x006a9075      .byte 0x00
            0x006a9076      .byte 0x00
            0x006a9077      .byte 0x00
            0x006a9078      .byte 0x00
            0x006a9079      .byte 0x00
            0x006a907a      .byte 0x00
            0x006a907b      .byte 0x00
            0x006a907c      .byte 0x00
            0x006a907d      .byte 0x00
            0x006a907e      .byte 0x00
            0x006a907f      .byte 0x00
            0x006a9080      .byte 0x00
            0x006a9081      .byte 0x00
            0x006a9082      .byte 0x00
            0x006a9083      .byte 0x00
            0x006a9084      .byte 0x00
            0x006a9085      .byte 0x00
            0x006a9086      .byte 0x00
            0x006a9087      .byte 0x00
            0x006a9088      .byte 0x00
            0x006a9089      .byte 0x00
            0x006a908a      .byte 0x00
            0x006a908b      .byte 0x00
            0x006a908c      .byte 0x00
            0x006a908d      .byte 0x00
            0x006a908e      .byte 0x00
            0x006a908f      .byte 0x00
            0x006a9090      .byte 0x00
            0x006a9091      .byte 0x00
            0x006a9092      .byte 0x00
            0x006a9093      .byte 0x00
            0x006a9094      .byte 0x00
            0x006a9095      .byte 0x00
            0x006a9096      .byte 0x00
            0x006a9097      .byte 0x00
            0x006a9098      .byte 0x00
            0x006a9099      .byte 0x00
            0x006a909a      .byte 0x00
            0x006a909b      .byte 0x00
            0x006a909c      .byte 0x00
            0x006a909d      .byte 0x00
            0x006a909e      .byte 0x00
            0x006a909f      .byte 0x00
            0x006a90a0      .byte 0x00
            0x006a90a1      .byte 0x00
            0x006a90a2      .byte 0x00
            0x006a90a3      .byte 0x00
            0x006a90a4      .byte 0x00
            0x006a90a5      .byte 0x00
            0x006a90a6      .byte 0x00
            0x006a90a7      .byte 0x00
            0x006a90a8      .byte 0x00
            0x006a90a9      .byte 0x00
            0x006a90aa      .byte 0x00
            0x006a90ab      .byte 0x1d
            0x006a90ac      .byte 0x21
            0x006a90ad      .byte 0x00
            0x006a90ae      .byte 0x00
            0x006a90af      .byte 0x01
            0x006a90b0      .byte 0x00
            0x006a90b1      .byte 0x00
            0x006a90b2      .byte 0x00
            0x006a90b3      .byte 0x44
            0x006a90b4      .byte 0x03
            0x006a90b5      .byte 0x00
            0x006a90b6      .byte 0x00
            0x006a90b7      .byte 0x00
            0x006a90b8      .byte 0x00
            0x006a90b9      .byte 0x00
            0x006a90ba      .byte 0x00
            0x006a90bb      .byte 0x00
            0x006a90bc      .byte 0x00
            0x006a90bd      .byte 0x00
            0x006a90be      .byte 0x00
            0x006a90bf      .byte 0x00
            0x006a90c0      .byte 0x00
            0x006a90c1      .byte 0x00
            0x006a90c2      .byte 0x00
            0x006a90c3      .byte 0x00
            0x006a90c4      .byte 0x00
            0x006a90c5      .byte 0x00
            0x006a90c6      .byte 0x00
            0x006a90c7      .byte 0x00
            0x006a90c8      .byte 0x00
            0x006a90c9      .byte 0x00
            0x006a90ca      .byte 0x00
            0x006a90cb      .byte 0x00
            0x006a90cc      .byte 0x00
            0x006a90cd      .byte 0x00
            0x006a90ce      .byte 0x00
            0x006a90cf      .byte 0x00
            0x006a90d0      .byte 0x00
            0x006a90d1      .byte 0x00
            0x006a90d2      .byte 0x00
            0x006a90d3      .byte 0x00
            0x006a90d4      .byte 0x00
            0x006a90d5      .byte 0x00
            0x006a90d6      .byte 0x00
            0x006a90d7      .byte 0x00
            0x006a90d8      .byte 0x00
            0x006a90d9      .byte 0x00
            0x006a90da      .byte 0x00
            0x006a90db      .byte 0x00
            0x006a90dc      .byte 0x00
            0x006a90dd      .byte 0x00
            0x006a90de      .byte 0x00
            0x006a90df      .byte 0x00
            0x006a90e0      .byte 0x00
            0x006a90e1      .byte 0x00
            0x006a90e2      .byte 0x00
            0x006a90e3      .byte 0x00
            0x006a90e4      .byte 0x00
            0x006a90e5      .byte 0x00
            0x006a90e6      .byte 0x00
            0x006a90e7      .byte 0x65
            0x006a90e8      .byte 0x06
            0x006a90e9      .byte 0x00
            0x006a90ea      .byte 0x00
            0x006a90eb      .byte 0x01
            0x006a90ec      .byte 0x00
            0x006a90ed      .byte 0x00
            0x006a90ee      .byte 0x00
            0x006a90ef      .byte 0xd1
            0x006a90f0      .byte 0x00
            0x006a90f1      .byte 0x00
            0x006a90f2      .byte 0x00
            0x006a90f3      .byte 0x00
            0x006a90f4      .byte 0x00
            0x006a90f5      .byte 0x00
            0x006a90f6      .byte 0x00
            0x006a90f7      .byte 0x00
            0x006a90f8      .byte 0x0f
            0x006a90f9     .string " *UNTIL *{?*} *" ; len=15
            0x006a9108      .byte 0x2c
            0x006a9109     .string "-Za-z][A-Za-z][A-Za-z]}[~A-Za-z0-9]*{[0-9][0" ; len=44
            0x006a9135      .byte 0x2d
            0x006a9136     .string "9]*}[~A-Za-z0-9]*{[0-9][0-9]*} *{?*}," ; len=37
            0x006a915b      .byte 0x00
            0x006a915c      .byte 0x00
            0x006a915d      .byte 0x00
            0x006a915e      .byte 0x00
            0x006a915f      .byte 0x00
            0x006a9160      .byte 0x00
            0x006a9161      .byte 0x00
            0x006a9162      .byte 0x00
            0x006a9163      .byte 0x00
            0x006a9164      .byte 0x00
            0x006a9165      .byte 0x00
            0x006a9166      .byte 0x00
            0x006a9167      .byte 0x00
            0x006a9168      .byte 0x00
            0x006a9169      .byte 0x00
            0x006a916a      .byte 0x00
            0x006a916b      .byte 0x00
            0x006a916c      .byte 0x00
            0x006a916d      .byte 0x00
            0x006a916e      .byte 0x00
            0x006a916f      .byte 0x00
            0x006a9170      .byte 0x00
            0x006a9171      .byte 0x00
            0x006a9172      .byte 0x00
            0x006a9173      .byte 0x00
            0x006a9174      .byte 0x00
            0x006a9175      .byte 0x00
            0x006a9176      .byte 0x00
            0x006a9177      .byte 0x00
            0x006a9178      .byte 0x00
            0x006a9179      .byte 0x00
            0x006a917a      .byte 0x00
            0x006a917b      .byte 0x00
            0x006a917c      .byte 0x00
            0x006a917d      .byte 0x00
            0x006a917e      .byte 0x00
            0x006a917f      .byte 0x00
            0x006a9180      .byte 0x00
            0x006a9181      .byte 0x00
            0x006a9182      .byte 0x00
            0x006a9183      .byte 0x00
            0x006a9184      .byte 0x00
            0x006a9185      .byte 0x00
            0x006a9186      .byte 0x00
            0x006a9187      .byte 0x00
            0x006a9188      .byte 0x00
            0x006a9189      .byte 0x00
            0x006a918a      .byte 0x00
            0x006a918b      .byte 0x00
            0x006a918c      .byte 0x00
            0x006a918d      .byte 0x00
            0x006a918e      .byte 0x00
            0x006a918f      .byte 0x00
            0x006a9190      .byte 0x00
            0x006a9191      .byte 0x00
            0x006a9192      .byte 0x00
            0x006a9193      .byte 0x00
            0x006a9194      .byte 0x00
            0x006a9195      .byte 0x00
            0x006a9196      .byte 0x00
            0x006a9197      .byte 0x00
            0x006a9198      .byte 0x00
            0x006a9199      .byte 0x0f
            0x006a919a     .string " *AFTER *{?*} *" ; len=15
            0x006a91a9      .byte 0x2c
            0x006a91aa     .string ",9][0-9]*}[~A-Za-z0-9]*{[0-9][0-9]*}[~A-Za-z" ; len=44
            0x006a91d6      .byte 0x30
            0x006a91d7     .string "-9]{[0-9][0-9]*} *{?*}," ; len=23
            0x006a91ee      .byte 0x00
            0x006a91ef      .byte 0x00
            0x006a91f0      .byte 0x00
            0x006a91f1      .byte 0x00
            0x006a91f2      .byte 0x00
            0x006a91f3      .byte 0x00
            0x006a91f4      .byte 0x00
            0x006a91f5      .byte 0x00
            0x006a91f6      .byte 0x00
            0x006a91f7      .byte 0x00
            0x006a91f8      .byte 0x0f
            0x006a91f9     .string " *AFTER *{?*} *" ; len=15
            0x006a9208      .byte 0x2c
            0x006a9209     .string ",9][0-9]*}[~A-Za-z0-9]*{[0-9][0-9]*}[~A-Za-z" ; len=44
            0x006a9235      .byte 0x30
            0x006a9236     .string "-9]{[0-9][0-9]*} *{?*}," ; len=23
            0x006a924d      .byte 0x00
            0x006a924e      .byte 0x00
            0x006a924f      .byte 0x00
            0x006a9250      .byte 0x00
            0x006a9251      .byte 0x00
            0x006a9252      .byte 0x00
            0x006a9253      .byte 0x00
            0x006a9254      .byte 0x00
            0x006a9255      .byte 0x00
            0x006a9256      .byte 0x00
            0x006a9257      .byte 0x00
            0x006a9258      .byte 0x00
            0x006a9259      .byte 0x00
            0x006a925a      .byte 0x00
            0x006a925b      .byte 0x00
            0x006a925c      .byte 0x00
            0x006a925d      .byte 0x00
            0x006a925e      .byte 0x00
            0x006a925f      .byte 0x00
            0x006a9260      .byte 0x00
            0x006a9261      .byte 0x00
            0x006a9262      .byte 0x00
            0x006a9263      .byte 0x00
            0x006a9264      .byte 0x00
            0x006a9265      .byte 0x00
            0x006a9266      .byte 0x00
            0x006a9267      .byte 0x00
            0x006a9268      .byte 0x00
            0x006a9269      .byte 0x00
            0x006a926a      .byte 0x00
            0x006a926b      .byte 0x00
            0x006a926c      .byte 0x00
            0x006a926d      .byte 0x00
            0x006a926e      .byte 0x00
            0x006a926f      .byte 0x00
            0x006a9270      .byte 0x00
            0x006a9271      .byte 0x00
            0x006a9272      .byte 0x00
            0x006a9273      .byte 0x00
            0x006a9274      .byte 0x00
            0x006a9275      .byte 0x00
            0x006a9276      .byte 0x00
            0x006a9277      .byte 0x00
            0x006a9278      .byte 0x00
            0x006a9279      .byte 0x00
            0x006a927a      .byte 0x00
            0x006a927b      .byte 0x00
            0x006a927c      .byte 0x00
            0x006a927d      .byte 0x00
            0x006a927e      .byte 0x00
            0x006a927f      .byte 0x00
            0x006a9280      .byte 0x00
            0x006a9281      .byte 0x00
            0x006a9282      .byte 0x00
            0x006a9283      .byte 0x00
            0x006a9284      .byte 0x00
            0x006a9285      .byte 0x00
            0x006a9286      .byte 0x00
            0x006a9287      .byte 0x00
            0x006a9288      .byte 0x00
            0x006a9289      .byte 0x00
            0x006a928a      .byte 0x00
            0x006a928b      .byte 0x00
            0x006a928c      .byte 0x00
            0x006a928d      .byte 0x00
            0x006a928e      .byte 0x00
            0x006a928f      .byte 0x00
            0x006a9290      .byte 0x00
            0x006a9291      .byte 0x00
            0x006a9292      .byte 0x00
            0x006a9293      .byte 0x00
            0x006a9294      .byte 0x00
            0x006a9295      .byte 0x00
            0x006a9296      .byte 0x00
            0x006a9297      .byte 0x00
            0x006a9298      .byte 0x00
            0x006a9299      .byte 0x00
            0x006a929a      .byte 0x00
            0x006a929b      .byte 0x00
            0x006a929c      .byte 0x00
            0x006a929d      .byte 0x00
            0x006a929e      .byte 0x00
            0x006a929f      .byte 0x00
            0x006a92a0      .byte 0x00
            0x006a92a1      .byte 0x00
            0x006a92a2      .byte 0x00
            0x006a92a3      .byte 0x00
            0x006a92a4      .byte 0x00
            0x006a92a5      .byte 0x00
            0x006a92a6      .byte 0x00
            0x006a92a7      .byte 0x00
            0x006a92a8      .byte 0x00
            0x006a92a9      .byte 0x00
            0x006a92aa      .byte 0x00
            0x006a92ab      .byte 0x1d
            0x006a92ac      .byte 0x21
            0x006a92ad      .byte 0x00
            0x006a92ae      .byte 0x00
            0x006a92af      .byte 0x01
            0x006a92b0      .byte 0x00
            0x006a92b1      .byte 0x00
            0x006a92b2      .byte 0x00
            0x006a92b3      .byte 0x44
            0x006a92b4      .byte 0x03
            0x006a92b5      .byte 0x00
            0x006a92b6      .byte 0x00
            0x006a92b7      .byte 0x00
            0x006a92b8      .byte 0x00
            0x006a92b9      .byte 0x00
            0x006a92ba      .byte 0x00
            0x006a92bb      .byte 0x00
            0x006a92bc      .byte 0x00
            0x006a92bd      .byte 0x00
            0x006a92be      .byte 0x00
            0x006a92bf      .byte 0x00
            0x006a92c0      .byte 0x00
            0x006a92c1      .byte 0x00
            0x006a92c2      .byte 0x00
            0x006a92c3      .byte 0x00
            0x006a92c4      .byte 0x00
            0x006a92c5      .byte 0x00
            0x006a92c6      .byte 0x00
            0x006a92c7      .byte 0x00
            0x006a92c8      .byte 0x00
            0x006a92c9      .byte 0x00
            0x006a92ca      .byte 0x00
            0x006a92cb      .byte 0x00
            0x006a92cc      .byte 0x00
            0x006a92cd      .byte 0x00
            0x006a92ce      .byte 0x00
            0x006a92cf      .byte 0x00
            0x006a92d0      .byte 0x00
            0x006a92d1      .byte 0x00
            0x006a92d2      .byte 0x00
            0x006a92d3      .byte 0x00
            0x006a92d4      .byte 0x00
            0x006a92d5      .byte 0x00
            0x006a92d6      .byte 0x00
            0x006a92d7      .byte 0x00
            0x006a92d8      .byte 0x00
            0x006a92d9      .byte 0x00
            0x006a92da      .byte 0x00
            0x006a92db      .byte 0x00
            0x006a92dc      .byte 0x00
            0x006a92dd      .byte 0x00
            0x006a92de      .byte 0x00
            0x006a92df      .byte 0x00
            0x006a92e0      .byte 0x00
            0x006a92e1      .byte 0x00
            0x006a92e2      .byte 0x00
            0x006a92e3      .byte 0x00
            0x006a92e4      .byte 0x00
            0x006a92e5      .byte 0x00
            0x006a92e6      .byte 0x00
            0x006a92e7      .byte 0x65
            0x006a92e8      .byte 0x06
            0x006a92e9      .byte 0x00
            0x006a92ea      .byte 0x00
            0x006a92eb      .byte 0x01
            0x006a92ec      .byte 0x00
            0x006a92ed      .byte 0x00
            0x006a92ee      .byte 0x00
            0x006a92ef      .byte 0xd1
            0x006a92f0      .byte 0x00
            0x006a92f1      .byte 0x00
            0x006a92f2      .byte 0x00
            0x006a92f3      .byte 0x00
            0x006a92f4      .byte 0x00
            0x006a92f5      .byte 0x00
            0x006a92f6      .byte 0x00
            0x006a92f7      .byte 0x00
            0x006a92f8      .byte 0x19
            0x006a92f9     .string " *FROM *{?*} *TO  *{?*} *" ; len=25
            0x006a9312      .byte 0x2c
            0x006a9313     .string "a-z][A-Za-z]}[~A-Za-z0-9]*{[0-9][0-9]*}[~A-Z" ; len=44
            0x006a933f      .byte 0x61
            0x006a9340     .string "-z0-9]*{[0-9][0-9]*} *{?*}," ; len=27
            0x006a935b      .byte 0x00
            0x006a935c      .byte 0x00
            0x006a935d      .byte 0x00
            0x006a935e      .byte 0x00
            0x006a935f      .byte 0x00
            0x006a9360      .byte 0x00
            0x006a9361      .byte 0x00
            0x006a9362      .byte 0x00
            0x006a9363      .byte 0x00
            0x006a9364      .byte 0x00
            0x006a9365      .byte 0x00
            0x006a9366      .byte 0x00
            0x006a9367      .byte 0x00
            0x006a9368      .byte 0x00
            0x006a9369      .byte 0x00
            0x006a936a      .byte 0x00
            0x006a936b      .byte 0x00
            0x006a936c      .byte 0x00
            0x006a936d      .byte 0x00
            0x006a936e      .byte 0x00
            0x006a936f      .byte 0x00
            0x006a9370      .byte 0x00
            0x006a9371      .byte 0x00
            0x006a9372      .byte 0x00
            0x006a9373      .byte 0x00
            0x006a9374      .byte 0x00
            0x006a9375      .byte 0x00
            0x006a9376      .byte 0x00
            0x006a9377      .byte 0x00
            0x006a9378      .byte 0x00
            0x006a9379      .byte 0x00
            0x006a937a      .byte 0x00
            0x006a937b      .byte 0x00
            0x006a937c      .byte 0x00
            0x006a937d      .byte 0x00
            0x006a937e      .byte 0x00
            0x006a937f      .byte 0x00
            0x006a9380      .byte 0x00
            0x006a9381      .byte 0x00
            0x006a9382      .byte 0x00
            0x006a9383      .byte 0x00
            0x006a9384      .byte 0x00
            0x006a9385      .byte 0x00
            0x006a9386      .byte 0x00
            0x006a9387      .byte 0x00
            0x006a9388      .byte 0x00
            0x006a9389      .byte 0x00
            0x006a938a      .byte 0x00
            0x006a938b      .byte 0x00
            0x006a938c      .byte 0x00
            0x006a938d      .byte 0x00
            0x006a938e      .byte 0x00
            0x006a938f      .byte 0x00
            0x006a9390      .byte 0x00
            0x006a9391      .byte 0x00
            0x006a9392      .byte 0x00
            0x006a9393      .byte 0x00
            0x006a9394      .byte 0x00
            0x006a9395      .byte 0x00
            0x006a9396      .byte 0x00
            0x006a9397      .byte 0x00
            0x006a9398      .byte 0x00
            0x006a9399      .byte 0x0e
            0x006a939a     .string " *FROM *{?*} *" ; len=14
            0x006a93a8      .byte 0x2c
            0x006a93a9     .string ",,9][0-9]*}[~A-Za-z0-9]*{[0-9][0-9]*}[~A-Za-" ; len=44
            0x006a93d5      .byte 0x7a
            0x006a93d6     .string "0-9]{[0-9][0-9]*} *{?*}," ; len=24
            0x006a93ee      .byte 0x00
            0x006a93ef      .byte 0x00
            0x006a93f0      .byte 0x00
            0x006a93f1      .byte 0x00
            0x006a93f2      .byte 0x00
            0x006a93f3      .byte 0x00
            0x006a93f4      .byte 0x00
            0x006a93f5      .byte 0x00
            0x006a93f6      .byte 0x00
            0x006a93f7      .byte 0x00
            0x006a93f8      .byte 0x0e
            0x006a93f9     .string " *FROM *{?*} *" ; len=14
            0x006a9407      .byte 0x2c
            0x006a9408     .string ",,9][0-9]*}[~A-Za-z0-9]*{[0-9][0-9]*}[~A-Za-" ; len=44
            0x006a9434      .byte 0x7a
            0x006a9435     .string "0-9]{[0-9][0-9]*} *{?*}," ; len=24
            0x006a944d      .byte 0x00
            0x006a944e      .byte 0x00
            0x006a944f      .byte 0x00
            0x006a9450      .byte 0x00
            0x006a9451      .byte 0x00
            0x006a9452      .byte 0x00
            0x006a9453      .byte 0x00
            0x006a9454      .byte 0x00
            0x006a9455      .byte 0x00
            0x006a9456      .byte 0x00
            0x006a9457      .byte 0x00
            0x006a9458      .byte 0x00
            0x006a9459      .byte 0x00
            0x006a945a      .byte 0x00
            0x006a945b      .byte 0x00
            0x006a945c      .byte 0x00
            0x006a945d      .byte 0x00
            0x006a945e      .byte 0x00
            0x006a945f      .byte 0x00
            0x006a9460      .byte 0x00
            0x006a9461      .byte 0x00
            0x006a9462      .byte 0x00
            0x006a9463      .byte 0x00
            0x006a9464      .byte 0x00
            0x006a9465      .byte 0x00
            0x006a9466      .byte 0x00
            0x006a9467      .byte 0x00
            0x006a9468      .byte 0x00
            0x006a9469      .byte 0x00
            0x006a946a      .byte 0x00
            0x006a946b      .byte 0x00
            0x006a946c      .byte 0x00
            0x006a946d      .byte 0x00
            0x006a946e      .byte 0x00
            0x006a946f      .byte 0x00
            0x006a9470      .byte 0x00
            0x006a9471      .byte 0x00
            0x006a9472      .byte 0x00
            0x006a9473      .byte 0x00
            0x006a9474      .byte 0x00
            0x006a9475      .byte 0x00
            0x006a9476      .byte 0x00
            0x006a9477      .byte 0x00
            0x006a9478      .byte 0x00
            0x006a9479      .byte 0x00
            0x006a947a      .byte 0x00
            0x006a947b      .byte 0x00
            0x006a947c      .byte 0x00
            0x006a947d      .byte 0x00
            0x006a947e      .byte 0x00
            0x006a947f      .byte 0x00
            0x006a9480      .byte 0x00
            0x006a9481      .byte 0x00
            0x006a9482      .byte 0x00
            0x006a9483      .byte 0x00
            0x006a9484      .byte 0x00
            0x006a9485      .byte 0x00
            0x006a9486      .byte 0x00
            0x006a9487      .byte 0x00
            0x006a9488      .byte 0x00
            0x006a9489      .byte 0x00
            0x006a948a      .byte 0x00
            0x006a948b      .byte 0x00
            0x006a948c      .byte 0x00
            0x006a948d      .byte 0x00
            0x006a948e      .byte 0x00
            0x006a948f      .byte 0x00
            0x006a9490      .byte 0x00
            0x006a9491      .byte 0x00
            0x006a9492      .byte 0x00
            0x006a9493      .byte 0x00
            0x006a9494      .byte 0x00
            0x006a9495      .byte 0x00
            0x006a9496      .byte 0x00
            0x006a9497      .byte 0x00
            0x006a9498      .byte 0x00
            0x006a9499      .byte 0x00
            0x006a949a      .byte 0x00
            0x006a949b      .byte 0x00
            0x006a949c      .byte 0x00
            0x006a949d      .byte 0x00
            0x006a949e      .byte 0x00
            0x006a949f      .byte 0x00
            0x006a94a0      .byte 0x00
            0x006a94a1      .byte 0x00
            0x006a94a2      .byte 0x00
            0x006a94a3      .byte 0x00
            0x006a94a4      .byte 0x00
            0x006a94a5      .byte 0x00
            0x006a94a6      .byte 0x00
            0x006a94a7      .byte 0x00
            0x006a94a8      .byte 0x00
            0x006a94a9      .byte 0x00
            0x006a94aa      .byte 0x00
            0x006a94ab      .byte 0x1d
            0x006a94ac      .byte 0x21
            0x006a94ad      .byte 0x00
            0x006a94ae      .byte 0x00
            0x006a94af      .byte 0x01
            0x006a94b0      .byte 0x00
            0x006a94b1      .byte 0x00
            0x006a94b2      .byte 0x00
            0x006a94b3      .byte 0x44
            0x006a94b4      .byte 0x03
            0x006a94b5      .byte 0x00
            0x006a94b6      .byte 0x00
            0x006a94b7      .byte 0x00
            0x006a94b8      .byte 0x00
            0x006a94b9      .byte 0x00
            0x006a94ba      .byte 0x00
            0x006a94bb      .byte 0x00
            0x006a94bc      .byte 0x00
            0x006a94bd      .byte 0x00
            0x006a94be      .byte 0x00
            0x006a94bf      .byte 0x00
            0x006a94c0      .byte 0x00
            0x006a94c1      .byte 0x00
            0x006a94c2      .byte 0x00
            0x006a94c3      .byte 0x00
            0x006a94c4      .byte 0x00
            0x006a94c5      .byte 0x00
            0x006a94c6      .byte 0x00
            0x006a94c7      .byte 0x00
            0x006a94c8      .byte 0x00
            0x006a94c9      .byte 0x00
            0x006a94ca      .byte 0x00
            0x006a94cb      .byte 0x00
            0x006a94cc      .byte 0x00
            0x006a94cd      .byte 0x00
            0x006a94ce      .byte 0x00
            0x006a94cf      .byte 0x00
            0x006a94d0      .byte 0x00
            0x006a94d1      .byte 0x00
            0x006a94d2      .byte 0x00
            0x006a94d3      .byte 0x00
            0x006a94d4      .byte 0x00
            0x006a94d5      .byte 0x00
            0x006a94d6      .byte 0x00
            0x006a94d7      .byte 0x00
            0x006a94d8      .byte 0x00
            0x006a94d9      .byte 0x00
            0x006a94da      .byte 0x00
            0x006a94db      .byte 0x00
            0x006a94dc      .byte 0x00
            0x006a94dd      .byte 0x00
            0x006a94de      .byte 0x00
            0x006a94df      .byte 0x00
            0x006a94e0      .byte 0x00
            0x006a94e1      .byte 0x00
            0x006a94e2      .byte 0x00
            0x006a94e3      .byte 0x00
            0x006a94e4      .byte 0x00
            0x006a94e5      .byte 0x00
            0x006a94e6      .byte 0x00
            0x006a94e7      .byte 0x65
            0x006a94e8      .byte 0x06
            0x006a94e9      .byte 0x00
            0x006a94ea      .byte 0x00
            0x006a94eb      .byte 0x01
            0x006a94ec      .byte 0x00
            0x006a94ed      .byte 0x00
            0x006a94ee      .byte 0x00
            0x006a94ef      .byte 0xd1
            0x006a94f0      .byte 0x00
            0x006a94f1      .byte 0x00
            0x006a94f2      .byte 0x00
            0x006a94f3      .byte 0x00
            0x006a94f4      .byte 0x00
            0x006a94f5      .byte 0x00
            0x006a94f6      .byte 0x00
            0x006a94f7      .byte 0x00
            0x006a94f8      .byte 0x0f
            0x006a94f9     .string " *SINCE *{?*} *" ; len=15
            0x006a9508      .byte 0x2c
            0x006a9509     .string "  *{?*} *,a-z][A-Za-z]}[~A-Za-z0-9]*{[0-9][0" ; len=44
            0x006a9535      .byte 0x2d
            0x006a9536     .string "9]*}[~A-Za-z0-9]*{[0-9][0-9]*} *{?*}," ; len=37
            0x006a955b      .byte 0x00
            0x006a955c      .byte 0x00
            0x006a955d      .byte 0x00
            0x006a955e      .byte 0x00
            0x006a955f      .byte 0x00
            0x006a9560      .byte 0x00
            0x006a9561      .byte 0x00
            0x006a9562      .byte 0x00
            0x006a9563      .byte 0x00
            0x006a9564      .byte 0x00
            0x006a9565      .byte 0x00
            0x006a9566      .byte 0x00
            0x006a9567      .byte 0x00
            0x006a9568      .byte 0x00
            0x006a9569      .byte 0x00
            0x006a956a      .byte 0x00
            0x006a956b      .byte 0x00
            0x006a956c      .byte 0x00
            0x006a956d      .byte 0x00
            0x006a956e      .byte 0x00
            0x006a956f      .byte 0x00
            0x006a9570      .byte 0x00
            0x006a9571      .byte 0x00
            0x006a9572      .byte 0x00
            0x006a9573      .byte 0x00
            0x006a9574      .byte 0x00
            0x006a9575      .byte 0x00
            0x006a9576      .byte 0x00
            0x006a9577      .byte 0x00
            0x006a9578      .byte 0x00
            0x006a9579      .byte 0x00
            0x006a957a      .byte 0x00
            0x006a957b      .byte 0x00
            0x006a957c      .byte 0x00
            0x006a957d      .byte 0x00
            0x006a957e      .byte 0x00
            0x006a957f      .byte 0x00
            0x006a9580      .byte 0x00
            0x006a9581      .byte 0x00
            0x006a9582      .byte 0x00
            0x006a9583      .byte 0x00
            0x006a9584      .byte 0x00
            0x006a9585      .byte 0x00
            0x006a9586      .byte 0x00
            0x006a9587      .byte 0x00
            0x006a9588      .byte 0x00
            0x006a9589      .byte 0x00
            0x006a958a      .byte 0x00
            0x006a958b      .byte 0x00
            0x006a958c      .byte 0x00
            0x006a958d      .byte 0x00
            0x006a958e      .byte 0x00
            0x006a958f      .byte 0x00
            0x006a9590      .byte 0x00
            0x006a9591      .byte 0x00
            0x006a9592      .byte 0x00
            0x006a9593      .byte 0x00
            0x006a9594      .byte 0x00
            0x006a9595      .byte 0x00
            0x006a9596      .byte 0x00
            0x006a9597      .byte 0x00
            0x006a9598      .byte 0x00
            0x006a9599      .byte 0x13
            0x006a959a     .string " *{?*} *TO  *{?*} *" ; len=19
            0x006a95ad      .byte 0x2c
            0x006a95ae     .string "0-9]*}[~A-Za-z0-9]*{[0-9][0-9]*}[~A-Za-z0-9]" ; len=44
            0x006a95da      .byte 0x7b
            0x006a95db     .string "[0-9][0-9]*} *{?*}," ; len=19
            0x006a95ee      .byte 0x00
            0x006a95ef      .byte 0x00
            0x006a95f0      .byte 0x00
            0x006a95f1      .byte 0x00
            0x006a95f2      .byte 0x00
            0x006a95f3      .byte 0x00
            0x006a95f4      .byte 0x00
            0x006a95f5      .byte 0x00
            0x006a95f6      .byte 0x00
            0x006a95f7      .byte 0x00
            0x006a95f8      .byte 0x13
            0x006a95f9     .string " *{?*} *TO  *{?*} *" ; len=19
            0x006a960c      .byte 0x2c
            0x006a960d     .string "0-9]*}[~A-Za-z0-9]*{[0-9][0-9]*}[~A-Za-z0-9]" ; len=44
            0x006a9639      .byte 0x7b
            0x006a963a     .string "[0-9][0-9]*} *{?*}," ; len=19
            0x006a964d      .byte 0x00
            0x006a964e      .byte 0x00
            0x006a964f      .byte 0x00
            0x006a9650      .byte 0x00
            0x006a9651      .byte 0x00
            0x006a9652      .byte 0x00
            0x006a9653      .byte 0x00
            0x006a9654      .byte 0x00
            0x006a9655      .byte 0x00
            0x006a9656      .byte 0x00
            0x006a9657      .byte 0x00
            0x006a9658      .byte 0x00
            0x006a9659      .byte 0x00
            0x006a965a      .byte 0x00
            0x006a965b      .byte 0x00
            0x006a965c      .byte 0x00
            0x006a965d      .byte 0x00
            0x006a965e      .byte 0x00
            0x006a965f      .byte 0x00
            0x006a9660      .byte 0x00
            0x006a9661      .byte 0x00
            0x006a9662      .byte 0x00
            0x006a9663      .byte 0x00
            0x006a9664      .byte 0x00
            0x006a9665      .byte 0x00
            0x006a9666      .byte 0x00
            0x006a9667      .byte 0x00
            0x006a9668      .byte 0x00
            0x006a9669      .byte 0x00
            0x006a966a      .byte 0x00
            0x006a966b      .byte 0x00
            0x006a966c      .byte 0x00
            0x006a966d      .byte 0x00
            0x006a966e      .byte 0x00
            0x006a966f      .byte 0x00
            0x006a9670      .byte 0x00
            0x006a9671      .byte 0x00
            0x006a9672      .byte 0x00
            0x006a9673      .byte 0x00
            0x006a9674      .byte 0x00
            0x006a9675      .byte 0x00
            0x006a9676      .byte 0x00
            0x006a9677      .byte 0x00
            0x006a9678      .byte 0x00
            0x006a9679      .byte 0x00
            0x006a967a      .byte 0x00
            0x006a967b      .byte 0x00
            0x006a967c      .byte 0x00
            0x006a967d      .byte 0x00
            0x006a967e      .byte 0x00
            0x006a967f      .byte 0x00
            0x006a9680      .byte 0x00
            0x006a9681      .byte 0x00
            0x006a9682      .byte 0x00
            0x006a9683      .byte 0x00
            0x006a9684      .byte 0x00
            0x006a9685      .byte 0x00
            0x006a9686      .byte 0x00
            0x006a9687      .byte 0x00
            0x006a9688      .byte 0x00
            0x006a9689      .byte 0x00
            0x006a968a      .byte 0x00
            0x006a968b      .byte 0x00
            0x006a968c      .byte 0x00
            0x006a968d      .byte 0x00
            0x006a968e      .byte 0x00
            0x006a968f      .byte 0x00
            0x006a9690      .byte 0x00
            0x006a9691      .byte 0x00
            0x006a9692      .byte 0x00
            0x006a9693      .byte 0x00
            0x006a9694      .byte 0x00
            0x006a9695      .byte 0x00
            0x006a9696      .byte 0x00
            0x006a9697      .byte 0x00
            0x006a9698      .byte 0x00
            0x006a9699      .byte 0x00
            0x006a969a      .byte 0x00
            0x006a969b      .byte 0x00
            0x006a969c      .byte 0x00
            0x006a969d      .byte 0x00
            0x006a969e      .byte 0x00
            0x006a969f      .byte 0x00
            0x006a96a0      .byte 0x00
            0x006a96a1      .byte 0x00
            0x006a96a2      .byte 0x00
            0x006a96a3      .byte 0x00
            0x006a96a4      .byte 0x00
            0x006a96a5      .byte 0x00
            0x006a96a6      .byte 0x00
            0x006a96a7      .byte 0x00
            0x006a96a8      .byte 0x00
            0x006a96a9      .byte 0x00
            0x006a96aa      .byte 0x00
            0x006a96ab      .byte 0x1d
            0x006a96ac      .byte 0x21
            0x006a96ad      .byte 0x00
            0x006a96ae      .byte 0x00
            0x006a96af      .byte 0x01
            0x006a96b0      .byte 0x00
            0x006a96b1      .byte 0x00
            0x006a96b2      .byte 0x00
            0x006a96b3      .byte 0x44
            0x006a96b4      .byte 0x03
            0x006a96b5      .byte 0x00
            0x006a96b6      .byte 0x00
            0x006a96b7      .byte 0x00
            0x006a96b8      .byte 0x00
            0x006a96b9      .byte 0x00
            0x006a96ba      .byte 0x00
            0x006a96bb      .byte 0x00
            0x006a96bc      .byte 0x00
            0x006a96bd      .byte 0x00
            0x006a96be      .byte 0x00
            0x006a96bf      .byte 0x00
            0x006a96c0      .byte 0x00
            0x006a96c1      .byte 0x00
            0x006a96c2      .byte 0x00
            0x006a96c3      .byte 0x00
            0x006a96c4      .byte 0x00
            0x006a96c5      .byte 0x00
            0x006a96c6      .byte 0x00
            0x006a96c7      .byte 0x00
            0x006a96c8      .byte 0x00
            0x006a96c9      .byte 0x00
            0x006a96ca      .byte 0x00
            0x006a96cb      .byte 0x00
            0x006a96cc      .byte 0x00
            0x006a96cd      .byte 0x00
            0x006a96ce      .byte 0x00
            0x006a96cf      .byte 0x00
            0x006a96d0      .byte 0x00
            0x006a96d1      .byte 0x00
            0x006a96d2      .byte 0x00
            0x006a96d3      .byte 0x00
            0x006a96d4      .byte 0x00
            0x006a96d5      .byte 0x00
            0x006a96d6      .byte 0x00
            0x006a96d7      .byte 0x00
            0x006a96d8      .byte 0x00
            0x006a96d9      .byte 0x00
            0x006a96da      .byte 0x00
            0x006a96db      .byte 0x00
            0x006a96dc      .byte 0x00
            0x006a96dd      .byte 0x00
            0x006a96de      .byte 0x00
            0x006a96df      .byte 0x00
            0x006a96e0      .byte 0x00
            0x006a96e1      .byte 0x00
            0x006a96e2      .byte 0x00
            0x006a96e3      .byte 0x00
            0x006a96e4      .byte 0x00
            0x006a96e5      .byte 0x00
            0x006a96e6      .byte 0x00
            0x006a96e7      .byte 0x65
            0x006a96e8      .byte 0x06
            0x006a96e9      .byte 0x00
            0x006a96ea      .byte 0x00
            0x006a96eb      .byte 0x01
            0x006a96ec      .byte 0x00
            0x006a96ed      .byte 0x00
            0x006a96ee      .byte 0x00
            0x006a96ef      .byte 0xd1
            0x006a96f0      .byte 0x00
            0x006a96f1      .byte 0x00
            0x006a96f2      .byte 0x00
            0x006a96f3      .byte 0x00
            0x006a96f4      .byte 0x00
            0x006a96f5      .byte 0x00
            0x006a96f6      .byte 0x00
            0x006a96f7      .byte 0x00
            0x006a96f8      .byte 0x1c
            0x006a96f9     .string " *BETWEEN *{?*} *AND *{?*} *" ; len=28
            0x006a9715      .byte 0x2c
            0x006a9716     .string "][A-Za-z]}[~A-Za-z0-9]*{[0-9][0-9]*}[~A-Za-z" ; len=44
            0x006a9742      .byte 0x30
            0x006a9743     .string "-9]*{[0-9][0-9]*} *{?*}," ; len=24
            0x006a975b      .byte 0x00
            0x006a975c      .byte 0x00
            0x006a975d      .byte 0x00
            0x006a975e      .byte 0x00
            0x006a975f      .byte 0x00
            0x006a9760      .byte 0x00
            0x006a9761      .byte 0x00
            0x006a9762      .byte 0x00
            0x006a9763      .byte 0x00
            0x006a9764      .byte 0x00
            0x006a9765      .byte 0x00
            0x006a9766      .byte 0x00
            0x006a9767      .byte 0x00
            0x006a9768      .byte 0x00
            0x006a9769      .byte 0x00
            0x006a976a      .byte 0x00
            0x006a976b      .byte 0x00
            0x006a976c      .byte 0x00
            0x006a976d      .byte 0x00
            0x006a976e      .byte 0x00
            0x006a976f      .byte 0x00
            0x006a9770      .byte 0x00
            0x006a9771      .byte 0x00
            0x006a9772      .byte 0x00
            0x006a9773      .byte 0x00
            0x006a9774      .byte 0x00
            0x006a9775      .byte 0x00
            0x006a9776      .byte 0x00
            0x006a9777      .byte 0x00
            0x006a9778      .byte 0x00
            0x006a9779      .byte 0x00
            0x006a977a      .byte 0x00
            0x006a977b      .byte 0x00
            0x006a977c      .byte 0x00
            0x006a977d      .byte 0x00
            0x006a977e      .byte 0x00
            0x006a977f      .byte 0x00
            0x006a9780      .byte 0x00
            0x006a9781      .byte 0x00
            0x006a9782      .byte 0x00
            0x006a9783      .byte 0x00
            0x006a9784      .byte 0x00
            0x006a9785      .byte 0x00
            0x006a9786      .byte 0x00
            0x006a9787      .byte 0x00
            0x006a9788      .byte 0x00
            0x006a9789      .byte 0x00
            0x006a978a      .byte 0x00
            0x006a978b      .byte 0x00
            0x006a978c      .byte 0x00
            0x006a978d      .byte 0x00
            0x006a978e      .byte 0x00
            0x006a978f      .byte 0x00
            0x006a9790      .byte 0x00
            0x006a9791      .byte 0x00
            0x006a9792      .byte 0x00
            0x006a9793      .byte 0x00
            0x006a9794      .byte 0x00
            0x006a9795      .byte 0x00
            0x006a9796      .byte 0x00
            0x006a9797      .byte 0x00
            0x006a9798      .byte 0x00
            0x006a9799      .byte 0x14
            0x006a979a     .string " *{?*} *THRU *{?*} *" ; len=20
            0x006a97ae      .byte 0x2c
            0x006a97af     .string "-9]*}[~A-Za-z0-9]*{[0-9][0-9]*}[~A-Za-z0-9]{" ; len=44
            0x006a97db      .byte 0x5b
            0x006a97dc     .string "0-9][0-9]*} *{?*}," ; len=18
            0x006a97ee      .byte 0x00
            0x006a97ef      .byte 0x00
            0x006a97f0      .byte 0x00
            0x006a97f1      .byte 0x00
            0x006a97f2      .byte 0x00
            0x006a97f3      .byte 0x00
            0x006a97f4      .byte 0x00
            0x006a97f5      .byte 0x00
            0x006a97f6      .byte 0x00
            0x006a97f7      .byte 0x00
            0x006a97f8      .byte 0x14
            0x006a97f9     .string " *{?*} *THRU *{?*} *" ; len=20
            0x006a980d      .byte 0x2c
            0x006a980e     .string "-9]*}[~A-Za-z0-9]*{[0-9][0-9]*}[~A-Za-z0-9]{" ; len=44
            0x006a983a      .byte 0x5b
            0x006a983b     .string "0-9][0-9]*} *{?*}," ; len=18
            0x006a984d      .byte 0x00
            0x006a984e      .byte 0x00
            0x006a984f      .byte 0x00
            0x006a9850      .byte 0x00
            0x006a9851      .byte 0x00
            0x006a9852      .byte 0x00
            0x006a9853      .byte 0x00
            0x006a9854      .byte 0x00
            0x006a9855      .byte 0x00
            0x006a9856      .byte 0x00
            0x006a9857      .byte 0x00
            0x006a9858      .byte 0x00
            0x006a9859      .byte 0x00
            0x006a985a      .byte 0x00
            0x006a985b      .byte 0x00
            0x006a985c      .byte 0x00
            0x006a985d      .byte 0x00
            0x006a985e      .byte 0x00
            0x006a985f      .byte 0x00
            0x006a9860      .byte 0x00
            0x006a9861      .byte 0x00
            0x006a9862      .byte 0x00
            0x006a9863      .byte 0x00
            0x006a9864      .byte 0x00
            0x006a9865      .byte 0x00
            0x006a9866      .byte 0x00
            0x006a9867      .byte 0x00
            0x006a9868      .byte 0x00
            0x006a9869      .byte 0x00
            0x006a986a      .byte 0x00
            0x006a986b      .byte 0x00
            0x006a986c      .byte 0x00
            0x006a986d      .byte 0x00
            0x006a986e      .byte 0x00
            0x006a986f      .byte 0x00
            0x006a9870      .byte 0x00
            0x006a9871      .byte 0x00
            0x006a9872      .byte 0x00
            0x006a9873      .byte 0x00
            0x006a9874      .byte 0x00
            0x006a9875      .byte 0x00
            0x006a9876      .byte 0x00
            0x006a9877      .byte 0x00
            0x006a9878      .byte 0x00
            0x006a9879      .byte 0x00
            0x006a987a      .byte 0x00
            0x006a987b      .byte 0x00
            0x006a987c      .byte 0x00
            0x006a987d      .byte 0x00
            0x006a987e      .byte 0x00
            0x006a987f      .byte 0x00
            0x006a9880      .byte 0x00
            0x006a9881      .byte 0x00
            0x006a9882      .byte 0x00
            0x006a9883      .byte 0x00
            0x006a9884      .byte 0x00
            0x006a9885      .byte 0x00
            0x006a9886      .byte 0x00
            0x006a9887      .byte 0x00
            0x006a9888      .byte 0x00
            0x006a9889      .byte 0x00
            0x006a988a      .byte 0x00
            0x006a988b      .byte 0x00
            0x006a988c      .byte 0x00
            0x006a988d      .byte 0x00
            0x006a988e      .byte 0x00
            0x006a988f      .byte 0x00
            0x006a9890      .byte 0x00
            0x006a9891      .byte 0x00
            0x006a9892      .byte 0x00
            0x006a9893      .byte 0x00
            0x006a9894      .byte 0x00
            0x006a9895      .byte 0x00
            0x006a9896      .byte 0x00
            0x006a9897      .byte 0x00
            0x006a9898      .byte 0x00
            0x006a9899      .byte 0x00
            0x006a989a      .byte 0x00
            0x006a989b      .byte 0x00
            0x006a989c      .byte 0x00
            0x006a989d      .byte 0x00
            0x006a989e      .byte 0x00
            0x006a989f      .byte 0x00
            0x006a98a0      .byte 0x00
            0x006a98a1      .byte 0x00
            0x006a98a2      .byte 0x00
            0x006a98a3      .byte 0x00
            0x006a98a4      .byte 0x00
            0x006a98a5      .byte 0x00
            0x006a98a6      .byte 0x00
            0x006a98a7      .byte 0x00
            0x006a98a8      .byte 0x00
            0x006a98a9      .byte 0x00
            0x006a98aa      .byte 0x00
            0x006a98ab      .byte 0x1d
            0x006a98ac      .byte 0x21
            0x006a98ad      .byte 0x00
            0x006a98ae      .byte 0x00
            0x006a98af      .byte 0x01
            0x006a98b0      .byte 0x00
            0x006a98b1      .byte 0x00
            0x006a98b2      .byte 0x00
            0x006a98b3      .byte 0x44
            0x006a98b4      .byte 0x03
            0x006a98b5      .byte 0x00
            0x006a98b6      .byte 0x00
            0x006a98b7      .byte 0x00
            0x006a98b8      .byte 0x00
            0x006a98b9      .byte 0x00
            0x006a98ba      .byte 0x00
            0x006a98bb      .byte 0x00
            0x006a98bc      .byte 0x00
            0x006a98bd      .byte 0x00
            0x006a98be      .byte 0x00
            0x006a98bf      .byte 0x00
            0x006a98c0      .byte 0x00
            0x006a98c1      .byte 0x00
            0x006a98c2      .byte 0x00
            0x006a98c3      .byte 0x00
            0x006a98c4      .byte 0x00
            0x006a98c5      .byte 0x00
            0x006a98c6      .byte 0x00
            0x006a98c7      .byte 0x00
            0x006a98c8      .byte 0x00
            0x006a98c9      .byte 0x00
            0x006a98ca      .byte 0x00
            0x006a98cb      .byte 0x00
            0x006a98cc      .byte 0x00
            0x006a98cd      .byte 0x00
            0x006a98ce      .byte 0x00
            0x006a98cf      .byte 0x00
            0x006a98d0      .byte 0x00
            0x006a98d1      .byte 0x00
            0x006a98d2      .byte 0x00
            0x006a98d3      .byte 0x00
            0x006a98d4      .byte 0x00
            0x006a98d5      .byte 0x00
            0x006a98d6      .byte 0x00
            0x006a98d7      .byte 0x00
            0x006a98d8      .byte 0x00
            0x006a98d9      .byte 0x00
            0x006a98da      .byte 0x00
            0x006a98db      .byte 0x00
            0x006a98dc      .byte 0x00
            0x006a98dd      .byte 0x00
            0x006a98de      .byte 0x00
            0x006a98df      .byte 0x00
            0x006a98e0      .byte 0x00
            0x006a98e1      .byte 0x00
            0x006a98e2      .byte 0x00
            0x006a98e3      .byte 0x00
            0x006a98e4      .byte 0x00
            0x006a98e5      .byte 0x00
            0x006a98e6      .byte 0x00
            0x006a98e7      .byte 0x65
            0x006a98e8      .byte 0x06
            0x006a98e9      .byte 0x00
            0x006a98ea      .byte 0x00
            0x006a98eb      .byte 0x01
            0x006a98ec      .byte 0x00
            0x006a98ed      .byte 0x00
            0x006a98ee      .byte 0x00
            0x006a98ef      .byte 0xd1
            0x006a98f0      .byte 0x00
            0x006a98f1      .byte 0x00
            0x006a98f2      .byte 0x00
            0x006a98f3      .byte 0x00
            0x006a98f4      .byte 0x00
            0x006a98f5      .byte 0x00
            0x006a98f6      .byte 0x00
            0x006a98f7      .byte 0x00
            0x006a98f8      .byte 0x13
            0x006a98f9     .string " *{?*} *AND *{?*} *" ; len=19
            0x006a990c      .byte 0x29
            0x006a990d     .string " *{?*} *,][A-Za-z]}[~A-Za-z0-9]*{[0-9][0-" ; len=41
            0x006a9936      .byte 0x39
            0x006a9937     .string "]*}[~A-Za-z0-9]*{[0-9][0-9]*} *{?*}," ; len=36
            0x006a995b      .byte 0x00
            0x006a995c      .byte 0x00
            0x006a995d      .byte 0x00
            0x006a995e      .byte 0x00
            0x006a995f      .byte 0x00
            0x006a9960      .byte 0x00
            0x006a9961      .byte 0x00
            0x006a9962      .byte 0x00
            0x006a9963      .byte 0x00
            0x006a9964      .byte 0x00
            0x006a9965      .byte 0x00
            0x006a9966      .byte 0x00
            0x006a9967      .byte 0x00
            0x006a9968      .byte 0x00
            0x006a9969      .byte 0x00
            0x006a996a      .byte 0x00
            0x006a996b      .byte 0x00
            0x006a996c      .byte 0x00
            0x006a996d      .byte 0x00
            0x006a996e      .byte 0x00
            0x006a996f      .byte 0x00
            0x006a9970      .byte 0x00
            0x006a9971      .byte 0x00
            0x006a9972      .byte 0x00
            0x006a9973      .byte 0x00
            0x006a9974      .byte 0x00
            0x006a9975      .byte 0x00
            0x006a9976      .byte 0x00
            0x006a9977      .byte 0x00
            0x006a9978      .byte 0x00
            0x006a9979      .byte 0x00
            0x006a997a      .byte 0x00
            0x006a997b      .byte 0x00
            0x006a997c      .byte 0x00
            0x006a997d      .byte 0x00
            0x006a997e      .byte 0x00
            0x006a997f      .byte 0x00
            0x006a9980      .byte 0x00
            0x006a9981      .byte 0x00
            0x006a9982      .byte 0x00
            0x006a9983      .byte 0x00
            0x006a9984      .byte 0x00
            0x006a9985      .byte 0x00
            0x006a9986      .byte 0x00
            0x006a9987      .byte 0x00
            0x006a9988      .byte 0x00
            0x006a9989      .byte 0x00
            0x006a998a      .byte 0x00
            0x006a998b      .byte 0x00
            0x006a998c      .byte 0x00
            0x006a998d      .byte 0x00
            0x006a998e      .byte 0x00
            0x006a998f      .byte 0x00
            0x006a9990      .byte 0x00
            0x006a9991      .byte 0x00
            0x006a9992      .byte 0x00
            0x006a9993      .byte 0x00
            0x006a9994      .byte 0x00
            0x006a9995      .byte 0x00
            0x006a9996      .byte 0x00
            0x006a9997      .byte 0x00
            0x006a9998      .byte 0x00
            0x006a9999      .byte 0x14
            0x006a999a     .string " *{?*} *THRU *{?*} *" ; len=20
            0x006a99ae      .byte 0x2c
            0x006a99af     .string "-9]*}[~A-Za-z0-9]*{[0-9][0-9]*}[~A-Za-z0-9]{" ; len=44
            0x006a99db      .byte 0x5b
            0x006a99dc     .string "0-9][0-9]*} *{?*}," ; len=18
            0x006a99ee      .byte 0x00
            0x006a99ef      .byte 0x00
            0x006a99f0      .byte 0x00
            0x006a99f1      .byte 0x00
            0x006a99f2      .byte 0x00
            0x006a99f3      .byte 0x00
            0x006a99f4      .byte 0x00
            0x006a99f5      .byte 0x00
            0x006a99f6      .byte 0x00
            0x006a99f7      .byte 0x00
            0x006a99f8      .byte 0x00
            0x006a99f9      .byte 0x00
            0x006a99fa      .byte 0x00
            0x006a99fb      .byte 0x00
            0x006a99fc      .byte 0x00
            0x006a99fd      .byte 0x00
            0x006a99fe      .byte 0x00
            0x006a99ff      .byte 0x00
            0x006a9a00      .byte 0xfe
            0x006a9a01      .byte 0xff
            0x006a9a02      .byte 0xff
            0x006a9a03      .byte 0x07
            0x006a9a04      .byte 0x00
            0x006a9a05      .byte 0x00
            0x006a9a06      .byte 0x00
            0x006a9a07      .byte 0x00
            0x006a9a08      .byte 0x00
            0x006a9a09      .byte 0x00
            0x006a9a0a      .byte 0x00
            0x006a9a0b      .byte 0x00
            0x006a9a0c      .byte 0x00
            0x006a9a0d      .byte 0x00
            0x006a9a0e      .byte 0x00
            0x006a9a0f      .byte 0x00
            0x006a9a10      .byte 0x00
            0x006a9a11      .byte 0x00
            0x006a9a12      .byte 0x00
            0x006a9a13      .byte 0x00
            0x006a9a14      .byte 0x00
            0x006a9a15      .byte 0x00
            0x006a9a16      .byte 0x00
            0x006a9a17      .byte 0x00
            0x006a9a18      .byte 0x0c
            0x006a9a19     .string "Day_of_week " ; len=12
            0x006a9a25      .byte 0x04
            0x006a9a26      .byte 0x73
            0x006a9a27      .byte 0x75
            0x006a9a28      .byte 0x6e
            0x006a9a29      .byte 0x20
            0x006a9a2a      .byte 0x04
            0x006a9a2b      .byte 0x6d
            0x006a9a2c      .byte 0x6f
            0x006a9a2d      .byte 0x6e
            0x006a9a2e      .byte 0x20
            0x006a9a2f      .byte 0x04
            0x006a9a30      .byte 0x74
            0x006a9a31      .byte 0x75
            0x006a9a32      .byte 0x65
            0x006a9a33      .byte 0x20
            0x006a9a34      .byte 0x04
            0x006a9a35      .byte 0x77
            0x006a9a36      .byte 0x65
            0x006a9a37      .byte 0x64
            0x006a9a38      .byte 0x20
            0x006a9a39      .byte 0x04
            0x006a9a3a      .byte 0x74
            0x006a9a3b      .byte 0x68
            0x006a9a3c      .byte 0x75
            0x006a9a3d      .byte 0x20
            0x006a9a3e      .byte 0x04
            0x006a9a3f      .byte 0x66
            0x006a9a40      .byte 0x72
            0x006a9a41      .byte 0x69
            0x006a9a42      .byte 0x20
            0x006a9a43      .byte 0x04
            0x006a9a44      .byte 0x73
            0x006a9a45      .byte 0x61
            0x006a9a46      .byte 0x74
            0x006a9a47      .byte 0x20
            0x006a9a48      .byte 0x03
            0x006a9a49      .byte 0x3f
            0x006a9a4a      .byte 0x3f
            0x006a9a4b      .byte 0x3f
            0x006a9a4c      .byte 0x16
            0x006a9a4d     .string "Day of week returning " ; len=22
            0x006a9a63      .byte 0x11
            0x006a9a64     .string " (Sun=0 to Sat=6)" ; len=17
            0x006a9a75      .byte 0x09
            0x006a9a76     .string "date_inc " ; len=9
            0x006a9a7f      .byte 0x13
            0x006a9a80     .string "date_inc returning " ; len=19
            0x006a9a93      .byte 0x09
            0x006a9a94     .string "date_inc " ; len=9
            0x006a9a9d      .byte 0x13
            0x006a9a9e     .string "date_inc returning " ; len=19
            0x006a9ab1      .byte 0x0d
            0x006a9ab2     .string "date_today = " ; len=13
            0x006a9abf      .byte 0x08
            0x006a9ac0     .string "returns " ; len=8
            0x006a9ac8      .byte 0x09
            0x006a9ac9     .string "str_date " ; len=9
            0x006a9ad2      .byte 0x0a
            0x006a9ad3     .string " with day " ; len=10
            0x006a9add      .byte 0x08
            0x006a9ade     .string "dd mm yy" ; len=8
            0x006a9ae6      .byte 0x04
            0x006a9ae7      .byte 0x6e
            0x006a9ae8      .byte 0x6f
            0x006a9ae9      .byte 0x6e
            0x006a9aea      .byte 0x65
            0x006a9aeb      .byte 0x0d
            0x006a9aec     .string "@D02-@S1-@D24" ; len=13
            0x006a9af9      .byte 0x0d
            0x006a9afa     .string "@D01-@S1-@D24" ; len=13
            0x006a9b07      .byte 0x0d
            0x006a9b08     .string "@S0-@D12-@D24" ; len=13
            0x006a9b15      .byte 0x0d
            0x006a9b16     .string "@S0-@D11-@D24" ; len=13
            0x006a9b23      .byte 0x04
            0x006a9b24      .byte 0x6e
            0x006a9b25      .byte 0x6f
            0x006a9b26      .byte 0x6e
            0x006a9b27      .byte 0x65
            0x006a9b28      .byte 0x13
            0x006a9b29     .string "str_date returning " ; len=19
            0x006a9b3c      .byte 0x0d
            0x006a9b3d     .string "date_parser '" ; len=13
            0x006a9b4a      .byte 0x10
            0x006a9b4b     .string "Date matched is " ; len=16
            0x006a9b5b      .byte 0x05
            0x006a9b5c     .string "PAL, " ; len=5
            0x006a9b61      .byte 0x06
            0x006a9b62     .string "NTSC, " ; len=6
            0x006a9b68      .byte 0x06
            0x006a9b69     .string "dual, " ; len=6
            0x006a9b6f      .byte 0x0f
            0x006a9b70     .string "with text month" ; len=15
            0x006a9b7f      .byte 0x12
            0x006a9b80     .string "with numeric month" ; len=18
            0x006a9b92      .byte 0x02
            0x006a9b93      .byte 0x40
            0x006a9b94      .byte 0x33
            0x006a9b95      .byte 0x00
            0x006a9b96      .byte 0x02
            0x006a9b97      .byte 0x40
            0x006a9b98      .byte 0x31
            0x006a9b99      .byte 0x02
            0x006a9b9a      .byte 0x40
            0x006a9b9b      .byte 0x32
            0x006a9b9c      .byte 0x02
            0x006a9b9d      .byte 0x40
            0x006a9b9e      .byte 0x34
            0x006a9b9f      .byte 0x02
            0x006a9ba0      .byte 0x40
            0x006a9ba1      .byte 0x32
            0x006a9ba2      .byte 0x02
            0x006a9ba3      .byte 0x40
            0x006a9ba4      .byte 0x31
            0x006a9ba5      .byte 0x02
            0x006a9ba6      .byte 0x40
            0x006a9ba7      .byte 0x34
            0x006a9ba8      .byte 0x02
            0x006a9ba9      .byte 0x40
            0x006a9baa      .byte 0x31
            0x006a9bab      .byte 0x02
            0x006a9bac      .byte 0x40
            0x006a9bad      .byte 0x32
            0x006a9bae      .byte 0x02
            0x006a9baf      .byte 0x40
            0x006a9bb0      .byte 0x34
            0x006a9bb1      .byte 0x02
            0x006a9bb2      .byte 0x40
            0x006a9bb3      .byte 0x32
            0x006a9bb4      .byte 0x02
            0x006a9bb5      .byte 0x40
            0x006a9bb6      .byte 0x31
            0x006a9bb7      .byte 0x02
            0x006a9bb8      .byte 0x40
            0x006a9bb9      .byte 0x34
            0x006a9bba      .byte 0x06
            0x006a9bbb     .string "Time <" ; len=6
            0x006a9bc1      .byte 0x00
            0x006a9bc2      .byte 0x02
            0x006a9bc3      .byte 0x40
            0x006a9bc4      .byte 0x31
            0x006a9bc5      .byte 0x02
            0x006a9bc6      .byte 0x40
            0x006a9bc7      .byte 0x32
            0x006a9bc8      .byte 0x02
            0x006a9bc9      .byte 0x40
            0x006a9bca      .byte 0x33
            0x006a9bcb      .byte 0x02
            0x006a9bcc      .byte 0x40
            0x006a9bcd      .byte 0x34
            0x006a9bce      .byte 0x03
            0x006a9bcf      .byte 0x68
            0x006a9bd0      .byte 0x68
            0x006a9bd1      .byte 0x20
            0x006a9bd2      .byte 0x05
            0x006a9bd3     .string ", mn " ; len=5
            0x006a9bd8      .byte 0x05
            0x006a9bd9     .string ", ss " ; len=5
            0x006a9bde      .byte 0x05
            0x006a9bdf     .string ", cc " ; len=5
            0x006a9be4      .byte 0x20
            0x006a9be5     .string "After RE, dd, mm, yy, month_str " ; len=32
            0x006a9c05      .byte 0x03
            0x006a9c06      .byte 0x20
            0x006a9c07      .byte 0x20
            0x006a9c08      .byte 0x27
            0x006a9c09      .byte 0x00
            0x006a9c0a      .byte 0xfe
            0x006a9c0b      .byte 0x1f
            0x006a9c0c      .byte 0x00
            0x006a9c0d      .byte 0x00
            0x006a9c0e      .byte 0x00
            0x006a9c0f      .byte 0x00
            0x006a9c10      .byte 0x00
            0x006a9c11      .byte 0x00
            0x006a9c12      .byte 0x00
            0x006a9c13      .byte 0x00
            0x006a9c14      .byte 0x00
            0x006a9c15      .byte 0x00
            0x006a9c16      .byte 0x00
            0x006a9c17      .byte 0x00
            0x006a9c18      .byte 0x00
            0x006a9c19      .byte 0x00
            0x006a9c1a      .byte 0x00
            0x006a9c1b      .byte 0x00
            0x006a9c1c      .byte 0x00
            0x006a9c1d      .byte 0x00
            0x006a9c1e      .byte 0x00
            0x006a9c1f      .byte 0x00
            0x006a9c20      .byte 0x00
            0x006a9c21      .byte 0x00
            0x006a9c22      .byte 0x00
            0x006a9c23      .byte 0x00
            0x006a9c24      .byte 0x00
            0x006a9c25      .byte 0x00
            0x006a9c26      .byte 0x00
            0x006a9c27      .byte 0x00
            0x006a9c28      .byte 0x00
            0x006a9c29      .byte 0x00
            0x006a9c2a      .byte 0xfe
            0x006a9c2b      .byte 0xff
            0x006a9c2c      .byte 0xff
            0x006a9c2d      .byte 0xff
            0x006a9c2e      .byte 0x00
            0x006a9c2f      .byte 0x00
            0x006a9c30      .byte 0x00
            0x006a9c31      .byte 0x00
            0x006a9c32      .byte 0x00
            0x006a9c33      .byte 0x00
            0x006a9c34      .byte 0x00
            0x006a9c35      .byte 0x00
            0x006a9c36      .byte 0x00
            0x006a9c37      .byte 0x00
            0x006a9c38      .byte 0x00
            0x006a9c39      .byte 0x00
            0x006a9c3a      .byte 0x00
            0x006a9c3b      .byte 0x00
            0x006a9c3c      .byte 0x00
            0x006a9c3d      .byte 0x00
            0x006a9c3e      .byte 0x00
            0x006a9c3f      .byte 0x00
            0x006a9c40      .byte 0x00
            0x006a9c41      .byte 0x00
            0x006a9c42      .byte 0x00
            0x006a9c43      .byte 0x00
            0x006a9c44      .byte 0x00
            0x006a9c45      .byte 0x00
            0x006a9c46      .byte 0x00
            0x006a9c47      .byte 0x00
            0x006a9c48      .byte 0x00
            0x006a9c49      .byte 0x00
            0x006a9c4a      .byte 0x1a
            0x006a9c4b     .string "date yy-mm-dd hh:mn:ss.cc " ; len=26
            0x006a9c65      .byte 0x15
            0x006a9c66     .string "Bad date (heavy trip)" ; len=21
            0x006a9c7b      .byte 0x00
            0x006a9c7c      .byte 0x00
            0x006a9c7d      .byte 0x00
            0x006a9c7e      .byte 0x00
            0x006a9c7f      .byte 0x00
            0x006a9c80      .byte 0x01
            0x006a9c81      .byte 0xe0
            0x006a9c82      .byte 0x00
            0x006a9c83      .byte 0x00
            0x006a9c84      .byte 0x00
            0x006a9c85      .byte 0x00
            0x006a9c86      .byte 0x00
            0x006a9c87      .byte 0x00
            0x006a9c88      .byte 0x00
            0x006a9c89      .byte 0x00
            0x006a9c8a      .byte 0x00
            0x006a9c8b      .byte 0x00
            0x006a9c8c      .byte 0x00
            0x006a9c8d      .byte 0x00
            0x006a9c8e      .byte 0x00
            0x006a9c8f      .byte 0x00
            0x006a9c90      .byte 0x00
            0x006a9c91      .byte 0x00
            0x006a9c92      .byte 0x00
            0x006a9c93      .byte 0x00
            0x006a9c94      .byte 0x00
            0x006a9c95      .byte 0x00
            0x006a9c96      .byte 0x00
            0x006a9c97      .byte 0x00
            0x006a9c98      .byte 0x00
            0x006a9c99      .byte 0x00
            0x006a9c9a      .byte 0x00
            0x006a9c9b      .byte 0x00
            0x006a9c9c      .byte 0x0f
            0x006a9c9d     .string "date parser -  " ; len=15
            0x006a9cac      .byte 0x0e
            0x006a9cad     .string " parsing, pos " ; len=14
            0x006a9cbb      .byte 0x0b
            0x006a9cbc     .string "alpha field" ; len=11
            0x006a9cc7      .byte 0x0d
            0x006a9cc8     .string "read keyword " ; len=13
            0x006a9cd5      .byte 0x2b
            0x006a9cd6     .string "JANuary|FEBruary|MARch|APRil|MAY|JUNe|JULy|" ; len=43
            0x006a9d01      .byte 0x2a
            0x006a9d02     .string "AUGust|SEPtember|OCTober|NOVember|DECember" ; len=42
            0x006a9d2c      .byte 0x0e
            0x006a9d2d     .string "month as word " ; len=14
            0x006a9d3b      .byte 0x05
            0x006a9d3c     .string "num #" ; len=5
            0x006a9d41      .byte 0x03
            0x006a9d42      .byte 0x20
            0x006a9d43      .byte 0x3d
            0x006a9d44      .byte 0x20
            0x006a9d45      .byte 0x09
            0x006a9d46     .string "year num " ; len=9
            0x006a9d4f      .byte 0x26
            0x006a9d50     .string "bad date format - neither num nor word" ; len=38
            0x006a9d76      .byte 0x0e
            0x006a9d77     .string "day, month num" ; len=14
            0x006a9d85      .byte 0x0e
            0x006a9d86     .string "month, day num" ; len=14
            0x006a9d94      .byte 0x09
            0x006a9d95     .string " got day " ; len=9
            0x006a9d9e      .byte 0x07
            0x006a9d9f     .string " month " ; len=7
            0x006a9da6      .byte 0x06
            0x006a9da7     .string " year " ; len=6
            0x006a9dad      .byte 0x09
            0x006a9dae     .string "bad date " ; len=9
            0x006a9db7      .byte 0x00
            0x006a9db8      .byte 0x00
            0x006a9db9      .byte 0x00
            0x006a9dba      .byte 0x00
            0x006a9dbb      .byte 0x00
            0x006a9dbc      .byte 0x00
            0x006a9dbd      .byte 0x40
            0x006a9dbe      .byte 0x00
            0x006a9dbf      .byte 0x04
            0x006a9dc0      .byte 0x00
            0x006a9dc1      .byte 0x00
            0x006a9dc2      .byte 0x00
            0x006a9dc3      .byte 0x00
            0x006a9dc4      .byte 0x00
            0x006a9dc5      .byte 0x00
            0x006a9dc6      .byte 0x00
            0x006a9dc7      .byte 0x00
            0x006a9dc8      .byte 0x00
            0x006a9dc9      .byte 0x00
            0x006a9dca      .byte 0x00
            0x006a9dcb      .byte 0x00
            0x006a9dcc      .byte 0x00
            0x006a9dcd      .byte 0x00
            0x006a9dce      .byte 0x00
            0x006a9dcf      .byte 0x00
            0x006a9dd0      .byte 0x00
            0x006a9dd1      .byte 0x00
            0x006a9dd2      .byte 0x00
            0x006a9dd3      .byte 0x00
            0x006a9dd4      .byte 0x00
            0x006a9dd5      .byte 0x00
            0x006a9dd6      .byte 0x00
            0x006a9dd7      .byte 0x00
            0x006a9dd8      .byte 0x09
            0x006a9dd9     .string "val date " ; len=9
            0x006a9de2      .byte 0x05
            0x006a9de3     .string "read " ; len=5
            0x006a9de8      .byte 0x0b
            0x006a9de9     .string " returning " ; len=11
            0x006a9df4      .byte 0x0d
            0x006a9df5     .string "date to range" ; len=13
            0x006a9e02      .byte 0x05
            0x006a9e03     .string "read " ; len=5
            0x006a9e08      .byte 0x1b
            0x006a9e09     .string "parse date to range failed " ; len=27
            0x006a9e24      .byte 0x05
            0x006a9e25     .string "today" ; len=5
            0x006a9e2a      .byte 0x09
            0x006a9e2b     .string "yesterday" ; len=9
            0x006a9e34      .byte 0x03
            0x006a9e35      .byte 0x61
            0x006a9e36      .byte 0x6c
            0x006a9e37      .byte 0x6c
            0x006a9e38      .byte 0x0a
            0x006a9e39     .string "everything" ; len=10
            0x006a9e43      .byte 0x06
            0x006a9e44     .string "before" ; len=6
            0x006a9e4a      .byte 0x05
            0x006a9e4b     .string "until" ; len=5
            0x006a9e50      .byte 0x05
            0x006a9e51     .string "after" ; len=5
            0x006a9e56      .byte 0x04
            0x006a9e57      .byte 0x66
            0x006a9e58      .byte 0x72
            0x006a9e59      .byte 0x6f
            0x006a9e5a      .byte 0x6d
            0x006a9e5b      .byte 0x05
            0x006a9e5c     .string "since" ; len=5
            0x006a9e61      .byte 0x02
            0x006a9e62      .byte 0x74
            0x006a9e63      .byte 0x6f
            0x006a9e64      .byte 0x0d
            0x006a9e65     .string "from .. to .." ; len=13
            0x006a9e72      .byte 0x07
            0x006a9e73     .string "between" ; len=7
            0x006a9e7a      .byte 0x04
            0x006a9e7b      .byte 0x74
            0x006a9e7c      .byte 0x68
            0x006a9e7d      .byte 0x72
            0x006a9e7e      .byte 0x75
            0x006a9e7f      .byte 0x03
            0x006a9e80      .byte 0x61
            0x006a9e81      .byte 0x6e
            0x006a9e82      .byte 0x64
            0x006a9e83      .byte 0x18
            0x006a9e84     .string "valid date - free stack " ; len=24
            0x006a9e9c      .byte 0x06
            0x006a9e9d     .string " stk= " ; len=6
            0x006a9ea3      .byte 0x10
            0x006a9ea4     .string "Got a match for " ; len=16
            0x006a9eb4      .byte 0x19
            0x006a9eb5     .string "single date expected in /" ; len=25
            0x006a9ece      .byte 0x19
            0x006a9ecf     .string "single date expected in /" ; len=25
            0x006a9ee8      .byte 0x40
            0x006a9ee9      .byte 0x02
            0x006a9eea      .byte 0x19
            0x006a9eeb     .string "single date expected in /" ; len=25
            0x006a9f04      .byte 0x1a
            0x006a9f05     .string "another date expected in /" ; len=26
            0x006a9f1f      .byte 0x00
            0x006a9f20      .byte 0x0c
            0x006a9f21      .byte 0x3f
            0x006a9f22      .byte 0x20
            0x006a9f23      .byte 0x69
            0x006a9f24      .byte 0x6e
            0x006a9f25      .byte 0x76
            0x006a9f26      .byte 0x61
            0x006a9f27      .byte 0x6c
            0x006a9f28      .byte 0x69
            0x006a9f29      .byte 0x44
            0x006a9f2a      .byte 0x41
            0x006a9f2b      .byte 0x54
            0x006a9f2c      .byte 0x45
            0x006a9f2d      .byte 0x69
 74: DATE_UTILS.lower ();
           0x006a9f2e      4e56ffee       link.w a6, 0xffee
           0x006a9f32      bfd5           cmpa.l (a5), a7
       < 0x006a9f34      6206           bhi.b 0x6a9f3c
          0x006a9f36      44fc0002       move.w 0x2, ccr
          0x006a9f3a      4e76           trapv
       > 0x006a9f3c      defc0012       adda.w 0x12, a7
           0x006a9f40      48e7c080       movem.l d0-d1/a0, -(a7)
           0x006a9f44      4280           clr.l d0
           0x006a9f46      102e0008       move.b 0x8(a6), d0
           0x006a9f4a      41fafaac       lea.l 0x6a99f8(pc), a0
           0x006a9f4e      3200           move.w d0, d1
           0x006a9f50      e649           lsr.w 0x3, d1
           0x006a9f52      01301000       btst.l d0, (a0, d1.w)
       < 0x006a9f56      6714           beq.b 0x6a9f6c
          0x006a9f58      3200           move.w d0, d1
          0x006a9f5a      06410061       addi.w 0x61, d1
          0x006a9f5e      04410041       subi.w 0x41, d1
          0x006a9f62      43bc00ff       chk.w 0xff, d1
          0x006a9f66      1d41000a       move.b d1, 0xa(a6)
      < 0x006a9f6a      6004           bra.b 0x6a9f70
      > 0x006a9f6c      1d40000a       move.b d0, 0xa(a6)
      > 0x006a9f70      4cdf0103       movem.l (a7)+, d0-d1/a0
           0x006a9f74      4e5e           unlk a6
           0x006a9f76      4e75           rts
            ; CALL XREF from DATE_UTILS.str_date @ 0x6aa7fa
 282: DATE_UTILS.day_of_week ();
           0x006a9f78      4e56ffb4       link.w a6, 0xffb4
           0x006a9f7c      bfd5           cmpa.l (a5), a7
       < 0x006a9f7e      6206           bhi.b 0x6a9f86
          0x006a9f80      44fc0002       move.w 0x2, ccr
          0x006a9f84      4e76           trapv
       > 0x006a9f86      defc0040       adda.w 0x40, a7
           0x006a9f8a      48e7fff8       movem.l d0-d7/a0-a4, -(a7)
           0x006a9f8e      45ee000e       lea.l 0xe(a6), a2
           0x006a9f92      47ee000a       lea.l 0xa(a6), a3
           0x006a9f96      49f900406b50   lea.l fcn.00406b50, a4
           0x006a9f9c      243cffff8000   move.l 0xffff8000, d2
           0x006a9fa2      3013           move.w (a3), d0
           0x006a9fa4      48c0           ext.l d0
           0x006a9fa6      5580           subq.l 0x2, d0
           0x006a9fa8      9082           sub.l d2, d0
           0x006a9faa      0c800000ffff   cmpi.l 0xffff, d0
       < 0x006a9fb0      6302           bls.b 0x6a9fb4
          0x006a9fb2      4e4f           trap 0xf
       > 0x006a9fb4      d082           add.l d2, d0
           0x006a9fb6      3680           move.w d0, (a3)
           0x006a9fb8      0c400001       cmpi.w 0x1, d0
       < 0x006a9fbc      6c34           bge.b 0x6a9ff2
          0x006a9fbe      48c0           ext.l d0
          0x006a9fc0      2200           move.l d0, d1
          0x006a9fc2      06810000000c   addi.l 0xc, d1
          0x006a9fc8      9282           sub.l d2, d1
          0x006a9fca      0c810000ffff   cmpi.l 0xffff, d1
      < 0x006a9fd0      6302           bls.b 0x6a9fd4
         0x006a9fd2      4e4f           trap 0xf
      > 0x006a9fd4      d282           add.l d2, d1
          0x006a9fd6      3681           move.w d1, (a3)
          0x006a9fd8      322e0008       move.w 0x8(a6), d1
          0x006a9fdc      48c1           ext.l d1
          0x006a9fde      5381           subq.l 0x1, d1
          0x006a9fe0      9282           sub.l d2, d1
          0x006a9fe2      0c810000ffff   cmpi.l 0xffff, d1
      < 0x006a9fe8      6302           bls.b 0x6a9fec
         0x006a9fea      4e4f           trap 0xf
      > 0x006a9fec      d282           add.l d2, d1
          0x006a9fee      3d410008       move.w d1, 0x8(a6)
       > 0x006a9ff2      302e0008       move.w 0x8(a6), d0
           0x006a9ff6      48c0           ext.l d0
           0x006a9ff8      2e00           move.l d0, d7
           0x006a9ffa      5387           subq.l 0x1, d7
           0x006a9ffc      2807           move.l d7, d4
           0x006a9ffe      7664           moveq 0x64, d3
           0x006aa000      4e94           jsr (a4)                    ; fcn.0000000d
           0x006aa002      2e04           move.l d4, d7
           0x006aa004      7864           moveq 0x64, d4
           0x006aa006      2607           move.l d7, d3
           0x006aa008      4eb900406a74   jsr fcn.00406a74
           0x006aa00e      4484           neg.l d4
           0x006aa010      d880           add.l d0, d4
           0x006aa012      2a04           move.l d4, d5
           0x006aa014      3813           move.w (a3), d4
           0x006aa016      48c4           ext.l d4
           0x006aa018      4eb900408686   jsr fcn.00408686
           0x006aa01e      263c40266666   move.l 0x40266666, d3
           0x006aa024      4eb900407e92   jsr fcn.00407e92
           0x006aa02a      263c3e428f5c   move.l 0x3e428f5c, d3
           0x006aa030      4eb900407b44   jsr fcn.00407b44
           0x006aa036      4eb90040832a   jsr fcn.0040832a
           0x006aa03c      302e000c       move.w 0xc(a6), d0
           0x006aa040      48c0           ext.l d0
           0x006aa042      d084           add.l d4, d0
           0x006aa044      d085           add.l d5, d0
           0x006aa046      2805           move.l d5, d4
           0x006aa048      7604           moveq 0x4, d3
           0x006aa04a      4e94           jsr (a4)                    ; fcn.0000000d
           0x006aa04c      d880           add.l d0, d4
           0x006aa04e      2f04           move.l d4, -(a7)
           0x006aa050      2807           move.l d7, d4
           0x006aa052      7604           moveq 0x4, d3
           0x006aa054      4e94           jsr (a4)                    ; fcn.0000000d
           0x006aa056      2017           move.l (a7), d0
           0x006aa058      d880           add.l d0, d4
           0x006aa05a      2e84           move.l d4, (a7)
           0x006aa05c      7802           moveq 0x2, d4
           0x006aa05e      2607           move.l d7, d3
           0x006aa060      4eb900406a74   jsr fcn.00406a74
           0x006aa066      2017           move.l (a7), d0
           0x006aa068      4484           neg.l d4
           0x006aa06a      d880           add.l d0, d4
           0x006aa06c      584f           addq.w 0x4, a7
           0x006aa06e      068400000054   addi.l 0x54, d4
           0x006aa074      2c04           move.l d4, d6
           0x006aa076      2806           move.l d6, d4
           0x006aa078      7607           moveq 0x7, d3
           0x006aa07a      4e94           jsr (a4)                    ; fcn.0000000d
           0x006aa07c      2c03           move.l d3, d6
           0x006aa07e      2006           move.l d6, d0
           0x006aa080      0c8000000006   cmpi.l 0x6, d0
       < 0x006aa086      627c           bhi.b 0x6aa104
          0x006aa088      d040           add.w d0, d0
          0x006aa08a      303b0006       move.w 0x6aa092(pc, d0.w), d0
          0x006aa08e      4efb0002       jmp 0x6aa092(pc, d0.w)
           0x006aa092      000e001e       
           0x006aa093      0e001e00       
           0x006aa094      001e002a       ori.b 0x2a, (a6)+
           0x006aa098      003a0046       
           0x006aa099      3a00           move.w d0, d5
           0x006aa09b      4600           not.b d0
           0x006aa09d      5600           addq.b 0x3, d0
       < 0x006aa09f      6220           bhi.b 0x6aa0c1
          0x006aa0a1      4a43           tst.w d3
          0x006aa0a3      faf981700410   fbf.l 0x81daa4b5
          0x006aa0a9      d951           add.w d4, (a1)
          0x006aa0ab      c8fffc60       
          0x006aa0ac      fffc           invalid
      < 0x006aa0ae      6058           bra.b 0x6aa108
         0x006aa0b0      24baf978       move.l 0x6a9a2a(pc), (a2)
         0x006aa0b4      1d7af9780012   move.b 0x6a9a2e(pc), 0x12(a6)
     < 0x006aa0ba      604c           bra.b 0x6aa108
        0x006aa0bc      204a           movea.l a2, a0
        0x006aa0be      43faf96f       lea.l 0x6a9a2f(pc), a1
         0x006aa0c2      7004           moveq 0x4, d0
     > 0x006aa0c4      10d9           move.b (a1)+, (a0)+
     < 0x006aa0c6      51c8fffc       dbra d0, 0x6aa0c4
     < 0x006aa0ca      603c           bra.b 0x6aa108
        0x006aa0cc      24baf966       move.l 0x6a9a34(pc), (a2)
        0x006aa0d0      1d7af9660012   move.b 0x6a9a38(pc), 0x12(a6)
    < 0x006aa0d6      6030           bra.b 0x6aa108
       0x006aa0d8      204a           movea.l a2, a0
       0x006aa0da      43faf95d       lea.l 0x6a9a39(pc), a1
       0x006aa0de      7004           moveq 0x4, d0
   > 0x006aa0e0      10d9           move.b (a1)+, (a0)+
   < 0x006aa0e2      51c8fffc       dbra d0, 0x6aa0e0
   < 0x006aa0e6      6020           bra.b 0x6aa108
      0x006aa0e8      24baf954       move.l 0x6a9a3e(pc), (a2)
      0x006aa0ec      1d7af9540012   move.b 0x6a9a42(pc), 0x12(a6)
  < 0x006aa0f2      6014           bra.b 0x6aa108
     0x006aa0f4      204a           movea.l a2, a0
     0x006aa0f6      43faf94b       lea.l 0x6a9a43(pc), a1
     0x006aa0fa      7004           moveq 0x4, d0
  > 0x006aa0fc      10d9           move.b (a1)+, (a0)+
  < 0x006aa0fe      51c8fffc       dbra d0, 0x6aa0fc
  < 0x006aa102      6004           bra.b 0x6aa108
  > 0x006aa104      24baf942       move.l 0x6a9a48(pc), (a2)
  > 0x006aa108      4cdf1fff       movem.l (a7)+, d0-d7/a0-a4
            0x006aa10c      4e5e           unlk a6
            0x006aa10e      4e75           rts
            ; XREFS: CALL 0x004e9ba8  CALL 0x005dffa6  CALL 0x005e1848  
            ; XREFS: CALL 0x005e1866  CALL 0x005e1b32  CALL 0x005e1b88  
            ; XREFS: CALL 0x005e478a  CALL 0x005e47a4  CALL 0x005e4b24  
            ; XREFS: CALL 0x005e5ab6  CALL 0x0064b238  CALL 0x00661858  
            ; XREFS: CALL 0x00661872  CALL 0x00661b00  CALL 0x00661b1a  
            ; XREFS: CALL 0x0074ed7e  
 72: DATE_UTILS.real_date ();
           0x006aa110      4e56ffec       link.w a6, 0xffec
           0x006aa114      bfd5           cmpa.l (a5), a7
       < 0x006aa116      6206           bhi.b 0x6aa11e
          0x006aa118      44fc0002       move.w 0x2, ccr
          0x006aa11c      4e76           trapv
       > 0x006aa11e      defc0014       adda.w 0x14, a7
           0x006aa122      48e7c800       movem.l d0-d1/d4, -(a7)
           0x006aa126      4280           clr.l d0
           0x006aa128      102e0008       move.b 0x8(a6), d0
           0x006aa12c      e180           asl.l 0x8, d0
           0x006aa12e      e380           asl.l 0x1, d0
           0x006aa130      4281           clr.l d1
           0x006aa132      122e0009       move.b 0x9(a6), d1
           0x006aa136      eb41           asl.w 0x5, d1
           0x006aa138      48c1           ext.l d1
           0x006aa13a      d280           add.l d0, d1
           0x006aa13c      4280           clr.l d0
           0x006aa13e      102e000a       move.b 0xa(a6), d0
           0x006aa142      d081           add.l d1, d0
           0x006aa144      2800           move.l d0, d4
           0x006aa146      4eb900408686   jsr fcn.00408686
           0x006aa14c      2d440010       move.l d4, 0x10(a6)
           0x006aa150      4cdf0013       movem.l (a7)+, d0-d1/d4
           0x006aa154      4e5e           unlk a6
           0x006aa156      4e75           rts
            ; CALL XREF from K95_CARDS.init_time @ 0x663eb6
            ; CALL XREF from K95_CARDS.init_times @ 0x663f06
            ; CALL XREFS from DATE_UTILS @ +0x39bc, +0x39d6
            ; CALL XREF from MENULIBCOM.get_time_value @ 0x74ed1e
 122: DATE_UTILS.date_stamp ();
           ; var int32_t var_8h @ a6-0x8
           ; var int32_t var_4h @ a6-0x4
           0x006aa158      4e56ffd8       link.w a6, 0xffd8
           0x006aa15c      bfd5           cmpa.l (a5), a7
       < 0x006aa15e      6206           bhi.b 0x6aa166
          0x006aa160      44fc0002       move.w 0x2, ccr
          0x006aa164      4e76           trapv
       > 0x006aa166      defc001c       adda.w 0x1c, a7
           0x006aa16a      48e71980       movem.l d3-d4/d7/a0, -(a7)
           0x006aa16e      41f900406b50   lea.l fcn.00406b50, a0
           0x006aa174      282e0008       move.l 0x8(a6), d4
           0x006aa178      4eb900408224   jsr fcn.00408224
           0x006aa17e      2e04           move.l d4, d7
           0x006aa180      422effff       clr.b -0x1(a6)
           0x006aa184      422efffe       clr.b -0x2(a6)
           0x006aa188      422efffd       clr.b -0x3(a6)
           0x006aa18c      422efffc       clr.b -0x4(a6)
           0x006aa190      422efffb       clr.b -0x5(a6)
           0x006aa194      2807           move.l d7, d4
           0x006aa196      7620           moveq 0x20, d3
           0x006aa198      4e90           jsr (a0)                    ; fcn.00000009
           0x006aa19a      1d43fffa       move.b d3, -0x6(a6)
           0x006aa19e      7610           moveq 0x10, d3
           0x006aa1a0      4e90           jsr (a0)                    ; fcn.00000009
           0x006aa1a2      1d43fff9       move.b d3, -0x7(a6)
           0x006aa1a6      2807           move.l d7, d4
           0x006aa1a8      263c00000200   move.l 0x200, d3
           0x006aa1ae      4e90           jsr (a0)                    ; fcn.00000009
           0x006aa1b0      0c84000000ff   cmpi.l 0xff, d4
       < 0x006aa1b6      6302           bls.b 0x6aa1ba
          0x006aa1b8      4e4f           trap 0xf
       > 0x006aa1ba      1d44fff8       move.b d4, -0x8(a6)
           0x006aa1be      2d6efff8000c   move.l -0x8(a6), 0xc(a6)
           0x006aa1c4      2d6efffc0010   move.l -0x4(a6), 0x10(a6)
           0x006aa1ca      4cdf0198       movem.l (a7)+, d3-d4/d7/a0
           0x006aa1ce      4e5e           unlk a6
           0x006aa1d0      4e75           rts
            ; CALL XREF from MENU2COM.date_char_actio @ 0x48b9d0
            ; CALL XREF from SEARCHER.sea_linear_lib_ @ 0x5e47e2
            ; CALL XREF from SEARCHER.sea_indexed_fil @ 0x5e543a
 212: DATE_UTILS.date_inc ();
           0x006aa1d2      4e56ffb4       link.w a6, 0xffb4
           0x006aa1d6      bfd5           cmpa.l (a5), a7
       < 0x006aa1d8      6206           bhi.b 0x6aa1e0
          0x006aa1da      44fc0002       move.w 0x2, ccr
          0x006aa1de      4e76           trapv
       > 0x006aa1e0      defc003c       adda.w 0x3c, a7
           0x006aa1e4      48e7dfe0       movem.l d0-d1/d3-d7/a0-a2, -(a7)
           0x006aa1e8      45f900406b50   lea.l fcn.00406b50, a2
           0x006aa1ee      206e0008       movea.l 0x8(a6), a0
           0x006aa1f2      2810           move.l (a0), d4
           0x006aa1f4      263c42040000   move.l 0x42040000, d3
           0x006aa1fa      4eb900407dd4   jsr fcn.00407dd4
       < 0x006aa200      6d00009c       blt.w 0x6aa29e
          0x006aa204      2810           move.l (a0), d4
          0x006aa206      4eb900408224   jsr fcn.00408224
          0x006aa20c      2d44fffc       move.l d4, -0x4(a6)
          0x006aa210      2f04           move.l d4, -(a7)
          0x006aa212      7620           moveq 0x20, d3
          0x006aa214      4e92           jsr (a2)                    ; fcn.00000009+0x2
          0x006aa216      2c03           move.l d3, d6
          0x006aa218      7610           moveq 0x10, d3
          0x006aa21a      4e92           jsr (a2)                    ; fcn.00000009+0x2
          0x006aa21c      2e03           move.l d3, d7
          0x006aa21e      281f           move.l (a7)+, d4
          0x006aa220      263c00000200   move.l 0x200, d3
          0x006aa226      4e92           jsr (a2)                    ; fcn.00000009+0x2
          0x006aa228      0684000007bc   addi.l 0x7bc, d4
          0x006aa22e      2a04           move.l d4, d5
          0x006aa230      5286           addq.l 0x1, d6
          0x006aa232      2805           move.l d5, d4
          0x006aa234      7604           moveq 0x4, d3
          0x006aa236      4e92           jsr (a2)                    ; fcn.00000009+0x2
          0x006aa238      4a83           tst.l d3
      < 0x006aa23a      6616           bne.b 0x6aa252
         0x006aa23c      0c8700000002   cmpi.l 0x2, d7
     < 0x006aa242      660e           bne.b 0x6aa252
        0x006aa244      0c860000001e   cmpi.l 0x1e, d6
    < 0x006aa24a      6634           bne.b 0x6aa280
       0x006aa24c      7c01           moveq 0x1, d6
       0x006aa24e      7e03           moveq 0x3, d7
   < 0x006aa250      602e           bra.b 0x6aa280
   > 0x006aa252      2007           move.l d7, d0
        0x006aa254      5380           subq.l 0x1, d0
        0x006aa256      0c800000000b   cmpi.l 0xb, d0
    < 0x006aa25c      6302           bls.b 0x6aa260
       0x006aa25e      4e4f           trap 0xf
    > 0x006aa260      e380           asl.l 0x1, d0
        0x006aa262      43fae63e       lea.l 0x6a88a2(pc), a1
        0x006aa266      32310800       move.w (a1, d0.l), d1
        0x006aa26a      48c1           ext.l d1
        0x006aa26c      bc81           cmp.l d1, d6
    < 0x006aa26e      6f10           ble.b 0x6aa280
       0x006aa270      7c01           moveq 0x1, d6
       0x006aa272      5287           addq.l 0x1, d7
       0x006aa274      0c870000000c   cmpi.l 0xc, d7
   < 0x006aa27a      6f04           ble.b 0x6aa280
      0x006aa27c      7e01           moveq 0x1, d7
      0x006aa27e      5285           addq.l 0x1, d5
   > 0x006aa280      2007           move.l d7, d0
          0x006aa282      eb80           asl.l 0x5, d0
          0x006aa284      d086           add.l d6, d0
          0x006aa286      2205           move.l d5, d1
          0x006aa288      0481000007bc   subi.l 0x7bc, d1
          0x006aa28e      e181           asl.l 0x8, d1
          0x006aa290      e381           asl.l 0x1, d1
          0x006aa292      d280           add.l d0, d1
          0x006aa294      2801           move.l d1, d4
          0x006aa296      4eb900408686   jsr fcn.00408686
          0x006aa29c      2084           move.l d4, (a0)
       > 0x006aa29e      4cdf07fb       movem.l (a7)+, d0-d1/d3-d7/a0-a2
           0x006aa2a2      4e5e           unlk a6
           0x006aa2a4      4e75           rts
            ; CALL XREF from MENU2COM.date_char_actio @ 0x48b9da
            ; CALL XREF from DATE_UTILS.get_date @ 0x6abdae
 194: DATE_UTILS.date_dec ();
           0x006aa2a6      4e56ffb4       link.w a6, 0xffb4
           0x006aa2aa      bfd5           cmpa.l (a5), a7
       < 0x006aa2ac      6206           bhi.b 0x6aa2b4
          0x006aa2ae      44fc0002       move.w 0x2, ccr
          0x006aa2b2      4e76           trapv
       > 0x006aa2b4      defc003c       adda.w 0x3c, a7
           0x006aa2b8      48e7dfe0       movem.l d0-d1/d3-d7/a0-a2, -(a7)
           0x006aa2bc      45f900406b50   lea.l fcn.00406b50, a2
           0x006aa2c2      206e0008       movea.l 0x8(a6), a0
           0x006aa2c6      2810           move.l (a0), d4
           0x006aa2c8      263c42040000   move.l 0x42040000, d3
           0x006aa2ce      4eb900407dd4   jsr fcn.00407dd4
       < 0x006aa2d4      6d00008a       blt.w 0x6aa360
          0x006aa2d8      2810           move.l (a0), d4
          0x006aa2da      4eb900408224   jsr fcn.00408224
          0x006aa2e0      2d44fffc       move.l d4, -0x4(a6)
          0x006aa2e4      2f04           move.l d4, -(a7)
          0x006aa2e6      7620           moveq 0x20, d3
          0x006aa2e8      4e92           jsr (a2)                    ; fcn.00000009+0x2
          0x006aa2ea      2c03           move.l d3, d6
          0x006aa2ec      7610           moveq 0x10, d3
          0x006aa2ee      4e92           jsr (a2)                    ; fcn.00000009+0x2
          0x006aa2f0      2e03           move.l d3, d7
          0x006aa2f2      281f           move.l (a7)+, d4
          0x006aa2f4      263c00000200   move.l 0x200, d3
          0x006aa2fa      4e92           jsr (a2)                    ; fcn.00000009+0x2
          0x006aa2fc      0684000007bc   addi.l 0x7bc, d4
          0x006aa302      2a04           move.l d4, d5
          0x006aa304      5386           subq.l 0x1, d6
      < 0x006aa306      663a           bne.b 0x6aa342
         0x006aa308      5387           subq.l 0x1, d7
     < 0x006aa30a      6604           bne.b 0x6aa310
        0x006aa30c      7e0c           moveq 0xc, d7
        0x006aa30e      5385           subq.l 0x1, d5
     > 0x006aa310      2805           move.l d5, d4
         0x006aa312      7604           moveq 0x4, d3
         0x006aa314      4e92           jsr (a2)                    ; fcn.00000009+0x2
         0x006aa316      4a83           tst.l d3
     < 0x006aa318      660c           bne.b 0x6aa326
        0x006aa31a      0c8700000002   cmpi.l 0x2, d7
    < 0x006aa320      6604           bne.b 0x6aa326
       0x006aa322      7c1d           moveq 0x1d, d6
   < 0x006aa324      601c           bra.b 0x6aa342
   > 0x006aa326      2007           move.l d7, d0
        0x006aa328      5380           subq.l 0x1, d0
        0x006aa32a      0c800000000b   cmpi.l 0xb, d0
    < 0x006aa330      6302           bls.b 0x6aa334
       0x006aa332      4e4f           trap 0xf
    > 0x006aa334      e380           asl.l 0x1, d0
        0x006aa336      43fae56a       lea.l 0x6a88a2(pc), a1
        0x006aa33a      32310800       move.w (a1, d0.l), d1
        0x006aa33e      48c1           ext.l d1
        0x006aa340      2c01           move.l d1, d6
   > 0x006aa342      2007           move.l d7, d0
          0x006aa344      eb80           asl.l 0x5, d0
          0x006aa346      d086           add.l d6, d0
          0x006aa348      2205           move.l d5, d1
          0x006aa34a      0481000007bc   subi.l 0x7bc, d1
          0x006aa350      e181           asl.l 0x8, d1
          0x006aa352      e381           asl.l 0x1, d1
          0x006aa354      d280           add.l d0, d1
          0x006aa356      2801           move.l d1, d4
          0x006aa358      4eb900408686   jsr fcn.00408686
          0x006aa35e      2084           move.l d4, (a0)
       > 0x006aa360      4cdf07fb       movem.l (a7)+, d0-d1/d3-d7/a0-a2
           0x006aa364      4e5e           unlk a6
           0x006aa366      4e75           rts
            ; XREFS: CALL 0x004db8a4  CALL 0x004e9e2a  CALL 0x004e9fec  
            ; XREFS: CALL 0x004ea08e  CALL 0x004ea0fa  CALL 0x004f4244  
            ; XREFS: CALL 0x00501c06  CALL 0x00775be2  CALL 0x0077630a  
 48: DATE_UTILS.time_str ();
           0x006aa368      4e56ffee       link.w a6, 0xffee
           0x006aa36c      bfd5           cmpa.l (a5), a7
       < 0x006aa36e      6206           bhi.b 0x6aa376
          0x006aa370      44fc0002       move.w 0x2, ccr
          0x006aa374      4e76           trapv
       > 0x006aa376      defc0012       adda.w 0x12, a7
           0x006aa37a      9efc000e       suba.w 0xe, a7
           0x006aa37e      4eb900461f5c   jsr S1_NVRAM.time_string
           0x006aa384      2d5f0008       move.l (a7)+, 0x8(a6)
           0x006aa388      2d5f000c       move.l (a7)+, 0xc(a6)
           0x006aa38c      2d5f0010       move.l (a7)+, 0x10(a6)
           0x006aa390      1d5f0014       move.b (a7)+, 0x14(a6)
           0x006aa394      4e5e           unlk a6
           0x006aa396      4e75           rts
            ; XREFS: CALL 0x004db8ae  CALL 0x004e9e32  CALL 0x004e9ff4  
            ; XREFS: CALL 0x004ea096  CALL 0x004ea102  CALL 0x004f424e  
            ; XREFS: CALL 0x00501c7c  CALL 0x00775bec  CALL 0x00776314  
 84: DATE_UTILS.date_str ();
           0x006aa398      4e56fee8       link.w a6, 0xfee8
           0x006aa39c      bfd5           cmpa.l (a5), a7
       < 0x006aa39e      6206           bhi.b 0x6aa3a6
          0x006aa3a0      44fc0002       move.w 0x2, ccr
          0x006aa3a4      4e76           trapv
       > 0x006aa3a6      defc0118       adda.w 0x118, a7
           0x006aa3aa      48e78080       movem.l d0/a0, -(a7)
           0x006aa3ae      9efc0104       suba.w 0x104, a7
           0x006aa3b2      4eb9006aa3ec   jsr DATE_UTILS.date_today
           0x006aa3b8      1f3c0001       move.b 0x1, -(a7)
           0x006aa3bc      4227           clr.b -(a7)
           0x006aa3be      4227           clr.b -(a7)
           0x006aa3c0      554f           subq.w 0x2, a7
           0x006aa3c2      4eb900478a3a   jsr CONFIGCOM.tvsys
           0x006aa3c8      4a1f           tst.b (a7)+
       < 0x006aa3ca      6602           bne.b 0x6aa3ce
          0x006aa3cc      5217           addq.b 0x1, (a7)
       > 0x006aa3ce      4eb9006aa480   jsr DATE_UTILS.str_date
           0x006aa3d4      defc000a       adda.w 0xa, a7
           0x006aa3d8      41ee0008       lea.l 0x8(a6), a0
           0x006aa3dc      703f           moveq 0x3f, d0
       > 0x006aa3de      20df           move.l (a7)+, (a0)+
       < 0x006aa3e0      51c8fffc       dbra d0, 0x6aa3de
           0x006aa3e4      4cdf0101       movem.l (a7)+, d0/a0
           0x006aa3e8      4e5e           unlk a6
           0x006aa3ea      4e75           rts
            ; XREFS: CALL 0x0048b974  CALL 0x005e47d4  CALL 0x005e542c  
            ; XREFS: CALL 0x006aa3b2  CALL 0x006abd82  CALL 0x006abda6  
            ; XREFS: CALL 0x0074f690  
 102: DATE_UTILS.date_today ();
           0x006aa3ec      4e56ffda       link.w a6, 0xffda
           0x006aa3f0      bfd5           cmpa.l (a5), a7
       < 0x006aa3f2      6206           bhi.b 0x6aa3fa
          0x006aa3f4      44fc0002       move.w 0x2, ccr
          0x006aa3f8      4e76           trapv
       > 0x006aa3fa      defc001c       adda.w 0x1c, a7
           0x006aa3fe      48e7c800       movem.l d0-d1/d4, -(a7)
           0x006aa402      486efff6       pea.l -0xa(a6)
           0x006aa406      486efff8       pea.l -0x8(a6)
           0x006aa40a      486efffa       pea.l -0x6(a6)
           0x006aa40e      4eb90046248a   jsr S1_NVRAM.date_val
           0x006aa414      defc000c       adda.w 0xc, a7
           0x006aa418      302efff8       move.w -0x8(a6), d0
           0x006aa41c      48c0           ext.l d0
           0x006aa41e      eb80           asl.l 0x5, d0
           0x006aa420      322efff6       move.w -0xa(a6), d1
           0x006aa424      48c1           ext.l d1
           0x006aa426      d081           add.l d1, d0
           0x006aa428      322efffa       move.w -0x6(a6), d1
           0x006aa42c      48c1           ext.l d1
           0x006aa42e      0481000007bc   subi.l 0x7bc, d1
           0x006aa434      e181           asl.l 0x8, d1
           0x006aa436      e381           asl.l 0x1, d1
           0x006aa438      d280           add.l d0, d1
           0x006aa43a      2801           move.l d1, d4
           0x006aa43c      4eb900408686   jsr fcn.00408686
           0x006aa442      2d44fffc       move.l d4, -0x4(a6)
           0x006aa446      2d440008       move.l d4, 0x8(a6)
           0x006aa44a      4cdf0013       movem.l (a7)+, d0-d1/d4
           0x006aa44e      4e5e           unlk a6
           0x006aa450      4e75           rts
 46: DATE_UTILS.time_now ();
           ; var int32_t var_8h @ a6-0x8
           ; var int32_t var_4h @ a6-0x4
           0x006aa452      4e56fff0       link.w a6, 0xfff0
           0x006aa456      bfd5           cmpa.l (a5), a7
       < 0x006aa458      6206           bhi.b 0x6aa460
          0x006aa45a      44fc0002       move.w 0x2, ccr
          0x006aa45e      4e76           trapv
       > 0x006aa460      defc0008       adda.w 0x8, a7
           0x006aa464      486efff8       pea.l -0x8(a6)
           0x006aa468      4eb900461dd6   jsr S1_NVRAM.f0_get_time
           0x006aa46e      584f           addq.w 0x4, a7
           0x006aa470      2d6efff80008   move.l -0x8(a6), 0x8(a6)
           0x006aa476      2d6efffc000c   move.l -0x4(a6), 0xc(a6)
           0x006aa47c      4e5e           unlk a6
           0x006aa47e      4e75           rts
            ; XREFS: CALL 0x0048b98a  CALL 0x0048b9f6  CALL 0x0048d276  
            ; XREFS: CALL 0x004e9bcc  CALL 0x004f1dfe  CALL 0x0064b254  
            ; XREFS: CALL 0x0065b30a  CALL 0x006aa3ce  
 1000: DATE_UTILS.str_date (int32_t arg_1h, int32_t arg_2h);
           ; arg int32_t arg_1h @ a6+0x1
           ; arg int32_t arg_2h @ a6+0x2
           0x006aa480      4e56fe3a       link.w a6, 0xfe3a
           0x006aa484      bfd5           cmpa.l (a5), a7
       < 0x006aa486      6206           bhi.b 0x6aa48e
          0x006aa488      44fc0002       move.w 0x2, ccr
          0x006aa48c      4e76           trapv
       > 0x006aa48e      defc014e       adda.w 0x14e, a7
           0x006aa492      48e7fff8       movem.l d0-d7/a0-a4, -(a7)
           0x006aa496      45eeffe7       lea.l -0x19(a6), a2
           0x006aa49a      47f900404012   lea.l p_Push, a3
           0x006aa4a0      49f900406b50   lea.l fcn.00406b50, a4
           0x006aa4a6      282e000e       move.l 0xe(a6), d4
           0x006aa4aa      4eb900408224   jsr fcn.00408224
           0x006aa4b0      2d44ff88       move.l d4, -0x78(a6)
           0x006aa4b4      2f04           move.l d4, -(a7)
           0x006aa4b6      2c04           move.l d4, d6
           0x006aa4b8      02860000001f   andi.l 0x1f, d6
           0x006aa4be      7620           moveq 0x20, d3
           0x006aa4c0      4e94           jsr (a4)                    ; fcn.0000000d
           0x006aa4c2      02840000000f   andi.l 0xf, d4
           0x006aa4c8      2e04           move.l d4, d7
           0x006aa4ca      281f           move.l (a7)+, d4
           0x006aa4cc      263c00000200   move.l 0x200, d3
           0x006aa4d2      4e94           jsr (a4)                    ; fcn.0000000d
           0x006aa4d4      0684000007bc   addi.l 0x7bc, d4
           0x006aa4da      2a04           move.l d4, d5
           0x006aa4dc      204a           movea.l a2, a0
           0x006aa4de      43faf606       lea.l 0x6a9ae6(pc), a1
           0x006aa4e2      7004           moveq 0x4, d0
       > 0x006aa4e4      10d9           move.b (a1)+, (a0)+
       < 0x006aa4e6      51c8fffc       dbra d0, 0x6aa4e4
           0x006aa4ea      4eb900404154   jsr p_Link
           0x006aa4f0      554f           subq.w 0x2, a7
           0x006aa4f2      486eff98       pea.l -0x68(a6)
           0x006aa4f6      4eb900404434   jsr fcn.00404434
           0x006aa4fc      584f           addq.w 0x4, a7
           0x006aa4fe      4a1f           tst.b (a7)+
       < 0x006aa500      67000274       beq.w 0x6aa776
          0x006aa504      0c8700000001   cmpi.l 0x1, d7
      < 0x006aa50a      6d08           blt.b 0x6aa514
         0x006aa50c      0c870000000c   cmpi.l 0xc, d7
     < 0x006aa512      6f0c           ble.b 0x6aa520
     > 0x006aa514      486eff98       pea.l -0x68(a6)
         0x006aa518      4eb900404468   jsr fcn.00404468
         0x006aa51e      584f           addq.w 0x4, a7
     > 0x006aa520      2805           move.l d5, d4
          0x006aa522      7604           moveq 0x4, d3
          0x006aa524      4e94           jsr (a4)                    ; fcn.0000000d
          0x006aa526      4a83           tst.l d3
      < 0x006aa528      661a           bne.b 0x6aa544
         0x006aa52a      0c8700000002   cmpi.l 0x2, d7
     < 0x006aa530      6612           bne.b 0x6aa544
        0x006aa532      0c8600000001   cmpi.l 0x1, d6
    < 0x006aa538      6d08           blt.b 0x6aa542
       0x006aa53a      0c860000001d   cmpi.l 0x1d, d6
   < 0x006aa540      6f34           ble.b 0x6aa576
  > 0x006aa542      6026           bra.b 0x6aa56a
   > 0x006aa544      0c8600000001   cmpi.l 0x1, d6
    < 0x006aa54a      6d1e           blt.b 0x6aa56a
       0x006aa54c      2007           move.l d7, d0
       0x006aa54e      5380           subq.l 0x1, d0
       0x006aa550      0c800000000b   cmpi.l 0xb, d0
   < 0x006aa556      6302           bls.b 0x6aa55a
      0x006aa558      4e4f           trap 0xf
   > 0x006aa55a      e380           asl.l 0x1, d0
       0x006aa55c      41fae344       lea.l 0x6a88a2(pc), a0
       0x006aa560      32300800       move.w (a0, d0.l), d1
       0x006aa564      48c1           ext.l d1
       0x006aa566      bc81           cmp.l d1, d6
   < 0x006aa568      6f0c           ble.b 0x6aa576
  > 0x006aa56a      486eff98       pea.l -0x68(a6)
        0x006aa56e      4eb900404468   jsr fcn.00404468
        0x006aa574      584f           addq.w 0x4, a7
   > 0x006aa576      1d7c0003ffe2   move.b 0x3, -0x1e(a6)
          0x006aa57c      2007           move.l d7, d0
          0x006aa57e      5380           subq.l 0x1, d0
          0x006aa580      0c800000000b   cmpi.l 0xb, d0
      < 0x006aa586      6302           bls.b 0x6aa58a
         0x006aa588      4e4f           trap 0xf
      > 0x006aa58a      2800           move.l d0, d4
          0x006aa58c      7603           moveq 0x3, d3
          0x006aa58e      4eb900406a74   jsr fcn.00406a74
          0x006aa594      41fae2e8       lea.l 0x6a887e(pc), a0
          0x006aa598      1d704800ffe3   move.b (a0, d4.l), -0x1d(a6)
          0x006aa59e      41fae2de       lea.l 0x6a887e(pc), a0
          0x006aa5a2      1d704801ffe4   move.b 0x1(a0, d4.l), -0x1c(a6)
          0x006aa5a8      41fae2d4       lea.l 0x6a887e(pc), a0
          0x006aa5ac      1d704802ffe5   move.b 0x2(a0, d4.l), -0x1b(a6)
          0x006aa5b2      4a2e0008       tst.b 0x8(a6)
      < 0x006aa5b6      670000ec       beq.w 0x6aa6a4
         0x006aa5ba      2f06           move.l d6, -(a7)
         0x006aa5bc      4e93           jsr (a3)                    ; fcn.0000000c
         0x006aa5be      9efc00f8       suba.w 0xf8, a7
         0x006aa5c2      2f2effe2       move.l -0x1e(a6), -(a7)
         0x006aa5c6      1f6effe60004   move.b -0x1a(a6), 0x4(a7)
         0x006aa5cc      4eb900404074   jsr p_Push_String
         0x006aa5d2      defc00fc       adda.w 0xfc, a7
         0x006aa5d6      2e85           move.l d5, (a7)
         0x006aa5d8      4e93           jsr (a3)                    ; fcn.0000000c
         0x006aa5da      584f           addq.w 0x4, a7
         0x006aa5dc      4a2e000a       tst.b 0xa(a6)
     < 0x006aa5e0      676c           beq.b 0x6aa64e
        0x006aa5e2      9efc000a       suba.w 0xa, a7
        0x006aa5e6      2f3af504       move.l 0x6a9aec(pc), -(a7)
        0x006aa5ea      2f7af5040004   move.l 0x6a9af0(pc), 0x4(a7)
        0x006aa5f0      2f7af5020008   move.l 0x6a9af4(pc), 0x8(a7)
        0x006aa5f6      1f7af500000c   move.b 0x6a9af8(pc), 0xc(a7)
        0x006aa5fc      9efc0100       suba.w 0x100, a7
        0x006aa600      486f0100       pea.l 0x100(a7)
        0x006aa604      3f3c0001       move.w 0x1, -(a7)
        0x006aa608      3f3c000d       move.w 0xd, -(a7)
        0x006aa60c      4eb900408dda   jsr p_format
        0x006aa612      504f           addq.w 0x8, a7
        0x006aa614      4240           clr.w d0
        0x006aa616      1017           move.b (a7), d0
        0x006aa618      0c000018       cmpi.b 0x18, d0
    < 0x006aa61c      6302           bls.b 0x6aa620
       0x006aa61e      7018           moveq 0x18, d0
    > 0x006aa620      1480           move.b d0, (a2)
        0x006aa622      5300           subq.b 0x1, d0
    < 0x006aa624      650e           bcs.b 0x6aa634
       0x006aa626      41eeffe8       lea.l -0x18(a6), a0
       0x006aa62a      43ef0001       lea.l 0x1(a7), a1
   > 0x006aa62e      10d9           move.b (a1)+, (a0)+
   < 0x006aa630      51c8fffc       dbra d0, 0x6aa62e
    > 0x006aa634      defc010e       adda.w 0x10e, a7
        0x006aa638      102effe8       move.b -0x18(a6), d0
        0x006aa63c      0c000020       cmpi.b 0x20, d0
    < 0x006aa640      66000134       bne.w 0x6aa776
       0x006aa644      1d7c0030ffe8   move.b 0x30, -0x18(a6)
   < 0x006aa64a      6000012a       bra.w 0x6aa776
   > 0x006aa64e      9efc000a       suba.w 0xa, a7
       0x006aa652      2f3af4a6       move.l 0x6a9afa(pc), -(a7)
       0x006aa656      2f7af4a60004   move.l 0x6a9afe(pc), 0x4(a7)
       0x006aa65c      2f7af4a40008   move.l 0x6a9b02(pc), 0x8(a7)
       0x006aa662      1f7af4a2000c   move.b 0x6a9b06(pc), 0xc(a7)
       0x006aa668      9efc0100       suba.w 0x100, a7
       0x006aa66c      486f0100       pea.l 0x100(a7)
       0x006aa670      3f3c0001       move.w 0x1, -(a7)
       0x006aa674      3f3c000d       move.w 0xd, -(a7)
       0x006aa678      4eb900408dda   jsr p_format
       0x006aa67e      504f           addq.w 0x8, a7
       0x006aa680      4240           clr.w d0
       0x006aa682      1017           move.b (a7), d0
       0x006aa684      0c000018       cmpi.b 0x18, d0
   < 0x006aa688      6302           bls.b 0x6aa68c
      0x006aa68a      7018           moveq 0x18, d0
   > 0x006aa68c      1480           move.b d0, (a2)
       0x006aa68e      5300           subq.b 0x1, d0
   < 0x006aa690      650e           bcs.b 0x6aa6a0
      0x006aa692      41eeffe8       lea.l -0x18(a6), a0
      0x006aa696      43ef0001       lea.l 0x1(a7), a1
  > 0x006aa69a      10d9           move.b (a1)+, (a0)+
  < 0x006aa69c      51c8fffc       dbra d0, 0x6aa69a
  > 0x006aa6a0      600000d0       bra.w 0x6aa772
   > 0x006aa6a4      9efc00fc       suba.w 0xfc, a7
       0x006aa6a8      2f2effe2       move.l -0x1e(a6), -(a7)
       0x006aa6ac      1f6effe60004   move.b -0x1a(a6), 0x4(a7)
       0x006aa6b2      4eb900404074   jsr p_Push_String
       0x006aa6b8      defc00fc       adda.w 0xfc, a7
       0x006aa6bc      2e86           move.l d6, (a7)
       0x006aa6be      4e93           jsr (a3)                    ; fcn.0000000c
       0x006aa6c0      2e85           move.l d5, (a7)
       0x006aa6c2      4e93           jsr (a3)                    ; fcn.0000000c
       0x006aa6c4      584f           addq.w 0x4, a7
       0x006aa6c6      4a2e000a       tst.b 0xa(a6)
   < 0x006aa6ca      6754           beq.b 0x6aa720
      0x006aa6cc      9efc000a       suba.w 0xa, a7
      0x006aa6d0      2f3af436       move.l 0x6a9b08(pc), -(a7)
      0x006aa6d4      2f7af4360004   move.l 0x6a9b0c(pc), 0x4(a7)
      0x006aa6da      2f7af4340008   move.l 0x6a9b10(pc), 0x8(a7)
      0x006aa6e0      1f7af432000c   move.b 0x6a9b14(pc), 0xc(a7)
      0x006aa6e6      9efc0100       suba.w 0x100, a7
      0x006aa6ea      486f0100       pea.l 0x100(a7)
      0x006aa6ee      3f3c0001       move.w 0x1, -(a7)
      0x006aa6f2      3f3c000d       move.w 0xd, -(a7)
      0x006aa6f6      4eb900408dda   jsr p_format
      0x006aa6fc      504f           addq.w 0x8, a7
      0x006aa6fe      4240           clr.w d0
      0x006aa700      1017           move.b (a7), d0
      0x006aa702      0c000018       cmpi.b 0x18, d0
  < 0x006aa706      6302           bls.b 0x6aa70a
     0x006aa708      7018           moveq 0x18, d0
  > 0x006aa70a      1480           move.b d0, (a2)
      0x006aa70c      5300           subq.b 0x1, d0
  < 0x006aa70e      650e           bcs.b 0x6aa71e
     0x006aa710      41eeffe8       lea.l -0x18(a6), a0
     0x006aa714      43ef0001       lea.l 0x1(a7), a1
 > 0x006aa718      10d9           move.b (a1)+, (a0)+
 < 0x006aa71a      51c8fffc       dbra d0, 0x6aa718
 > 0x006aa71e      6052           bra.b 0x6aa772
  > 0x006aa720      9efc000a       suba.w 0xa, a7
      0x006aa724      2f3af3f0       move.l 0x6a9b16(pc), -(a7)
      0x006aa728      2f7af3f00004   move.l 0x6a9b1a(pc), 0x4(a7)
      0x006aa72e      2f7af3ee0008   move.l 0x6a9b1e(pc), 0x8(a7)
      0x006aa734      1f7af3ec000c   move.b 0x6a9b22(pc), 0xc(a7)
      0x006aa73a      9efc0100       suba.w 0x100, a7
      0x006aa73e      486f0100       pea.l 0x100(a7)
      0x006aa742      3f3c0001       move.w 0x1, -(a7)
      0x006aa746      3f3c000d       move.w 0xd, -(a7)
      0x006aa74a      4eb900408dda   jsr p_format
      0x006aa750      504f           addq.w 0x8, a7
      0x006aa752      4240           clr.w d0
      0x006aa754      1017           move.b (a7), d0
      0x006aa756      0c000018       cmpi.b 0x18, d0
  < 0x006aa75a      6302           bls.b 0x6aa75e
     0x006aa75c      7018           moveq 0x18, d0
  > 0x006aa75e      1480           move.b d0, (a2)
      0x006aa760      5300           subq.b 0x1, d0
  < 0x006aa762      650e           bcs.b 0x6aa772
     0x006aa764      41eeffe8       lea.l -0x18(a6), a0
     0x006aa768      43ef0001       lea.l 0x1(a7), a1
 > 0x006aa76c      10d9           move.b (a1)+, (a0)+
 < 0x006aa76e      51c8fffc       dbra d0, 0x6aa76c
 > 0x006aa772      defc010e       adda.w 0x10e, a7
   > 0x006aa776      4eb900404188   jsr p_Unlink
           0x006aa77c      4a2e000c       tst.b 0xc(a6)
       < 0x006aa780      670000d0       beq.w 0x6aa852
          0x006aa784      4240           clr.w d0
          0x006aa786      1012           move.b (a2), d0
          0x006aa788      0c000004       cmpi.b 0x4, d0
      < 0x006aa78c      6302           bls.b 0x6aa790
         0x006aa78e      7004           moveq 0x4, d0
      > 0x006aa790      5300           subq.b 0x1, d0
      < 0x006aa792      6510           bcs.b 0x6aa7a4
         0x006aa794      41eeffe8       lea.l -0x18(a6), a0
         0x006aa798      43faf38a       lea.l 0x6a9b24(pc), a1
     > 0x006aa79c      b109           cmpm.b (a1)+, (a0)+
     < 0x006aa79e      56c8fffc       dbne d0, 0x6aa79c
     < 0x006aa7a2      6606           bne.b 0x6aa7aa
     > 0x006aa7a4      1012           move.b (a2), d0
         0x006aa7a6      0c000004       cmpi.b 0x4, d0
     < 0x006aa7aa      670000a6       beq.w 0x6aa852
         0x006aa7ae      9efc0100       suba.w 0x100, a7
         0x006aa7b2      0486ffff8000   subi.l 0xffff8000, d6
         0x006aa7b8      0c860000ffff   cmpi.l 0xffff, d6
     < 0x006aa7be      6302           bls.b 0x6aa7c2
        0x006aa7c0      4e4f           trap 0xf
     > 0x006aa7c2      0686ffff8000   addi.l 0xffff8000, d6
         0x006aa7c8      3f06           move.w d6, -(a7)
         0x006aa7ca      0487ffff8000   subi.l 0xffff8000, d7
         0x006aa7d0      0c870000ffff   cmpi.l 0xffff, d7
     < 0x006aa7d6      6302           bls.b 0x6aa7da
        0x006aa7d8      4e4f           trap 0xf
     > 0x006aa7da      0687ffff8000   addi.l 0xffff8000, d7
         0x006aa7e0      3f07           move.w d7, -(a7)
         0x006aa7e2      0485ffff8000   subi.l 0xffff8000, d5
         0x006aa7e8      0c850000ffff   cmpi.l 0xffff, d5
     < 0x006aa7ee      6302           bls.b 0x6aa7f2
        0x006aa7f0      4e4f           trap 0xf
     > 0x006aa7f2      0685ffff8000   addi.l 0xffff8000, d5
         0x006aa7f8      3f05           move.w d5, -(a7)
         0x006aa7fa      4ebaf77c       jsr DATE_UTILS.day_of_week(pc)
         0x006aa7fe      5c4f           addq.w 0x6, a7
         0x006aa800      4240           clr.w d0
         0x006aa802      1017           move.b (a7), d0
         0x006aa804      3200           move.w d0, d1
         0x006aa806      41ee0013       lea.l 0x13(a6), a0
         0x006aa80a      5301           subq.b 0x1, d1
     < 0x006aa80c      650a           bcs.b 0x6aa818
        0x006aa80e      43ef0001       lea.l 0x1(a7), a1
    > 0x006aa812      10d9           move.b (a1)+, (a0)+
    < 0x006aa814      51c9fffc       dbra d1, 0x6aa812
     > 0x006aa818      4241           clr.w d1
         0x006aa81a      1212           move.b (a2), d1
         0x006aa81c      d200           add.b d0, d1
     < 0x006aa81e      6406           bcc.b 0x6aa826
        0x006aa820      4eb900406c8a   jsr p_strovr
     > 0x006aa826      4241           clr.w d1
         0x006aa828      1212           move.b (a2), d1
         0x006aa82a      343c00ff       move.w 0xff, d2
         0x006aa82e      9440           sub.w d0, d2
         0x006aa830      b242           cmp.w d2, d1
     < 0x006aa832      6302           bls.b 0x6aa836
        0x006aa834      3202           move.w d2, d1
     > 0x006aa836      1d400012       move.b d0, 0x12(a6)
         0x006aa83a      d32e0012       add.b d1, 0x12(a6)
         0x006aa83e      5301           subq.b 0x1, d1
     < 0x006aa840      650a           bcs.b 0x6aa84c
        0x006aa842      43eeffe8       lea.l -0x18(a6), a1
    > 0x006aa846      10d9           move.b (a1)+, (a0)+
    < 0x006aa848      51c9fffc       dbra d1, 0x6aa846
     > 0x006aa84c      defc0100       adda.w 0x100, a7
     < 0x006aa850      600e           bra.b 0x6aa860
     > 0x006aa852      41ee0012       lea.l 0x12(a6), a0
          0x006aa856      224a           movea.l a2, a1
          0x006aa858      7018           moveq 0x18, d0
      > 0x006aa85a      10d9           move.b (a1)+, (a0)+
      < 0x006aa85c      51c8fffc       dbra d0, 0x6aa85a
     > 0x006aa860      4cdf1fff       movem.l (a7)+, d0-d7/a0-a4
           0x006aa864      4e5e           unlk a6
           0x006aa866      4e75           rts
            ; CALL XREF from DATE_UTILS.date_illegal @ 0x6aa8ce
            ; CALL XREF from DATE_UTILS.date_1_jan_1980 @ 0x6aa908
 54: DATE_UTILS.midnight ();
           0x006aa868      4e56fff8       link.w a6, 0xfff8
           0x006aa86c      bfd5           cmpa.l (a5), a7
       < 0x006aa86e      6206           bhi.b 0x6aa876
          0x006aa870      44fc0002       move.w 0x2, ccr
          0x006aa874      4e76           trapv
       > 0x006aa876      defc0008       adda.w 0x8, a7
           0x006aa87a      48e70080       movem.l a0, -(a7)
           0x006aa87e      206c0138       movea.l 0x138(a4), a0
           0x006aa882      4290           clr.l (a0)
           0x006aa884      206c0134       movea.l 0x134(a4), a0
           0x006aa888      4290           clr.l (a0)
           0x006aa88a      206c0130       movea.l 0x130(a4), a0
           0x006aa88e      4290           clr.l (a0)
           0x006aa890      206c012c       movea.l 0x12c(a4), a0
           0x006aa894      4290           clr.l (a0)
           0x006aa896      4cdf0100       movem.l (a7)+, a0
           0x006aa89a      4e5e           unlk a6
           0x006aa89c      4e75           rts
            ; CALL XREF from DATE_UTILS @ +0x2894
 60: DATE_UTILS.date_illegal ();
           0x006aa89e      4e56fff8       link.w a6, 0xfff8
           0x006aa8a2      bfd5           cmpa.l (a5), a7
       < 0x006aa8a4      6206           bhi.b 0x6aa8ac
          0x006aa8a6      44fc0002       move.w 0x2, ccr
          0x006aa8aa      4e76           trapv
       > 0x006aa8ac      defc0008       adda.w 0x8, a7
           0x006aa8b0      48e70080       movem.l a0, -(a7)
           0x006aa8b4      206c013c       movea.l 0x13c(a4), a0
           0x006aa8b8      20bc000007bc   move.l 0x7bc, (a0)
           0x006aa8be      206c0140       movea.l 0x140(a4), a0
           0x006aa8c2      4290           clr.l (a0)
           0x006aa8c4      206c0144       movea.l 0x144(a4), a0
           0x006aa8c8      20bcffffffff   move.l 0xffffffff, (a0)
           0x006aa8ce      4ebaff98       jsr DATE_UTILS.midnight(pc)
           0x006aa8d2      4cdf0100       movem.l (a7)+, a0
           0x006aa8d6      4e5e           unlk a6
           0x006aa8d8      4e75           rts
 58: DATE_UTILS.date_1_jan_1980 ();
           0x006aa8da      4e56fff4       link.w a6, 0xfff4
           0x006aa8de      bfd5           cmpa.l (a5), a7
       < 0x006aa8e0      6206           bhi.b 0x6aa8e8
          0x006aa8e2      44fc0002       move.w 0x2, ccr
          0x006aa8e6      4e76           trapv
       > 0x006aa8e8      defc000c       adda.w 0xc, a7
           0x006aa8ec      48e78080       movem.l d0/a0, -(a7)
           0x006aa8f0      7001           moveq 0x1, d0
           0x006aa8f2      206c013c       movea.l 0x13c(a4), a0
           0x006aa8f6      20bc000007bc   move.l 0x7bc, (a0)
           0x006aa8fc      206c0140       movea.l 0x140(a4), a0
           0x006aa900      2080           move.l d0, (a0)
           0x006aa902      206c0144       movea.l 0x144(a4), a0
           0x006aa906      2080           move.l d0, (a0)
           0x006aa908      4ebaff5e       jsr DATE_UTILS.midnight(pc)
           0x006aa90c      4cdf0101       movem.l (a7)+, d0/a0
           0x006aa910      4e5e           unlk a6
           0x006aa912      4e75           rts
            ; CALL XREF from DATE_UTILS.date_parser @ 0x6aaa6a
 64: DATE_UTILS.this_year ();
           0x006aa914      4e56ffe2       link.w a6, 0xffe2
           0x006aa918      bfd5           cmpa.l (a5), a7
       < 0x006aa91a      6206           bhi.b 0x6aa922
          0x006aa91c      44fc0002       move.w 0x2, ccr
          0x006aa920      4e76           trapv
       > 0x006aa922      defc0018       adda.w 0x18, a7
           0x006aa926      48e78080       movem.l d0/a0, -(a7)
           0x006aa92a      486efffa       pea.l -0x6(a6)
           0x006aa92e      486efffc       pea.l -0x4(a6)
           0x006aa932      486efffe       pea.l -0x2(a6)
           0x006aa936      4eb90046248a   jsr S1_NVRAM.date_val
           0x006aa93c      defc000c       adda.w 0xc, a7
           0x006aa940      206c013c       movea.l 0x13c(a4), a0
           0x006aa944      302efffe       move.w -0x2(a6), d0
           0x006aa948      48c0           ext.l d0
           0x006aa94a      2080           move.l d0, (a0)
           0x006aa94c      4cdf0101       movem.l (a7)+, d0/a0
           0x006aa950      4e5e           unlk a6
           0x006aa952      4e75           rts
 348: DATE_UTILS.date_parser ();
           ; var int32_t var_edbh @ a6-0xedb
           0x006aa954      4e56fd5a       link.w a6, 0xfd5a
           0x006aa958      bfd5           cmpa.l (a5), a7
       < 0x006aa95a      6206           bhi.b 0x6aa962
          0x006aa95c      44fc0002       move.w 0x2, ccr
          0x006aa960      4e76           trapv
       > 0x006aa962      defc0182       adda.w 0x182, a7
           0x006aa966      48e7fff8       movem.l d0-d7/a0-a4, -(a7)
           0x006aa96a      7a01           moveq 0x1, d5
           0x006aa96c      7c01           moveq 0x1, d6
           0x006aa96e      7e01           moveq 0x1, d7
           0x006aa970      206e0024       movea.l 0x24(a6), a0
       > 0x006aa974      2007           move.l d7, d0
          0x006aa976      5380           subq.l 0x1, d0
          0x006aa978      0c8000000002   cmpi.l 0x2, d0
      < 0x006aa97e      6302           bls.b 0x6aa982
         0x006aa980      4e4f           trap 0xf
      > 0x006aa982      2800           move.l d0, d4
          0x006aa984      263c00000102   move.l 0x102, d3
          0x006aa98a      4eb900406a74   jsr fcn.00406a74
          0x006aa990      43fadf60       lea.l 0x6a88f2(pc), a1
          0x006aa994      9efc0100       suba.w 0x100, a7
          0x006aa998      244f           movea.l a7, a2
          0x006aa99a      43f14800       lea.l (a1, d4.l), a1
          0x006aa99e      303c00ff       move.w 0xff, d0
      > 0x006aa9a2      14d9           move.b (a1)+, (a2)+
      < 0x006aa9a4      51c8fffc       dbra d0, 0x6aa9a2
          0x006aa9a8      4227           clr.b -(a7)
          0x006aa9aa      554f           subq.w 0x2, a7
          0x006aa9ac      486f0004       pea.l 0x4(a7)
          0x006aa9b0      4267           clr.w -(a7)
          0x006aa9b2      3f3c00ff       move.w 0xff, -(a7)
          0x006aa9b6      486efedc       pea.l -0x124(a6)
          0x006aa9ba      4eb900408712   jsr p_re_parse
          0x006aa9c0      defc000c       adda.w 0xc, a7
          0x006aa9c4      4a5f           tst.w (a7)+
      < 0x006aa9c6      6602           bne.b 0x6aa9ca
         0x006aa9c8      5217           addq.b 0x1, (a7)
      > 0x006aa9ca      4eb90040452a   jsr p_Assert
          0x006aa9d0      4850           pea.l (a0)
          0x006aa9d2      486efedc       pea.l -0x124(a6)
          0x006aa9d6      4eb90040894a   jsr p_re_match
          0x006aa9dc      504f           addq.w 0x8, a7
          0x006aa9de      101f           move.b (a7)+, d0
          0x006aa9e0      4400           neg.b d0
          0x006aa9e2      5200           addq.b 0x1, d0
          0x006aa9e4      4880           ext.w d0
          0x006aa9e6      4185           chk.w d5, d0
          0x006aa9e8      1c00           move.b d0, d6
          0x006aa9ea      5287           addq.l 0x1, d7
          0x006aa9ec      0c8700000003   cmpi.l 0x3, d7
      < 0x006aa9f2      6f06           ble.b 0x6aa9fa
         0x006aa9f4      defc0100       adda.w 0x100, a7
     < 0x006aa9f8      6010           bra.b 0x6aaa0a
     > 0x006aa9fa      4a06           tst.b d6
     < 0x006aa9fc      6708           beq.b 0x6aaa06
        0x006aa9fe      defc0100       adda.w 0x100, a7
     < 0x006aaa02      6000ff70       bra.w 0x6aa974
     > 0x006aaa06      defc0100       adda.w 0x100, a7
     > 0x006aaa0a      4a06           tst.b d6
       < 0x006aaa0c      660006f2       bne.w 0x6ab100
          0x006aaa10      5387           subq.l 0x1, d7
          0x006aaa12      226e0018       movea.l 0x18(a6), a1
          0x006aaa16      22bc000007bc   move.l 0x7bc, (a1)
          0x006aaa1c      246e001c       movea.l 0x1c(a6), a2
          0x006aaa20      2485           move.l d5, (a2)
          0x006aaa22      266e0020       movea.l 0x20(a6), a3
          0x006aaa26      2685           move.l d5, (a3)
          0x006aaa28      554f           subq.w 0x2, a7
          0x006aaa2a      1ebaf167       move.b 0x6a9b93(pc), (a7)
          0x006aaa2e      1f7af1640001   move.b 0x6a9b94(pc), 0x1(a7)
          0x006aaa34      9efc0100       suba.w 0x100, a7
          0x006aaa38      4850           pea.l (a0)
          0x006aaa3a      486f0104       pea.l 0x104(a7)
          0x006aaa3e      3f05           move.w d5, -(a7)
          0x006aaa40      3f3c0002       move.w 0x2, -(a7)
          0x006aaa44      4eb900408ac6   jsr p_re_substitute
          0x006aaa4a      defc000c       adda.w 0xc, a7
          0x006aaa4e      4857           pea.l (a7)
          0x006aaa50      4851           pea.l (a1)
          0x006aaa52      486efff8       pea.l -0x8(a6)
          0x006aaa56      4eb900406ffe   jsr p_vali
          0x006aaa5c      defc010e       adda.w 0x10e, a7
          0x006aaa60      4aaefff8       tst.l -0x8(a6)
      < 0x006aaa64      6708           beq.b 0x6aaa6e
         0x006aaa66      49eefedc       lea.l -0x124(a6), a4
         0x006aaa6a      4ebafea8       jsr DATE_UTILS.this_year(pc)
      > 0x006aaa6e      1d7af125ffde   move.b 0x6a9b95(pc), -0x22(a6)
          0x006aaa74      2007           move.l d7, d0
          0x006aaa76      5380           subq.l 0x1, d0
          0x006aaa78      0c8000000002   cmpi.l 0x2, d0
      < 0x006aaa7e      6302           bls.b 0x6aaa82
         0x006aaa80      4e4f           trap 0xf
      > 0x006aaa82      2800           move.l d0, d4
          0x006aaa84      263c00000102   move.l 0x102, d3
          0x006aaa8a      4eb900406a74   jsr fcn.00406a74
          0x006aaa90      43fade60       lea.l 0x6a88f2(pc), a1
          0x006aaa94      43f14800       lea.l (a1, d4.l), a1
          0x006aaa98      10290100       move.b 0x100(a1), d0
          0x006aaa9c      4880           ext.w d0
          0x006aaa9e      0c400002       cmpi.w 0x2, d0
      < 0x006aaaa2      6302           bls.b 0x6aaaa6
         0x006aaaa4      4e4e           trap 0xe
      > 0x006aaaa6      d040           add.w d0, d0
          0x006aaaa8      303b0006       move.w 0x6aaab0(pc, d0.w), d0
          0x006aaaac      4efb0002       jmp 0x6aaab0(pc, d0.w)
           0x006aaab0      018e0006       movep.w d0, 0x6(a6)
           0x006aaab4      00d0554f       
           0x006aaab5      d055           add.w (a5), d0
           0x006aaab7      4f1e           chk.l (a6)+, d7
           0x006aaab9      baf0dd1f7af0.  cmpa.w ([a0], a5.l * 4, 0x7af0da00), a5
           0x006aaac1      019e           bclr.b d0, (a6)+
           0x006aaac3      fc010048       fgetexp fp0
           0x006aaac7      5048           addq.w 0x8, a0
       < 0x006aaac9      6f01           ble.b 0x6aaacc
          0x006aaacb      043f053f       
       > 0x006aaacc      3f05           move.w d5, -(a7)
           0x006aaace      3f3c0002       move.w 0x2, -(a7)
           0x006aaad2      4eb900408ac6   jsr p_re_substitute
           0x006aaad8      defc000c       adda.w 0xc, a7
           0x006aaadc      4857           pea.l (a7)
           0x006aaade      4853           pea.l (a3)
           0x006aaae0      486efff8       pea.l -0x8(a6)
           0x006aaae4      4eb900406ffe   jsr p_vali
           0x006aaaea      defc010c       adda.w 0x10c, a7
           0x006aaaee      3ebaf0aa       move.w 0x6a9b9a(pc), (a7)
           0x006aaaf2      9efc0100       suba.w 0x100, a7
           0x006aaaf6      4850           pea.l (a0)
           0x006aaaf8      486f0104       pea.l 0x104(a7)
           0x006aaafc      3f05           move.w d5, -(a7)
           0x006aaafe      3f3c0002       move.w 0x2, -(a7)
           0x006aab02      4eb900408ac6   jsr p_re_substitute
           0x006aab08      defc000c       adda.w 0xc, a7
           0x006aab0c      4240           clr.w d0
           0x006aab0e      1017           move.b (a7), d0
           0x006aab10      0c000008       cmpi.b 0x8, d0
       < 0x006aab14      6302           bls.b 0x6aab18
          0x006aab16      7008           moveq 0x8, d0
       > 0x006aab18      1d40ffde       move.b d0, -0x22(a6)
           0x006aab1c      5300           subq.b 0x1, d0
       < 0x006aab1e      650e           bcs.b 0x6aab2e
          0x006aab20      43eeffdf       lea.l -0x21(a6), a1
          0x006aab24      45ef0001       lea.l 0x1(a7), a2
      > 0x006aab28      12da           move.b (a2)+, (a1)+
      < 0x006aab2a      51c8fffc       dbra d0, 0x6aab28
       > 0x006aab2e      defc0100       adda.w 0x100, a7
           0x006aab32      1ebaf069       move.b 0x6a9b9d(pc), (a7)
           0x006aab36      1f7af0660001   move.b 0x6a9b9e(pc), 0x1(a7)
           0x006aab3c      9efc0100       suba.w 0x100, a7
           0x006aab40      4850           pea.l (a0)
           0x006aab42      486f0104       pea.l 0x104(a7)
           0x006aab46      3f05           move.w d5, -(a7)
           0x006aab48      3f3c0002       move.w 0x2, -(a7)
           0x006aab4c      4eb900408ac6   jsr p_re_substitute
           0x006aab52      defc000c       adda.w 0xc, a7
           0x006aab56      4240           clr.w d0
           0x006aab58      1017           move.b (a7), d0
           0x006aab5a      0c00000b       cmpi.b 0xb, d0
       < 0x006aab5e      6302           bls.b 0x6aab62
          0x006aab60      700b           moveq 0xb, d0
       > 0x006aab62      1d40ffe7       move.b d0, -0x19(a6)
           0x006aab66      5300           subq.b 0x1, d0
       < 0x006aab68      650e           bcs.b 0x6aab78
          0x006aab6a      43eeffe8       lea.l -0x18(a6), a1
          0x006aab6e      45ef0001       lea.l 0x1(a7), a2
      > 0x006aab72      12da           move.b (a2)+, (a1)+
      < 0x006aab74      51c8fffc       dbra d0, 0x6aab72
      > 0x006aab78      defc0102       adda.w 0x102, a7
      < 0x006aab7c      6000022a       bra.w 0x6aada8
         0x006aab80      3f3af01e       move.w 0x6a9ba0(pc), -(a7)
         0x006aab84      9efc0100       suba.w 0x100, a7
         0x006aab88      4850           pea.l (a0)
         0x006aab8a      486f0104       pea.l 0x104(a7)
         0x006aab8e      3f05           move.w d5, -(a7)
         0x006aab90      3f3c0002       move.w 0x2, -(a7)
         0x006aab94      4eb900408ac6   jsr p_re_substitute
         0x006aab9a      defc000c       adda.w 0xc, a7
         0x006aab9e      4857           pea.l (a7)
         0x006aaba0      4853           pea.l (a3)
         0x006aaba2      486efff8       pea.l -0x8(a6)
         0x006aaba6      4eb900406ffe   jsr p_vali
         0x006aabac      defc010c       adda.w 0x10c, a7
         0x006aabb0      1ebaeff1       move.b 0x6a9ba3(pc), (a7)
         0x006aabb4      1f7aefee0001   move.b 0x6a9ba4(pc), 0x1(a7)
         0x006aabba      9efc0100       suba.w 0x100, a7
         0x006aabbe      4850           pea.l (a0)
         0x006aabc0      486f0104       pea.l 0x104(a7)
         0x006aabc4      3f05           move.w d5, -(a7)
         0x006aabc6      3f3c0002       move.w 0x2, -(a7)
         0x006aabca      4eb900408ac6   jsr p_re_substitute
         0x006aabd0      defc000c       adda.w 0xc, a7
         0x006aabd4      4240           clr.w d0
         0x006aabd6      1017           move.b (a7), d0
         0x006aabd8      0c000008       cmpi.b 0x8, d0
     < 0x006aabdc      6302           bls.b 0x6aabe0
        0x006aabde      7008           moveq 0x8, d0
     > 0x006aabe0      1d40ffde       move.b d0, -0x22(a6)
         0x006aabe4      5300           subq.b 0x1, d0
     < 0x006aabe6      650e           bcs.b 0x6aabf6
        0x006aabe8      43eeffdf       lea.l -0x21(a6), a1
        0x006aabec      45ef0001       lea.l 0x1(a7), a2
    > 0x006aabf0      12da           move.b (a2)+, (a1)+
    < 0x006aabf2      51c8fffc       dbra d0, 0x6aabf0
     > 0x006aabf6      defc0100       adda.w 0x100, a7
         0x006aabfa      3ebaefaa       move.w 0x6a9ba6(pc), (a7)
         0x006aabfe      9efc0100       suba.w 0x100, a7
         0x006aac02      4850           pea.l (a0)
         0x006aac04      486f0104       pea.l 0x104(a7)
         0x006aac08      3f05           move.w d5, -(a7)
         0x006aac0a      3f3c0002       move.w 0x2, -(a7)
         0x006aac0e      4eb900408ac6   jsr p_re_substitute
         0x006aac14      defc000c       adda.w 0xc, a7
         0x006aac18      4240           clr.w d0
         0x006aac1a      1017           move.b (a7), d0
         0x006aac1c      0c00000b       cmpi.b 0xb, d0
     < 0x006aac20      6302           bls.b 0x6aac24
        0x006aac22      700b           moveq 0xb, d0
     > 0x006aac24      1d40ffe7       move.b d0, -0x19(a6)
         0x006aac28      5300           subq.b 0x1, d0
     < 0x006aac2a      650e           bcs.b 0x6aac3a
        0x006aac2c      43eeffe8       lea.l -0x18(a6), a1
        0x006aac30      45ef0001       lea.l 0x1(a7), a2
    > 0x006aac34      12da           move.b (a2)+, (a1)+
    < 0x006aac36      51c8fffc       dbra d0, 0x6aac34
     < 0x006aac3a      6000ff3c       bra.w 0x6aab78
          0x006aac3e      554f           subq.w 0x2, a7
          0x006aac40      4eb900478a3a   jsr CONFIGCOM.tvsys
          0x006aac46      4a1f           tst.b (a7)+
      < 0x006aac48      660000b4       bne.w 0x6aacfe
         0x006aac4c      554f           subq.w 0x2, a7
         0x006aac4e      1ebaef59       move.b 0x6a9ba9(pc), (a7)
         0x006aac52      1f7aef560001   move.b 0x6a9baa(pc), 0x1(a7)
         0x006aac58      9efc0100       suba.w 0x100, a7
         0x006aac5c      4850           pea.l (a0)
         0x006aac5e      486f0104       pea.l 0x104(a7)
         0x006aac62      3f05           move.w d5, -(a7)
         0x006aac64      3f3c0002       move.w 0x2, -(a7)
         0x006aac68      4eb900408ac6   jsr p_re_substitute
         0x006aac6e      defc000c       adda.w 0xc, a7
         0x006aac72      4857           pea.l (a7)
         0x006aac74      4853           pea.l (a3)
         0x006aac76      486efff8       pea.l -0x8(a6)
         0x006aac7a      4eb900406ffe   jsr p_vali
         0x006aac80      defc010c       adda.w 0x10c, a7
         0x006aac84      3ebaef26       move.w 0x6a9bac(pc), (a7)
         0x006aac88      9efc0100       suba.w 0x100, a7
         0x006aac8c      4850           pea.l (a0)
         0x006aac8e      486f0104       pea.l 0x104(a7)
         0x006aac92      3f05           move.w d5, -(a7)
         0x006aac94      3f3c0002       move.w 0x2, -(a7)
         0x006aac98      4eb900408ac6   jsr p_re_substitute
         0x006aac9e      defc000c       adda.w 0xc, a7
         0x006aaca2      4857           pea.l (a7)
         0x006aaca4      4852           pea.l (a2)
         0x006aaca6      486efff8       pea.l -0x8(a6)
         0x006aacaa      4eb900406ffe   jsr p_vali
         0x006aacb0      defc010c       adda.w 0x10c, a7
         0x006aacb4      1ebaeef9       move.b 0x6a9baf(pc), (a7)
         0x006aacb8      1f7aeef60001   move.b 0x6a9bb0(pc), 0x1(a7)
         0x006aacbe      9efc0100       suba.w 0x100, a7
         0x006aacc2      4850           pea.l (a0)
         0x006aacc4      486f0104       pea.l 0x104(a7)
         0x006aacc8      3f05           move.w d5, -(a7)
         0x006aacca      3f3c0002       move.w 0x2, -(a7)
         0x006aacce      4eb900408ac6   jsr p_re_substitute
         0x006aacd4      defc000c       adda.w 0xc, a7
         0x006aacd8      4240           clr.w d0
         0x006aacda      1017           move.b (a7), d0
         0x006aacdc      0c00000b       cmpi.b 0xb, d0
     < 0x006aace0      6302           bls.b 0x6aace4
        0x006aace2      700b           moveq 0xb, d0
     > 0x006aace4      1d40ffe7       move.b d0, -0x19(a6)
         0x006aace8      5300           subq.b 0x1, d0
     < 0x006aacea      650e           bcs.b 0x6aacfa
        0x006aacec      43eeffe8       lea.l -0x18(a6), a1
        0x006aacf0      41ef0001       lea.l 0x1(a7), a0
    > 0x006aacf4      12d8           move.b (a0)+, (a1)+
    < 0x006aacf6      51c8fffc       dbra d0, 0x6aacf4
    > 0x006aacfa      600000a8       bra.w 0x6aada4
     > 0x006aacfe      3f3aeeb2       move.w 0x6a9bb2(pc), -(a7)
         0x006aad02      9efc0100       suba.w 0x100, a7
         0x006aad06      4850           pea.l (a0)
         0x006aad08      486f0104       pea.l 0x104(a7)
         0x006aad0c      3f05           move.w d5, -(a7)
         0x006aad0e      3f3c0002       move.w 0x2, -(a7)
         0x006aad12      4eb900408ac6   jsr p_re_substitute
         0x006aad18      defc000c       adda.w 0xc, a7
         0x006aad1c      4857           pea.l (a7)
         0x006aad1e      4853           pea.l (a3)
         0x006aad20      486efff8       pea.l -0x8(a6)
         0x006aad24      4eb900406ffe   jsr p_vali
         0x006aad2a      defc010c       adda.w 0x10c, a7
         0x006aad2e      1ebaee85       move.b 0x6a9bb5(pc), (a7)
         0x006aad32      1f7aee820001   move.b 0x6a9bb6(pc), 0x1(a7)
         0x006aad38      9efc0100       suba.w 0x100, a7
         0x006aad3c      4850           pea.l (a0)
         0x006aad3e      486f0104       pea.l 0x104(a7)
         0x006aad42      3f05           move.w d5, -(a7)
         0x006aad44      3f3c0002       move.w 0x2, -(a7)
         0x006aad48      4eb900408ac6   jsr p_re_substitute
         0x006aad4e      defc000c       adda.w 0xc, a7
         0x006aad52      4857           pea.l (a7)
         0x006aad54      4852           pea.l (a2)
         0x006aad56      486efff8       pea.l -0x8(a6)
         0x006aad5a      4eb900406ffe   jsr p_vali
         0x006aad60      defc010c       adda.w 0x10c, a7
         0x006aad64      3ebaee52       move.w 0x6a9bb8(pc), (a7)
         0x006aad68      9efc0100       suba.w 0x100, a7
         0x006aad6c      4850           pea.l (a0)
         0x006aad6e      486f0104       pea.l 0x104(a7)
         0x006aad72      3f05           move.w d5, -(a7)
         0x006aad74      3f3c0002       move.w 0x2, -(a7)
         0x006aad78      4eb900408ac6   jsr p_re_substitute
         0x006aad7e      defc000c       adda.w 0xc, a7
         0x006aad82      4240           clr.w d0
         0x006aad84      1017           move.b (a7), d0
         0x006aad86      0c00000b       cmpi.b 0xb, d0
     < 0x006aad8a      6302           bls.b 0x6aad8e
        0x006aad8c      700b           moveq 0xb, d0
     > 0x006aad8e      1d40ffe7       move.b d0, -0x19(a6)
         0x006aad92      5300           subq.b 0x1, d0
     < 0x006aad94      650e           bcs.b 0x6aada4
        0x006aad96      43eeffe8       lea.l -0x18(a6), a1
        0x006aad9a      41ef0001       lea.l 0x1(a7), a0
    > 0x006aad9e      12d8           move.b (a0)+, (a1)+
    < 0x006aada0      51c8fffc       dbra d0, 0x6aad9e
    > 0x006aada4      defc0102       adda.w 0x102, a7
       > 0x006aada8      4eb900404188   jsr p_Unlink
           0x006aadae      4240           clr.w d0
           0x006aadb0      102effe7       move.b -0x19(a6), d0
       < 0x006aadb4      6302           bls.b 0x6aadb8
          0x006aadb6      7000           moveq 0x0, d0
       > 0x006aadb8      5300           subq.b 0x1, d0
       < 0x006aadba      6510           bcs.b 0x6aadcc
          0x006aadbc      43eeffe8       lea.l -0x18(a6), a1
          0x006aadc0      45faee00       lea.l 0x6a9bc2(pc), a2
      > 0x006aadc4      b30a           cmpm.b (a2)+, (a1)+
      < 0x006aadc6      56c8fffc       dbne d0, 0x6aadc4
      < 0x006aadca      6604           bne.b 0x6aadd0
      > 0x006aadcc      102effe7       move.b -0x19(a6), d0
      < 0x006aadd0      6700015c       beq.w 0x6aaf2e
          0x006aadd4      9efc0038       suba.w 0x38, a7
          0x006aadd8      224f           movea.l a7, a1
          0x006aadda      45fadadf       lea.l 0x6a88bb(pc), a2
          0x006aadde      7036           moveq 0x36, d0
      > 0x006aade0      12da           move.b (a2)+, (a1)+
      < 0x006aade2      51c8fffc       dbra d0, 0x6aade0
          0x006aade6      4227           clr.b -(a7)
          0x006aade8      554f           subq.w 0x2, a7
          0x006aadea      486f0004       pea.l 0x4(a7)
          0x006aadee      3f05           move.w d5, -(a7)
          0x006aadf0      3f3c0037       move.w 0x37, -(a7)
          0x006aadf4      486efedc       pea.l -0x124(a6)
          0x006aadf8      4eb900408712   jsr p_re_parse
          0x006aadfe      defc000c       adda.w 0xc, a7
          0x006aae02      4a5f           tst.w (a7)+
      < 0x006aae04      6602           bne.b 0x6aae08
         0x006aae06      5217           addq.b 0x1, (a7)
      > 0x006aae08      4eb90040452a   jsr p_Assert
          0x006aae0e      486effe7       pea.l -0x19(a6)
          0x006aae12      486efedc       pea.l -0x124(a6)
          0x006aae16      4eb90040894a   jsr p_re_match
          0x006aae1c      504f           addq.w 0x8, a7
          0x006aae1e      101f           move.b (a7)+, d0
          0x006aae20      4400           neg.b d0
          0x006aae22      5200           addq.b 0x1, d0
          0x006aae24      4880           ext.w d0
          0x006aae26      4185           chk.w d5, d0
          0x006aae28      1c00           move.b d0, d6
      < 0x006aae2a      660000f4       bne.w 0x6aaf20
         0x006aae2e      554f           subq.w 0x2, a7
         0x006aae30      1ebaed91       move.b 0x6a9bc3(pc), (a7)
         0x006aae34      1f7aed8e0001   move.b 0x6a9bc4(pc), 0x1(a7)
         0x006aae3a      9efc0100       suba.w 0x100, a7
         0x006aae3e      486effe7       pea.l -0x19(a6)
         0x006aae42      486f0104       pea.l 0x104(a7)
         0x006aae46      3f05           move.w d5, -(a7)
         0x006aae48      3f3c0002       move.w 0x2, -(a7)
         0x006aae4c      4eb900408ac6   jsr p_re_substitute
         0x006aae52      defc000c       adda.w 0xc, a7
         0x006aae56      4857           pea.l (a7)
         0x006aae58      226e0014       movea.l 0x14(a6), a1
         0x006aae5c      4851           pea.l (a1)
         0x006aae5e      486efff8       pea.l -0x8(a6)
         0x006aae62      4eb900406ffe   jsr p_vali
         0x006aae68      defc010c       adda.w 0x10c, a7
         0x006aae6c      3ebaed58       move.w 0x6a9bc6(pc), (a7)
         0x006aae70      9efc0100       suba.w 0x100, a7
         0x006aae74      486effe7       pea.l -0x19(a6)
         0x006aae78      486f0104       pea.l 0x104(a7)
         0x006aae7c      3f05           move.w d5, -(a7)
         0x006aae7e      3f3c0002       move.w 0x2, -(a7)
         0x006aae82      4eb900408ac6   jsr p_re_substitute
         0x006aae88      defc000c       adda.w 0xc, a7
         0x006aae8c      4857           pea.l (a7)
         0x006aae8e      226e0010       movea.l 0x10(a6), a1
         0x006aae92      4851           pea.l (a1)
         0x006aae94      486efff8       pea.l -0x8(a6)
         0x006aae98      4eb900406ffe   jsr p_vali
         0x006aae9e      defc010c       adda.w 0x10c, a7
         0x006aaea2      1ebaed25       move.b 0x6a9bc9(pc), (a7)
         0x006aaea6      1f7aed220001   move.b 0x6a9bca(pc), 0x1(a7)
         0x006aaeac      9efc0100       suba.w 0x100, a7
         0x006aaeb0      486effe7       pea.l -0x19(a6)
         0x006aaeb4      486f0104       pea.l 0x104(a7)
         0x006aaeb8      3f05           move.w d5, -(a7)
         0x006aaeba      3f3c0002       move.w 0x2, -(a7)
         0x006aaebe      4eb900408ac6   jsr p_re_substitute
         0x006aaec4      defc000c       adda.w 0xc, a7
         0x006aaec8      4857           pea.l (a7)
         0x006aaeca      226e000c       movea.l 0xc(a6), a1
         0x006aaece      4851           pea.l (a1)
         0x006aaed0      486efff8       pea.l -0x8(a6)
         0x006aaed4      4eb900406ffe   jsr p_vali
         0x006aaeda      defc010c       adda.w 0x10c, a7
         0x006aaede      3ebaecec       move.w 0x6a9bcc(pc), (a7)
         0x006aaee2      9efc0100       suba.w 0x100, a7
         0x006aaee6      486effe7       pea.l -0x19(a6)
         0x006aaeea      486f0104       pea.l 0x104(a7)
         0x006aaeee      3f05           move.w d5, -(a7)
         0x006aaef0      3f3c0002       move.w 0x2, -(a7)
         0x006aaef4      4eb900408ac6   jsr p_re_substitute
         0x006aaefa      defc000c       adda.w 0xc, a7
         0x006aaefe      4857           pea.l (a7)
         0x006aaf00      226e0008       movea.l 0x8(a6), a1
         0x006aaf04      4851           pea.l (a1)
         0x006aaf06      486efff8       pea.l -0x8(a6)
         0x006aaf0a      4eb900406ffe   jsr p_vali
         0x006aaf10      defc010e       adda.w 0x10e, a7
         0x006aaf14      4eb900404188   jsr p_Unlink
         0x006aaf1a      defc0038       adda.w 0x38, a7
     < 0x006aaf1e      6016           bra.b 0x6aaf36
     > 0x006aaf20      49eefedc       lea.l -0x124(a6), a4
         0x006aaf24      4ebaf942       jsr DATE_UTILS.midnight(pc)
         0x006aaf28      defc0038       adda.w 0x38, a7
     < 0x006aaf2c      6008           bra.b 0x6aaf36
     > 0x006aaf2e      49eefedc       lea.l -0x124(a6), a4
         0x006aaf32      4ebaf934       jsr DATE_UTILS.midnight(pc)
     > 0x006aaf36      2007           move.l d7, d0
           0x006aaf38      5380           subq.l 0x1, d0
           0x006aaf3a      0c8000000002   cmpi.l 0x2, d0
       < 0x006aaf40      6302           bls.b 0x6aaf44
          0x006aaf42      4e4f           trap 0xf
       > 0x006aaf44      2800           move.l d0, d4
           0x006aaf46      263c00000102   move.l 0x102, d3
           0x006aaf4c      4eb900406a74   jsr fcn.00406a74
           0x006aaf52      43fad99e       lea.l 0x6a88f2(pc), a1
           0x006aaf56      43f14800       lea.l (a1, d4.l), a1
           0x006aaf5a      10290101       move.b 0x101(a1), d0
           0x006aaf5e      b005           cmp.b d5, d0
       < 0x006aaf60      660000c4       bne.w 0x6ab026
          0x006aaf64      4280           clr.l d0
          0x006aaf66      102effde       move.b -0x22(a6), d0
          0x006aaf6a      2f00           move.l d0, -(a7)
          0x006aaf6c      7e01           moveq 0x1, d7
      > 0x006aaf6e      be97           cmp.l (a7), d7
     < 0x006aaf70      6e26           bgt.b 0x6aaf98
        0x006aaf72      0c8700000008   cmpi.l 0x8, d7
    < 0x006aaf78      6302           bls.b 0x6aaf7c
       0x006aaf7a      4e4f           trap 0xf
    > 0x006aaf7c      43eefedc       lea.l -0x124(a6), a1
        0x006aaf80      43f17800       lea.l (a1, d7.l), a1
        0x006aaf84      554f           subq.w 0x2, a7
        0x006aaf86      1f290102       move.b 0x102(a1), -(a7)
        0x006aaf8a      4ebaefa2       jsr DATE_UTILS.lower(pc)
        0x006aaf8e      544f           addq.w 0x2, a7
        0x006aaf90      135f0102       move.b (a7)+, 0x102(a1)
        0x006aaf94      5287           addq.l 0x1, d7
     < 0x006aaf96      68d6           bvc.b 0x6aaf6e
     > 0x006aaf98      584f           addq.w 0x4, a7
          0x006aaf9a      7e01           moveq 0x1, d7
          0x006aaf9c      226e001c       movea.l 0x1c(a6), a1
          0x006aafa0      4291           clr.l (a1)
          0x006aafa2      226e001c       movea.l 0x1c(a6), a1
          0x006aafa6      246e001c       movea.l 0x1c(a6), a2
          0x006aafaa      2f08           move.l a0, -(a7)
      > 0x006aafac      2057           movea.l (a7), a0
         0x006aafae      2007           move.l d7, d0
         0x006aafb0      5380           subq.l 0x1, d0
         0x006aafb2      0c800000000b   cmpi.l 0xb, d0
     < 0x006aafb8      6302           bls.b 0x6aafbc
        0x006aafba      4e4f           trap 0xf
     > 0x006aafbc      2800           move.l d0, d4
         0x006aafbe      7603           moveq 0x3, d3
         0x006aafc0      4eb900406a74   jsr fcn.00406a74
         0x006aafc6      47fad8b6       lea.l 0x6a887e(pc), a3
         0x006aafca      594f           subq.w 0x4, a7
         0x006aafcc      1ebc0003       move.b 0x3, (a7)
         0x006aafd0      1f7348000001   move.b (a3, d4.l), 0x1(a7)
         0x006aafd6      1f7348010002   move.b 0x1(a3, d4.l), 0x2(a7)
         0x006aafdc      1f7348020003   move.b 0x2(a3, d4.l), 0x3(a7)
         0x006aafe2      4240           clr.w d0
         0x006aafe4      102effde       move.b -0x22(a6), d0
         0x006aafe8      b017           cmp.b (a7), d0
     < 0x006aafea      6302           bls.b 0x6aafee
        0x006aafec      1017           move.b (a7), d0
     > 0x006aafee      5300           subq.b 0x1, d0
     < 0x006aaff0      6510           bcs.b 0x6ab002
        0x006aaff2      47eeffdf       lea.l -0x21(a6), a3
        0x006aaff6      41ef0001       lea.l 0x1(a7), a0
    > 0x006aaffa      b708           cmpm.b (a0)+, (a3)+
    < 0x006aaffc      56c8fffc       dbne d0, 0x6aaffa
    < 0x006ab000      6606           bne.b 0x6ab008
    > 0x006ab002      102effde       move.b -0x22(a6), d0
        0x006ab006      b017           cmp.b (a7), d0
    < 0x006ab008      6606           bne.b 0x6ab010
        0x006ab00a      2487           move.l d7, (a2)
        0x006ab00c      584f           addq.w 0x4, a7
    < 0x006ab00e      6004           bra.b 0x6ab014
    > 0x006ab010      5287           addq.l 0x1, d7
        0x006ab012      584f           addq.w 0x4, a7
    > 0x006ab014      0c870000000c   cmpi.l 0xc, d7
     < 0x006ab01a      6f04           ble.b 0x6ab020
        0x006ab01c      584f           addq.w 0x4, a7
    < 0x006ab01e      6006           bra.b 0x6ab026
    > 0x006ab020      4a91           tst.l (a1)
     < 0x006ab022      6788           beq.b 0x6aafac
         0x006ab024      584f           addq.w 0x4, a7
    > 0x006ab026      226e001c       movea.l 0x1c(a6), a1
           0x006ab02a      246e0020       movea.l 0x20(a6), a2
           0x006ab02e      30290002       move.w 0x2(a1), d0
           0x006ab032      47faebd6       lea.l 0x6a9c0a(pc), a3
           0x006ab036      3200           move.w d0, d1
           0x006ab038      e649           lsr.w 0x3, d1
           0x006ab03a      0c410020       cmpi.w 0x20, d1
       < 0x006ab03e      6d04           blt.b 0x6ab044
          0x006ab040      7200           moveq 0x0, d1
      < 0x006ab042      6004           bra.b 0x6ab048
      > 0x006ab044      01331000       btst.l d0, (a3, d1.w)
      < 0x006ab048      671c           beq.b 0x6ab066
          0x006ab04a      302a0002       move.w 0x2(a2), d0
          0x006ab04e      47faebda       lea.l 0x6a9c2a(pc), a3
          0x006ab052      3200           move.w d0, d1
          0x006ab054      e649           lsr.w 0x3, d1
          0x006ab056      0c410020       cmpi.w 0x20, d1
      < 0x006ab05a      6d04           blt.b 0x6ab060
         0x006ab05c      7200           moveq 0x0, d1
     < 0x006ab05e      6004           bra.b 0x6ab064
     > 0x006ab060      01331000       btst.l d0, (a3, d1.w)
     < 0x006ab064      6606           bne.b 0x6ab06c
      > 0x006ab066      7c01           moveq 0x1, d6
      < 0x006ab068      60000096       bra.w 0x6ab100
      > 0x006ab06c      266e0018       movea.l 0x18(a6), a3
          0x006ab070      2013           move.l (a3), d0
          0x006ab072      0c8000000064   cmpi.l 0x64, d0
      < 0x006ab078      6c18           bge.b 0x6ab092
         0x006ab07a      0c8000000050   cmpi.l 0x50, d0
     < 0x006ab080      6c08           bge.b 0x6ab08a
        0x006ab082      26bc000007d0   move.l 0x7d0, (a3)
    < 0x006ab088      6006           bra.b 0x6ab090
    > 0x006ab08a      26bc0000076c   move.l 0x76c, (a3)
    > 0x006ab090      d193           add.l d0, (a3)
      > 0x006ab092      2013           move.l (a3), d0
          0x006ab094      0c80000007bc   cmpi.l 0x7bc, d0
      < 0x006ab09a      6d10           blt.b 0x6ab0ac
         0x006ab09c      0c8000000834   cmpi.l 0x834, d0
     < 0x006ab0a2      6e08           bgt.b 0x6ab0ac
        0x006ab0a4      4a91           tst.l (a1)
    < 0x006ab0a6      6704           beq.b 0x6ab0ac
       0x006ab0a8      4a92           tst.l (a2)
   < 0x006ab0aa      660a           bne.b 0x6ab0b6
   > 0x006ab0ac      49eefedc       lea.l -0x124(a6), a4
         0x006ab0b0      4ebaf828       jsr DATE_UTILS.date_1_jan_1980(pc)
     < 0x006ab0b4      604a           bra.b 0x6ab100
   > 0x006ab0b6      2800           move.l d0, d4
         0x006ab0b8      7604           moveq 0x4, d3
         0x006ab0ba      4eb900406b50   jsr fcn.00406b50
         0x006ab0c0      4a83           tst.l d3
     < 0x006ab0c2      6616           bne.b 0x6ab0da
        0x006ab0c4      2211           move.l (a1), d1
        0x006ab0c6      0c8100000002   cmpi.l 0x2, d1
    < 0x006ab0cc      660c           bne.b 0x6ab0da
       0x006ab0ce      2212           move.l (a2), d1
       0x006ab0d0      0c810000001d   cmpi.l 0x1d, d1
   < 0x006ab0d6      6f28           ble.b 0x6ab100
  < 0x006ab0d8      601e           bra.b 0x6ab0f8
  > 0x006ab0da      2211           move.l (a1), d1
       0x006ab0dc      5381           subq.l 0x1, d1
       0x006ab0de      0c810000000b   cmpi.l 0xb, d1
   < 0x006ab0e4      6302           bls.b 0x6ab0e8
      0x006ab0e6      4e4f           trap 0xf
   > 0x006ab0e8      e381           asl.l 0x1, d1
       0x006ab0ea      47fad7b6       lea.l 0x6a88a2(pc), a3
       0x006ab0ee      34331800       move.w (a3, d1.l), d2
       0x006ab0f2      48c2           ext.l d2
       0x006ab0f4      b492           cmp.l (a2), d2
   < 0x006ab0f6      6c08           bge.b 0x6ab100
  > 0x006ab0f8      49eefedc       lea.l -0x124(a6), a4
       0x006ab0fc      4ebaf7a0       jsr DATE_UTILS.date_illegal(pc)
   > 0x006ab100      4a06           tst.b d6
        < 0x006ab102      6708           beq.b 0x6ab10c
           0x006ab104      49eefedc       lea.l -0x124(a6), a4
           0x006ab108      4ebaf794       jsr DATE_UTILS.date_illegal(pc)
        > 0x006ab10c      4cdf1fff       movem.l (a7)+, d0-d7/a0-a4
            0x006ab110      4e5e           unlk a6
            0x006ab112      4e75           rts
            ; CALL XREFS from DATE_UTILS.parse_date @ 0x6ab704, 0x6ab718
            ; CALL XREFS from DATE_UTILS.parse_date_to_r @ 0x6aba4e, 0x6abac4
 256: DATE_UTILS.check_date ();
           0x006ab114      4e56ff6e       link.w a6, 0xff6e
           0x006ab118      bfd5           cmpa.l (a5), a7
       < 0x006ab11a      6206           bhi.b 0x6ab122
          0x006ab11c      44fc0002       move.w 0x2, ccr
          0x006ab120      4e76           trapv
       > 0x006ab122      defc0048       adda.w 0x48, a7
           0x006ab126      48e7fef8       movem.l d0-d6/a0-a4, -(a7)
           0x006ab12a      47eeffb6       lea.l -0x4a(a6), a3
           0x006ab12e      49f900404468   lea.l fcn.00404468, a4
           0x006ab134      7401           moveq 0x1, d2
           0x006ab136      2a3c000007bc   move.l 0x7bc, d5
           0x006ab13c      7c1d           moveq 0x1d, d6
           0x006ab13e      554f           subq.w 0x2, a7
           0x006ab140      4853           pea.l (a3)
           0x006ab142      4eb900404434   jsr fcn.00404434
           0x006ab148      584f           addq.w 0x4, a7
           0x006ab14a      4a1f           tst.b (a7)+
       < 0x006ab14c      670000a4       beq.w 0x6ab1f2
          0x006ab150      206e0010       movea.l 0x10(a6), a0
          0x006ab154      2010           move.l (a0), d0
          0x006ab156      b082           cmp.l d2, d0
      < 0x006ab158      6d08           blt.b 0x6ab162
         0x006ab15a      0c800000001f   cmpi.l 0x1f, d0
     < 0x006ab160      6f06           ble.b 0x6ab168
     > 0x006ab162      4853           pea.l (a3)
         0x006ab164      4e94           jsr (a4)                    ; fcn.0000000d
         0x006ab166      584f           addq.w 0x4, a7
     > 0x006ab168      226e000c       movea.l 0xc(a6), a1
          0x006ab16c      2011           move.l (a1), d0
          0x006ab16e      b082           cmp.l d2, d0
      < 0x006ab170      6d08           blt.b 0x6ab17a
         0x006ab172      0c800000000c   cmpi.l 0xc, d0
     < 0x006ab178      6f06           ble.b 0x6ab180
     > 0x006ab17a      4853           pea.l (a3)
         0x006ab17c      4e94           jsr (a4)                    ; fcn.0000000d
         0x006ab17e      584f           addq.w 0x4, a7
     > 0x006ab180      246e0008       movea.l 0x8(a6), a2
          0x006ab184      2012           move.l (a2), d0
          0x006ab186      b085           cmp.l d5, d0
      < 0x006ab188      6c08           bge.b 0x6ab192
         0x006ab18a      2082           move.l d2, (a0)
         0x006ab18c      2282           move.l d2, (a1)
         0x006ab18e      2485           move.l d5, (a2)
     < 0x006ab190      600e           bra.b 0x6ab1a0
     > 0x006ab192      0c8000000834   cmpi.l 0x834, d0
     < 0x006ab198      6f06           ble.b 0x6ab1a0
        0x006ab19a      4853           pea.l (a3)
        0x006ab19c      4e94           jsr (a4)                    ; fcn.0000000d
        0x006ab19e      584f           addq.w 0x4, a7
     > 0x006ab1a0      2812           move.l (a2), d4
          0x006ab1a2      7604           moveq 0x4, d3
          0x006ab1a4      4eb900406b50   jsr fcn.00406b50
          0x006ab1aa      4a83           tst.l d3
      < 0x006ab1ac      6614           bne.b 0x6ab1c2
         0x006ab1ae      2011           move.l (a1), d0
         0x006ab1b0      0c8000000002   cmpi.l 0x2, d0
     < 0x006ab1b6      660a           bne.b 0x6ab1c2
        0x006ab1b8      2010           move.l (a0), d0
        0x006ab1ba      b086           cmp.l d6, d0
    < 0x006ab1bc      6f2e           ble.b 0x6ab1ec
       0x006ab1be      2086           move.l d6, (a0)
   < 0x006ab1c0      602a           bra.b 0x6ab1ec
   > 0x006ab1c2      2011           move.l (a1), d0
        0x006ab1c4      5380           subq.l 0x1, d0
        0x006ab1c6      0c800000000b   cmpi.l 0xb, d0
    < 0x006ab1cc      6302           bls.b 0x6ab1d0
       0x006ab1ce      4e4f           trap 0xf
    > 0x006ab1d0      e380           asl.l 0x1, d0
        0x006ab1d2      45fad6ce       lea.l 0x6a88a2(pc), a2
        0x006ab1d6      32320800       move.w (a2, d0.l), d1
        0x006ab1da      48c1           ext.l d1
        0x006ab1dc      b290           cmp.l (a0), d1
    < 0x006ab1de      6c0c           bge.b 0x6ab1ec
       0x006ab1e0      45fad6c0       lea.l 0x6a88a2(pc), a2
       0x006ab1e4      32320800       move.w (a2, d0.l), d1
       0x006ab1e8      48c1           ext.l d1
       0x006ab1ea      2081           move.l d1, (a0)
   > 0x006ab1ec      1d420014       move.b d2, 0x14(a6)
      < 0x006ab1f0      601a           bra.b 0x6ab20c
      > 0x006ab1f2      206e0010       movea.l 0x10(a6), a0
          0x006ab1f6      20bcffffffff   move.l 0xffffffff, (a0)
          0x006ab1fc      206e000c       movea.l 0xc(a6), a0
          0x006ab200      4290           clr.l (a0)
          0x006ab202      206e0008       movea.l 0x8(a6), a0
          0x006ab206      2085           move.l d5, (a0)
          0x006ab208      422e0014       clr.b 0x14(a6)
      > 0x006ab20c      4cdf1f7f       movem.l (a7)+, d0-d6/a0-a4
           0x006ab210      4e5e           unlk a6
           0x006ab212      4e75           rts
            ; CALL XREF from DATE_UTILS.parse_date @ 0x6ab6f6
            ; CALL XREF from DATE_UTILS.parse_date_to_r @ 0x6aba40
 144: DATE_UTILS.add_defaults ();
           0x006ab214      4e56ffce       link.w a6, 0xffce
           0x006ab218      bfd5           cmpa.l (a5), a7
       < 0x006ab21a      6206           bhi.b 0x6ab222
          0x006ab21c      44fc0002       move.w 0x2, ccr
          0x006ab220      4e76           trapv
       > 0x006ab222      defc002c       adda.w 0x2c, a7
           0x006ab226      48e7c0f8       movem.l d0-d1/a0-a4, -(a7)
           0x006ab22a      45eefffc       lea.l -0x4(a6), a2
           0x006ab22e      47eefffa       lea.l -0x6(a6), a3
           0x006ab232      49eefffe       lea.l -0x2(a6), a4
           0x006ab236      720c           moveq 0xc, d1
           0x006ab238      4853           pea.l (a3)
           0x006ab23a      4852           pea.l (a2)
           0x006ab23c      4854           pea.l (a4)
           0x006ab23e      4eb90046248a   jsr S1_NVRAM.date_val
           0x006ab244      dec1           adda.w d1, a7
           0x006ab246      206e0010       movea.l 0x10(a6), a0
           0x006ab24a      4a90           tst.l (a0)
       < 0x006ab24c      6606           bne.b 0x6ab254
          0x006ab24e      3013           move.w (a3), d0
          0x006ab250      48c0           ext.l d0
          0x006ab252      2080           move.l d0, (a0)
       > 0x006ab254      226e000c       movea.l 0xc(a6), a1
           0x006ab258      4a91           tst.l (a1)
       < 0x006ab25a      6622           bne.b 0x6ab27e
          0x006ab25c      3013           move.w (a3), d0
          0x006ab25e      48c0           ext.l d0
          0x006ab260      b090           cmp.l (a0), d0
      < 0x006ab262      6c14           bge.b 0x6ab278
         0x006ab264      3012           move.w (a2), d0
         0x006ab266      0c400001       cmpi.w 0x1, d0
     < 0x006ab26a      6604           bne.b 0x6ab270
        0x006ab26c      2281           move.l d1, (a1)
    < 0x006ab26e      600e           bra.b 0x6ab27e
    > 0x006ab270      48c0           ext.l d0
        0x006ab272      2280           move.l d0, (a1)
        0x006ab274      5391           subq.l 0x1, (a1)
    < 0x006ab276      6006           bra.b 0x6ab27e
    > 0x006ab278      3012           move.w (a2), d0
        0x006ab27a      48c0           ext.l d0
        0x006ab27c      2280           move.l d0, (a1)
    > 0x006ab27e      206e0008       movea.l 0x8(a6), a0
           0x006ab282      4a90           tst.l (a0)
       < 0x006ab284      6616           bne.b 0x6ab29c
          0x006ab286      3012           move.w (a2), d0
          0x006ab288      48c0           ext.l d0
          0x006ab28a      b091           cmp.l (a1), d0
      < 0x006ab28c      6c08           bge.b 0x6ab296
         0x006ab28e      3014           move.w (a4), d0
         0x006ab290      48c0           ext.l d0
         0x006ab292      5380           subq.l 0x1, d0
     < 0x006ab294      6004           bra.b 0x6ab29a
     > 0x006ab296      3014           move.w (a4), d0
         0x006ab298      48c0           ext.l d0
     > 0x006ab29a      2080           move.l d0, (a0)
       > 0x006ab29c      4cdf1f03       movem.l (a7)+, d0-d1/a0-a4
           0x006ab2a0      4e5e           unlk a6
           0x006ab2a2      4e75           rts
            ; CALL XREF from DATE_UTILS.parse_date @ 0x6ab73c
 56: fcn.006ab2a4 ();
           0x006ab2a4      4e56fff8       link.w a6, 0xfff8
           0x006ab2a8      bfd5           cmpa.l (a5), a7
       < 0x006ab2aa      6206           bhi.b 0x6ab2b2
          0x006ab2ac      44fc0002       move.w 0x2, ccr
          0x006ab2b0      4e76           trapv
       > 0x006ab2b2      defc0008       adda.w 0x8, a7
           0x006ab2b6      48e70080       movem.l a0, -(a7)
           0x006ab2ba      206c0074       movea.l 0x74(a4), a0
           0x006ab2be      20bc000007bc   move.l 0x7bc, (a0)
           0x006ab2c4      206c0078       movea.l 0x78(a4), a0
           0x006ab2c8      4290           clr.l (a0)
           0x006ab2ca      206c007c       movea.l 0x7c(a4), a0
           0x006ab2ce      20bcffffffff   move.l 0xffffffff, (a0)
           0x006ab2d4      4cdf0100       movem.l (a7)+, a0
           0x006ab2d8      4e5e           unlk a6
           0x006ab2da      4e75           rts
            ; CALL XREFS from DATE_UTILS.parse_date @ 0x6ab3c0, 0x6ab584
 76: DATE_UTILS.next_field ();
           0x006ab2dc      4e56ffe2       link.w a6, 0xffe2
           0x006ab2e0      bfd5           cmpa.l (a5), a7
       < 0x006ab2e2      6206           bhi.b 0x6ab2ea
          0x006ab2e4      44fc0002       move.w 0x2, ccr
          0x006ab2e8      4e76           trapv
       > 0x006ab2ea      defc001e       adda.w 0x1e, a7
           0x006ab2ee      48e7c0c0       movem.l d0-d1/a0-a1, -(a7)
           0x006ab2f2      206c0084       movea.l 0x84(a4), a0
       > 0x006ab2f6      554f           subq.w 0x2, a7
          0x006ab2f8      4850           pea.l (a0)
          0x006ab2fa      4eb9006ac7fa   jsr CMD_PARSER.next_char
          0x006ab300      584f           addq.w 0x4, a7
          0x006ab302      4280           clr.l d0
          0x006ab304      101f           move.b (a7)+, d0
          0x006ab306      43fae974       lea.l 0x6a9c7c(pc), a1
          0x006ab30a      3200           move.w d0, d1
          0x006ab30c      e649           lsr.w 0x3, d1
          0x006ab30e      01311000       btst.l d0, (a1, d1.w)
      < 0x006ab312      670c           beq.b 0x6ab320
         0x006ab314      4850           pea.l (a0)
         0x006ab316      4eb9006ac8aa   jsr CMD_PARSER.skip_char
         0x006ab31c      584f           addq.w 0x4, a7
      < 0x006ab31e      60d6           bra.b 0x6ab2f6
      > 0x006ab320      4cdf0303       movem.l (a7)+, d0-d1/a0-a1
           0x006ab324      4e5e           unlk a6
           0x006ab326      4e75           rts
            ; XREFS: CALL 0x006ab3a2  CALL 0x006ab3de  CALL 0x006ab4ae  
            ; XREFS: CALL 0x006ab516  CALL 0x006ab57a  CALL 0x006ab632  
            ; XREFS: CALL 0x006ab682  CALL 0x006ab6a0  CALL 0x006ab6b6  
            ; XREFS: CALL 0x006ab6ea  CALL 0x006ab72c  
 52: DATE_UTILS.date_error ();
           0x006ab328      4e56fff8       link.w a6, 0xfff8
           0x006ab32c      bfd5           cmpa.l (a5), a7
       < 0x006ab32e      6206           bhi.b 0x6ab336
          0x006ab330      44fc0002       move.w 0x2, ccr
          0x006ab334      4e76           trapv
       > 0x006ab336      defc0008       adda.w 0x8, a7
           0x006ab33a      4eb900404154   jsr p_Link
           0x006ab340      2f2e0008       move.l 0x8(a6), -(a7)
           0x006ab344      4eb900404012   jsr p_Push
           0x006ab34a      584f           addq.w 0x4, a7
           0x006ab34c      486c0022       pea.l 0x22(a4)
           0x006ab350      4eb900404468   jsr fcn.00404468
           0x006ab356      584f           addq.w 0x4, a7
           0x006ab358      4e5e           unlk a6
           0x006ab35a      4e75           rts
            ; CALL XREF from DATE_UTILS.val_date @ 0x6ab97e
            ; CALL XREF from DATE_UTILS.parse_date_to_r @ 0x6aba14
            ; CALL XREF from DATE_UTILS.val_time @ 0x6abb6c
 1008: DATE_UTILS.parse_date ();
           0x006ab35c      4e56fe80       link.w a6, 0xfe80
           0x006ab360      bfd5           cmpa.l (a5), a7
       < 0x006ab362      6206           bhi.b 0x6ab36a
          0x006ab364      44fc0002       move.w 0x2, ccr
          0x006ab368      4e76           trapv
       > 0x006ab36a      defc0114       adda.w 0x114, a7
           0x006ab36e      48e7fff8       movem.l d0-d7/a0-a4, -(a7)
           0x006ab372      7603           moveq 0x3, d3
           0x006ab374      7802           moveq 0x2, d4
           0x006ab376      7a0c           moveq 0xc, d5
           0x006ab378      7c01           moveq 0x1, d6
           0x006ab37a      554f           subq.w 0x2, a7
           0x006ab37c      486effb6       pea.l -0x4a(a6)
           0x006ab380      4eb900404434   jsr fcn.00404434
           0x006ab386      584f           addq.w 0x4, a7
           0x006ab388      4a1f           tst.b (a7)+
       < 0x006ab38a      670003ac       beq.w 0x6ab738
          0x006ab38e      206e0018       movea.l 0x18(a6), a0
          0x006ab392      1010           move.b (a0), d0
          0x006ab394      b006           cmp.b d6, d0
      < 0x006ab396      6410           bcc.b 0x6ab3a8
         0x006ab398      2f3c70000010   move.l 0x70000010, -(a7)
         0x006ab39e      49eeff94       lea.l -0x6c(a6), a4
         0x006ab3a2      4ebaff84       jsr DATE_UTILS.date_error(pc)
         0x006ab3a6      584f           addq.w 0x4, a7
      > 0x006ab3a8      226e0010       movea.l 0x10(a6), a1
          0x006ab3ac      4291           clr.l (a1)
          0x006ab3ae      226e000c       movea.l 0xc(a6), a1
          0x006ab3b2      4291           clr.l (a1)
          0x006ab3b4      226e0008       movea.l 0x8(a6), a1
          0x006ab3b8      4291           clr.l (a1)
          0x006ab3ba      7e00           moveq 0x0, d7
          0x006ab3bc      49eeff94       lea.l -0x6c(a6), a4
          0x006ab3c0      4ebaff1a       jsr DATE_UTILS.next_field(pc)
          0x006ab3c4      554f           subq.w 0x2, a7
          0x006ab3c6      4850           pea.l (a0)
          0x006ab3c8      4eb9006ac9f6   jsr CMD_PARSER.end_of_line
          0x006ab3ce      584f           addq.w 0x4, a7
          0x006ab3d0      4a1f           tst.b (a7)+
      < 0x006ab3d2      6710           beq.b 0x6ab3e4
         0x006ab3d4      2f3c70000010   move.l 0x70000010, -(a7)
         0x006ab3da      49eeff94       lea.l -0x6c(a6), a4
         0x006ab3de      4ebaff48       jsr DATE_UTILS.date_error(pc)
         0x006ab3e2      584f           addq.w 0x4, a7
   > 0x006ab3e4      206e0018       movea.l 0x18(a6), a0
       0x006ab3e8      226e000c       movea.l 0xc(a6), a1
       0x006ab3ec      554f           subq.w 0x2, a7
       0x006ab3ee      4850           pea.l (a0)
       0x006ab3f0      4eb9006aca8e   jsr CMD_PARSER.next_alpha
       0x006ab3f6      584f           addq.w 0x4, a7
       0x006ab3f8      4a1f           tst.b (a7)+
   < 0x006ab3fa      670000c0       beq.w 0x6ab4bc
      0x006ab3fe      4a91           tst.l (a1)
  < 0x006ab400      660000ba       bne.w 0x6ab4bc
     0x006ab404      554f           subq.w 0x2, a7
     0x006ab406      3f03           move.w d3, -(a7)
     0x006ab408      4850           pea.l (a0)
     0x006ab40a      486eff94       pea.l -0x6c(a6)
     0x006ab40e      4eb9006acace   jsr CMD_PARSER.get_word
     0x006ab414      defc000a       adda.w 0xa, a7
     0x006ab418      4a1f           tst.b (a7)+
 < 0x006ab41a      660e           bne.b 0x6ab42a
    0x006ab41c      486effb6       pea.l -0x4a(a6)
    0x006ab420      4eb900404468   jsr fcn.00404468
 < 0x006ab426      60000156       bra.w 0x6ab57e
 > 0x006ab42a      9efc0056       suba.w 0x56, a7
     0x006ab42e      702a           moveq 0x2a, d0
     0x006ab430      45ef0001       lea.l 0x1(a7), a2
     0x006ab434      47fae8a0       lea.l 0x6a9cd6(pc), a3
 > 0x006ab438      14db           move.b (a3)+, (a2)+
 < 0x006ab43a      51c8fffc       dbra d0, 0x6ab438
     0x006ab43e      1ebc002b       move.b 0x2b, (a7)
     0x006ab442      0617002a       addi.b 0x2a, (a7)
     0x006ab446      7029           moveq 0x29, d0
     0x006ab448      47fae8b8       lea.l 0x6a9d02(pc), a3
 > 0x006ab44c      14db           move.b (a3)+, (a2)+
 < 0x006ab44e      51c8fffc       dbra d0, 0x6ab44c
     0x006ab452      9efc0056       suba.w 0x56, a7
     0x006ab456      244f           movea.l a7, a2
     0x006ab458      47ef0056       lea.l 0x56(a7), a3
     0x006ab45c      7014           moveq 0x14, d0
 > 0x006ab45e      24db           move.l (a3)+, (a2)+
 < 0x006ab460      51c8fffc       dbra d0, 0x6ab45e
     0x006ab464      34db           move.w (a3)+, (a2)+
     0x006ab466      9efc0016       suba.w 0x16, a7
     0x006ab46a      244f           movea.l a7, a2
     0x006ab46c      47eeff94       lea.l -0x6c(a6), a3
     0x006ab470      7004           moveq 0x4, d0
 > 0x006ab472      24db           move.l (a3)+, (a2)+
 < 0x006ab474      51c8fffc       dbra d0, 0x6ab472
     0x006ab478      14db           move.b (a3)+, (a2)+
     0x006ab47a      554f           subq.w 0x2, a7
     0x006ab47c      486f0018       pea.l 0x18(a7)
     0x006ab480      4267           clr.w -(a7)
     0x006ab482      3f3c0056       move.w 0x56, -(a7)
     0x006ab486      486f000a       pea.l 0xa(a7)
     0x006ab48a      4267           clr.w -(a7)
     0x006ab48c      3f3c0014       move.w 0x14, -(a7)
     0x006ab490      4eb9004401ac   jsr G4_LEXICAL.g_compare
     0x006ab496      defc0010       adda.w 0x10, a7
     0x006ab49a      301f           move.w (a7)+, d0
     0x006ab49c      48c0           ext.l d0
     0x006ab49e      2280           move.l d0, (a1)
     0x006ab4a0      4a80           tst.l d0
 < 0x006ab4a2      6610           bne.b 0x6ab4b4
    0x006ab4a4      2f3c70000014   move.l 0x70000014, -(a7)
    0x006ab4aa      49eeff94       lea.l -0x6c(a6), a4
    0x006ab4ae      4ebafe78       jsr DATE_UTILS.date_error(pc)
    0x006ab4b2      584f           addq.w 0x4, a7
 > 0x006ab4b4      defc00c2       adda.w 0xc2, a7
 < 0x006ab4b8      600000c6       bra.w 0x6ab580
 > 0x006ab4bc      554f           subq.w 0x2, a7
      0x006ab4be      4850           pea.l (a0)
      0x006ab4c0      4eb9006aca2e   jsr CMD_PARSER.start_of_number
      0x006ab4c6      584f           addq.w 0x4, a7
      0x006ab4c8      4a1f           tst.b (a7)+
  < 0x006ab4ca      670000a4       beq.w 0x6ab570
     0x006ab4ce      554f           subq.w 0x2, a7
     0x006ab4d0      4850           pea.l (a0)
     0x006ab4d2      48780001       pea.l 0x1
     0x006ab4d6      48780834       pea.l 0x834
     0x006ab4da      4878ffff       pea.l 0xffff
     0x006ab4de      486effaa       pea.l -0x56(a6)
     0x006ab4e2      4eb9006acdc6   jsr CMD_PARSER.get_int_limit
     0x006ab4e8      defc0014       adda.w 0x14, a7
     0x006ab4ec      4a1f           tst.b (a7)+
 < 0x006ab4ee      660c           bne.b 0x6ab4fc
    0x006ab4f0      486effb6       pea.l -0x4a(a6)
    0x006ab4f4      4eb900404468   jsr fcn.00404468
    0x006ab4fa      584f           addq.w 0x4, a7
 > 0x006ab4fc      202effaa       move.l -0x56(a6), d0
     0x006ab500      0c8000000020   cmpi.l 0x20, d0
 < 0x006ab506      6c60           bge.b 0x6ab568
    0x006ab508      be43           cmp.w d3, d7
 < 0x006ab50a      6d10           blt.b 0x6ab51c
    0x006ab50c      2f3c70000011   move.l 0x70000011, -(a7)
    0x006ab512      49eeff94       lea.l -0x6c(a6), a4
    0x006ab516      4ebafe10       jsr DATE_UTILS.date_error(pc)
    0x006ab51a      584f           addq.w 0x4, a7
 > 0x006ab51c      48c7           ext.l d7
    0x006ab51e      2207           move.l d7, d1
    0x006ab520      5281           addq.l 0x1, d1
    0x006ab522      0481ffff8000   subi.l 0xffff8000, d1
    0x006ab528      0c810000ffff   cmpi.l 0xffff, d1
 < 0x006ab52e      6302           bls.b 0x6ab532
    0x006ab530      4e4f           trap 0xf
 > 0x006ab532      0681ffff8000   addi.l 0xffff8000, d1
    0x006ab538      3e01           move.w d1, d7
    0x006ab53a      48c7           ext.l d7
    0x006ab53c      2207           move.l d7, d1
    0x006ab53e      5381           subq.l 0x1, d1
    0x006ab540      b284           cmp.l d4, d1
 < 0x006ab542      6302           bls.b 0x6ab546
    0x006ab544      4e4f           trap 0xf
 > 0x006ab546      e381           asl.l 0x1, d1
    0x006ab548      242effaa       move.l -0x56(a6), d2
    0x006ab54c      0482ffff8000   subi.l 0xffff8000, d2
    0x006ab552      0c820000ffff   cmpi.l 0xffff, d2
 < 0x006ab558      6302           bls.b 0x6ab55c
    0x006ab55a      4e4f           trap 0xf
 > 0x006ab55c      0682ffff8000   addi.l 0xffff8000, d2
    0x006ab562      3d8218b0       move.w d2, -0x50(a6, d1.l)
 < 0x006ab566      6018           bra.b 0x6ab580
 > 0x006ab568      246e0008       movea.l 0x8(a6), a2
     0x006ab56c      2480           move.l d0, (a2)
 < 0x006ab56e      6010           bra.b 0x6ab580
 > 0x006ab570      2f3c70000011   move.l 0x70000011, -(a7)
     0x006ab576      49eeff94       lea.l -0x6c(a6), a4
     0x006ab57a      4ebafdac       jsr DATE_UTILS.date_error(pc)
 > 0x006ab57e      584f           addq.w 0x4, a7
 > 0x006ab580      49eeff94       lea.l -0x6c(a6), a4
       0x006ab584      4ebafd56       jsr DATE_UTILS.next_field(pc)
       0x006ab588      246e0008       movea.l 0x8(a6), a2
       0x006ab58c      554f           subq.w 0x2, a7
       0x006ab58e      4850           pea.l (a0)
       0x006ab590      4eb9006ac9f6   jsr CMD_PARSER.end_of_line
       0x006ab596      584f           addq.w 0x4, a7
       0x006ab598      4a1f           tst.b (a7)+
   < 0x006ab59a      661e           bne.b 0x6ab5ba
      0x006ab59c      be43           cmp.w d3, d7
  < 0x006ab59e      671a           beq.b 0x6ab5ba
     0x006ab5a0      4a92           tst.l (a2)
 < 0x006ab5a2      6f04           ble.b 0x6ab5a8
    0x006ab5a4      be44           cmp.w d4, d7
 < 0x006ab5a6      6712           beq.b 0x6ab5ba
 > 0x006ab5a8      4a92           tst.l (a2)
  < 0x006ab5aa      6f00fe38       ble.w 0x6ab3e4
      0x006ab5ae      4a91           tst.l (a1)
   < 0x006ab5b0      6f00fe32       ble.w 0x6ab3e4
       0x006ab5b4      4a47           tst.w d7
    < 0x006ab5b6      6f00fe2c       ble.w 0x6ab3e4
 > 0x006ab5ba      be46           cmp.w d6, d7
      < 0x006ab5bc      660e           bne.b 0x6ab5cc
         0x006ab5be      206e0010       movea.l 0x10(a6), a0
         0x006ab5c2      302effb0       move.w -0x50(a6), d0
         0x006ab5c6      48c0           ext.l d0
         0x006ab5c8      2080           move.l d0, (a0)
     < 0x006ab5ca      6074           bra.b 0x6ab640
     > 0x006ab5cc      be44           cmp.w d4, d7
     < 0x006ab5ce      6d70           blt.b 0x6ab640
        0x006ab5d0      4a91           tst.l (a1)
    < 0x006ab5d2      6640           bne.b 0x6ab614
       0x006ab5d4      302effb0       move.w -0x50(a6), d0
       0x006ab5d8      b045           cmp.w d5, d0
   < 0x006ab5da      6e0c           bgt.b 0x6ab5e8
      0x006ab5dc      554f           subq.w 0x2, a7
      0x006ab5de      4eb900478a3a   jsr CONFIGCOM.tvsys
      0x006ab5e4      4a1f           tst.b (a7)+
  < 0x006ab5e6      6612           bne.b 0x6ab5fa
  > 0x006ab5e8      206e0010       movea.l 0x10(a6), a0
      0x006ab5ec      48c0           ext.l d0
      0x006ab5ee      2080           move.l d0, (a0)
      0x006ab5f0      322effb2       move.w -0x4e(a6), d1
      0x006ab5f4      48c1           ext.l d1
      0x006ab5f6      2281           move.l d1, (a1)
  < 0x006ab5f8      6010           bra.b 0x6ab60a
  > 0x006ab5fa      48c0           ext.l d0
      0x006ab5fc      2280           move.l d0, (a1)
      0x006ab5fe      206e0010       movea.l 0x10(a6), a0
      0x006ab602      322effb2       move.w -0x4e(a6), d1
      0x006ab606      48c1           ext.l d1
      0x006ab608      2081           move.l d1, (a0)
   > 0x006ab60a      be43           cmp.w d3, d7
   < 0x006ab60c      6632           bne.b 0x6ab640
      0x006ab60e      302effb4       move.w -0x4c(a6), d0
  < 0x006ab612      6028           bra.b 0x6ab63c
  > 0x006ab614      206e0010       movea.l 0x10(a6), a0
      0x006ab618      302effb0       move.w -0x50(a6), d0
      0x006ab61c      48c0           ext.l d0
      0x006ab61e      2080           move.l d0, (a0)
      0x006ab620      4a92           tst.l (a2)
  < 0x006ab622      6e04           bgt.b 0x6ab628
     0x006ab624      be44           cmp.w d4, d7
 < 0x006ab626      6f10           ble.b 0x6ab638
 > 0x006ab628      2f3c70000011   move.l 0x70000011, -(a7)
     0x006ab62e      49eeff94       lea.l -0x6c(a6), a4
     0x006ab632      4ebafcf4       jsr DATE_UTILS.date_error(pc)
     0x006ab636      584f           addq.w 0x4, a7
 > 0x006ab638      302effb2       move.w -0x4e(a6), d0
  > 0x006ab63c      48c0           ext.l d0
       0x006ab63e      2480           move.l d0, (a2)
   > 0x006ab640      4a92           tst.l (a2)
      < 0x006ab642      6744           beq.b 0x6ab688
         0x006ab644      2012           move.l (a2), d0
         0x006ab646      0c8000000064   cmpi.l 0x64, d0
     < 0x006ab64c      6c18           bge.b 0x6ab666
        0x006ab64e      0c8000000050   cmpi.l 0x50, d0
    < 0x006ab654      6c08           bge.b 0x6ab65e
       0x006ab656      24bc000007d0   move.l 0x7d0, (a2)
   < 0x006ab65c      6006           bra.b 0x6ab664
   > 0x006ab65e      24bc0000076c   move.l 0x76c, (a2)
   > 0x006ab664      d192           add.l d0, (a2)
     > 0x006ab666      2012           move.l (a2), d0
         0x006ab668      0c80000007bc   cmpi.l 0x7bc, d0
     < 0x006ab66e      6d08           blt.b 0x6ab678
        0x006ab670      0c8000000834   cmpi.l 0x834, d0
    < 0x006ab676      6f10           ble.b 0x6ab688
    > 0x006ab678      2f3c70000015   move.l 0x70000015, -(a7)
        0x006ab67e      49eeff94       lea.l -0x6c(a6), a4
        0x006ab682      4ebafca4       jsr DATE_UTILS.date_error(pc)
        0x006ab686      584f           addq.w 0x4, a7
    > 0x006ab688      206e0010       movea.l 0x10(a6), a0
          0x006ab68c      2010           move.l (a0), d0
          0x006ab68e      0c800000001f   cmpi.l 0x1f, d0
      < 0x006ab694      6f10           ble.b 0x6ab6a6
         0x006ab696      2f3c70000013   move.l 0x70000013, -(a7)
         0x006ab69c      49eeff94       lea.l -0x6c(a6), a4
         0x006ab6a0      4ebafc86       jsr DATE_UTILS.date_error(pc)
         0x006ab6a4      584f           addq.w 0x4, a7
      > 0x006ab6a6      2011           move.l (a1), d0
          0x006ab6a8      b085           cmp.l d5, d0
      < 0x006ab6aa      6f10           ble.b 0x6ab6bc
         0x006ab6ac      2f3c70000014   move.l 0x70000014, -(a7)
         0x006ab6b2      49eeff94       lea.l -0x6c(a6), a4
         0x006ab6b6      4ebafc70       jsr DATE_UTILS.date_error(pc)
         0x006ab6ba      584f           addq.w 0x4, a7
      > 0x006ab6bc      4a90           tst.l (a0)
      < 0x006ab6be      6708           beq.b 0x6ab6c8
         0x006ab6c0      4a91           tst.l (a1)
     < 0x006ab6c2      6704           beq.b 0x6ab6c8
        0x006ab6c4      4a92           tst.l (a2)
    < 0x006ab6c6      6648           bne.b 0x6ab710
    > 0x006ab6c8      4a2e0016       tst.b 0x16(a6)
     < 0x006ab6cc      6608           bne.b 0x6ab6d6
        0x006ab6ce      2f3c70000012   move.l 0x70000012, -(a7)
    < 0x006ab6d4      6052           bra.b 0x6ab728
    > 0x006ab6d6      4a2e0014       tst.b 0x14(a6)
    < 0x006ab6da      6756           beq.b 0x6ab732
       0x006ab6dc      4a90           tst.l (a0)
   < 0x006ab6de      6610           bne.b 0x6ab6f0
      0x006ab6e0      2f3c70000012   move.l 0x70000012, -(a7)
      0x006ab6e6      49eeff94       lea.l -0x6c(a6), a4
      0x006ab6ea      4ebafc3c       jsr DATE_UTILS.date_error(pc)
      0x006ab6ee      584f           addq.w 0x4, a7
   > 0x006ab6f0      4850           pea.l (a0)
       0x006ab6f2      4851           pea.l (a1)
       0x006ab6f4      4852           pea.l (a2)
       0x006ab6f6      4ebafb1c       jsr DATE_UTILS.add_defaults(pc)
       0x006ab6fa      defc000a       adda.w 0xa, a7
       0x006ab6fe      4850           pea.l (a0)
       0x006ab700      4851           pea.l (a1)
       0x006ab702      4852           pea.l (a2)
       0x006ab704      4ebafa0e       jsr DATE_UTILS.check_date(pc)
       0x006ab708      dec5           adda.w d5, a7
       0x006ab70a      4a1f           tst.b (a7)+
   < 0x006ab70c      6624           bne.b 0x6ab732
  < 0x006ab70e      6022           bra.b 0x6ab732
  > 0x006ab710      554f           subq.w 0x2, a7
      0x006ab712      4850           pea.l (a0)
      0x006ab714      4851           pea.l (a1)
      0x006ab716      4852           pea.l (a2)
      0x006ab718      4ebaf9fa       jsr DATE_UTILS.check_date(pc)
      0x006ab71c      dec5           adda.w d5, a7
      0x006ab71e      4a1f           tst.b (a7)+
  < 0x006ab720      6610           bne.b 0x6ab732
     0x006ab722      2f3c70000011   move.l 0x70000011, -(a7)
  > 0x006ab728      49eeff94       lea.l -0x6c(a6), a4
      0x006ab72c      4ebafbfa       jsr DATE_UTILS.date_error(pc)
      0x006ab730      584f           addq.w 0x4, a7
  > 0x006ab732      1d46001c       move.b d6, 0x1c(a6)
      < 0x006ab736      600c           bra.b 0x6ab744
      > 0x006ab738      49eeff94       lea.l -0x6c(a6), a4
          0x006ab73c      4ebafb66       jsr fcn.006ab2a4(pc)
          0x006ab740      422e001c       clr.b 0x1c(a6)
      > 0x006ab744      4cdf1fff       movem.l (a7)+, d0-d7/a0-a4
           0x006ab748      4e5e           unlk a6
           0x006ab74a      4e75           rts
            ; CALL XREF from DATE_UTILS.parse_time @ 0x6ab832
 52: DATE_UTILS.time_error ();
           0x006ab74c      4e56fff8       link.w a6, 0xfff8
           0x006ab750      bfd5           cmpa.l (a5), a7
       < 0x006ab752      6206           bhi.b 0x6ab75a
          0x006ab754      44fc0002       move.w 0x2, ccr
          0x006ab758      4e76           trapv
       > 0x006ab75a      defc0008       adda.w 0x8, a7
           0x006ab75e      4eb900404154   jsr p_Link
           0x006ab764      2f3c70000016   move.l 0x70000016, -(a7)
           0x006ab76a      4eb900404012   jsr p_Push
           0x006ab770      584f           addq.w 0x4, a7
           0x006ab772      4854           pea.l (a4)
           0x006ab774      4eb900404468   jsr fcn.00404468
           0x006ab77a      584f           addq.w 0x4, a7
           0x006ab77c      4e5e           unlk a6
           0x006ab77e      4e75           rts
            ; CALL XREF from DATE_UTILS.val_time @ 0x6abba2
 442: DATE_UTILS.parse_time ();
           0x006ab780      4e56ff58       link.w a6, 0xff58
           0x006ab784      bfd5           cmpa.l (a5), a7
       < 0x006ab786      6206           bhi.b 0x6ab78e
          0x006ab788      44fc0002       move.w 0x2, ccr
          0x006ab78c      4e76           trapv
       > 0x006ab78e      defc0056       adda.w 0x56, a7
           0x006ab792      48e7f8f8       movem.l d0-d4/a0-a4, -(a7)
           0x006ab796      7414           moveq 0x14, d2
           0x006ab798      263c000000ff   move.l 0xff, d3
           0x006ab79e      783a           moveq 0x3a, d4
           0x006ab7a0      206e0014       movea.l 0x14(a6), a0
           0x006ab7a4      2f08           move.l a0, -(a7)
           0x006ab7a6      4250           clr.w (a0)
           0x006ab7a8      226e0010       movea.l 0x10(a6), a1
           0x006ab7ac      2f09           move.l a1, -(a7)
           0x006ab7ae      4251           clr.w (a1)
           0x006ab7b0      246e000c       movea.l 0xc(a6), a2
           0x006ab7b4      4252           clr.w (a2)
           0x006ab7b6      266e0008       movea.l 0x8(a6), a3
           0x006ab7ba      4253           clr.w (a3)
           0x006ab7bc      554f           subq.w 0x2, a7
           0x006ab7be      486effae       pea.l -0x52(a6)
           0x006ab7c2      4eb900404434   jsr fcn.00404434
           0x006ab7c8      584f           addq.w 0x4, a7
           0x006ab7ca      4a1f           tst.b (a7)+
       < 0x006ab7cc      6700015e       beq.w 0x6ab92c
          0x006ab7d0      206e0018       movea.l 0x18(a6), a0
          0x006ab7d4      554f           subq.w 0x2, a7
          0x006ab7d6      4850           pea.l (a0)
          0x006ab7d8      48780000       pea.l 0x0
          0x006ab7dc      48780017       pea.l 0x17
          0x006ab7e0      4878ffff       pea.l 0xffff
          0x006ab7e4      486efffc       pea.l -0x4(a6)
          0x006ab7e8      4eb9006acdc6   jsr CMD_PARSER.get_int_limit
          0x006ab7ee      dec2           adda.w d2, a7
          0x006ab7f0      4a1f           tst.b (a7)+
      < 0x006ab7f2      660c           bne.b 0x6ab800
         0x006ab7f4      486effae       pea.l -0x52(a6)
         0x006ab7f8      4eb900404468   jsr fcn.00404468
         0x006ab7fe      584f           addq.w 0x4, a7
      > 0x006ab800      202efffc       move.l -0x4(a6), d0
          0x006ab804      b083           cmp.l d3, d0
      < 0x006ab806      6302           bls.b 0x6ab80a
         0x006ab808      4e4f           trap 0xf
      > 0x006ab80a      226f0004       movea.l 0x4(a7), a1
          0x006ab80e      3280           move.w d0, (a1)
          0x006ab810      554f           subq.w 0x2, a7
          0x006ab812      4850           pea.l (a0)
          0x006ab814      4eb9006ac7fa   jsr CMD_PARSER.next_char
          0x006ab81a      584f           addq.w 0x4, a7
          0x006ab81c      101f           move.b (a7)+, d0
          0x006ab81e      b004           cmp.b d4, d0
      < 0x006ab820      660c           bne.b 0x6ab82e
         0x006ab822      4850           pea.l (a0)
         0x006ab824      4eb9006ac8aa   jsr CMD_PARSER.skip_char
         0x006ab82a      584f           addq.w 0x4, a7
     < 0x006ab82c      6008           bra.b 0x6ab836
     > 0x006ab82e      49eeffae       lea.l -0x52(a6), a4
         0x006ab832      4ebaff18       jsr DATE_UTILS.time_error(pc)
     > 0x006ab836      554f           subq.w 0x2, a7
          0x006ab838      4850           pea.l (a0)
          0x006ab83a      48780000       pea.l 0x0
          0x006ab83e      4878003b       pea.l 0x3b
          0x006ab842      4878ffff       pea.l 0xffff
          0x006ab846      486efffc       pea.l -0x4(a6)
          0x006ab84a      4eb9006acdc6   jsr CMD_PARSER.get_int_limit
          0x006ab850      dec2           adda.w d2, a7
          0x006ab852      4a1f           tst.b (a7)+
      < 0x006ab854      660c           bne.b 0x6ab862
         0x006ab856      486effae       pea.l -0x52(a6)
         0x006ab85a      4eb900404468   jsr fcn.00404468
         0x006ab860      584f           addq.w 0x4, a7
      > 0x006ab862      202efffc       move.l -0x4(a6), d0
          0x006ab866      b083           cmp.l d3, d0
      < 0x006ab868      6302           bls.b 0x6ab86c
         0x006ab86a      4e4f           trap 0xf
      > 0x006ab86c      2257           movea.l (a7), a1
          0x006ab86e      3280           move.w d0, (a1)
          0x006ab870      554f           subq.w 0x2, a7
          0x006ab872      4850           pea.l (a0)
          0x006ab874      4eb9006ac7fa   jsr CMD_PARSER.next_char
          0x006ab87a      584f           addq.w 0x4, a7
          0x006ab87c      101f           move.b (a7)+, d0
          0x006ab87e      b004           cmp.b d4, d0
      < 0x006ab880      660000a0       bne.w 0x6ab922
         0x006ab884      4850           pea.l (a0)
         0x006ab886      4eb9006ac8aa   jsr CMD_PARSER.skip_char
         0x006ab88c      544f           addq.w 0x2, a7
         0x006ab88e      4850           pea.l (a0)
         0x006ab890      48780000       pea.l 0x0
         0x006ab894      4878003b       pea.l 0x3b
         0x006ab898      4878ffff       pea.l 0xffff
         0x006ab89c      486efffc       pea.l -0x4(a6)
         0x006ab8a0      4eb9006acdc6   jsr CMD_PARSER.get_int_limit
         0x006ab8a6      dec2           adda.w d2, a7
         0x006ab8a8      4a1f           tst.b (a7)+
     < 0x006ab8aa      660c           bne.b 0x6ab8b8
        0x006ab8ac      486effae       pea.l -0x52(a6)
        0x006ab8b0      4eb900404468   jsr fcn.00404468
        0x006ab8b6      584f           addq.w 0x4, a7
     > 0x006ab8b8      202efffc       move.l -0x4(a6), d0
         0x006ab8bc      b083           cmp.l d3, d0
     < 0x006ab8be      6302           bls.b 0x6ab8c2
        0x006ab8c0      4e4f           trap 0xf
     > 0x006ab8c2      3480           move.w d0, (a2)
         0x006ab8c4      554f           subq.w 0x2, a7
         0x006ab8c6      4850           pea.l (a0)
         0x006ab8c8      4eb9006ac7fa   jsr CMD_PARSER.next_char
         0x006ab8ce      584f           addq.w 0x4, a7
         0x006ab8d0      4280           clr.l d0
         0x006ab8d2      101f           move.b (a7)+, d0
         0x006ab8d4      43fae4e2       lea.l 0x6a9db8(pc), a1
         0x006ab8d8      3200           move.w d0, d1
         0x006ab8da      e649           lsr.w 0x3, d1
         0x006ab8dc      01311000       btst.l d0, (a1, d1.w)
     < 0x006ab8e0      6740           beq.b 0x6ab922
        0x006ab8e2      4850           pea.l (a0)
        0x006ab8e4      4eb9006ac8aa   jsr CMD_PARSER.skip_char
        0x006ab8ea      544f           addq.w 0x2, a7
        0x006ab8ec      4850           pea.l (a0)
        0x006ab8ee      48780000       pea.l 0x0
        0x006ab8f2      4878003b       pea.l 0x3b
        0x006ab8f6      4878ffff       pea.l 0xffff
        0x006ab8fa      486efffc       pea.l -0x4(a6)
        0x006ab8fe      4eb9006acdc6   jsr CMD_PARSER.get_int_limit
        0x006ab904      dec2           adda.w d2, a7
        0x006ab906      4a1f           tst.b (a7)+
    < 0x006ab908      660c           bne.b 0x6ab916
       0x006ab90a      486effae       pea.l -0x52(a6)
       0x006ab90e      4eb900404468   jsr fcn.00404468
       0x006ab914      584f           addq.w 0x4, a7
    > 0x006ab916      202efffc       move.l -0x4(a6), d0
        0x006ab91a      b083           cmp.l d3, d0
    < 0x006ab91c      6302           bls.b 0x6ab920
       0x006ab91e      4e4f           trap 0xf
    > 0x006ab920      3680           move.w d0, (a3)
     > 0x006ab922      1d7c0001001c   move.b 0x1, 0x1c(a6)
          0x006ab928      504f           addq.w 0x8, a7
      < 0x006ab92a      6006           bra.b 0x6ab932
      > 0x006ab92c      422e001c       clr.b 0x1c(a6)
          0x006ab930      504f           addq.w 0x8, a7
      > 0x006ab932      4cdf1f1f       movem.l (a7)+, d0-d4/a0-a4
           0x006ab936      4e5e           unlk a6
           0x006ab938      4e75           rts
            ; CALL XREF from MENU2COM.xfer_date @ 0x48b40e
            ; CALL XREF from DATE_UTILS.get_date @ 0x6abdbe
 142: DATE_UTILS.val_date ();
           0x006ab93a      4e56feb8       link.w a6, 0xfeb8
           0x006ab93e      bfd5           cmpa.l (a5), a7
       < 0x006ab940      6206           bhi.b 0x6ab948
          0x006ab942      44fc0002       move.w 0x2, ccr
          0x006ab946      4e76           trapv
       > 0x006ab948      defc0036       adda.w 0x36, a7
           0x006ab94c      48e7e9c0       movem.l d0-d2/d4/d7/a0-a1, -(a7)
           0x006ab950      7401           moveq 0x1, d2
           0x006ab952      206e0008       movea.l 0x8(a6), a0
           0x006ab956      43eefefa       lea.l -0x106(a6), a1
           0x006ab95a      303c00ff       move.w 0xff, d0
       > 0x006ab95e      12d8           move.b (a0)+, (a1)+
       < 0x006ab960      51c8fffc       dbra d0, 0x6ab95e
           0x006ab964      3d42fffa       move.w d2, -0x6(a6)
           0x006ab968      554f           subq.w 0x2, a7
           0x006ab96a      486efefa       pea.l -0x106(a6)
           0x006ab96e      1f02           move.b d2, -(a7)
           0x006ab970      1f02           move.b d2, -(a7)
           0x006ab972      486efeee       pea.l -0x112(a6)
           0x006ab976      486efef2       pea.l -0x10e(a6)
           0x006ab97a      486efef6       pea.l -0x10a(a6)
           0x006ab97e      4ebaf9dc       jsr DATE_UTILS.parse_date(pc)
           0x006ab982      defc0014       adda.w 0x14, a7
           0x006ab986      4a1f           tst.b (a7)+
       < 0x006ab988      6726           beq.b 0x6ab9b0
          0x006ab98a      202efef2       move.l -0x10e(a6), d0
          0x006ab98e      eb80           asl.l 0x5, d0
          0x006ab990      d0aefeee       add.l -0x112(a6), d0
          0x006ab994      222efef6       move.l -0x10a(a6), d1
          0x006ab998      0481000007bc   subi.l 0x7bc, d1
          0x006ab99e      e181           asl.l 0x8, d1
          0x006ab9a0      e381           asl.l 0x1, d1
          0x006ab9a2      d280           add.l d0, d1
          0x006ab9a4      2801           move.l d1, d4
          0x006ab9a6      4eb900408686   jsr fcn.00408686
          0x006ab9ac      2e04           move.l d4, d7
      < 0x006ab9ae      600c           bra.b 0x6ab9bc
      > 0x006ab9b0      4eb900404188   jsr p_Unlink
          0x006ab9b6      2e3cbf800000   move.l 0xbf800000, d7
      > 0x006ab9bc      2d47000c       move.l d7, 0xc(a6)
           0x006ab9c0      4cdf0397       movem.l (a7)+, d0-d2/d4/d7/a0-a1
           0x006ab9c4      4e5e           unlk a6
           0x006ab9c6      4e75           rts
            ; CALL XREF from DATE_UTILS @ +0x3984
 330: DATE_UTILS.parse_date_to_r ();
           0x006ab9c8      4e56fea0       link.w a6, 0xfea0
           0x006ab9cc      bfd5           cmpa.l (a5), a7
       < 0x006ab9ce      6206           bhi.b 0x6ab9d6
          0x006ab9d0      44fc0002       move.w 0x2, ccr
          0x006ab9d4      4e76           trapv
       > 0x006ab9d6      defc0046       adda.w 0x46, a7
           0x006ab9da      48e7f9f8       movem.l d0-d4/d7/a0-a4, -(a7)
           0x006ab9de      45eefef0       lea.l -0x110(a6), a2
           0x006ab9e2      47eefeec       lea.l -0x114(a6), a3
           0x006ab9e6      49eefef4       lea.l -0x10c(a6), a4
           0x006ab9ea      7401           moveq 0x1, d2
           0x006ab9ec      760c           moveq 0xc, d3
           0x006ab9ee      206e0010       movea.l 0x10(a6), a0
           0x006ab9f2      43eefef8       lea.l -0x108(a6), a1
           0x006ab9f6      303c00ff       move.w 0xff, d0
       > 0x006ab9fa      12d8           move.b (a0)+, (a1)+
       < 0x006ab9fc      51c8fffc       dbra d0, 0x6ab9fa
           0x006aba00      3d42fff8       move.w d2, -0x8(a6)
           0x006aba04      554f           subq.w 0x2, a7
           0x006aba06      486efef8       pea.l -0x108(a6)
           0x006aba0a      1f02           move.b d2, -(a7)
           0x006aba0c      4227           clr.b -(a7)
           0x006aba0e      4853           pea.l (a3)
           0x006aba10      4852           pea.l (a2)
           0x006aba12      4854           pea.l (a4)
           0x006aba14      4ebaf946       jsr DATE_UTILS.parse_date(pc)
           0x006aba18      defc0014       adda.w 0x14, a7
           0x006aba1c      4a1f           tst.b (a7)+
       < 0x006aba1e      670000d0       beq.w 0x6abaf0
          0x006aba22      486efee6       pea.l -0x11a(a6)
          0x006aba26      486efee8       pea.l -0x118(a6)
          0x006aba2a      486efeea       pea.l -0x116(a6)
          0x006aba2e      4eb90046248a   jsr S1_NVRAM.date_val
          0x006aba34      dec3           adda.w d3, a7
          0x006aba36      4a93           tst.l (a3)
      < 0x006aba38      6724           beq.b 0x6aba5e
         0x006aba3a      4853           pea.l (a3)
         0x006aba3c      4852           pea.l (a2)
         0x006aba3e      4854           pea.l (a4)
         0x006aba40      4ebaf7d2       jsr DATE_UTILS.add_defaults(pc)
         0x006aba44      defc000a       adda.w 0xa, a7
         0x006aba48      4853           pea.l (a3)
         0x006aba4a      4852           pea.l (a2)
         0x006aba4c      4854           pea.l (a4)
         0x006aba4e      4ebaf6c4       jsr DATE_UTILS.check_date(pc)
         0x006aba52      dec3           adda.w d3, a7
         0x006aba54      4a1f           tst.b (a7)+
     < 0x006aba56      670000b2       beq.w 0x6abb0a
    < 0x006aba5a      600000ae       bra.w 0x6abb0a
    > 0x006aba5e      7e00           moveq 0x0, d7
        0x006aba60      4a92           tst.l (a2)
    < 0x006aba62      6702           beq.b 0x6aba66
       0x006aba64      5207           addq.b 0x1, d7
    > 0x006aba66      4a94           tst.l (a4)
    < 0x006aba68      661c           bne.b 0x6aba86
       0x006aba6a      302efee8       move.w -0x118(a6), d0
       0x006aba6e      48c0           ext.l d0
       0x006aba70      b092           cmp.l (a2), d0
   < 0x006aba72      6c0a           bge.b 0x6aba7e
      0x006aba74      302efeea       move.w -0x116(a6), d0
      0x006aba78      48c0           ext.l d0
      0x006aba7a      5380           subq.l 0x1, d0
  < 0x006aba7c      6006           bra.b 0x6aba84
  > 0x006aba7e      302efeea       move.w -0x116(a6), d0
      0x006aba82      48c0           ext.l d0
  > 0x006aba84      2880           move.l d0, (a4)
    > 0x006aba86      2682           move.l d2, (a3)
        0x006aba88      4a07           tst.b d7
    < 0x006aba8a      6602           bne.b 0x6aba8e
       0x006aba8c      2482           move.l d2, (a2)
    > 0x006aba8e      206e000c       movea.l 0xc(a6), a0
        0x006aba92      2012           move.l (a2), d0
        0x006aba94      eb80           asl.l 0x5, d0
        0x006aba96      d093           add.l (a3), d0
        0x006aba98      2214           move.l (a4), d1
        0x006aba9a      0481000007bc   subi.l 0x7bc, d1
        0x006abaa0      e181           asl.l 0x8, d1
        0x006abaa2      e381           asl.l 0x1, d1
        0x006abaa4      d280           add.l d0, d1
        0x006abaa6      2801           move.l d1, d4
        0x006abaa8      4eb900408686   jsr fcn.00408686
        0x006abaae      2084           move.l d4, (a0)
        0x006abab0      26bc0000001f   move.l 0x1f, (a3)
        0x006abab6      4a07           tst.b d7
    < 0x006abab8      6602           bne.b 0x6ababc
       0x006ababa      2483           move.l d3, (a2)
    > 0x006ababc      554f           subq.w 0x2, a7
        0x006ababe      4853           pea.l (a3)
        0x006abac0      4852           pea.l (a2)
        0x006abac2      4854           pea.l (a4)
        0x006abac4      4ebaf64e       jsr DATE_UTILS.check_date(pc)
        0x006abac8      dec3           adda.w d3, a7
        0x006abaca      4a1f           tst.b (a7)+
        0x006abacc      206e0008       movea.l 0x8(a6), a0
        0x006abad0      2012           move.l (a2), d0
        0x006abad2      eb80           asl.l 0x5, d0
        0x006abad4      d093           add.l (a3), d0
        0x006abad6      2214           move.l (a4), d1
        0x006abad8      0481000007bc   subi.l 0x7bc, d1
        0x006abade      e181           asl.l 0x8, d1
        0x006abae0      e381           asl.l 0x1, d1
        0x006abae2      d280           add.l d0, d1
        0x006abae4      2801           move.l d1, d4
        0x006abae6      4eb900408686   jsr fcn.00408686
        0x006abaec      2084           move.l d4, (a0)
    < 0x006abaee      601a           bra.b 0x6abb0a
    > 0x006abaf0      4eb900404188   jsr p_Unlink
        0x006abaf6      206e000c       movea.l 0xc(a6), a0
        0x006abafa      20bcbf800000   move.l 0xbf800000, (a0)
        0x006abb00      206e0008       movea.l 0x8(a6), a0
        0x006abb04      20bcbf800000   move.l 0xbf800000, (a0)
    > 0x006abb0a      4cdf1f9f       movem.l (a7)+, d0-d4/d7/a0-a4
           0x006abb0e      4e5e           unlk a6
           0x006abb10      4e75           rts
 254: DATE_UTILS.val_time ();
           ; var int32_t var_fh @ a6-0xf
           ; var int32_t var_bh @ a6-0xb
           ; var int32_t var_9h @ a6-0x9
           ; var int32_t var_8h @ a6-0x8
           ; var int32_t var_4h @ a6-0x4
           0x006abb12      4e56feac       link.w a6, 0xfeac
           0x006abb16      bfd5           cmpa.l (a5), a7
       < 0x006abb18      6206           bhi.b 0x6abb20
          0x006abb1a      44fc0002       move.w 0x2, ccr
          0x006abb1e      4e76           trapv
       > 0x006abb20      defc0036       adda.w 0x36, a7
           0x006abb24      48e7e0f0       movem.l d0-d2/a0-a3, -(a7)
           0x006abb28      45eefee2       lea.l -0x11e(a6), a2
           0x006abb2c      47eeffe8       lea.l -0x18(a6), a3
           0x006abb30      223c000000ff   move.l 0xff, d1
           0x006abb36      7414           moveq 0x14, d2
           0x006abb38      206e0008       movea.l 0x8(a6), a0
           0x006abb3c      224a           movea.l a2, a1
           0x006abb3e      3001           move.w d1, d0
       > 0x006abb40      12d8           move.b (a0)+, (a1)+
       < 0x006abb42      51c8fffc       dbra d0, 0x6abb40
           0x006abb46      3d7c0001ffe2   move.w 0x1, -0x1e(a6)
           0x006abb4c      426efff0       clr.w -0x10(a6)
           0x006abb50      4293           clr.l (a3)
           0x006abb52      426efff4       clr.w -0xc(a6)
           0x006abb56      426efff6       clr.w -0xa(a6)
           0x006abb5a      554f           subq.w 0x2, a7
           0x006abb5c      4852           pea.l (a2)
           0x006abb5e      4227           clr.b -(a7)
           0x006abb60      4227           clr.b -(a7)
           0x006abb62      486effe4       pea.l -0x1c(a6)
           0x006abb66      4853           pea.l (a3)
           0x006abb68      486effec       pea.l -0x14(a6)
           0x006abb6c      4ebaf7ee       jsr DATE_UTILS.parse_date(pc)
           0x006abb70      dec2           adda.w d2, a7
           0x006abb72      4a1f           tst.b (a7)+
       < 0x006abb74      6736           beq.b 0x6abbac
          0x006abb76      4852           pea.l (a2)
          0x006abb78      4eb9006ac8f4   jsr CMD_PARSER.skip_spaces
          0x006abb7e      544f           addq.w 0x2, a7
          0x006abb80      4852           pea.l (a2)
          0x006abb82      4eb9006ac9f6   jsr CMD_PARSER.end_of_line
          0x006abb88      584f           addq.w 0x4, a7
          0x006abb8a      4a1f           tst.b (a7)+
      < 0x006abb8c      6624           bne.b 0x6abbb2
         0x006abb8e      554f           subq.w 0x2, a7
         0x006abb90      4852           pea.l (a2)
         0x006abb92      486efff0       pea.l -0x10(a6)
         0x006abb96      486efff2       pea.l -0xe(a6)
         0x006abb9a      486efff4       pea.l -0xc(a6)
         0x006abb9e      486efff6       pea.l -0xa(a6)
         0x006abba2      4ebafbdc       jsr DATE_UTILS.parse_time(pc)
         0x006abba6      dec2           adda.w d2, a7
         0x006abba8      4a1f           tst.b (a7)+
     < 0x006abbaa      6606           bne.b 0x6abbb2
     > 0x006abbac      4eb900404188   jsr p_Unlink
     > 0x006abbb2      202effec       move.l -0x14(a6), d0
           0x006abbb6      0480000007bc   subi.l 0x7bc, d0
           0x006abbbc      b081           cmp.l d1, d0
       < 0x006abbbe      6302           bls.b 0x6abbc2
          0x006abbc0      4e4f           trap 0xf
       > 0x006abbc2      1d40fff8       move.b d0, -0x8(a6)
           0x006abbc6      2013           move.l (a3), d0
           0x006abbc8      b081           cmp.l d1, d0
       < 0x006abbca      6302           bls.b 0x6abbce
          0x006abbcc      4e4f           trap 0xf
       > 0x006abbce      1d40fff9       move.b d0, -0x7(a6)
           0x006abbd2      202effe4       move.l -0x1c(a6), d0
           0x006abbd6      b081           cmp.l d1, d0
       < 0x006abbd8      6302           bls.b 0x6abbdc
          0x006abbda      4e4f           trap 0xf
       > 0x006abbdc      1d40fffa       move.b d0, -0x6(a6)
           0x006abbe0      1d6efff1fffb   move.b -0xf(a6), -0x5(a6)
           0x006abbe6      302efff2       move.w -0xe(a6), d0
           0x006abbea      4181           chk.w d1, d0
           0x006abbec      1d40fffc       move.b d0, -0x4(a6)
           0x006abbf0      1d6efff5fffd   move.b -0xb(a6), -0x3(a6)
           0x006abbf6      1d6efff7fffe   move.b -0x9(a6), -0x2(a6)
           0x006abbfc      2d6efff8000c   move.l -0x8(a6), 0xc(a6)
           0x006abc02      2d6efffc0010   move.l -0x4(a6), 0x10(a6)
           0x006abc08      4cdf0f07       movem.l (a7)+, d0-d2/a0-a3
           0x006abc0c      4e5e           unlk a6
           0x006abc0e      4e75           rts
            ; CALL XREF from DATE_UTILS.vali_dated @ 0x6abeee
 58: DATE_UTILS.date_range_str ();
           0x006abc10      4e56fee4       link.w a6, 0xfee4
           0x006abc14      bfd5           cmpa.l (a5), a7
       < 0x006abc16      6206           bhi.b 0x6abc1e
          0x006abc18      44fc0002       move.w 0x2, ccr
          0x006abc1c      4e76           trapv
       > 0x006abc1e      defc001c       adda.w 0x1c, a7
           0x006abc22      48e780f8       movem.l d0/a0-a4, -(a7)
           0x006abc26      45eeff00       lea.l -0x100(a6), a2
           0x006abc2a      47eeff04       lea.l -0xfc(a6), a3
           0x006abc2e      49eeff08       lea.l -0xf8(a6), a4
           0x006abc32      102e0008       move.b 0x8(a6), d0
           0x006abc36      4880           ext.w d0
           0x006abc38      0c40000d       cmpi.w 0xd, d0
       < 0x006abc3c      6302           bls.b 0x6abc40
          0x006abc3e      4e4e           trap 0xe
       > 0x006abc40      d040           add.w d0, d0
           0x006abc42      303b0006       move.w 0x6abc4a(pc, d0.w), d0
           0x006abc46      4efb0002       jmp 0x6abc4a(pc, d0.w)
            0x006abc4a      001c0028       ori.b 0x28, (a4)+
            0x006abc4e      003800400056   ori.b 0x40, 0x56.w
            0x006abc54      0068007200a8   ori.w 0x72, 0xa8(a0)
            0x006abc5a      007c0086       ori.w 0x86, sr
            0x006abc5e      009600bc00c6   ori.l 0xbc00c6, (a6)
            0x006abc64      00d024ba       
            0x006abc65      d024           add.b -(a4), d0
            0x006abc67      bae1           cmpa.w -(a1), a5
            0x006abc69      bc36bae1       cmp.b -0x1f(a6, a3.l), d6
            0x006abc6d      bc60           cmp.w -(a0), d6
            0x006abc6f      0000c024       ori.b 0x24, d0
            0x006abc73      bae1           cmpa.w -(a1), a5
            0x006abc75      b626           cmp.b -(a6), d3
            0x006abc77      bae1           cmpa.w -(a1), a5
            0x006abc79      b638bae1       cmp.b 0xbae1, d3
            0x006abc7d      b660           cmp.w -(a0), d3
            0x006abc7f      0000b024       ori.b 0x24, d0
            0x006abc83      bae1           cmpa.w -(a1), a5
            0x006abc85      b060           cmp.w -(a0), d0
            0x006abc87      0000a824       ori.b 0x24, d0
            0x006abc8b      bae1           cmpa.w -(a1), a5
            0x006abc8d      ac26           invalid
            0x006abc8f      bae1           cmpa.w -(a1), a5
            0x006abc91      ac38           invalid
            0x006abc93      bae1           cmpa.w -(a1), a5
            0x006abc95      ac1d           invalid
            0x006abc97      7ae1           moveq 0xe1, d5
            0x006abc99      aaff           invalid
            0x006abc9b      0a600000       eori.w 0x0, -(a0)
            0x006abc9f      9220           sub.b -(a0), d1
            0x006abca1      4a43           tst.w d3
            0x006abca3      fae19f700610   fbf.l 0x9fdac2b5
            0x006abca9      d951           add.w d4, (a1)
            0x006abcab      c8fffc60       
            0x006abcac      fffc           invalid
        < 0x006abcae      60000080       bra.w 0x6abd30
           0x006abcb2      24bae196       move.l 0x6a9e4a(pc), (a2)
           0x006abcb6      36bae196       move.w 0x6a9e4e(pc), (a3)
       < 0x006abcba      6074           bra.b 0x6abd30
          0x006abcbc      24bae192       move.l 0x6a9e50(pc), (a2)
          0x006abcc0      36bae192       move.w 0x6a9e54(pc), (a3)
      < 0x006abcc4      606a           bra.b 0x6abd30
         0x006abcc6      24bae18e       move.l 0x6a9e56(pc), (a2)
         0x006abcca      16bae18e       move.b 0x6a9e5a(pc), (a3)
     < 0x006abcce      6060           bra.b 0x6abd30
        0x006abcd0      204a           movea.l a2, a0
        0x006abcd2      43fae187       lea.l 0x6a9e5b(pc), a1
        0x006abcd6      7005           moveq 0x5, d0
    > 0x006abcd8      10d9           move.b (a1)+, (a0)+
    < 0x006abcda      51c8fffc       dbra d0, 0x6abcd8
    < 0x006abcde      6050           bra.b 0x6abd30
       0x006abce0      14bae17f       move.b 0x6a9e61(pc), (a2)
       0x006abce4      1d7ae17cff01   move.b 0x6a9e62(pc), -0xff(a6)
       0x006abcea      1d7ae177ff02   move.b 0x6a9e63(pc), -0xfe(a6)
   < 0x006abcf0      603e           bra.b 0x6abd30
      0x006abcf2      24bae170       move.l 0x6a9e64(pc), (a2)
      0x006abcf6      26bae170       move.l 0x6a9e68(pc), (a3)
      0x006abcfa      28bae170       move.l 0x6a9e6c(pc), (a4)
      0x006abcfe      3d7ae170ff0c   move.w 0x6a9e70(pc), -0xf4(a6)
  < 0x006abd04      602a           bra.b 0x6abd30
     0x006abd06      24bae16a       move.l 0x6a9e72(pc), (a2)
     0x006abd0a      26bae16a       move.l 0x6a9e76(pc), (a3)
  < 0x006abd0e      6020           bra.b 0x6abd30
     0x006abd10      24bae168       move.l 0x6a9e7a(pc), (a2)
     0x006abd14      16bae168       move.b 0x6a9e7e(pc), (a3)
  < 0x006abd18      6016           bra.b 0x6abd30
     0x006abd1a      14bae163       move.b 0x6a9e7f(pc), (a2)
     0x006abd1e      1d7ae160ff01   move.b 0x6a9e80(pc), -0xff(a6)
     0x006abd24      1d7ae15bff02   move.b 0x6a9e81(pc), -0xfe(a6)
     0x006abd2a      1d7ae156ff03   move.b 0x6a9e82(pc), -0xfd(a6)
  > 0x006abd30      41ee000a       lea.l 0xa(a6), a0
            0x006abd34      224a           movea.l a2, a1
            0x006abd36      703f           moveq 0x3f, d0
        > 0x006abd38      20d9           move.l (a1)+, (a0)+
        < 0x006abd3a      51c8fffc       dbra d0, 0x6abd38
            0x006abd3e      4cdf1f01       movem.l (a7)+, d0/a0-a4
            0x006abd42      4e5e           unlk a6
            0x006abd44      4e75           rts
            ; CALL XREF from DATE_UTILS @ +0x3966
 138: DATE_UTILS.get_date ();
           0x006abd46      4e56ffe4       link.w a6, 0xffe4
           0x006abd4a      bfd5           cmpa.l (a5), a7
       < 0x006abd4c      6206           bhi.b 0x6abd54
          0x006abd4e      44fc0002       move.w 0x2, ccr
          0x006abd52      4e76           trapv
       > 0x006abd54      defc0016       adda.w 0x16, a7
           0x006abd58      48e700c0       movem.l a0-a1, -(a7)
           0x006abd5c      41ee0008       lea.l 0x8(a6), a0
           0x006abd60      43eefffc       lea.l -0x4(a6), a1
           0x006abd64      554f           subq.w 0x2, a7
           0x006abd66      4850           pea.l (a0)
           0x006abd68      4879008541de   pea.l 0x8541de
           0x006abd6e      4eb90040894a   jsr p_re_match
           0x006abd74      504f           addq.w 0x8, a7
           0x006abd76      4a1f           tst.b (a7)+
       < 0x006abd78      670e           beq.b 0x6abd88
          0x006abd7a      4eb900404188   jsr p_Unlink
          0x006abd80      594f           subq.w 0x4, a7
          0x006abd82      4ebae668       jsr DATE_UTILS.date_today(pc)
      < 0x006abd86      603c           bra.b 0x6abdc4
      > 0x006abd88      554f           subq.w 0x2, a7
          0x006abd8a      4850           pea.l (a0)
          0x006abd8c      4879008542de   pea.l 0x8542de
          0x006abd92      4eb90040894a   jsr p_re_match
          0x006abd98      504f           addq.w 0x8, a7
          0x006abd9a      4a1f           tst.b (a7)+
      < 0x006abd9c      671c           beq.b 0x6abdba
         0x006abd9e      4eb900404188   jsr p_Unlink
         0x006abda4      594f           subq.w 0x4, a7
         0x006abda6      4ebae644       jsr DATE_UTILS.date_today(pc)
         0x006abdaa      229f           move.l (a7)+, (a1)
         0x006abdac      4851           pea.l (a1)
         0x006abdae      4ebae4f6       jsr DATE_UTILS.date_dec(pc)
         0x006abdb2      584f           addq.w 0x4, a7
         0x006abdb4      2d510108       move.l (a1), 0x108(a6)
     < 0x006abdb8      600e           bra.b 0x6abdc8
     > 0x006abdba      594f           subq.w 0x4, a7
         0x006abdbc      4850           pea.l (a0)
         0x006abdbe      4ebafb7a       jsr DATE_UTILS.val_date(pc)
         0x006abdc2      584f           addq.w 0x4, a7
     > 0x006abdc4      2d5f0108       move.l (a7)+, 0x108(a6)
     > 0x006abdc8      4cdf0300       movem.l (a7)+, a0-a1
           0x006abdcc      4e5e           unlk a6
           0x006abdce      4e75           rts
            ; CALL XREF from LIB_CMDS @ +0xddc
 350: DATE_UTILS.vali_dated ();
           ; var int32_t var_8h @ a7+0x8
           0x006abdd0      4e56fbae       link.w a6, 0xfbae
           0x006abdd4      bfd5           cmpa.l (a5), a7
       < 0x006abdd6      6206           bhi.b 0x6abdde
          0x006abdd8      44fc0002       move.w 0x2, ccr
          0x006abddc      4e76           trapv
       > 0x006abdde      defc0146       adda.w 0x146, a7
           0x006abde2      48e7fff8       movem.l d0-d7/a0-a4, -(a7)
           0x006abde6      45eefff8       lea.l -0x8(a6), a2
           0x006abdea      47eefef7       lea.l -0x109(a6), a3
           0x006abdee      49eefffc       lea.l -0x4(a6), a4
           0x006abdf2      223cffff8000   move.l 0xffff8000, d1
           0x006abdf8      343c0100       move.w 0x100, d2
           0x006abdfc      24bcbf800000   move.l 0xbf800000, (a2)
           0x006abe02      28bcbf800000   move.l 0xbf800000, (a4)
           0x006abe08      204b           movea.l a3, a0
           0x006abe0a      43ee0010       lea.l 0x10(a6), a1
           0x006abe0e      303c00ff       move.w 0xff, d0
       > 0x006abe12      10d9           move.b (a1)+, (a0)+
       < 0x006abe14      51c8fffc       dbra d0, 0x6abe12
           0x006abe18      487ae06a       pea.l 0x6a9e84(pc)
           0x006abe1c      48780018       pea.l 0x18
           0x006abe20      2f17           move.l (a7), -(a7)
           0x006abe22      4eb9004047ea   jsr p_wts_o
           0x006abe28      504f           addq.w 0x8, a7
           0x006abe2a      4eb900401e62   jsr p_Stack_Space
           0x006abe30      48780002       pea.l 0x2
           0x006abe34      4eb9004070e4   jsr p_wti_o
           0x006abe3a      504f           addq.w 0x8, a7
           0x006abe3c      487ae05f       pea.l 0x6a9e9d(pc)
           0x006abe40      48780006       pea.l 0x6
           0x006abe44      2f17           move.l (a7), -(a7)
           0x006abe46      4eb9004047ea   jsr p_wts_o
           0x006abe4c      504f           addq.w 0x8, a7
           0x006abe4e      4eb9006d1de4   jsr STACK_PTR
           0x006abe54      4878fffa       pea.l 0xfffa
           0x006abe58      4eb9004070e4   jsr p_wti_o
           0x006abe5e      504f           addq.w 0x8, a7
           0x006abe60      4eb900404946   jsr p_wtln_o
           0x006abe66      4853           pea.l (a3)
           0x006abe68      4eb900408fa8   jsr p_upper
           0x006abe6e      584f           addq.w 0x4, a7
           0x006abe70      7e00           moveq 0x0, d7
           0x006abe72      7c00           moveq 0x0, d6
       > 0x006abe74      554f           subq.w 0x2, a7
          0x006abe76      4853           pea.l (a3)
          0x006abe78      4887           ext.w d7
          0x006abe7a      3007           move.w d7, d0
          0x006abe7c      e140           asl.w 0x8, d0
          0x006abe7e      41f9008541de   lea.l 0x8541de, a0
          0x006abe84      48700000       pea.l (a0, d0.w)
          0x006abe88      4eb90040894a   jsr p_re_match
          0x006abe8e      504f           addq.w 0x8, a7
          0x006abe90      101f           move.b (a7)+, d0
          0x006abe92      4880           ext.w d0
          0x006abe94      41bc0001       chk.w 0x1, d0
          0x006abe98      1a00           move.b d0, d5
          0x006abe9a      7000           moveq 0x0, d0
          0x006abe9c      4a05           tst.b d5
      < 0x006abe9e      6606           bne.b 0x6abea6
         0x006abea0      0c07000d       cmpi.b 0xd, d7
     < 0x006abea4      6602           bne.b 0x6abea8
     > 0x006abea6      5200           addq.b 0x1, d0
     > 0x006abea8      4880           ext.w d0
          0x006abeaa      41bc0001       chk.w 0x1, d0
          0x006abeae      1c00           move.b d0, d6
      < 0x006abeb0      660c           bne.b 0x6abebe
         0x006abeb2      4887           ext.w d7
         0x006abeb4      3007           move.w d7, d0
         0x006abeb6      5240           addq.w 0x1, d0
         0x006abeb8      41bc000d       chk.w 0xd, d0
         0x006abebc      1e00           move.b d0, d7
      > 0x006abebe      4a06           tst.b d6
       < 0x006abec0      67b2           beq.b 0x6abe74
           0x006abec2      7000           moveq 0x0, d0
       < 0x006abec4      674c           beq.b 0x6abf12
          0x006abec6      4a05           tst.b d5
      < 0x006abec8      6748           beq.b 0x6abf12
         0x006abeca      487adfd8       pea.l 0x6a9ea4(pc)
         0x006abece      48780010       pea.l 0x10
         0x006abed2      2f17           move.l (a7), -(a7)
         0x006abed4      4eb9004047ea   jsr p_wts_o
         0x006abeda      defc000c       adda.w 0xc, a7
         0x006abede      486d0010       pea.l 0x10(a5)
         0x006abee2      4eb90040497e   jsr p_break
         0x006abee8      9efc00fc       suba.w 0xfc, a7
         0x006abeec      1f07           move.b d7, -(a7)
         0x006abeee      4ebafd20       jsr DATE_UTILS.date_range_str(pc)
         0x006abef2      544f           addq.w 0x2, a7
         0x006abef4      486f0001       pea.l 0x1(a7)
         0x006abef8      42a7           clr.l -(a7)
         0x006abefa      1f6f00080003   move.b 0x8(a7), 0x3(a7)
         0x006abf00      2f17           move.l (a7), -(a7)
         0x006abf02      4eb9004047ea   jsr p_wts_o
         0x006abf08      defc010c       adda.w 0x10c, a7
         0x006abf0c      4eb900404946   jsr p_wtln_o
      > 0x006abf12      4a05           tst.b d5
       < 0x006abf14      6700028c       beq.w 0x6ac1a2
          0x006abf18      4887           ext.w d7
          0x006abf1a      3007           move.w d7, d0
          0x006abf1c      0c40000d       cmpi.w 0xd, d0
      < 0x006abf20      6302           bls.b 0x6abf24
         0x006abf22      4e4e           trap 0xe
      > 0x006abf24      d040           add.w d0, d0
          0x006abf26      303b0006       move.w 0x6abf2e(pc, d0.w), d0
          0x006abf2a      4efb0002       jmp 0x6abf2e(pc, d0.w)
           0x006abf2e      001c0034       ori.b 0x34, (a4)+
           0x006abf32      004e004e       
           0x006abf33      4e004e00       
           0x006abf34      004e005a       
           0x006abf35      4e005a00       
           0x006abf36      005a005a       ori.w 0x5a, (a2)+
           0x006abf3a      00e8017e       
           0x006abf3b      e801           asr.b 0x4, d1
           0x006abf3d      7e00           moveq 0x0, d7
           0x006abf3f      e800           asr.b 0x4, d0
           0x006abf41      e801           asr.b 0x4, d1
           0x006abf43      7e01           moveq 0x1, d7
           0x006abf45      7e01           moveq 0x1, d7
           0x006abf47      7e01           moveq 0x1, d7
           0x006abf49      7e4e           moveq 0x4e, d7
           0x006abf4b      b900           eor.b d4, d0
           0x006abf4d      4041           negx.w d1
           0x006abf4f      8859           or.w (a1)+, d4
           0x006abf51      4f4ebae4       
           0x006abf52      4ebae498       jsr DATE_UTILS.date_today(pc)
           0x006abf56      2497           move.l (a7), (a2)
           0x006abf58      4ebae492       jsr DATE_UTILS.date_today(pc)
       > 0x006abf5c      289f           move.l (a7)+, (a4)
      < 0x006abf5e      600002a4       bra.w 0x6ac204
         0x006abf62      4eb900404188   jsr p_Unlink
         0x006abf68      594f           subq.w 0x4, a7
         0x006abf6a      4ebae480       jsr DATE_UTILS.date_today(pc)
         0x006abf6e      249f           move.l (a7)+, (a2)
         0x006abf70      4852           pea.l (a2)
         0x006abf72      4ebae332       jsr DATE_UTILS.date_dec(pc)
         0x006abf76      584f           addq.w 0x4, a7
     < 0x006abf78      60000288       bra.w 0x6ac202
        0x006abf7c      4eb900404188   jsr p_Unlink
        0x006abf82      4292           clr.l (a2)
    < 0x006abf84      6000027c       bra.w 0x6ac202
       0x006abf88      4292           clr.l (a2)
       0x006abf8a      9ec2           suba.w d2, a7
       0x006abf8c      4853           pea.l (a3)
       0x006abf8e      5d4f           subq.w 0x6, a7
       0x006abf90      4267           clr.w -(a7)
       0x006abf92      4eb900404218   jsr p_Read_Stack
       0x006abf98      544f           addq.w 0x2, a7
       0x006abf9a      201f           move.l (a7)+, d0
       0x006abf9c      9081           sub.l d1, d0
       0x006abf9e      0c800000ffff   cmpi.l 0xffff, d0
   < 0x006abfa4      6302           bls.b 0x6abfa8
      0x006abfa6      4e4f           trap 0xf
   > 0x006abfa8      d081           add.l d1, d0
       0x006abfaa      3e80           move.w d0, (a7)
       0x006abfac      5d4f           subq.w 0x6, a7
       0x006abfae      3f3c0001       move.w 0x1, -(a7)
       0x006abfb2      4eb900404218   jsr p_Read_Stack
       0x006abfb8      544f           addq.w 0x2, a7
       0x006abfba      201f           move.l (a7)+, d0
       0x006abfbc      9081           sub.l d1, d0
       0x006abfbe      0c800000ffff   cmpi.l 0xffff, d0
   < 0x006abfc4      6302           bls.b 0x6abfc8
      0x006abfc6      4e4f           trap 0xf
   > 0x006abfc8      d081           add.l d1, d0
       0x006abfca      3e80           move.w d0, (a7)
       0x006abfcc      4eb900407036   jsr p_copy
       0x006abfd2      504f           addq.w 0x8, a7
       0x006abfd4      204b           movea.l a3, a0
       0x006abfd6      224f           movea.l a7, a1
       0x006abfd8      303c00ff       move.w 0xff, d0
   > 0x006abfdc      10d9           move.b (a1)+, (a0)+
   < 0x006abfde      51c8fffc       dbra d0, 0x6abfdc
       0x006abfe2      dec2           adda.w d2, a7
       0x006abfe4      4eb900404188   jsr p_Unlink
       0x006abfea      9efc0104       suba.w 0x104, a7
       0x006abfee      204f           movea.l a7, a0
       0x006abff0      224b           movea.l a3, a1
       0x006abff2      303c00ff       move.w 0xff, d0
   > 0x006abff6      10d9           move.b (a1)+, (a0)+
   < 0x006abff8      51c8fffc       dbra d0, 0x6abff6
       0x006abffc      4ebafd48       jsr DATE_UTILS.get_date(pc)
       0x006ac000      dec2           adda.w d2, a7
       0x006ac002      289f           move.l (a7)+, (a4)
       0x006ac004      0c070004       cmpi.b 0x4, d7
   < 0x006ac008      6608           bne.b 0x6ac012
      0x006ac00a      4854           pea.l (a4)
      0x006ac00c      4ebae298       jsr DATE_UTILS.date_dec(pc)
      0x006ac010      584f           addq.w 0x4, a7
  > 0x006ac012      600001f0       bra.w 0x6ac204
      0x006ac016      4294           clr.l (a4)
      0x006ac018      9ec2           suba.w d2, a7
      0x006ac01a      4853           pea.l (a3)
      0x006ac01c      5d4f           subq.w 0x6, a7
      0x006ac01e      4267           clr.w -(a7)
      0x006ac020      4eb900404218   jsr p_Read_Stack
      0x006ac026      544f           addq.w 0x2, a7
      0x006ac028      201f           move.l (a7)+, d0
      0x006ac02a      9081           sub.l d1, d0
      0x006ac02c      0c800000ffff   cmpi.l 0xffff, d0
  < 0x006ac032      6302           bls.b 0x6ac036
     0x006ac034      4e4f           trap 0xf
  > 0x006ac036      d081           add.l d1, d0
      0x006ac038      3e80           move.w d0, (a7)
      0x006ac03a      5d4f           subq.w 0x6, a7
      0x006ac03c      3f3c0001       move.w 0x1, -(a7)
      0x006ac040      4eb900404218   jsr p_Read_Stack
      0x006ac046      544f           addq.w 0x2, a7
      0x006ac048      201f           move.l (a7)+, d0
      0x006ac04a      9081           sub.l d1, d0
      0x006ac04c      0c800000ffff   cmpi.l 0xffff, d0
  < 0x006ac052      6302           bls.b 0x6ac056
     0x006ac054      4e4f           trap 0xf
  > 0x006ac056      d081           add.l d1, d0
      0x006ac058      3e80           move.w d0, (a7)
      0x006ac05a      4eb900407036   jsr p_copy
      0x006ac060      504f           addq.w 0x8, a7
      0x006ac062      204b           movea.l a3, a0
      0x006ac064      224f           movea.l a7, a1
      0x006ac066      303c00ff       move.w 0xff, d0
  > 0x006ac06a      10d9           move.b (a1)+, (a0)+
  < 0x006ac06c      51c8fffc       dbra d0, 0x6ac06a
      0x006ac070      dec2           adda.w d2, a7
      0x006ac072      4eb900404188   jsr p_Unlink
      0x006ac078      9efc0104       suba.w 0x104, a7
      0x006ac07c      204f           movea.l a7, a0
      0x006ac07e      224b           movea.l a3, a1
      0x006ac080      303c00ff       move.w 0xff, d0
  > 0x006ac084      10d9           move.b (a1)+, (a0)+
  < 0x006ac086      51c8fffc       dbra d0, 0x6ac084
      0x006ac08a      4ebafcba       jsr DATE_UTILS.get_date(pc)
      0x006ac08e      dec2           adda.w d2, a7
      0x006ac090      249f           move.l (a7)+, (a2)
      0x006ac092      41fade54       lea.l 0x6a9ee8(pc), a0
      0x006ac096      3007           move.w d7, d0
      0x006ac098      e648           lsr.w 0x3, d0
      0x006ac09a      0f300000       btst.l d7, (a0, d0.w)
  < 0x006ac09e      6708           beq.b 0x6ac0a8
     0x006ac0a0      4852           pea.l (a2)
     0x006ac0a2      4ebae12e       jsr DATE_UTILS.date_inc(pc)
     0x006ac0a6      584f           addq.w 0x4, a7
  > 0x006ac0a8      6000015a       bra.w 0x6ac204
      0x006ac0ac      9ec2           suba.w d2, a7
      0x006ac0ae      4853           pea.l (a3)
      0x006ac0b0      5d4f           subq.w 0x6, a7
      0x006ac0b2      4267           clr.w -(a7)
      0x006ac0b4      4eb900404218   jsr p_Read_Stack
      0x006ac0ba      544f           addq.w 0x2, a7
      0x006ac0bc      201f           move.l (a7)+, d0
      0x006ac0be      9081           sub.l d1, d0
      0x006ac0c0      0c800000ffff   cmpi.l 0xffff, d0
  < 0x006ac0c6      6302           bls.b 0x6ac0ca
     0x006ac0c8      4e4f           trap 0xf
  > 0x006ac0ca      d081           add.l d1, d0
      0x006ac0cc      3e80           move.w d0, (a7)
      0x006ac0ce      5d4f           subq.w 0x6, a7
      0x006ac0d0      3f3c0001       move.w 0x1, -(a7)
      0x006ac0d4      4eb900404218   jsr p_Read_Stack
      0x006ac0da      544f           addq.w 0x2, a7
      0x006ac0dc      201f           move.l (a7)+, d0
      0x006ac0de      9081           sub.l d1, d0
      0x006ac0e0      0c800000ffff   cmpi.l 0xffff, d0
  < 0x006ac0e6      6302           bls.b 0x6ac0ea
     0x006ac0e8      4e4f           trap 0xf
  > 0x006ac0ea      d081           add.l d1, d0
      0x006ac0ec      3e80           move.w d0, (a7)
      0x006ac0ee      4eb900407036   jsr p_copy
      0x006ac0f4      504f           addq.w 0x8, a7
      0x006ac0f6      41eefcf7       lea.l -0x309(a6), a0
      0x006ac0fa      224f           movea.l a7, a1
      0x006ac0fc      303c00ff       move.w 0xff, d0
  > 0x006ac100      10d9           move.b (a1)+, (a0)+
  < 0x006ac102      51c8fffc       dbra d0, 0x6ac100
      0x006ac106      4853           pea.l (a3)
      0x006ac108      5d4f           subq.w 0x6, a7
      0x006ac10a      3f3c0002       move.w 0x2, -(a7)
      0x006ac10e      4eb900404218   jsr p_Read_Stack
      0x006ac114      544f           addq.w 0x2, a7
      0x006ac116      201f           move.l (a7)+, d0
      0x006ac118      9081           sub.l d1, d0
      0x006ac11a      0c800000ffff   cmpi.l 0xffff, d0
  < 0x006ac120      6302           bls.b 0x6ac124
     0x006ac122      4e4f           trap 0xf
  > 0x006ac124      d081           add.l d1, d0
      0x006ac126      3e80           move.w d0, (a7)
      0x006ac128      5d4f           subq.w 0x6, a7
      0x006ac12a      3f3c0003       move.w 0x3, -(a7)
      0x006ac12e      4eb900404218   jsr p_Read_Stack
      0x006ac134      544f           addq.w 0x2, a7
      0x006ac136      201f           move.l (a7)+, d0
      0x006ac138      9081           sub.l d1, d0
      0x006ac13a      0c800000ffff   cmpi.l 0xffff, d0
  < 0x006ac140      6302           bls.b 0x6ac144
     0x006ac142      4e4f           trap 0xf
  > 0x006ac144      d081           add.l d1, d0
      0x006ac146      3e80           move.w d0, (a7)
      0x006ac148      4eb900407036   jsr p_copy
      0x006ac14e      504f           addq.w 0x8, a7
      0x006ac150      41eefdf7       lea.l -0x209(a6), a0
      0x006ac154      224f           movea.l a7, a1
      0x006ac156      303c00ff       move.w 0xff, d0
  > 0x006ac15a      10d9           move.b (a1)+, (a0)+
  < 0x006ac15c      51c8fffc       dbra d0, 0x6ac15a
      0x006ac160      dec2           adda.w d2, a7
      0x006ac162      4eb900404188   jsr p_Unlink
      0x006ac168      9efc0104       suba.w 0x104, a7
      0x006ac16c      204f           movea.l a7, a0
      0x006ac16e      43eefcf7       lea.l -0x309(a6), a1
      0x006ac172      303c00ff       move.w 0xff, d0
  > 0x006ac176      10d9           move.b (a1)+, (a0)+
  < 0x006ac178      51c8fffc       dbra d0, 0x6ac176
      0x006ac17c      4ebafbc8       jsr DATE_UTILS.get_date(pc)
      0x006ac180      dec2           adda.w d2, a7
      0x006ac182      2497           move.l (a7), (a2)
      0x006ac184      9ec2           suba.w d2, a7
      0x006ac186      204f           movea.l a7, a0
      0x006ac188      43eefdf7       lea.l -0x209(a6), a1
      0x006ac18c      303c00ff       move.w 0xff, d0
  > 0x006ac190      10d9           move.b (a1)+, (a0)+
  < 0x006ac192      51c8fffc       dbra d0, 0x6ac190
      0x006ac196      4ebafbae       jsr DATE_UTILS.get_date(pc)
      0x006ac19a      dec2           adda.w d2, a7
   < 0x006ac19c      6000fdbe       bra.w 0x6abf5c
   < 0x006ac1a0      6062           bra.b 0x6ac204
   > 0x006ac1a2      4240           clr.w d0
       0x006ac1a4      1013           move.b (a3), d0
   < 0x006ac1a6      6302           bls.b 0x6ac1aa
      0x006ac1a8      7000           moveq 0x0, d0
   > 0x006ac1aa      5300           subq.b 0x1, d0
   < 0x006ac1ac      6510           bcs.b 0x6ac1be
      0x006ac1ae      41eefef8       lea.l -0x108(a6), a0
      0x006ac1b2      43fadd6c       lea.l 0x6a9f20(pc), a1
  > 0x006ac1b6      b109           cmpm.b (a1)+, (a0)+
  < 0x006ac1b8      56c8fffc       dbne d0, 0x6ac1b6
  < 0x006ac1bc      6602           bne.b 0x6ac1c0
  > 0x006ac1be      1013           move.b (a3), d0
  < 0x006ac1c0      6606           bne.b 0x6ac1c8
      0x006ac1c2      4292           clr.l (a2)
      0x006ac1c4      4294           clr.l (a4)
  < 0x006ac1c6      603c           bra.b 0x6ac204
  > 0x006ac1c8      9efc0104       suba.w 0x104, a7
      0x006ac1cc      204f           movea.l a7, a0
      0x006ac1ce      224b           movea.l a3, a1
      0x006ac1d0      303c00ff       move.w 0xff, d0
  > 0x006ac1d4      10d9           move.b (a1)+, (a0)+
  < 0x006ac1d6      51c8fffc       dbra d0, 0x6ac1d4
      0x006ac1da      4ebafb6a       jsr DATE_UTILS.get_date(pc)
      0x006ac1de      dec2           adda.w d2, a7
      0x006ac1e0      249f           move.l (a7)+, (a2)
      0x006ac1e2      2812           move.l (a2), d4
      0x006ac1e4      263cbf800000   move.l 0xbf800000, d3
      0x006ac1ea      4eb900407dd4   jsr fcn.00407dd4
  < 0x006ac1f0      6610           bne.b 0x6ac202
     0x006ac1f2      4853           pea.l (a3)
     0x006ac1f4      4852           pea.l (a2)
     0x006ac1f6      4854           pea.l (a4)
     0x006ac1f8      4ebaf7ce       jsr DATE_UTILS.parse_date_to_r(pc)
     0x006ac1fc      defc000c       adda.w 0xc, a7
  < 0x006ac200      6002           bra.b 0x6ac204
  > 0x006ac202      2892           move.l (a2), (a4)
        ; CODE XREFS from DATE_UTILS @ +0x3952, +0x398c
  > 0x006ac204      7a00           moveq 0x0, d5
            0x006ac206      2814           move.l (a4), d4
            0x006ac208      263cbf800000   move.l 0xbf800000, d3
            0x006ac20e      4eb900407dd4   jsr fcn.00407dd4
        < 0x006ac214      6712           beq.b 0x6ac228
           0x006ac216      2812           move.l (a2), d4
           0x006ac218      263cbf800000   move.l 0xbf800000, d3
           0x006ac21e      4eb900407dd4   jsr fcn.00407dd4
       < 0x006ac224      6702           beq.b 0x6ac228
          0x006ac226      5205           addq.b 0x1, d5
       > 0x006ac228      206e000c       movea.l 0xc(a6), a0
            0x006ac22c      514f           subq.w 0x8, a7
            0x006ac22e      2f12           move.l (a2), -(a7)
            0x006ac230      4ebadf26       jsr DATE_UTILS.date_stamp(pc)
            0x006ac234      584f           addq.w 0x4, a7
            0x006ac236      224f           movea.l a7, a1
            0x006ac238      7007           moveq 0x7, d0
        > 0x006ac23a      10d9           move.b (a1)+, (a0)+
        < 0x006ac23c      51c8fffc       dbra d0, 0x6ac23a
            0x006ac240      504f           addq.w 0x8, a7
            0x006ac242      206e0008       movea.l 0x8(a6), a0
            0x006ac246      514f           subq.w 0x8, a7
            0x006ac248      2f14           move.l (a4), -(a7)
            0x006ac24a      4ebadf0c       jsr DATE_UTILS.date_stamp(pc)
            0x006ac24e      584f           addq.w 0x4, a7
            0x006ac250      224f           movea.l a7, a1
            0x006ac252      7007           moveq 0x7, d0
        > 0x006ac254      10d9           move.b (a1)+, (a0)+
        < 0x006ac256      51c8fffc       dbra d0, 0x6ac254
            0x006ac25a      504f           addq.w 0x8, a7
            0x006ac25c      1d450110       move.b d5, 0x110(a6)
            0x006ac260      4cdf1fff       movem.l (a7)+, d0-d7/a0-a4
            0x006ac264      4e5e           unlk a6
            0x006ac266      4e75           rts
 118: DATE_UTILS.date_init ();
           0x006ac268      4e56fed0       link.w a6, 0xfed0
           0x006ac26c      bfd5           cmpa.l (a5), a7
       < 0x006ac26e      6206           bhi.b 0x6ac276
          0x006ac270      44fc0002       move.w 0x2, ccr
          0x006ac274      4e76           trapv
       > 0x006ac276      defc012e       adda.w 0x12e, a7
           0x006ac27a      48e7c1c0       movem.l d0-d1/d7/a0-a1, -(a7)
           0x006ac27e      7e00           moveq 0x0, d7
       > 0x006ac280      4887           ext.w d7
          0x006ac282      3007           move.w d7, d0
          0x006ac284      e140           asl.w 0x8, d0
          0x006ac286      41fac970       lea.l 0x6a8bf8(pc), a0
          0x006ac28a      9efc0100       suba.w 0x100, a7
          0x006ac28e      224f           movea.l a7, a1
          0x006ac290      41f00000       lea.l (a0, d0.w), a0
          0x006ac294      723f           moveq 0x3f, d1
      > 0x006ac296      22d8           move.l (a0)+, (a1)+
      < 0x006ac298      51c9fffc       dbra d1, 0x6ac296
          0x006ac29c      4227           clr.b -(a7)
          0x006ac29e      554f           subq.w 0x2, a7
          0x006ac2a0      486f0004       pea.l 0x4(a7)
          0x006ac2a4      4267           clr.w -(a7)
          0x006ac2a6      3f3c00ff       move.w 0xff, -(a7)
          0x006ac2aa      41f9008541de   lea.l 0x8541de, a0
          0x006ac2b0      48700000       pea.l (a0, d0.w)
          0x006ac2b4      4eb900408712   jsr p_re_parse
          0x006ac2ba      defc000c       adda.w 0xc, a7
          0x006ac2be      4a5f           tst.w (a7)+
      < 0x006ac2c0      6602           bne.b 0x6ac2c4
         0x006ac2c2      5217           addq.b 0x1, (a7)
      > 0x006ac2c4      4eb90040452a   jsr p_Assert
          0x006ac2ca      defc0102       adda.w 0x102, a7
          0x006ac2ce      5207           addq.b 0x1, d7
          0x006ac2d0      0c07000d       cmpi.b 0xd, d7
       < 0x006ac2d4      6faa           ble.b 0x6ac280
           0x006ac2d6      4cdf0383       movem.l (a7)+, d0-d1/d7/a0-a1
           0x006ac2da      4e5e           unlk a6
