            ;-- FONTLET:
            0x00680e3c      .byte 0x00
            0x00680e3d      .byte 0x78
            0x00680e3e      .byte 0x02
            0x00680e3f      .byte 0xd8
            0x00680e40      .byte 0x01
            0x00680e41      .byte 0xf8
            0x00680e42      .byte 0x0b
            0x00680e43      .byte 0x60
            0x00680e44      .byte 0x01
            0x00680e45      .byte 0xf8
            0x00680e46      .byte 0x05
            0x00680e47      .byte 0xb0
            0x00680e48      .byte 0x07
            0x00680e49      .byte 0xf8
            0x00680e4a      .byte 0x0b
            0x00680e4b      .byte 0x60
            0x00680e4c      .byte 0x00
            0x00680e4d      .byte 0x00
            0x00680e4e      .byte 0x00
            0x00680e4f      .byte 0x00
            0x00680e50      .byte 0x00
            0x00680e51      .byte 0x00
            0x00680e52      .byte 0x00
            0x00680e53      .byte 0x00
            0x00680e54      .byte 0x00
            0x00680e55      .byte 0x00
            0x00680e56      .byte 0x1d
            0x00680e57     .string "odd list not completely empty" ; len=29
            0x00680e74      .byte 0x05
            0x00680e75     .string " x = " ; len=5
            0x00680e7a      .byte 0x24
            0x00680e7b     .string "point not_found in proc final_points" ; len=36
            0x00680e9f      .byte 0x16
            0x00680ea0     .string "bad case quad: quad = " ; len=22
            0x00680eb6      .byte 0x11
            0x00680eb7     .string "search_pixel_list" ; len=17
            0x00680ec8      .byte 0x03
            0x00680ec9      .byte 0x78
            0x00680eca      .byte 0x3a
            0x00680ecb      .byte 0x20
            0x00680ecc      .byte 0x05
            0x00680ecd     .string " xs: " ; len=5
            0x00680ed2      .byte 0x05
            0x00680ed3     .string " xf: " ; len=5
            0x00680ed8      .byte 0x05
            0x00680ed9     .string " ys: " ; len=5
            0x00680ede      .byte 0x05
            0x00680edf     .string " yf: " ; len=5
            0x00680ee4      .byte 0x08
            0x00680ee5     .string "finished" ; len=8
            0x00680eed      .byte 0x18
            0x00680eee     .string "incomplete polygon, at: " ; len=24
            0x00680f06      .byte 0x03
            0x00680f07      .byte 0x20
            0x00680f08      .byte 0x2c
            0x00680f09      .byte 0x20
            0x00680f0a      .byte 0x18
            0x00680f0b     .string "incomplete polygon, at: " ; len=24
            0x00680f23      .byte 0x03
            0x00680f24      .byte 0x20
            0x00680f25      .byte 0x2c
            0x00680f26      .byte 0x20
            0x00680f27      .byte 0x18
            0x00680f28     .string "incomplete polygon, at: " ; len=24
            0x00680f40      .byte 0x03
            0x00680f41      .byte 0x20
            0x00680f42      .byte 0x2c
            0x00680f43      .byte 0x20
            0x00680f44      .byte 0x18
            0x00680f45     .string "incomplete polygon, at: " ; len=24
            0x00680f5d      .byte 0x03
            0x00680f5e      .byte 0x20
            0x00680f5f      .byte 0x2c
            0x00680f60      .byte 0x20
            0x00680f61      .byte 0x12
            0x00680f62     .string "no polygon to scan" ; len=18
            0x00680f74      .byte 0x11
            0x00680f75     .string "search pixel list" ; len=17
            0x00680f86      .byte 0x04
            0x00680f87      .byte 0x78
            0x00680f88      .byte 0x20
            0x00680f89      .byte 0x3d
            0x00680f8a      .byte 0x20
            0x00680f8b      .byte 0x05
            0x00680f8c     .string " y = " ; len=5
            0x00680f91      .byte 0x08
            0x00680f92     .string "finished" ; len=8
            0x00680f9a      .byte 0x11
            0x00680f9b     .string "checking end_list" ; len=17
            0x00680fac      .byte 0x04
            0x00680fad      .byte 0x78
            0x00680fae      .byte 0x20
            0x00680faf      .byte 0x3d
            0x00680fb0      .byte 0x20
            0x00680fb1      .byte 0x05
            0x00680fb2     .string " y = " ; len=5
            0x00680fb7      .byte 0x04
            0x00680fb8      .byte 0x4f
            0x00680fb9      .byte 0x4b
            0x00680fba      .byte 0x41
            0x00680fbb      .byte 0x59
            0x00680fbc      .byte 0x0d
            0x00680fbd     .string "newitem = nil" ; len=13
            0x00680fca      .byte 0x0e
            0x00680fcb     .string "listitem = nil" ; len=14
            0x00680fd9      .byte 0x02
            0x00680fda      .byte 0x2c
            0x00680fdb      .byte 0x20
            0x00680fdc      .byte 0x02
            0x00680fdd      .byte 0x2c
            0x00680fde      .byte 0x20
            0x00680fdf      .byte 0x02
            0x00680fe0      .byte 0x2e
            0x00680fe1      .byte 0x20
            0x00680fe2      .byte 0x08
            0x00680fe3     .string "rlineto " ; len=8
            0x00680feb      .byte 0x0d
            0x00680fec     .string "check for div" ; len=13
            0x00680ff9      .byte 0x02
            0x00680ffa      .byte 0x70
            0x00680ffb      .byte 0x20
            0x00680ffc      .byte 0x0a
            0x00680ffd     .string "rrcurveto " ; len=10
            0x00681007      .byte 0x0d
            0x00681008     .string "check for div" ; len=13
            0x00681015      .byte 0x02
            0x00681016      .byte 0x70
            0x00681017      .byte 0x20
            0x00681018      .byte 0x08
            0x00681019     .string "hlineto " ; len=8
            0x00681021      .byte 0x02
            0x00681022      .byte 0x70
            0x00681023      .byte 0x20
            0x00681024      .byte 0x08
            0x00681025     .string "vlineto " ; len=8
            0x0068102d      .byte 0x02
            0x0068102e      .byte 0x70
            0x0068102f      .byte 0x20
            0x00681030      .byte 0x0a
            0x00681031     .string "hvcurveto " ; len=10
            0x0068103b      .byte 0x0d
            0x0068103c     .string "check for div" ; len=13
            0x00681049      .byte 0x02
            0x0068104a      .byte 0x70
            0x0068104b      .byte 0x20
            0x0068104c      .byte 0x0a
            0x0068104d     .string "vhcurveto " ; len=10
            0x00681057      .byte 0x0d
            0x00681058     .string "check for div" ; len=13
            0x00681065      .byte 0x02
            0x00681066      .byte 0x70
            0x00681067      .byte 0x20
            0x00681068      .byte 0x09
            0x00681069     .string "closepath" ; len=9
            0x00681072      .byte 0x08
            0x00681073     .string "hmoveto " ; len=8
            0x0068107b      .byte 0x0d
            0x0068107c     .string "check for div" ; len=13
            0x00681089      .byte 0x02
            0x0068108a      .byte 0x70
            0x0068108b      .byte 0x20
            0x0068108c      .byte 0x08
            0x0068108d     .string "vmoveto " ; len=8
            0x00681095      .byte 0x0d
            0x00681096     .string "check for div" ; len=13
            0x006810a3      .byte 0x02
            0x006810a4      .byte 0x70
            0x006810a5      .byte 0x20
            0x006810a6      .byte 0x08
            0x006810a7     .string "rmoveto " ; len=8
            0x006810af      .byte 0x0d
            0x006810b0     .string "check for div" ; len=13
            0x006810bd      .byte 0x02
            0x006810be      .byte 0x70
            0x006810bf      .byte 0x20
            0x006810c0      .byte 0x07
            0x006810c1     .string "endchar" ; len=7
            0x006810c8      .byte 0x06
            0x006810c9     .string "return" ; len=6
            0x006810cf      .byte 0x04
            0x006810d0      .byte 0x68
            0x006810d1      .byte 0x73
            0x006810d2      .byte 0x62
            0x006810d3      .byte 0x77
            0x006810d4      .byte 0x06
            0x006810d5     .string "ignore" ; len=6
            0x006810db      .byte 0x03
            0x006810dc      .byte 0x64
            0x006810dd      .byte 0x75
            0x006810de      .byte 0x70
            0x006810df      .byte 0x05
            0x006810e0     .string "hstem" ; len=5
            0x006810e5      .byte 0x05
            0x006810e6     .string "vstem" ; len=5
            0x006810eb      .byte 0x06
            0x006810ec     .string "escape" ; len=6
            0x006810f2      .byte 0x11
            0x006810f3     .string "other instruction" ; len=17
            0x00681104      .byte 0x0b
            0x00681105     .string "input = NIL" ; len=11
            0x00681110      .byte 0x0c
            0x00681111     .string "calling subr" ; len=12
            0x0068111d      .byte 0x0c
            0x0068111e     .string "calling seac" ; len=12
            0x0068112a      .byte 0x0e
            0x0068112b     .string "char too large" ; len=14
            0x00681139      .byte 0x09
            0x0068113a     .string "heap full" ; len=9
            0x00681143      .byte 0x03
            0x00681144      .byte 0x70
            0x00681145      .byte 0x72
            0x00681146      .byte 0x65
            0x00681147      .byte 0x06
            0x00681148     .string " inter" ; len=6
            0x0068114e      .byte 0x05
            0x0068114f      .byte 0x20
            0x00681150      .byte 0x66
            0x00681151      .byte 0x69
            0x00681152      .byte 0x6c
            0x00681153      .byte 0x6c
┌ 24: FONTLET.track_kerning ();
│           0x00681154      4e56ff9e       link.w a6, 0xff9e
│           0x00681158      bfd5           cmpa.l (a5), a7
│       ┌─< 0x0068115a      6206           bhi.b 0x681162
│       │   0x0068115c      44fc0002       move.w 0x2, ccr
│       │   0x00681160      4e76           trapv
│       └─> 0x00681162      defc0058       adda.w 0x58, a7
│           0x00681166      48e7c1d0       movem.l d0-d1/d7/a0-a1/a3, -(a7)
│           0x0068116a      f227e083       fmovem fp0-fp1/fp7, -(a7)
            0x0068116e      43ec0014       lea.l 0x14(a4), a1
            0x00681172      7201           moveq 0x1, d1
            0x00681174      266e000c       movea.l 0xc(a6), a3
            0x00681178      206e000c       movea.l 0xc(a6), a0
            0x0068117c      b0c1           cmpa.w d1, a0
        ┌─< 0x0068117e      6604           bne.b 0x681184
        │   0x00681180      7e00           moveq 0x0, d7
       ┌──< 0x00681182      6002           bra.b 0x681186
       │└─> 0x00681184      7e01           moveq 0x1, d7
       └┌─> 0x00681186      4a07           tst.b d7
       ┌──< 0x00681188      670000ae       beq.w 0x681238
       │╎   0x0068118c      2013           move.l (a3), d0
       │╎   0x0068118e      b0ae0008       cmp.l 0x8(a6), d0
      ┌───< 0x00681192      66000096       bne.w 0x68122a
      ││╎   0x00681196      f2114400       fmove.s (a1), fp0
      ││╎   0x0068119a      f22b40380004   fcmp.l 0x4(a3), fp0
      ││╎   0x006811a0      f29b000e       fbf.w 0x6811b0
      ││╎   0x006811a4      f2144400       fmove.s (a4), fp0
      ││╎   0x006811a8      f22b44220008   fadd.s 0x8(a3), fp0
     ┌────< 0x006811ae      6072           bra.b 0x681222
     │││╎   0x006811b0      f2114400       fmove.s (a1), fp0
     │││╎   0x006811b4      f22b4038000c   fcmp.l 0xc(a3), fp0
     │││╎   0x006811ba      f29d000e       fbf.w 0x6811ca
     │││╎   0x006811be      f2144400       fmove.s (a4), fp0
     │││╎   0x006811c2      f22b44220010   fadd.s 0x10(a3), fp0
    ┌─────< 0x006811c8      6058           bra.b 0x681222
    ││││╎   0x006811ca      202b000c       move.l 0xc(a3), d0
    ││││╎   0x006811ce      90ab0004       sub.l 0x4(a3), d0
    ││││╎   0x006811d2      f2004380       fmove.l d0, fp7
    ││││╎   0x006811d6      f22b44000010   fmove.s 0x10(a3), fp0
    ││││╎   0x006811dc      f22b44280008   fsub.s 0x8(a3), fp0
    ││││╎   0x006811e2      f2001c20       fdiv fp7, fp0
    ││││╎   0x006811e6      f2114423       fmul.s (a1), fp0
    ││││╎   0x006811ea      f2144480       fmove.s (a4), fp1
    ││││╎   0x006811ee      f20000a2       fadd fp0, fp1
    ││││╎   0x006811f2      f2146480       fmove.s fp1, (a4)
    ││││╎   0x006811f6      f22b44000008   fmove.s 0x8(a3), fp0
    ││││╎   0x006811fc      f22b4023000c   fmul.l 0xc(a3), fp0
    ││││╎   0x00681202      f22b44800010   fmove.s 0x10(a3), fp1
    ││││╎   0x00681208      f22b40a30004   fmul.l 0x4(a3), fp1
    ││││╎   0x0068120e      f200049a       fneg fp1
    ││││╎   0x00681212      f20000a2       fadd fp0, fp1
    ││││╎   0x00681216      f2001ca0       fdiv fp7, fp1
    ││││╎   0x0068121a      f2144400       fmove.s (a4), fp0
    ││││╎   0x0068121e      f2000422       fadd fp1, fp0
    └└────> 0x00681222      f2146400       fmove.s fp0, (a4)
      ││╎   0x00681226      7e00           moveq 0x0, d7
     ┌────< 0x00681228      6004           bra.b 0x68122e
     │└───> 0x0068122a      266b0014       movea.l 0x14(a3), a3
     └────> 0x0068122e      b6c1           cmpa.w d1, a3
      ┌───< 0x00681230      6602           bne.b 0x681234
      ││╎   0x00681232      7e00           moveq 0x0, d7
      └─└─< 0x00681234      6000ff50       bra.w 0x681186
       └──> 0x00681238      f21fd0c1       fmovem (a7)+, fp0-fp1/fp7
            0x0068123c      4cdf0b83       movem.l (a7)+, d0-d1/d7/a0-a1/a3
            0x00681240      4e5e           unlk a6
            0x00681242      4e75           rts
┌ 24: FONTLET.pair_kerning ();
│           0x00681244      4e56ffaa       link.w a6, 0xffaa
│           0x00681248      bfd5           cmpa.l (a5), a7
│       ┌─< 0x0068124a      6206           bhi.b 0x681252
│       │   0x0068124c      44fc0002       move.w 0x2, ccr
│       │   0x00681250      4e76           trapv
│       └─> 0x00681252      defc0050       adda.w 0x50, a7
│           0x00681256      48e7c110       movem.l d0-d1/d7/a3, -(a7)
│           0x0068125a      f227e003       fmovem fp0-fp1, -(a7)
            0x0068125e      7201           moveq 0x1, d1
            0x00681260      266e0018       movea.l 0x18(a6), a3
            0x00681264      b6c1           cmpa.w d1, a3
        ┌─< 0x00681266      6604           bne.b 0x68126c
        │   0x00681268      7e00           moveq 0x0, d7
       ┌──< 0x0068126a      6002           bra.b 0x68126e
       │└─> 0x0068126c      7e01           moveq 0x1, d7
       └┌─> 0x0068126e      4a07           tst.b d7
       ┌──< 0x00681270      673a           beq.b 0x6812ac
       │╎   0x00681272      2013           move.l (a3), d0
       │╎   0x00681274      b0ae0014       cmp.l 0x14(a6), d0
      ┌───< 0x00681278      6626           bne.b 0x6812a0
      ││╎   0x0068127a      202b0004       move.l 0x4(a3), d0
      ││╎   0x0068127e      b0ae0010       cmp.l 0x10(a6), d0
     ┌────< 0x00681282      661c           bne.b 0x6812a0
     │││╎   0x00681284      7e00           moveq 0x0, d7
     │││╎   0x00681286      f22b40000008   fmove.l 0x8(a3), fp0
     │││╎   0x0068128c      f22e44230008   fmul.s 0x8(a6), fp0
     │││╎   0x00681292      f2144480       fmove.s (a4), fp1
     │││╎   0x00681296      f20000a2       fadd fp0, fp1
     │││╎   0x0068129a      f2146480       fmove.s fp1, (a4)
    ┌─────< 0x0068129e      6004           bra.b 0x6812a4
    │└└───> 0x006812a0      266b0010       movea.l 0x10(a3), a3
    └─────> 0x006812a4      b6c1           cmpa.w d1, a3
      ┌───< 0x006812a6      6602           bne.b 0x6812aa
      ││╎   0x006812a8      7e00           moveq 0x0, d7
      └─└─< 0x006812aa      60c2           bra.b 0x68126e
       └──> 0x006812ac      f21fd0c0       fmovem (a7)+, fp0-fp1
            0x006812b0      4cdf0883       movem.l (a7)+, d0-d1/d7/a3
            0x006812b4      4e5e           unlk a6
            0x006812b6      4e75           rts
            ; CALL XREF from VECTORFONT.vec_char_spacin @ 0x680946
┌ 24: FONTLET.char_spacing ();
│           0x006812b8      4e56ffbc       link.w a6, 0xffbc
│           0x006812bc      bfd5           cmpa.l (a5), a7
│       ┌─< 0x006812be      6206           bhi.b 0x6812c6
│       │   0x006812c0      44fc0002       move.w 0x2, ccr
│       │   0x006812c4      4e76           trapv
│       └─> 0x006812c6      defc003c       adda.w 0x3c, a7
│           0x006812ca      48e780e8       movem.l d0/a0-a2/a4, -(a7)
│           0x006812ce      f227e001       fmovem fp0, -(a7)
            0x006812d2      45eefff8       lea.l -0x8(a6), a2
            0x006812d6      7001           moveq 0x1, d0
            0x006812d8      f23c40000000.  fmove.l 0x0, fp0
            0x006812e0      f2126400       fmove.s fp0, (a2)
            0x006812e4      2f2e0018       move.l 0x18(a6), -(a7)
            0x006812e8      2f2e0010       move.l 0x10(a6), -(a7)
            0x006812ec      284a           movea.l a2, a4
            0x006812ee      4ebafe64       jsr FONTLET.track_kerning(pc)
            0x006812f2      504f           addq.w 0x8, a7
            0x006812f4      206e0020       movea.l 0x20(a6), a0
            0x006812f8      b0c0           cmpa.w d0, a0
        ┌─< 0x006812fa      672a           beq.b 0x681326
        │   0x006812fc      226e001c       movea.l 0x1c(a6), a1
        │   0x00681300      b2c0           cmpa.w d0, a1
       ┌──< 0x00681302      6722           beq.b 0x681326
       ││   0x00681304      2f2e0014       move.l 0x14(a6), -(a7)
       ││   0x00681308      2f28000c       move.l 0xc(a0), -(a7)
       ││   0x0068130c      226e001c       movea.l 0x1c(a6), a1
       ││   0x00681310      2f29000c       move.l 0xc(a1), -(a7)
       ││   0x00681314      2f2e000c       move.l 0xc(a6), -(a7)
       ││   0x00681318      2f2e0008       move.l 0x8(a6), -(a7)
       ││   0x0068131c      284a           movea.l a2, a4
       ││   0x0068131e      4ebaff24       jsr FONTLET.pair_kerning(pc)
       ││   0x00681322      defc0014       adda.w 0x14, a7
       └└─> 0x00681326      2d520024       move.l (a2), 0x24(a6)
            0x0068132a      f21fd080       fmovem (a7)+, fp0
            0x0068132e      4cdf1701       movem.l (a7)+, d0/a0-a2/a4
            0x00681332      4e5e           unlk a6
            0x00681334      4e75           rts
┌ 74: FONTLET.dispose_heap ();
│           0x00681336      4e56ffc0       link.w a6, 0xffc0
│           0x0068133a      bfd5           cmpa.l (a5), a7
│       ┌─< 0x0068133c      6206           bhi.b 0x681344
│       │   0x0068133e      44fc0002       move.w 0x2, ccr
│       │   0x00681342      4e76           trapv
│       └─> 0x00681344      defc003c       adda.w 0x3c, a7
│           0x00681348      48e700c0       movem.l a0-a1, -(a7)
│           0x0068134c      43f9008518b2   lea.l 0x8518b2, a1
│       ┌─> 0x00681352      2051           movea.l (a1), a0
│       ╎   0x00681354      b0fc0001       cmpa.w 0x1, a0
│      ┌──< 0x00681358      671e           beq.b 0x681378
│      │╎   0x0068135a      2d48fffc       move.l a0, -0x4(a6)
│      │╎   0x0068135e      22b001700000.  move.l 0xfffc(a0, invalid.w), (a1)
│      │╎   0x00681366      486efffc       pea.l -0x4(a6)
│      │╎   0x0068136a      48780000       pea.l 0x0
│      │╎   0x0068136e      4eb900403b98   jsr p_Dispos
│      │╎   0x00681374      504f           addq.w 0x8, a7
│      │└─< 0x00681376      60da           bra.b 0x681352
│      └──> 0x00681378      4cdf0300       movem.l (a7)+, a0-a1
│           0x0068137c      4e5e           unlk a6
└           0x0068137e      4e75           rts
            ; CALL XREF from FONTLET.add_pixel_to_li @ 0x682584
            0x00681380      .byte 0x28
            0x00681381      .byte 0x54
            ; CALL XREF from FONTLET.end_of_line @ 0x682800
            ; CALL XREF from FONTLET.fillendpoints @ 0x6829d2
┌ 190: FONTLET.local_new ();
│           0x00681382      4e56ffd8       link.w a6, 0xffd8
│           0x00681386      bfd5           cmpa.l (a5), a7
│       ┌─< 0x00681388      6206           bhi.b 0x681390
│       │   0x0068138a      44fc0002       move.w 0x2, ccr
│       │   0x0068138e      4e76           trapv
│       └─> 0x00681390      defc0028       adda.w 0x28, a7
│           0x00681394      48e7c0f0       movem.l d0-d1/a0-a3, -(a7)
│           0x00681398      47f9008518b6   lea.l 0x8518b6, a3
│           0x0068139e      7201           moveq 0x1, d1
│           0x006813a0      2053           movea.l (a3), a0
│           0x006813a2      203001700000.  move.l 0xfff8(a0, invalid.w), d0
│           0x006813aa      d0ae0008       add.l 0x8(a6), d0
│           0x006813ae      b0b001700000.  cmp.l 0xfff4(a0, invalid.w), d0
│       ┌─< 0x006813b6      655e           bcs.b 0x681416
│       │   0x006813b8      487001700000.  pea.l 0xfffc(a0, invalid.w)
│       │   0x006813c0      2f3c00010000   move.l 0x10000, -(a7)
│       │   0x006813c6      4eb900403a92   jsr p_New
│       │   0x006813cc      504f           addq.w 0x8, a7
│       │   0x006813ce      2253           movea.l (a3), a1
│       │   0x006813d0      227101700000.  movea.l 0xfffc(a1, invalid.w), a1
│       │   0x006813d8      b2c1           cmpa.w d1, a1
│      ┌──< 0x006813da      660c           bne.b 0x6813e8
│      ││   0x006813dc      486c0080       pea.l 0x80(a4)
│      ││   0x006813e0      4eb900404468   jsr fcn.00404468
│      ││   0x006813e6      584f           addq.w 0x4, a7
│      └──> 0x006813e8      2253           movea.l (a3), a1
│       │   0x006813ea      26b101700000.  move.l 0xfffc(a1, invalid.w), (a3)
│       │   0x006813f2      2253           movea.l (a3), a1
│       │   0x006813f4      238101700000.  move.l d1, 0xfffc(a1, invalid.w)
│       │   0x006813fc      239301700000.  move.l (a3), 0xfff8(a1, invalid.w)
│       │   0x00681404      45f101700000.  lea.l 0xfff4(a1, invalid.w), a2
│       │   0x0068140c      2f0a           move.l a2, -(a7)
│       │   0x0068140e      239f01700000.  move.l (a7)+, 0xfff4(a1, invalid.w)
│       └─> 0x00681416      206e000c       movea.l 0xc(a6), a0
│           0x0068141a      2253           movea.l (a3), a1
│           0x0068141c      20b101700000.  move.l 0xfff8(a1, invalid.w), (a0)
│           0x00681424      203101700000.  move.l 0xfff8(a1, invalid.w), d0
│           0x0068142c      d0ae0008       add.l 0x8(a6), d0
│           0x00681430      238001700000.  move.l d0, 0xfff8(a1, invalid.w)
│           0x00681438      4cdf0f03       movem.l (a7)+, d0-d1/a0-a3
│           0x0068143c      4e5e           unlk a6
└           0x0068143e      4e75           rts
┌ 76: FONTLET.look_up_char_ad ();
│           0x00681440      4e56ffc2       link.w a6, 0xffc2
│           0x00681444      bfd5           cmpa.l (a5), a7
│       ┌─< 0x00681446      6206           bhi.b 0x68144e
│       │   0x00681448      44fc0002       move.w 0x2, ccr
│       │   0x0068144c      4e76           trapv
│       └─> 0x0068144e      defc0038       adda.w 0x38, a7
│           0x00681452      48e7c108       movem.l d0-d1/d7/a4, -(a7)
│           0x00681456      7201           moveq 0x1, d1
│           0x00681458      286e0008       movea.l 0x8(a6), a4
│           0x0068145c      7e00           moveq 0x0, d7
│       ┌─> 0x0068145e      4a07           tst.b d7
│      ┌──< 0x00681460      661e           bne.b 0x681480
│      │╎   0x00681462      b8c1           cmpa.w d1, a4
│     ┌───< 0x00681464      671a           beq.b 0x681480
│     ││╎   0x00681466      202e000c       move.l 0xc(a6), d0
│     ││╎   0x0068146a      b0ac000c       cmp.l 0xc(a4), d0
│    ┌────< 0x0068146e      6604           bne.b 0x681474
│    │││╎   0x00681470      7e01           moveq 0x1, d7
│   ┌─────< 0x00681472      6004           bra.b 0x681478
│   │└────> 0x00681474      286c0014       movea.l 0x14(a4), a4
│   └─────> 0x00681478      b8c1           cmpa.w d1, a4
│    ┌────< 0x0068147a      6602           bne.b 0x68147e
│    │││╎   0x0068147c      7e01           moveq 0x1, d7
│    └──└─< 0x0068147e      60de           bra.b 0x68145e
│     └└──> 0x00681480      2d4c0010       move.l a4, 0x10(a6)
│           0x00681484      4cdf1083       movem.l (a7)+, d0-d1/d7/a4
│           0x00681488      4e5e           unlk a6
└           0x0068148a      4e75           rts
┌ 116: FONTLET.search_odd_link ();
│           0x0068148c      4e56ffac       link.w a6, 0xffac
│           0x00681490      bfd5           cmpa.l (a5), a7
│       ┌─< 0x00681492      6206           bhi.b 0x68149a
│       │   0x00681494      44fc0002       move.w 0x2, ccr
│       │   0x00681498      4e76           trapv
│       └─> 0x0068149a      defc0048       adda.w 0x48, a7
│           0x0068149e      48e78088       movem.l d0/a0/a4, -(a7)
│           0x006814a2      7001           moveq 0x1, d0
│           0x006814a4      206e0008       movea.l 0x8(a6), a0
│           0x006814a8      b0c0           cmpa.w d0, a0
│       ┌─< 0x006814aa      674c           beq.b 0x6814f8
│       │   0x006814ac      487af9a9       pea.l 0x680e57(pc)
│       │   0x006814b0      4878001d       pea.l 0x1d
│       │   0x006814b4      2f17           move.l (a7), -(a7)
│       │   0x006814b6      4eb9004047ea   jsr p_wts_o
│       │   0x006814bc      defc000c       adda.w 0xc, a7
│       │   0x006814c0      4eb900404946   jsr p_wtln_o
│       │   0x006814c6      2848           movea.l a0, a4
│      ┌──> 0x006814c8      b8c0           cmpa.w d0, a4
│     ┌───< 0x006814ca      672c           beq.b 0x6814f8
│     │╎│   0x006814cc      487af9a7       pea.l 0x680e75(pc)
│     │╎│   0x006814d0      48780005       pea.l 0x5
│     │╎│   0x006814d4      2f17           move.l (a7), -(a7)
│     │╎│   0x006814d6      4eb9004047ea   jsr p_wts_o
│     │╎│   0x006814dc      504f           addq.w 0x8, a7
│     │╎│   0x006814de      2e94           move.l (a4), (a7)
│     │╎│   0x006814e0      48780000       pea.l 0x0
│     │╎│   0x006814e4      4eb9004070e4   jsr p_wti_o
│     │╎│   0x006814ea      504f           addq.w 0x8, a7
│     │╎│   0x006814ec      4eb900404946   jsr p_wtln_o
│     │╎│   0x006814f2      286c001e       movea.l 0x1e(a4), a4
│     │└──< 0x006814f6      60d0           bra.b 0x6814c8
│     └─└─> 0x006814f8      4cdf1101       movem.l (a7)+, d0/a0/a4
│           0x006814fc      4e5e           unlk a6
└           0x006814fe      4e75           rts
            ; CALL XREF from FONTLET.find_remaining_ @ 0x682526
┌ 24: FONTLET.final_points ();
│           0x00681500      4e56ff52       link.w a6, 0xff52
│           0x00681504      bfd5           cmpa.l (a5), a7
│       ┌─< 0x00681506      6206           bhi.b 0x68150e
│       │   0x00681508      44fc0002       move.w 0x2, ccr
│       │   0x0068150c      4e76           trapv
│       └─> 0x0068150e      defc00a4       adda.w 0xa4, a7
│           0x00681512      48e7f1f0       movem.l d0-d3/d7/a0-a3, -(a7)
│           0x00681516      f227e007       fmovem fp0-fp2, -(a7)
            0x0068151a      7201           moveq 0x1, d1
            0x0068151c      7402           moveq 0x2, d2
            0x0068151e      760c           moveq 0xc, d3
            0x00681520      206c011a       movea.l 0x11a(a4), a0
        ┌─> 0x00681524      226c0008       movea.l 0x8(a4), a1
        ╎   0x00681528      b2c1           cmpa.w d1, a1
       ┌──< 0x0068152a      670001f6       beq.w 0x681722
       │╎   0x0068152e      2d49fffa       move.l a1, -0x6(a6)
       │╎   0x00681532      2969001a0008   move.l 0x1a(a1), 0x8(a4)
       │╎   0x00681538      4aa90016       tst.l 0x16(a1)
      ┌───< 0x0068153c      6c06           bge.b 0x681544
      ││╎   0x0068153e      3641           movea.w d1, a3
      ││╎   0x00681540      7e00           moveq 0x0, d7
     ┌────< 0x00681542      600c           bra.b 0x681550
     │└───> 0x00681544      20290016       move.l 0x16(a1), d0
     │ │╎   0x00681548      26700d202ef0   movea.l 0x2ef0(a0, d0.l * 4), a3
     │ │╎   0x0068154e      7e01           moveq 0x1, d7
     └┌───> 0x00681550      4a07           tst.b d7
     ┌────< 0x00681552      671a           beq.b 0x68156e
     │╎│╎   0x00681554      b6c1           cmpa.w d1, a3
    ┌─────< 0x00681556      6716           beq.b 0x68156e
    ││╎│╎   0x00681558      246efffa       movea.l -0x6(a6), a2
    ││╎│╎   0x0068155c      2013           move.l (a3), d0
    ││╎│╎   0x0068155e      b0aa0012       cmp.l 0x12(a2), d0
   ┌──────< 0x00681562      6604           bne.b 0x681568
   │││╎│╎   0x00681564      7e00           moveq 0x0, d7
  ┌───────< 0x00681566      6004           bra.b 0x68156c
  │└──────> 0x00681568      266b001e       movea.l 0x1e(a3), a3
  └───└───< 0x0068156c      60e2           bra.b 0x681550
    └└────> 0x0068156e      b6c1           cmpa.w d1, a3
      ┌───< 0x00681570      661c           bne.b 0x68158e
      ││╎   0x00681572      487af907       pea.l 0x680e7b(pc)
      ││╎   0x00681576      48780024       pea.l 0x24
      ││╎   0x0068157a      2f17           move.l (a7), -(a7)
      ││╎   0x0068157c      4eb9004047ea   jsr p_wts_o
      ││╎   0x00681582      dec3           adda.w d3, a7
      ││╎   0x00681584      4eb900404946   jsr p_wtln_o
     ┌────< 0x0068158a      6000018e       bra.w 0x68171a
     │└───> 0x0068158e      302b001c       move.w 0x1c(a3), d0
     │ │╎   0x00681592      5340           subq.w 0x1, d0
     │ │╎   0x00681594      0c400007       cmpi.w 0x7, d0
     │┌───< 0x00681598      6200013a       bhi.w 0x6816d4
     │││╎   0x0068159c      d040           add.w d0, d0
     │││╎   0x0068159e      303b0006       move.w 0x6815a6(pc, d0.w), d0
     │││╎   0x006815a2      4efb0002       jmp 0x6815a6(pc, d0.w)
     │││╎   0x006815a6      00100052       ori.b 0x52, (a0)
     │││╎   0x006815aa      009c00cc0100   ori.l 0xcc0100, (a4)+
     │││╎   0x006815b0      0108011a       movep.w 0x11a(a0), d0
     │││╎   0x006815b4      0122           btst.l d0, -(a2)
     │││╎   0x006815b6      f22b4400000c   fmove.s 0xc(a3), fp0
     │││╎   0x006815bc      f22b44280004   fsub.s 0x4(a3), fp0
     │││╎   0x006815c2      f22b44800010   fmove.s 0x10(a3), fp1
     │││╎   0x006815c8      f22b44a80008   fsub.s 0x8(a3), fp1
     │││╎   0x006815ce      f20000a3       fmul fp0, fp1
     │││╎   0x006815d2      f20240a0       fdiv.l d2, fp1
     │││╎   0x006815d6      f2014000       fmove.l d1, fp0
     │││╎   0x006815da      f22b44280008   fsub.s 0x8(a3), fp0
     │││╎   0x006815e0      f22b4423000c   fmul.s 0xc(a3), fp0
   ┌┌─────> 0x006815e6      f200049a       fneg fp1
   ╎╎│││╎   0x006815ea      f20000a2       fadd fp0, fp1
   ╎╎│││╎   0x006815ee      f22b64800014   fmove.s fp1, 0x14(a3)
  ┌───────< 0x006815f4      6000010a       bra.w 0x681700
  │╎╎│││╎   0x006815f8      f2014000       fmove.l d1, fp0
  │╎╎│││╎   0x006815fc      f22b44280004   fsub.s 0x4(a3), fp0
  │╎╎│││╎   0x00681602      f2014080       fmove.l d1, fp1
  │╎╎│││╎   0x00681606      f22b44a80010   fsub.s 0x10(a3), fp1
  │╎╎│││╎   0x0068160c      f20000a3       fmul fp0, fp1
  │╎╎│││╎   0x00681610      f22b4400000c   fmove.s 0xc(a3), fp0
  │╎╎│││╎   0x00681616      f22b44280004   fsub.s 0x4(a3), fp0
  │╎╎│││╎   0x0068161c      f22b45000008   fmove.s 0x8(a3), fp2
  │╎╎│││╎   0x00681622      f22b45280010   fsub.s 0x10(a3), fp2
  │╎╎│││╎   0x00681628      f2000123       fmul fp0, fp2
  │╎╎│││╎   0x0068162c      f2024120       fdiv.l d2, fp2
  │╎╎│││╎   0x00681630      f200091a       fneg fp2
  │╎╎│││╎   0x00681634      f2000522       fadd fp1, fp2
  │╎╎│││╎   0x00681638      f22b65000014   fmove.s fp2, 0x14(a3)
  ────────< 0x0068163e      600000c0       bra.w 0x681700
  │╎╎│││╎   0x00681642      f22b44000004   fmove.s 0x4(a3), fp0
  │╎╎│││╎   0x00681648      f22b4428000c   fsub.s 0xc(a3), fp0
  │╎╎│││╎   0x0068164e      f22b44800010   fmove.s 0x10(a3), fp1
  │╎╎│││╎   0x00681654      f22b44a80008   fsub.s 0x8(a3), fp1
  │╎╎│││╎   0x0068165a      f20000a3       fmul fp0, fp1
  │╎╎│││╎   0x0068165e      f20240a0       fdiv.l d2, fp1
  │╎╎│││╎   0x00681662      f22b44000004   fmove.s 0x4(a3), fp0
  │╎╎│││╎   0x00681668      f22b44230010   fmul.s 0x10(a3), fp0
  │└──────< 0x0068166e      6000ff76       bra.w 0x6815e6
  │ ╎│││╎   0x00681672      f22b44000004   fmove.s 0x4(a3), fp0
  │ ╎│││╎   0x00681678      f22b4428000c   fsub.s 0xc(a3), fp0
  │ ╎│││╎   0x0068167e      f22b44800008   fmove.s 0x8(a3), fp1
  │ ╎│││╎   0x00681684      f22b44a80010   fsub.s 0x10(a3), fp1
  │ ╎│││╎   0x0068168a      f20000a3       fmul fp0, fp1
  │ ╎│││╎   0x0068168e      f20240a0       fdiv.l d2, fp1
  │ ╎│││╎   0x00681692      f2014000       fmove.l d1, fp0
  │ ╎│││╎   0x00681696      f22b4428000c   fsub.s 0xc(a3), fp0
  │ ╎│││╎   0x0068169c      f22b44230008   fmul.s 0x8(a3), fp0
  │ └─────< 0x006816a2      6000ff42       bra.w 0x6815e6
  │  │││╎   0x006816a6      276b00040014   move.l 0x4(a3), 0x14(a3)
  │ ┌─────< 0x006816ac      6052           bra.b 0x681700
  │ ││││╎   0x006816ae      f2014000       fmove.l d1, fp0
  │ ││││╎   0x006816b2      f22b44280004   fsub.s 0x4(a3), fp0
  │┌──────> 0x006816b8      f22b64000014   fmove.s fp0, 0x14(a3)
  ────────< 0x006816be      6040           bra.b 0x681700
  │╎││││╎   0x006816c0      276b00080014   move.l 0x8(a3), 0x14(a3)
  ────────< 0x006816c6      6038           bra.b 0x681700
  │╎││││╎   0x006816c8      f2014000       fmove.l d1, fp0
  │╎││││╎   0x006816cc      f22b44280008   fsub.s 0x8(a3), fp0
  │└──────< 0x006816d2      60e4           bra.b 0x6816b8
  │ ││└───> 0x006816d4      487af7ca       pea.l 0x680ea0(pc)
  │ ││ │╎   0x006816d8      48780016       pea.l 0x16
  │ ││ │╎   0x006816dc      2f17           move.l (a7), -(a7)
  │ ││ │╎   0x006816de      4eb9004047ea   jsr p_wts_o
  │ ││ │╎   0x006816e4      dec3           adda.w d3, a7
  │ ││ │╎   0x006816e6      302b001c       move.w 0x1c(a3), d0
  │ ││ │╎   0x006816ea      48c0           ext.l d0
  │ ││ │╎   0x006816ec      2f00           move.l d0, -(a7)
  │ ││ │╎   0x006816ee      48780000       pea.l 0x0
  │ ││ │╎   0x006816f2      4eb9004070e4   jsr p_wti_o
  │ ││ │╎   0x006816f8      504f           addq.w 0x8, a7
  │ ││ │╎   0x006816fa      4eb900404946   jsr p_wtln_o
  └─└─────> 0x00681700      102c00dc       move.b 0xdc(a4), d0
     │ │╎   0x00681704      b02c00de       cmp.b 0xde(a4), d0
     │┌───< 0x00681708      6710           beq.b 0x68171a
     │││╎   0x0068170a      f2014000       fmove.l d1, fp0
     │││╎   0x0068170e      f22b44280014   fsub.s 0x14(a3), fp0
     │││╎   0x00681714      f22b64000014   fmove.s fp0, 0x14(a3)
     └└───> 0x0068171a      2d41fffa       move.l d1, -0x6(a6)
       │└─< 0x0068171e      6000fe04       bra.w 0x681524
       └──> 0x00681722      f21fd0e0       fmovem (a7)+, fp0-fp2
            0x00681726      4cdf0f8f       movem.l (a7)+, d0-d3/d7/a0-a3
            0x0068172a      4e5e           unlk a6
            0x0068172c      4e75           rts
┌ 256: FONTLET.search_pixel_li (int32_t arg_22h);
│           ; arg int32_t arg_22h @ a6+0x22
│           0x0068172e      4e56ffb0       link.w a6, 0xffb0
│           0x00681732      bfd5           cmpa.l (a5), a7
│       ┌─< 0x00681734      6206           bhi.b 0x68173c
│       │   0x00681736      44fc0002       move.w 0x2, ccr
│       │   0x0068173a      4e76           trapv
│       └─> 0x0068173c      defc0050       adda.w 0x50, a7
│           0x00681740      48e780f8       movem.l d0/a0-a4, -(a7)
│           0x00681744      43f9004047ea   lea.l p_wts_o, a1
│           0x0068174a      45f80000       lea.l 0x0, a2
│           0x0068174e      47f80005       lea.l 0x5, a3
│           0x00681752      49f80004       lea.l 0x4, a4
│           0x00681756      700c           moveq 0xc, d0
│           0x00681758      487af75d       pea.l 0x680eb7(pc)
│           0x0068175c      48780011       pea.l 0x11
│           0x00681760      2f17           move.l (a7), -(a7)
│           0x00681762      4e91           jsr (a1)                    ; fcn.0000000a
│           0x00681764      dec0           adda.w d0, a7
│           0x00681766      4eb900404946   jsr p_wtln_o
│       ┌─> 0x0068176c      206e0008       movea.l 0x8(a6), a0
│       ╎   0x00681770      b0fc0001       cmpa.w 0x1, a0
│      ┌──< 0x00681774      6700009c       beq.w 0x681812
│      │╎   0x00681778      487af74f       pea.l 0x680ec9(pc)
│      │╎   0x0068177c      48780003       pea.l 0x3
│      │╎   0x00681780      2f17           move.l (a7), -(a7)
│      │╎   0x00681782      4e91           jsr (a1)                    ; fcn.0000000a
│      │╎   0x00681784      504f           addq.w 0x8, a7
│      │╎   0x00681786      2e90           move.l (a0), (a7)
│      │╎   0x00681788      4852           pea.l (a2)
│      │╎   0x0068178a      4eb9004070e4   jsr p_wti_o
│      │╎   0x00681790      504f           addq.w 0x8, a7
│      │╎   0x00681792      487af739       pea.l 0x680ecd(pc)
│      │╎   0x00681796      4853           pea.l (a3)
│      │╎   0x00681798      2f17           move.l (a7), -(a7)
│      │╎   0x0068179a      4e91           jsr (a1)                    ; fcn.0000000a
│      │╎   0x0068179c      504f           addq.w 0x8, a7
│      │╎   0x0068179e      2ea80004       move.l 0x4(a0), (a7)
│      │╎   0x006817a2      4852           pea.l (a2)
│      │╎   0x006817a4      4854           pea.l (a4)
│      │╎   0x006817a6      4eb900439f72   jsr P17_FRDWRT.p_wtf2_o
│      │╎   0x006817ac      dec0           adda.w d0, a7
│      │╎   0x006817ae      487af723       pea.l 0x680ed3(pc)
│      │╎   0x006817b2      4853           pea.l (a3)
│      │╎   0x006817b4      2f17           move.l (a7), -(a7)
│      │╎   0x006817b6      4e91           jsr (a1)                    ; fcn.0000000a
│      │╎   0x006817b8      504f           addq.w 0x8, a7
│      │╎   0x006817ba      2ea8000c       move.l 0xc(a0), (a7)
│      │╎   0x006817be      4852           pea.l (a2)
│      │╎   0x006817c0      4854           pea.l (a4)
│      │╎   0x006817c2      4eb900439f72   jsr P17_FRDWRT.p_wtf2_o
│      │╎   0x006817c8      dec0           adda.w d0, a7
│      │╎   0x006817ca      487af70d       pea.l 0x680ed9(pc)
│      │╎   0x006817ce      4853           pea.l (a3)
│      │╎   0x006817d0      2f17           move.l (a7), -(a7)
│      │╎   0x006817d2      4e91           jsr (a1)                    ; fcn.0000000a
│      │╎   0x006817d4      504f           addq.w 0x8, a7
│      │╎   0x006817d6      2ea80008       move.l 0x8(a0), (a7)
│      │╎   0x006817da      4852           pea.l (a2)
│      │╎   0x006817dc      4854           pea.l (a4)
│      │╎   0x006817de      4eb900439f72   jsr P17_FRDWRT.p_wtf2_o
│      │╎   0x006817e4      dec0           adda.w d0, a7
│      │╎   0x006817e6      487af6f7       pea.l 0x680edf(pc)
│      │╎   0x006817ea      4853           pea.l (a3)
│      │╎   0x006817ec      2f17           move.l (a7), -(a7)
│      │╎   0x006817ee      4e91           jsr (a1)                    ; fcn.0000000a
│      │╎   0x006817f0      504f           addq.w 0x8, a7
│      │╎   0x006817f2      2ea80010       move.l 0x10(a0), (a7)
│      │╎   0x006817f6      4852           pea.l (a2)
│      │╎   0x006817f8      4854           pea.l (a4)
│      │╎   0x006817fa      4eb900439f72   jsr P17_FRDWRT.p_wtf2_o
│      │╎   0x00681800      dec0           adda.w d0, a7
│      │╎   0x00681802      4eb900404946   jsr p_wtln_o
│      │╎   0x00681808      2d6800220008   move.l 0x22(a0), 0x8(a6)
│      │└─< 0x0068180e      6000ff5c       bra.w 0x68176c
│      └──> 0x00681812      487af6d1       pea.l 0x680ee5(pc)
│           0x00681816      48780008       pea.l 0x8
│           0x0068181a      2f17           move.l (a7), -(a7)
│           0x0068181c      4e91           jsr (a1)                    ; fcn.0000000a
│           0x0068181e      dec0           adda.w d0, a7
│           0x00681820      4eb900404946   jsr p_wtln_o
│           0x00681826      4cdf1f01       movem.l (a7)+, d0/a0-a4
│           0x0068182a      4e5e           unlk a6
└           0x0068182c      4e75           rts
┌ 20: FONTLET.calculate_area ();
│           0x0068182e      4e56ffe4       link.w a6, 0xffe4
│           0x00681832      bfd5           cmpa.l (a5), a7
│       ┌─< 0x00681834      6206           bhi.b 0x68183c
│       │   0x00681836      44fc0002       move.w 0x2, ccr
│       │   0x0068183a      4e76           trapv
│       └─> 0x0068183c      defc001c       adda.w 0x1c, a7
│           0x00681840      f227e003       fmovem fp0-fp1, -(a7)
            0x00681844      f22e44000014   fmove.s 0x14(a6), fp0
            0x0068184a      f22e44230008   fmul.s 0x8(a6), fp0
            0x00681850      f22e4480000c   fmove.s 0xc(a6), fp1
            0x00681856      f22e44a30010   fmul.s 0x10(a6), fp1
            0x0068185c      f200049a       fneg fp1
            0x00681860      f20000a2       fadd fp0, fp1
            0x00681864      f23c40a00000.  fdiv.l 0x2, fp1
            0x0068186c      f22e64800018   fmove.s fp1, 0x18(a6)
            0x00681872      f21fd0c0       fmovem (a7)+, fp0-fp1
            0x00681876      4e5e           unlk a6
            0x00681878      4e75           rts
┌ 24: FONTLET.search_left_edg ();
│           0x0068187a      4e56ffae       link.w a6, 0xffae
│           0x0068187e      bfd5           cmpa.l (a5), a7
│       ┌─< 0x00681880      6206           bhi.b 0x681888
│       │   0x00681882      44fc0002       move.w 0x2, ccr
│       │   0x00681886      4e76           trapv
│       └─> 0x00681888      defc0050       adda.w 0x50, a7
│           0x0068188c      48e7c1e0       movem.l d0-d1/d7/a0-a2, -(a7)
│           0x00681890      f227e001       fmovem fp0, -(a7)
            0x00681894      43ec0004       lea.l 0x4(a4), a1
            0x00681898      45ee0008       lea.l 0x8(a6), a2
            0x0068189c      7001           moveq 0x1, d0
            0x0068189e      7200           moveq 0x0, d1
            0x006818a0      22ac003e       move.l 0x3e(a4), (a1)
            0x006818a4      2051           movea.l (a1), a0
            0x006818a6      b0c0           cmpa.w d0, a0
        ┌─< 0x006818a8      6604           bne.b 0x6818ae
        │   0x006818aa      7e00           moveq 0x0, d7
       ┌──< 0x006818ac      6002           bra.b 0x6818b0
       │└─> 0x006818ae      7e01           moveq 0x1, d7
       └┌─> 0x006818b0      4a07           tst.b d7
       ┌──< 0x006818b2      6734           beq.b 0x6818e8
       │╎   0x006818b4      2051           movea.l (a1), a0
       │╎   0x006818b6      f22844000004   fmove.s 0x4(a0), fp0
       │╎   0x006818bc      f2014038       fcmp.l d1, fp0
       │╎   0x006818c0      f2960014       fbf.w 0x6818d6
       │╎   0x006818c4      f22844000008   fmove.s 0x8(a0), fp0
       │╎   0x006818ca      f2124438       fcmp.s (a2), fp0
       │╎   0x006818ce      f29a0006       fbf.w 0x6818d6
       │╎   0x006818d2      7e00           moveq 0x0, d7
      ┌───< 0x006818d4      6008           bra.b 0x6818de
      ││╎   0x006818d6      29510008       move.l (a1), 0x8(a4)
      ││╎   0x006818da      22a80022       move.l 0x22(a0), (a1)
      └───> 0x006818de      2051           movea.l (a1), a0
       │╎   0x006818e0      b0c0           cmpa.w d0, a0
      ┌───< 0x006818e2      6602           bne.b 0x6818e6
      ││╎   0x006818e4      7e00           moveq 0x0, d7
      └─└─< 0x006818e6      60c8           bra.b 0x6818b0
       └──> 0x006818e8      f22c44000018   fmove.s 0x18(a4), fp0
            0x006818ee      f2014038       fcmp.l d1, fp0
            0x006818f2      f296003c       fbf.w 0x681930
            0x006818f6      f22c4400001c   fmove.s 0x1c(a4), fp0
            0x006818fc      f2124438       fcmp.s (a2), fp0
            0x00681900      f29b002e       fbf.w 0x681930
            0x00681904      2051           movea.l (a1), a0
            0x00681906      b0c0           cmpa.w d0, a0
        ┌─< 0x00681908      6602           bne.b 0x68190c
       ┌──< 0x0068190a      6020           bra.b 0x68192c
       │└─> 0x0068190c      f22844000008   fmove.s 0x8(a0), fp0
       │    0x00681912      f22c4438001c   fcmp.s 0x1c(a4), fp0
       │    0x00681918      f29b0016       fbf.w 0x681930
       │    0x0068191c      f22844000008   fmove.s 0x8(a0), fp0
       │    0x00681922      f2124438       fcmp.s (a2), fp0
       │    0x00681926      f2990008       fbf.w 0x681930
       │    0x0068192a      2280           move.l d0, (a1)
       └──> 0x0068192c      422c002d       clr.b 0x2d(a4)
            0x00681930      f21fd080       fmovem (a7)+, fp0
            0x00681934      4cdf0783       movem.l (a7)+, d0-d1/d7/a0-a2
            0x00681938      4e5e           unlk a6
            0x0068193a      4e75           rts
┌ 24: FONTLET.search_right_ed ();
│           0x0068193c      4e56ffae       link.w a6, 0xffae
│           0x00681940      bfd5           cmpa.l (a5), a7
│       ┌─< 0x00681942      6206           bhi.b 0x68194a
│       │   0x00681944      44fc0002       move.w 0x2, ccr
│       │   0x00681948      4e76           trapv
│       └─> 0x0068194a      defc0050       adda.w 0x50, a7
│           0x0068194e      48e781f0       movem.l d0/d7/a0-a3, -(a7)
│           0x00681952      f227e001       fmovem fp0, -(a7)
            0x00681956      43ec0004       lea.l 0x4(a4), a1
            0x0068195a      45ee0008       lea.l 0x8(a6), a2
            0x0068195e      47ec001c       lea.l 0x1c(a4), a3
            0x00681962      7001           moveq 0x1, d0
            0x00681964      22ac003e       move.l 0x3e(a4), (a1)
            0x00681968      2051           movea.l (a1), a0
            0x0068196a      b0c0           cmpa.w d0, a0
        ┌─< 0x0068196c      6604           bne.b 0x681972
        │   0x0068196e      7e00           moveq 0x0, d7
       ┌──< 0x00681970      6002           bra.b 0x681974
       │└─> 0x00681972      7e01           moveq 0x1, d7
       └┌─> 0x00681974      4a07           tst.b d7
       ┌──< 0x00681976      6734           beq.b 0x6819ac
       │╎   0x00681978      2051           movea.l (a1), a0
       │╎   0x0068197a      f22844000004   fmove.s 0x4(a0), fp0
       │╎   0x00681980      f2004038       fcmp.l d0, fp0
       │╎   0x00681984      f2960014       fbf.w 0x68199a
       │╎   0x00681988      f22844000008   fmove.s 0x8(a0), fp0
       │╎   0x0068198e      f2124438       fcmp.s (a2), fp0
       │╎   0x00681992      f29c0006       fbf.w 0x68199a
       │╎   0x00681996      7e00           moveq 0x0, d7
      ┌───< 0x00681998      6008           bra.b 0x6819a2
      ││╎   0x0068199a      29510008       move.l (a1), 0x8(a4)
      ││╎   0x0068199e      22a80022       move.l 0x22(a0), (a1)
      └───> 0x006819a2      2051           movea.l (a1), a0
       │╎   0x006819a4      b0c0           cmpa.w d0, a0
      ┌───< 0x006819a6      6602           bne.b 0x6819aa
      ││╎   0x006819a8      7e00           moveq 0x0, d7
      └─└─< 0x006819aa      60c8           bra.b 0x681974
       └──> 0x006819ac      f22c44000018   fmove.s 0x18(a4), fp0
            0x006819b2      f2004038       fcmp.l d0, fp0
            0x006819b6      f2960062       fbf.w 0x681a1a
            0x006819ba      f2134400       fmove.s (a3), fp0
            0x006819be      f2124438       fcmp.s (a2), fp0
            0x006819c2      f29d0056       fbf.w 0x681a1a
            0x006819c6      2051           movea.l (a1), a0
            0x006819c8      b0c0           cmpa.w d0, a0
        ┌─< 0x006819ca      6602           bne.b 0x6819ce
       ┌──< 0x006819cc      601e           bra.b 0x6819ec
       │└─> 0x006819ce      f22844000008   fmove.s 0x8(a0), fp0
       │    0x006819d4      f2134438       fcmp.s (a3), fp0
       │    0x006819d8      f29d0040       fbf.w 0x681a1a
       │    0x006819dc      f22844000008   fmove.s 0x8(a0), fp0
       │    0x006819e2      f2124438       fcmp.s (a2), fp0
       │    0x006819e6      f2990032       fbf.w 0x681a1a
       │    0x006819ea      2280           move.l d0, (a1)
       └──> 0x006819ec      422c002d       clr.b 0x2d(a4)
            0x006819f0      594f           subq.w 0x4, a7
            0x006819f2      f2004000       fmove.l d0, fp0
            0x006819f6      f2276400       fmove.s fp0, -(a7)
            0x006819fa      2f12           move.l (a2), -(a7)
            0x006819fc      2f2c0018       move.l 0x18(a4), -(a7)
            0x00681a00      2f13           move.l (a3), -(a7)
            0x00681a02      4ebafe2a       jsr FONTLET.calculate_area(pc)
            0x00681a06      defc0010       adda.w 0x10, a7
            0x00681a0a      f22c44000028   fmove.s 0x28(a4), fp0
            0x00681a10      f21f4422       fadd.s (a7)+, fp0
            0x00681a14      f22c64000028   fmove.s fp0, 0x28(a4)
            0x00681a1a      f21fd080       fmovem (a7)+, fp0
            0x00681a1e      4cdf0f81       movem.l (a7)+, d0/d7/a0-a3
            0x00681a22      4e5e           unlk a6
            0x00681a24      4e75           rts
┌ 24: FONTLET.search_bottom_e ();
│           0x00681a26      4e56ffae       link.w a6, 0xffae
│           0x00681a2a      bfd5           cmpa.l (a5), a7
│       ┌─< 0x00681a2c      6206           bhi.b 0x681a34
│       │   0x00681a2e      44fc0002       move.w 0x2, ccr
│       │   0x00681a32      4e76           trapv
│       └─> 0x00681a34      defc0050       adda.w 0x50, a7
│           0x00681a38      48e7c1e0       movem.l d0-d1/d7/a0-a2, -(a7)
│           0x00681a3c      f227e001       fmovem fp0, -(a7)
            0x00681a40      43ec0004       lea.l 0x4(a4), a1
            0x00681a44      45ee0008       lea.l 0x8(a6), a2
            0x00681a48      7001           moveq 0x1, d0
            0x00681a4a      7200           moveq 0x0, d1
            0x00681a4c      22ac003e       move.l 0x3e(a4), (a1)
            0x00681a50      2051           movea.l (a1), a0
            0x00681a52      b0c0           cmpa.w d0, a0
        ┌─< 0x00681a54      6604           bne.b 0x681a5a
        │   0x00681a56      7e00           moveq 0x0, d7
       ┌──< 0x00681a58      6002           bra.b 0x681a5c
       │└─> 0x00681a5a      7e01           moveq 0x1, d7
       └┌─> 0x00681a5c      4a07           tst.b d7
       ┌──< 0x00681a5e      6734           beq.b 0x681a94
       │╎   0x00681a60      2051           movea.l (a1), a0
       │╎   0x00681a62      f22844000008   fmove.s 0x8(a0), fp0
       │╎   0x00681a68      f2014038       fcmp.l d1, fp0
       │╎   0x00681a6c      f2960014       fbf.w 0x681a82
       │╎   0x00681a70      f22844000004   fmove.s 0x4(a0), fp0
       │╎   0x00681a76      f2124438       fcmp.s (a2), fp0
       │╎   0x00681a7a      f29c0006       fbf.w 0x681a82
       │╎   0x00681a7e      7e00           moveq 0x0, d7
      ┌───< 0x00681a80      6008           bra.b 0x681a8a
      ││╎   0x00681a82      29510008       move.l (a1), 0x8(a4)
      ││╎   0x00681a86      22a80022       move.l 0x22(a0), (a1)
      └───> 0x00681a8a      2051           movea.l (a1), a0
       │╎   0x00681a8c      b0c0           cmpa.w d0, a0
      ┌───< 0x00681a8e      6602           bne.b 0x681a92
      ││╎   0x00681a90      7e00           moveq 0x0, d7
      └─└─< 0x00681a92      60c8           bra.b 0x681a5c
       └──> 0x00681a94      f22c4400001c   fmove.s 0x1c(a4), fp0
            0x00681a9a      f2014038       fcmp.l d1, fp0
            0x00681a9e      f296003c       fbf.w 0x681adc
            0x00681aa2      f22c44000018   fmove.s 0x18(a4), fp0
            0x00681aa8      f2124438       fcmp.s (a2), fp0
            0x00681aac      f29d002e       fbf.w 0x681adc
            0x00681ab0      2051           movea.l (a1), a0
            0x00681ab2      b0c0           cmpa.w d0, a0
        ┌─< 0x00681ab4      6602           bne.b 0x681ab8
       ┌──< 0x00681ab6      6020           bra.b 0x681ad8
       │└─> 0x00681ab8      f22844000004   fmove.s 0x4(a0), fp0
       │    0x00681abe      f22c44380018   fcmp.s 0x18(a4), fp0
       │    0x00681ac4      f29d0016       fbf.w 0x681adc
       │    0x00681ac8      f22844000004   fmove.s 0x4(a0), fp0
       │    0x00681ace      f2124438       fcmp.s (a2), fp0
       │    0x00681ad2      f2990008       fbf.w 0x681adc
       │    0x00681ad6      2280           move.l d0, (a1)
       └──> 0x00681ad8      422c002d       clr.b 0x2d(a4)
            0x00681adc      f21fd080       fmovem (a7)+, fp0
            0x00681ae0      4cdf0783       movem.l (a7)+, d0-d1/d7/a0-a2
            0x00681ae4      4e5e           unlk a6
            0x00681ae6      4e75           rts
┌ 24: FONTLET.search_top_edge ();
│           0x00681ae8      4e56ffae       link.w a6, 0xffae
│           0x00681aec      bfd5           cmpa.l (a5), a7
│       ┌─< 0x00681aee      6206           bhi.b 0x681af6
│       │   0x00681af0      44fc0002       move.w 0x2, ccr
│       │   0x00681af4      4e76           trapv
│       └─> 0x00681af6      defc0050       adda.w 0x50, a7
│           0x00681afa      48e781f0       movem.l d0/d7/a0-a3, -(a7)
│           0x00681afe      f227e001       fmovem fp0, -(a7)
            0x00681b02      43ec0004       lea.l 0x4(a4), a1
            0x00681b06      45ee0008       lea.l 0x8(a6), a2
            0x00681b0a      47ec0018       lea.l 0x18(a4), a3
            0x00681b0e      7001           moveq 0x1, d0
            0x00681b10      22ac003e       move.l 0x3e(a4), (a1)
            0x00681b14      2051           movea.l (a1), a0
            0x00681b16      b0c0           cmpa.w d0, a0
        ┌─< 0x00681b18      6604           bne.b 0x681b1e
        │   0x00681b1a      7e00           moveq 0x0, d7
       ┌──< 0x00681b1c      6002           bra.b 0x681b20
       │└─> 0x00681b1e      7e01           moveq 0x1, d7
       └┌─> 0x00681b20      4a07           tst.b d7
       ┌──< 0x00681b22      6734           beq.b 0x681b58
       │╎   0x00681b24      2051           movea.l (a1), a0
       │╎   0x00681b26      f22844000008   fmove.s 0x8(a0), fp0
       │╎   0x00681b2c      f2004038       fcmp.l d0, fp0
       │╎   0x00681b30      f2960014       fbf.w 0x681b46
       │╎   0x00681b34      f22844000004   fmove.s 0x4(a0), fp0
       │╎   0x00681b3a      f2124438       fcmp.s (a2), fp0
       │╎   0x00681b3e      f29a0006       fbf.w 0x681b46
       │╎   0x00681b42      7e00           moveq 0x0, d7
      ┌───< 0x00681b44      6008           bra.b 0x681b4e
      ││╎   0x00681b46      29510008       move.l (a1), 0x8(a4)
      ││╎   0x00681b4a      22a80022       move.l 0x22(a0), (a1)
      └───> 0x00681b4e      2051           movea.l (a1), a0
       │╎   0x00681b50      b0c0           cmpa.w d0, a0
      ┌───< 0x00681b52      6602           bne.b 0x681b56
      ││╎   0x00681b54      7e00           moveq 0x0, d7
      └─└─< 0x00681b56      60c8           bra.b 0x681b20
       └──> 0x00681b58      f22c4400001c   fmove.s 0x1c(a4), fp0
            0x00681b5e      f2004038       fcmp.l d0, fp0
            0x00681b62      f2960062       fbf.w 0x681bc6
            0x00681b66      f2134400       fmove.s (a3), fp0
            0x00681b6a      f2124438       fcmp.s (a2), fp0
            0x00681b6e      f29b0056       fbf.w 0x681bc6
            0x00681b72      2051           movea.l (a1), a0
            0x00681b74      b0c0           cmpa.w d0, a0
        ┌─< 0x00681b76      6602           bne.b 0x681b7a
       ┌──< 0x00681b78      601e           bra.b 0x681b98
       │└─> 0x00681b7a      f22844000004   fmove.s 0x4(a0), fp0
       │    0x00681b80      f2134438       fcmp.s (a3), fp0
       │    0x00681b84      f29b0040       fbf.w 0x681bc6
       │    0x00681b88      f22844000004   fmove.s 0x4(a0), fp0
       │    0x00681b8e      f2124438       fcmp.s (a2), fp0
       │    0x00681b92      f2990032       fbf.w 0x681bc6
       │    0x00681b96      2280           move.l d0, (a1)
       └──> 0x00681b98      422c002d       clr.b 0x2d(a4)
            0x00681b9c      594f           subq.w 0x4, a7
            0x00681b9e      2f12           move.l (a2), -(a7)
            0x00681ba0      f2004000       fmove.l d0, fp0
            0x00681ba4      f2276400       fmove.s fp0, -(a7)
            0x00681ba8      2f13           move.l (a3), -(a7)
            0x00681baa      2f2c001c       move.l 0x1c(a4), -(a7)
            0x00681bae      4ebafc7e       jsr FONTLET.calculate_area(pc)
            0x00681bb2      defc0010       adda.w 0x10, a7
            0x00681bb6      f22c44000028   fmove.s 0x28(a4), fp0
            0x00681bbc      f21f4422       fadd.s (a7)+, fp0
            0x00681bc0      f22c64000028   fmove.s fp0, 0x28(a4)
            0x00681bc6      f21fd080       fmovem (a7)+, fp0
            0x00681bca      4cdf0f81       movem.l (a7)+, d0/d7/a0-a3
            0x00681bce      4e5e           unlk a6
            0x00681bd0      4e75           rts
┌ 24: FONTLET.find_next_point ();
│           0x00681bd2      4e56ff8e       link.w a6, 0xff8e
│           0x00681bd6      bfd5           cmpa.l (a5), a7
│       ┌─< 0x00681bd8      6206           bhi.b 0x681be0
│       │   0x00681bda      44fc0002       move.w 0x2, ccr
│       │   0x00681bde      4e76           trapv
│       └─> 0x00681be0      defc0070       adda.w 0x70, a7
│           0x00681be4      48e7fdf0       movem.l d0-d5/d7/a0-a3, -(a7)
│           0x00681be8      f227e003       fmovem fp0-fp1, -(a7)
            0x00681bec      45ec0004       lea.l 0x4(a4), a2
            0x00681bf0      47ec002d       lea.l 0x2d(a4), a3
            0x00681bf4      7001           moveq 0x1, d0
            0x00681bf6      7200           moveq 0x0, d1
            0x00681bf8      243c3f000000   move.l 0x3f000000, d2
            0x00681bfe      760c           moveq 0xc, d3
            0x00681c00      7802           moveq 0x2, d4
            0x00681c02      7a10           moveq 0x10, d5
            0x00681c04      f22e4400000c   fmove.s 0xc(a6), fp0
            0x00681c0a      f2014038       fcmp.l d1, fp0
            0x00681c0e      f2960148       fbf.w 0x681d58
            0x00681c12      2f2e0008       move.l 0x8(a6), -(a7)
            0x00681c16      4ebafc62       jsr FONTLET.search_left_edg(pc)
            0x00681c1a      584f           addq.w 0x4, a7
            0x00681c1c      2052           movea.l (a2), a0
            0x00681c1e      b0c0           cmpa.w d0, a0
        ┌─< 0x00681c20      6600049e       bne.w 0x6820c0
        │   0x00681c24      4a13           tst.b (a3)
       ┌──< 0x00681c26      67000498       beq.w 0x6820c0
       ││   0x00681c2a      f2014000       fmove.l d1, fp0
       ││   0x00681c2e      f2276400       fmove.s fp0, -(a7)
       ││   0x00681c32      4ebafdf2       jsr FONTLET.search_bottom_e(pc)
       ││   0x00681c36      584f           addq.w 0x4, a7
       ││   0x00681c38      2052           movea.l (a2), a0
       ││   0x00681c3a      b0c0           cmpa.w d0, a0
      ┌───< 0x00681c3c      66000482       bne.w 0x6820c0
      │││   0x00681c40      4a13           tst.b (a3)
     ┌────< 0x00681c42      6700047c       beq.w 0x6820c0
     ││││   0x00681c46      f2014000       fmove.l d1, fp0
     ││││   0x00681c4a      f2276400       fmove.s fp0, -(a7)
     ││││   0x00681c4e      4ebafcec       jsr FONTLET.search_right_ed(pc)
     ││││   0x00681c52      584f           addq.w 0x4, a7
     ││││   0x00681c54      2052           movea.l (a2), a0
     ││││   0x00681c56      b0c0           cmpa.w d0, a0
    ┌─────< 0x00681c58      671e           beq.b 0x681c78
  ┌┌──────> 0x00681c5a      f22844000008   fmove.s 0x8(a0), fp0
  ╎╎│││││   0x00681c60      f2044020       fdiv.l d4, fp0
  ╎╎│││││   0x00681c64      f22c44800028   fmove.s 0x28(a4), fp1
  ╎╎│││││   0x00681c6a      f20000a2       fadd fp0, fp1
  ╎╎│││││   0x00681c6e      f22c64800028   fmove.s fp1, 0x28(a4)
  ────────< 0x00681c74      6000044a       bra.w 0x6820c0
  ╎╎└─────> 0x00681c78      4a13           tst.b (a3)
  ╎╎┌─────< 0x00681c7a      67000444       beq.w 0x6820c0
  ╎╎│││││   0x00681c7e      f22c44000028   fmove.s 0x28(a4), fp0
  ╎╎│││││   0x00681c84      f2024422       fadd.s d2, fp0
  ╎╎│││││   0x00681c88      f22c64000028   fmove.s fp0, 0x28(a4)
  ╎╎│││││   0x00681c8e      f2004000       fmove.l d0, fp0
  ╎╎│││││   0x00681c92      f2276400       fmove.s fp0, -(a7)
  ╎╎│││││   0x00681c96      4ebafe50       jsr FONTLET.search_top_edge(pc)
  ╎╎│││││   0x00681c9a      584f           addq.w 0x4, a7
  ╎╎│││││   0x00681c9c      2052           movea.l (a2), a0
  ╎╎│││││   0x00681c9e      b0c0           cmpa.w d0, a0
  ────────< 0x00681ca0      6734           beq.b 0x681cd6
  ────────> 0x00681ca2      594f           subq.w 0x4, a7
  ╎╎│││││   0x00681ca4      f2004000       fmove.l d0, fp0
  ╎╎│││││   0x00681ca8      f2276400       fmove.s fp0, -(a7)
  ╎╎│││││   0x00681cac      f2004000       fmove.l d0, fp0
  ╎╎│││││   0x00681cb0      f2276400       fmove.s fp0, -(a7)
  ────────> 0x00681cb4      2f280004       move.l 0x4(a0), -(a7)
  ╎╎│││││   0x00681cb8      2f280008       move.l 0x8(a0), -(a7)
  ╎╎│││││   0x00681cbc      4ebafb70       jsr FONTLET.calculate_area(pc)
  ╎╎│││││   0x00681cc0      dec5           adda.w d5, a7
  ╎╎│││││   0x00681cc2      f22c44000028   fmove.s 0x28(a4), fp0
  ╎╎│││││   0x00681cc8      f21f4422       fadd.s (a7)+, fp0
  ╎╎│││││   0x00681ccc      f22c64000028   fmove.s fp0, 0x28(a4)
  ────────< 0x00681cd2      600003ec       bra.w 0x6820c0
  ────────> 0x00681cd6      4a13           tst.b (a3)
  ────────< 0x00681cd8      670003e6       beq.w 0x6820c0
  ╎╎│││││   0x00681cdc      f22c44000028   fmove.s 0x28(a4), fp0
  ╎╎│││││   0x00681ce2      f2024422       fadd.s d2, fp0
  ╎╎│││││   0x00681ce6      f22c64000028   fmove.s fp0, 0x28(a4)
  ╎╎│││││   0x00681cec      f2004000       fmove.l d0, fp0
  ╎╎│││││   0x00681cf0      f2276400       fmove.s fp0, -(a7)
  ╎╎│││││   0x00681cf4      4ebafb84       jsr FONTLET.search_left_edg(pc)
  ╎╎│││││   0x00681cf8      584f           addq.w 0x4, a7
  ╎╎│││││   0x00681cfa      2052           movea.l (a2), a0
  ╎╎│││││   0x00681cfc      b0c0           cmpa.w d0, a0
  ────────< 0x00681cfe      660003c0       bne.w 0x6820c0
  ╎╎│││││   0x00681d02      4a13           tst.b (a3)
  ────────< 0x00681d04      670003ba       beq.w 0x6820c0
  ╎╎│││││   0x00681d08      487af1e4       pea.l 0x680eee(pc)
  ╎╎│││││   0x00681d0c      48780018       pea.l 0x18
  ╎╎│││││   0x00681d10      2f17           move.l (a7), -(a7)
  ╎╎│││││   0x00681d12      4eb9004047ea   jsr p_wts_o
  ╎╎│││││   0x00681d18      dec3           adda.w d3, a7
  ╎╎│││││   0x00681d1a      206c0010       movea.l 0x10(a4), a0
  ╎╎│││││   0x00681d1e      2f10           move.l (a0), -(a7)
  ╎╎│││││   0x00681d20      48780000       pea.l 0x0
  ╎╎│││││   0x00681d24      4eb9004070e4   jsr p_wti_o
  ╎╎│││││   0x00681d2a      504f           addq.w 0x8, a7
  ╎╎│││││   0x00681d2c      487af1d9       pea.l 0x680f07(pc)
  ────────> 0x00681d30      48780003       pea.l 0x3
  ╎╎│││││   0x00681d34      2f17           move.l (a7), -(a7)
  ────────> 0x00681d36      4eb9004047ea   jsr p_wts_o
  ╎╎│││││   0x00681d3c      504f           addq.w 0x8, a7
  ╎╎│││││   0x00681d3e      2eac0036       move.l 0x36(a4), (a7)
  ╎╎│││││   0x00681d42      48780000       pea.l 0x0
  ╎╎│││││   0x00681d46      4eb9004070e4   jsr p_wti_o
  ╎╎│││││   0x00681d4c      504f           addq.w 0x8, a7
  ╎╎│││││   0x00681d4e      4eb900404946   jsr p_wtln_o
  ────────< 0x00681d54      6000036a       bra.w 0x6820c0
  ╎╎│││││   0x00681d58      f22e4400000c   fmove.s 0xc(a6), fp0
  ╎╎│││││   0x00681d5e      f2004038       fcmp.l d0, fp0
  ╎╎│││││   0x00681d62      f2960110       fbf.w 0x681e74
  ╎╎│││││   0x00681d66      2f2e0008       move.l 0x8(a6), -(a7)
  ╎╎│││││   0x00681d6a      4ebafbd0       jsr FONTLET.search_right_ed(pc)
  ╎╎│││││   0x00681d6e      584f           addq.w 0x4, a7
  ╎╎│││││   0x00681d70      2052           movea.l (a2), a0
  ╎╎│││││   0x00681d72      b0c0           cmpa.w d0, a0
  ────────< 0x00681d74      670e           beq.b 0x681d84
  ────────> 0x00681d76      594f           subq.w 0x4, a7
  ╎╎│││││   0x00681d78      2f2e000c       move.l 0xc(a6), -(a7)
  ╎╎│││││   0x00681d7c      2f2e0008       move.l 0x8(a6), -(a7)
  ────────< 0x00681d80      6000ff32       bra.w 0x681cb4
  ────────> 0x00681d84      4a13           tst.b (a3)
  ────────< 0x00681d86      67000338       beq.w 0x6820c0
  ╎╎│││││   0x00681d8a      594f           subq.w 0x4, a7
  ╎╎│││││   0x00681d8c      2f2e000c       move.l 0xc(a6), -(a7)
  ╎╎│││││   0x00681d90      2f2e0008       move.l 0x8(a6), -(a7)
  ╎╎│││││   0x00681d94      f2004000       fmove.l d0, fp0
  ╎╎│││││   0x00681d98      f2276400       fmove.s fp0, -(a7)
  ╎╎│││││   0x00681d9c      f2004000       fmove.l d0, fp0
  ╎╎│││││   0x00681da0      f2276400       fmove.s fp0, -(a7)
  ╎╎│││││   0x00681da4      4ebafa88       jsr FONTLET.calculate_area(pc)
  ╎╎│││││   0x00681da8      dec5           adda.w d5, a7
  ╎╎│││││   0x00681daa      f22c44000028   fmove.s 0x28(a4), fp0
  ╎╎│││││   0x00681db0      f21f4422       fadd.s (a7)+, fp0
  ╎╎│││││   0x00681db4      f22c64000028   fmove.s fp0, 0x28(a4)
  ╎╎│││││   0x00681dba      f2004000       fmove.l d0, fp0
  ╎╎│││││   0x00681dbe      f2276400       fmove.s fp0, -(a7)
  ╎╎│││││   0x00681dc2      4ebafd24       jsr FONTLET.search_top_edge(pc)
  ╎╎│││││   0x00681dc6      584f           addq.w 0x4, a7
  ╎╎│││││   0x00681dc8      2052           movea.l (a2), a0
  ╎╎│││││   0x00681dca      b0c0           cmpa.w d0, a0
  ────────< 0x00681dcc      6704           beq.b 0x681dd2
  ────────< 0x00681dce      6000fed2       bra.w 0x681ca2
  ────────> 0x00681dd2      4a13           tst.b (a3)
  ────────< 0x00681dd4      670002ea       beq.w 0x6820c0
  ╎╎│││││   0x00681dd8      f22c44000028   fmove.s 0x28(a4), fp0
  ╎╎│││││   0x00681dde      f2024422       fadd.s d2, fp0
  ╎╎│││││   0x00681de2      f22c64000028   fmove.s fp0, 0x28(a4)
  ╎╎│││││   0x00681de8      f2004000       fmove.l d0, fp0
  ╎╎│││││   0x00681dec      f2276400       fmove.s fp0, -(a7)
  ╎╎│││││   0x00681df0      4ebafa88       jsr FONTLET.search_left_edg(pc)
  ╎╎│││││   0x00681df4      584f           addq.w 0x4, a7
  ╎╎│││││   0x00681df6      2052           movea.l (a2), a0
  ╎╎│││││   0x00681df8      b0c0           cmpa.w d0, a0
  ────────< 0x00681dfa      660002c4       bne.w 0x6820c0
  ╎╎│││││   0x00681dfe      4a13           tst.b (a3)
  ────────< 0x00681e00      670002be       beq.w 0x6820c0
  ╎╎│││││   0x00681e04      f2014000       fmove.l d1, fp0
  ╎╎│││││   0x00681e08      f2276400       fmove.s fp0, -(a7)
  ╎╎│││││   0x00681e0c      4ebafc18       jsr FONTLET.search_bottom_e(pc)
  ╎╎│││││   0x00681e10      584f           addq.w 0x4, a7
  ╎╎│││││   0x00681e12      2052           movea.l (a2), a0
  ╎╎│││││   0x00681e14      b0c0           cmpa.w d0, a0
  ────────< 0x00681e16      660002a8       bne.w 0x6820c0
  ╎╎│││││   0x00681e1a      4a13           tst.b (a3)
  ────────< 0x00681e1c      670002a2       beq.w 0x6820c0
  ╎╎│││││   0x00681e20      f2014000       fmove.l d1, fp0
  ╎╎│││││   0x00681e24      f2276400       fmove.s fp0, -(a7)
  ╎╎│││││   0x00681e28      4ebafb12       jsr FONTLET.search_right_ed(pc)
  ╎╎│││││   0x00681e2c      584f           addq.w 0x4, a7
  ╎╎│││││   0x00681e2e      2052           movea.l (a2), a0
  ╎╎│││││   0x00681e30      b0c0           cmpa.w d0, a0
  ────────< 0x00681e32      6636           bne.b 0x681e6a
  ╎╎│││││   0x00681e34      4a13           tst.b (a3)
  ────────< 0x00681e36      6732           beq.b 0x681e6a
  ╎╎│││││   0x00681e38      487af0d1       pea.l 0x680f0b(pc)
  ╎╎│││││   0x00681e3c      48780018       pea.l 0x18
  ╎╎│││││   0x00681e40      2f17           move.l (a7), -(a7)
  ╎╎│││││   0x00681e42      4eb9004047ea   jsr p_wts_o
  ╎╎│││││   0x00681e48      dec3           adda.w d3, a7
  ╎╎│││││   0x00681e4a      226c0010       movea.l 0x10(a4), a1
  ╎╎│││││   0x00681e4e      2f11           move.l (a1), -(a7)
  ╎╎│││││   0x00681e50      48780000       pea.l 0x0
  ╎╎│││││   0x00681e54      4eb9004070e4   jsr p_wti_o
  ╎╎│││││   0x00681e5a      504f           addq.w 0x8, a7
  ╎╎│││││   0x00681e5c      487af0c6       pea.l 0x680f24(pc)
  ────────> 0x00681e60      48780003       pea.l 0x3
  ╎╎│││││   0x00681e64      2f17           move.l (a7), -(a7)
  ────────< 0x00681e66      6000fece       bra.w 0x681d36
  ────────> 0x00681e6a      4a13           tst.b (a3)
  ────────< 0x00681e6c      67000252       beq.w 0x6820c0
  ────────< 0x00681e70      6000fde8       bra.w 0x681c5a
  ╎╎│││││   0x00681e74      f22e44000008   fmove.s 0x8(a6), fp0
  ╎╎│││││   0x00681e7a      f2014038       fcmp.l d1, fp0
  ╎╎│││││   0x00681e7e      f29600da       fbf.w 0x681f5a
  ╎╎│││││   0x00681e82      2f2e000c       move.l 0xc(a6), -(a7)
  ╎╎│││││   0x00681e86      4ebafb9e       jsr FONTLET.search_bottom_e(pc)
  ╎╎│││││   0x00681e8a      584f           addq.w 0x4, a7
  ╎╎│││││   0x00681e8c      2052           movea.l (a2), a0
  ╎╎│││││   0x00681e8e      b0c0           cmpa.w d0, a0
  ────────< 0x00681e90      6600022e       bne.w 0x6820c0
  ╎╎│││││   0x00681e94      4a13           tst.b (a3)
  ────────< 0x00681e96      67000228       beq.w 0x6820c0
  ╎╎│││││   0x00681e9a      f2014000       fmove.l d1, fp0
  ╎╎│││││   0x00681e9e      f2276400       fmove.s fp0, -(a7)
  ╎╎│││││   0x00681ea2      4ebafa98       jsr FONTLET.search_right_ed(pc)
  ╎╎│││││   0x00681ea6      584f           addq.w 0x4, a7
  ╎╎│││││   0x00681ea8      2052           movea.l (a2), a0
  ╎╎│││││   0x00681eaa      b0c0           cmpa.w d0, a0
  ────────< 0x00681eac      6704           beq.b 0x681eb2
  └───────< 0x00681eae      6000fdaa       bra.w 0x681c5a
  ────────> 0x00681eb2      4a13           tst.b (a3)
  ┌───────< 0x00681eb4      6700020a       beq.w 0x6820c0
  │╎│││││   0x00681eb8      f22c44000028   fmove.s 0x28(a4), fp0
  │╎│││││   0x00681ebe      f2024422       fadd.s d2, fp0
  │╎│││││   0x00681ec2      f22c64000028   fmove.s fp0, 0x28(a4)
  │╎│││││   0x00681ec8      f2004000       fmove.l d0, fp0
  │╎│││││   0x00681ecc      f2276400       fmove.s fp0, -(a7)
  │╎│││││   0x00681ed0      4ebafc16       jsr FONTLET.search_top_edge(pc)
  │╎│││││   0x00681ed4      584f           addq.w 0x4, a7
  │╎│││││   0x00681ed6      2052           movea.l (a2), a0
  │╎│││││   0x00681ed8      b0c0           cmpa.w d0, a0
  ────────< 0x00681eda      6704           beq.b 0x681ee0
  ────────< 0x00681edc      6000fdc4       bra.w 0x681ca2
  ────────> 0x00681ee0      4a13           tst.b (a3)
  ────────< 0x00681ee2      670001dc       beq.w 0x6820c0
  │╎│││││   0x00681ee6      f22c44000028   fmove.s 0x28(a4), fp0
  │╎│││││   0x00681eec      f2024422       fadd.s d2, fp0
  │╎│││││   0x00681ef0      f22c64000028   fmove.s fp0, 0x28(a4)
  │╎│││││   0x00681ef6      f2004000       fmove.l d0, fp0
  │╎│││││   0x00681efa      f2276400       fmove.s fp0, -(a7)
  │╎│││││   0x00681efe      4ebaf97a       jsr FONTLET.search_left_edg(pc)
  │╎│││││   0x00681f02      584f           addq.w 0x4, a7
  │╎│││││   0x00681f04      2052           movea.l (a2), a0
  │╎│││││   0x00681f06      b0c0           cmpa.w d0, a0
  ────────< 0x00681f08      660001b6       bne.w 0x6820c0
  │╎│││││   0x00681f0c      4a13           tst.b (a3)
  ────────< 0x00681f0e      670001b0       beq.w 0x6820c0
  │╎│││││   0x00681f12      f2014000       fmove.l d1, fp0
  │╎│││││   0x00681f16      f2276400       fmove.s fp0, -(a7)
  │╎│││││   0x00681f1a      4ebafb0a       jsr FONTLET.search_bottom_e(pc)
  │╎│││││   0x00681f1e      584f           addq.w 0x4, a7
  │╎│││││   0x00681f20      2052           movea.l (a2), a0
  │╎│││││   0x00681f22      b0c0           cmpa.w d0, a0
  ────────< 0x00681f24      6600019a       bne.w 0x6820c0
  │╎│││││   0x00681f28      4a13           tst.b (a3)
  ────────< 0x00681f2a      67000194       beq.w 0x6820c0
  │╎│││││   0x00681f2e      487aeff8       pea.l 0x680f28(pc)
  │╎│││││   0x00681f32      48780018       pea.l 0x18
  │╎│││││   0x00681f36      2f17           move.l (a7), -(a7)
  │╎│││││   0x00681f38      4eb9004047ea   jsr p_wts_o
  │╎│││││   0x00681f3e      dec3           adda.w d3, a7
  │╎│││││   0x00681f40      206c0010       movea.l 0x10(a4), a0
  │╎│││││   0x00681f44      2f10           move.l (a0), -(a7)
  │╎│││││   0x00681f46      48780000       pea.l 0x0
  │╎│││││   0x00681f4a      4eb9004070e4   jsr p_wti_o
  │╎│││││   0x00681f50      504f           addq.w 0x8, a7
  │╎│││││   0x00681f52      487aefed       pea.l 0x680f41(pc)
  ────────< 0x00681f56      6000fdd8       bra.w 0x681d30
  │╎│││││   0x00681f5a      f22e44000008   fmove.s 0x8(a6), fp0
  │╎│││││   0x00681f60      f2004038       fcmp.l d0, fp0
  │╎│││││   0x00681f64      f29600e8       fbf.w 0x68204e
  │╎│││││   0x00681f68      2f2e000c       move.l 0xc(a6), -(a7)
  │╎│││││   0x00681f6c      4ebafb7a       jsr FONTLET.search_top_edge(pc)
  │╎│││││   0x00681f70      584f           addq.w 0x4, a7
  │╎│││││   0x00681f72      2052           movea.l (a2), a0
  │╎│││││   0x00681f74      b0c0           cmpa.w d0, a0
  ────────< 0x00681f76      6704           beq.b 0x681f7c
  ────────< 0x00681f78      6000fdfc       bra.w 0x681d76
  ────────> 0x00681f7c      4a13           tst.b (a3)
  ────────< 0x00681f7e      67000140       beq.w 0x6820c0
  │╎│││││   0x00681f82      f22e4400000c   fmove.s 0xc(a6), fp0
  │╎│││││   0x00681f88      f2044020       fdiv.l d4, fp0
  │╎│││││   0x00681f8c      f22c44800028   fmove.s 0x28(a4), fp1
  │╎│││││   0x00681f92      f20000a2       fadd fp0, fp1
  │╎│││││   0x00681f96      f22c64800028   fmove.s fp1, 0x28(a4)
  │╎│││││   0x00681f9c      f2004000       fmove.l d0, fp0
  │╎│││││   0x00681fa0      f2276400       fmove.s fp0, -(a7)
  │╎│││││   0x00681fa4      4ebaf8d4       jsr FONTLET.search_left_edg(pc)
  │╎│││││   0x00681fa8      584f           addq.w 0x4, a7
  │╎│││││   0x00681faa      2052           movea.l (a2), a0
  │╎│││││   0x00681fac      b0c0           cmpa.w d0, a0
  ────────< 0x00681fae      66000110       bne.w 0x6820c0
  │╎│││││   0x00681fb2      4a13           tst.b (a3)
  ────────< 0x00681fb4      6700010a       beq.w 0x6820c0
  │╎│││││   0x00681fb8      f2014000       fmove.l d1, fp0
  │╎│││││   0x00681fbc      f2276400       fmove.s fp0, -(a7)
  │╎│││││   0x00681fc0      4ebafa64       jsr FONTLET.search_bottom_e(pc)
  │╎│││││   0x00681fc4      584f           addq.w 0x4, a7
  │╎│││││   0x00681fc6      2052           movea.l (a2), a0
  │╎│││││   0x00681fc8      b0c0           cmpa.w d0, a0
  ────────< 0x00681fca      660000f4       bne.w 0x6820c0
  │╎│││││   0x00681fce      4a13           tst.b (a3)
  ────────< 0x00681fd0      670000ee       beq.w 0x6820c0
  │╎│││││   0x00681fd4      f2014000       fmove.l d1, fp0
  │╎│││││   0x00681fd8      f2276400       fmove.s fp0, -(a7)
  │╎│││││   0x00681fdc      4ebaf95e       jsr FONTLET.search_right_ed(pc)
  │╎│││││   0x00681fe0      584f           addq.w 0x4, a7
  │╎│││││   0x00681fe2      2052           movea.l (a2), a0
  │╎│││││   0x00681fe4      b0c0           cmpa.w d0, a0
  ────────< 0x00681fe6      6704           beq.b 0x681fec
  │└──────< 0x00681fe8      6000fc70       bra.w 0x681c5a
  ────────> 0x00681fec      4a13           tst.b (a3)
  │┌──────< 0x00681fee      670000d0       beq.w 0x6820c0
  │││││││   0x00681ff2      f22c44000028   fmove.s 0x28(a4), fp0
  │││││││   0x00681ff8      f2024422       fadd.s d2, fp0
  │││││││   0x00681ffc      f22c64000028   fmove.s fp0, 0x28(a4)
  │││││││   0x00682002      f2004000       fmove.l d0, fp0
  │││││││   0x00682006      f2276400       fmove.s fp0, -(a7)
  │││││││   0x0068200a      4ebafadc       jsr FONTLET.search_top_edge(pc)
  │││││││   0x0068200e      584f           addq.w 0x4, a7
  │││││││   0x00682010      2052           movea.l (a2), a0
  │││││││   0x00682012      b0c0           cmpa.w d0, a0
  ────────< 0x00682014      6630           bne.b 0x682046
  │││││││   0x00682016      4a13           tst.b (a3)
  ────────< 0x00682018      672c           beq.b 0x682046
  │││││││   0x0068201a      487aef29       pea.l 0x680f45(pc)
  │││││││   0x0068201e      48780018       pea.l 0x18
  │││││││   0x00682022      2f17           move.l (a7), -(a7)
  │││││││   0x00682024      4eb9004047ea   jsr p_wts_o
  │││││││   0x0068202a      dec3           adda.w d3, a7
  │││││││   0x0068202c      226c0010       movea.l 0x10(a4), a1
  │││││││   0x00682030      2f11           move.l (a1), -(a7)
  │││││││   0x00682032      48780000       pea.l 0x0
  │││││││   0x00682036      4eb9004070e4   jsr p_wti_o
  │││││││   0x0068203c      504f           addq.w 0x8, a7
  │││││││   0x0068203e      487aef1e       pea.l 0x680f5e(pc)
  ────────< 0x00682042      6000fe1c       bra.w 0x681e60
  ────────> 0x00682046      4a13           tst.b (a3)
  ────────< 0x00682048      6776           beq.b 0x6820c0
  ────────< 0x0068204a      6000fc56       bra.w 0x681ca2
  │││││││   0x0068204e      24ac003e       move.l 0x3e(a4), (a2)
  │││││││   0x00682052      f22e4400000c   fmove.s 0xc(a6), fp0
  │││││││   0x00682058      f22c44380018   fcmp.s 0x18(a4), fp0
  │││││││   0x0068205e      f2960018       fbf.w 0x682078
  │││││││   0x00682062      f22e44000008   fmove.s 0x8(a6), fp0
  │││││││   0x00682068      f22c4438001c   fcmp.s 0x1c(a4), fp0
  │││││││   0x0068206e      f2960008       fbf.w 0x682078
  │││││││   0x00682072      1680           move.b d0, (a3)
  │││││││   0x00682074      2480           move.l d0, (a2)
  ────────< 0x00682076      6048           bra.b 0x6820c0
  │││││││   0x00682078      2052           movea.l (a2), a0
  │││││││   0x0068207a      b0c0           cmpa.w d0, a0
  ────────< 0x0068207c      6604           bne.b 0x682082
  │││││││   0x0068207e      7e00           moveq 0x0, d7
  ────────< 0x00682080      6002           bra.b 0x682084
  ────────> 0x00682082      7e01           moveq 0x1, d7
  ────────> 0x00682084      4a07           tst.b d7
  ────────< 0x00682086      6738           beq.b 0x6820c0
  │││││││   0x00682088      2052           movea.l (a2), a0
  │││││││   0x0068208a      f22844000004   fmove.s 0x4(a0), fp0
  │││││││   0x00682090      f22e4438000c   fcmp.s 0xc(a6), fp0
  │││││││   0x00682096      f2960016       fbf.w 0x6820ae
  │││││││   0x0068209a      f22844000008   fmove.s 0x8(a0), fp0
  │││││││   0x006820a0      f22e44380008   fcmp.s 0x8(a6), fp0
  │││││││   0x006820a6      f2960006       fbf.w 0x6820ae
  │││││││   0x006820aa      7e00           moveq 0x0, d7
  ────────< 0x006820ac      6008           bra.b 0x6820b6
  │││││││   0x006820ae      29520008       move.l (a2), 0x8(a4)
  │││││││   0x006820b2      24a80022       move.l 0x22(a0), (a2)
  ────────> 0x006820b6      2052           movea.l (a2), a0
  │││││││   0x006820b8      b0c0           cmpa.w d0, a0
  ────────< 0x006820ba      6602           bne.b 0x6820be
  │││││││   0x006820bc      7e00           moveq 0x0, d7
  ────────< 0x006820be      60c4           bra.b 0x682084
  └└└└└└└─> 0x006820c0      f21fd0c0       fmovem (a7)+, fp0-fp1
            0x006820c4      4cdf0fbf       movem.l (a7)+, d0-d5/d7/a0-a3
            0x006820c8      4e5e           unlk a6
            0x006820ca      4e75           rts
            ; CALL XREFS from FONTLET.find_remaining_ @ 0x6824bc, 0x6824f4
┌ 24: FONTLET.find_area_in_pi ();
│           0x006820cc      4e56ff56       link.w a6, 0xff56
│           0x006820d0      bfd5           cmpa.l (a5), a7
│       ┌─< 0x006820d2      6206           bhi.b 0x6820da
│       │   0x006820d4      44fc0002       move.w 0x2, ccr
│       │   0x006820d8      4e76           trapv
│       └─> 0x006820da      defc0080       adda.w 0x80, a7
│           0x006820de      48e7e0f8       movem.l d0-d2/a0-a4, -(a7)
│           0x006820e2      f227e0c1       fmovem fp0/fp6-fp7, -(a7)
            0x006820e6      7201           moveq 0x1, d1
            0x006820e8      7400           moveq 0x0, d2
            0x006820ea      486effe2       pea.l -0x1e(a6)
            0x006820ee      48780026       pea.l 0x26
            0x006820f2      4ebaf28e       jsr FONTLET.local_new(pc)
            0x006820f6      504f           addq.w 0x8, a7
            0x006820f8      206e000c       movea.l 0xc(a6), a0
            0x006820fc      b0c1           cmpa.w d1, a0
        ┌─< 0x006820fe      6612           bne.b 0x682112
        │   0x00682100      226c011a       movea.l 0x11a(a4), a1
        │   0x00682104      202e0008       move.l 0x8(a6), d0
        │   0x00682108      23aeffe20d20.  move.l -0x1e(a6), 0x2ef0(a1, d0.l * 4)
       ┌──< 0x00682110      6006           bra.b 0x682118
       │└─> 0x00682112      216effe2001e   move.l -0x1e(a6), 0x1e(a0)
       └──> 0x00682118      206effe2       movea.l -0x1e(a6), a0
            0x0068211c      226e0010       movea.l 0x10(a6), a1
            0x00682120      2169001e001e   move.l 0x1e(a1), 0x1e(a0)
            0x00682126      2091           move.l (a1), (a0)
            0x00682128      21410022       move.l d1, 0x22(a0)
            0x0068212c      2341001e       move.l d1, 0x1e(a1)
            0x00682130      f2024000       fmove.l d2, fp0
            0x00682134      f22e6400fffa   fmove.s fp0, -0x6(a6)
            0x0068213a      20690022       movea.l 0x22(a1), a0
            0x0068213e      b0c1           cmpa.w d1, a0
        ┌─< 0x00682140      661a           bne.b 0x68215c
        │   0x00682142      487aee1e       pea.l 0x680f62(pc)
        │   0x00682146      48780012       pea.l 0x12
        │   0x0068214a      2f17           move.l (a7), -(a7)
        │   0x0068214c      4eb9004047ea   jsr p_wts_o
        │   0x00682152      defc000c       adda.w 0xc, a7
        │   0x00682156      4eb900404946   jsr p_wtln_o
       ┌└─> 0x0068215c      206e0010       movea.l 0x10(a6), a0
       ╎    0x00682160      b0c1           cmpa.w d1, a0
       ╎┌─< 0x00682162      670000d0       beq.w 0x682234
       ╎│   0x00682166      1d41ffff       move.b d1, -0x1(a6)
       ╎│   0x0068216a      2d680004ffea   move.l 0x4(a0), -0x16(a6)
       ╎│   0x00682170      2d680008ffee   move.l 0x8(a0), -0x12(a6)
       ╎│   0x00682176      2d48ffd6       move.l a0, -0x2a(a6)
       ╎│   0x0068217a      2d6800220010   move.l 0x22(a0), 0x10(a6)
      ┌───> 0x00682180      4a2effff       tst.b -0x1(a6)
     ┌────< 0x00682184      670000aa       beq.w 0x682230
     │╎╎│   0x00682188      226effd6       movea.l -0x2a(a6), a1
     │╎╎│   0x0068218c      f2294780000c   fmove.s 0xc(a1), fp7
     │╎╎│   0x00682192      f22947000010   fmove.s 0x10(a1), fp6
     │╎╎│   0x00682198      594f           subq.w 0x4, a7
     │╎╎│   0x0068219a      2f290004       move.l 0x4(a1), -(a7)
     │╎╎│   0x0068219e      2f290008       move.l 0x8(a1), -(a7)
     │╎╎│   0x006821a2      2f29000c       move.l 0xc(a1), -(a7)
     │╎╎│   0x006821a6      2f290010       move.l 0x10(a1), -(a7)
     │╎╎│   0x006821aa      4ebaf682       jsr FONTLET.calculate_area(pc)
     │╎╎│   0x006821ae      defc0010       adda.w 0x10, a7
     │╎╎│   0x006821b2      f22e4400fffa   fmove.s -0x6(a6), fp0
     │╎╎│   0x006821b8      f21f4422       fadd.s (a7)+, fp0
     │╎╎│   0x006821bc      f22e6400fffa   fmove.s fp0, -0x6(a6)
     │╎╎│   0x006821c2      f2294400000c   fmove.s 0xc(a1), fp0
     │╎╎│   0x006821c8      f22e4438ffea   fcmp.s -0x16(a6), fp0
     │╎╎│   0x006821ce      f2960016       fbf.w 0x6821e6
     │╎╎│   0x006821d2      f22944000010   fmove.s 0x10(a1), fp0
     │╎╎│   0x006821d8      f22e4438ffee   fcmp.s -0x12(a6), fp0
     │╎╎│   0x006821de      f2960006       fbf.w 0x6821e6
     │╎╎│   0x006821e2      422effff       clr.b -0x1(a6)
     │╎╎│   0x006821e6      266effd6       movea.l -0x2a(a6), a3
     │╎╎│   0x006821ea      2f29000c       move.l 0xc(a1), -(a7)
     │╎╎│   0x006821ee      2f290010       move.l 0x10(a1), -(a7)
     │╎╎│   0x006821f2      49eeffd2       lea.l -0x2e(a6), a4
     │╎╎│   0x006821f6      4ebaf9da       jsr FONTLET.find_next_point(pc)
     │╎╎│   0x006821fa      504f           addq.w 0x8, a7
     │╎╎│   0x006821fc      286effd2       movea.l -0x2e(a6), a4
     │╎╎│   0x00682200      226effd6       movea.l -0x2a(a6), a1
     │╎╎│   0x00682204      b2c1           cmpa.w d1, a1
    ┌─────< 0x00682206      6606           bne.b 0x68220e
    ││╎╎│   0x00682208      422effff       clr.b -0x1(a6)
   ┌──────< 0x0068220c      601c           bra.b 0x68222a
   │└─────> 0x0068220e      b3ee0010       cmpa.l 0x10(a6), a1
   │┌─────< 0x00682212      660c           bne.b 0x682220
   │││╎╎│   0x00682214      246e0010       movea.l 0x10(a6), a2
   │││╎╎│   0x00682218      2d6a00220010   move.l 0x22(a2), 0x10(a6)
  ┌───────< 0x0068221e      600a           bra.b 0x68222a
  ││└─────> 0x00682220      246effda       movea.l -0x26(a6), a2
  ││ │╎╎│   0x00682224      256900220022   move.l 0x22(a1), 0x22(a2)
  └└──────> 0x0068222a      3641           movea.w d1, a3
     │└───< 0x0068222c      6000ff52       bra.w 0x682180
     └─└──< 0x00682230      6000ff2a       bra.w 0x68215c
        └─> 0x00682234      f22e4400fffa   fmove.s -0x6(a6), fp0
            0x0068223a      f2014038       fcmp.l d1, fp0
            0x0068223e      f29d000c       fbf.w 0x68224c
            0x00682242      f2014000       fmove.l d1, fp0
            0x00682246      f22e6400fffa   fmove.s fp0, -0x6(a6)
            0x0068224c      f22e4400fffa   fmove.s -0x6(a6), fp0
            0x00682252      f2024038       fcmp.l d2, fp0
            0x00682256      f29b0002       fbf.w 0x68225a
            0x0068225a      102c00dc       move.b 0xdc(a4), d0
            0x0068225e      b02c00de       cmp.b 0xde(a4), d0
        ┌─< 0x00682262      6716           beq.b 0x68227a
        │   0x00682264      206effe2       movea.l -0x1e(a6), a0
        │   0x00682268      f2014000       fmove.l d1, fp0
        │   0x0068226c      f22e4428fffa   fsub.s -0x6(a6), fp0
        │   0x00682272      f22864000014   fmove.s fp0, 0x14(a0)
       ┌──< 0x00682278      600a           bra.b 0x682284
       │└─> 0x0068227a      206effe2       movea.l -0x1e(a6), a0
       │    0x0068227e      216efffa0014   move.l -0x6(a6), 0x14(a0)
       └──> 0x00682284      f21fd083       fmovem (a7)+, fp0/fp6-fp7
            0x00682288      4cdf1f07       movem.l (a7)+, d0-d2/a0-a4
            0x0068228c      4e5e           unlk a6
            0x0068228e      4e75           rts
┌ 152: FONTLET.search_this_lis ();
│           0x00682290      4e56ffb8       link.w a6, 0xffb8
│           0x00682294      bfd5           cmpa.l (a5), a7
│       ┌─< 0x00682296      6206           bhi.b 0x68229e
│       │   0x00682298      44fc0002       move.w 0x2, ccr
│       │   0x0068229c      4e76           trapv
│       └─> 0x0068229e      defc0044       adda.w 0x44, a7
│           0x006822a2      48e780d0       movem.l d0/a0-a1/a3, -(a7)
│           0x006822a6      41f9004047ea   lea.l p_wts_o, a0
│           0x006822ac      43f900404946   lea.l p_wtln_o, a1
│           0x006822b2      700c           moveq 0xc, d0
│           0x006822b4      487aecbf       pea.l 0x680f75(pc)
│           0x006822b8      48780011       pea.l 0x11
│           0x006822bc      2f17           move.l (a7), -(a7)
│           0x006822be      4e90           jsr (a0)                    ; fcn.00000009
│           0x006822c0      dec0           adda.w d0, a7
│           0x006822c2      4e91           jsr (a1)                    ; fcn.0000000a
│           0x006822c4      266c0010       movea.l 0x10(a4), a3
│       ┌─> 0x006822c8      b6fc0001       cmpa.w 0x1, a3
│      ┌──< 0x006822cc      6742           beq.b 0x682310
│      │╎   0x006822ce      487aecb7       pea.l 0x680f87(pc)
│      │╎   0x006822d2      48780004       pea.l 0x4
│      │╎   0x006822d6      2f17           move.l (a7), -(a7)
│      │╎   0x006822d8      4e90           jsr (a0)                    ; fcn.00000009
│      │╎   0x006822da      504f           addq.w 0x8, a7
│      │╎   0x006822dc      2e93           move.l (a3), (a7)
│      │╎   0x006822de      4878000c       pea.l 0xc
│      │╎   0x006822e2      4eb9004070e4   jsr p_wti_o
│      │╎   0x006822e8      504f           addq.w 0x8, a7
│      │╎   0x006822ea      487aeca0       pea.l 0x680f8c(pc)
│      │╎   0x006822ee      48780005       pea.l 0x5
│      │╎   0x006822f2      2f17           move.l (a7), -(a7)
│      │╎   0x006822f4      4e90           jsr (a0)                    ; fcn.00000009
│      │╎   0x006822f6      504f           addq.w 0x8, a7
│      │╎   0x006822f8      2eab0004       move.l 0x4(a3), (a7)
│      │╎   0x006822fc      4878000c       pea.l 0xc
│      │╎   0x00682300      4eb9004070e4   jsr p_wti_o
│      │╎   0x00682306      504f           addq.w 0x8, a7
│      │╎   0x00682308      4e91           jsr (a1)                    ; fcn.0000000a
│      │╎   0x0068230a      266b0008       movea.l 0x8(a3), a3
│      │└─< 0x0068230e      60b8           bra.b 0x6822c8
│      └──> 0x00682310      487aec80       pea.l 0x680f92(pc)
│           0x00682314      48780008       pea.l 0x8
│           0x00682318      2f17           move.l (a7), -(a7)
│           0x0068231a      4e90           jsr (a0)                    ; fcn.00000009
│           0x0068231c      dec0           adda.w d0, a7
│           0x0068231e      4e91           jsr (a1)                    ; fcn.0000000a
│           0x00682320      4cdf0b01       movem.l (a7)+, d0/a0-a1/a3
│           0x00682324      4e5e           unlk a6
└           0x00682326      4e75           rts
┌ 154: FONTLET.check_end_list ();
│           0x00682328      4e56ffb8       link.w a6, 0xffb8
│           0x0068232c      bfd5           cmpa.l (a5), a7
│       ┌─< 0x0068232e      6206           bhi.b 0x682336
│       │   0x00682330      44fc0002       move.w 0x2, ccr
│       │   0x00682334      4e76           trapv
│       └─> 0x00682336      defc0044       adda.w 0x44, a7
│           0x0068233a      48e780d0       movem.l d0/a0-a1/a3, -(a7)
│           0x0068233e      41f9004047ea   lea.l p_wts_o, a0
│           0x00682344      43f900404946   lea.l p_wtln_o, a1
│           0x0068234a      700c           moveq 0xc, d0
│           0x0068234c      487aec4d       pea.l 0x680f9b(pc)
│           0x00682350      48780011       pea.l 0x11
│           0x00682354      2f17           move.l (a7), -(a7)
│           0x00682356      4e90           jsr (a0)                    ; fcn.00000009
│           0x00682358      dec0           adda.w d0, a7
│           0x0068235a      4e91           jsr (a1)                    ; fcn.0000000a
│           0x0068235c      266c0008       movea.l 0x8(a4), a3
│       ┌─> 0x00682360      b6fc0001       cmpa.w 0x1, a3
│      ┌──< 0x00682364      6744           beq.b 0x6823aa
│      │╎   0x00682366      487aec45       pea.l 0x680fad(pc)
│      │╎   0x0068236a      48780004       pea.l 0x4
│      │╎   0x0068236e      2f17           move.l (a7), -(a7)
│      │╎   0x00682370      4e90           jsr (a0)                    ; fcn.00000009
│      │╎   0x00682372      504f           addq.w 0x8, a7
│      │╎   0x00682374      2eab0012       move.l 0x12(a3), (a7)
│      │╎   0x00682378      48780000       pea.l 0x0
│      │╎   0x0068237c      4eb9004070e4   jsr p_wti_o
│      │╎   0x00682382      504f           addq.w 0x8, a7
│      │╎   0x00682384      487aec2c       pea.l 0x680fb2(pc)
│      │╎   0x00682388      48780005       pea.l 0x5
│      │╎   0x0068238c      2f17           move.l (a7), -(a7)
│      │╎   0x0068238e      4e90           jsr (a0)                    ; fcn.00000009
│      │╎   0x00682390      504f           addq.w 0x8, a7
│      │╎   0x00682392      2eab0016       move.l 0x16(a3), (a7)
│      │╎   0x00682396      48780000       pea.l 0x0
│      │╎   0x0068239a      4eb9004070e4   jsr p_wti_o
│      │╎   0x006823a0      504f           addq.w 0x8, a7
│      │╎   0x006823a2      4e91           jsr (a1)                    ; fcn.0000000a
│      │╎   0x006823a4      266b001a       movea.l 0x1a(a3), a3
│      │└─< 0x006823a8      60b6           bra.b 0x682360
│      └──> 0x006823aa      487aec0c       pea.l 0x680fb8(pc)
│           0x006823ae      48780004       pea.l 0x4
│           0x006823b2      2f17           move.l (a7), -(a7)
│           0x006823b4      4e90           jsr (a0)                    ; fcn.00000009
│           0x006823b6      dec0           adda.w d0, a7
│           0x006823b8      4e91           jsr (a1)                    ; fcn.0000000a
│           0x006823ba      4cdf0b01       movem.l (a7)+, d0/a0-a1/a3
│           0x006823be      4e5e           unlk a6
└           0x006823c0      4e75           rts
            ; CALL XREFS from FONTLET.find_remaining_ @ 0x6824ac, 0x6824e4
┌ 146: FONTLET.search_end_list ();
│           0x006823c2      4e56ffa6       link.w a6, 0xffa6
│           0x006823c6      bfd5           cmpa.l (a5), a7
│       ┌─< 0x006823c8      6206           bhi.b 0x6823d0
│       │   0x006823ca      44fc0002       move.w 0x2, ccr
│       │   0x006823ce      4e76           trapv
│       └─> 0x006823d0      defc0050       adda.w 0x50, a7
│           0x006823d4      48e7c1f0       movem.l d0-d1/d7/a0-a3, -(a7)
│           0x006823d8      7201           moveq 0x1, d1
│           0x006823da      206c0008       movea.l 0x8(a4), a0
│           0x006823de      b0c1           cmpa.w d1, a0
│       ┌─< 0x006823e0      676a           beq.b 0x68244c
│       │   0x006823e2      2648           movea.l a0, a3
│       │   0x006823e4      20280012       move.l 0x12(a0), d0
│       │   0x006823e8      b0ae000c       cmp.l 0xc(a6), d0
│      ┌──< 0x006823ec      6614           bne.b 0x682402
│      ││   0x006823ee      20280016       move.l 0x16(a0), d0
│      ││   0x006823f2      b0ae0008       cmp.l 0x8(a6), d0
│     ┌───< 0x006823f6      660a           bne.b 0x682402
│     │││   0x006823f8      2968001a0008   move.l 0x1a(a0), 0x8(a4)
│     │││   0x006823fe      3641           movea.w d1, a3
│    ┌────< 0x00682400      604a           bra.b 0x68244c
│    │└└──> 0x00682402      2d48fffa       move.l a0, -0x6(a6)
│    │  │   0x00682406      2668001a       movea.l 0x1a(a0), a3
│    │  │   0x0068240a      b6c1           cmpa.w d1, a3
│    │ ┌──< 0x0068240c      6604           bne.b 0x682412
│    │ ││   0x0068240e      7e00           moveq 0x0, d7
│    │┌───< 0x00682410      6002           bra.b 0x682414
│    ││└──> 0x00682412      7e01           moveq 0x1, d7
│    │└┌──> 0x00682414      4a07           tst.b d7
│    │┌───< 0x00682416      6734           beq.b 0x68244c
│    ││╎│   0x00682418      226b001a       movea.l 0x1a(a3), a1
│    ││╎│   0x0068241c      b2c1           cmpa.w d1, a1
│   ┌─────< 0x0068241e      6602           bne.b 0x682422
│   │││╎│   0x00682420      7e00           moveq 0x0, d7
│   └─────> 0x00682422      202b0012       move.l 0x12(a3), d0
│    ││╎│   0x00682426      b0ae000c       cmp.l 0xc(a6), d0
│   ┌─────< 0x0068242a      6618           bne.b 0x682444
│   │││╎│   0x0068242c      202b0016       move.l 0x16(a3), d0
│   │││╎│   0x00682430      b0ae0008       cmp.l 0x8(a6), d0
│  ┌──────< 0x00682434      660e           bne.b 0x682444
│  ││││╎│   0x00682436      246efffa       movea.l -0x6(a6), a2
│  ││││╎│   0x0068243a      2549001a       move.l a1, 0x1a(a2)
│  ││││╎│   0x0068243e      3641           movea.w d1, a3
│  ││││╎│   0x00682440      7e00           moveq 0x0, d7
│ ┌───────< 0x00682442      6006           bra.b 0x68244a
│ │└└─────> 0x00682444      2d4bfffa       move.l a3, -0x6(a6)
│ │  ││╎│   0x00682448      2649           movea.l a1, a3
│ └────└──< 0x0068244a      60c8           bra.b 0x682414
│    └└─└─> 0x0068244c      4cdf0f83       movem.l (a7)+, d0-d1/d7/a0-a3
│           0x00682450      4e5e           unlk a6
└           0x00682452      4e75           rts
┌ 222: FONTLET.find_remaining_ (int32_t arg_8h, int32_t arg_10h);
│           ; var int32_t var_eh @ a6-0xe
│           ; arg int32_t arg_8h @ a6+0x8
│           ; arg int32_t arg_10h @ a6+0x10
│           0x00682454      4e56ff52       link.w a6, 0xff52
│           0x00682458      bfd5           cmpa.l (a5), a7
│       ┌─< 0x0068245a      6206           bhi.b 0x682462
│       │   0x0068245c      44fc0002       move.w 0x2, ccr
│       │   0x00682460      4e76           trapv
│       └─> 0x00682462      defc00a0       adda.w 0xa0, a7
│           0x00682466      48e7f1f0       movem.l d0-d3/d7/a0-a3, -(a7)
│           0x0068246a      7401           moveq 0x1, d2
│           0x0068246c      760c           moveq 0xc, d3
│           0x0068246e      2d6c0010fff2   move.l 0x10(a4), -0xe(a6)
│           0x00682474      206c011a       movea.l 0x11a(a4), a0
│           0x00682478      2f08           move.l a0, -(a7)
│       ┌─> 0x0068247a      2057           movea.l (a7), a0
│       ╎   0x0068247c      226efff2       movea.l -0xe(a6), a1
│       ╎   0x00682480      b2c2           cmpa.w d2, a1
│      ┌──< 0x00682482      6606           bne.b 0x68248a
│      │╎   0x00682484      584f           addq.w 0x4, a7
│     ┌───< 0x00682486      6000009e       bra.w 0x682526
│     │└──> 0x0068248a      20290004       move.l 0x4(a1), d0
│     │ ╎   0x0068248e      26700d202ef0   movea.l 0x2ef0(a0, d0.l * 4), a3
│     │ ╎   0x00682494      246b001e       movea.l 0x1e(a3), a2
│     │ ╎   0x00682498      b4c2           cmpa.w d2, a2
│     │┌──< 0x0068249a      6604           bne.b 0x6824a0
│     ││╎   0x0068249c      7e00           moveq 0x0, d7
│    ┌────< 0x0068249e      6002           bra.b 0x6824a2
│    ││└──> 0x006824a0      7e01           moveq 0x1, d7
│    └────> 0x006824a2      2213           move.l (a3), d1
│     │ ╎   0x006824a4      b291           cmp.l (a1), d1
│     │┌──< 0x006824a6      661c           bne.b 0x6824c4
│     ││╎   0x006824a8      2f01           move.l d1, -(a7)
│     ││╎   0x006824aa      2f00           move.l d0, -(a7)
│     ││╎   0x006824ac      4ebaff14       jsr FONTLET.search_end_list(pc)
│     ││╎   0x006824b0      584f           addq.w 0x4, a7
│     ││╎   0x006824b2      2e8b           move.l a3, (a7)
│     ││╎   0x006824b4      48780001       pea.l 0x1
│     ││╎   0x006824b8      2f290004       move.l 0x4(a1), -(a7)
│     ││╎   0x006824bc      4ebafc0e       jsr FONTLET.find_area_in_pi(pc)
│     ││╎   0x006824c0      dec3           adda.w d3, a7
│    ┌────< 0x006824c2      604a           bra.b 0x68250e
│    ││└──> 0x006824c4      2f08           move.l a0, -(a7)
│    ││┌──> 0x006824c6      2057           movea.l (a7), a0
│    ││╎╎   0x006824c8      4a07           tst.b d7
│   ┌─────< 0x006824ca      6604           bne.b 0x6824d0
│   │││╎╎   0x006824cc      584f           addq.w 0x4, a7
│  ┌──────< 0x006824ce      603e           bra.b 0x68250e
│  │└─────> 0x006824d0      246b001e       movea.l 0x1e(a3), a2
│  │ ││╎╎   0x006824d4      206efff2       movea.l -0xe(a6), a0
│  │ ││╎╎   0x006824d8      2012           move.l (a2), d0
│  │ ││╎╎   0x006824da      b090           cmp.l (a0), d0
│  │┌─────< 0x006824dc      6620           bne.b 0x6824fe
│  ││││╎╎   0x006824de      2f00           move.l d0, -(a7)
│  ││││╎╎   0x006824e0      2f280004       move.l 0x4(a0), -(a7)
│  ││││╎╎   0x006824e4      4ebafedc       jsr FONTLET.search_end_list(pc)
│  ││││╎╎   0x006824e8      584f           addq.w 0x4, a7
│  ││││╎╎   0x006824ea      2eab001e       move.l 0x1e(a3), (a7)
│  ││││╎╎   0x006824ee      2f0b           move.l a3, -(a7)
│  ││││╎╎   0x006824f0      2f280004       move.l 0x4(a0), -(a7)
│  ││││╎╎   0x006824f4      4ebafbd6       jsr FONTLET.find_area_in_pi(pc)
│  ││││╎╎   0x006824f8      dec3           adda.w d3, a7
│  ││││╎╎   0x006824fa      7e00           moveq 0x0, d7
│ ┌───────< 0x006824fc      6004           bra.b 0x682502
│ ││└─────> 0x006824fe      266b001e       movea.l 0x1e(a3), a3
│ └───────> 0x00682502      206b001e       movea.l 0x1e(a3), a0
│  │ ││╎╎   0x00682506      b0c2           cmpa.w d2, a0
│  │┌─────< 0x00682508      6602           bne.b 0x68250c
│  ││││╎╎   0x0068250a      7e00           moveq 0x0, d7
│  │└──└──< 0x0068250c      60b8           bra.b 0x6824c6
│  └─└────> 0x0068250e      2d6efff2fff6   move.l -0xe(a6), -0xa(a6)
│     │ ╎   0x00682514      246efff2       movea.l -0xe(a6), a2
│     │ ╎   0x00682518      2d6a0008fff2   move.l 0x8(a2), -0xe(a6)
│     │ ╎   0x0068251e      2d42fff6       move.l d2, -0xa(a6)
│     │ └─< 0x00682522      6000ff56       bra.w 0x68247a
│     └───> 0x00682526      4ebaefd8       jsr FONTLET.final_points(pc)
│           0x0068252a      4cdf0f8f       movem.l (a7)+, d0-d3/d7/a0-a3
│           0x0068252e      4e5e           unlk a6
└           0x00682530      4e75           rts
            ; CALL XREFS from FONTLET.insertsorted @ 0x682638, 0x6826b4
┌ 124: FONTLET.add_pixel_to_li ();
│           0x00682532      4e56ffb2       link.w a6, 0xffb2
│           0x00682536      bfd5           cmpa.l (a5), a7
│       ┌─< 0x00682538      6206           bhi.b 0x682540
│       │   0x0068253a      44fc0002       move.w 0x2, ccr
│       │   0x0068253e      4e76           trapv
│       └─> 0x00682540      defc0048       adda.w 0x48, a7
│           0x00682544      48e7c1e8       movem.l d0-d1/d7/a0-a2/a4, -(a7)
│           0x00682548      45eefffa       lea.l -0x6(a6), a2
│           0x0068254c      7201           moveq 0x1, d1
│           0x0068254e      2054           movea.l (a4), a0
│           0x00682550      24a80010       move.l 0x10(a0), (a2)
│           0x00682554      7e01           moveq 0x1, d7
│       ┌─> 0x00682556      2052           movea.l (a2), a0
│       ╎   0x00682558      b0c1           cmpa.w d1, a0
│      ┌──< 0x0068255a      671e           beq.b 0x68257a
│      │╎   0x0068255c      2010           move.l (a0), d0
│      │╎   0x0068255e      b0ae000c       cmp.l 0xc(a6), d0
│     ┌───< 0x00682562      6610           bne.b 0x682574
│     ││╎   0x00682564      20280004       move.l 0x4(a0), d0
│     ││╎   0x00682568      b0ae0008       cmp.l 0x8(a6), d0
│    ┌────< 0x0068256c      6606           bne.b 0x682574
│    │││╎   0x0068256e      7e00           moveq 0x0, d7
│    │││╎   0x00682570      2481           move.l d1, (a2)
│   ┌─────< 0x00682572      6004           bra.b 0x682578
│   │└└───> 0x00682574      24a80008       move.l 0x8(a0), (a2)
│   └───└─< 0x00682578      60dc           bra.b 0x682556
│      └──> 0x0068257a      4a07           tst.b d7
│       ┌─< 0x0068257c      6728           beq.b 0x6825a6
│       │   0x0068257e      4852           pea.l (a2)
│       │   0x00682580      4878000c       pea.l 0xc
│       │   0x00682584      4ebaedfa       jsr 0x681380(pc)
│       │   0x00682588      504f           addq.w 0x8, a7
│       │   0x0068258a      286efff6       movea.l -0xa(a6), a4
│       │   0x0068258e      2052           movea.l (a2), a0
│       │   0x00682590      20ae000c       move.l 0xc(a6), (a0)
│       │   0x00682594      216e00080004   move.l 0x8(a6), 0x4(a0)
│       │   0x0068259a      2254           movea.l (a4), a1
│       │   0x0068259c      216900100008   move.l 0x10(a1), 0x8(a0)
│       │   0x006825a2      23520010       move.l (a2), 0x10(a1)
│       └─> 0x006825a6      4cdf1783       movem.l (a7)+, d0-d1/d7/a0-a2/a4
│           0x006825aa      4e5e           unlk a6
└           0x006825ac      4e75           rts
            ; CALL XREFS from FONTLET.insertsorted @ 0x682664, 0x682684
┌ 50: FONTLET.insertafter ();
│           0x006825ae      4e56fff0       link.w a6, 0xfff0
│           0x006825b2      bfd5           cmpa.l (a5), a7
│       ┌─< 0x006825b4      6206           bhi.b 0x6825bc
│       │   0x006825b6      44fc0002       move.w 0x2, ccr
│       │   0x006825ba      4e76           trapv
│       └─> 0x006825bc      defc0010       adda.w 0x10, a7
│           0x006825c0      48e700c0       movem.l a0-a1, -(a7)
│           0x006825c4      206e000c       movea.l 0xc(a6), a0
│           0x006825c8      226e0008       movea.l 0x8(a6), a1
│           0x006825cc      2169001e001e   move.l 0x1e(a1), 0x1e(a0)
│           0x006825d2      236e000c001e   move.l 0xc(a6), 0x1e(a1)
│           0x006825d8      4cdf0300       movem.l (a7)+, a0-a1
│           0x006825dc      4e5e           unlk a6
└           0x006825de      4e75           rts
┌ 238: FONTLET.insertsorted ();
│           0x006825e0      4e56ff7e       link.w a6, 0xff7e
│           0x006825e4      bfd5           cmpa.l (a5), a7
│       ┌─< 0x006825e6      6206           bhi.b 0x6825ee
│       │   0x006825e8      44fc0002       move.w 0x2, ccr
│       │   0x006825ec      4e76           trapv
│       └─> 0x006825ee      defc0078       adda.w 0x78, a7
│           0x006825f2      48e7e1f0       movem.l d0-d2/d7/a0-a3, -(a7)
│           0x006825f6      7401           moveq 0x1, d2
│           0x006825f8      7e00           moveq 0x0, d7
│           0x006825fa      206e000c       movea.l 0xc(a6), a0
│           0x006825fe      2250           movea.l (a0), a1
│           0x00682600      b2c2           cmpa.w d2, a1
│       ┌─< 0x00682602      660a           bne.b 0x68260e
│      ┌──> 0x00682604      20ae0008       move.l 0x8(a6), (a0)
│     ┌───> 0x00682608      7e01           moveq 0x1, d7
│    ┌────< 0x0068260a      600000ba       bra.w 0x6826c6
│    │╎╎└─> 0x0068260e      246e0008       movea.l 0x8(a6), a2
│    │╎╎    0x00682612      2012           move.l (a2), d0
│    │╎╎    0x00682614      b091           cmp.l (a1), d0
│    │╎╎┌─< 0x00682616      6c06           bge.b 0x68261e
│    │╎╎│   0x00682618      2549001e       move.l a1, 0x1e(a2)
│    │╎└──< 0x0068261c      60e6           bra.b 0x682604
│    │╎ └─> 0x0068261e      b091           cmp.l (a1), d0
│    │╎ ┌─< 0x00682620      661e           bne.b 0x682640
│    │╎ │   0x00682622      256900220022   move.l 0x22(a1), 0x22(a2)
│    │╎ │   0x00682628      236e00080022   move.l 0x8(a6), 0x22(a1)
│    │╎ │   0x0068262e      2f11           move.l (a1), -(a7)
│    │╎ │   0x00682630      322c002a       move.w 0x2a(a4), d1
│    │╎ │   0x00682634      48c1           ext.l d1
│    │╎ │   0x00682636      2f01           move.l d1, -(a7)
│    │╎ │   0x00682638      4ebafef8       jsr FONTLET.add_pixel_to_li(pc)
│    │╎ │   0x0068263c      504f           addq.w 0x8, a7
│    │└───< 0x0068263e      60c8           bra.b 0x682608
│    │  └─> 0x00682640      4a07           tst.b d7
│    │  ┌─< 0x00682642      66000082       bne.w 0x6826c6
│    │  │   0x00682646      2649           movea.l a1, a3
│    │  │   0x00682648      2f08           move.l a0, -(a7)
│    │  │   0x0068264a      2f09           move.l a1, -(a7)
│    │ ┌──> 0x0068264c      206f0004       movea.l 0x4(a7), a0
│    │ ╎│   0x00682650      2257           movea.l (a7), a1
│    │ ╎│   0x00682652      206b001e       movea.l 0x1e(a3), a0
│    │ ╎│   0x00682656      b0c2           cmpa.w d2, a0
│    │┌───< 0x00682658      6612           bne.b 0x68266c
│    ││╎│   0x0068265a      4a07           tst.b d7
│   ┌─────< 0x0068265c      660e           bne.b 0x68266c
│   │││╎│   0x0068265e      2f2e0008       move.l 0x8(a6), -(a7)
│   │││╎│   0x00682662      2f0b           move.l a3, -(a7)
│   │││╎│   0x00682664      4ebaff48       jsr FONTLET.insertafter(pc)
│   │││╎│   0x00682668      504f           addq.w 0x8, a7
│   │││╎│   0x0068266a      7e01           moveq 0x1, d7
│   └─└───> 0x0068266c      206e0008       movea.l 0x8(a6), a0
│    │ ╎│   0x00682670      226b001e       movea.l 0x1e(a3), a1
│    │ ╎│   0x00682674      2210           move.l (a0), d1
│    │ ╎│   0x00682676      b291           cmp.l (a1), d1
│    │┌───< 0x00682678      6c12           bge.b 0x68268c
│    ││╎│   0x0068267a      4a07           tst.b d7
│   ┌─────< 0x0068267c      660e           bne.b 0x68268c
│   │││╎│   0x0068267e      2f2e0008       move.l 0x8(a6), -(a7)
│   │││╎│   0x00682682      2f0b           move.l a3, -(a7)
│   │││╎│   0x00682684      4ebaff28       jsr FONTLET.insertafter(pc)
│   │││╎│   0x00682688      504f           addq.w 0x8, a7
│   │││╎│   0x0068268a      7e01           moveq 0x1, d7
│   └─└───> 0x0068268c      226b001e       movea.l 0x1e(a3), a1
│    │ ╎│   0x00682690      2210           move.l (a0), d1
│    │ ╎│   0x00682692      b291           cmp.l (a1), d1
│    │┌───< 0x00682694      6626           bne.b 0x6826bc
│    ││╎│   0x00682696      4a07           tst.b d7
│   ┌─────< 0x00682698      6622           bne.b 0x6826bc
│   │││╎│   0x0068269a      216900220022   move.l 0x22(a1), 0x22(a0)
│   │││╎│   0x006826a0      226b001e       movea.l 0x1e(a3), a1
│   │││╎│   0x006826a4      236e00080022   move.l 0x8(a6), 0x22(a1)
│   │││╎│   0x006826aa      2f10           move.l (a0), -(a7)
│   │││╎│   0x006826ac      322c002a       move.w 0x2a(a4), d1
│   │││╎│   0x006826b0      48c1           ext.l d1
│   │││╎│   0x006826b2      2f01           move.l d1, -(a7)
│   │││╎│   0x006826b4      4ebafe7c       jsr FONTLET.add_pixel_to_li(pc)
│   │││╎│   0x006826b8      504f           addq.w 0x8, a7
│   │││╎│   0x006826ba      7e01           moveq 0x1, d7
│   └─└───> 0x006826bc      266b001e       movea.l 0x1e(a3), a3
│    │ ╎│   0x006826c0      4a07           tst.b d7
│    │ └──< 0x006826c2      6788           beq.b 0x68264c
│    │  │   0x006826c4      504f           addq.w 0x8, a7
│    └──└─> 0x006826c6      4cdf0f87       movem.l (a7)+, d0-d2/d7/a0-a3
│           0x006826ca      4e5e           unlk a6
└           0x006826cc      4e75           rts
            0x006826ce      .byte 0x28
            0x006826cf      .byte 0x54
┌ 24: FONTLET.oddpoints ();
│           0x006826d0      4e56ffbc       link.w a6, 0xffbc
│           0x006826d4      bfd5           cmpa.l (a5), a7
│       ┌─< 0x006826d6      6206           bhi.b 0x6826de
│       │   0x006826d8      44fc0002       move.w 0x2, ccr
│       │   0x006826dc      4e76           trapv
│       └─> 0x006826de      defc0040       adda.w 0x40, a7
│           0x006826e2      48e7e0c8       movem.l d0-d2/a0-a1/a4, -(a7)
│           0x006826e6      f227e001       fmovem fp0, -(a7)
            0x006826ea      43eefffc       lea.l -0x4(a6), a1
            0x006826ee      7401           moveq 0x1, d2
            0x006826f0      4851           pea.l (a1)
            0x006826f2      48780026       pea.l 0x26
            0x006826f6      4ebaec8a       jsr FONTLET.local_new(pc)
            0x006826fa      504f           addq.w 0x8, a7
            0x006826fc      2051           movea.l (a1), a0
            0x006826fe      302e0024       move.w 0x24(a6), d0
            0x00682702      48c0           ext.l d0
            0x00682704      2080           move.l d0, (a0)
            0x00682706      f22e4400001e   fmove.s 0x1e(a6), fp0
            0x0068270c      f2004028       fsub.l d0, fp0
            0x00682710      f22864000004   fmove.s fp0, 0x4(a0)
            0x00682716      322e0022       move.w 0x22(a6), d1
            0x0068271a      48c1           ext.l d1
            0x0068271c      f2014000       fmove.l d1, fp0
            0x00682720      f22e4428001a   fsub.s 0x1a(a6), fp0
            0x00682726      f22864000008   fmove.s fp0, 0x8(a0)
            0x0068272c      f22e44000016   fmove.s 0x16(a6), fp0
            0x00682732      f2004028       fsub.l d0, fp0
            0x00682736      f2286400000c   fmove.s fp0, 0xc(a0)
            0x0068273c      f2014000       fmove.l d1, fp0
            0x00682740      f22e44280012   fsub.s 0x12(a6), fp0
            0x00682746      f22864000010   fmove.s fp0, 0x10(a0)
            0x0068274c      216e000e0018   move.l 0xe(a6), 0x18(a0)
            0x00682752      102c00dc       move.b 0xdc(a4), d0
            0x00682756      b02c00de       cmp.b 0xde(a4), d0
        ┌─< 0x0068275a      6712           beq.b 0x68276e
        │   0x0068275c      f2024000       fmove.l d2, fp0
        │   0x00682760      f22e4428000a   fsub.s 0xa(a6), fp0
        │   0x00682766      f22864000014   fmove.s fp0, 0x14(a0)
       ┌──< 0x0068276c      6006           bra.b 0x682774
       │└─> 0x0068276e      216e000a0014   move.l 0xa(a6), 0x14(a0)
       └──> 0x00682774      316e0008001c   move.w 0x8(a6), 0x1c(a0)
            0x0068277a      2142001e       move.l d2, 0x1e(a0)
            0x0068277e      21420022       move.l d2, 0x22(a0)
            0x00682782      4a81           tst.l d1
        ┌─< 0x00682784      6f1a           ble.b 0x6827a0
        │   0x00682786      206c011a       movea.l 0x11a(a4), a0
        │   0x0068278a      48701d202ef0   pea.l 0x2ef0(a0, d1.l * 4)
        │   0x00682790      2f11           move.l (a1), -(a7)
        │   0x00682792      49eefff8       lea.l -0x8(a6), a4
        │   0x00682796      4ebafe48       jsr FONTLET.insertsorted(pc)
        │   0x0068279a      504f           addq.w 0x8, a7
        │   0x0068279c      286efff8       movea.l -0x8(a6), a4
        └─> 0x006827a0      f21fd080       fmovem (a7)+, fp0
            0x006827a4      4cdf1307       movem.l (a7)+, d0-d2/a0-a1/a4
            0x006827a8      4e5e           unlk a6
            0x006827aa      4e75           rts
            0x006827ac      .byte 0x28
            0x006827ad      .byte 0x54
┌ 116: FONTLET.end_of_line ();
│           0x006827ae      4e56ffb6       link.w a6, 0xffb6
│           0x006827b2      bfd5           cmpa.l (a5), a7
│       ┌─< 0x006827b4      6206           bhi.b 0x6827bc
│       │   0x006827b6      44fc0002       move.w 0x2, ccr
│       │   0x006827ba      4e76           trapv
│       └─> 0x006827bc      defc0044       adda.w 0x44, a7
│           0x006827c0      48e7c1f0       movem.l d0-d1/d7/a0-a3, -(a7)
│           0x006827c4      43ec0008       lea.l 0x8(a4), a1
│           0x006827c8      45ec000c       lea.l 0xc(a4), a2
│           0x006827cc      7201           moveq 0x1, d1
│           0x006827ce      2651           movea.l (a1), a3
│           0x006827d0      7e01           moveq 0x1, d7
│       ┌─> 0x006827d2      b6c1           cmpa.w d1, a3
│      ┌──< 0x006827d4      6720           beq.b 0x6827f6
│      │╎   0x006827d6      202b0012       move.l 0x12(a3), d0
│      │╎   0x006827da      b0ae000c       cmp.l 0xc(a6), d0
│     ┌───< 0x006827de      6610           bne.b 0x6827f0
│     ││╎   0x006827e0      202b0016       move.l 0x16(a3), d0
│     ││╎   0x006827e4      b0ae0008       cmp.l 0x8(a6), d0
│    ┌────< 0x006827e8      6606           bne.b 0x6827f0
│    │││╎   0x006827ea      7e00           moveq 0x0, d7
│    │││╎   0x006827ec      3641           movea.w d1, a3
│   ┌─────< 0x006827ee      6004           bra.b 0x6827f4
│   │└└───> 0x006827f0      266b001a       movea.l 0x1a(a3), a3
│   └───└─< 0x006827f4      60dc           bra.b 0x6827d2
│      └──> 0x006827f6      4a07           tst.b d7
│       ┌─< 0x006827f8      6720           beq.b 0x68281a
│       │   0x006827fa      4852           pea.l (a2)
│       │   0x006827fc      4878001e       pea.l 0x1e
│       │   0x00682800      4ebaeb80       jsr FONTLET.local_new(pc)
│       │   0x00682804      504f           addq.w 0x8, a7
│       │   0x00682806      2052           movea.l (a2), a0
│       │   0x00682808      216e000c0012   move.l 0xc(a6), 0x12(a0)
│       │   0x0068280e      216e00080016   move.l 0x8(a6), 0x16(a0)
│       │   0x00682814      2151001a       move.l (a1), 0x1a(a0)
│       │   0x00682818      2292           move.l (a2), (a1)
│       └─> 0x0068281a      4cdf0f83       movem.l (a7)+, d0-d1/d7/a0-a3
│           0x0068281e      4e5e           unlk a6
└           0x00682820      4e75           rts
            0x00682822      4e56ffd8       link.w a6, 0xffd8
            0x00682826      bfd5           cmpa.l (a5), a7
        ┌─< 0x00682828      6206           bhi.b 0x682830
        │   0x0068282a      44fc0002       move.w 0x2, ccr
        │   0x0068282e      4e76           trapv
        └─> 0x00682830      defc0028       adda.w 0x28, a7
            0x00682834      48e7c0c0       movem.l d0-d1/a0-a1, -(a7)
            0x00682838      7001           moveq 0x1, d0
            0x0068283a      720c           moveq 0xc, d1
            0x0068283c      206e000c       movea.l 0xc(a6), a0
            0x00682840      b0c0           cmpa.w d0, a0
        ┌─< 0x00682842      6618           bne.b 0x68285c
        │   0x00682844      487ae777       pea.l 0x680fbd(pc)
        │   0x00682848      4878000d       pea.l 0xd
        │   0x0068284c      2f17           move.l (a7), -(a7)
        │   0x0068284e      4eb9004047ea   jsr p_wts_o
        │   0x00682854      dec1           adda.w d1, a7
        │   0x00682856      4eb900404946   jsr p_wtln_o
        └─> 0x0068285c      226e0008       movea.l 0x8(a6), a1
            0x00682860      b2c0           cmpa.w d0, a1
        ┌─< 0x00682862      6618           bne.b 0x68287c
        │   0x00682864      487ae765       pea.l 0x680fcb(pc)
        │   0x00682868      4878000e       pea.l 0xe
        │   0x0068286c      2f17           move.l (a7), -(a7)
        │   0x0068286e      4eb9004047ea   jsr p_wts_o
        │   0x00682874      dec1           adda.w d1, a7
        │   0x00682876      4eb900404946   jsr p_wtln_o
        └─> 0x0068287c      216900080008   move.l 0x8(a1), 0x8(a0)
            0x00682882      23480008       move.l a0, 0x8(a1)
            0x00682886      4cdf0303       movem.l (a7)+, d0-d1/a0-a1
            0x0068288a      4e5e           unlk a6
            0x0068288c      4e75           rts
            ; CALL XREF from FONTLET.fillendpoints @ 0x682a06
┌ 24: fcn.0068288e ();
│           0x0068288e      4e56ff70       link.w a6, 0xff70
│           0x00682892      bfd5           cmpa.l (a5), a7
│       ┌─< 0x00682894      6206           bhi.b 0x68289c
│       │   0x00682896      44fc0002       move.w 0x2, ccr
│       │   0x0068289a      4e76           trapv
│       └─> 0x0068289c      defc0086       adda.w 0x86, a7
│           0x006828a0      48e7f1f8       movem.l d0-d3/d7/a0-a4, -(a7)
│           0x006828a4      f227e001       fmovem fp0, -(a7)
            0x006828a8      7201           moveq 0x1, d1
            0x006828aa      7404           moveq 0x4, d2
            0x006828ac      7606           moveq 0x6, d3
            0x006828ae      7e00           moveq 0x0, d7
            0x006828b0      206e000c       movea.l 0xc(a6), a0
            0x006828b4      2250           movea.l (a0), a1
            0x006828b6      b2c1           cmpa.w d1, a1
        ┌─< 0x006828b8      660a           bne.b 0x6828c4
       ┌──> 0x006828ba      20ae0008       move.l 0x8(a6), (a0)
       ╎│   0x006828be      7e01           moveq 0x1, d7
      ┌───< 0x006828c0      600000e4       bra.w 0x6829a6
      │╎└─> 0x006828c4      246e0008       movea.l 0x8(a6), a2
      │╎    0x006828c8      f2124400       fmove.s (a2), fp0
      │╎    0x006828cc      f2114438       fcmp.s (a1), fp0
      │╎    0x006828d0      f29b0008       fbf.w 0x6828da
      │╎    0x006828d4      25490008       move.l a1, 0x8(a2)
      │└──< 0x006828d8      60e0           bra.b 0x6828ba
      │     0x006828da      2849           movea.l a1, a4
      │     0x006828dc      f2114400       fmove.s (a1), fp0
      │     0x006828e0      f2124438       fcmp.s (a2), fp0
      │     0x006828e4      f296002e       fbf.w 0x682914
      │     0x006828e8      4a07           tst.b d7
      │ ┌─< 0x006828ea      6628           bne.b 0x682914
      │ │   0x006828ec      302a0006       move.w 0x6(a2), d0
      │ │   0x006828f0      b041           cmp.w d1, d0
      │┌──< 0x006828f2      6708           beq.b 0x6828fc
      │││   0x006828f4      b042           cmp.w d2, d0
     ┌────< 0x006828f6      6704           beq.b 0x6828fc
     ││││   0x006828f8      b043           cmp.w d3, d0
    ┌─────< 0x006828fa      660e           bne.b 0x68290a
    │└─└──> 0x006828fc      2f2e0008       move.l 0x8(a6), -(a7)
    │ │ │   0x00682900      2f09           move.l a1, -(a7)
    │ │ │   0x00682902      4ebaff1e       jsr 0x682822(pc)
    │ │ │   0x00682906      504f           addq.w 0x8, a7
    │ │┌──< 0x00682908      6008           bra.b 0x682912
    └─────> 0x0068290a      25490008       move.l a1, 0x8(a2)
      │││   0x0068290e      20ae0008       move.l 0x8(a6), (a0)
      │└──> 0x00682912      7e01           moveq 0x1, d7
      │ └─> 0x00682914      4a07           tst.b d7
      │ ┌─< 0x00682916      6600008e       bne.w 0x6829a6
      │ │   0x0068291a      2f08           move.l a0, -(a7)
      │┌──> 0x0068291c      2057           movea.l (a7), a0
      │╎│   0x0068291e      266c0008       movea.l 0x8(a4), a3
      │╎│   0x00682922      b6c1           cmpa.w d1, a3
     ┌────< 0x00682924      6612           bne.b 0x682938
     ││╎│   0x00682926      4a07           tst.b d7
    ┌─────< 0x00682928      660e           bne.b 0x682938
    │││╎│   0x0068292a      2f2e0008       move.l 0x8(a6), -(a7)
    │││╎│   0x0068292e      2f0c           move.l a4, -(a7)
    │││╎│   0x00682930      4ebafef0       jsr 0x682822(pc)
    │││╎│   0x00682934      504f           addq.w 0x8, a7
    │││╎│   0x00682936      7e01           moveq 0x1, d7
    └└────> 0x00682938      266e0008       movea.l 0x8(a6), a3
      │╎│   0x0068293c      206c0008       movea.l 0x8(a4), a0
      │╎│   0x00682940      f2134400       fmove.s (a3), fp0
      │╎│   0x00682944      f2104438       fcmp.s (a0), fp0
      │╎│   0x00682948      f296002e       fbf.w 0x682978
      │╎│   0x0068294c      4a07           tst.b d7
     ┌────< 0x0068294e      6628           bne.b 0x682978
     ││╎│   0x00682950      302b0006       move.w 0x6(a3), d0
     ││╎│   0x00682954      b041           cmp.w d1, d0
    ┌─────< 0x00682956      6708           beq.b 0x682960
    │││╎│   0x00682958      b042           cmp.w d2, d0
   ┌──────< 0x0068295a      6704           beq.b 0x682960
   ││││╎│   0x0068295c      b043           cmp.w d3, d0
  ┌───────< 0x0068295e      660a           bne.b 0x68296a
  │└└─────> 0x00682960      2f2e0008       move.l 0x8(a6), -(a7)
  │  ││╎│   0x00682964      2f2c0008       move.l 0x8(a4), -(a7)
  │ ┌─────< 0x00682968      6006           bra.b 0x682970
  └───────> 0x0068296a      2f2e0008       move.l 0x8(a6), -(a7)
    │││╎│   0x0068296e      2f0c           move.l a4, -(a7)
    └─────> 0x00682970      4ebafeb0       jsr 0x682822(pc)
     ││╎│   0x00682974      504f           addq.w 0x8, a7
     ││╎│   0x00682976      7e01           moveq 0x1, d7
     └────> 0x00682978      206c0008       movea.l 0x8(a4), a0
      │╎│   0x0068297c      f2134400       fmove.s (a3), fp0
      │╎│   0x00682980      f2104438       fcmp.s (a0), fp0
      │╎│   0x00682984      f29b0014       fbf.w 0x68299a
      │╎│   0x00682988      4a07           tst.b d7
     ┌────< 0x0068298a      660e           bne.b 0x68299a
     ││╎│   0x0068298c      2f2e0008       move.l 0x8(a6), -(a7)
     ││╎│   0x00682990      2f0c           move.l a4, -(a7)
     ││╎│   0x00682992      4ebafe8e       jsr 0x682822(pc)
     ││╎│   0x00682996      504f           addq.w 0x8, a7
     ││╎│   0x00682998      7e01           moveq 0x1, d7
     └────> 0x0068299a      286c0008       movea.l 0x8(a4), a4
      │╎│   0x0068299e      4a07           tst.b d7
      │└──< 0x006829a0      6700ff7a       beq.w 0x68291c
      │ │   0x006829a4      584f           addq.w 0x4, a7
      └─└─> 0x006829a6      f21fd080       fmovem (a7)+, fp0
            0x006829aa      4cdf1f8f       movem.l (a7)+, d0-d3/d7/a0-a4
            0x006829ae      4e5e           unlk a6
            0x006829b0      4e75           rts
┌ 98: FONTLET.fillendpoints ();
│           0x006829b2      4e56ffe4       link.w a6, 0xffe4
│           0x006829b6      bfd5           cmpa.l (a5), a7
│       ┌─< 0x006829b8      6206           bhi.b 0x6829c0
│       │   0x006829ba      44fc0002       move.w 0x2, ccr
│       │   0x006829be      4e76           trapv
│       └─> 0x006829c0      defc0018       adda.w 0x18, a7
│           0x006829c4      48e780c0       movem.l d0/a0-a1, -(a7)
│           0x006829c8      43eefffc       lea.l -0x4(a6), a1
│           0x006829cc      4851           pea.l (a1)
│           0x006829ce      4878000c       pea.l 0xc
│           0x006829d2      4ebae9ae       jsr FONTLET.local_new(pc)
│           0x006829d6      504f           addq.w 0x8, a7
│           0x006829d8      2051           movea.l (a1), a0
│           0x006829da      20ae000e       move.l 0xe(a6), (a0)
│           0x006829de      116e00080004   move.b 0x8(a6), 0x4(a0)
│           0x006829e4      316e000a0006   move.w 0xa(a6), 0x6(a0)
│           0x006829ea      217c00000001.  move.l 0x1, 0x8(a0)
│           0x006829f2      4a6e000c       tst.w 0xc(a6)
│       ┌─< 0x006829f6      6f14           ble.b 0x682a0c
│       │   0x006829f8      206c011a       movea.l 0x11a(a4), a0
│       │   0x006829fc      302e000c       move.w 0xc(a6), d0
│       │   0x00682a00      4870040c       pea.l 0xc(a0, d0.w)
│       │   0x00682a04      2f11           move.l (a1), -(a7)
│       │   0x00682a06      4ebafe86       jsr fcn.0068288e(pc)
│       │   0x00682a0a      504f           addq.w 0x8, a7
│       └─> 0x00682a0c      4cdf0301       movem.l (a7)+, d0/a0-a1
│           0x00682a10      4e5e           unlk a6
└           0x00682a12      4e75           rts
┌ 24: FONTLET.horizontal_line ();
│           0x00682a14      4e56ff54       link.w a6, 0xff54
│           0x00682a18      bfd5           cmpa.l (a5), a7
│       ┌─< 0x00682a1a      6206           bhi.b 0x682a22
│       │   0x00682a1c      44fc0002       move.w 0x2, ccr
│       │   0x00682a20      4e76           trapv
│       └─> 0x00682a22      defc009a       adda.w 0x9a, a7
│           0x00682a26      48e7fff0       movem.l d0-d7/a0-a3, -(a7)
│           0x00682a2a      f227e081       fmovem fp0/fp7, -(a7)
            0x00682a2e      41ee0008       lea.l 0x8(a6), a0
            0x00682a32      43ee0010       lea.l 0x10(a6), a1
            0x00682a36      45f9004081f8   lea.l p_trunc, a2
            0x00682a3c      47ee000c       lea.l 0xc(a6), a3
            0x00682a40      7800           moveq 0x0, d4
            0x00682a42      4a2c00de       tst.b 0xde(a4)
        ┌─< 0x00682a46      671c           beq.b 0x682a64
        │   0x00682a48      f22c440000ca   fmove.s 0xca(a4), fp0
        │   0x00682a4e      f2114428       fsub.s (a1), fp0
        │   0x00682a52      f2116400       fmove.s fp0, (a1)
        │   0x00682a56      f22c440000ca   fmove.s 0xca(a4), fp0
        │   0x00682a5c      f2134428       fsub.s (a3), fp0
        │   0x00682a60      f2136400       fmove.s fp0, (a3)
        └─> 0x00682a64      4a2c00dc       tst.b 0xdc(a4)
        ┌─< 0x00682a68      6618           bne.b 0x682a82
        │   0x00682a6a      202c0028       move.l 0x28(a4), d0
        │   0x00682a6e      4c3c08000000.  muls.l 0x2, d0
        │   0x00682a76      f2004000       fmove.l d0, fp0
        │   0x00682a7a      f2104428       fsub.s (a0), fp0
        │   0x00682a7e      f2106400       fmove.s fp0, (a0)
        └─> 0x00682a82      594f           subq.w 0x4, a7
            0x00682a84      2f13           move.l (a3), -(a7)
            0x00682a86      4e92           jsr (a2)                    ; fcn.00000009+0x2
            0x00682a88      2f11           move.l (a1), -(a7)
            0x00682a8a      4e92           jsr (a2)                    ; fcn.00000009+0x2
            0x00682a8c      584f           addq.w 0x4, a7
            0x00682a8e      202f0004       move.l 0x4(a7), d0
            0x00682a92      b09f           cmp.l (a7)+, d0
        ┌─< 0x00682a94      6600011c       bne.w 0x682bb2
        │   0x00682a98      f2114400       fmove.s (a1), fp0
        │   0x00682a9c      f2134438       fcmp.s (a3), fp0
        │   0x00682aa0      f29d0084       fbf.w 0x682b26
        │   0x00682aa4      594f           subq.w 0x4, a7
        │   0x00682aa6      2f11           move.l (a1), -(a7)
        │   0x00682aa8      4e92           jsr (a2)                    ; fcn.00000009+0x2
        │   0x00682aaa      584f           addq.w 0x4, a7
        │   0x00682aac      3d6f0002fff2   move.w 0x2(a7), -0xe(a6)
        │   0x00682ab2      2f10           move.l (a0), -(a7)
        │   0x00682ab4      4e92           jsr (a2)                    ; fcn.00000009+0x2
        │   0x00682ab6      584f           addq.w 0x4, a7
        │   0x00682ab8      201f           move.l (a7)+, d0
        │   0x00682aba      5280           addq.l 0x1, d0
        │   0x00682abc      3e00           move.w d0, d7
        │   0x00682abe      594f           subq.w 0x4, a7
        │   0x00682ac0      2f13           move.l (a3), -(a7)
        │   0x00682ac2      4e92           jsr (a2)                    ; fcn.00000009+0x2
        │   0x00682ac4      584f           addq.w 0x4, a7
        │   0x00682ac6      f21f4000       fmove.l (a7)+, fp0
        │   0x00682aca      f2134438       fcmp.s (a3), fp0
        │   0x00682ace      f2990016       fbf.w 0x682ae6
        │   0x00682ad2      594f           subq.w 0x4, a7
        │   0x00682ad4      2f11           move.l (a1), -(a7)
        │   0x00682ad6      4e92           jsr (a2)                    ; fcn.00000009+0x2
        │   0x00682ad8      584f           addq.w 0x4, a7
        │   0x00682ada      f21f4000       fmove.l (a7)+, fp0
        │   0x00682ade      f2114438       fcmp.s (a1), fp0
        │   0x00682ae2      f2960014       fbf.w 0x682af8
        │   0x00682ae6      302efff2       move.w -0xe(a6), d0
        │   0x00682aea      48c0           ext.l d0
        │   0x00682aec      2f00           move.l d0, -(a7)
        │   0x00682aee      48c7           ext.l d7
        │   0x00682af0      2f07           move.l d7, -(a7)
        │   0x00682af2      4ebafcba       jsr FONTLET.end_of_line(pc)
        │   0x00682af6      504f           addq.w 0x8, a7
        │   0x00682af8      3f2efff2       move.w -0xe(a6), -(a7)
        │   0x00682afc      3f07           move.w d7, -(a7)
        │   0x00682afe      2f11           move.l (a1), -(a7)
        │   0x00682b00      2f10           move.l (a0), -(a7)
        │   0x00682b02      2f13           move.l (a3), -(a7)
        │   0x00682b04      2f10           move.l (a0), -(a7)
        │   0x00682b06      f2044000       fmove.l d4, fp0
        │   0x00682b0a      f2276400       fmove.s fp0, -(a7)
        │   0x00682b0e      f2044000       fmove.l d4, fp0
        │   0x00682b12      f2276400       fmove.s fp0, -(a7)
        │   0x00682b16      3f3c0007       move.w 0x7, -(a7)
       ┌──> 0x00682b1a      4ebafbb4       jsr FONTLET.oddpoints(pc)
       ╎│   0x00682b1e      defc0022       adda.w 0x22, a7
      ┌───< 0x00682b22      60000294       bra.w 0x682db8
      │╎│   0x00682b26      f2114400       fmove.s (a1), fp0
      │╎│   0x00682b2a      f2134438       fcmp.s (a3), fp0
      │╎│   0x00682b2e      f2960008       fbf.w 0x682b38
      │╎│   0x00682b32      584f           addq.w 0x4, a7
     ┌────< 0x00682b34      60000282       bra.w 0x682db8
     ││╎│   0x00682b38      594f           subq.w 0x4, a7
     ││╎│   0x00682b3a      2f11           move.l (a1), -(a7)
     ││╎│   0x00682b3c      4e92           jsr (a2)                    ; fcn.00000009+0x2
     ││╎│   0x00682b3e      584f           addq.w 0x4, a7
     ││╎│   0x00682b40      3d6f0002fff2   move.w 0x2(a7), -0xe(a6)
     ││╎│   0x00682b46      2f10           move.l (a0), -(a7)
     ││╎│   0x00682b48      4e92           jsr (a2)                    ; fcn.00000009+0x2
     ││╎│   0x00682b4a      584f           addq.w 0x4, a7
     ││╎│   0x00682b4c      201f           move.l (a7)+, d0
     ││╎│   0x00682b4e      5280           addq.l 0x1, d0
     ││╎│   0x00682b50      3e00           move.w d0, d7
     ││╎│   0x00682b52      594f           subq.w 0x4, a7
     ││╎│   0x00682b54      2f13           move.l (a3), -(a7)
     ││╎│   0x00682b56      4e92           jsr (a2)                    ; fcn.00000009+0x2
     ││╎│   0x00682b58      584f           addq.w 0x4, a7
     ││╎│   0x00682b5a      f21f4000       fmove.l (a7)+, fp0
     ││╎│   0x00682b5e      f2134438       fcmp.s (a3), fp0
     ││╎│   0x00682b62      f2990016       fbf.w 0x682b7a
     ││╎│   0x00682b66      594f           subq.w 0x4, a7
     ││╎│   0x00682b68      2f11           move.l (a1), -(a7)
     ││╎│   0x00682b6a      4e92           jsr (a2)                    ; fcn.00000009+0x2
     ││╎│   0x00682b6c      584f           addq.w 0x4, a7
     ││╎│   0x00682b6e      f21f4000       fmove.l (a7)+, fp0
     ││╎│   0x00682b72      f2114438       fcmp.s (a1), fp0
     ││╎│   0x00682b76      f2960014       fbf.w 0x682b8c
     ││╎│   0x00682b7a      302efff2       move.w -0xe(a6), d0
     ││╎│   0x00682b7e      48c0           ext.l d0
     ││╎│   0x00682b80      2f00           move.l d0, -(a7)
     ││╎│   0x00682b82      48c7           ext.l d7
     ││╎│   0x00682b84      2f07           move.l d7, -(a7)
     ││╎│   0x00682b86      4ebafc26       jsr FONTLET.end_of_line(pc)
     ││╎│   0x00682b8a      504f           addq.w 0x8, a7
     ││╎│   0x00682b8c      3f2efff2       move.w -0xe(a6), -(a7)
     ││╎│   0x00682b90      3f07           move.w d7, -(a7)
     ││╎│   0x00682b92      2f11           move.l (a1), -(a7)
     ││╎│   0x00682b94      2f10           move.l (a0), -(a7)
     ││╎│   0x00682b96      2f13           move.l (a3), -(a7)
     ││╎│   0x00682b98      2f10           move.l (a0), -(a7)
     ││╎│   0x00682b9a      f2044000       fmove.l d4, fp0
     ││╎│   0x00682b9e      f2276400       fmove.s fp0, -(a7)
     ││╎│   0x00682ba2      f2044000       fmove.l d4, fp0
     ││╎│   0x00682ba6      f2276400       fmove.s fp0, -(a7)
     ││╎│   0x00682baa      3f3c0008       move.w 0x8, -(a7)
     ││└──< 0x00682bae      6000ff6a       bra.w 0x682b1a
     ││ └─> 0x00682bb2      f2114400       fmove.s (a1), fp0
     ││     0x00682bb6      f2134438       fcmp.s (a3), fp0
     ││     0x00682bba      f29d00fc       fbf.w 0x682cb8
     ││     0x00682bbe      7a07           moveq 0x7, d5
     ││     0x00682bc0      594f           subq.w 0x4, a7
     ││     0x00682bc2      2f10           move.l (a0), -(a7)
     ││     0x00682bc4      4e92           jsr (a2)                    ; fcn.00000009+0x2
     ││     0x00682bc6      584f           addq.w 0x4, a7
     ││     0x00682bc8      201f           move.l (a7)+, d0
     ││     0x00682bca      5280           addq.l 0x1, d0
     ││     0x00682bcc      3e00           move.w d0, d7
     ││     0x00682bce      48c7           ext.l d7
     ││     0x00682bd0      f2074380       fmove.l d7, fp7
     ││     0x00682bd4      f21047a8       fsub.s (a0), fp7
     ││     0x00682bd8      594f           subq.w 0x4, a7
     ││     0x00682bda      2f13           move.l (a3), -(a7)
     ││     0x00682bdc      4e92           jsr (a2)                    ; fcn.00000009+0x2
     ││     0x00682bde      584f           addq.w 0x4, a7
     ││     0x00682be0      201f           move.l (a7)+, d0
     ││     0x00682be2      5280           addq.l 0x1, d0
     ││     0x00682be4      3d40ffee       move.w d0, -0x12(a6)
     ││     0x00682be8      594f           subq.w 0x4, a7
     ││     0x00682bea      2f11           move.l (a1), -(a7)
     ││     0x00682bec      4e92           jsr (a2)                    ; fcn.00000009+0x2
     ││     0x00682bee      584f           addq.w 0x4, a7
     ││     0x00682bf0      221f           move.l (a7)+, d1
     ││     0x00682bf2      5381           subq.l 0x1, d1
     ││     0x00682bf4      3d41fff0       move.w d1, -0x10(a6)
     ││     0x00682bf8      48c0           ext.l d0
     ││     0x00682bfa      2400           move.l d0, d2
     ││     0x00682bfc      5382           subq.l 0x1, d2
     ││     0x00682bfe      2f02           move.l d2, -(a7)
     ││     0x00682c00      2f07           move.l d7, -(a7)
     ││     0x00682c02      4ebafbaa       jsr FONTLET.end_of_line(pc)
     ││     0x00682c06      504f           addq.w 0x8, a7
     ││     0x00682c08      48c1           ext.l d1
     ││     0x00682c0a      2601           move.l d1, d3
     ││     0x00682c0c      5283           addq.l 0x1, d3
     ││     0x00682c0e      2f03           move.l d3, -(a7)
     ││     0x00682c10      2f07           move.l d7, -(a7)
     ││     0x00682c12      4ebafb9a       jsr FONTLET.end_of_line(pc)
     ││     0x00682c16      5c4f           addq.w 0x6, a7
     ││     0x00682c18      3e83           move.w d3, (a7)
     ││     0x00682c1a      3f07           move.w d7, -(a7)
     ││     0x00682c1c      2f11           move.l (a1), -(a7)
     ││     0x00682c1e      2f10           move.l (a0), -(a7)
     ││     0x00682c20      f2034000       fmove.l d3, fp0
     ││     0x00682c24      f2276400       fmove.s fp0, -(a7)
     ││     0x00682c28      2f10           move.l (a0), -(a7)
     ││     0x00682c2a      f2044000       fmove.l d4, fp0
     ││     0x00682c2e      f2276400       fmove.s fp0, -(a7)
     ││     0x00682c32      f2044000       fmove.l d4, fp0
     ││     0x00682c36      f2276400       fmove.s fp0, -(a7)
     ││     0x00682c3a      3f3c0007       move.w 0x7, -(a7)
     ││     0x00682c3e      4ebafa90       jsr FONTLET.oddpoints(pc)
     ││     0x00682c42      defc001c       adda.w 0x1c, a7
     ││     0x00682c46      3e82           move.w d2, (a7)
     ││     0x00682c48      3f07           move.w d7, -(a7)
     ││     0x00682c4a      f2004000       fmove.l d0, fp0
     ││     0x00682c4e      f2276400       fmove.s fp0, -(a7)
     ││     0x00682c52      2f10           move.l (a0), -(a7)
     ││     0x00682c54      2f13           move.l (a3), -(a7)
     ││     0x00682c56      2f10           move.l (a0), -(a7)
     ││     0x00682c58      f2044000       fmove.l d4, fp0
     ││     0x00682c5c      f2276400       fmove.s fp0, -(a7)
     ││     0x00682c60      f2044000       fmove.l d4, fp0
     ││     0x00682c64      f2276400       fmove.s fp0, -(a7)
     ││     0x00682c68      3f3c0007       move.w 0x7, -(a7)
     ││     0x00682c6c      4ebafa62       jsr FONTLET.oddpoints(pc)
     ││     0x00682c70      defc001a       adda.w 0x1a, a7
     ││     0x00682c74      2e81           move.l d1, (a7)
     ││     0x00682c76      2c00           move.l d0, d6
     ││ ┌─> 0x00682c78      bc97           cmp.l (a7), d6
     ││┌──< 0x00682c7a      6e36           bgt.b 0x682cb2
     │││╎   0x00682c7c      3f06           move.w d6, -(a7)
     │││╎   0x00682c7e      3f07           move.w d7, -(a7)
     │││╎   0x00682c80      2006           move.l d6, d0
     │││╎   0x00682c82      5280           addq.l 0x1, d0
     │││╎   0x00682c84      f2004000       fmove.l d0, fp0
     │││╎   0x00682c88      f2276400       fmove.s fp0, -(a7)
     │││╎   0x00682c8c      2f10           move.l (a0), -(a7)
     │││╎   0x00682c8e      f2064000       fmove.l d6, fp0
     │││╎   0x00682c92      f2276400       fmove.s fp0, -(a7)
     │││╎   0x00682c96      2f10           move.l (a0), -(a7)
     │││╎   0x00682c98      f2044000       fmove.l d4, fp0
     │││╎   0x00682c9c      f2276400       fmove.s fp0, -(a7)
     │││╎   0x00682ca0      f2276780       fmove.s fp7, -(a7)
     │││╎   0x00682ca4      3f05           move.w d5, -(a7)
     │││╎   0x00682ca6      4ebafa28       jsr FONTLET.oddpoints(pc)
     │││╎   0x00682caa      defc001e       adda.w 0x1e, a7
     │││╎   0x00682cae      5286           addq.l 0x1, d6
     │││└─< 0x00682cb0      68c6           bvc.b 0x682c78
     ││└──> 0x00682cb2      504f           addq.w 0x8, a7
     ││ ┌─< 0x00682cb4      60000102       bra.w 0x682db8
     ││ │   0x00682cb8      7a08           moveq 0x8, d5
     ││ │   0x00682cba      594f           subq.w 0x4, a7
     ││ │   0x00682cbc      2f10           move.l (a0), -(a7)
     ││ │   0x00682cbe      4e92           jsr (a2)                    ; fcn.00000009+0x2
     ││ │   0x00682cc0      584f           addq.w 0x4, a7
     ││ │   0x00682cc2      f2104780       fmove.s (a0), fp7
     ││ │   0x00682cc6      f21f43a8       fsub.l (a7)+, fp7
     ││ │   0x00682cca      594f           subq.w 0x4, a7
     ││ │   0x00682ccc      2f10           move.l (a0), -(a7)
     ││ │   0x00682cce      4e92           jsr (a2)                    ; fcn.00000009+0x2
     ││ │   0x00682cd0      584f           addq.w 0x4, a7
     ││ │   0x00682cd2      201f           move.l (a7)+, d0
     ││ │   0x00682cd4      5280           addq.l 0x1, d0
     ││ │   0x00682cd6      3e00           move.w d0, d7
     ││ │   0x00682cd8      594f           subq.w 0x4, a7
     ││ │   0x00682cda      2f11           move.l (a1), -(a7)
     ││ │   0x00682cdc      4e92           jsr (a2)                    ; fcn.00000009+0x2
     ││ │   0x00682cde      584f           addq.w 0x4, a7
     ││ │   0x00682ce0      201f           move.l (a7)+, d0
     ││ │   0x00682ce2      5280           addq.l 0x1, d0
     ││ │   0x00682ce4      3d40ffee       move.w d0, -0x12(a6)
     ││ │   0x00682ce8      594f           subq.w 0x4, a7
     ││ │   0x00682cea      2f13           move.l (a3), -(a7)
     ││ │   0x00682cec      4e92           jsr (a2)                    ; fcn.00000009+0x2
     ││ │   0x00682cee      584f           addq.w 0x4, a7
     ││ │   0x00682cf0      221f           move.l (a7)+, d1
     ││ │   0x00682cf2      5381           subq.l 0x1, d1
     ││ │   0x00682cf4      3d41fff0       move.w d1, -0x10(a6)
     ││ │   0x00682cf8      48c0           ext.l d0
     ││ │   0x00682cfa      2400           move.l d0, d2
     ││ │   0x00682cfc      5382           subq.l 0x1, d2
     ││ │   0x00682cfe      3f02           move.w d2, -(a7)
     ││ │   0x00682d00      3f07           move.w d7, -(a7)
     ││ │   0x00682d02      2f11           move.l (a1), -(a7)
     ││ │   0x00682d04      2f10           move.l (a0), -(a7)
     ││ │   0x00682d06      f2004000       fmove.l d0, fp0
     ││ │   0x00682d0a      f2276400       fmove.s fp0, -(a7)
     ││ │   0x00682d0e      2f10           move.l (a0), -(a7)
     ││ │   0x00682d10      f2044000       fmove.l d4, fp0
     ││ │   0x00682d14      f2276400       fmove.s fp0, -(a7)
     ││ │   0x00682d18      f2044000       fmove.l d4, fp0
     ││ │   0x00682d1c      f2276400       fmove.s fp0, -(a7)
     ││ │   0x00682d20      3f3c0008       move.w 0x8, -(a7)
     ││ │   0x00682d24      4ebaf9aa       jsr FONTLET.oddpoints(pc)
     ││ │   0x00682d28      defc001a       adda.w 0x1a, a7
     ││ │   0x00682d2c      2e82           move.l d2, (a7)
     ││ │   0x00682d2e      48c7           ext.l d7
     ││ │   0x00682d30      2f07           move.l d7, -(a7)
     ││ │   0x00682d32      4ebafa7a       jsr FONTLET.end_of_line(pc)
     ││ │   0x00682d36      504f           addq.w 0x8, a7
     ││ │   0x00682d38      48c1           ext.l d1
     ││ │   0x00682d3a      2401           move.l d1, d2
     ││ │   0x00682d3c      5282           addq.l 0x1, d2
     ││ │   0x00682d3e      2f02           move.l d2, -(a7)
     ││ │   0x00682d40      48c7           ext.l d7
     ││ │   0x00682d42      2f07           move.l d7, -(a7)
     ││ │   0x00682d44      4ebafa68       jsr FONTLET.end_of_line(pc)
     ││ │   0x00682d48      5c4f           addq.w 0x6, a7
     ││ │   0x00682d4a      3e82           move.w d2, (a7)
     ││ │   0x00682d4c      3f07           move.w d7, -(a7)
     ││ │   0x00682d4e      f2024000       fmove.l d2, fp0
     ││ │   0x00682d52      f2276400       fmove.s fp0, -(a7)
     ││ │   0x00682d56      2f10           move.l (a0), -(a7)
     ││ │   0x00682d58      2f13           move.l (a3), -(a7)
     ││ │   0x00682d5a      2f10           move.l (a0), -(a7)
     ││ │   0x00682d5c      f2044000       fmove.l d4, fp0
     ││ │   0x00682d60      f2276400       fmove.s fp0, -(a7)
     ││ │   0x00682d64      f2044000       fmove.l d4, fp0
     ││ │   0x00682d68      f2276400       fmove.s fp0, -(a7)
     ││ │   0x00682d6c      3f3c0008       move.w 0x8, -(a7)
     ││ │   0x00682d70      4ebaf95e       jsr FONTLET.oddpoints(pc)
     ││ │   0x00682d74      defc001a       adda.w 0x1a, a7
     ││ │   0x00682d78      2e81           move.l d1, (a7)
     ││ │   0x00682d7a      2c00           move.l d0, d6
     ││┌──> 0x00682d7c      bc97           cmp.l (a7), d6
    ┌─────< 0x00682d7e      6e36           bgt.b 0x682db6
    │││╎│   0x00682d80      3f06           move.w d6, -(a7)
    │││╎│   0x00682d82      3f07           move.w d7, -(a7)
    │││╎│   0x00682d84      f2064000       fmove.l d6, fp0
    │││╎│   0x00682d88      f2276400       fmove.s fp0, -(a7)
    │││╎│   0x00682d8c      2f10           move.l (a0), -(a7)
    │││╎│   0x00682d8e      2006           move.l d6, d0
    │││╎│   0x00682d90      5280           addq.l 0x1, d0
    │││╎│   0x00682d92      f2004000       fmove.l d0, fp0
    │││╎│   0x00682d96      f2276400       fmove.s fp0, -(a7)
    │││╎│   0x00682d9a      2f10           move.l (a0), -(a7)
    │││╎│   0x00682d9c      f2044000       fmove.l d4, fp0
    │││╎│   0x00682da0      f2276400       fmove.s fp0, -(a7)
    │││╎│   0x00682da4      f2276780       fmove.s fp7, -(a7)
    │││╎│   0x00682da8      3f05           move.w d5, -(a7)
    │││╎│   0x00682daa      4ebaf924       jsr FONTLET.oddpoints(pc)
    │││╎│   0x00682dae      defc001e       adda.w 0x1e, a7
    │││╎│   0x00682db2      5286           addq.l 0x1, d6
    │││└──< 0x00682db4      68c6           bvc.b 0x682d7c
    └─────> 0x00682db6      504f           addq.w 0x8, a7
     └└─└─> 0x00682db8      f21fd081       fmovem (a7)+, fp0/fp7
            0x00682dbc      4cdf0fff       movem.l (a7)+, d0-d7/a0-a3
            0x00682dc0      4e5e           unlk a6
            0x00682dc2      4e75           rts
┌ 24: FONTLET.non_crossers ();
│           0x00682dc4      4e56ffb6       link.w a6, 0xffb6
│           0x00682dc8      bfd5           cmpa.l (a5), a7
│       ┌─< 0x00682dca      6206           bhi.b 0x682dd2
│       │   0x00682dcc      44fc0002       move.w 0x2, ccr
│       │   0x00682dd0      4e76           trapv
│       └─> 0x00682dd2      defc004a       adda.w 0x4a, a7
│           0x00682dd6      48e780f8       movem.l d0/a0-a4, -(a7)
│           0x00682dda      f227e001       fmovem fp0, -(a7)
            0x00682dde      41ee0014       lea.l 0x14(a6), a0
            0x00682de2      43ee000c       lea.l 0xc(a6), a1
            0x00682de6      45f9004081f8   lea.l p_trunc, a2
            0x00682dec      47ec000c       lea.l 0xc(a4), a3
            0x00682df0      594f           subq.w 0x4, a7
            0x00682df2      2f2e0018       move.l 0x18(a6), -(a7)
            0x00682df6      4e92           jsr (a2)                    ; fcn.00000009+0x2
            0x00682df8      584f           addq.w 0x4, a7
            0x00682dfa      201f           move.l (a7)+, d0
            0x00682dfc      29400010       move.l d0, 0x10(a4)
            0x00682e00      f2104400       fmove.s (a0), fp0
            0x00682e04      f2114438       fcmp.s (a1), fp0
            0x00682e08      f29d0046       fbf.w 0x682e50
            0x00682e0c      594f           subq.w 0x4, a7
            0x00682e0e      2f11           move.l (a1), -(a7)
            0x00682e10      4e92           jsr (a2)                    ; fcn.00000009+0x2
            0x00682e12      584f           addq.w 0x4, a7
            0x00682e14      269f           move.l (a7)+, (a3)
            0x00682e16      5293           addq.l 0x1, (a3)
            0x00682e18      594f           subq.w 0x4, a7
            0x00682e1a      2f11           move.l (a1), -(a7)
            0x00682e1c      4e92           jsr (a2)                    ; fcn.00000009+0x2
            0x00682e1e      584f           addq.w 0x4, a7
            0x00682e20      f2114400       fmove.s (a1), fp0
            0x00682e24      f21f4038       fcmp.l (a7)+, fp0
            0x00682e28      f2990016       fbf.w 0x682e40
            0x00682e2c      594f           subq.w 0x4, a7
            0x00682e2e      2f10           move.l (a0), -(a7)
            0x00682e30      4e92           jsr (a2)                    ; fcn.00000009+0x2
            0x00682e32      584f           addq.w 0x4, a7
            0x00682e34      f2104400       fmove.s (a0), fp0
            0x00682e38      f21f4038       fcmp.l (a7)+, fp0
            0x00682e3c      f2960010       fbf.w 0x682e4e
            0x00682e40      2f00           move.l d0, -(a7)
            0x00682e42      2f13           move.l (a3), -(a7)
            0x00682e44      4ebaf966       jsr 0x6827ac(pc)
            0x00682e48      504f           addq.w 0x8, a7
            0x00682e4a      286efffc       movea.l -0x4(a6), a4
        ┌─< 0x00682e4e      604e           bra.b 0x682e9e
        │   0x00682e50      f2104400       fmove.s (a0), fp0
        │   0x00682e54      f2114438       fcmp.s (a1), fp0
        │   0x00682e58      f2990076       fbf.w 0x682ed0
        │   0x00682e5c      594f           subq.w 0x4, a7
        │   0x00682e5e      2f10           move.l (a0), -(a7)
        │   0x00682e60      4e92           jsr (a2)                    ; fcn.00000009+0x2
        │   0x00682e62      584f           addq.w 0x4, a7
        │   0x00682e64      269f           move.l (a7)+, (a3)
        │   0x00682e66      5293           addq.l 0x1, (a3)
        │   0x00682e68      594f           subq.w 0x4, a7
        │   0x00682e6a      2f10           move.l (a0), -(a7)
        │   0x00682e6c      4e92           jsr (a2)                    ; fcn.00000009+0x2
        │   0x00682e6e      584f           addq.w 0x4, a7
        │   0x00682e70      f2104400       fmove.s (a0), fp0
        │   0x00682e74      f21f4038       fcmp.l (a7)+, fp0
        │   0x00682e78      f2990016       fbf.w 0x682e90
        │   0x00682e7c      594f           subq.w 0x4, a7
        │   0x00682e7e      2f11           move.l (a1), -(a7)
        │   0x00682e80      4e92           jsr (a2)                    ; fcn.00000009+0x2
        │   0x00682e82      584f           addq.w 0x4, a7
        │   0x00682e84      f2114400       fmove.s (a1), fp0
        │   0x00682e88      f21f4038       fcmp.l (a7)+, fp0
        │   0x00682e8c      f2960010       fbf.w 0x682e9e
        │   0x00682e90      2f00           move.l d0, -(a7)
        │   0x00682e92      2f13           move.l (a3), -(a7)
        │   0x00682e94      4ebaf916       jsr 0x6827ac(pc)
        │   0x00682e98      504f           addq.w 0x8, a7
        │   0x00682e9a      286efffc       movea.l -0x4(a6), a4
        └─> 0x00682e9e      3f00           move.w d0, -(a7)
            0x00682ea0      3f2c000e       move.w 0xe(a4), -(a7)
            0x00682ea4      2f2e0018       move.l 0x18(a6), -(a7)
            0x00682ea8      2f10           move.l (a0), -(a7)
            0x00682eaa      2f2e0018       move.l 0x18(a6), -(a7)
            0x00682eae      2f11           move.l (a1), -(a7)
            0x00682eb0      2f2c0018       move.l 0x18(a4), -(a7)
            0x00682eb4      f23c40000000.  fmove.l 0x0, fp0
            0x00682ebc      f2276400       fmove.s fp0, -(a7)
            0x00682ec0      3f2e000a       move.w 0xa(a6), -(a7)
            0x00682ec4      4ebaf808       jsr 0x6826ce(pc)
            0x00682ec8      defc001e       adda.w 0x1e, a7
            0x00682ecc      286efffc       movea.l -0x4(a6), a4
            0x00682ed0      f21fd080       fmovem (a7)+, fp0
            0x00682ed4      4cdf1f01       movem.l (a7)+, d0/a0-a4
            0x00682ed8      4e5e           unlk a6
            0x00682eda      4e75           rts
┌ 24: FONTLET.vertical ();
│           0x00682edc      4e56ff64       link.w a6, 0xff64
│           0x00682ee0      bfd5           cmpa.l (a5), a7
│       ┌─< 0x00682ee2      6206           bhi.b 0x682eea
│       │   0x00682ee4      44fc0002       move.w 0x2, ccr
│       │   0x00682ee8      4e76           trapv
│       └─> 0x00682eea      defc0082       adda.w 0x82, a7
│           0x00682eee      48e7f7f8       movem.l d0-d3/d5-d7/a0-a4, -(a7)
│           0x00682ef2      f227e081       fmovem fp0/fp7, -(a7)
            0x00682ef6      41ee0010       lea.l 0x10(a6), a0
            0x00682efa      43ee000c       lea.l 0xc(a6), a1
            0x00682efe      45ee0008       lea.l 0x8(a6), a2
            0x00682f02      47f9004081f8   lea.l p_trunc, a3
            0x00682f08      741e           moveq 0x1e, d2
            0x00682f0a      7600           moveq 0x0, d3
            0x00682f0c      f2114400       fmove.s (a1), fp0
            0x00682f10      f2124438       fcmp.s (a2), fp0
            0x00682f14      f29d0144       fbf.w 0x68305a
            0x00682f18      7e05           moveq 0x5, d7
            0x00682f1a      f23c40008000.  fmove.l 0x80000001, fp0
            0x00682f22      f22e6400fffa   fmove.s fp0, -0x6(a6)
            0x00682f28      594f           subq.w 0x4, a7
            0x00682f2a      2f12           move.l (a2), -(a7)
            0x00682f2c      4e93           jsr (a3)                    ; fcn.0000000c
            0x00682f2e      584f           addq.w 0x4, a7
            0x00682f30      201f           move.l (a7)+, d0
            0x00682f32      5280           addq.l 0x1, d0
            0x00682f34      f2004000       fmove.l d0, fp0
            0x00682f38      f2114438       fcmp.s (a1), fp0
            0x00682f3c      f29c0022       fbf.w 0x682f60
            0x00682f40      2f10           move.l (a0), -(a7)
            0x00682f42      2f11           move.l (a1), -(a7)
            0x00682f44      2f10           move.l (a0), -(a7)
            0x00682f46      2f12           move.l (a2), -(a7)
            0x00682f48      48780005       pea.l 0x5
        ┌─> 0x00682f4c      49eeffe2       lea.l -0x1e(a6), a4
        ╎   0x00682f50      4ebafe72       jsr FONTLET.non_crossers(pc)
        ╎   0x00682f54      defc0014       adda.w 0x14, a7
        ╎   0x00682f58      286effe2       movea.l -0x1e(a6), a4
       ┌──< 0x00682f5c      6000022c       bra.w 0x68318a
       │╎   0x00682f60      594f           subq.w 0x4, a7
       │╎   0x00682f62      2f12           move.l (a2), -(a7)
       │╎   0x00682f64      4e93           jsr (a3)                    ; fcn.0000000c
       │╎   0x00682f66      584f           addq.w 0x4, a7
       │╎   0x00682f68      2c1f           move.l (a7)+, d6
       │╎   0x00682f6a      5286           addq.l 0x1, d6
       │╎   0x00682f6c      594f           subq.w 0x4, a7
       │╎   0x00682f6e      2f11           move.l (a1), -(a7)
       │╎   0x00682f70      4e93           jsr (a3)                    ; fcn.0000000c
       │╎   0x00682f72      584f           addq.w 0x4, a7
       │╎   0x00682f74      f2114400       fmove.s (a1), fp0
       │╎   0x00682f78      f21f4038       fcmp.l (a7)+, fp0
       │╎   0x00682f7c      f2960010       fbf.w 0x682f8e
       │╎   0x00682f80      594f           subq.w 0x4, a7
       │╎   0x00682f82      2f11           move.l (a1), -(a7)
       │╎   0x00682f84      4e93           jsr (a3)                    ; fcn.0000000c
       │╎   0x00682f86      584f           addq.w 0x4, a7
       │╎   0x00682f88      2a1f           move.l (a7)+, d5
       │╎   0x00682f8a      5385           subq.l 0x1, d5
      ┌───< 0x00682f8c      600a           bra.b 0x682f98
      ││╎   0x00682f8e      594f           subq.w 0x4, a7
      ││╎   0x00682f90      2f11           move.l (a1), -(a7)
      ││╎   0x00682f92      4e93           jsr (a3)                    ; fcn.0000000c
      ││╎   0x00682f94      584f           addq.w 0x4, a7
      ││╎   0x00682f96      2a1f           move.l (a7)+, d5
      └───> 0x00682f98      594f           subq.w 0x4, a7
       │╎   0x00682f9a      2f10           move.l (a0), -(a7)
       │╎   0x00682f9c      4e93           jsr (a3)                    ; fcn.0000000c
       │╎   0x00682f9e      584f           addq.w 0x4, a7
       │╎   0x00682fa0      201f           move.l (a7)+, d0
       │╎   0x00682fa2      2d40fff2       move.l d0, -0xe(a6)
       │╎   0x00682fa6      f2104780       fmove.s (a0), fp7
       │╎   0x00682faa      f20043a8       fsub.l d0, fp7
       │╎   0x00682fae      2205           move.l d5, d1
       │╎   0x00682fb0      5281           addq.l 0x1, d1
       │╎   0x00682fb2      2f00           move.l d0, -(a7)
       │╎   0x00682fb4      2f01           move.l d1, -(a7)
       │╎   0x00682fb6      4ebaf7f6       jsr FONTLET.end_of_line(pc)
       │╎   0x00682fba      5c4f           addq.w 0x6, a7
       │╎   0x00682fbc      3e80           move.w d0, (a7)
       │╎   0x00682fbe      3f01           move.w d1, -(a7)
       │╎   0x00682fc0      2f10           move.l (a0), -(a7)
       │╎   0x00682fc2      2f11           move.l (a1), -(a7)
       │╎   0x00682fc4      2f10           move.l (a0), -(a7)
       │╎   0x00682fc6      f2054000       fmove.l d5, fp0
       │╎   0x00682fca      f2276400       fmove.s fp0, -(a7)
       │╎   0x00682fce      2f2efffa       move.l -0x6(a6), -(a7)
       │╎   0x00682fd2      f2034000       fmove.l d3, fp0
       │╎   0x00682fd6      f2276400       fmove.s fp0, -(a7)
       │╎   0x00682fda      3f07           move.w d7, -(a7)
       │╎   0x00682fdc      4ebaf6f2       jsr FONTLET.oddpoints(pc)
       │╎   0x00682fe0      defc001a       adda.w 0x1a, a7
       │╎   0x00682fe4      2e80           move.l d0, (a7)
       │╎   0x00682fe6      2f06           move.l d6, -(a7)
       │╎   0x00682fe8      4ebaf7c4       jsr FONTLET.end_of_line(pc)
       │╎   0x00682fec      5c4f           addq.w 0x6, a7
       │╎   0x00682fee      3e80           move.w d0, (a7)
       │╎   0x00682ff0      3f06           move.w d6, -(a7)
       │╎   0x00682ff2      2f10           move.l (a0), -(a7)
       │╎   0x00682ff4      f2064000       fmove.l d6, fp0
       │╎   0x00682ff8      f2276400       fmove.s fp0, -(a7)
       │╎   0x00682ffc      2f10           move.l (a0), -(a7)
       │╎   0x00682ffe      2f12           move.l (a2), -(a7)
       │╎   0x00683000      2f2efffa       move.l -0x6(a6), -(a7)
       │╎   0x00683004      f2034000       fmove.l d3, fp0
       │╎   0x00683008      f2276400       fmove.s fp0, -(a7)
       │╎   0x0068300c      3f07           move.w d7, -(a7)
       │╎   0x0068300e      4ebaf6c0       jsr FONTLET.oddpoints(pc)
       │╎   0x00683012      dec2           adda.w d2, a7
       │╎   0x00683014      2d46ffee       move.l d6, -0x12(a6)
       │╎   0x00683018      2006           move.l d6, d0
       │╎   0x0068301a      5280           addq.l 0x1, d0
      ┌───> 0x0068301c      b085           cmp.l d5, d0
     ┌────< 0x0068301e      6e36           bgt.b 0x683056
     │╎│╎   0x00683020      2d40ffee       move.l d0, -0x12(a6)
     │╎│╎   0x00683024      3f2efff4       move.w -0xc(a6), -(a7)
     │╎│╎   0x00683028      3f00           move.w d0, -(a7)
     │╎│╎   0x0068302a      2f10           move.l (a0), -(a7)
     │╎│╎   0x0068302c      f2004000       fmove.l d0, fp0
     │╎│╎   0x00683030      f2276400       fmove.s fp0, -(a7)
     │╎│╎   0x00683034      2f10           move.l (a0), -(a7)
     │╎│╎   0x00683036      2200           move.l d0, d1
     │╎│╎   0x00683038      5381           subq.l 0x1, d1
     │╎│╎   0x0068303a      f2014000       fmove.l d1, fp0
     │╎│╎   0x0068303e      f2276400       fmove.s fp0, -(a7)
     │╎│╎   0x00683042      2f2efffa       move.l -0x6(a6), -(a7)
     │╎│╎   0x00683046      f2276780       fmove.s fp7, -(a7)
     │╎│╎   0x0068304a      3f07           move.w d7, -(a7)
     │╎│╎   0x0068304c      4ebaf682       jsr FONTLET.oddpoints(pc)
     │╎│╎   0x00683050      dec2           adda.w d2, a7
     │╎│╎   0x00683052      5280           addq.l 0x1, d0
     │└───< 0x00683054      68c6           bvc.b 0x68301c
     └┌───< 0x00683056      60000132       bra.w 0x68318a
      ││╎   0x0068305a      7e06           moveq 0x6, d7
      ││╎   0x0068305c      f23c40007fff.  fmove.l 0x7fffffff, fp0
      ││╎   0x00683064      f22e6400fffa   fmove.s fp0, -0x6(a6)
      ││╎   0x0068306a      594f           subq.w 0x4, a7
      ││╎   0x0068306c      2f11           move.l (a1), -(a7)
      ││╎   0x0068306e      4e93           jsr (a3)                    ; fcn.0000000c
      ││╎   0x00683070      584f           addq.w 0x4, a7
      ││╎   0x00683072      201f           move.l (a7)+, d0
      ││╎   0x00683074      5280           addq.l 0x1, d0
      ││╎   0x00683076      f2004000       fmove.l d0, fp0
      ││╎   0x0068307a      f2124438       fcmp.s (a2), fp0
      ││╎   0x0068307e      f29c0012       fbf.w 0x683092
      ││╎   0x00683082      2f10           move.l (a0), -(a7)
      ││╎   0x00683084      2f11           move.l (a1), -(a7)
      ││╎   0x00683086      2f10           move.l (a0), -(a7)
      ││╎   0x00683088      2f12           move.l (a2), -(a7)
      ││╎   0x0068308a      48780006       pea.l 0x6
      ││└─< 0x0068308e      6000febc       bra.w 0x682f4c
      ││    0x00683092      594f           subq.w 0x4, a7
      ││    0x00683094      2f11           move.l (a1), -(a7)
      ││    0x00683096      4e93           jsr (a3)                    ; fcn.0000000c
      ││    0x00683098      584f           addq.w 0x4, a7
      ││    0x0068309a      2c1f           move.l (a7)+, d6
      ││    0x0068309c      5286           addq.l 0x1, d6
      ││    0x0068309e      594f           subq.w 0x4, a7
      ││    0x006830a0      2f12           move.l (a2), -(a7)
      ││    0x006830a2      4e93           jsr (a3)                    ; fcn.0000000c
      ││    0x006830a4      584f           addq.w 0x4, a7
      ││    0x006830a6      f2124400       fmove.s (a2), fp0
      ││    0x006830aa      f21f4038       fcmp.l (a7)+, fp0
      ││    0x006830ae      f2960010       fbf.w 0x6830c0
      ││    0x006830b2      594f           subq.w 0x4, a7
      ││    0x006830b4      2f12           move.l (a2), -(a7)
      ││    0x006830b6      4e93           jsr (a3)                    ; fcn.0000000c
      ││    0x006830b8      584f           addq.w 0x4, a7
      ││    0x006830ba      2a1f           move.l (a7)+, d5
      ││    0x006830bc      5385           subq.l 0x1, d5
      ││┌─< 0x006830be      600a           bra.b 0x6830ca
      │││   0x006830c0      594f           subq.w 0x4, a7
      │││   0x006830c2      2f12           move.l (a2), -(a7)
      │││   0x006830c4      4e93           jsr (a3)                    ; fcn.0000000c
      │││   0x006830c6      584f           addq.w 0x4, a7
      │││   0x006830c8      2a1f           move.l (a7)+, d5
      ││└─> 0x006830ca      594f           subq.w 0x4, a7
      ││    0x006830cc      2f10           move.l (a0), -(a7)
      ││    0x006830ce      4e93           jsr (a3)                    ; fcn.0000000c
      ││    0x006830d0      584f           addq.w 0x4, a7
      ││    0x006830d2      201f           move.l (a7)+, d0
      ││    0x006830d4      2d40fff2       move.l d0, -0xe(a6)
      ││    0x006830d8      2200           move.l d0, d1
      ││    0x006830da      5281           addq.l 0x1, d1
      ││    0x006830dc      f2014380       fmove.l d1, fp7
      ││    0x006830e0      f21047a8       fsub.s (a0), fp7
      ││    0x006830e4      2f00           move.l d0, -(a7)
      ││    0x006830e6      2f06           move.l d6, -(a7)
      ││    0x006830e8      4ebaf6c4       jsr FONTLET.end_of_line(pc)
      ││    0x006830ec      5c4f           addq.w 0x6, a7
      ││    0x006830ee      3e80           move.w d0, (a7)
      ││    0x006830f0      3f06           move.w d6, -(a7)
      ││    0x006830f2      2f10           move.l (a0), -(a7)
      ││    0x006830f4      2f11           move.l (a1), -(a7)
      ││    0x006830f6      2f10           move.l (a0), -(a7)
      ││    0x006830f8      f2064000       fmove.l d6, fp0
      ││    0x006830fc      f2276400       fmove.s fp0, -(a7)
      ││    0x00683100      2f2efffa       move.l -0x6(a6), -(a7)
      ││    0x00683104      f2034000       fmove.l d3, fp0
      ││    0x00683108      f2276400       fmove.s fp0, -(a7)
      ││    0x0068310c      3f07           move.w d7, -(a7)
      ││    0x0068310e      4ebaf5c0       jsr FONTLET.oddpoints(pc)
      ││    0x00683112      dec2           adda.w d2, a7
      ││    0x00683114      2205           move.l d5, d1
      ││    0x00683116      5281           addq.l 0x1, d1
      ││    0x00683118      2f00           move.l d0, -(a7)
      ││    0x0068311a      2f01           move.l d1, -(a7)
      ││    0x0068311c      4ebaf690       jsr FONTLET.end_of_line(pc)
      ││    0x00683120      5c4f           addq.w 0x6, a7
      ││    0x00683122      3e80           move.w d0, (a7)
      ││    0x00683124      3f01           move.w d1, -(a7)
      ││    0x00683126      2f10           move.l (a0), -(a7)
      ││    0x00683128      f2054000       fmove.l d5, fp0
      ││    0x0068312c      f2276400       fmove.s fp0, -(a7)
      ││    0x00683130      2f10           move.l (a0), -(a7)
      ││    0x00683132      2f12           move.l (a2), -(a7)
      ││    0x00683134      2f2efffa       move.l -0x6(a6), -(a7)
      ││    0x00683138      f2034000       fmove.l d3, fp0
      ││    0x0068313c      f2276400       fmove.s fp0, -(a7)
      ││    0x00683140      3f07           move.w d7, -(a7)
      ││    0x00683142      4ebaf58c       jsr FONTLET.oddpoints(pc)
      ││    0x00683146      dec2           adda.w d2, a7
      ││    0x00683148      2d46ffee       move.l d6, -0x12(a6)
      ││    0x0068314c      2006           move.l d6, d0
      ││    0x0068314e      5280           addq.l 0x1, d0
      ││┌─> 0x00683150      b085           cmp.l d5, d0
     ┌────< 0x00683152      6e36           bgt.b 0x68318a
     │││╎   0x00683154      2d40ffee       move.l d0, -0x12(a6)
     │││╎   0x00683158      3f2efff4       move.w -0xc(a6), -(a7)
     │││╎   0x0068315c      3f00           move.w d0, -(a7)
     │││╎   0x0068315e      2f10           move.l (a0), -(a7)
     │││╎   0x00683160      2200           move.l d0, d1
     │││╎   0x00683162      5381           subq.l 0x1, d1
     │││╎   0x00683164      f2014000       fmove.l d1, fp0
     │││╎   0x00683168      f2276400       fmove.s fp0, -(a7)
     │││╎   0x0068316c      2f10           move.l (a0), -(a7)
     │││╎   0x0068316e      f2004000       fmove.l d0, fp0
     │││╎   0x00683172      f2276400       fmove.s fp0, -(a7)
     │││╎   0x00683176      2f2efffa       move.l -0x6(a6), -(a7)
     │││╎   0x0068317a      f2276780       fmove.s fp7, -(a7)
     │││╎   0x0068317e      3f07           move.w d7, -(a7)
     │││╎   0x00683180      4ebaf54e       jsr FONTLET.oddpoints(pc)
     │││╎   0x00683184      dec2           adda.w d2, a7
     │││╎   0x00683186      5280           addq.l 0x1, d0
     │││└─< 0x00683188      68c6           bvc.b 0x683150
     └└└──> 0x0068318a      f21fd081       fmovem (a7)+, fp0/fp7
            0x0068318e      4cdf1fef       movem.l (a7)+, d0-d3/d5-d7/a0-a4
            0x00683192      4e5e           unlk a6
            0x00683194      4e75           rts
┌ 24: FONTLET.noncrossers1 ();
│           0x00683196      4e56ff6e       link.w a6, 0xff6e
│           0x0068319a      bfd5           cmpa.l (a5), a7
│       ┌─< 0x0068319c      6206           bhi.b 0x6831a4
│       │   0x0068319e      44fc0002       move.w 0x2, ccr
│       │   0x006831a2      4e76           trapv
│       └─> 0x006831a4      defc0086       adda.w 0x86, a7
│           0x006831a8      48e7f8f8       movem.l d0-d4/a0-a4, -(a7)
│           0x006831ac      f227e0e1       fmovem fp0/fp5-fp7, -(a7)
            0x006831b0      41eefff0       lea.l -0x10(a6), a0
            0x006831b4      43ec0048       lea.l 0x48(a4), a1
            0x006831b8      45ee000c       lea.l 0xc(a6), a2
            0x006831bc      47ec0038       lea.l 0x38(a4), a3
            0x006831c0      7401           moveq 0x1, d2
            0x006831c2      761e           moveq 0x1e, d3
            0x006831c4      7800           moveq 0x0, d4
            0x006831c6      594f           subq.w 0x4, a7
            0x006831c8      2f2c0040       move.l 0x40(a4), -(a7)
            0x006831cc      4eb9004081f8   jsr p_trunc
            0x006831d2      2f11           move.l (a1), -(a7)
            0x006831d4      4eb9004081f8   jsr p_trunc
            0x006831da      584f           addq.w 0x4, a7
            0x006831dc      202f0004       move.l 0x4(a7), d0
            0x006831e0      b09f           cmp.l (a7)+, d0
        ┌─< 0x006831e2      6600008c       bne.w 0x683270
        │   0x006831e6      594f           subq.w 0x4, a7
        │   0x006831e8      2f2c0040       move.l 0x40(a4), -(a7)
        │   0x006831ec      4eb9004081f8   jsr p_trunc
        │   0x006831f2      584f           addq.w 0x4, a7
        │   0x006831f4      f21f4000       fmove.l (a7)+, fp0
        │   0x006831f8      f22c44380040   fcmp.s 0x40(a4), fp0
        │   0x006831fe      f2960040       fbf.w 0x683240
        │   0x00683202      2f12           move.l (a2), -(a7)
        │   0x00683204      2f2e0008       move.l 0x8(a6), -(a7)
        │   0x00683208      4ebaf5a2       jsr 0x6827ac(pc)
        │   0x0068320c      504f           addq.w 0x8, a7
        │   0x0068320e      2850           movea.l (a0), a4
        │   0x00683210      3f2e000e       move.w 0xe(a6), -(a7)
        │   0x00683214      3f2e000a       move.w 0xa(a6), -(a7)
        │   0x00683218      2f11           move.l (a1), -(a7)
        │   0x0068321a      2f2c0044       move.l 0x44(a4), -(a7)
        │   0x0068321e      2f2c0040       move.l 0x40(a4), -(a7)
        │   0x00683222      2f2c003c       move.l 0x3c(a4), -(a7)
        │   0x00683226      2f13           move.l (a3), -(a7)
        │   0x00683228      f2044000       fmove.l d4, fp0
        │   0x0068322c      f2276400       fmove.s fp0, -(a7)
        │   0x00683230      3f02           move.w d2, -(a7)
        │   0x00683232      4ebaf49a       jsr 0x6826ce(pc)
        │   0x00683236      dec3           adda.w d3, a7
        │   0x00683238      2850           movea.l (a0), a4
        │   0x0068323a      584f           addq.w 0x4, a7
       ┌──< 0x0068323c      60000154       bra.w 0x683392
       ││   0x00683240      3f2e000e       move.w 0xe(a6), -(a7)
       ││   0x00683244      3f2e000a       move.w 0xa(a6), -(a7)
       ││   0x00683248      2f11           move.l (a1), -(a7)
       ││   0x0068324a      2f2c0044       move.l 0x44(a4), -(a7)
       ││   0x0068324e      2f2c0040       move.l 0x40(a4), -(a7)
       ││   0x00683252      2f2c003c       move.l 0x3c(a4), -(a7)
       ││   0x00683256      2f13           move.l (a3), -(a7)
       ││   0x00683258      f2044000       fmove.l d4, fp0
       ││   0x0068325c      f2276400       fmove.s fp0, -(a7)
       ││   0x00683260      3f02           move.w d2, -(a7)
       ││   0x00683262      4ebaf46a       jsr 0x6826ce(pc)
       ││   0x00683266      dec3           adda.w d3, a7
       ││   0x00683268      2850           movea.l (a0), a4
       ││   0x0068326a      584f           addq.w 0x4, a7
      ┌───< 0x0068326c      60000124       bra.w 0x683392
      ││└─> 0x00683270      f2114780       fmove.s (a1), fp7
      ││    0x00683274      f21243a8       fsub.l (a2), fp7
      ││    0x00683278      f21347a3       fmul.s (a3), fp7
      ││    0x0068327c      f2001f9a       fneg fp7
      ││    0x00683280      f22c47a20044   fadd.s 0x44(a4), fp7
      ││    0x00683286      2f12           move.l (a2), -(a7)
      ││    0x00683288      2f2e0008       move.l 0x8(a6), -(a7)
      ││    0x0068328c      4ebaf51e       jsr 0x6827ac(pc)
      ││    0x00683290      504f           addq.w 0x8, a7
      ││    0x00683292      2850           movea.l (a0), a4
      ││    0x00683294      3f2e000e       move.w 0xe(a6), -(a7)
      ││    0x00683298      3f2e000a       move.w 0xa(a6), -(a7)
      ││    0x0068329c      f2124000       fmove.l (a2), fp0
      ││    0x006832a0      f2276400       fmove.s fp0, -(a7)
      ││    0x006832a4      f2276780       fmove.s fp7, -(a7)
      ││    0x006832a8      2f2c0040       move.l 0x40(a4), -(a7)
      ││    0x006832ac      2f2c003c       move.l 0x3c(a4), -(a7)
      ││    0x006832b0      2f13           move.l (a3), -(a7)
      ││    0x006832b2      f2044000       fmove.l d4, fp0
      ││    0x006832b6      f2276400       fmove.s fp0, -(a7)
      ││    0x006832ba      3f02           move.w d2, -(a7)
      ││    0x006832bc      4ebaf410       jsr 0x6826ce(pc)
      ││    0x006832c0      dec3           adda.w d3, a7
      ││    0x006832c2      2850           movea.l (a0), a4
      ││    0x006832c4      5392           subq.l 0x1, (a2)
      ││    0x006832c6      f2001f00       fmove fp7, fp6
      ││┌─> 0x006832ca      594f           subq.w 0x4, a7
      ││╎   0x006832cc      2f11           move.l (a1), -(a7)
      ││╎   0x006832ce      4eb9004081f8   jsr p_trunc
      ││╎   0x006832d4      584f           addq.w 0x4, a7
      ││╎   0x006832d6      2012           move.l (a2), d0
      ││╎   0x006832d8      b097           cmp.l (a7), d0
     ┌────< 0x006832da      6f78           ble.b 0x683354
     │││╎   0x006832dc      f2114780       fmove.s (a1), fp7
     │││╎   0x006832e0      f20043a8       fsub.l d0, fp7
     │││╎   0x006832e4      f21347a3       fmul.s (a3), fp7
     │││╎   0x006832e8      f2001f9a       fneg fp7
     │││╎   0x006832ec      f22c47a20044   fadd.s 0x44(a4), fp7
     │││╎   0x006832f2      f2001e80       fmove fp7, fp5
     │││╎   0x006832f6      f2001aa8       fsub fp6, fp5
     │││╎   0x006832fa      f23c42a00000.  fdiv.l 0x2, fp5
     │││╎   0x00683302      f2001800       fmove fp6, fp0
     │││╎   0x00683306      f22e40280008   fsub.l 0x8(a6), fp0
     │││╎   0x0068330c      f2024022       fadd.l d2, fp0
     │││╎   0x00683310      f20002a2       fadd fp0, fp5
     │││╎   0x00683314      3f00           move.w d0, -(a7)
     │││╎   0x00683316      3f2e000a       move.w 0xa(a6), -(a7)
     │││╎   0x0068331a      f2004000       fmove.l d0, fp0
     │││╎   0x0068331e      f2276400       fmove.s fp0, -(a7)
     │││╎   0x00683322      f2276780       fmove.s fp7, -(a7)
     │││╎   0x00683326      2200           move.l d0, d1
     │││╎   0x00683328      5281           addq.l 0x1, d1
     │││╎   0x0068332a      f2014000       fmove.l d1, fp0
     │││╎   0x0068332e      f2276400       fmove.s fp0, -(a7)
     │││╎   0x00683332      f2276700       fmove.s fp6, -(a7)
     │││╎   0x00683336      2f13           move.l (a3), -(a7)
     │││╎   0x00683338      f2276680       fmove.s fp5, -(a7)
     │││╎   0x0068333c      3f02           move.w d2, -(a7)
     │││╎   0x0068333e      4ebaf38e       jsr 0x6826ce(pc)
     │││╎   0x00683342      dec3           adda.w d3, a7
     │││╎   0x00683344      2850           movea.l (a0), a4
     │││╎   0x00683346      f2001f00       fmove fp7, fp6
     │││╎   0x0068334a      5380           subq.l 0x1, d0
     │││╎   0x0068334c      2480           move.l d0, (a2)
     │││╎   0x0068334e      584f           addq.w 0x4, a7
     │││└─< 0x00683350      6000ff78       bra.w 0x6832ca
     └────> 0x00683354      2f00           move.l d0, -(a7)
      ││    0x00683356      2f2e0008       move.l 0x8(a6), -(a7)
      ││    0x0068335a      4ebaf450       jsr 0x6827ac(pc)
      ││    0x0068335e      504f           addq.w 0x8, a7
      ││    0x00683360      2850           movea.l (a0), a4
      ││    0x00683362      3f00           move.w d0, -(a7)
      ││    0x00683364      3f2e000a       move.w 0xa(a6), -(a7)
      ││    0x00683368      2f11           move.l (a1), -(a7)
      ││    0x0068336a      2f2c0044       move.l 0x44(a4), -(a7)
      ││    0x0068336e      5280           addq.l 0x1, d0
      ││    0x00683370      f2004000       fmove.l d0, fp0
      ││    0x00683374      f2276400       fmove.s fp0, -(a7)
      ││    0x00683378      f2276700       fmove.s fp6, -(a7)
      ││    0x0068337c      2f13           move.l (a3), -(a7)
      ││    0x0068337e      f2044000       fmove.l d4, fp0
      ││    0x00683382      f2276400       fmove.s fp0, -(a7)
      ││    0x00683386      3f02           move.w d2, -(a7)
      ││    0x00683388      4ebaf344       jsr 0x6826ce(pc)
      ││    0x0068338c      dec3           adda.w d3, a7
      ││    0x0068338e      2850           movea.l (a0), a4
      ││    0x00683390      504f           addq.w 0x8, a7
      └└──> 0x00683392      f21fd087       fmovem (a7)+, fp0/fp5-fp7
            0x00683396      4cdf1f1f       movem.l (a7)+, d0-d4/a0-a4
            0x0068339a      4e5e           unlk a6
            0x0068339c      4e75           rts
┌ 24: FONTLET.area1 ();
│           0x0068339e      4e56ff6e       link.w a6, 0xff6e
│           0x006833a2      bfd5           cmpa.l (a5), a7
│       ┌─< 0x006833a4      6206           bhi.b 0x6833ac
│       │   0x006833a6      44fc0002       move.w 0x2, ccr
│       │   0x006833aa      4e76           trapv
│       └─> 0x006833ac      defc0092       adda.w 0x92, a7
│           0x006833b0      48e7f8f8       movem.l d0-d4/a0-a4, -(a7)
│           0x006833b4      f227e007       fmovem fp0-fp2, -(a7)
            0x006833b8      41ec0004       lea.l 0x4(a4), a0
            0x006833bc      43ec0028       lea.l 0x28(a4), a1
            0x006833c0      45ec0018       lea.l 0x18(a4), a2
            0x006833c4      47ec0024       lea.l 0x24(a4), a3
            0x006833c8      7201           moveq 0x1, d1
            0x006833ca      7400           moveq 0x0, d2
            0x006833cc      761e           moveq 0x1e, d3
            0x006833ce      7802           moveq 0x2, d4
            0x006833d0      f2124400       fmove.s (a2), fp0
            0x006833d4      f2104038       fcmp.l (a0), fp0
            0x006833d8      f29c00fa       fbf.w 0x6834d4
            0x006833dc      f2134400       fmove.s (a3), fp0
            0x006833e0      f22c4438003c   fcmp.s 0x3c(a4), fp0
            0x006833e6      f296003e       fbf.w 0x683426
            0x006833ea      2f10           move.l (a0), -(a7)
            0x006833ec      2f2c0008       move.l 0x8(a4), -(a7)
            0x006833f0      4ebaf3ba       jsr 0x6827ac(pc)
            0x006833f4      504f           addq.w 0x8, a7
            0x006833f6      286efffc       movea.l -0x4(a6), a4
            0x006833fa      3f2c0006       move.w 0x6(a4), -(a7)
            0x006833fe      3f2c000a       move.w 0xa(a4), -(a7)
            0x00683402      2f12           move.l (a2), -(a7)
            0x00683404      2f11           move.l (a1), -(a7)
            0x00683406      2f2c0040       move.l 0x40(a4), -(a7)
            0x0068340a      2f2c003c       move.l 0x3c(a4), -(a7)
            0x0068340e      2f2c0038       move.l 0x38(a4), -(a7)
            0x00683412      f2024000       fmove.l d2, fp0
            0x00683416      f2276400       fmove.s fp0, -(a7)
            0x0068341a      3f01           move.w d1, -(a7)
            0x0068341c      4ebaf2b0       jsr 0x6826ce(pc)
            0x00683420      dec3           adda.w d3, a7
            0x00683422      286efffc       movea.l -0x4(a6), a4
            0x00683426      f2114400       fmove.s (a1), fp0
            0x0068342a      f22c44380044   fcmp.s 0x44(a4), fp0
            0x00683430      f2960040       fbf.w 0x683472
            0x00683434      2f10           move.l (a0), -(a7)
            0x00683436      2f2c0008       move.l 0x8(a4), -(a7)
            0x0068343a      4ebaf370       jsr 0x6827ac(pc)
            0x0068343e      504f           addq.w 0x8, a7
            0x00683440      286efffc       movea.l -0x4(a6), a4
            0x00683444      3f2c0006       move.w 0x6(a4), -(a7)
            0x00683448      3f2c000a       move.w 0xa(a4), -(a7)
            0x0068344c      2f2c0048       move.l 0x48(a4), -(a7)
            0x00683450      2f2c0044       move.l 0x44(a4), -(a7)
            0x00683454      2f2c0014       move.l 0x14(a4), -(a7)
            0x00683458      2f13           move.l (a3), -(a7)
            0x0068345a      2f2c0038       move.l 0x38(a4), -(a7)
            0x0068345e      f2024000       fmove.l d2, fp0
            0x00683462      f2276400       fmove.s fp0, -(a7)
            0x00683466      3f01           move.w d1, -(a7)
            0x00683468      4ebaf264       jsr 0x6826ce(pc)
            0x0068346c      dec3           adda.w d3, a7
            0x0068346e      286efffc       movea.l -0x4(a6), a4
            0x00683472      f2134400       fmove.s (a3), fp0
            0x00683476      f22c4438003c   fcmp.s 0x3c(a4), fp0
            0x0068347c      f2990238       fbf.w 0x6836b6
            0x00683480      f2114400       fmove.s (a1), fp0
            0x00683484      f22c44380044   fcmp.s 0x44(a4), fp0
            0x0068348a      f299022a       fbf.w 0x6836b6
            0x0068348e      f2124400       fmove.s (a2), fp0
            0x00683492      f2104028       fsub.l (a0), fp0
            0x00683496      f2114480       fmove.s (a1), fp1
            0x0068349a      f21344a8       fsub.s (a3), fp1
            0x0068349e      f2000423       fmul fp1, fp0
            0x006834a2      f22c45000014   fmove.s 0x14(a4), fp2
            0x006834a8      f2124528       fsub.s (a2), fp2
            0x006834ac      f20008a3       fmul fp2, fp1
            0x006834b0      f20440a0       fdiv.l d4, fp1
            0x006834b4      f20000a2       fadd fp0, fp1
            0x006834b8      f22c6480002c   fmove.s fp1, 0x2c(a4)
            0x006834be      3f2c0006       move.w 0x6(a4), -(a7)
            0x006834c2      3f2c000a       move.w 0xa(a4), -(a7)
            0x006834c6      2f12           move.l (a2), -(a7)
            0x006834c8      2f11           move.l (a1), -(a7)
            0x006834ca      2f2c0014       move.l 0x14(a4), -(a7)
            0x006834ce      2f13           move.l (a3), -(a7)
        ┌─< 0x006834d0      600001d0       bra.w 0x6836a2
        │   0x006834d4      f22c44000048   fmove.s 0x48(a4), fp0
        │   0x006834da      f2104028       fsub.l (a0), fp0
        │   0x006834de      f22c44230038   fmul.s 0x38(a4), fp0
        │   0x006834e4      f200001a       fneg fp0
        │   0x006834e8      f22c44220044   fadd.s 0x44(a4), fp0
        │   0x006834ee      f22c64000020   fmove.s fp0, 0x20(a4)
        │   0x006834f4      f2134400       fmove.s (a3), fp0
        │   0x006834f8      f22c4438003c   fcmp.s 0x3c(a4), fp0
        │   0x006834fe      f296003c       fbf.w 0x68353c
        │   0x00683502      2f10           move.l (a0), -(a7)
        │   0x00683504      2f2c0008       move.l 0x8(a4), -(a7)
        │   0x00683508      4ebaf2a2       jsr 0x6827ac(pc)
        │   0x0068350c      504f           addq.w 0x8, a7
        │   0x0068350e      286efffc       movea.l -0x4(a6), a4
        │   0x00683512      3f2c0006       move.w 0x6(a4), -(a7)
        │   0x00683516      3f2c000a       move.w 0xa(a4), -(a7)
        │   0x0068351a      f2104000       fmove.l (a0), fp0
        │   0x0068351e      f2276400       fmove.s fp0, -(a7)
        │   0x00683522      2f2c0020       move.l 0x20(a4), -(a7)
        │   0x00683526      2f2c0040       move.l 0x40(a4), -(a7)
        │   0x0068352a      2f2c003c       move.l 0x3c(a4), -(a7)
        │   0x0068352e      2f2c0038       move.l 0x38(a4), -(a7)
        │   0x00683532      f2024000       fmove.l d2, fp0
        │   0x00683536      f2276400       fmove.s fp0, -(a7)
       ┌──< 0x0068353a      6044           bra.b 0x683580
       ││   0x0068353c      f22c44000020   fmove.s 0x20(a4), fp0
       ││   0x00683542      f2134428       fsub.s (a3), fp0
       ││   0x00683546      f22c44800014   fmove.s 0x14(a4), fp1
       ││   0x0068354c      f21040a8       fsub.l (a0), fp1
       ││   0x00683550      f20000a3       fmul fp0, fp1
       ││   0x00683554      f20440a0       fdiv.l d4, fp1
       ││   0x00683558      f22c6480002c   fmove.s fp1, 0x2c(a4)
       ││   0x0068355e      3f2c0006       move.w 0x6(a4), -(a7)
       ││   0x00683562      3f2c000a       move.w 0xa(a4), -(a7)
       ││   0x00683566      f2104000       fmove.l (a0), fp0
       ││   0x0068356a      f2276400       fmove.s fp0, -(a7)
       ││   0x0068356e      2f2c0020       move.l 0x20(a4), -(a7)
       ││   0x00683572      2f2c0014       move.l 0x14(a4), -(a7)
       ││   0x00683576      2f13           move.l (a3), -(a7)
      ┌───> 0x00683578      2f2c0038       move.l 0x38(a4), -(a7)
      ╎││   0x0068357c      2f2c002c       move.l 0x2c(a4), -(a7)
      ╎└──> 0x00683580      3f01           move.w d1, -(a7)
      ╎ │   0x00683582      4ebaf14a       jsr 0x6826ce(pc)
      ╎ │   0x00683586      dec3           adda.w d3, a7
      ╎ │   0x00683588      286efffc       movea.l -0x4(a6), a4
      ╎ │   0x0068358c      5390           subq.l 0x1, (a0)
      ╎ │   0x0068358e      296c0020001c   move.l 0x20(a4), 0x1c(a4)
      ╎ │   0x00683594      594f           subq.w 0x4, a7
      ╎ │   0x00683596      2f12           move.l (a2), -(a7)
      ╎ │   0x00683598      4eb9004081f8   jsr p_trunc
      ╎ │   0x0068359e      584f           addq.w 0x4, a7
      ╎ │   0x006835a0      201f           move.l (a7)+, d0
      ╎ │   0x006835a2      b090           cmp.l (a0), d0
      ╎┌──< 0x006835a4      6c5e           bge.b 0x683604
      ╎││   0x006835a6      f22c4400001c   fmove.s 0x1c(a4), fp0
      ╎││   0x006835ac      f22c44280038   fsub.s 0x38(a4), fp0
      ╎││   0x006835b2      f22c64000020   fmove.s fp0, 0x20(a4)
      ╎││   0x006835b8      f22c4428001c   fsub.s 0x1c(a4), fp0
      ╎││   0x006835be      f2044020       fdiv.l d4, fp0
      ╎││   0x006835c2      f22c4480001c   fmove.s 0x1c(a4), fp1
      ╎││   0x006835c8      f22c40a80008   fsub.l 0x8(a4), fp1
      ╎││   0x006835ce      f20140a2       fadd.l d1, fp1
      ╎││   0x006835d2      f20000a2       fadd fp0, fp1
      ╎││   0x006835d6      f22c6480002c   fmove.s fp1, 0x2c(a4)
      ╎││   0x006835dc      3f2c0006       move.w 0x6(a4), -(a7)
      ╎││   0x006835e0      3f2c000a       move.w 0xa(a4), -(a7)
      ╎││   0x006835e4      f2104000       fmove.l (a0), fp0
      ╎││   0x006835e8      f2276400       fmove.s fp0, -(a7)
      ╎││   0x006835ec      2f2c0020       move.l 0x20(a4), -(a7)
      ╎││   0x006835f0      2010           move.l (a0), d0
      ╎││   0x006835f2      5280           addq.l 0x1, d0
      ╎││   0x006835f4      f2004000       fmove.l d0, fp0
      ╎││   0x006835f8      f2276400       fmove.s fp0, -(a7)
      ╎││   0x006835fc      2f2c001c       move.l 0x1c(a4), -(a7)
      └───< 0x00683600      6000ff76       bra.w 0x683578
       └──> 0x00683604      f2114400       fmove.s (a1), fp0
        │   0x00683608      f22c44380044   fcmp.s 0x44(a4), fp0
        │   0x0068360e      f2960040       fbf.w 0x683650
        │   0x00683612      2f10           move.l (a0), -(a7)
        │   0x00683614      2f2c0008       move.l 0x8(a4), -(a7)
        │   0x00683618      4ebaf192       jsr 0x6827ac(pc)
        │   0x0068361c      504f           addq.w 0x8, a7
        │   0x0068361e      286efffc       movea.l -0x4(a6), a4
        │   0x00683622      3f2c0006       move.w 0x6(a4), -(a7)
        │   0x00683626      3f2c000a       move.w 0xa(a4), -(a7)
        │   0x0068362a      2f2c0048       move.l 0x48(a4), -(a7)
        │   0x0068362e      2f2c0044       move.l 0x44(a4), -(a7)
        │   0x00683632      2010           move.l (a0), d0
        │   0x00683634      5280           addq.l 0x1, d0
        │   0x00683636      f2004000       fmove.l d0, fp0
        │   0x0068363a      f2276400       fmove.s fp0, -(a7)
        │   0x0068363e      2f2c001c       move.l 0x1c(a4), -(a7)
        │   0x00683642      2f2c0038       move.l 0x38(a4), -(a7)
        │   0x00683646      f2024000       fmove.l d2, fp0
        │   0x0068364a      f2276400       fmove.s fp0, -(a7)
       ┌──< 0x0068364e      605a           bra.b 0x6836aa
       ││   0x00683650      f2114400       fmove.s (a1), fp0
       ││   0x00683654      f22c44280020   fsub.s 0x20(a4), fp0
       ││   0x0068365a      2010           move.l (a0), d0
       ││   0x0068365c      5280           addq.l 0x1, d0
       ││   0x0068365e      f2004080       fmove.l d0, fp1
       ││   0x00683662      f21244a8       fsub.s (a2), fp1
       ││   0x00683666      f20000a3       fmul fp0, fp1
       ││   0x0068366a      f20440a0       fdiv.l d4, fp1
       ││   0x0068366e      f2114400       fmove.s (a1), fp0
       ││   0x00683672      f22c40280008   fsub.l 0x8(a4), fp0
       ││   0x00683678      f2014022       fadd.l d1, fp0
       ││   0x0068367c      f200049a       fneg fp1
       ││   0x00683680      f20000a2       fadd fp0, fp1
       ││   0x00683684      f22c6480002c   fmove.s fp1, 0x2c(a4)
       ││   0x0068368a      3f2c0006       move.w 0x6(a4), -(a7)
       ││   0x0068368e      3f2c000a       move.w 0xa(a4), -(a7)
       ││   0x00683692      2f12           move.l (a2), -(a7)
       ││   0x00683694      2f11           move.l (a1), -(a7)
       ││   0x00683696      f2004000       fmove.l d0, fp0
       ││   0x0068369a      f2276400       fmove.s fp0, -(a7)
       ││   0x0068369e      2f2c001c       move.l 0x1c(a4), -(a7)
       │└─> 0x006836a2      2f2c0038       move.l 0x38(a4), -(a7)
       │    0x006836a6      2f2c002c       move.l 0x2c(a4), -(a7)
       └──> 0x006836aa      3f01           move.w d1, -(a7)
            0x006836ac      4ebaf020       jsr 0x6826ce(pc)
            0x006836b0      dec3           adda.w d3, a7
            0x006836b2      286efffc       movea.l -0x4(a6), a4
            0x006836b6      2691           move.l (a1), (a3)
            0x006836b8      f2114400       fmove.s (a1), fp0
            0x006836bc      f2014022       fadd.l d1, fp0
            0x006836c0      f2116400       fmove.s fp0, (a1)
            0x006836c4      29520014       move.l (a2), 0x14(a4)
            0x006836c8      f21fd0e0       fmovem (a7)+, fp0-fp2
            0x006836cc      4cdf1f1f       movem.l (a7)+, d0-d4/a0-a4
            0x006836d0      4e5e           unlk a6
            0x006836d2      4e75           rts
┌ 24: FONTLET.quadrant1 ();
│           0x006836d4      4e56ff6c       link.w a6, 0xff6c
│           0x006836d8      bfd5           cmpa.l (a5), a7
│       ┌─< 0x006836da      6206           bhi.b 0x6836e2
│       │   0x006836dc      44fc0002       move.w 0x2, ccr
│       │   0x006836e0      4e76           trapv
│       └─> 0x006836e2      defc0068       adda.w 0x68, a7
│           0x006836e6      48e7c3f8       movem.l d0-d1/d6-d7/a0-a4, -(a7)
│           0x006836ea      f227e003       fmovem fp0-fp1, -(a7)
            0x006836ee      41f9004081f8   lea.l p_trunc, a0
            0x006836f4      43ee0014       lea.l 0x14(a6), a1
            0x006836f8      45eeffd0       lea.l -0x30(a6), a2
            0x006836fc      47eeffd8       lea.l -0x28(a6), a3
            0x00683700      7201           moveq 0x1, d1
            0x00683702      594f           subq.w 0x4, a7
            0x00683704      2f2e000c       move.l 0xc(a6), -(a7)
            0x00683708      4e90           jsr (a0)                    ; fcn.00000009
            0x0068370a      584f           addq.w 0x4, a7
            0x0068370c      269f           move.l (a7)+, (a3)
            0x0068370e      5293           addq.l 0x1, (a3)
            0x00683710      594f           subq.w 0x4, a7
            0x00683712      2f2e0010       move.l 0x10(a6), -(a7)
            0x00683716      4e90           jsr (a0)                    ; fcn.00000009
            0x00683718      584f           addq.w 0x4, a7
            0x0068371a      f22e44000010   fmove.s 0x10(a6), fp0
            0x00683720      f21f4038       fcmp.l (a7)+, fp0
            0x00683724      f2960014       fbf.w 0x68373a
            0x00683728      594f           subq.w 0x4, a7
            0x0068372a      f22e44000010   fmove.s 0x10(a6), fp0
            0x00683730      f2014028       fsub.l d1, fp0
            0x00683734      f2276400       fmove.s fp0, -(a7)
        ┌─< 0x00683738      6006           bra.b 0x683740
        │   0x0068373a      594f           subq.w 0x4, a7
        │   0x0068373c      2f2e0010       move.l 0x10(a6), -(a7)
        └─> 0x00683740      4e90           jsr (a0)                    ; fcn.00000009
            0x00683742      584f           addq.w 0x4, a7
            0x00683744      2d5fffd4       move.l (a7)+, -0x2c(a6)
            0x00683748      594f           subq.w 0x4, a7
            0x0068374a      2f2e000c       move.l 0xc(a6), -(a7)
            0x0068374e      4e90           jsr (a0)                    ; fcn.00000009
            0x00683750      584f           addq.w 0x4, a7
            0x00683752      201f           move.l (a7)+, d0
            0x00683754      5280           addq.l 0x1, d0
            0x00683756      f2004000       fmove.l d0, fp0
            0x0068375a      f2114438       fcmp.s (a1), fp0
            0x0068375e      f29c0014       fbf.w 0x683774
            0x00683762      2f2effd4       move.l -0x2c(a6), -(a7)
            0x00683766      2f13           move.l (a3), -(a7)
            0x00683768      284a           movea.l a2, a4
            0x0068376a      4ebafa2a       jsr FONTLET.noncrossers1(pc)
            0x0068376e      504f           addq.w 0x8, a7
        ┌─< 0x00683770      600000d0       bra.w 0x683842
        │   0x00683774      594f           subq.w 0x4, a7
        │   0x00683776      2f11           move.l (a1), -(a7)
        │   0x00683778      4e90           jsr (a0)                    ; fcn.00000009
        │   0x0068377a      584f           addq.w 0x4, a7
        │   0x0068377c      2e17           move.l (a7), d7
        │   0x0068377e      2f2e000c       move.l 0xc(a6), -(a7)
        │   0x00683782      4e90           jsr (a0)                    ; fcn.00000009
        │   0x00683784      584f           addq.w 0x4, a7
        │   0x00683786      201f           move.l (a7)+, d0
        │   0x00683788      5280           addq.l 0x1, d0
        │   0x0068378a      f2004000       fmove.l d0, fp0
        │   0x0068378e      f22e6400fff8   fmove.s fp0, -0x8(a6)
        │   0x00683794      2d6e000cfff4   move.l 0xc(a6), -0xc(a6)
        │   0x0068379a      2d6e0010ffe4   move.l 0x10(a6), -0x1c(a6)
        │   0x006837a0      f22e4400fff8   fmove.s -0x8(a6), fp0
        │   0x006837a6      f2114428       fsub.s (a1), fp0
        │   0x006837aa      f2014080       fmove.l d1, fp1
        │   0x006837ae      f22e44a00008   fdiv.s 0x8(a6), fp1
        │   0x006837b4      f20000a3       fmul fp0, fp1
        │   0x006837b8      f22e44a20018   fadd.s 0x18(a6), fp1
        │   0x006837be      f22e6480ffe8   fmove.s fp1, -0x18(a6)
        │   0x006837c4      284a           movea.l a2, a4
        │   0x006837c6      4ebafbd6       jsr FONTLET.area1(pc)
        │   0x006837ca      2852           movea.l (a2), a4
        │   0x006837cc      594f           subq.w 0x4, a7
        │   0x006837ce      2f2e000c       move.l 0xc(a6), -(a7)
        │   0x006837d2      4e90           jsr (a0)                    ; fcn.00000009
        │   0x006837d4      584f           addq.w 0x4, a7
        │   0x006837d6      2c1f           move.l (a7)+, d6
        │   0x006837d8      5486           addq.l 0x2, d6
        │   0x006837da      bc87           cmp.l d7, d6
       ┌──< 0x006837dc      6e3c           bgt.b 0x68381a
       ││   0x006837de      2f07           move.l d7, -(a7)
       ││   0x006837e0      2006           move.l d6, d0
      ┌───> 0x006837e2      b097           cmp.l (a7), d0
     ┌────< 0x006837e4      6e32           bgt.b 0x683818
     │╎││   0x006837e6      2680           move.l d0, (a3)
     │╎││   0x006837e8      f22e4400fff8   fmove.s -0x8(a6), fp0
     │╎││   0x006837ee      f2114428       fsub.s (a1), fp0
     │╎││   0x006837f2      f2014080       fmove.l d1, fp1
     │╎││   0x006837f6      f22e44a00008   fdiv.s 0x8(a6), fp1
     │╎││   0x006837fc      f20000a3       fmul fp0, fp1
     │╎││   0x00683800      f22e44a20018   fadd.s 0x18(a6), fp1
     │╎││   0x00683806      f22e6480ffe8   fmove.s fp1, -0x18(a6)
     │╎││   0x0068380c      284a           movea.l a2, a4
     │╎││   0x0068380e      4ebafb8e       jsr FONTLET.area1(pc)
     │╎││   0x00683812      2852           movea.l (a2), a4
     │╎││   0x00683814      5280           addq.l 0x1, d0
     │└───< 0x00683816      68ca           bvc.b 0x6837e2
     └────> 0x00683818      584f           addq.w 0x4, a7
       └──> 0x0068381a      2d6e0018ffe8   move.l 0x18(a6), -0x18(a6)
        │   0x00683820      2d51fff8       move.l (a1), -0x8(a6)
        │   0x00683824      2687           move.l d7, (a3)
        │   0x00683826      5293           addq.l 0x1, (a3)
        │   0x00683828      594f           subq.w 0x4, a7
        │   0x0068382a      2f11           move.l (a1), -(a7)
        │   0x0068382c      4e90           jsr (a0)                    ; fcn.00000009
        │   0x0068382e      584f           addq.w 0x4, a7
        │   0x00683830      f2114400       fmove.s (a1), fp0
        │   0x00683834      f21f4038       fcmp.l (a7)+, fp0
        │   0x00683838      f299000a       fbf.w 0x683844
        │   0x0068383c      284a           movea.l a2, a4
        │   0x0068383e      4ebafb5e       jsr FONTLET.area1(pc)
        └─> 0x00683842      2852           movea.l (a2), a4
            0x00683844      f21fd0c0       fmovem (a7)+, fp0-fp1
            0x00683848      4cdf1fc3       movem.l (a7)+, d0-d1/d6-d7/a0-a4
            0x0068384c      4e5e           unlk a6
            0x0068384e      4e75           rts
┌ 24: FONTLET.noncrossers2 ();
│           0x00683850      4e56ff6a       link.w a6, 0xff6a
│           0x00683854      bfd5           cmpa.l (a5), a7
│       ┌─< 0x00683856      6206           bhi.b 0x68385e
│       │   0x00683858      44fc0002       move.w 0x2, ccr
│       │   0x0068385c      4e76           trapv
│       └─> 0x0068385e      defc0086       adda.w 0x86, a7
│           0x00683862      48e7f9f8       movem.l d0-d4/d7/a0-a4, -(a7)
│           0x00683866      f227e0e1       fmovem fp0/fp5-fp7, -(a7)
            0x0068386a      41ee000c       lea.l 0xc(a6), a0
            0x0068386e      43ec0040       lea.l 0x40(a4), a1
            0x00683872      45eeffec       lea.l -0x14(a6), a2
            0x00683876      47ec0038       lea.l 0x38(a4), a3
            0x0068387a      7202           moveq 0x2, d1
            0x0068387c      741e           moveq 0x1e, d2
            0x0068387e      7600           moveq 0x0, d3
            0x00683880      7801           moveq 0x1, d4
            0x00683882      594f           subq.w 0x4, a7
            0x00683884      2f11           move.l (a1), -(a7)
            0x00683886      4eb9004081f8   jsr p_trunc
            0x0068388c      584f           addq.w 0x4, a7
            0x0068388e      f2114400       fmove.s (a1), fp0
            0x00683892      f21f4038       fcmp.l (a7)+, fp0
            0x00683896      f2960014       fbf.w 0x6838ac
            0x0068389a      594f           subq.w 0x4, a7
            0x0068389c      2f11           move.l (a1), -(a7)
            0x0068389e      4eb9004081f8   jsr p_trunc
            0x006838a4      584f           addq.w 0x4, a7
            0x006838a6      2e1f           move.l (a7)+, d7
            0x006838a8      5387           subq.l 0x1, d7
        ┌─< 0x006838aa      600e           bra.b 0x6838ba
        │   0x006838ac      594f           subq.w 0x4, a7
        │   0x006838ae      2f11           move.l (a1), -(a7)
        │   0x006838b0      4eb9004081f8   jsr p_trunc
        │   0x006838b6      584f           addq.w 0x4, a7
        │   0x006838b8      2e1f           move.l (a7)+, d7
        └─> 0x006838ba      594f           subq.w 0x4, a7
            0x006838bc      2f11           move.l (a1), -(a7)
            0x006838be      4eb9004081f8   jsr p_trunc
            0x006838c4      2f2c0048       move.l 0x48(a4), -(a7)
            0x006838c8      4eb9004081f8   jsr p_trunc
            0x006838ce      584f           addq.w 0x4, a7
            0x006838d0      202f0004       move.l 0x4(a7), d0
            0x006838d4      b09f           cmp.l (a7)+, d0
        ┌─< 0x006838d6      66000088       bne.w 0x683960
        │   0x006838da      594f           subq.w 0x4, a7
        │   0x006838dc      2f11           move.l (a1), -(a7)
        │   0x006838de      4eb9004081f8   jsr p_trunc
        │   0x006838e4      584f           addq.w 0x4, a7
        │   0x006838e6      f21f4000       fmove.l (a7)+, fp0
        │   0x006838ea      f2114438       fcmp.s (a1), fp0
        │   0x006838ee      f2960040       fbf.w 0x683930
        │   0x006838f2      2f10           move.l (a0), -(a7)
        │   0x006838f4      2f2e0008       move.l 0x8(a6), -(a7)
        │   0x006838f8      4ebaeeb2       jsr 0x6827ac(pc)
        │   0x006838fc      504f           addq.w 0x8, a7
        │   0x006838fe      2852           movea.l (a2), a4
        │   0x00683900      3f2e000e       move.w 0xe(a6), -(a7)
        │   0x00683904      3f2e000a       move.w 0xa(a6), -(a7)
        │   0x00683908      2f2c0048       move.l 0x48(a4), -(a7)
        │   0x0068390c      2f2c0044       move.l 0x44(a4), -(a7)
        │   0x00683910      2f11           move.l (a1), -(a7)
        │   0x00683912      2f2c003c       move.l 0x3c(a4), -(a7)
        │   0x00683916      2f13           move.l (a3), -(a7)
        │   0x00683918      f2034000       fmove.l d3, fp0
        │   0x0068391c      f2276400       fmove.s fp0, -(a7)
        │   0x00683920      3f01           move.w d1, -(a7)
        │   0x00683922      4ebaedaa       jsr 0x6826ce(pc)
        │   0x00683926      dec2           adda.w d2, a7
        │   0x00683928      2852           movea.l (a2), a4
        │   0x0068392a      584f           addq.w 0x4, a7
       ┌──< 0x0068392c      6000014e       bra.w 0x683a7c
       ││   0x00683930      3f2e000e       move.w 0xe(a6), -(a7)
       ││   0x00683934      3f2e000a       move.w 0xa(a6), -(a7)
       ││   0x00683938      2f2c0048       move.l 0x48(a4), -(a7)
       ││   0x0068393c      2f2c0044       move.l 0x44(a4), -(a7)
       ││   0x00683940      2f11           move.l (a1), -(a7)
       ││   0x00683942      2f2c003c       move.l 0x3c(a4), -(a7)
       ││   0x00683946      2f13           move.l (a3), -(a7)
       ││   0x00683948      f2034000       fmove.l d3, fp0
       ││   0x0068394c      f2276400       fmove.s fp0, -(a7)
       ││   0x00683950      3f01           move.w d1, -(a7)
       ││   0x00683952      4ebaed7a       jsr 0x6826ce(pc)
       ││   0x00683956      dec2           adda.w d2, a7
       ││   0x00683958      2852           movea.l (a2), a4
       ││   0x0068395a      584f           addq.w 0x4, a7
      ┌───< 0x0068395c      6000011e       bra.w 0x683a7c
      ││└─> 0x00683960      f22c47800048   fmove.s 0x48(a4), fp7
      ││    0x00683966      f21043a8       fsub.l (a0), fp7
      ││    0x0068396a      f20443a8       fsub.l d4, fp7
      ││    0x0068396e      f21347a3       fmul.s (a3), fp7
      ││    0x00683972      f2001f9a       fneg fp7
      ││    0x00683976      f22c47a20044   fadd.s 0x44(a4), fp7
      ││    0x0068397c      2f10           move.l (a0), -(a7)
      ││    0x0068397e      2f2e0008       move.l 0x8(a6), -(a7)
      ││    0x00683982      4ebaee28       jsr 0x6827ac(pc)
      ││    0x00683986      504f           addq.w 0x8, a7
      ││    0x00683988      2852           movea.l (a2), a4
      ││    0x0068398a      2010           move.l (a0), d0
      ││    0x0068398c      5280           addq.l 0x1, d0
      ││    0x0068398e      3f2e000e       move.w 0xe(a6), -(a7)
      ││    0x00683992      3f2e000a       move.w 0xa(a6), -(a7)
      ││    0x00683996      2f2c0048       move.l 0x48(a4), -(a7)
      ││    0x0068399a      2f2c0044       move.l 0x44(a4), -(a7)
      ││    0x0068399e      f2004000       fmove.l d0, fp0
      ││    0x006839a2      f2276400       fmove.s fp0, -(a7)
      ││    0x006839a6      f2276780       fmove.s fp7, -(a7)
      ││    0x006839aa      2f13           move.l (a3), -(a7)
      ││    0x006839ac      f2034000       fmove.l d3, fp0
      ││    0x006839b0      f2276400       fmove.s fp0, -(a7)
      ││    0x006839b4      3f01           move.w d1, -(a7)
      ││    0x006839b6      4ebaed16       jsr 0x6826ce(pc)
      ││    0x006839ba      dec2           adda.w d2, a7
      ││    0x006839bc      2852           movea.l (a2), a4
      ││    0x006839be      2080           move.l d0, (a0)
      ││    0x006839c0      f2001f00       fmove fp7, fp6
      ││┌─> 0x006839c4      be90           cmp.l (a0), d7
     ┌────< 0x006839c6      6f76           ble.b 0x683a3e
     │││╎   0x006839c8      f22c47800048   fmove.s 0x48(a4), fp7
     │││╎   0x006839ce      f21043a8       fsub.l (a0), fp7
     │││╎   0x006839d2      f20443a8       fsub.l d4, fp7
     │││╎   0x006839d6      f21347a3       fmul.s (a3), fp7
     │││╎   0x006839da      f2001f9a       fneg fp7
     │││╎   0x006839de      f22c47a20044   fadd.s 0x44(a4), fp7
     │││╎   0x006839e4      f2001e80       fmove fp7, fp5
     │││╎   0x006839e8      f2001aa8       fsub fp6, fp5
     │││╎   0x006839ec      f20142a0       fdiv.l d1, fp5
     │││╎   0x006839f0      f2001800       fmove fp6, fp0
     │││╎   0x006839f4      f22e40280008   fsub.l 0x8(a6), fp0
     │││╎   0x006839fa      f2044022       fadd.l d4, fp0
     │││╎   0x006839fe      f20002a2       fadd fp0, fp5
     │││╎   0x00683a02      2010           move.l (a0), d0
     │││╎   0x00683a04      5280           addq.l 0x1, d0
     │││╎   0x00683a06      3f2e000e       move.w 0xe(a6), -(a7)
     │││╎   0x00683a0a      3f2e000a       move.w 0xa(a6), -(a7)
     │││╎   0x00683a0e      f2104000       fmove.l (a0), fp0
     │││╎   0x00683a12      f2276400       fmove.s fp0, -(a7)
     │││╎   0x00683a16      f2276700       fmove.s fp6, -(a7)
     │││╎   0x00683a1a      f2004000       fmove.l d0, fp0
     │││╎   0x00683a1e      f2276400       fmove.s fp0, -(a7)
     │││╎   0x00683a22      f2276780       fmove.s fp7, -(a7)
     │││╎   0x00683a26      2f13           move.l (a3), -(a7)
     │││╎   0x00683a28      f2276680       fmove.s fp5, -(a7)
     │││╎   0x00683a2c      3f01           move.w d1, -(a7)
     │││╎   0x00683a2e      4ebaec9e       jsr 0x6826ce(pc)
     │││╎   0x00683a32      dec2           adda.w d2, a7
     │││╎   0x00683a34      2852           movea.l (a2), a4
     │││╎   0x00683a36      f2001f00       fmove fp7, fp6
     │││╎   0x00683a3a      2080           move.l d0, (a0)
     │││└─< 0x00683a3c      6086           bra.b 0x6839c4
     └────> 0x00683a3e      2f10           move.l (a0), -(a7)
      ││    0x00683a40      2f2e0008       move.l 0x8(a6), -(a7)
      ││    0x00683a44      4ebaed66       jsr 0x6827ac(pc)
      ││    0x00683a48      504f           addq.w 0x8, a7
      ││    0x00683a4a      2852           movea.l (a2), a4
      ││    0x00683a4c      3f2e000e       move.w 0xe(a6), -(a7)
      ││    0x00683a50      3f2e000a       move.w 0xa(a6), -(a7)
      ││    0x00683a54      f2104000       fmove.l (a0), fp0
      ││    0x00683a58      f2276400       fmove.s fp0, -(a7)
      ││    0x00683a5c      f2276700       fmove.s fp6, -(a7)
      ││    0x00683a60      2f11           move.l (a1), -(a7)
      ││    0x00683a62      2f2c003c       move.l 0x3c(a4), -(a7)
      ││    0x00683a66      2f13           move.l (a3), -(a7)
      ││    0x00683a68      f2034000       fmove.l d3, fp0
      ││    0x00683a6c      f2276400       fmove.s fp0, -(a7)
      ││    0x00683a70      3f01           move.w d1, -(a7)
      ││    0x00683a72      4ebaec5a       jsr 0x6826ce(pc)
      ││    0x00683a76      dec2           adda.w d2, a7
      ││    0x00683a78      2852           movea.l (a2), a4
      ││    0x00683a7a      584f           addq.w 0x4, a7
      └└──> 0x00683a7c      f21fd087       fmovem (a7)+, fp0/fp5-fp7
            0x00683a80      4cdf1f9f       movem.l (a7)+, d0-d4/d7/a0-a4
            0x00683a84      4e5e           unlk a6
            0x00683a86      4e75           rts
┌ 24: FONTLET.area2 ();
│           0x00683a88      4e56ff66       link.w a6, 0xff66
│           0x00683a8c      bfd5           cmpa.l (a5), a7
│       ┌─< 0x00683a8e      6206           bhi.b 0x683a96
│       │   0x00683a90      44fc0002       move.w 0x2, ccr
│       │   0x00683a94      4e76           trapv
│       └─> 0x00683a96      defc009a       adda.w 0x9a, a7
│           0x00683a9a      48e7f8f8       movem.l d0-d4/a0-a4, -(a7)
│           0x00683a9e      f227e007       fmovem fp0-fp2, -(a7)
            0x00683aa2      41ec0004       lea.l 0x4(a4), a0
            0x00683aa6      43ec0028       lea.l 0x28(a4), a1
            0x00683aaa      45ec0024       lea.l 0x24(a4), a2
            0x00683aae      47eefffc       lea.l -0x4(a6), a3
            0x00683ab2      7202           moveq 0x2, d1
            0x00683ab4      7400           moveq 0x0, d2
            0x00683ab6      761e           moveq 0x1e, d3
            0x00683ab8      7801           moveq 0x1, d4
            0x00683aba      2010           move.l (a0), d0
            0x00683abc      5280           addq.l 0x1, d0
            0x00683abe      f22c44000018   fmove.s 0x18(a4), fp0
            0x00683ac4      f2004038       fcmp.l d0, fp0
            0x00683ac8      f29a00f8       fbf.w 0x683bc2
            0x00683acc      f2124400       fmove.s (a2), fp0
            0x00683ad0      f22c44380044   fcmp.s 0x44(a4), fp0
            0x00683ad6      f296003c       fbf.w 0x683b14
            0x00683ada      2f10           move.l (a0), -(a7)
            0x00683adc      2f2c0008       move.l 0x8(a4), -(a7)
            0x00683ae0      4ebaecca       jsr 0x6827ac(pc)
            0x00683ae4      504f           addq.w 0x8, a7
            0x00683ae6      2853           movea.l (a3), a4
            0x00683ae8      3f2c0006       move.w 0x6(a4), -(a7)
            0x00683aec      3f2c000a       move.w 0xa(a4), -(a7)
            0x00683af0      2f2c0048       move.l 0x48(a4), -(a7)
            0x00683af4      2f2c0044       move.l 0x44(a4), -(a7)
            0x00683af8      2f2c0018       move.l 0x18(a4), -(a7)
            0x00683afc      2f11           move.l (a1), -(a7)
            0x00683afe      2f2c0038       move.l 0x38(a4), -(a7)
            0x00683b02      f2024000       fmove.l d2, fp0
            0x00683b06      f2276400       fmove.s fp0, -(a7)
            0x00683b0a      3f01           move.w d1, -(a7)
            0x00683b0c      4ebaebc0       jsr 0x6826ce(pc)
            0x00683b10      dec3           adda.w d3, a7
            0x00683b12      2853           movea.l (a3), a4
            0x00683b14      f2114400       fmove.s (a1), fp0
            0x00683b18      f22c4438003c   fcmp.s 0x3c(a4), fp0
            0x00683b1e      f296003c       fbf.w 0x683b5c
            0x00683b22      2f10           move.l (a0), -(a7)
            0x00683b24      2f2c0008       move.l 0x8(a4), -(a7)
            0x00683b28      4ebaec82       jsr 0x6827ac(pc)
            0x00683b2c      504f           addq.w 0x8, a7
            0x00683b2e      2853           movea.l (a3), a4
            0x00683b30      3f2c0006       move.w 0x6(a4), -(a7)
            0x00683b34      3f2c000a       move.w 0xa(a4), -(a7)
            0x00683b38      2f2c0014       move.l 0x14(a4), -(a7)
            0x00683b3c      2f12           move.l (a2), -(a7)
            0x00683b3e      2f2c0040       move.l 0x40(a4), -(a7)
            0x00683b42      2f2c003c       move.l 0x3c(a4), -(a7)
            0x00683b46      2f2c0038       move.l 0x38(a4), -(a7)
            0x00683b4a      f2024000       fmove.l d2, fp0
            0x00683b4e      f2276400       fmove.s fp0, -(a7)
            0x00683b52      3f01           move.w d1, -(a7)
            0x00683b54      4ebaeb78       jsr 0x6826ce(pc)
            0x00683b58      dec3           adda.w d3, a7
            0x00683b5a      2853           movea.l (a3), a4
            0x00683b5c      f2124400       fmove.s (a2), fp0
            0x00683b60      f22c44380044   fcmp.s 0x44(a4), fp0
            0x00683b66      f2990222       fbf.w 0x683d8a
            0x00683b6a      f2114400       fmove.s (a1), fp0
            0x00683b6e      f22c4438003c   fcmp.s 0x3c(a4), fp0
            0x00683b74      f2990214       fbf.w 0x683d8a
            0x00683b78      f2004000       fmove.l d0, fp0
            0x00683b7c      f22c44280014   fsub.s 0x14(a4), fp0
            0x00683b82      f2114480       fmove.s (a1), fp1
            0x00683b86      f21244a8       fsub.s (a2), fp1
            0x00683b8a      f2000423       fmul fp1, fp0
            0x00683b8e      f22c45000018   fmove.s 0x18(a4), fp2
            0x00683b94      f22c45280014   fsub.s 0x14(a4), fp2
            0x00683b9a      f20008a3       fmul fp2, fp1
            0x00683b9e      f20140a0       fdiv.l d1, fp1
            0x00683ba2      f200049a       fneg fp1
            0x00683ba6      f20000a2       fadd fp0, fp1
            0x00683baa      f22c6480002c   fmove.s fp1, 0x2c(a4)
            0x00683bb0      3f2c0006       move.w 0x6(a4), -(a7)
            0x00683bb4      3f2c000a       move.w 0xa(a4), -(a7)
            0x00683bb8      2f2c0014       move.l 0x14(a4), -(a7)
            0x00683bbc      2f12           move.l (a2), -(a7)
        ┌─< 0x00683bbe      600001b2       bra.w 0x683d72
        │   0x00683bc2      f2004000       fmove.l d0, fp0
        │   0x00683bc6      f22c44280048   fsub.s 0x48(a4), fp0
        │   0x00683bcc      f22c44230038   fmul.s 0x38(a4), fp0
        │   0x00683bd2      f22c44220044   fadd.s 0x44(a4), fp0
        │   0x00683bd8      f22c64000020   fmove.s fp0, 0x20(a4)
        │   0x00683bde      f2124400       fmove.s (a2), fp0
        │   0x00683be2      f22c44380044   fcmp.s 0x44(a4), fp0
        │   0x00683be8      f296003a       fbf.w 0x683c24
        │   0x00683bec      2f10           move.l (a0), -(a7)
        │   0x00683bee      2f2c0008       move.l 0x8(a4), -(a7)
        │   0x00683bf2      4ebaebb8       jsr 0x6827ac(pc)
        │   0x00683bf6      504f           addq.w 0x8, a7
        │   0x00683bf8      2853           movea.l (a3), a4
        │   0x00683bfa      3f2c0006       move.w 0x6(a4), -(a7)
        │   0x00683bfe      3f2c000a       move.w 0xa(a4), -(a7)
        │   0x00683c02      2f2c0048       move.l 0x48(a4), -(a7)
        │   0x00683c06      2f2c0044       move.l 0x44(a4), -(a7)
        │   0x00683c0a      f2004000       fmove.l d0, fp0
        │   0x00683c0e      f2276400       fmove.s fp0, -(a7)
        │   0x00683c12      2f2c0020       move.l 0x20(a4), -(a7)
        │   0x00683c16      2f2c0038       move.l 0x38(a4), -(a7)
        │   0x00683c1a      f2024000       fmove.l d2, fp0
        │   0x00683c1e      f2276400       fmove.s fp0, -(a7)
       ┌──< 0x00683c22      6044           bra.b 0x683c68
       ││   0x00683c24      f22c44000020   fmove.s 0x20(a4), fp0
       ││   0x00683c2a      f2124428       fsub.s (a2), fp0
       ││   0x00683c2e      f2004080       fmove.l d0, fp1
       ││   0x00683c32      f22c44a80014   fsub.s 0x14(a4), fp1
       ││   0x00683c38      f20000a3       fmul fp0, fp1
       ││   0x00683c3c      f20140a0       fdiv.l d1, fp1
       ││   0x00683c40      f22c6480002c   fmove.s fp1, 0x2c(a4)
       ││   0x00683c46      3f2c0006       move.w 0x6(a4), -(a7)
       ││   0x00683c4a      3f2c000a       move.w 0xa(a4), -(a7)
       ││   0x00683c4e      2f2c0014       move.l 0x14(a4), -(a7)
       ││   0x00683c52      2f12           move.l (a2), -(a7)
      ┌───> 0x00683c54      f2004000       fmove.l d0, fp0
      ╎││   0x00683c58      f2276400       fmove.s fp0, -(a7)
      ╎││   0x00683c5c      2f2c0020       move.l 0x20(a4), -(a7)
      ╎││   0x00683c60      2f2c0038       move.l 0x38(a4), -(a7)
      ╎││   0x00683c64      2f2c002c       move.l 0x2c(a4), -(a7)
      ╎└──> 0x00683c68      3f01           move.w d1, -(a7)
      ╎ │   0x00683c6a      4ebaea62       jsr 0x6826ce(pc)
      ╎ │   0x00683c6e      dec3           adda.w d3, a7
      ╎ │   0x00683c70      2853           movea.l (a3), a4
      ╎ │   0x00683c72      2080           move.l d0, (a0)
      ╎ │   0x00683c74      296c0020001c   move.l 0x20(a4), 0x1c(a4)
      ╎ │   0x00683c7a      594f           subq.w 0x4, a7
      ╎ │   0x00683c7c      2f2c0018       move.l 0x18(a4), -(a7)
      ╎ │   0x00683c80      4eb9004081f8   jsr p_trunc
      ╎ │   0x00683c86      584f           addq.w 0x4, a7
      ╎ │   0x00683c88      201f           move.l (a7)+, d0
      ╎ │   0x00683c8a      b090           cmp.l (a0), d0
      ╎┌──< 0x00683c8c      6f52           ble.b 0x683ce0
      ╎││   0x00683c8e      f22c4400001c   fmove.s 0x1c(a4), fp0
      ╎││   0x00683c94      f22c44220038   fadd.s 0x38(a4), fp0
      ╎││   0x00683c9a      f22c64000020   fmove.s fp0, 0x20(a4)
      ╎││   0x00683ca0      f22c4428001c   fsub.s 0x1c(a4), fp0
      ╎││   0x00683ca6      f2014020       fdiv.l d1, fp0
      ╎││   0x00683caa      f22c4480001c   fmove.s 0x1c(a4), fp1
      ╎││   0x00683cb0      f22c40a80008   fsub.l 0x8(a4), fp1
      ╎││   0x00683cb6      f20440a2       fadd.l d4, fp1
      ╎││   0x00683cba      f20000a2       fadd fp0, fp1
      ╎││   0x00683cbe      f22c6480002c   fmove.s fp1, 0x2c(a4)
      ╎││   0x00683cc4      2010           move.l (a0), d0
      ╎││   0x00683cc6      5280           addq.l 0x1, d0
      ╎││   0x00683cc8      3f2c0006       move.w 0x6(a4), -(a7)
      ╎││   0x00683ccc      3f2c000a       move.w 0xa(a4), -(a7)
      ╎││   0x00683cd0      f2104000       fmove.l (a0), fp0
      ╎││   0x00683cd4      f2276400       fmove.s fp0, -(a7)
      ╎││   0x00683cd8      2f2c001c       move.l 0x1c(a4), -(a7)
      └───< 0x00683cdc      6000ff76       bra.w 0x683c54
       └──> 0x00683ce0      f2114400       fmove.s (a1), fp0
        │   0x00683ce4      f22c4438003c   fcmp.s 0x3c(a4), fp0
        │   0x00683cea      f296003a       fbf.w 0x683d26
        │   0x00683cee      2f10           move.l (a0), -(a7)
        │   0x00683cf0      2f2c0008       move.l 0x8(a4), -(a7)
        │   0x00683cf4      4ebaeab6       jsr 0x6827ac(pc)
        │   0x00683cf8      504f           addq.w 0x8, a7
        │   0x00683cfa      2853           movea.l (a3), a4
        │   0x00683cfc      3f2c0006       move.w 0x6(a4), -(a7)
        │   0x00683d00      3f2c000a       move.w 0xa(a4), -(a7)
        │   0x00683d04      f2104000       fmove.l (a0), fp0
        │   0x00683d08      f2276400       fmove.s fp0, -(a7)
        │   0x00683d0c      2f2c001c       move.l 0x1c(a4), -(a7)
        │   0x00683d10      2f2c0040       move.l 0x40(a4), -(a7)
        │   0x00683d14      2f2c003c       move.l 0x3c(a4), -(a7)
        │   0x00683d18      2f2c0038       move.l 0x38(a4), -(a7)
        │   0x00683d1c      f2024000       fmove.l d2, fp0
        │   0x00683d20      f2276400       fmove.s fp0, -(a7)
       ┌──< 0x00683d24      605a           bra.b 0x683d80
       ││   0x00683d26      f2114400       fmove.s (a1), fp0
       ││   0x00683d2a      f22c44280020   fsub.s 0x20(a4), fp0
       ││   0x00683d30      f22c44800018   fmove.s 0x18(a4), fp1
       ││   0x00683d36      f21040a8       fsub.l (a0), fp1
       ││   0x00683d3a      f20000a3       fmul fp0, fp1
       ││   0x00683d3e      f20140a0       fdiv.l d1, fp1
       ││   0x00683d42      f2114400       fmove.s (a1), fp0
       ││   0x00683d46      f22c40280008   fsub.l 0x8(a4), fp0
       ││   0x00683d4c      f2044022       fadd.l d4, fp0
       ││   0x00683d50      f200049a       fneg fp1
       ││   0x00683d54      f20000a2       fadd fp0, fp1
       ││   0x00683d58      f22c6480002c   fmove.s fp1, 0x2c(a4)
       ││   0x00683d5e      3f2c0006       move.w 0x6(a4), -(a7)
       ││   0x00683d62      3f2c000a       move.w 0xa(a4), -(a7)
       ││   0x00683d66      f2104000       fmove.l (a0), fp0
       ││   0x00683d6a      f2276400       fmove.s fp0, -(a7)
       ││   0x00683d6e      2f2c001c       move.l 0x1c(a4), -(a7)
       │└─> 0x00683d72      2f2c0018       move.l 0x18(a4), -(a7)
       │    0x00683d76      2f11           move.l (a1), -(a7)
       │    0x00683d78      2f2c0038       move.l 0x38(a4), -(a7)
       │    0x00683d7c      2f2c002c       move.l 0x2c(a4), -(a7)
       └──> 0x00683d80      3f01           move.w d1, -(a7)
            0x00683d82      4ebae94a       jsr 0x6826ce(pc)
            0x00683d86      dec3           adda.w d3, a7
            0x00683d88      2853           movea.l (a3), a4
            0x00683d8a      2491           move.l (a1), (a2)
            0x00683d8c      f2114400       fmove.s (a1), fp0
            0x00683d90      f2044022       fadd.l d4, fp0
            0x00683d94      f2116400       fmove.s fp0, (a1)
            0x00683d98      296c00180014   move.l 0x18(a4), 0x14(a4)
            0x00683d9e      f21fd0e0       fmovem (a7)+, fp0-fp2
            0x00683da2      4cdf1f1f       movem.l (a7)+, d0-d4/a0-a4
            0x00683da6      4e5e           unlk a6
            0x00683da8      4e75           rts
┌ 24: FONTLET.quadrant2 ();
│           0x00683daa      4e56ff6c       link.w a6, 0xff6c
│           0x00683dae      bfd5           cmpa.l (a5), a7
│       ┌─< 0x00683db0      6206           bhi.b 0x683db8
│       │   0x00683db2      44fc0002       move.w 0x2, ccr
│       │   0x00683db6      4e76           trapv
│       └─> 0x00683db8      defc0068       adda.w 0x68, a7
│           0x00683dbc      48e7c3f8       movem.l d0-d1/d6-d7/a0-a4, -(a7)
│           0x00683dc0      f227e003       fmovem fp0-fp1, -(a7)
            0x00683dc4      41ee0014       lea.l 0x14(a6), a0
            0x00683dc8      43f9004081f8   lea.l p_trunc, a1
            0x00683dce      45eeffd0       lea.l -0x30(a6), a2
            0x00683dd2      47eeffd8       lea.l -0x28(a6), a3
            0x00683dd6      7201           moveq 0x1, d1
            0x00683dd8      594f           subq.w 0x4, a7
            0x00683dda      2f10           move.l (a0), -(a7)
            0x00683ddc      4e91           jsr (a1)                    ; fcn.0000000a
            0x00683dde      584f           addq.w 0x4, a7
            0x00683de0      269f           move.l (a7)+, (a3)
            0x00683de2      5293           addq.l 0x1, (a3)
            0x00683de4      594f           subq.w 0x4, a7
            0x00683de6      2f2e0018       move.l 0x18(a6), -(a7)
            0x00683dea      4e91           jsr (a1)                    ; fcn.0000000a
            0x00683dec      584f           addq.w 0x4, a7
            0x00683dee      2d57ffd4       move.l (a7), -0x2c(a6)
            0x00683df2      2f10           move.l (a0), -(a7)
            0x00683df4      4e91           jsr (a1)                    ; fcn.0000000a
            0x00683df6      584f           addq.w 0x4, a7
            0x00683df8      201f           move.l (a7)+, d0
            0x00683dfa      5280           addq.l 0x1, d0
            0x00683dfc      f22e4400000c   fmove.s 0xc(a6), fp0
            0x00683e02      f2004038       fcmp.l d0, fp0
            0x00683e06      f29a0014       fbf.w 0x683e1c
            0x00683e0a      2f2effd4       move.l -0x2c(a6), -(a7)
            0x00683e0e      2f13           move.l (a3), -(a7)
            0x00683e10      284a           movea.l a2, a4
            0x00683e12      4ebafa3c       jsr FONTLET.noncrossers2(pc)
            0x00683e16      504f           addq.w 0x8, a7
        ┌─< 0x00683e18      600000d2       bra.w 0x683eec
        │   0x00683e1c      594f           subq.w 0x4, a7
        │   0x00683e1e      2f2e000c       move.l 0xc(a6), -(a7)
        │   0x00683e22      4e91           jsr (a1)                    ; fcn.0000000a
        │   0x00683e24      584f           addq.w 0x4, a7
        │   0x00683e26      2e17           move.l (a7), d7
        │   0x00683e28      2f10           move.l (a0), -(a7)
        │   0x00683e2a      4e91           jsr (a1)                    ; fcn.0000000a
        │   0x00683e2c      584f           addq.w 0x4, a7
        │   0x00683e2e      201f           move.l (a7)+, d0
        │   0x00683e30      5280           addq.l 0x1, d0
        │   0x00683e32      f2004000       fmove.l d0, fp0
        │   0x00683e36      f22e6400fff8   fmove.s fp0, -0x8(a6)
        │   0x00683e3c      2d50fff4       move.l (a0), -0xc(a6)
        │   0x00683e40      2d6e0018ffe4   move.l 0x18(a6), -0x1c(a6)
        │   0x00683e46      f22e4400fff8   fmove.s -0x8(a6), fp0
        │   0x00683e4c      f2104428       fsub.s (a0), fp0
        │   0x00683e50      f2014080       fmove.l d1, fp1
        │   0x00683e54      f22e44a00008   fdiv.s 0x8(a6), fp1
        │   0x00683e5a      f20000a3       fmul fp0, fp1
        │   0x00683e5e      f22e44a20018   fadd.s 0x18(a6), fp1
        │   0x00683e64      f22e6480ffe8   fmove.s fp1, -0x18(a6)
        │   0x00683e6a      284a           movea.l a2, a4
        │   0x00683e6c      4ebafc1a       jsr FONTLET.area2(pc)
        │   0x00683e70      2852           movea.l (a2), a4
        │   0x00683e72      594f           subq.w 0x4, a7
        │   0x00683e74      2f10           move.l (a0), -(a7)
        │   0x00683e76      4e91           jsr (a1)                    ; fcn.0000000a
        │   0x00683e78      584f           addq.w 0x4, a7
        │   0x00683e7a      2c1f           move.l (a7)+, d6
        │   0x00683e7c      5486           addq.l 0x2, d6
        │   0x00683e7e      bc87           cmp.l d7, d6
       ┌──< 0x00683e80      6e3c           bgt.b 0x683ebe
       ││   0x00683e82      2f07           move.l d7, -(a7)
       ││   0x00683e84      2006           move.l d6, d0
      ┌───> 0x00683e86      b097           cmp.l (a7), d0
     ┌────< 0x00683e88      6e32           bgt.b 0x683ebc
     │╎││   0x00683e8a      2680           move.l d0, (a3)
     │╎││   0x00683e8c      f22e4400fff8   fmove.s -0x8(a6), fp0
     │╎││   0x00683e92      f2104428       fsub.s (a0), fp0
     │╎││   0x00683e96      f2014080       fmove.l d1, fp1
     │╎││   0x00683e9a      f22e44a00008   fdiv.s 0x8(a6), fp1
     │╎││   0x00683ea0      f20000a3       fmul fp0, fp1
     │╎││   0x00683ea4      f22e44a20018   fadd.s 0x18(a6), fp1
     │╎││   0x00683eaa      f22e6480ffe8   fmove.s fp1, -0x18(a6)
     │╎││   0x00683eb0      284a           movea.l a2, a4
     │╎││   0x00683eb2      4ebafbd4       jsr FONTLET.area2(pc)
     │╎││   0x00683eb6      2852           movea.l (a2), a4
     │╎││   0x00683eb8      5280           addq.l 0x1, d0
     │└───< 0x00683eba      68ca           bvc.b 0x683e86
     └────> 0x00683ebc      584f           addq.w 0x4, a7
       └──> 0x00683ebe      2d6e0010ffe8   move.l 0x10(a6), -0x18(a6)
        │   0x00683ec4      2d6e000cfff8   move.l 0xc(a6), -0x8(a6)
        │   0x00683eca      2687           move.l d7, (a3)
        │   0x00683ecc      5293           addq.l 0x1, (a3)
        │   0x00683ece      594f           subq.w 0x4, a7
        │   0x00683ed0      2f2e000c       move.l 0xc(a6), -(a7)
        │   0x00683ed4      4e91           jsr (a1)                    ; fcn.0000000a
        │   0x00683ed6      584f           addq.w 0x4, a7
        │   0x00683ed8      f22e4400000c   fmove.s 0xc(a6), fp0
        │   0x00683ede      f21f4038       fcmp.l (a7)+, fp0
        │   0x00683ee2      f299000a       fbf.w 0x683eee
        │   0x00683ee6      284a           movea.l a2, a4
        │   0x00683ee8      4ebafb9e       jsr FONTLET.area2(pc)
        └─> 0x00683eec      2852           movea.l (a2), a4
            0x00683eee      f21fd0c0       fmovem (a7)+, fp0-fp1
            0x00683ef2      4cdf1fc3       movem.l (a7)+, d0-d1/d6-d7/a0-a4
            0x00683ef6      4e5e           unlk a6
            0x00683ef8      4e75           rts
┌ 24: FONTLET.noncrossers3 ();
│           0x00683efa      4e56ff6a       link.w a6, 0xff6a
│           0x00683efe      bfd5           cmpa.l (a5), a7
│       ┌─< 0x00683f00      6206           bhi.b 0x683f08
│       │   0x00683f02      44fc0002       move.w 0x2, ccr
│       │   0x00683f06      4e76           trapv
│       └─> 0x00683f08      defc0086       adda.w 0x86, a7
│           0x00683f0c      48e7f9f8       movem.l d0-d4/d7/a0-a4, -(a7)
│           0x00683f10      f227e0e1       fmovem fp0/fp5-fp7, -(a7)
            0x00683f14      41ee000c       lea.l 0xc(a6), a0
            0x00683f18      43ec0048       lea.l 0x48(a4), a1
            0x00683f1c      45eeffec       lea.l -0x14(a6), a2
            0x00683f20      47ec0038       lea.l 0x38(a4), a3
            0x00683f24      7203           moveq 0x3, d1
            0x00683f26      741e           moveq 0x1e, d2
            0x00683f28      7600           moveq 0x0, d3
            0x00683f2a      7801           moveq 0x1, d4
            0x00683f2c      594f           subq.w 0x4, a7
            0x00683f2e      2f2c0040       move.l 0x40(a4), -(a7)
            0x00683f32      4eb9004081f8   jsr p_trunc
            0x00683f38      2f11           move.l (a1), -(a7)
            0x00683f3a      4eb9004081f8   jsr p_trunc
            0x00683f40      584f           addq.w 0x4, a7
            0x00683f42      202f0004       move.l 0x4(a7), d0
            0x00683f46      b09f           cmp.l (a7)+, d0
        ┌─< 0x00683f48      6600008c       bne.w 0x683fd6
        │   0x00683f4c      594f           subq.w 0x4, a7
        │   0x00683f4e      2f2c0040       move.l 0x40(a4), -(a7)
        │   0x00683f52      4eb9004081f8   jsr p_trunc
        │   0x00683f58      584f           addq.w 0x4, a7
        │   0x00683f5a      f21f4000       fmove.l (a7)+, fp0
        │   0x00683f5e      f22c44380040   fcmp.s 0x40(a4), fp0
        │   0x00683f64      f2960040       fbf.w 0x683fa6
        │   0x00683f68      2f10           move.l (a0), -(a7)
        │   0x00683f6a      2f2e0008       move.l 0x8(a6), -(a7)
        │   0x00683f6e      4ebae83c       jsr 0x6827ac(pc)
        │   0x00683f72      504f           addq.w 0x8, a7
        │   0x00683f74      2852           movea.l (a2), a4
        │   0x00683f76      3f2e000e       move.w 0xe(a6), -(a7)
        │   0x00683f7a      3f2e000a       move.w 0xa(a6), -(a7)
        │   0x00683f7e      2f11           move.l (a1), -(a7)
        │   0x00683f80      2f2c0044       move.l 0x44(a4), -(a7)
        │   0x00683f84      2f2c0040       move.l 0x40(a4), -(a7)
        │   0x00683f88      2f2c003c       move.l 0x3c(a4), -(a7)
        │   0x00683f8c      2f13           move.l (a3), -(a7)
        │   0x00683f8e      f2034000       fmove.l d3, fp0
        │   0x00683f92      f2276400       fmove.s fp0, -(a7)
        │   0x00683f96      3f01           move.w d1, -(a7)
        │   0x00683f98      4ebae734       jsr 0x6826ce(pc)
        │   0x00683f9c      dec2           adda.w d2, a7
        │   0x00683f9e      2852           movea.l (a2), a4
        │   0x00683fa0      584f           addq.w 0x4, a7
       ┌──< 0x00683fa2      60000182       bra.w 0x684126
       ││   0x00683fa6      3f2e000e       move.w 0xe(a6), -(a7)
       ││   0x00683faa      3f2e000a       move.w 0xa(a6), -(a7)
       ││   0x00683fae      2f11           move.l (a1), -(a7)
       ││   0x00683fb0      2f2c0044       move.l 0x44(a4), -(a7)
       ││   0x00683fb4      2f2c0040       move.l 0x40(a4), -(a7)
       ││   0x00683fb8      2f2c003c       move.l 0x3c(a4), -(a7)
       ││   0x00683fbc      2f13           move.l (a3), -(a7)
       ││   0x00683fbe      f2034000       fmove.l d3, fp0
       ││   0x00683fc2      f2276400       fmove.s fp0, -(a7)
       ││   0x00683fc6      3f01           move.w d1, -(a7)
       ││   0x00683fc8      4ebae704       jsr 0x6826ce(pc)
       ││   0x00683fcc      dec2           adda.w d2, a7
       ││   0x00683fce      2852           movea.l (a2), a4
       ││   0x00683fd0      584f           addq.w 0x4, a7
      ┌───< 0x00683fd2      60000152       bra.w 0x684126
      ││└─> 0x00683fd6      594f           subq.w 0x4, a7
      ││    0x00683fd8      2f11           move.l (a1), -(a7)
      ││    0x00683fda      4eb9004081f8   jsr p_trunc
      ││    0x00683fe0      584f           addq.w 0x4, a7
      ││    0x00683fe2      f2114400       fmove.s (a1), fp0
      ││    0x00683fe6      f21f4038       fcmp.l (a7)+, fp0
      ││    0x00683fea      f2960014       fbf.w 0x684000
      ││    0x00683fee      594f           subq.w 0x4, a7
      ││    0x00683ff0      2f11           move.l (a1), -(a7)
      ││    0x00683ff2      4eb9004081f8   jsr p_trunc
      ││    0x00683ff8      584f           addq.w 0x4, a7
      ││    0x00683ffa      2e1f           move.l (a7)+, d7
      ││    0x00683ffc      5387           subq.l 0x1, d7
      ││┌─< 0x00683ffe      600e           bra.b 0x68400e
      │││   0x00684000      594f           subq.w 0x4, a7
      │││   0x00684002      2f11           move.l (a1), -(a7)
      │││   0x00684004      4eb9004081f8   jsr p_trunc
      │││   0x0068400a      584f           addq.w 0x4, a7
      │││   0x0068400c      2e1f           move.l (a7)+, d7
      ││└─> 0x0068400e      f2114780       fmove.s (a1), fp7
      ││    0x00684012      f21043a8       fsub.l (a0), fp7
      ││    0x00684016      f20443a8       fsub.l d4, fp7
      ││    0x0068401a      f21347a3       fmul.s (a3), fp7
      ││    0x0068401e      f2001f9a       fneg fp7
      ││    0x00684022      f22c47a20044   fadd.s 0x44(a4), fp7
      ││    0x00684028      2f10           move.l (a0), -(a7)
      ││    0x0068402a      2f2e0008       move.l 0x8(a6), -(a7)
      ││    0x0068402e      4ebae77c       jsr 0x6827ac(pc)
      ││    0x00684032      504f           addq.w 0x8, a7
      ││    0x00684034      2852           movea.l (a2), a4
      ││    0x00684036      2010           move.l (a0), d0
      ││    0x00684038      5280           addq.l 0x1, d0
      ││    0x0068403a      3f2e000e       move.w 0xe(a6), -(a7)
      ││    0x0068403e      3f2e000a       move.w 0xa(a6), -(a7)
      ││    0x00684042      f2004000       fmove.l d0, fp0
      ││    0x00684046      f2276400       fmove.s fp0, -(a7)
      ││    0x0068404a      f2276780       fmove.s fp7, -(a7)
      ││    0x0068404e      2f2c0040       move.l 0x40(a4), -(a7)
      ││    0x00684052      2f2c003c       move.l 0x3c(a4), -(a7)
      ││    0x00684056      2f13           move.l (a3), -(a7)
      ││    0x00684058      f2034000       fmove.l d3, fp0
      ││    0x0068405c      f2276400       fmove.s fp0, -(a7)
      ││    0x00684060      3f01           move.w d1, -(a7)
      ││    0x00684062      4ebae66a       jsr 0x6826ce(pc)
      ││    0x00684066      dec2           adda.w d2, a7
      ││    0x00684068      2852           movea.l (a2), a4
      ││    0x0068406a      2080           move.l d0, (a0)
      ││    0x0068406c      f2001f00       fmove fp7, fp6
      ││┌─> 0x00684070      be90           cmp.l (a0), d7
     ┌────< 0x00684072      6f74           ble.b 0x6840e8
     │││╎   0x00684074      f2114780       fmove.s (a1), fp7
     │││╎   0x00684078      f21043a8       fsub.l (a0), fp7
     │││╎   0x0068407c      f20443a8       fsub.l d4, fp7
     │││╎   0x00684080      f21347a3       fmul.s (a3), fp7
     │││╎   0x00684084      f2001f9a       fneg fp7
     │││╎   0x00684088      f22c47a20044   fadd.s 0x44(a4), fp7
     │││╎   0x0068408e      f2001e80       fmove fp7, fp5
     │││╎   0x00684092      f2001aa8       fsub fp6, fp5
     │││╎   0x00684096      f23c42a00000.  fdiv.l 0x2, fp5
     │││╎   0x0068409e      f22e40000008   fmove.l 0x8(a6), fp0
     │││╎   0x006840a4      f2001c28       fsub fp7, fp0
     │││╎   0x006840a8      f20002a2       fadd fp0, fp5
     │││╎   0x006840ac      2010           move.l (a0), d0
     │││╎   0x006840ae      5280           addq.l 0x1, d0
     │││╎   0x006840b0      3f2e000e       move.w 0xe(a6), -(a7)
     │││╎   0x006840b4      3f2e000a       move.w 0xa(a6), -(a7)
     │││╎   0x006840b8      f2004000       fmove.l d0, fp0
     │││╎   0x006840bc      f2276400       fmove.s fp0, -(a7)
     │││╎   0x006840c0      f2276780       fmove.s fp7, -(a7)
     │││╎   0x006840c4      f2104000       fmove.l (a0), fp0
     │││╎   0x006840c8      f2276400       fmove.s fp0, -(a7)
     │││╎   0x006840cc      f2276700       fmove.s fp6, -(a7)
     │││╎   0x006840d0      2f13           move.l (a3), -(a7)
     │││╎   0x006840d2      f2276680       fmove.s fp5, -(a7)
     │││╎   0x006840d6      3f01           move.w d1, -(a7)
     │││╎   0x006840d8      4ebae5f4       jsr 0x6826ce(pc)
     │││╎   0x006840dc      dec2           adda.w d2, a7
     │││╎   0x006840de      2852           movea.l (a2), a4
     │││╎   0x006840e0      f2001f00       fmove fp7, fp6
     │││╎   0x006840e4      2080           move.l d0, (a0)
     │││└─< 0x006840e6      6088           bra.b 0x684070
     └────> 0x006840e8      2f10           move.l (a0), -(a7)
      ││    0x006840ea      2f2e0008       move.l 0x8(a6), -(a7)
      ││    0x006840ee      4ebae6bc       jsr 0x6827ac(pc)
      ││    0x006840f2      504f           addq.w 0x8, a7
      ││    0x006840f4      2852           movea.l (a2), a4
      ││    0x006840f6      3f2e000e       move.w 0xe(a6), -(a7)
      ││    0x006840fa      3f2e000a       move.w 0xa(a6), -(a7)
      ││    0x006840fe      2f11           move.l (a1), -(a7)
      ││    0x00684100      2f2c0044       move.l 0x44(a4), -(a7)
      ││    0x00684104      f2104000       fmove.l (a0), fp0
      ││    0x00684108      f2276400       fmove.s fp0, -(a7)
      ││    0x0068410c      f2276700       fmove.s fp6, -(a7)
      ││    0x00684110      2f13           move.l (a3), -(a7)
      ││    0x00684112      f2034000       fmove.l d3, fp0
      ││    0x00684116      f2276400       fmove.s fp0, -(a7)
      ││    0x0068411a      3f01           move.w d1, -(a7)
      ││    0x0068411c      4ebae5b0       jsr 0x6826ce(pc)
      ││    0x00684120      dec2           adda.w d2, a7
      ││    0x00684122      2852           movea.l (a2), a4
      ││    0x00684124      584f           addq.w 0x4, a7
      └└──> 0x00684126      f21fd087       fmovem (a7)+, fp0/fp5-fp7
            0x0068412a      4cdf1f9f       movem.l (a7)+, d0-d4/d7/a0-a4
            0x0068412e      4e5e           unlk a6
            0x00684130      4e75           rts
┌ 24: FONTLET.area3 ();
│           0x00684132      4e56ff66       link.w a6, 0xff66
│           0x00684136      bfd5           cmpa.l (a5), a7
│       ┌─< 0x00684138      6206           bhi.b 0x684140
│       │   0x0068413a      44fc0002       move.w 0x2, ccr
│       │   0x0068413e      4e76           trapv
│       └─> 0x00684140      defc009a       adda.w 0x9a, a7
│           0x00684144      48e7f8f8       movem.l d0-d4/a0-a4, -(a7)
│           0x00684148      f227e007       fmovem fp0-fp2, -(a7)
            0x0068414c      41ec0004       lea.l 0x4(a4), a0
            0x00684150      43ec0028       lea.l 0x28(a4), a1
            0x00684154      45ec0024       lea.l 0x24(a4), a2
            0x00684158      47ec0018       lea.l 0x18(a4), a3
            0x0068415c      7200           moveq 0x0, d1
            0x0068415e      7403           moveq 0x3, d2
            0x00684160      761e           moveq 0x1e, d3
            0x00684162      7802           moveq 0x2, d4
            0x00684164      2010           move.l (a0), d0
            0x00684166      5280           addq.l 0x1, d0
            0x00684168      f2134400       fmove.s (a3), fp0
            0x0068416c      f2004038       fcmp.l d0, fp0
            0x00684170      f29a00fc       fbf.w 0x68426e
            0x00684174      f2124400       fmove.s (a2), fp0
            0x00684178      f22c4438003c   fcmp.s 0x3c(a4), fp0
            0x0068417e      f296003e       fbf.w 0x6841be
            0x00684182      2f10           move.l (a0), -(a7)
            0x00684184      2f2c0008       move.l 0x8(a4), -(a7)
            0x00684188      4ebae622       jsr 0x6827ac(pc)
            0x0068418c      504f           addq.w 0x8, a7
            0x0068418e      286efffc       movea.l -0x4(a6), a4
            0x00684192      3f2c0006       move.w 0x6(a4), -(a7)
            0x00684196      3f2c000a       move.w 0xa(a4), -(a7)
            0x0068419a      2f13           move.l (a3), -(a7)
            0x0068419c      2f11           move.l (a1), -(a7)
            0x0068419e      2f2c0040       move.l 0x40(a4), -(a7)
            0x006841a2      2f2c003c       move.l 0x3c(a4), -(a7)
            0x006841a6      2f2c0038       move.l 0x38(a4), -(a7)
            0x006841aa      f2014000       fmove.l d1, fp0
            0x006841ae      f2276400       fmove.s fp0, -(a7)
            0x006841b2      3f02           move.w d2, -(a7)
            0x006841b4      4ebae518       jsr 0x6826ce(pc)
            0x006841b8      dec3           adda.w d3, a7
            0x006841ba      286efffc       movea.l -0x4(a6), a4
            0x006841be      f2114400       fmove.s (a1), fp0
            0x006841c2      f22c44380044   fcmp.s 0x44(a4), fp0
            0x006841c8      f2960040       fbf.w 0x68420a
            0x006841cc      2f10           move.l (a0), -(a7)
            0x006841ce      2f2c0008       move.l 0x8(a4), -(a7)
            0x006841d2      4ebae5d8       jsr 0x6827ac(pc)
            0x006841d6      504f           addq.w 0x8, a7
            0x006841d8      286efffc       movea.l -0x4(a6), a4
            0x006841dc      3f2c0006       move.w 0x6(a4), -(a7)
            0x006841e0      3f2c000a       move.w 0xa(a4), -(a7)
            0x006841e4      2f2c0048       move.l 0x48(a4), -(a7)
            0x006841e8      2f2c0044       move.l 0x44(a4), -(a7)
            0x006841ec      2f2c0014       move.l 0x14(a4), -(a7)
            0x006841f0      2f12           move.l (a2), -(a7)
            0x006841f2      2f2c0038       move.l 0x38(a4), -(a7)
            0x006841f6      f2014000       fmove.l d1, fp0
            0x006841fa      f2276400       fmove.s fp0, -(a7)
            0x006841fe      3f02           move.w d2, -(a7)
            0x00684200      4ebae4cc       jsr 0x6826ce(pc)
            0x00684204      dec3           adda.w d3, a7
            0x00684206      286efffc       movea.l -0x4(a6), a4
            0x0068420a      f2124400       fmove.s (a2), fp0
            0x0068420e      f22c4438003c   fcmp.s 0x3c(a4), fp0
            0x00684214      f2990226       fbf.w 0x68443c
            0x00684218      f2114400       fmove.s (a1), fp0
            0x0068421c      f22c44380044   fcmp.s 0x44(a4), fp0
            0x00684222      f2990218       fbf.w 0x68443c
            0x00684226      f22c44000014   fmove.s 0x14(a4), fp0
            0x0068422c      f2104028       fsub.l (a0), fp0
            0x00684230      f2114480       fmove.s (a1), fp1
            0x00684234      f21244a8       fsub.s (a2), fp1
            0x00684238      f2000423       fmul fp1, fp0
            0x0068423c      f2134500       fmove.s (a3), fp2
            0x00684240      f22c45280014   fsub.s 0x14(a4), fp2
            0x00684246      f20008a3       fmul fp2, fp1
            0x0068424a      f20440a0       fdiv.l d4, fp1
            0x0068424e      f20000a2       fadd fp0, fp1
            0x00684252      f22c6480002c   fmove.s fp1, 0x2c(a4)
            0x00684258      3f2c0006       move.w 0x6(a4), -(a7)
            0x0068425c      3f2c000a       move.w 0xa(a4), -(a7)
            0x00684260      2f13           move.l (a3), -(a7)
            0x00684262      2f11           move.l (a1), -(a7)
            0x00684264      2f2c0014       move.l 0x14(a4), -(a7)
            0x00684268      2f12           move.l (a2), -(a7)
        ┌─< 0x0068426a      600001bc       bra.w 0x684428
        │   0x0068426e      f2004000       fmove.l d0, fp0
        │   0x00684272      f22c44280048   fsub.s 0x48(a4), fp0
        │   0x00684278      f22c44230038   fmul.s 0x38(a4), fp0
        │   0x0068427e      f22c44220044   fadd.s 0x44(a4), fp0
        │   0x00684284      f22c64000020   fmove.s fp0, 0x20(a4)
        │   0x0068428a      f2124400       fmove.s (a2), fp0
        │   0x0068428e      f22c4438003c   fcmp.s 0x3c(a4), fp0
        │   0x00684294      f296003c       fbf.w 0x6842d2
        │   0x00684298      2f10           move.l (a0), -(a7)
        │   0x0068429a      2f2c0008       move.l 0x8(a4), -(a7)
        │   0x0068429e      4ebae50c       jsr 0x6827ac(pc)
        │   0x006842a2      504f           addq.w 0x8, a7
        │   0x006842a4      286efffc       movea.l -0x4(a6), a4
        │   0x006842a8      3f2c0006       move.w 0x6(a4), -(a7)
        │   0x006842ac      3f2c000a       move.w 0xa(a4), -(a7)
        │   0x006842b0      f2004000       fmove.l d0, fp0
        │   0x006842b4      f2276400       fmove.s fp0, -(a7)
        │   0x006842b8      2f2c0020       move.l 0x20(a4), -(a7)
        │   0x006842bc      2f2c0040       move.l 0x40(a4), -(a7)
        │   0x006842c0      2f2c003c       move.l 0x3c(a4), -(a7)
        │   0x006842c4      2f2c0038       move.l 0x38(a4), -(a7)
        │   0x006842c8      f2014000       fmove.l d1, fp0
        │   0x006842cc      f2276400       fmove.s fp0, -(a7)
       ┌──< 0x006842d0      6056           bra.b 0x684328
       ││   0x006842d2      f22c44000020   fmove.s 0x20(a4), fp0
       ││   0x006842d8      f2124428       fsub.s (a2), fp0
       ││   0x006842dc      f2004080       fmove.l d0, fp1
       ││   0x006842e0      f22c44a80014   fsub.s 0x14(a4), fp1
       ││   0x006842e6      f20000a3       fmul fp0, fp1
       ││   0x006842ea      f20440a0       fdiv.l d4, fp1
       ││   0x006842ee      f22c40000008   fmove.l 0x8(a4), fp0
       ││   0x006842f4      f2124428       fsub.s (a2), fp0
       ││   0x006842f8      f200049a       fneg fp1
       ││   0x006842fc      f20000a2       fadd fp0, fp1
       ││   0x00684300      f22c6480002c   fmove.s fp1, 0x2c(a4)
       ││   0x00684306      3f2c0006       move.w 0x6(a4), -(a7)
       ││   0x0068430a      3f2c000a       move.w 0xa(a4), -(a7)
       ││   0x0068430e      f2004000       fmove.l d0, fp0
       ││   0x00684312      f2276400       fmove.s fp0, -(a7)
       ││   0x00684316      2f2c0020       move.l 0x20(a4), -(a7)
       ││   0x0068431a      2f2c0014       move.l 0x14(a4), -(a7)
       ││   0x0068431e      2f12           move.l (a2), -(a7)
      ┌───> 0x00684320      2f2c0038       move.l 0x38(a4), -(a7)
      ╎││   0x00684324      2f2c002c       move.l 0x2c(a4), -(a7)
      ╎└──> 0x00684328      3f02           move.w d2, -(a7)
      ╎ │   0x0068432a      4ebae3a2       jsr 0x6826ce(pc)
      ╎ │   0x0068432e      dec3           adda.w d3, a7
      ╎ │   0x00684330      286efffc       movea.l -0x4(a6), a4
      ╎ │   0x00684334      2080           move.l d0, (a0)
      ╎ │   0x00684336      296c0020001c   move.l 0x20(a4), 0x1c(a4)
      ╎ │   0x0068433c      594f           subq.w 0x4, a7
      ╎ │   0x0068433e      2f13           move.l (a3), -(a7)
      ╎ │   0x00684340      4eb9004081f8   jsr p_trunc
      ╎ │   0x00684346      584f           addq.w 0x4, a7
      ╎ │   0x00684348      201f           move.l (a7)+, d0
      ╎ │   0x0068434a      b090           cmp.l (a0), d0
      ╎┌──< 0x0068434c      6f5a           ble.b 0x6843a8
      ╎││   0x0068434e      f22c4400001c   fmove.s 0x1c(a4), fp0
      ╎││   0x00684354      f22c44220038   fadd.s 0x38(a4), fp0
      ╎││   0x0068435a      f22c64000020   fmove.s fp0, 0x20(a4)
      ╎││   0x00684360      f22c4428001c   fsub.s 0x1c(a4), fp0
      ╎││   0x00684366      f2044020       fdiv.l d4, fp0
      ╎││   0x0068436a      f22c40800008   fmove.l 0x8(a4), fp1
      ╎││   0x00684370      f22c44a80020   fsub.s 0x20(a4), fp1
      ╎││   0x00684376      f20000a2       fadd fp0, fp1
      ╎││   0x0068437a      f22c6480002c   fmove.s fp1, 0x2c(a4)
      ╎││   0x00684380      2010           move.l (a0), d0
      ╎││   0x00684382      5280           addq.l 0x1, d0
      ╎││   0x00684384      3f2c0006       move.w 0x6(a4), -(a7)
      ╎││   0x00684388      3f2c000a       move.w 0xa(a4), -(a7)
      ╎││   0x0068438c      f2004000       fmove.l d0, fp0
      ╎││   0x00684390      f2276400       fmove.s fp0, -(a7)
      ╎││   0x00684394      2f2c0020       move.l 0x20(a4), -(a7)
      ╎││   0x00684398      f2104000       fmove.l (a0), fp0
      ╎││   0x0068439c      f2276400       fmove.s fp0, -(a7)
      ╎││   0x006843a0      2f2c001c       move.l 0x1c(a4), -(a7)
      └───< 0x006843a4      6000ff7a       bra.w 0x684320
       └──> 0x006843a8      f2114400       fmove.s (a1), fp0
        │   0x006843ac      f22c44380044   fcmp.s 0x44(a4), fp0
        │   0x006843b2      f296003c       fbf.w 0x6843f0
        │   0x006843b6      2f10           move.l (a0), -(a7)
        │   0x006843b8      2f2c0008       move.l 0x8(a4), -(a7)
        │   0x006843bc      4ebae3ee       jsr 0x6827ac(pc)
        │   0x006843c0      504f           addq.w 0x8, a7
        │   0x006843c2      286efffc       movea.l -0x4(a6), a4
        │   0x006843c6      3f2c0006       move.w 0x6(a4), -(a7)
        │   0x006843ca      3f2c000a       move.w 0xa(a4), -(a7)
        │   0x006843ce      2f2c0048       move.l 0x48(a4), -(a7)
        │   0x006843d2      2f2c0044       move.l 0x44(a4), -(a7)
        │   0x006843d6      f2104000       fmove.l (a0), fp0
        │   0x006843da      f2276400       fmove.s fp0, -(a7)
        │   0x006843de      2f2c001c       move.l 0x1c(a4), -(a7)
        │   0x006843e2      2f2c0038       move.l 0x38(a4), -(a7)
        │   0x006843e6      f2014000       fmove.l d1, fp0
        │   0x006843ea      f2276400       fmove.s fp0, -(a7)
       ┌──< 0x006843ee      6040           bra.b 0x684430
       ││   0x006843f0      f2114400       fmove.s (a1), fp0
       ││   0x006843f4      f22c4428001c   fsub.s 0x1c(a4), fp0
       ││   0x006843fa      f2134480       fmove.s (a3), fp1
       ││   0x006843fe      f21040a8       fsub.l (a0), fp1
       ││   0x00684402      f20000a3       fmul fp0, fp1
       ││   0x00684406      f20440a0       fdiv.l d4, fp1
       ││   0x0068440a      f22c6480002c   fmove.s fp1, 0x2c(a4)
       ││   0x00684410      3f2c0006       move.w 0x6(a4), -(a7)
       ││   0x00684414      3f2c000a       move.w 0xa(a4), -(a7)
       ││   0x00684418      2f13           move.l (a3), -(a7)
       ││   0x0068441a      2f11           move.l (a1), -(a7)
       ││   0x0068441c      f2104000       fmove.l (a0), fp0
       ││   0x00684420      f2276400       fmove.s fp0, -(a7)
       ││   0x00684424      2f2c001c       move.l 0x1c(a4), -(a7)
       │└─> 0x00684428      2f2c0038       move.l 0x38(a4), -(a7)
       │    0x0068442c      2f2c002c       move.l 0x2c(a4), -(a7)
       └──> 0x00684430      3f02           move.w d2, -(a7)
            0x00684432      4ebae29a       jsr 0x6826ce(pc)
            0x00684436      dec3           adda.w d3, a7
            0x00684438      286efffc       movea.l -0x4(a6), a4
            0x0068443c      2491           move.l (a1), (a2)
            0x0068443e      f2114400       fmove.s (a1), fp0
            0x00684442      f23c40220000.  fadd.l 0x1, fp0
            0x0068444a      f2116400       fmove.s fp0, (a1)
            0x0068444e      29530014       move.l (a3), 0x14(a4)
            0x00684452      f21fd0e0       fmovem (a7)+, fp0-fp2
            0x00684456      4cdf1f1f       movem.l (a7)+, d0-d4/a0-a4
            0x0068445a      4e5e           unlk a6
            0x0068445c      4e75           rts
┌ 24: FONTLET.quadrant3 ();
│           0x0068445e      4e56ff6c       link.w a6, 0xff6c
│           0x00684462      bfd5           cmpa.l (a5), a7
│       ┌─< 0x00684464      6206           bhi.b 0x68446c
│       │   0x00684466      44fc0002       move.w 0x2, ccr
│       │   0x0068446a      4e76           trapv
│       └─> 0x0068446c      defc0068       adda.w 0x68, a7
│           0x00684470      48e7c3f8       movem.l d0-d1/d6-d7/a0-a4, -(a7)
│           0x00684474      f227e003       fmovem fp0-fp1, -(a7)
            0x00684478      41f9004081f8   lea.l p_trunc, a0
            0x0068447e      43ee0014       lea.l 0x14(a6), a1
            0x00684482      45eeffd0       lea.l -0x30(a6), a2
            0x00684486      47eeffd8       lea.l -0x28(a6), a3
            0x0068448a      7201           moveq 0x1, d1
            0x0068448c      594f           subq.w 0x4, a7
            0x0068448e      2f2e000c       move.l 0xc(a6), -(a7)
            0x00684492      4e90           jsr (a0)                    ; fcn.00000009
            0x00684494      584f           addq.w 0x4, a7
            0x00684496      269f           move.l (a7)+, (a3)
            0x00684498      5293           addq.l 0x1, (a3)
            0x0068449a      594f           subq.w 0x4, a7
            0x0068449c      2f2e0010       move.l 0x10(a6), -(a7)
            0x006844a0      4e90           jsr (a0)                    ; fcn.00000009
            0x006844a2      584f           addq.w 0x4, a7
            0x006844a4      2d57ffd4       move.l (a7), -0x2c(a6)
            0x006844a8      2f2e000c       move.l 0xc(a6), -(a7)
            0x006844ac      4e90           jsr (a0)                    ; fcn.00000009
            0x006844ae      584f           addq.w 0x4, a7
            0x006844b0      201f           move.l (a7)+, d0
            0x006844b2      5280           addq.l 0x1, d0
            0x006844b4      f2004000       fmove.l d0, fp0
            0x006844b8      f2114438       fcmp.s (a1), fp0
            0x006844bc      f29c0014       fbf.w 0x6844d2
            0x006844c0      2f2effd4       move.l -0x2c(a6), -(a7)
            0x006844c4      2f13           move.l (a3), -(a7)
            0x006844c6      284a           movea.l a2, a4
            0x006844c8      4ebafa30       jsr FONTLET.noncrossers3(pc)
            0x006844cc      504f           addq.w 0x8, a7
        ┌─< 0x006844ce      600000d0       bra.w 0x6845a0
        │   0x006844d2      594f           subq.w 0x4, a7
        │   0x006844d4      2f11           move.l (a1), -(a7)
        │   0x006844d6      4e90           jsr (a0)                    ; fcn.00000009
        │   0x006844d8      584f           addq.w 0x4, a7
        │   0x006844da      2e17           move.l (a7), d7
        │   0x006844dc      2f2e000c       move.l 0xc(a6), -(a7)
        │   0x006844e0      4e90           jsr (a0)                    ; fcn.00000009
        │   0x006844e2      584f           addq.w 0x4, a7
        │   0x006844e4      201f           move.l (a7)+, d0
        │   0x006844e6      5280           addq.l 0x1, d0
        │   0x006844e8      f2004000       fmove.l d0, fp0
        │   0x006844ec      f22e6400fff8   fmove.s fp0, -0x8(a6)
        │   0x006844f2      2d6e000cfff4   move.l 0xc(a6), -0xc(a6)
        │   0x006844f8      2d6e0010ffe4   move.l 0x10(a6), -0x1c(a6)
        │   0x006844fe      f22e4400fff8   fmove.s -0x8(a6), fp0
        │   0x00684504      f2114428       fsub.s (a1), fp0
        │   0x00684508      f2014080       fmove.l d1, fp1
        │   0x0068450c      f22e44a00008   fdiv.s 0x8(a6), fp1
        │   0x00684512      f20000a3       fmul fp0, fp1
        │   0x00684516      f22e44a20018   fadd.s 0x18(a6), fp1
        │   0x0068451c      f22e6480ffe8   fmove.s fp1, -0x18(a6)
        │   0x00684522      284a           movea.l a2, a4
        │   0x00684524      4ebafc0c       jsr FONTLET.area3(pc)
        │   0x00684528      2852           movea.l (a2), a4
        │   0x0068452a      594f           subq.w 0x4, a7
        │   0x0068452c      2f2e000c       move.l 0xc(a6), -(a7)
        │   0x00684530      4e90           jsr (a0)                    ; fcn.00000009
        │   0x00684532      584f           addq.w 0x4, a7
        │   0x00684534      2c1f           move.l (a7)+, d6
        │   0x00684536      5486           addq.l 0x2, d6
        │   0x00684538      bc87           cmp.l d7, d6
       ┌──< 0x0068453a      6e3c           bgt.b 0x684578
       ││   0x0068453c      2f07           move.l d7, -(a7)
       ││   0x0068453e      2006           move.l d6, d0
      ┌───> 0x00684540      b097           cmp.l (a7), d0
     ┌────< 0x00684542      6e32           bgt.b 0x684576
     │╎││   0x00684544      2680           move.l d0, (a3)
     │╎││   0x00684546      f22e4400fff8   fmove.s -0x8(a6), fp0
     │╎││   0x0068454c      f2114428       fsub.s (a1), fp0
     │╎││   0x00684550      f2014080       fmove.l d1, fp1
     │╎││   0x00684554      f22e44a00008   fdiv.s 0x8(a6), fp1
     │╎││   0x0068455a      f20000a3       fmul fp0, fp1
     │╎││   0x0068455e      f22e44a20018   fadd.s 0x18(a6), fp1
     │╎││   0x00684564      f22e6480ffe8   fmove.s fp1, -0x18(a6)
     │╎││   0x0068456a      284a           movea.l a2, a4
     │╎││   0x0068456c      4ebafbc4       jsr FONTLET.area3(pc)
     │╎││   0x00684570      2852           movea.l (a2), a4
     │╎││   0x00684572      5280           addq.l 0x1, d0
     │└───< 0x00684574      68ca           bvc.b 0x684540
     └────> 0x00684576      584f           addq.w 0x4, a7
       └──> 0x00684578      2d6e0018ffe8   move.l 0x18(a6), -0x18(a6)
        │   0x0068457e      2d51fff8       move.l (a1), -0x8(a6)
        │   0x00684582      2687           move.l d7, (a3)
        │   0x00684584      5293           addq.l 0x1, (a3)
        │   0x00684586      594f           subq.w 0x4, a7
        │   0x00684588      2f11           move.l (a1), -(a7)
        │   0x0068458a      4e90           jsr (a0)                    ; fcn.00000009
        │   0x0068458c      584f           addq.w 0x4, a7
        │   0x0068458e      f2114400       fmove.s (a1), fp0
        │   0x00684592      f21f4038       fcmp.l (a7)+, fp0
        │   0x00684596      f299000a       fbf.w 0x6845a2
        │   0x0068459a      284a           movea.l a2, a4
        │   0x0068459c      4ebafb94       jsr FONTLET.area3(pc)
        └─> 0x006845a0      2852           movea.l (a2), a4
            0x006845a2      f21fd0c0       fmovem (a7)+, fp0-fp1
            0x006845a6      4cdf1fc3       movem.l (a7)+, d0-d1/d6-d7/a0-a4
            0x006845aa      4e5e           unlk a6
            0x006845ac      4e75           rts
┌ 24: FONTLET.noncrossers4 ();
│           0x006845ae      4e56ff6a       link.w a6, 0xff6a
│           0x006845b2      bfd5           cmpa.l (a5), a7
│       ┌─< 0x006845b4      6206           bhi.b 0x6845bc
│       │   0x006845b6      44fc0002       move.w 0x2, ccr
│       │   0x006845ba      4e76           trapv
│       └─> 0x006845bc      defc008a       adda.w 0x8a, a7
│           0x006845c0      48e7f8f8       movem.l d0-d4/a0-a4, -(a7)
│           0x006845c4      f227e0e1       fmovem fp0/fp5-fp7, -(a7)
            0x006845c8      41eefff0       lea.l -0x10(a6), a0
            0x006845cc      43ec0040       lea.l 0x40(a4), a1
            0x006845d0      45ee000c       lea.l 0xc(a6), a2
            0x006845d4      47ec0038       lea.l 0x38(a4), a3
            0x006845d8      7404           moveq 0x4, d2
            0x006845da      761e           moveq 0x1e, d3
            0x006845dc      7800           moveq 0x0, d4
            0x006845de      594f           subq.w 0x4, a7
            0x006845e0      2f11           move.l (a1), -(a7)
            0x006845e2      4eb9004081f8   jsr p_trunc
            0x006845e8      2f2c0048       move.l 0x48(a4), -(a7)
            0x006845ec      4eb9004081f8   jsr p_trunc
            0x006845f2      584f           addq.w 0x4, a7
            0x006845f4      202f0004       move.l 0x4(a7), d0
            0x006845f8      b09f           cmp.l (a7)+, d0
        ┌─< 0x006845fa      66000088       bne.w 0x684684
        │   0x006845fe      594f           subq.w 0x4, a7
        │   0x00684600      2f11           move.l (a1), -(a7)
        │   0x00684602      4eb9004081f8   jsr p_trunc
        │   0x00684608      584f           addq.w 0x4, a7
        │   0x0068460a      f21f4000       fmove.l (a7)+, fp0
        │   0x0068460e      f2114438       fcmp.s (a1), fp0
        │   0x00684612      f2960040       fbf.w 0x684654
        │   0x00684616      2f12           move.l (a2), -(a7)
        │   0x00684618      2f2e0008       move.l 0x8(a6), -(a7)
        │   0x0068461c      4ebae18e       jsr 0x6827ac(pc)
        │   0x00684620      504f           addq.w 0x8, a7
        │   0x00684622      2850           movea.l (a0), a4
        │   0x00684624      3f2e000e       move.w 0xe(a6), -(a7)
        │   0x00684628      3f2e000a       move.w 0xa(a6), -(a7)
        │   0x0068462c      2f2c0048       move.l 0x48(a4), -(a7)
        │   0x00684630      2f2c0044       move.l 0x44(a4), -(a7)
        │   0x00684634      2f11           move.l (a1), -(a7)
        │   0x00684636      2f2c003c       move.l 0x3c(a4), -(a7)
        │   0x0068463a      2f13           move.l (a3), -(a7)
        │   0x0068463c      f2044000       fmove.l d4, fp0
        │   0x00684640      f2276400       fmove.s fp0, -(a7)
        │   0x00684644      3f02           move.w d2, -(a7)
        │   0x00684646      4ebae086       jsr 0x6826ce(pc)
        │   0x0068464a      dec3           adda.w d3, a7
        │   0x0068464c      2850           movea.l (a0), a4
        │   0x0068464e      584f           addq.w 0x4, a7
       ┌──< 0x00684650      60000152       bra.w 0x6847a4
       ││   0x00684654      3f2e000e       move.w 0xe(a6), -(a7)
       ││   0x00684658      3f2e000a       move.w 0xa(a6), -(a7)
       ││   0x0068465c      2f2c0048       move.l 0x48(a4), -(a7)
       ││   0x00684660      2f2c0044       move.l 0x44(a4), -(a7)
       ││   0x00684664      2f11           move.l (a1), -(a7)
       ││   0x00684666      2f2c003c       move.l 0x3c(a4), -(a7)
       ││   0x0068466a      2f13           move.l (a3), -(a7)
       ││   0x0068466c      f2044000       fmove.l d4, fp0
       ││   0x00684670      f2276400       fmove.s fp0, -(a7)
       ││   0x00684674      3f02           move.w d2, -(a7)
       ││   0x00684676      4ebae056       jsr 0x6826ce(pc)
       ││   0x0068467a      dec3           adda.w d3, a7
       ││   0x0068467c      2850           movea.l (a0), a4
       ││   0x0068467e      584f           addq.w 0x4, a7
      ┌───< 0x00684680      60000122       bra.w 0x6847a4
      ││└─> 0x00684684      f22c47800048   fmove.s 0x48(a4), fp7
      ││    0x0068468a      f21243a8       fsub.l (a2), fp7
      ││    0x0068468e      f21347a3       fmul.s (a3), fp7
      ││    0x00684692      f2001f9a       fneg fp7
      ││    0x00684696      f22c47a20044   fadd.s 0x44(a4), fp7
      ││    0x0068469c      2f12           move.l (a2), -(a7)
      ││    0x0068469e      2f2e0008       move.l 0x8(a6), -(a7)
      ││    0x006846a2      4ebae108       jsr 0x6827ac(pc)
      ││    0x006846a6      504f           addq.w 0x8, a7
      ││    0x006846a8      2850           movea.l (a0), a4
      ││    0x006846aa      3f2e000e       move.w 0xe(a6), -(a7)
      ││    0x006846ae      3f2e000a       move.w 0xa(a6), -(a7)
      ││    0x006846b2      2f2c0048       move.l 0x48(a4), -(a7)
      ││    0x006846b6      2f2c0044       move.l 0x44(a4), -(a7)
      ││    0x006846ba      f2124000       fmove.l (a2), fp0
      ││    0x006846be      f2276400       fmove.s fp0, -(a7)
      ││    0x006846c2      f2276780       fmove.s fp7, -(a7)
      ││    0x006846c6      2f13           move.l (a3), -(a7)
      ││    0x006846c8      f2044000       fmove.l d4, fp0
      ││    0x006846cc      f2276400       fmove.s fp0, -(a7)
      ││    0x006846d0      3f02           move.w d2, -(a7)
      ││    0x006846d2      4ebadffa       jsr 0x6826ce(pc)
      ││    0x006846d6      dec3           adda.w d3, a7
      ││    0x006846d8      2850           movea.l (a0), a4
      ││    0x006846da      5392           subq.l 0x1, (a2)
      ││    0x006846dc      f2001f00       fmove fp7, fp6
      ││┌─> 0x006846e0      594f           subq.w 0x4, a7
      ││╎   0x006846e2      2f11           move.l (a1), -(a7)
      ││╎   0x006846e4      4eb9004081f8   jsr p_trunc
      ││╎   0x006846ea      584f           addq.w 0x4, a7
      ││╎   0x006846ec      2012           move.l (a2), d0
      ││╎   0x006846ee      b097           cmp.l (a7), d0
     ┌────< 0x006846f0      6f74           ble.b 0x684766
     │││╎   0x006846f2      f22c47800048   fmove.s 0x48(a4), fp7
     │││╎   0x006846f8      f20043a8       fsub.l d0, fp7
     │││╎   0x006846fc      f21347a3       fmul.s (a3), fp7
     │││╎   0x00684700      f2001f9a       fneg fp7
     │││╎   0x00684704      f22c47a20044   fadd.s 0x44(a4), fp7
     │││╎   0x0068470a      f2001e80       fmove fp7, fp5
     │││╎   0x0068470e      f2001aa8       fsub fp6, fp5
     │││╎   0x00684712      f23c42a00000.  fdiv.l 0x2, fp5
     │││╎   0x0068471a      f22e40000008   fmove.l 0x8(a6), fp0
     │││╎   0x00684720      f2001c28       fsub fp7, fp0
     │││╎   0x00684724      f20002a2       fadd fp0, fp5
     │││╎   0x00684728      2200           move.l d0, d1
     │││╎   0x0068472a      5381           subq.l 0x1, d1
     │││╎   0x0068472c      3f00           move.w d0, -(a7)
     │││╎   0x0068472e      3f2e000a       move.w 0xa(a6), -(a7)
     │││╎   0x00684732      f2004000       fmove.l d0, fp0
     │││╎   0x00684736      f2276400       fmove.s fp0, -(a7)
     │││╎   0x0068473a      f2276700       fmove.s fp6, -(a7)
     │││╎   0x0068473e      f2014000       fmove.l d1, fp0
     │││╎   0x00684742      f2276400       fmove.s fp0, -(a7)
     │││╎   0x00684746      f2276780       fmove.s fp7, -(a7)
     │││╎   0x0068474a      2f13           move.l (a3), -(a7)
     │││╎   0x0068474c      f2276680       fmove.s fp5, -(a7)
     │││╎   0x00684750      3f02           move.w d2, -(a7)
     │││╎   0x00684752      4ebadf7a       jsr 0x6826ce(pc)
     │││╎   0x00684756      dec3           adda.w d3, a7
     │││╎   0x00684758      2850           movea.l (a0), a4
     │││╎   0x0068475a      f2001f00       fmove fp7, fp6
     │││╎   0x0068475e      2481           move.l d1, (a2)
     │││╎   0x00684760      584f           addq.w 0x4, a7
     │││└─< 0x00684762      6000ff7c       bra.w 0x6846e0
     └────> 0x00684766      2f00           move.l d0, -(a7)
      ││    0x00684768      2f2e0008       move.l 0x8(a6), -(a7)
      ││    0x0068476c      4ebae03e       jsr 0x6827ac(pc)
      ││    0x00684770      504f           addq.w 0x8, a7
      ││    0x00684772      2850           movea.l (a0), a4
      ││    0x00684774      3f00           move.w d0, -(a7)
      ││    0x00684776      3f2e000a       move.w 0xa(a6), -(a7)
      ││    0x0068477a      5280           addq.l 0x1, d0
      ││    0x0068477c      f2004000       fmove.l d0, fp0
      ││    0x00684780      f2276400       fmove.s fp0, -(a7)
      ││    0x00684784      f2276700       fmove.s fp6, -(a7)
      ││    0x00684788      2f11           move.l (a1), -(a7)
      ││    0x0068478a      2f2c003c       move.l 0x3c(a4), -(a7)
      ││    0x0068478e      2f13           move.l (a3), -(a7)
      ││    0x00684790      f2044000       fmove.l d4, fp0
      ││    0x00684794      f2276400       fmove.s fp0, -(a7)
      ││    0x00684798      3f02           move.w d2, -(a7)
      ││    0x0068479a      4ebadf32       jsr 0x6826ce(pc)
      ││    0x0068479e      dec3           adda.w d3, a7
      ││    0x006847a0      2850           movea.l (a0), a4
      ││    0x006847a2      504f           addq.w 0x8, a7
      └└──> 0x006847a4      f21fd087       fmovem (a7)+, fp0/fp5-fp7
            0x006847a8      4cdf1f1f       movem.l (a7)+, d0-d4/a0-a4
            0x006847ac      4e5e           unlk a6
            0x006847ae      4e75           rts
┌ 24: FONTLET.area4 ();
│           0x006847b0      4e56ff6a       link.w a6, 0xff6a
│           0x006847b4      bfd5           cmpa.l (a5), a7
│       ┌─< 0x006847b6      6206           bhi.b 0x6847be
│       │   0x006847b8      44fc0002       move.w 0x2, ccr
│       │   0x006847bc      4e76           trapv
│       └─> 0x006847be      defc0096       adda.w 0x96, a7
│           0x006847c2      48e7f8f8       movem.l d0-d4/a0-a4, -(a7)
│           0x006847c6      f227e007       fmovem fp0-fp2, -(a7)
            0x006847ca      41ec0004       lea.l 0x4(a4), a0
            0x006847ce      43ec0028       lea.l 0x28(a4), a1
            0x006847d2      45ec0024       lea.l 0x24(a4), a2
            0x006847d6      47eefffc       lea.l -0x4(a6), a3
            0x006847da      7204           moveq 0x4, d1
            0x006847dc      741e           moveq 0x1e, d2
            0x006847de      7602           moveq 0x2, d3
            0x006847e0      7800           moveq 0x0, d4
            0x006847e2      f22c44000018   fmove.s 0x18(a4), fp0
            0x006847e8      f2104038       fcmp.l (a0), fp0
            0x006847ec      f29c00fc       fbf.w 0x6848ea
            0x006847f0      f2124400       fmove.s (a2), fp0
            0x006847f4      f22c44380044   fcmp.s 0x44(a4), fp0
            0x006847fa      f296003c       fbf.w 0x684838
            0x006847fe      2f10           move.l (a0), -(a7)
            0x00684800      2f2c0008       move.l 0x8(a4), -(a7)
            0x00684804      4ebadfa6       jsr 0x6827ac(pc)
            0x00684808      504f           addq.w 0x8, a7
            0x0068480a      2853           movea.l (a3), a4
            0x0068480c      3f2c0006       move.w 0x6(a4), -(a7)
            0x00684810      3f2c000a       move.w 0xa(a4), -(a7)
            0x00684814      2f2c0048       move.l 0x48(a4), -(a7)
            0x00684818      2f2c0044       move.l 0x44(a4), -(a7)
            0x0068481c      2f2c0018       move.l 0x18(a4), -(a7)
            0x00684820      2f11           move.l (a1), -(a7)
            0x00684822      2f2c0038       move.l 0x38(a4), -(a7)
            0x00684826      f2044000       fmove.l d4, fp0
            0x0068482a      f2276400       fmove.s fp0, -(a7)
            0x0068482e      3f01           move.w d1, -(a7)
            0x00684830      4ebade9c       jsr 0x6826ce(pc)
            0x00684834      dec2           adda.w d2, a7
            0x00684836      2853           movea.l (a3), a4
            0x00684838      f2114400       fmove.s (a1), fp0
            0x0068483c      f22c4438003c   fcmp.s 0x3c(a4), fp0
            0x00684842      f296003c       fbf.w 0x684880
            0x00684846      2f10           move.l (a0), -(a7)
            0x00684848      2f2c0008       move.l 0x8(a4), -(a7)
            0x0068484c      4ebadf5e       jsr 0x6827ac(pc)
            0x00684850      504f           addq.w 0x8, a7
            0x00684852      2853           movea.l (a3), a4
            0x00684854      3f2c0006       move.w 0x6(a4), -(a7)
            0x00684858      3f2c000a       move.w 0xa(a4), -(a7)
            0x0068485c      2f2c0014       move.l 0x14(a4), -(a7)
            0x00684860      2f12           move.l (a2), -(a7)
            0x00684862      2f2c0040       move.l 0x40(a4), -(a7)
            0x00684866      2f2c003c       move.l 0x3c(a4), -(a7)
            0x0068486a      2f2c0038       move.l 0x38(a4), -(a7)
            0x0068486e      f2044000       fmove.l d4, fp0
            0x00684872      f2276400       fmove.s fp0, -(a7)
            0x00684876      3f01           move.w d1, -(a7)
            0x00684878      4ebade54       jsr 0x6826ce(pc)
            0x0068487c      dec2           adda.w d2, a7
            0x0068487e      2853           movea.l (a3), a4
            0x00684880      f2124400       fmove.s (a2), fp0
            0x00684884      f22c44380044   fcmp.s 0x44(a4), fp0
            0x0068488a      f299024c       fbf.w 0x684ad8
            0x0068488e      f2114400       fmove.s (a1), fp0
            0x00684892      f22c4438003c   fcmp.s 0x3c(a4), fp0
            0x00684898      f299023e       fbf.w 0x684ad8
            0x0068489c      2010           move.l (a0), d0
            0x0068489e      5280           addq.l 0x1, d0
            0x006848a0      f2004000       fmove.l d0, fp0
            0x006848a4      f22c44280018   fsub.s 0x18(a4), fp0
            0x006848aa      f2114480       fmove.s (a1), fp1
            0x006848ae      f21244a8       fsub.s (a2), fp1
            0x006848b2      f2000423       fmul fp1, fp0
            0x006848b6      f22c45000014   fmove.s 0x14(a4), fp2
            0x006848bc      f22c45280018   fsub.s 0x18(a4), fp2
            0x006848c2      f20008a3       fmul fp2, fp1
            0x006848c6      f20340a0       fdiv.l d3, fp1
            0x006848ca      f200049a       fneg fp1
            0x006848ce      f20000a2       fadd fp0, fp1
            0x006848d2      f22c6480002c   fmove.s fp1, 0x2c(a4)
            0x006848d8      3f2c0006       move.w 0x6(a4), -(a7)
            0x006848dc      3f2c000a       move.w 0xa(a4), -(a7)
            0x006848e0      2f2c0014       move.l 0x14(a4), -(a7)
            0x006848e4      2f12           move.l (a2), -(a7)
        ┌─< 0x006848e6      600001d8       bra.w 0x684ac0
        │   0x006848ea      f22c44000048   fmove.s 0x48(a4), fp0
        │   0x006848f0      f2104028       fsub.l (a0), fp0
        │   0x006848f4      f22c44230038   fmul.s 0x38(a4), fp0
        │   0x006848fa      f200001a       fneg fp0
        │   0x006848fe      f22c44220044   fadd.s 0x44(a4), fp0
        │   0x00684904      f22c64000020   fmove.s fp0, 0x20(a4)
        │   0x0068490a      f2124400       fmove.s (a2), fp0
        │   0x0068490e      f22c44380044   fcmp.s 0x44(a4), fp0
        │   0x00684914      f296003a       fbf.w 0x684950
        │   0x00684918      2f10           move.l (a0), -(a7)
        │   0x0068491a      2f2c0008       move.l 0x8(a4), -(a7)
        │   0x0068491e      4ebade8c       jsr 0x6827ac(pc)
        │   0x00684922      504f           addq.w 0x8, a7
        │   0x00684924      2853           movea.l (a3), a4
        │   0x00684926      3f2c0006       move.w 0x6(a4), -(a7)
        │   0x0068492a      3f2c000a       move.w 0xa(a4), -(a7)
        │   0x0068492e      2f2c0048       move.l 0x48(a4), -(a7)
        │   0x00684932      2f2c0044       move.l 0x44(a4), -(a7)
        │   0x00684936      f2104000       fmove.l (a0), fp0
        │   0x0068493a      f2276400       fmove.s fp0, -(a7)
        │   0x0068493e      2f2c0020       move.l 0x20(a4), -(a7)
        │   0x00684942      2f2c0038       move.l 0x38(a4), -(a7)
        │   0x00684946      f2044000       fmove.l d4, fp0
        │   0x0068494a      f2276400       fmove.s fp0, -(a7)
       ┌──< 0x0068494e      6056           bra.b 0x6849a6
       ││   0x00684950      f22c44000020   fmove.s 0x20(a4), fp0
       ││   0x00684956      f2124428       fsub.s (a2), fp0
       ││   0x0068495a      f22c44800014   fmove.s 0x14(a4), fp1
       ││   0x00684960      f21040a8       fsub.l (a0), fp1
       ││   0x00684964      f20000a3       fmul fp0, fp1
       ││   0x00684968      f20340a0       fdiv.l d3, fp1
       ││   0x0068496c      f22c40000008   fmove.l 0x8(a4), fp0
       ││   0x00684972      f2124428       fsub.s (a2), fp0
       ││   0x00684976      f200049a       fneg fp1
       ││   0x0068497a      f20000a2       fadd fp0, fp1
       ││   0x0068497e      f22c6480002c   fmove.s fp1, 0x2c(a4)
       ││   0x00684984      3f2c0006       move.w 0x6(a4), -(a7)
       ││   0x00684988      3f2c000a       move.w 0xa(a4), -(a7)
       ││   0x0068498c      2f2c0014       move.l 0x14(a4), -(a7)
       ││   0x00684990      2f12           move.l (a2), -(a7)
       ││   0x00684992      f2104000       fmove.l (a0), fp0
       ││   0x00684996      f2276400       fmove.s fp0, -(a7)
       ││   0x0068499a      2f2c0020       move.l 0x20(a4), -(a7)
       ││   0x0068499e      2f2c0038       move.l 0x38(a4), -(a7)
       ││   0x006849a2      2f2c002c       move.l 0x2c(a4), -(a7)
       └──> 0x006849a6      3f01           move.w d1, -(a7)
        │   0x006849a8      4ebadd24       jsr 0x6826ce(pc)
        │   0x006849ac      dec2           adda.w d2, a7
        │   0x006849ae      2853           movea.l (a3), a4
        │   0x006849b0      5390           subq.l 0x1, (a0)
       ┌──> 0x006849b2      296c0020001c   move.l 0x20(a4), 0x1c(a4)
       ╎│   0x006849b8      594f           subq.w 0x4, a7
       ╎│   0x006849ba      2f2c0018       move.l 0x18(a4), -(a7)
       ╎│   0x006849be      4eb9004081f8   jsr p_trunc
       ╎│   0x006849c4      584f           addq.w 0x4, a7
       ╎│   0x006849c6      201f           move.l (a7)+, d0
       ╎│   0x006849c8      b090           cmp.l (a0), d0
      ┌───< 0x006849ca      6c6e           bge.b 0x684a3a
      │╎│   0x006849cc      f22c4400001c   fmove.s 0x1c(a4), fp0
      │╎│   0x006849d2      f22c44280038   fsub.s 0x38(a4), fp0
      │╎│   0x006849d8      f22c64000020   fmove.s fp0, 0x20(a4)
      │╎│   0x006849de      f22c4428001c   fsub.s 0x1c(a4), fp0
      │╎│   0x006849e4      f2034020       fdiv.l d3, fp0
      │╎│   0x006849e8      f22c40800008   fmove.l 0x8(a4), fp1
      │╎│   0x006849ee      f22c44a80020   fsub.s 0x20(a4), fp1
      │╎│   0x006849f4      f20000a2       fadd fp0, fp1
      │╎│   0x006849f8      f22c6480002c   fmove.s fp1, 0x2c(a4)
      │╎│   0x006849fe      2010           move.l (a0), d0
      │╎│   0x00684a00      5380           subq.l 0x1, d0
      │╎│   0x00684a02      3f2c0006       move.w 0x6(a4), -(a7)
      │╎│   0x00684a06      3f2c000a       move.w 0xa(a4), -(a7)
      │╎│   0x00684a0a      f2104000       fmove.l (a0), fp0
      │╎│   0x00684a0e      f2276400       fmove.s fp0, -(a7)
      │╎│   0x00684a12      2f2c001c       move.l 0x1c(a4), -(a7)
      │╎│   0x00684a16      f2004000       fmove.l d0, fp0
      │╎│   0x00684a1a      f2276400       fmove.s fp0, -(a7)
      │╎│   0x00684a1e      2f2c0020       move.l 0x20(a4), -(a7)
      │╎│   0x00684a22      2f2c0038       move.l 0x38(a4), -(a7)
      │╎│   0x00684a26      2f2c002c       move.l 0x2c(a4), -(a7)
      │╎│   0x00684a2a      3f01           move.w d1, -(a7)
      │╎│   0x00684a2c      4ebadca0       jsr 0x6826ce(pc)
      │╎│   0x00684a30      dec2           adda.w d2, a7
      │╎│   0x00684a32      2853           movea.l (a3), a4
      │╎│   0x00684a34      2080           move.l d0, (a0)
      │└──< 0x00684a36      6000ff7a       bra.w 0x6849b2
      └───> 0x00684a3a      f2114400       fmove.s (a1), fp0
        │   0x00684a3e      f22c4438003c   fcmp.s 0x3c(a4), fp0
        │   0x00684a44      f2960032       fbf.w 0x684a78
        │   0x00684a48      2f10           move.l (a0), -(a7)
        │   0x00684a4a      2f2c0008       move.l 0x8(a4), -(a7)
        │   0x00684a4e      4ebadd5c       jsr 0x6827ac(pc)
        │   0x00684a52      504f           addq.w 0x8, a7
        │   0x00684a54      2853           movea.l (a3), a4
        │   0x00684a56      3f2c0006       move.w 0x6(a4), -(a7)
        │   0x00684a5a      3f2c000a       move.w 0xa(a4), -(a7)
        │   0x00684a5e      2010           move.l (a0), d0
        │   0x00684a60      5280           addq.l 0x1, d0
        │   0x00684a62      f2004000       fmove.l d0, fp0
        │   0x00684a66      f2276400       fmove.s fp0, -(a7)
        │   0x00684a6a      2f2c001c       move.l 0x1c(a4), -(a7)
        │   0x00684a6e      2f2c0040       move.l 0x40(a4), -(a7)
        │   0x00684a72      2f2c003c       move.l 0x3c(a4), -(a7)
       ┌──< 0x00684a76      604e           bra.b 0x684ac6
       ││   0x00684a78      f2114400       fmove.s (a1), fp0
       ││   0x00684a7c      f22c44280020   fsub.s 0x20(a4), fp0
       ││   0x00684a82      2010           move.l (a0), d0
       ││   0x00684a84      5280           addq.l 0x1, d0
       ││   0x00684a86      f2004080       fmove.l d0, fp1
       ││   0x00684a8a      f22c44a80018   fsub.s 0x18(a4), fp1
       ││   0x00684a90      f20000a3       fmul fp0, fp1
       ││   0x00684a94      f20340a0       fdiv.l d3, fp1
       ││   0x00684a98      f22c40000008   fmove.l 0x8(a4), fp0
       ││   0x00684a9e      f2114428       fsub.s (a1), fp0
       ││   0x00684aa2      f20000a2       fadd fp0, fp1
       ││   0x00684aa6      f22c6480002c   fmove.s fp1, 0x2c(a4)
       ││   0x00684aac      3f2c0006       move.w 0x6(a4), -(a7)
       ││   0x00684ab0      3f2c000a       move.w 0xa(a4), -(a7)
       ││   0x00684ab4      f2004000       fmove.l d0, fp0
       ││   0x00684ab8      f2276400       fmove.s fp0, -(a7)
       ││   0x00684abc      2f2c001c       move.l 0x1c(a4), -(a7)
       │└─> 0x00684ac0      2f2c0018       move.l 0x18(a4), -(a7)
       │    0x00684ac4      2f11           move.l (a1), -(a7)
       └──> 0x00684ac6      2f2c0038       move.l 0x38(a4), -(a7)
            0x00684aca      2f2c002c       move.l 0x2c(a4), -(a7)
            0x00684ace      3f01           move.w d1, -(a7)
            0x00684ad0      4ebadbfc       jsr 0x6826ce(pc)
            0x00684ad4      dec2           adda.w d2, a7
            0x00684ad6      2853           movea.l (a3), a4
            0x00684ad8      2491           move.l (a1), (a2)
            0x00684ada      f2114400       fmove.s (a1), fp0
            0x00684ade      f23c40220000.  fadd.l 0x1, fp0
            0x00684ae6      f2116400       fmove.s fp0, (a1)
            0x00684aea      296c00180014   move.l 0x18(a4), 0x14(a4)
            0x00684af0      f21fd0e0       fmovem (a7)+, fp0-fp2
            0x00684af4      4cdf1f1f       movem.l (a7)+, d0-d4/a0-a4
            0x00684af8      4e5e           unlk a6
            0x00684afa      4e75           rts
┌ 24: FONTLET.quadrant4 ();
│           0x00684afc      4e56ff6c       link.w a6, 0xff6c
│           0x00684b00      bfd5           cmpa.l (a5), a7
│       ┌─< 0x00684b02      6206           bhi.b 0x684b0a
│       │   0x00684b04      44fc0002       move.w 0x2, ccr
│       │   0x00684b08      4e76           trapv
│       └─> 0x00684b0a      defc0068       adda.w 0x68, a7
│           0x00684b0e      48e7c3f8       movem.l d0-d1/d6-d7/a0-a4, -(a7)
│           0x00684b12      f227e003       fmovem fp0-fp1, -(a7)
            0x00684b16      41f9004081f8   lea.l p_trunc, a0
            0x00684b1c      43ee0014       lea.l 0x14(a6), a1
            0x00684b20      45ee0018       lea.l 0x18(a6), a2
            0x00684b24      47eeffd0       lea.l -0x30(a6), a3
            0x00684b28      7201           moveq 0x1, d1
            0x00684b2a      594f           subq.w 0x4, a7
            0x00684b2c      2f11           move.l (a1), -(a7)
            0x00684b2e      4e90           jsr (a0)                    ; fcn.00000009
            0x00684b30      584f           addq.w 0x4, a7
            0x00684b32      2d5fffd8       move.l (a7)+, -0x28(a6)
            0x00684b36      52aeffd8       addq.l 0x1, -0x28(a6)
            0x00684b3a      594f           subq.w 0x4, a7
            0x00684b3c      2f12           move.l (a2), -(a7)
            0x00684b3e      4e90           jsr (a0)                    ; fcn.00000009
            0x00684b40      584f           addq.w 0x4, a7
            0x00684b42      f2124400       fmove.s (a2), fp0
            0x00684b46      f21f4038       fcmp.l (a7)+, fp0
            0x00684b4a      f2960012       fbf.w 0x684b5e
            0x00684b4e      594f           subq.w 0x4, a7
            0x00684b50      f2124400       fmove.s (a2), fp0
            0x00684b54      f2014028       fsub.l d1, fp0
            0x00684b58      f2276400       fmove.s fp0, -(a7)
        ┌─< 0x00684b5c      6004           bra.b 0x684b62
        │   0x00684b5e      594f           subq.w 0x4, a7
        │   0x00684b60      2f12           move.l (a2), -(a7)
        └─> 0x00684b62      4e90           jsr (a0)                    ; fcn.00000009
            0x00684b64      584f           addq.w 0x4, a7
            0x00684b66      2d5fffd4       move.l (a7)+, -0x2c(a6)
            0x00684b6a      594f           subq.w 0x4, a7
            0x00684b6c      2f11           move.l (a1), -(a7)
            0x00684b6e      4e90           jsr (a0)                    ; fcn.00000009
            0x00684b70      584f           addq.w 0x4, a7
            0x00684b72      201f           move.l (a7)+, d0
            0x00684b74      5280           addq.l 0x1, d0
            0x00684b76      f22e4400000c   fmove.s 0xc(a6), fp0
            0x00684b7c      f2004038       fcmp.l d0, fp0
            0x00684b80      f29a0016       fbf.w 0x684b98
            0x00684b84      2f2effd4       move.l -0x2c(a6), -(a7)
            0x00684b88      2f2effd8       move.l -0x28(a6), -(a7)
            0x00684b8c      284b           movea.l a3, a4
            0x00684b8e      4ebafa1e       jsr FONTLET.noncrossers4(pc)
            0x00684b92      504f           addq.w 0x8, a7
        ┌─< 0x00684b94      600000d2       bra.w 0x684c68
        │   0x00684b98      594f           subq.w 0x4, a7
        │   0x00684b9a      2f2e000c       move.l 0xc(a6), -(a7)
        │   0x00684b9e      4e90           jsr (a0)                    ; fcn.00000009
        │   0x00684ba0      584f           addq.w 0x4, a7
        │   0x00684ba2      2e17           move.l (a7), d7
        │   0x00684ba4      2f11           move.l (a1), -(a7)
        │   0x00684ba6      4e90           jsr (a0)                    ; fcn.00000009
        │   0x00684ba8      584f           addq.w 0x4, a7
        │   0x00684baa      201f           move.l (a7)+, d0
        │   0x00684bac      5280           addq.l 0x1, d0
        │   0x00684bae      f2004000       fmove.l d0, fp0
        │   0x00684bb2      f22e6400fff8   fmove.s fp0, -0x8(a6)
        │   0x00684bb8      2d51fff4       move.l (a1), -0xc(a6)
        │   0x00684bbc      2d52ffe4       move.l (a2), -0x1c(a6)
        │   0x00684bc0      f22e4400fff8   fmove.s -0x8(a6), fp0
        │   0x00684bc6      f2114428       fsub.s (a1), fp0
        │   0x00684bca      f2014080       fmove.l d1, fp1
        │   0x00684bce      f22e44a00008   fdiv.s 0x8(a6), fp1
        │   0x00684bd4      f20000a3       fmul fp0, fp1
        │   0x00684bd8      f21244a2       fadd.s (a2), fp1
        │   0x00684bdc      f22e6480ffe8   fmove.s fp1, -0x18(a6)
        │   0x00684be2      284b           movea.l a3, a4
        │   0x00684be4      4ebafbca       jsr FONTLET.area4(pc)
        │   0x00684be8      2853           movea.l (a3), a4
        │   0x00684bea      594f           subq.w 0x4, a7
        │   0x00684bec      2f11           move.l (a1), -(a7)
        │   0x00684bee      4e90           jsr (a0)                    ; fcn.00000009
        │   0x00684bf0      584f           addq.w 0x4, a7
        │   0x00684bf2      2c1f           move.l (a7)+, d6
        │   0x00684bf4      5486           addq.l 0x2, d6
        │   0x00684bf6      bc87           cmp.l d7, d6
       ┌──< 0x00684bf8      6e3c           bgt.b 0x684c36
       ││   0x00684bfa      2f07           move.l d7, -(a7)
       ││   0x00684bfc      2006           move.l d6, d0
      ┌───> 0x00684bfe      b097           cmp.l (a7), d0
     ┌────< 0x00684c00      6e32           bgt.b 0x684c34
     │╎││   0x00684c02      2d40ffd8       move.l d0, -0x28(a6)
     │╎││   0x00684c06      f22e4400fff8   fmove.s -0x8(a6), fp0
     │╎││   0x00684c0c      f2114428       fsub.s (a1), fp0
     │╎││   0x00684c10      f2014080       fmove.l d1, fp1
     │╎││   0x00684c14      f22e44a00008   fdiv.s 0x8(a6), fp1
     │╎││   0x00684c1a      f20000a3       fmul fp0, fp1
     │╎││   0x00684c1e      f21244a2       fadd.s (a2), fp1
     │╎││   0x00684c22      f22e6480ffe8   fmove.s fp1, -0x18(a6)
     │╎││   0x00684c28      284b           movea.l a3, a4
     │╎││   0x00684c2a      4ebafb84       jsr FONTLET.area4(pc)
     │╎││   0x00684c2e      2853           movea.l (a3), a4
     │╎││   0x00684c30      5280           addq.l 0x1, d0
     │└───< 0x00684c32      68ca           bvc.b 0x684bfe
     └────> 0x00684c34      584f           addq.w 0x4, a7
       └──> 0x00684c36      2d6e0010ffe8   move.l 0x10(a6), -0x18(a6)
        │   0x00684c3c      2d6e000cfff8   move.l 0xc(a6), -0x8(a6)
        │   0x00684c42      2d47ffd8       move.l d7, -0x28(a6)
        │   0x00684c46      52aeffd8       addq.l 0x1, -0x28(a6)
        │   0x00684c4a      594f           subq.w 0x4, a7
        │   0x00684c4c      2f2e000c       move.l 0xc(a6), -(a7)
        │   0x00684c50      4e90           jsr (a0)                    ; fcn.00000009
        │   0x00684c52      584f           addq.w 0x4, a7
        │   0x00684c54      f22e4400fff8   fmove.s -0x8(a6), fp0
        │   0x00684c5a      f21f4038       fcmp.l (a7)+, fp0
        │   0x00684c5e      f299000a       fbf.w 0x684c6a
        │   0x00684c62      284b           movea.l a3, a4
        │   0x00684c64      4ebafb4a       jsr FONTLET.area4(pc)
        └─> 0x00684c68      2853           movea.l (a3), a4
            0x00684c6a      f21fd0c0       fmovem (a7)+, fp0-fp1
            0x00684c6e      4cdf1fc3       movem.l (a7)+, d0-d1/d6-d7/a0-a4
            0x00684c72      4e5e           unlk a6
            0x00684c74      4e75           rts
┌ 24: FONTLET.line_chopper ();
│           0x00684c76      4e56ff6e       link.w a6, 0xff6e
│           0x00684c7a      bfd5           cmpa.l (a5), a7
│       ┌─< 0x00684c7c      6206           bhi.b 0x684c84
│       │   0x00684c7e      44fc0002       move.w 0x2, ccr
│       │   0x00684c82      4e76           trapv
│       └─> 0x00684c84      defc007e       adda.w 0x7e, a7
│           0x00684c88      48e7e7f0       movem.l d0-d2/d5-d7/a0-a3, -(a7)
│           0x00684c8c      f227e081       fmovem fp0/fp7, -(a7)
            0x00684c90      41ee0018       lea.l 0x18(a6), a0
            0x00684c94      43ee0010       lea.l 0x10(a6), a1
            0x00684c98      45f9004081f8   lea.l p_trunc, a2
            0x00684c9e      47ee000a       lea.l 0xa(a6), a3
            0x00684ca2      740a           moveq 0xa, d2
            0x00684ca4      594f           subq.w 0x4, a7
            0x00684ca6      2f10           move.l (a0), -(a7)
            0x00684ca8      4e92           jsr (a2)                    ; fcn.00000009+0x2
            0x00684caa      584f           addq.w 0x4, a7
            0x00684cac      2e1f           move.l (a7)+, d7
            0x00684cae      2007           move.l d7, d0
            0x00684cb0      5280           addq.l 0x1, d0
            0x00684cb2      f2114400       fmove.s (a1), fp0
            0x00684cb6      f2004038       fcmp.l d0, fp0
            0x00684cba      f29a0018       fbf.w 0x684cd4
            0x00684cbe      f2104400       fmove.s (a0), fp0
            0x00684cc2      f2074038       fcmp.l d7, fp0
            0x00684cc6      f2960106       fbf.w 0x684dce
            0x00684cca      2f2e0014       move.l 0x14(a6), -(a7)
            0x00684cce      3f00           move.w d0, -(a7)
        ┌─< 0x00684cd0      600000f0       bra.w 0x684dc2
        │   0x00684cd4      2207           move.l d7, d1
        │   0x00684cd6      5481           addq.l 0x2, d1
        │   0x00684cd8      f2114400       fmove.s (a1), fp0
        │   0x00684cdc      f2014038       fcmp.l d1, fp0
        │   0x00684ce0      f29a003e       fbf.w 0x684d20
        │   0x00684ce4      f2104400       fmove.s (a0), fp0
        │   0x00684ce8      f2074038       fcmp.l d7, fp0
        │   0x00684cec      f2960028       fbf.w 0x684d16
        │   0x00684cf0      f2004380       fmove.l d0, fp7
        │   0x00684cf4      f21047a8       fsub.s (a0), fp7
        │   0x00684cf8      f22e47a0000c   fdiv.s 0xc(a6), fp7
        │   0x00684cfe      f22e47a2001c   fadd.s 0x1c(a6), fp7
        │   0x00684d04      f2276780       fmove.s fp7, -(a7)
        │   0x00684d08      3f00           move.w d0, -(a7)
        │   0x00684d0a      3f13           move.w (a3), -(a7)
        │   0x00684d0c      1f2e0008       move.b 0x8(a6), -(a7)
        │   0x00684d10      4ebadca0       jsr FONTLET.fillendpoints(pc)
        │   0x00684d14      dec2           adda.w d2, a7
        │   0x00684d16      2f2e0014       move.l 0x14(a6), -(a7)
        │   0x00684d1a      3f01           move.w d1, -(a7)
       ┌──< 0x00684d1c      600000a4       bra.w 0x684dc2
       ││   0x00684d20      f2104400       fmove.s (a0), fp0
       ││   0x00684d24      f2074038       fcmp.l d7, fp0
       ││   0x00684d28      f2960006       fbf.w 0x684d30
       ││   0x00684d2c      2c00           move.l d0, d6
      ┌───< 0x00684d2e      6002           bra.b 0x684d32
      │││   0x00684d30      2c01           move.l d1, d6
      └───> 0x00684d32      f2064380       fmove.l d6, fp7
       ││   0x00684d36      f21047a8       fsub.s (a0), fp7
       ││   0x00684d3a      f22e47a0000c   fdiv.s 0xc(a6), fp7
       ││   0x00684d40      f22e47a2001c   fadd.s 0x1c(a6), fp7
       ││   0x00684d46      f2276780       fmove.s fp7, -(a7)
       ││   0x00684d4a      3f06           move.w d6, -(a7)
       ││   0x00684d4c      3f13           move.w (a3), -(a7)
       ││   0x00684d4e      1f2e0008       move.b 0x8(a6), -(a7)
       ││   0x00684d52      4ebadc5e       jsr FONTLET.fillendpoints(pc)
       ││   0x00684d56      544f           addq.w 0x2, a7
       ││   0x00684d58      2e91           move.l (a1), (a7)
       ││   0x00684d5a      4e92           jsr (a2)                    ; fcn.00000009+0x2
       ││   0x00684d5c      584f           addq.w 0x4, a7
       ││   0x00684d5e      2a1f           move.l (a7)+, d5
       ││   0x00684d60      2006           move.l d6, d0
       ││   0x00684d62      5280           addq.l 0x1, d0
       ││   0x00684d64      b085           cmp.l d5, d0
      ┌───< 0x00684d66      6e34           bgt.b 0x684d9c
      │││   0x00684d68      2f05           move.l d5, -(a7)
      │││   0x00684d6a      2e00           move.l d0, d7
     ┌────> 0x00684d6c      be97           cmp.l (a7), d7
    ┌─────< 0x00684d6e      6e2a           bgt.b 0x684d9a
    │╎│││   0x00684d70      f2074380       fmove.l d7, fp7
    │╎│││   0x00684d74      f21047a8       fsub.s (a0), fp7
    │╎│││   0x00684d78      f22e47a0000c   fdiv.s 0xc(a6), fp7
    │╎│││   0x00684d7e      f22e47a2001c   fadd.s 0x1c(a6), fp7
    │╎│││   0x00684d84      f2276780       fmove.s fp7, -(a7)
    │╎│││   0x00684d88      3f07           move.w d7, -(a7)
    │╎│││   0x00684d8a      3f13           move.w (a3), -(a7)
    │╎│││   0x00684d8c      1f2e0008       move.b 0x8(a6), -(a7)
    │╎│││   0x00684d90      4ebadc20       jsr FONTLET.fillendpoints(pc)
    │╎│││   0x00684d94      dec2           adda.w d2, a7
    │╎│││   0x00684d96      5287           addq.l 0x1, d7
    │└────< 0x00684d98      68d2           bvc.b 0x684d6c
    └─────> 0x00684d9a      584f           addq.w 0x4, a7
      └───> 0x00684d9c      594f           subq.w 0x4, a7
       ││   0x00684d9e      2f11           move.l (a1), -(a7)
       ││   0x00684da0      4e92           jsr (a2)                    ; fcn.00000009+0x2
       ││   0x00684da2      584f           addq.w 0x4, a7
       ││   0x00684da4      f2114400       fmove.s (a1), fp0
       ││   0x00684da8      f21f4038       fcmp.l (a7)+, fp0
       ││   0x00684dac      f2990020       fbf.w 0x684dce
       ││   0x00684db0      2f2e0014       move.l 0x14(a6), -(a7)
       ││   0x00684db4      5d4f           subq.w 0x6, a7
       ││   0x00684db6      2f11           move.l (a1), -(a7)
       ││   0x00684db8      4e92           jsr (a2)                    ; fcn.00000009+0x2
       ││   0x00684dba      584f           addq.w 0x4, a7
       ││   0x00684dbc      201f           move.l (a7)+, d0
       ││   0x00684dbe      5280           addq.l 0x1, d0
       ││   0x00684dc0      3e80           move.w d0, (a7)
       └└─> 0x00684dc2      3f13           move.w (a3), -(a7)
            0x00684dc4      1f2e0008       move.b 0x8(a6), -(a7)
            0x00684dc8      4ebadbe8       jsr FONTLET.fillendpoints(pc)
            0x00684dcc      dec2           adda.w d2, a7
            0x00684dce      f21fd081       fmovem (a7)+, fp0/fp7
            0x00684dd2      4cdf0fe7       movem.l (a7)+, d0-d2/d5-d7/a0-a3
            0x00684dd6      4e5e           unlk a6
            0x00684dd8      4e75           rts
            0x00684dda      .byte 0x28
            0x00684ddb      .byte 0x54
┌ 24: FONTLET.intersections ();
│           0x00684ddc      4e56ffa8       link.w a6, 0xffa8
│           0x00684de0      bfd5           cmpa.l (a5), a7
│       ┌─< 0x00684de2      6206           bhi.b 0x684dea
│       │   0x00684de4      44fc0002       move.w 0x2, ccr
│       │   0x00684de8      4e76           trapv
│       └─> 0x00684dea      defc0054       adda.w 0x54, a7
│           0x00684dee      48e7f0f0       movem.l d0-d3/a0-a3, -(a7)
│           0x00684df2      f227e081       fmovem fp0/fp7, -(a7)
            0x00684df6      41ee0010       lea.l 0x10(a6), a0
            0x00684dfa      43ee0014       lea.l 0x14(a6), a1
            0x00684dfe      45ee0008       lea.l 0x8(a6), a2
            0x00684e02      47ee000c       lea.l 0xc(a6), a3
            0x00684e06      7218           moveq 0x18, d1
            0x00684e08      7401           moveq 0x1, d2
            0x00684e0a      7602           moveq 0x2, d3
            0x00684e0c      f2104400       fmove.s (a0), fp0
            0x00684e10      f2124438       fcmp.s (a2), fp0
            0x00684e14      f296001c       fbf.w 0x684e32
            0x00684e18      4a2c00e4       tst.b 0xe4(a4)
        ┌─< 0x00684e1c      6700022c       beq.w 0x68504a
        │   0x00684e20      2f11           move.l (a1), -(a7)
        │   0x00684e22      2f13           move.l (a3), -(a7)
        │   0x00684e24      2f10           move.l (a0), -(a7)
        │   0x00684e26      4ebadbec       jsr FONTLET.horizontal_line(pc)
       ┌──> 0x00684e2a      defc000c       adda.w 0xc, a7
      ┌───< 0x00684e2e      6000021a       bra.w 0x68504a
      │╎│   0x00684e32      4a2c00de       tst.b 0xde(a4)
     ┌────< 0x00684e36      671c           beq.b 0x684e54
     ││╎│   0x00684e38      f22c440000ca   fmove.s 0xca(a4), fp0
     ││╎│   0x00684e3e      f2114428       fsub.s (a1), fp0
     ││╎│   0x00684e42      f2116400       fmove.s fp0, (a1)
     ││╎│   0x00684e46      f22c440000ca   fmove.s 0xca(a4), fp0
     ││╎│   0x00684e4c      f2134428       fsub.s (a3), fp0
     ││╎│   0x00684e50      f2136400       fmove.s fp0, (a3)
     └────> 0x00684e54      4a2c00dc       tst.b 0xdc(a4)
     ┌────< 0x00684e58      6620           bne.b 0x684e7a
     ││╎│   0x00684e5a      202c0028       move.l 0x28(a4), d0
     ││╎│   0x00684e5e      4c030800       muls.l d3, d0
     ││╎│   0x00684e62      f2004000       fmove.l d0, fp0
     ││╎│   0x00684e66      f2104428       fsub.s (a0), fp0
     ││╎│   0x00684e6a      f2106400       fmove.s fp0, (a0)
     ││╎│   0x00684e6e      f2004000       fmove.l d0, fp0
     ││╎│   0x00684e72      f2124428       fsub.s (a2), fp0
     ││╎│   0x00684e76      f2126400       fmove.s fp0, (a2)
     └────> 0x00684e7a      f2114400       fmove.s (a1), fp0
      │╎│   0x00684e7e      f22c4438001c   fcmp.s 0x1c(a4), fp0
      │╎│   0x00684e84      f29d0006       fbf.w 0x684e8c
      │╎│   0x00684e88      2951001c       move.l (a1), 0x1c(a4)
      │╎│   0x00684e8c      f2134400       fmove.s (a3), fp0
      │╎│   0x00684e90      f22c4438001c   fcmp.s 0x1c(a4), fp0
      │╎│   0x00684e96      f29d0006       fbf.w 0x684e9e
      │╎│   0x00684e9a      2953001c       move.l (a3), 0x1c(a4)
      │╎│   0x00684e9e      f2104400       fmove.s (a0), fp0
      │╎│   0x00684ea2      f22c44380018   fcmp.s 0x18(a4), fp0
      │╎│   0x00684ea8      f29b0006       fbf.w 0x684eb0
      │╎│   0x00684eac      29500018       move.l (a0), 0x18(a4)
      │╎│   0x00684eb0      f2104400       fmove.s (a0), fp0
      │╎│   0x00684eb4      f22c44380020   fcmp.s 0x20(a4), fp0
      │╎│   0x00684eba      f29d0006       fbf.w 0x684ec2
      │╎│   0x00684ebe      29500020       move.l (a0), 0x20(a4)
      │╎│   0x00684ec2      f2124400       fmove.s (a2), fp0
      │╎│   0x00684ec6      f22c44380018   fcmp.s 0x18(a4), fp0
      │╎│   0x00684ecc      f29b0006       fbf.w 0x684ed4
      │╎│   0x00684ed0      29520018       move.l (a2), 0x18(a4)
      │╎│   0x00684ed4      f2124400       fmove.s (a2), fp0
      │╎│   0x00684ed8      f22c44380020   fcmp.s 0x20(a4), fp0
      │╎│   0x00684ede      f29d0006       fbf.w 0x684ee6
      │╎│   0x00684ee2      29520020       move.l (a2), 0x20(a4)
      │╎│   0x00684ee6      f2114400       fmove.s (a1), fp0
      │╎│   0x00684eea      f2134438       fcmp.s (a3), fp0
      │╎│   0x00684eee      f2960060       fbf.w 0x684f50
      │╎│   0x00684ef2      f2104400       fmove.s (a0), fp0
      │╎│   0x00684ef6      f2124438       fcmp.s (a2), fp0
      │╎│   0x00684efa      f29d001e       fbf.w 0x684f1a
      │╎│   0x00684efe      2f11           move.l (a1), -(a7)
      │╎│   0x00684f00      2f12           move.l (a2), -(a7)
      │╎│   0x00684f02      2f11           move.l (a1), -(a7)
      │╎│   0x00684f04      2f10           move.l (a0), -(a7)
      │╎│   0x00684f06      f23c40008000.  fmove.l 0x80000001, fp0
      │╎│   0x00684f0e      f2276400       fmove.s fp0, -(a7)
      │╎│   0x00684f12      3f3c0005       move.w 0x5, -(a7)
      │╎│   0x00684f16      4227           clr.b -(a7)
     ┌────< 0x00684f18      601a           bra.b 0x684f34
     ││╎│   0x00684f1a      2f11           move.l (a1), -(a7)
     ││╎│   0x00684f1c      2f10           move.l (a0), -(a7)
     ││╎│   0x00684f1e      2f11           move.l (a1), -(a7)
     ││╎│   0x00684f20      2f12           move.l (a2), -(a7)
     ││╎│   0x00684f22      f23c40007fff.  fmove.l 0x7fffffff, fp0
     ││╎│   0x00684f2a      f2276400       fmove.s fp0, -(a7)
     ││╎│   0x00684f2e      3f3c0006       move.w 0x6, -(a7)
     ││╎│   0x00684f32      1f02           move.b d2, -(a7)
     └────> 0x00684f34      4ebafd40       jsr FONTLET.line_chopper(pc)
      │╎│   0x00684f38      dec1           adda.w d1, a7
      │╎│   0x00684f3a      4a2c00e4       tst.b 0xe4(a4)
     ┌────< 0x00684f3e      6700010a       beq.w 0x68504a
     ││╎│   0x00684f42      2f11           move.l (a1), -(a7)
     ││╎│   0x00684f44      2f10           move.l (a0), -(a7)
     ││╎│   0x00684f46      2f12           move.l (a2), -(a7)
     ││╎│   0x00684f48      4ebadf92       jsr FONTLET.vertical(pc)
     ││└──< 0x00684f4c      6000fedc       bra.w 0x684e2a
     ││ │   0x00684f50      f2104780       fmove.s (a0), fp7
     ││ │   0x00684f54      f21247a8       fsub.s (a2), fp7
     ││ │   0x00684f58      f2114400       fmove.s (a1), fp0
     ││ │   0x00684f5c      f2134428       fsub.s (a3), fp0
     ││ │   0x00684f60      f20003a0       fdiv fp0, fp7
     ││ │   0x00684f64      f2104400       fmove.s (a0), fp0
     ││ │   0x00684f68      f2124438       fcmp.s (a2), fp0
     ││ │   0x00684f6c      f29d0070       fbf.w 0x684fde
     ││ │   0x00684f70      f2134400       fmove.s (a3), fp0
     ││ │   0x00684f74      f2114438       fcmp.s (a1), fp0
     ││ │   0x00684f78      f29d0034       fbf.w 0x684fae
     ││ │   0x00684f7c      2f13           move.l (a3), -(a7)
     ││ │   0x00684f7e      2f12           move.l (a2), -(a7)
     ││ │   0x00684f80      2f11           move.l (a1), -(a7)
     ││ │   0x00684f82      2f10           move.l (a0), -(a7)
     ││ │   0x00684f84      f2276780       fmove.s fp7, -(a7)
     ││ │   0x00684f88      3f02           move.w d2, -(a7)
     ││ │   0x00684f8a      4227           clr.b -(a7)
     ││ │   0x00684f8c      4ebafce8       jsr FONTLET.line_chopper(pc)
     ││ │   0x00684f90      dec1           adda.w d1, a7
     ││ │   0x00684f92      4a2c00e4       tst.b 0xe4(a4)
     ││┌──< 0x00684f96      670000b2       beq.w 0x68504a
     ││││   0x00684f9a      2f11           move.l (a1), -(a7)
     ││││   0x00684f9c      2f10           move.l (a0), -(a7)
     ││││   0x00684f9e      2f13           move.l (a3), -(a7)
     ││││   0x00684fa0      2f12           move.l (a2), -(a7)
     ││││   0x00684fa2      f2276780       fmove.s fp7, -(a7)
     ││││   0x00684fa6      4ebae72c       jsr FONTLET.quadrant1(pc)
    ┌─────< 0x00684faa      6000009a       bra.w 0x685046
    │││││   0x00684fae      2f13           move.l (a3), -(a7)
    │││││   0x00684fb0      2f12           move.l (a2), -(a7)
    │││││   0x00684fb2      2f11           move.l (a1), -(a7)
    │││││   0x00684fb4      2f10           move.l (a0), -(a7)
    │││││   0x00684fb6      f2276780       fmove.s fp7, -(a7)
    │││││   0x00684fba      3f3c0003       move.w 0x3, -(a7)
    │││││   0x00684fbe      4227           clr.b -(a7)
    │││││   0x00684fc0      4ebafcb4       jsr FONTLET.line_chopper(pc)
    │││││   0x00684fc4      dec1           adda.w d1, a7
    │││││   0x00684fc6      4a2c00e4       tst.b 0xe4(a4)
   ┌──────< 0x00684fca      677e           beq.b 0x68504a
   ││││││   0x00684fcc      2f11           move.l (a1), -(a7)
   ││││││   0x00684fce      2f10           move.l (a0), -(a7)
   ││││││   0x00684fd0      2f13           move.l (a3), -(a7)
   ││││││   0x00684fd2      2f12           move.l (a2), -(a7)
   ││││││   0x00684fd4      f2276780       fmove.s fp7, -(a7)
   ││││││   0x00684fd8      4ebaf484       jsr FONTLET.quadrant3(pc)
  ┌───────< 0x00684fdc      6068           bra.b 0x685046
  │││││││   0x00684fde      f2134400       fmove.s (a3), fp0
  │││││││   0x00684fe2      f2114438       fcmp.s (a1), fp0
  │││││││   0x00684fe6      f29d0030       fbf.w 0x685018
  │││││││   0x00684fea      2f11           move.l (a1), -(a7)
  │││││││   0x00684fec      2f10           move.l (a0), -(a7)
  │││││││   0x00684fee      2f13           move.l (a3), -(a7)
  │││││││   0x00684ff0      2f12           move.l (a2), -(a7)
  │││││││   0x00684ff2      f2276780       fmove.s fp7, -(a7)
  │││││││   0x00684ff6      3f03           move.w d3, -(a7)
  │││││││   0x00684ff8      1f02           move.b d2, -(a7)
  │││││││   0x00684ffa      4ebafc7a       jsr FONTLET.line_chopper(pc)
  │││││││   0x00684ffe      dec1           adda.w d1, a7
  │││││││   0x00685000      4a2c00e4       tst.b 0xe4(a4)
  ────────< 0x00685004      6744           beq.b 0x68504a
  │││││││   0x00685006      2f11           move.l (a1), -(a7)
  │││││││   0x00685008      2f10           move.l (a0), -(a7)
  │││││││   0x0068500a      2f13           move.l (a3), -(a7)
  │││││││   0x0068500c      2f12           move.l (a2), -(a7)
  │││││││   0x0068500e      f2276780       fmove.s fp7, -(a7)
  │││││││   0x00685012      4ebaed96       jsr FONTLET.quadrant2(pc)
  ────────< 0x00685016      602e           bra.b 0x685046
  │││││││   0x00685018      2f11           move.l (a1), -(a7)
  │││││││   0x0068501a      2f10           move.l (a0), -(a7)
  │││││││   0x0068501c      2f13           move.l (a3), -(a7)
  │││││││   0x0068501e      2f12           move.l (a2), -(a7)
  │││││││   0x00685020      f2276780       fmove.s fp7, -(a7)
  │││││││   0x00685024      3f3c0004       move.w 0x4, -(a7)
  │││││││   0x00685028      1f02           move.b d2, -(a7)
  │││││││   0x0068502a      4ebafc4a       jsr FONTLET.line_chopper(pc)
  │││││││   0x0068502e      dec1           adda.w d1, a7
  │││││││   0x00685030      4a2c00e4       tst.b 0xe4(a4)
  ────────< 0x00685034      6714           beq.b 0x68504a
  │││││││   0x00685036      2f11           move.l (a1), -(a7)
  │││││││   0x00685038      2f10           move.l (a0), -(a7)
  │││││││   0x0068503a      2f13           move.l (a3), -(a7)
  │││││││   0x0068503c      2f12           move.l (a2), -(a7)
  │││││││   0x0068503e      f2276780       fmove.s fp7, -(a7)
  │││││││   0x00685042      4ebafab8       jsr FONTLET.quadrant4(pc)
  └─└─────> 0x00685046      defc0014       adda.w 0x14, a7
  ─└─└└└└─> 0x0068504a      f21fd081       fmovem (a7)+, fp0/fp7
            0x0068504e      4cdf0f0f       movem.l (a7)+, d0-d3/a0-a3
            0x00685052      4e5e           unlk a6
            0x00685054      4e75           rts
┌ 24: FONTLET.test ();
│           0x00685056      4e56ffd8       link.w a6, 0xffd8
│           0x0068505a      bfd5           cmpa.l (a5), a7
│       ┌─< 0x0068505c      6206           bhi.b 0x685064
│       │   0x0068505e      44fc0002       move.w 0x2, ccr
│       │   0x00685062      4e76           trapv
│       └─> 0x00685064      defc0020       adda.w 0x20, a7
│           0x00685068      48e78000       movem.l d0, -(a7)
│           0x0068506c      f227e003       fmovem fp0-fp1, -(a7)
            0x00685070      7002           moveq 0x2, d0
            0x00685072      f22e44000014   fmove.s 0x14(a6), fp0
            0x00685078      f22e4422001c   fadd.s 0x1c(a6), fp0
            0x0068507e      f2004020       fdiv.l d0, fp0
            0x00685082      f22e6400fff8   fmove.s fp0, -0x8(a6)
            0x00685088      f22e44000010   fmove.s 0x10(a6), fp0
            0x0068508e      f22e44220018   fadd.s 0x18(a6), fp0
            0x00685094      f2004020       fdiv.l d0, fp0
            0x00685098      f22e6400fffc   fmove.s fp0, -0x4(a6)
            0x0068509e      f22e4400000c   fmove.s 0xc(a6), fp0
            0x006850a4      f22e4428fff8   fsub.s -0x8(a6), fp0
            0x006850aa      f2000023       fmul fp0, fp0
            0x006850ae      f22e44800008   fmove.s 0x8(a6), fp1
            0x006850b4      f22e44a8fffc   fsub.s -0x4(a6), fp1
            0x006850ba      f20004a3       fmul fp1, fp1
            0x006850be      f20000a2       fadd fp0, fp1
            0x006850c2      f22e64800020   fmove.s fp1, 0x20(a6)
            0x006850c8      f21fd0c0       fmovem (a7)+, fp0-fp1
            0x006850cc      4cdf0001       movem.l (a7)+, d0
            0x006850d0      4e5e           unlk a6
            0x006850d2      4e75           rts
┌ 24: FONTLET.subdivide ();
│           0x006850d4      4e56ff74       link.w a6, 0xff74
│           0x006850d8      bfd5           cmpa.l (a5), a7
│       ┌─< 0x006850da      6206           bhi.b 0x6850e2
│       │   0x006850dc      44fc0002       move.w 0x2, ccr
│       │   0x006850e0      4e76           trapv
│       └─> 0x006850e2      defc0080       adda.w 0x80, a7
│           0x006850e6      48e7c0f8       movem.l d0-d1/a0-a4, -(a7)
│           0x006850ea      f227e0e3       fmovem fp0-fp1/fp5-fp7, -(a7)
            0x006850ee      41ee0008       lea.l 0x8(a6), a0
            0x006850f2      43ee0018       lea.l 0x18(a6), a1
            0x006850f6      45ee0014       lea.l 0x14(a6), a2
            0x006850fa      47ee0028       lea.l 0x28(a6), a3
            0x006850fe      7002           moveq 0x2, d0
            0x00685100      7224           moveq 0x24, d1
            0x00685102      594f           subq.w 0x4, a7
            0x00685104      2f13           move.l (a3), -(a7)
            0x00685106      2f2e0024       move.l 0x24(a6), -(a7)
            0x0068510a      2f2e0020       move.l 0x20(a6), -(a7)
            0x0068510e      2f2e001c       move.l 0x1c(a6), -(a7)
            0x00685112      2f11           move.l (a1), -(a7)
            0x00685114      2f12           move.l (a2), -(a7)
            0x00685116      4ebaff3e       jsr FONTLET.test(pc)
            0x0068511a      defc0018       adda.w 0x18, a7
            0x0068511e      f21f4400       fmove.s (a7)+, fp0
            0x00685122      f23c44383df5.  fcmp.s 0, fp0
            0x0068512a      f29a0020       fbf.w 0x68514c
            0x0068512e      2f13           move.l (a3), -(a7)
            0x00685130      2f2e0024       move.l 0x24(a6), -(a7)
            0x00685134      2f2e0020       move.l 0x20(a6), -(a7)
            0x00685138      2f2e001c       move.l 0x1c(a6), -(a7)
            0x0068513c      4ebafc9c       jsr 0x684dda(pc)
            0x00685140      defc0010       adda.w 0x10, a7
            0x00685144      286efff0       movea.l -0x10(a6), a4
        ┌─< 0x00685148      60000168       bra.w 0x6852b2
        │   0x0068514c      f2114700       fmove.s (a1), fp6
        │   0x00685150      f2124680       fmove.s (a2), fp5
        │   0x00685154      f2104780       fmove.s (a0), fp7
        │   0x00685158      f22e44000010   fmove.s 0x10(a6), fp0
        │   0x0068515e      f2104422       fadd.s (a0), fp0
        │   0x00685162      f2004020       fdiv.l d0, fp0
        │   0x00685166      f2106400       fmove.s fp0, (a0)
        │   0x0068516a      f22c4400003c   fmove.s 0x3c(a4), fp0
        │   0x00685170      f2104423       fmul.s (a0), fp0
        │   0x00685174      f2104423       fmul.s (a0), fp0
        │   0x00685178      f2104423       fmul.s (a0), fp0
        │   0x0068517c      f22c44800040   fmove.s 0x40(a4), fp1
        │   0x00685182      f21044a3       fmul.s (a0), fp1
        │   0x00685186      f21044a3       fmul.s (a0), fp1
        │   0x0068518a      f20000a2       fadd fp0, fp1
        │   0x0068518e      f22c44000044   fmove.s 0x44(a4), fp0
        │   0x00685194      f2104423       fmul.s (a0), fp0
        │   0x00685198      f2000422       fadd fp1, fp0
        │   0x0068519c      f22c44220078   fadd.s 0x78(a4), fp0
        │   0x006851a2      f2116400       fmove.s fp0, (a1)
        │   0x006851a6      f22c44000048   fmove.s 0x48(a4), fp0
        │   0x006851ac      f2104423       fmul.s (a0), fp0
        │   0x006851b0      f2104423       fmul.s (a0), fp0
        │   0x006851b4      f2104423       fmul.s (a0), fp0
        │   0x006851b8      f22c4480004c   fmove.s 0x4c(a4), fp1
        │   0x006851be      f21044a3       fmul.s (a0), fp1
        │   0x006851c2      f21044a3       fmul.s (a0), fp1
        │   0x006851c6      f20000a2       fadd fp0, fp1
        │   0x006851ca      f22c44000050   fmove.s 0x50(a4), fp0
        │   0x006851d0      f2104423       fmul.s (a0), fp0
        │   0x006851d4      f2000422       fadd fp1, fp0
        │   0x006851d8      f22c44220074   fadd.s 0x74(a4), fp0
        │   0x006851de      f2126400       fmove.s fp0, (a2)
        │   0x006851e2      2f13           move.l (a3), -(a7)
        │   0x006851e4      2f2e0024       move.l 0x24(a6), -(a7)
        │   0x006851e8      f2276700       fmove.s fp6, -(a7)
        │   0x006851ec      f2276680       fmove.s fp5, -(a7)
        │   0x006851f0      2f11           move.l (a1), -(a7)
        │   0x006851f2      2f12           move.l (a2), -(a7)
        │   0x006851f4      2f2e0010       move.l 0x10(a6), -(a7)
        │   0x006851f8      f2276780       fmove.s fp7, -(a7)
        │   0x006851fc      2f10           move.l (a0), -(a7)
        │   0x006851fe      4ebafed4       jsr FONTLET.subdivide(pc)
        │   0x00685202      dec1           adda.w d1, a7
        │   0x00685204      f2001c00       fmove fp7, fp0
        │   0x00685208      f22e4422000c   fadd.s 0xc(a6), fp0
        │   0x0068520e      f2004020       fdiv.l d0, fp0
        │   0x00685212      f2106400       fmove.s fp0, (a0)
        │   0x00685216      f22c4400003c   fmove.s 0x3c(a4), fp0
        │   0x0068521c      f2104423       fmul.s (a0), fp0
        │   0x00685220      f2104423       fmul.s (a0), fp0
        │   0x00685224      f2104423       fmul.s (a0), fp0
        │   0x00685228      f22c44800040   fmove.s 0x40(a4), fp1
        │   0x0068522e      f21044a3       fmul.s (a0), fp1
        │   0x00685232      f21044a3       fmul.s (a0), fp1
        │   0x00685236      f20000a2       fadd fp0, fp1
        │   0x0068523a      f22c44000044   fmove.s 0x44(a4), fp0
        │   0x00685240      f2104423       fmul.s (a0), fp0
        │   0x00685244      f2000422       fadd fp1, fp0
        │   0x00685248      f22c44220078   fadd.s 0x78(a4), fp0
        │   0x0068524e      f2116400       fmove.s fp0, (a1)
        │   0x00685252      f22c44000048   fmove.s 0x48(a4), fp0
        │   0x00685258      f2104423       fmul.s (a0), fp0
        │   0x0068525c      f2104423       fmul.s (a0), fp0
        │   0x00685260      f2104423       fmul.s (a0), fp0
        │   0x00685264      f22c4480004c   fmove.s 0x4c(a4), fp1
        │   0x0068526a      f21044a3       fmul.s (a0), fp1
        │   0x0068526e      f21044a3       fmul.s (a0), fp1
        │   0x00685272      f20000a2       fadd fp0, fp1
        │   0x00685276      f22c44000050   fmove.s 0x50(a4), fp0
        │   0x0068527c      f2104423       fmul.s (a0), fp0
        │   0x00685280      f2000422       fadd fp1, fp0
        │   0x00685284      f22c44220074   fadd.s 0x74(a4), fp0
        │   0x0068528a      f2126400       fmove.s fp0, (a2)
        │   0x0068528e      f2276700       fmove.s fp6, -(a7)
        │   0x00685292      f2276680       fmove.s fp5, -(a7)
        │   0x00685296      2f2e0020       move.l 0x20(a6), -(a7)
        │   0x0068529a      2f2e001c       move.l 0x1c(a6), -(a7)
        │   0x0068529e      2f11           move.l (a1), -(a7)
        │   0x006852a0      2f12           move.l (a2), -(a7)
        │   0x006852a2      f2276780       fmove.s fp7, -(a7)
        │   0x006852a6      2f2e000c       move.l 0xc(a6), -(a7)
        │   0x006852aa      2f10           move.l (a0), -(a7)
        │   0x006852ac      4ebafe26       jsr FONTLET.subdivide(pc)
        │   0x006852b0      dec1           adda.w d1, a7
        └─> 0x006852b2      f21fd0c7       fmovem (a7)+, fp0-fp1/fp5-fp7
            0x006852b6      4cdf1f03       movem.l (a7)+, d0-d1/a0-a4
            0x006852ba      4e5e           unlk a6
            0x006852bc      4e75           rts
┌ 24: FONTLET.curve_line ();
│           0x006852be      4e56ff48       link.w a6, 0xff48
│           0x006852c2      bfd5           cmpa.l (a5), a7
│       ┌─< 0x006852c4      6206           bhi.b 0x6852cc
│       │   0x006852c6      44fc0002       move.w 0x2, ccr
│       │   0x006852ca      4e76           trapv
│       └─> 0x006852cc      defc0068       adda.w 0x68, a7
│           0x006852d0      48e7c0f8       movem.l d0-d1/a0-a4, -(a7)
│           0x006852d4      f227e083       fmovem fp0-fp1/fp7, -(a7)
            0x006852d8      41ee0024       lea.l 0x24(a6), a0
            0x006852dc      43ee0020       lea.l 0x20(a6), a1
            0x006852e0      45ee001c       lea.l 0x1c(a6), a2
            0x006852e4      47ee0018       lea.l 0x18(a6), a3
            0x006852e8      7003           moveq 0x3, d0
            0x006852ea      7202           moveq 0x2, d1
            0x006852ec      f2004000       fmove.l d0, fp0
            0x006852f0      f22e44230014   fmul.s 0x14(a6), fp0
            0x006852f6      f200001a       fneg fp0
            0x006852fa      f22e4422000c   fadd.s 0xc(a6), fp0
            0x00685300      f2004080       fmove.l d0, fp1
            0x00685304      f21244a3       fmul.s (a2), fp1
            0x00685308      f20000a2       fadd fp0, fp1
            0x0068530c      f21044a8       fsub.s (a0), fp1
            0x00685310      f22e6480ffe8   fmove.s fp1, -0x18(a6)
            0x00685316      f2014000       fmove.l d1, fp0
            0x0068531a      f2124423       fmul.s (a2), fp0
            0x0068531e      f200001a       fneg fp0
            0x00685322      f22e44220014   fadd.s 0x14(a6), fp0
            0x00685328      f2104422       fadd.s (a0), fp0
            0x0068532c      f2004023       fmul.l d0, fp0
            0x00685330      f22e6400ffec   fmove.s fp0, -0x14(a6)
            0x00685336      f2124400       fmove.s (a2), fp0
            0x0068533a      f2104428       fsub.s (a0), fp0
            0x0068533e      f2004023       fmul.l d0, fp0
            0x00685342      f22e6400fff0   fmove.s fp0, -0x10(a6)
            0x00685348      f2004000       fmove.l d0, fp0
            0x0068534c      f22e44230010   fmul.s 0x10(a6), fp0
            0x00685352      f200001a       fneg fp0
            0x00685356      f22e44220008   fadd.s 0x8(a6), fp0
            0x0068535c      f2004080       fmove.l d0, fp1
            0x00685360      f21344a3       fmul.s (a3), fp1
            0x00685364      f20000a2       fadd fp0, fp1
            0x00685368      f21144a8       fsub.s (a1), fp1
            0x0068536c      f22e6480fff4   fmove.s fp1, -0xc(a6)
            0x00685372      f2014000       fmove.l d1, fp0
            0x00685376      f2134423       fmul.s (a3), fp0
            0x0068537a      f200001a       fneg fp0
            0x0068537e      f22e44220010   fadd.s 0x10(a6), fp0
            0x00685384      f2114422       fadd.s (a1), fp0
            0x00685388      f2004023       fmul.l d0, fp0
            0x0068538c      f22e6400fff8   fmove.s fp0, -0x8(a6)
            0x00685392      f2134400       fmove.s (a3), fp0
            0x00685396      f2114428       fsub.s (a1), fp0
            0x0068539a      f2004023       fmul.l d0, fp0
            0x0068539e      f22e6400fffc   fmove.s fp0, -0x4(a6)
            0x006853a4      f23c40000000.  fmove.l 0x0, fp0
            0x006853ac      f22e6400ffc8   fmove.s fp0, -0x38(a6)
            0x006853b2      f23c40000000.  fmove.l 0x1, fp0
            0x006853ba      f22e6400ffd0   fmove.s fp0, -0x30(a6)
            0x006853c0      2d50ffb0       move.l (a0), -0x50(a6)
            0x006853c4      2d51ffb4       move.l (a1), -0x4c(a6)
            0x006853c8      2d6e000cffc0   move.l 0xc(a6), -0x40(a6)
            0x006853ce      2d6e0008ffc4   move.l 0x8(a6), -0x3c(a6)
            0x006853d4      f23c47803f00.  fmove.s 0, fp7
            0x006853dc      f22e4400ffe8   fmove.s -0x18(a6), fp0
            0x006853e2      f2001c23       fmul fp7, fp0
            0x006853e6      f2001c23       fmul fp7, fp0
            0x006853ea      f2001c23       fmul fp7, fp0
            0x006853ee      f22e4480ffec   fmove.s -0x14(a6), fp1
            0x006853f4      f2001ca3       fmul fp7, fp1
            0x006853f8      f2001ca3       fmul fp7, fp1
            0x006853fc      f20000a2       fadd fp0, fp1
            0x00685400      f22e4400fff0   fmove.s -0x10(a6), fp0
            0x00685406      f2001c23       fmul fp7, fp0
            0x0068540a      f2000422       fadd fp1, fp0
            0x0068540e      f2104422       fadd.s (a0), fp0
            0x00685412      f22e6400ffd4   fmove.s fp0, -0x2c(a6)
            0x00685418      f22e4400fff4   fmove.s -0xc(a6), fp0
            0x0068541e      f2001c23       fmul fp7, fp0
            0x00685422      f2001c23       fmul fp7, fp0
            0x00685426      f2001c23       fmul fp7, fp0
            0x0068542a      f22e4480fff8   fmove.s -0x8(a6), fp1
            0x00685430      f2001ca3       fmul fp7, fp1
            0x00685434      f2001ca3       fmul fp7, fp1
            0x00685438      f20000a2       fadd fp0, fp1
            0x0068543c      f22e4400fffc   fmove.s -0x4(a6), fp0
            0x00685442      f2001c23       fmul fp7, fp0
            0x00685446      f2000422       fadd fp1, fp0
            0x0068544a      f2114422       fadd.s (a1), fp0
            0x0068544e      f22e6400ffd8   fmove.s fp0, -0x28(a6)
            0x00685454      2f2effb0       move.l -0x50(a6), -(a7)
            0x00685458      2f2effb4       move.l -0x4c(a6), -(a7)
            0x0068545c      2f2effc0       move.l -0x40(a6), -(a7)
            0x00685460      2f2effc4       move.l -0x3c(a6), -(a7)
            0x00685464      2f2effd4       move.l -0x2c(a6), -(a7)
            0x00685468      2f2effd8       move.l -0x28(a6), -(a7)
            0x0068546c      2f2effc8       move.l -0x38(a6), -(a7)
            0x00685470      2f2effd0       move.l -0x30(a6), -(a7)
            0x00685474      f2276780       fmove.s fp7, -(a7)
            0x00685478      49eeffac       lea.l -0x54(a6), a4
            0x0068547c      4ebafc56       jsr FONTLET.subdivide(pc)
            0x00685480      defc0024       adda.w 0x24, a7
            0x00685484      286effac       movea.l -0x54(a6), a4
            0x00685488      f21fd0c1       fmovem (a7)+, fp0-fp1/fp7
            0x0068548c      4cdf1f03       movem.l (a7)+, d0-d1/a0-a4
            0x00685490      4e5e           unlk a6
            0x00685492      4e75           rts
┌ 24: FONTLET.check_for_div ();
│           0x00685494      4e56ffc2       link.w a6, 0xffc2
│           0x00685498      bfd5           cmpa.l (a5), a7
│       ┌─< 0x0068549a      6206           bhi.b 0x6854a2
│       │   0x0068549c      44fc0002       move.w 0x2, ccr
│       │   0x006854a0      4e76           trapv
│       └─> 0x006854a2      defc003e       adda.w 0x3e, a7
│           0x006854a6      48e7fcc0       movem.l d0-d5/a0-a1, -(a7)
│           0x006854aa      f227e001       fmovem fp0, -(a7)
            0x006854ae      3a3c2708       move.w 0x2708, d5
            0x006854b2      206e0008       movea.l 0x8(a6), a0
            0x006854b6      226e000c       movea.l 0xc(a6), a1
            0x006854ba      2010           move.l (a0), d0
            0x006854bc      32310a00       move.w (a1, d0.l * 2), d1
            0x006854c0      b245           cmp.w d5, d1
        ┌─< 0x006854c2      663e           bne.b 0x685502
        │   0x006854c4      2400           move.l d0, d2
        │   0x006854c6      5282           addq.l 0x1, d2
        │   0x006854c8      34312a00       move.w (a1, d2.l * 2), d2
        │   0x006854cc      b445           cmp.w d5, d2
       ┌──< 0x006854ce      6632           bne.b 0x685502
       ││   0x006854d0      2400           move.l d0, d2
       ││   0x006854d2      5482           addq.l 0x2, d2
       ││   0x006854d4      34312a00       move.w (a1, d2.l * 2), d2
       ││   0x006854d8      b445           cmp.w d5, d2
      ┌───< 0x006854da      6626           bne.b 0x685502
      │││   0x006854dc      2080           move.l d0, (a0)
      │││   0x006854de      5890           addq.l 0x4, (a0)
      │││   0x006854e0      2410           move.l (a0), d2
      │││   0x006854e2      5382           subq.l 0x1, d2
      │││   0x006854e4      36312a00       move.w (a1, d2.l * 2), d3
      │││   0x006854e8      48c3           ext.l d3
      │││   0x006854ea      2410           move.l (a0), d2
      │││   0x006854ec      38312a00       move.w (a1, d2.l * 2), d4
      │││   0x006854f0      48c4           ext.l d4
      │││   0x006854f2      f2034000       fmove.l d3, fp0
      │││   0x006854f6      f2044020       fdiv.l d4, fp0
      │││   0x006854fa      f22e64000010   fmove.s fp0, 0x10(a6)
     ┌────< 0x00685500      600c           bra.b 0x68550e
     │└└└─> 0x00685502      48c1           ext.l d1
     │      0x00685504      f2014000       fmove.l d1, fp0
     │      0x00685508      f22e64000010   fmove.s fp0, 0x10(a6)
     └────> 0x0068550e      f21fd080       fmovem (a7)+, fp0
            0x00685512      4cdf033f       movem.l (a7)+, d0-d5/a0-a1
            0x00685516      4e5e           unlk a6
            0x00685518      4e75           rts
┌ 222: FONTLET.write_nums ();
│           0x0068551a      4e56ff92       link.w a6, 0xff92
│           0x0068551e      bfd5           cmpa.l (a5), a7
│       ┌─< 0x00685520      6206           bhi.b 0x685528
│       │   0x00685522      44fc0002       move.w 0x2, ccr
│       │   0x00685526      4e76           trapv
│       └─> 0x00685528      defc006a       adda.w 0x6a, a7
│           0x0068552c      48e7fdf0       movem.l d0-d5/d7/a0-a3, -(a7)
│           0x00685530      43ee000e       lea.l 0xe(a6), a1
│           0x00685534      45f80000       lea.l 0x0, a2
│           0x00685538      47f9004070e4   lea.l p_wti_o, a3
│           0x0068553e      3a3c2708       move.w 0x2708, d5
│           0x00685542      7e01           moveq 0x1, d7
│       ┌─> 0x00685544      beae0008       cmp.l 0x8(a6), d7
│      ┌──< 0x00685548      6e0000a6       bgt.w 0x6855f0
│      │╎   0x0068554c      4a2e000c       tst.b 0xc(a6)
│     ┌───< 0x00685550      676e           beq.b 0x6855c0
│     ││╎   0x00685552      206e0012       movea.l 0x12(a6), a0
│     ││╎   0x00685556      2011           move.l (a1), d0
│     ││╎   0x00685558      2200           move.l d0, d1
│     ││╎   0x0068555a      5281           addq.l 0x1, d1
│     ││╎   0x0068555c      34300a00       move.w (a0, d0.l * 2), d2
│     ││╎   0x00685560      b445           cmp.w d5, d2
│    ┌────< 0x00685562      664e           bne.b 0x6855b2
│    │││╎   0x00685564      36301a00       move.w (a0, d1.l * 2), d3
│    │││╎   0x00685568      b645           cmp.w d5, d3
│   ┌─────< 0x0068556a      6646           bne.b 0x6855b2
│   ││││╎   0x0068556c      2600           move.l d0, d3
│   ││││╎   0x0068556e      5483           addq.l 0x2, d3
│   ││││╎   0x00685570      36303a00       move.w (a0, d3.l * 2), d3
│   ││││╎   0x00685574      b645           cmp.w d5, d3
│  ┌──────< 0x00685576      663a           bne.b 0x6855b2
│  │││││╎   0x00685578      2600           move.l d0, d3
│  │││││╎   0x0068557a      5683           addq.l 0x3, d3
│  │││││╎   0x0068557c      38303a00       move.w (a0, d3.l * 2), d4
│  │││││╎   0x00685580      48c4           ext.l d4
│  │││││╎   0x00685582      2f04           move.l d4, -(a7)
│  │││││╎   0x00685584      4852           pea.l (a2)
│  │││││╎   0x00685586      4e93           jsr (a3)                    ; fcn.0000000c
│  │││││╎   0x00685588      5c4f           addq.w 0x6, a7
│  │││││╎   0x0068558a      1ebc002f       move.b 0x2f, (a7)
│  │││││╎   0x0068558e      48780001       pea.l 0x1
│  │││││╎   0x00685592      4eb9004048b4   jsr p_wtc_o
│  │││││╎   0x00685598      5c4f           addq.w 0x6, a7
│  │││││╎   0x0068559a      2600           move.l d0, d3
│  │││││╎   0x0068559c      5883           addq.l 0x4, d3
│  │││││╎   0x0068559e      38303a00       move.w (a0, d3.l * 2), d4
│  │││││╎   0x006855a2      48c4           ext.l d4
│  │││││╎   0x006855a4      2f04           move.l d4, -(a7)
│  │││││╎   0x006855a6      4852           pea.l (a2)
│  │││││╎   0x006855a8      4e93           jsr (a3)                    ; fcn.0000000c
│  │││││╎   0x006855aa      504f           addq.w 0x8, a7
│  │││││╎   0x006855ac      2280           move.l d0, (a1)
│  │││││╎   0x006855ae      5a91           addq.l 0x5, (a1)
│ ┌───────< 0x006855b0      6024           bra.b 0x6855d6
│ │└└└────> 0x006855b2      48c2           ext.l d2
│ │   ││╎   0x006855b4      2f02           move.l d2, -(a7)
│ │   ││╎   0x006855b6      4852           pea.l (a2)
│ │   ││╎   0x006855b8      4e93           jsr (a3)                    ; fcn.0000000c
│ │   ││╎   0x006855ba      504f           addq.w 0x8, a7
│ │   ││╎   0x006855bc      2281           move.l d1, (a1)
│ │  ┌────< 0x006855be      6016           bra.b 0x6855d6
│ │  │└───> 0x006855c0      206e0012       movea.l 0x12(a6), a0
│ │  │ │╎   0x006855c4      2011           move.l (a1), d0
│ │  │ │╎   0x006855c6      32300a00       move.w (a0, d0.l * 2), d1
│ │  │ │╎   0x006855ca      48c1           ext.l d1
│ │  │ │╎   0x006855cc      2f01           move.l d1, -(a7)
│ │  │ │╎   0x006855ce      4852           pea.l (a2)
│ │  │ │╎   0x006855d0      4e93           jsr (a3)                    ; fcn.0000000c
│ │  │ │╎   0x006855d2      504f           addq.w 0x8, a7
│ │  │ │╎   0x006855d4      5291           addq.l 0x1, (a1)
│ └──└────> 0x006855d6      487aba02       pea.l 0x680fda(pc)
│      │╎   0x006855da      48780002       pea.l 0x2
│      │╎   0x006855de      2f17           move.l (a7), -(a7)
│      │╎   0x006855e0      4eb9004047ea   jsr p_wts_o
│      │╎   0x006855e6      defc000c       adda.w 0xc, a7
│      │╎   0x006855ea      5287           addq.l 0x1, d7
│      │└─< 0x006855ec      6800ff56       bvc.w 0x685544
│      └──> 0x006855f0      4cdf0fbf       movem.l (a7)+, d0-d5/d7/a0-a3
│           0x006855f4      4e5e           unlk a6
└           0x006855f6      4e75           rts
┌ 116: FONTLET.write_p ();
│           0x006855f8      4e56ffbc       link.w a6, 0xffbc
│           0x006855fc      bfd5           cmpa.l (a5), a7
│       ┌─< 0x006855fe      6206           bhi.b 0x685606
│       │   0x00685600      44fc0002       move.w 0x2, ccr
│       │   0x00685604      4e76           trapv
│       └─> 0x00685606      defc0040       adda.w 0x40, a7
│           0x0068560a      48e78180       movem.l d0/d7/a0, -(a7)
│           0x0068560e      41f80002       lea.l 0x2, a0
│           0x00685612      700c           moveq 0xc, d0
│           0x00685614      7e01           moveq 0x1, d7
│       ┌─> 0x00685616      beae0008       cmp.l 0x8(a6), d7
│      ┌──< 0x0068561a      6e48           bgt.b 0x685664
│      │╎   0x0068561c      2f347c2a       move.l 0x2a(a4, d7.l), -(a7)
│      │╎   0x00685620      48780000       pea.l 0x0
│      │╎   0x00685624      4850           pea.l (a0)
│      │╎   0x00685626      4eb900439f72   jsr P17_FRDWRT.p_wtf2_o
│      │╎   0x0068562c      dec0           adda.w d0, a7
│      │╎   0x0068562e      487ab9ad       pea.l 0x680fdd(pc)
│      │╎   0x00685632      4850           pea.l (a0)
│      │╎   0x00685634      2f17           move.l (a7), -(a7)
│      │╎   0x00685636      4eb9004047ea   jsr p_wts_o
│      │╎   0x0068563c      504f           addq.w 0x8, a7
│      │╎   0x0068563e      2eb47c52       move.l 0x52(a4, d7.l), (a7)
│      │╎   0x00685642      48780000       pea.l 0x0
│      │╎   0x00685646      4850           pea.l (a0)
│      │╎   0x00685648      4eb900439f72   jsr P17_FRDWRT.p_wtf2_o
│      │╎   0x0068564e      dec0           adda.w d0, a7
│      │╎   0x00685650      487ab98e       pea.l 0x680fe0(pc)
│      │╎   0x00685654      4850           pea.l (a0)
│      │╎   0x00685656      2f17           move.l (a7), -(a7)
│      │╎   0x00685658      4eb9004047ea   jsr p_wts_o
│      │╎   0x0068565e      dec0           adda.w d0, a7
│      │╎   0x00685660      5287           addq.l 0x1, d7
│      │└─< 0x00685662      68b2           bvc.b 0x685616
│      └──> 0x00685664      4cdf0181       movem.l (a7)+, d0/d7/a0
│           0x00685668      4e5e           unlk a6
└           0x0068566a      4e75           rts
            ; CALL XREF from FONTLET.subrread @ 0x685fea
            ; CALL XREF from FONTLET.charread @ 0x6861b0
┌ 24: FONTLET.instruct_conver ();
│           0x0068566c      4e56ff8e       link.w a6, 0xff8e
│           0x00685670      bfd5           cmpa.l (a5), a7
│       ┌─< 0x00685672      6206           bhi.b 0x68567a
│       │   0x00685674      44fc0002       move.w 0x2, ccr
│       │   0x00685678      4e76           trapv
│       └─> 0x0068567a      defc006c       adda.w 0x6c, a7
│           0x0068567e      48e7fff0       movem.l d0-d7/a0-a3, -(a7)
│           0x00685682      f227e001       fmovem fp0, -(a7)
            0x00685686      45ec0056       lea.l 0x56(a4), a2
            0x0068568a      47ec002e       lea.l 0x2e(a4), a3
            0x0068568e      760c           moveq 0xc, d3
            0x00685690      780e           moveq 0xe, d4
            0x00685692      7a10           moveq 0x10, d5
            0x00685694      7c20           moveq 0x20, d6
            0x00685696      4a2c002c       tst.b 0x2c(a4)
        ┌─< 0x0068569a      660008aa       bne.w 0x685f46
        │   0x0068569e      206e0008       movea.l 0x8(a6), a0
        │   0x006856a2      226e0014       movea.l 0x14(a6), a1
        │   0x006856a6      2010           move.l (a0), d0
        │   0x006856a8      1e310a01       move.b 0x1(a1, d0.l), d7
        │   0x006856ac      4887           ext.w d7
        │   0x006856ae      3207           move.w d7, d1
        │   0x006856b0      5541           subq.w 0x2, d1
        │   0x006856b2      b244           cmp.w d4, d1
       ┌──< 0x006856b4      62000882       bhi.w 0x685f38
       ││   0x006856b8      d241           add.w d1, d1
       ││   0x006856ba      323b1006       move.w 0x6856c2(pc, d1.w), d1
       ││   0x006856be      4efb1002       jmp 0x6856c2(pc, d1.w)
       ││   0x006856c2      02da0346       
       ││   0x006856c3      da03           add.b d3, d5
       ││   0x006856c5      46087606       
       ││   0x006856c6      087606b4       
       ││   0x006856c7      7606           moveq 0x6, d3
       ││   0x006856c9      b407           cmp.b d7, d2
       ││   0x006856cb      3000           move.w d0, d0
       ││   0x006856cd      e605           asr.b 0x3, d5
       ││   0x006856cf      1e03           move.b d3, d7
       ││   0x006856d1      9e06           sub.b d6, d7
      ┌───< 0x006856d3      6e08           bgt.b 0x6856dd
     ┌────< 0x006856d5      6c08           bge.b 0x6856df
     ││││   0x006856d7      4c001e08       
     ││││   0x006856d8      001e0876       ori.b 0x76, (a6)+
     ││││   0x006856dc      0876079e       
     │└───> 0x006856dd      7607           moveq 0x7, d3
     └────> 0x006856df      9e20           sub.b -(a0), d7
       ││   0x006856e1      8052           or.w (a2), d0
       ││   0x006856e3      904a           sub.w a2, d0
       ││   0x006856e5      2c00           move.l d0, d6
       ││   0x006856e7      d267           add.w -(a7), d1
      ┌───< 0x006856e9      6248           bhi.b 0x685733
      │││   0x006856eb      7ab9           moveq 0xb9, d5
      │││   0x006856ed      00487800       
      │││   0x006856ee      4878000d       pea.l 0xd
      │││   0x006856f2      2f17           move.l (a7), -(a7)
      │││   0x006856f4      4eb9004047ea   jsr p_wts_o
      │││   0x006856fa      dec3           adda.w d3, a7
      │││   0x006856fc      4eb900404946   jsr p_wtln_o
      │││   0x00685702      594f           subq.w 0x4, a7
      │││   0x00685704      2f2e0014       move.l 0x14(a6), -(a7)
      │││   0x00685708      4850           pea.l (a0)
      │││   0x0068570a      4ebafd88       jsr FONTLET.check_for_div(pc)
      │││   0x0068570e      504f           addq.w 0x8, a7
      │││   0x00685710      f21f4400       fmove.s (a7)+, fp0
      │││   0x00685714      f22e44200010   fdiv.s 0x10(a6), fp0
      │││   0x0068571a      f2134422       fadd.s (a3), fp0
      │││   0x0068571e      f22c64000032   fmove.s fp0, 0x32(a4)
      │││   0x00685724      5290           addq.l 0x1, (a0)
      │││   0x00685726      594f           subq.w 0x4, a7
      │││   0x00685728      2f2e0014       move.l 0x14(a6), -(a7)
      │││   0x0068572c      4850           pea.l (a0)
      │││   0x0068572e      4ebafd64       jsr FONTLET.check_for_div(pc)
      │││   0x00685732      504f           addq.w 0x8, a7
       ││   0x00685734      f21f4400       fmove.s (a7)+, fp0
       ││   0x00685738      f22e4420000c   fdiv.s 0xc(a6), fp0
       ││   0x0068573e      f2124422       fadd.s (a2), fp0
       ││   0x00685742      f22c6400005a   fmove.s fp0, 0x5a(a4)
       ││   0x00685748      5290           addq.l 0x1, (a0)
      ┌───< 0x0068574a      603e           bra.b 0x68578a
      │││   0x0068574c      2210           move.l (a0), d1
      │││   0x0068574e      34311a00       move.w (a1, d1.l * 2), d2
      │││   0x00685752      48c2           ext.l d2
      │││   0x00685754      f2024000       fmove.l d2, fp0
      │││   0x00685758      f22e44200010   fdiv.s 0x10(a6), fp0
      │││   0x0068575e      f2134422       fadd.s (a3), fp0
      │││   0x00685762      f22c64000032   fmove.s fp0, 0x32(a4)
      │││   0x00685768      5281           addq.l 0x1, d1
      │││   0x0068576a      2081           move.l d1, (a0)
      │││   0x0068576c      30311a00       move.w (a1, d1.l * 2), d0
      │││   0x00685770      48c0           ext.l d0
      │││   0x00685772      f2004000       fmove.l d0, fp0
      │││   0x00685776      f22e4420000c   fdiv.s 0xc(a6), fp0
      │││   0x0068577c      f2124422       fadd.s (a2), fp0
      │││   0x00685780      f22c6400005a   fmove.s fp0, 0x5a(a4)
      │││   0x00685786      5281           addq.l 0x1, d1
      │││   0x00685788      2081           move.l d1, (a0)
     ┌└───> 0x0068578a      2f13           move.l (a3), -(a7)
     ╎ ││   0x0068578c      2f12           move.l (a2), -(a7)
     ╎ ││   0x0068578e      2f2c0032       move.l 0x32(a4), -(a7)
     ╎ ││   0x00685792      2f2c005a       move.l 0x5a(a4), -(a7)
     ╎ ││   0x00685796      4ebaf644       jsr FONTLET.intersections(pc)
     ╎ ││   0x0068579a      dec5           adda.w d5, a7
    ┌─┌───> 0x0068579c      26ac0032       move.l 0x32(a4), (a3)
    ╎╎╎││   0x006857a0      24ac005a       move.l 0x5a(a4), (a2)
   ┌──────< 0x006857a4      600007a0       bra.w 0x685f46
   │╎╎╎││   0x006857a8      2080           move.l d0, (a0)
   │╎╎╎││   0x006857aa      5290           addq.l 0x1, (a0)
   │╎╎╎││   0x006857ac      4a2c00d2       tst.b 0xd2(a4)
  ┌───────< 0x006857b0      670000fe       beq.w 0x6858b0
  ││╎╎╎││   0x006857b4      487ab852       pea.l 0x681008(pc)
  ││╎╎╎││   0x006857b8      4878000d       pea.l 0xd
  ││╎╎╎││   0x006857bc      2f17           move.l (a7), -(a7)
  ││╎╎╎││   0x006857be      4eb9004047ea   jsr p_wts_o
  ││╎╎╎││   0x006857c4      dec3           adda.w d3, a7
  ││╎╎╎││   0x006857c6      4eb900404946   jsr p_wtln_o
  ││╎╎╎││   0x006857cc      594f           subq.w 0x4, a7
  ││╎╎╎││   0x006857ce      2f2e0014       move.l 0x14(a6), -(a7)
  ││╎╎╎││   0x006857d2      4850           pea.l (a0)
  ││╎╎╎││   0x006857d4      4ebafcbe       jsr FONTLET.check_for_div(pc)
  ││╎╎╎││   0x006857d8      504f           addq.w 0x8, a7
  ││╎╎╎││   0x006857da      f21f4400       fmove.s (a7)+, fp0
  ││╎╎╎││   0x006857de      f22e44200010   fdiv.s 0x10(a6), fp0
  ││╎╎╎││   0x006857e4      f2134422       fadd.s (a3), fp0
  ││╎╎╎││   0x006857e8      f22c64000032   fmove.s fp0, 0x32(a4)
  ││╎╎╎││   0x006857ee      5290           addq.l 0x1, (a0)
  ││╎╎╎││   0x006857f0      594f           subq.w 0x4, a7
  ││╎╎╎││   0x006857f2      2f2e0014       move.l 0x14(a6), -(a7)
  ││╎╎╎││   0x006857f6      4850           pea.l (a0)
  ││╎╎╎││   0x006857f8      4ebafc9a       jsr FONTLET.check_for_div(pc)
  ││╎╎╎││   0x006857fc      504f           addq.w 0x8, a7
  ││╎╎╎││   0x006857fe      f21f4400       fmove.s (a7)+, fp0
  ││╎╎╎││   0x00685802      f22e4420000c   fdiv.s 0xc(a6), fp0
  ││╎╎╎││   0x00685808      f2124422       fadd.s (a2), fp0
  ││╎╎╎││   0x0068580c      f22c6400005a   fmove.s fp0, 0x5a(a4)
  ││╎╎╎││   0x00685812      5290           addq.l 0x1, (a0)
  ││╎╎╎││   0x00685814      594f           subq.w 0x4, a7
  ││╎╎╎││   0x00685816      2f2e0014       move.l 0x14(a6), -(a7)
  ││╎╎╎││   0x0068581a      4850           pea.l (a0)
  ││╎╎╎││   0x0068581c      4ebafc76       jsr FONTLET.check_for_div(pc)
  ││╎╎╎││   0x00685820      504f           addq.w 0x8, a7
  ││╎╎╎││   0x00685822      f21f4400       fmove.s (a7)+, fp0
  ││╎╎╎││   0x00685826      f22e44200010   fdiv.s 0x10(a6), fp0
  ││╎╎╎││   0x0068582c      f22c44220032   fadd.s 0x32(a4), fp0
  ││╎╎╎││   0x00685832      f22c64000036   fmove.s fp0, 0x36(a4)
  ││╎╎╎││   0x00685838      5290           addq.l 0x1, (a0)
  ││╎╎╎││   0x0068583a      594f           subq.w 0x4, a7
  ││╎╎╎││   0x0068583c      2f2e0014       move.l 0x14(a6), -(a7)
  ││╎╎╎││   0x00685840      4850           pea.l (a0)
  ││╎╎╎││   0x00685842      4ebafc50       jsr FONTLET.check_for_div(pc)
  ││╎╎╎││   0x00685846      504f           addq.w 0x8, a7
  ││╎╎╎││   0x00685848      f21f4400       fmove.s (a7)+, fp0
  ││╎╎╎││   0x0068584c      f22e4420000c   fdiv.s 0xc(a6), fp0
  ││╎╎╎││   0x00685852      f22c4422005a   fadd.s 0x5a(a4), fp0
  ││╎╎╎││   0x00685858      f22c6400005e   fmove.s fp0, 0x5e(a4)
  ││╎╎╎││   0x0068585e      5290           addq.l 0x1, (a0)
  ││╎╎╎││   0x00685860      594f           subq.w 0x4, a7
  ││╎╎╎││   0x00685862      2f2e0014       move.l 0x14(a6), -(a7)
  ││╎╎╎││   0x00685866      4850           pea.l (a0)
  ││╎╎╎││   0x00685868      4ebafc2a       jsr FONTLET.check_for_div(pc)
  ││╎╎╎││   0x0068586c      504f           addq.w 0x8, a7
  ││╎╎╎││   0x0068586e      f21f4400       fmove.s (a7)+, fp0
  ││╎╎╎││   0x00685872      f22e44200010   fdiv.s 0x10(a6), fp0
  ││╎╎╎││   0x00685878      f22c44220036   fadd.s 0x36(a4), fp0
  ││╎╎╎││   0x0068587e      f22c6400003a   fmove.s fp0, 0x3a(a4)
  ││╎╎╎││   0x00685884      5290           addq.l 0x1, (a0)
  ││╎╎╎││   0x00685886      594f           subq.w 0x4, a7
  ││╎╎╎││   0x00685888      2f2e0014       move.l 0x14(a6), -(a7)
  ││╎╎╎││   0x0068588c      4850           pea.l (a0)
  ││╎╎╎││   0x0068588e      4ebafc04       jsr FONTLET.check_for_div(pc)
  ││╎╎╎││   0x00685892      504f           addq.w 0x8, a7
  ││╎╎╎││   0x00685894      f21f4400       fmove.s (a7)+, fp0
  ││╎╎╎││   0x00685898      f22e4420000c   fdiv.s 0xc(a6), fp0
  ││╎╎╎││   0x0068589e      f22c4422005e   fadd.s 0x5e(a4), fp0
  ││╎╎╎││   0x006858a4      f22c64000062   fmove.s fp0, 0x62(a4)
  ││╎╎╎││   0x006858aa      5290           addq.l 0x1, (a0)
  ────────< 0x006858ac      600000c0       bra.w 0x68596e
  └───────> 0x006858b0      2210           move.l (a0), d1
   │╎╎╎││   0x006858b2      34311a00       move.w (a1, d1.l * 2), d2
   │╎╎╎││   0x006858b6      48c2           ext.l d2
   │╎╎╎││   0x006858b8      f2024000       fmove.l d2, fp0
   │╎╎╎││   0x006858bc      f22e44200010   fdiv.s 0x10(a6), fp0
   │╎╎╎││   0x006858c2      f2134422       fadd.s (a3), fp0
   │╎╎╎││   0x006858c6      f22c64000032   fmove.s fp0, 0x32(a4)
   │╎╎╎││   0x006858cc      5281           addq.l 0x1, d1
   │╎╎╎││   0x006858ce      2081           move.l d1, (a0)
   │╎╎╎││   0x006858d0      30311a00       move.w (a1, d1.l * 2), d0
   │╎╎╎││   0x006858d4      48c0           ext.l d0
   │╎╎╎││   0x006858d6      f2004000       fmove.l d0, fp0
   │╎╎╎││   0x006858da      f22e4420000c   fdiv.s 0xc(a6), fp0
   │╎╎╎││   0x006858e0      f2124422       fadd.s (a2), fp0
   │╎╎╎││   0x006858e4      f22c6400005a   fmove.s fp0, 0x5a(a4)
   │╎╎╎││   0x006858ea      5281           addq.l 0x1, d1
   │╎╎╎││   0x006858ec      2081           move.l d1, (a0)
   │╎╎╎││   0x006858ee      30311a00       move.w (a1, d1.l * 2), d0
   │╎╎╎││   0x006858f2      48c0           ext.l d0
   │╎╎╎││   0x006858f4      f2004000       fmove.l d0, fp0
   │╎╎╎││   0x006858f8      f22e44200010   fdiv.s 0x10(a6), fp0
   │╎╎╎││   0x006858fe      f22c44220032   fadd.s 0x32(a4), fp0
   │╎╎╎││   0x00685904      f22c64000036   fmove.s fp0, 0x36(a4)
   │╎╎╎││   0x0068590a      5281           addq.l 0x1, d1
   │╎╎╎││   0x0068590c      2081           move.l d1, (a0)
   │╎╎╎││   0x0068590e      30311a00       move.w (a1, d1.l * 2), d0
   │╎╎╎││   0x00685912      48c0           ext.l d0
   │╎╎╎││   0x00685914      f2004000       fmove.l d0, fp0
   │╎╎╎││   0x00685918      f22e4420000c   fdiv.s 0xc(a6), fp0
   │╎╎╎││   0x0068591e      f22c4422005a   fadd.s 0x5a(a4), fp0
   │╎╎╎││   0x00685924      f22c6400005e   fmove.s fp0, 0x5e(a4)
   │╎╎╎││   0x0068592a      5281           addq.l 0x1, d1
   │╎╎╎││   0x0068592c      2081           move.l d1, (a0)
   │╎╎╎││   0x0068592e      30311a00       move.w (a1, d1.l * 2), d0
   │╎╎╎││   0x00685932      48c0           ext.l d0
   │╎╎╎││   0x00685934      f2004000       fmove.l d0, fp0
   │╎╎╎││   0x00685938      f22e44200010   fdiv.s 0x10(a6), fp0
   │╎╎╎││   0x0068593e      f22c44220036   fadd.s 0x36(a4), fp0
   │╎╎╎││   0x00685944      f22c6400003a   fmove.s fp0, 0x3a(a4)
   │╎╎╎││   0x0068594a      5281           addq.l 0x1, d1
   │╎╎╎││   0x0068594c      2081           move.l d1, (a0)
   │╎╎╎││   0x0068594e      30311a00       move.w (a1, d1.l * 2), d0
   │╎╎╎││   0x00685952      48c0           ext.l d0
   │╎╎╎││   0x00685954      f2004000       fmove.l d0, fp0
   │╎╎╎││   0x00685958      f22e4420000c   fdiv.s 0xc(a6), fp0
   │╎╎╎││   0x0068595e      f22c4422005e   fadd.s 0x5e(a4), fp0
   │╎╎╎││   0x00685964      f22c64000062   fmove.s fp0, 0x62(a4)
   │╎╎╎││   0x0068596a      5281           addq.l 0x1, d1
   │╎╎╎││   0x0068596c      2081           move.l d1, (a0)
  ────────> 0x0068596e      2f13           move.l (a3), -(a7)
   │╎╎╎││   0x00685970      2f12           move.l (a2), -(a7)
   │╎╎╎││   0x00685972      2f2c0032       move.l 0x32(a4), -(a7)
   │╎╎╎││   0x00685976      2f2c005a       move.l 0x5a(a4), -(a7)
   │╎╎╎││   0x0068597a      2f2c0036       move.l 0x36(a4), -(a7)
   │╎╎╎││   0x0068597e      2f2c005e       move.l 0x5e(a4), -(a7)
   │╎╎╎││   0x00685982      2f2c003a       move.l 0x3a(a4), -(a7)
   │╎╎╎││   0x00685986      2f2c0062       move.l 0x62(a4), -(a7)
   │╎╎╎││   0x0068598a      4ebaf932       jsr FONTLET.curve_line(pc)
   │╎╎╎││   0x0068598e      dec6           adda.w d6, a7
   │╎╎╎││   0x00685990      26ac003a       move.l 0x3a(a4), (a3)
   │╎╎╎││   0x00685994      24ac0062       move.l 0x62(a4), (a2)
  ┌───────< 0x00685998      600005ac       bra.w 0x685f46
  ││╎╎╎││   0x0068599c      2080           move.l d0, (a0)
  ││╎╎╎││   0x0068599e      5290           addq.l 0x1, (a0)
  ││╎╎╎││   0x006859a0      4a2c00d2       tst.b 0xd2(a4)
  ────────< 0x006859a4      6726           beq.b 0x6859cc
  ││╎╎╎││   0x006859a6      594f           subq.w 0x4, a7
  ││╎╎╎││   0x006859a8      2f2e0014       move.l 0x14(a6), -(a7)
  ││╎╎╎││   0x006859ac      4850           pea.l (a0)
  ││╎╎╎││   0x006859ae      4ebafae4       jsr FONTLET.check_for_div(pc)
  ││╎╎╎││   0x006859b2      504f           addq.w 0x8, a7
  ││╎╎╎││   0x006859b4      f21f4400       fmove.s (a7)+, fp0
  ││╎╎╎││   0x006859b8      f22e44200010   fdiv.s 0x10(a6), fp0
  ││╎╎╎││   0x006859be      f2134422       fadd.s (a3), fp0
  ││╎╎╎││   0x006859c2      f22c64000032   fmove.s fp0, 0x32(a4)
  ││╎╎╎││   0x006859c8      5290           addq.l 0x1, (a0)
  ────────< 0x006859ca      6020           bra.b 0x6859ec
  ────────> 0x006859cc      2210           move.l (a0), d1
  ││╎╎╎││   0x006859ce      34311a00       move.w (a1, d1.l * 2), d2
  ││╎╎╎││   0x006859d2      48c2           ext.l d2
  ││╎╎╎││   0x006859d4      f2024000       fmove.l d2, fp0
  ││╎╎╎││   0x006859d8      f22e44200010   fdiv.s 0x10(a6), fp0
  ││╎╎╎││   0x006859de      f2134422       fadd.s (a3), fp0
  ││╎╎╎││   0x006859e2      f22c64000032   fmove.s fp0, 0x32(a4)
  ││╎╎╎││   0x006859e8      5281           addq.l 0x1, d1
  ││╎╎╎││   0x006859ea      2081           move.l d1, (a0)
  ────────> 0x006859ec      2952005a       move.l (a2), 0x5a(a4)
  ││╎╎╎││   0x006859f0      4a2c00e4       tst.b 0xe4(a4)
  ────────< 0x006859f4      670e           beq.b 0x685a04
  ││╎╎╎││   0x006859f6      2f13           move.l (a3), -(a7)
  ││╎╎╎││   0x006859f8      2f2c0032       move.l 0x32(a4), -(a7)
  ││╎╎╎││   0x006859fc      2f12           move.l (a2), -(a7)
  ││╎╎╎││   0x006859fe      4ebad014       jsr FONTLET.horizontal_line(pc)
  ││╎╎╎││   0x00685a02      dec3           adda.w d3, a7
  ──└─────< 0x00685a04      6000fd96       bra.w 0x68579c
  ││ ╎╎││   0x00685a08      2080           move.l d0, (a0)
  ││ ╎╎││   0x00685a0a      5290           addq.l 0x1, (a0)
  ││ ╎╎││   0x00685a0c      4a2c00d2       tst.b 0xd2(a4)
  ││┌─────< 0x00685a10      6726           beq.b 0x685a38
  │││╎╎││   0x00685a12      594f           subq.w 0x4, a7
  │││╎╎││   0x00685a14      2f2e0014       move.l 0x14(a6), -(a7)
  │││╎╎││   0x00685a18      4850           pea.l (a0)
  │││╎╎││   0x00685a1a      4ebafa78       jsr FONTLET.check_for_div(pc)
  │││╎╎││   0x00685a1e      504f           addq.w 0x8, a7
  │││╎╎││   0x00685a20      f21f4400       fmove.s (a7)+, fp0
  │││╎╎││   0x00685a24      f22e4420000c   fdiv.s 0xc(a6), fp0
  │││╎╎││   0x00685a2a      f2124422       fadd.s (a2), fp0
  │││╎╎││   0x00685a2e      f22c6400005a   fmove.s fp0, 0x5a(a4)
  │││╎╎││   0x00685a34      5290           addq.l 0x1, (a0)
  ────────< 0x00685a36      6020           bra.b 0x685a58
  ││└─────> 0x00685a38      2210           move.l (a0), d1
  ││ ╎╎││   0x00685a3a      34311a00       move.w (a1, d1.l * 2), d2
  ││ ╎╎││   0x00685a3e      48c2           ext.l d2
  ││ ╎╎││   0x00685a40      f2024000       fmove.l d2, fp0
  ││ ╎╎││   0x00685a44      f22e4420000c   fdiv.s 0xc(a6), fp0
  ││ ╎╎││   0x00685a4a      f2124422       fadd.s (a2), fp0
  ││ ╎╎││   0x00685a4e      f22c6400005a   fmove.s fp0, 0x5a(a4)
  ││ ╎╎││   0x00685a54      5281           addq.l 0x1, d1
  ││ ╎╎││   0x00685a56      2081           move.l d1, (a0)
  ────────> 0x00685a58      29530032       move.l (a3), 0x32(a4)
  ││ └────< 0x00685a5c      6000fd2c       bra.w 0x68578a
  ││  ╎││   0x00685a60      2080           move.l d0, (a0)
  ││  ╎││   0x00685a62      5290           addq.l 0x1, (a0)
  ││  ╎││   0x00685a64      4a2c00d2       tst.b 0xd2(a4)
  ││ ┌────< 0x00685a68      670000be       beq.w 0x685b28
  ││ │╎││   0x00685a6c      487ab5ce       pea.l 0x68103c(pc)
  ││ │╎││   0x00685a70      4878000d       pea.l 0xd
  ││ │╎││   0x00685a74      2f17           move.l (a7), -(a7)
  ││ │╎││   0x00685a76      4eb9004047ea   jsr p_wts_o
  ││ │╎││   0x00685a7c      dec3           adda.w d3, a7
  ││ │╎││   0x00685a7e      4eb900404946   jsr p_wtln_o
  ││ │╎││   0x00685a84      594f           subq.w 0x4, a7
  ││ │╎││   0x00685a86      2f2e0014       move.l 0x14(a6), -(a7)
  ││ │╎││   0x00685a8a      4850           pea.l (a0)
  ││ │╎││   0x00685a8c      4ebafa06       jsr FONTLET.check_for_div(pc)
  ││ │╎││   0x00685a90      504f           addq.w 0x8, a7
  ││ │╎││   0x00685a92      f21f4400       fmove.s (a7)+, fp0
  ││ │╎││   0x00685a96      f22e44200010   fdiv.s 0x10(a6), fp0
  ││ │╎││   0x00685a9c      f2134422       fadd.s (a3), fp0
  ││ │╎││   0x00685aa0      f22c6400003e   fmove.s fp0, 0x3e(a4)
  ││ │╎││   0x00685aa6      5290           addq.l 0x1, (a0)
  ││ │╎││   0x00685aa8      29520066       move.l (a2), 0x66(a4)
  ││ │╎││   0x00685aac      594f           subq.w 0x4, a7
  ││ │╎││   0x00685aae      2f2e0014       move.l 0x14(a6), -(a7)
  ││ │╎││   0x00685ab2      4850           pea.l (a0)
  ││ │╎││   0x00685ab4      4ebaf9de       jsr FONTLET.check_for_div(pc)
  ││ │╎││   0x00685ab8      504f           addq.w 0x8, a7
  ││ │╎││   0x00685aba      f21f4400       fmove.s (a7)+, fp0
  ││ │╎││   0x00685abe      f22e44200010   fdiv.s 0x10(a6), fp0
  ││ │╎││   0x00685ac4      f22c4422003e   fadd.s 0x3e(a4), fp0
  ││ │╎││   0x00685aca      f22c64000042   fmove.s fp0, 0x42(a4)
  ││ │╎││   0x00685ad0      5290           addq.l 0x1, (a0)
  ││ │╎││   0x00685ad2      594f           subq.w 0x4, a7
  ││ │╎││   0x00685ad4      2f2e0014       move.l 0x14(a6), -(a7)
  ││ │╎││   0x00685ad8      4850           pea.l (a0)
  ││ │╎││   0x00685ada      4ebaf9b8       jsr FONTLET.check_for_div(pc)
  ││ │╎││   0x00685ade      504f           addq.w 0x8, a7
  ││ │╎││   0x00685ae0      f21f4400       fmove.s (a7)+, fp0
  ││ │╎││   0x00685ae4      f22e4420000c   fdiv.s 0xc(a6), fp0
  ││ │╎││   0x00685aea      f22c44220066   fadd.s 0x66(a4), fp0
  ││ │╎││   0x00685af0      f22c6400006a   fmove.s fp0, 0x6a(a4)
  ││ │╎││   0x00685af6      5290           addq.l 0x1, (a0)
  ││ │╎││   0x00685af8      296c00420046   move.l 0x42(a4), 0x46(a4)
  ││ │╎││   0x00685afe      594f           subq.w 0x4, a7
  ││ │╎││   0x00685b00      2f2e0014       move.l 0x14(a6), -(a7)
  ││ │╎││   0x00685b04      4850           pea.l (a0)
  ││ │╎││   0x00685b06      4ebaf98c       jsr FONTLET.check_for_div(pc)
  ││ │╎││   0x00685b0a      504f           addq.w 0x8, a7
  ││ │╎││   0x00685b0c      f21f4400       fmove.s (a7)+, fp0
  ││ │╎││   0x00685b10      f22e4420000c   fdiv.s 0xc(a6), fp0
  ││ │╎││   0x00685b16      f22c4422006a   fadd.s 0x6a(a4), fp0
  ││ │╎││   0x00685b1c      f22c6400006e   fmove.s fp0, 0x6e(a4)
  ││ │╎││   0x00685b22      5290           addq.l 0x1, (a0)
  ││┌─────< 0x00685b24      6000008c       bra.w 0x685bb2
  │││└────> 0x00685b28      2210           move.l (a0), d1
  │││ ╎││   0x00685b2a      34311a00       move.w (a1, d1.l * 2), d2
  │││ ╎││   0x00685b2e      48c2           ext.l d2
  │││ ╎││   0x00685b30      f2024000       fmove.l d2, fp0
  │││ ╎││   0x00685b34      f22e44200010   fdiv.s 0x10(a6), fp0
  │││ ╎││   0x00685b3a      f2134422       fadd.s (a3), fp0
  │││ ╎││   0x00685b3e      f22c6400003e   fmove.s fp0, 0x3e(a4)
  │││ ╎││   0x00685b44      5281           addq.l 0x1, d1
  │││ ╎││   0x00685b46      2081           move.l d1, (a0)
  │││ ╎││   0x00685b48      29520066       move.l (a2), 0x66(a4)
  │││ ╎││   0x00685b4c      30311a00       move.w (a1, d1.l * 2), d0
  │││ ╎││   0x00685b50      48c0           ext.l d0
  │││ ╎││   0x00685b52      f2004000       fmove.l d0, fp0
  │││ ╎││   0x00685b56      f22e44200010   fdiv.s 0x10(a6), fp0
  │││ ╎││   0x00685b5c      f22c4422003e   fadd.s 0x3e(a4), fp0
  │││ ╎││   0x00685b62      f22c64000042   fmove.s fp0, 0x42(a4)
  │││ ╎││   0x00685b68      5281           addq.l 0x1, d1
  │││ ╎││   0x00685b6a      2081           move.l d1, (a0)
  │││ ╎││   0x00685b6c      30311a00       move.w (a1, d1.l * 2), d0
  │││ ╎││   0x00685b70      48c0           ext.l d0
  │││ ╎││   0x00685b72      f2004000       fmove.l d0, fp0
  │││ ╎││   0x00685b76      f22e4420000c   fdiv.s 0xc(a6), fp0
  │││ ╎││   0x00685b7c      f22c44220066   fadd.s 0x66(a4), fp0
  │││ ╎││   0x00685b82      f22c6400006a   fmove.s fp0, 0x6a(a4)
  │││ ╎││   0x00685b88      5281           addq.l 0x1, d1
  │││ ╎││   0x00685b8a      2081           move.l d1, (a0)
  │││ ╎││   0x00685b8c      296c00420046   move.l 0x42(a4), 0x46(a4)
  │││ ╎││   0x00685b92      30311a00       move.w (a1, d1.l * 2), d0
  │││ ╎││   0x00685b96      48c0           ext.l d0
  │││ ╎││   0x00685b98      f2004000       fmove.l d0, fp0
  │││ ╎││   0x00685b9c      f22e4420000c   fdiv.s 0xc(a6), fp0
  │││ ╎││   0x00685ba2      f22c4422006a   fadd.s 0x6a(a4), fp0
  │││ ╎││   0x00685ba8      f22c6400006e   fmove.s fp0, 0x6e(a4)
  │││ ╎││   0x00685bae      5281           addq.l 0x1, d1
  │││ ╎││   0x00685bb0      2081           move.l d1, (a0)
  ││└┌────> 0x00685bb2      2f13           move.l (a3), -(a7)
  ││ ╎╎││   0x00685bb4      2f12           move.l (a2), -(a7)
  ││ ╎╎││   0x00685bb6      2f2c003e       move.l 0x3e(a4), -(a7)
  ││ ╎╎││   0x00685bba      2f2c0066       move.l 0x66(a4), -(a7)
  ││ ╎╎││   0x00685bbe      2f2c0042       move.l 0x42(a4), -(a7)
  ││ ╎╎││   0x00685bc2      2f2c006a       move.l 0x6a(a4), -(a7)
  ││ ╎╎││   0x00685bc6      2f2c0046       move.l 0x46(a4), -(a7)
  ││ ╎╎││   0x00685bca      2f2c006e       move.l 0x6e(a4), -(a7)
  ││ ╎╎││   0x00685bce      4ebaf6ee       jsr FONTLET.curve_line(pc)
  ││ ╎╎││   0x00685bd2      dec6           adda.w d6, a7
  ││ ╎╎││   0x00685bd4      26ac0046       move.l 0x46(a4), (a3)
  ││ ╎╎││   0x00685bd8      24ac006e       move.l 0x6e(a4), (a2)
  ││┌─────< 0x00685bdc      60000368       bra.w 0x685f46
  │││╎╎││   0x00685be0      2080           move.l d0, (a0)
  │││╎╎││   0x00685be2      5290           addq.l 0x1, (a0)
  │││╎╎││   0x00685be4      4a2c00d2       tst.b 0xd2(a4)
  ────────< 0x00685be8      670000b8       beq.w 0x685ca2
  │││╎╎││   0x00685bec      487ab46a       pea.l 0x681058(pc)
  │││╎╎││   0x00685bf0      4878000d       pea.l 0xd
  │││╎╎││   0x00685bf4      2f17           move.l (a7), -(a7)
  │││╎╎││   0x00685bf6      4eb9004047ea   jsr p_wts_o
  │││╎╎││   0x00685bfc      dec3           adda.w d3, a7
  │││╎╎││   0x00685bfe      4eb900404946   jsr p_wtln_o
  │││╎╎││   0x00685c04      2953003e       move.l (a3), 0x3e(a4)
  │││╎╎││   0x00685c08      594f           subq.w 0x4, a7
  │││╎╎││   0x00685c0a      2f2e0014       move.l 0x14(a6), -(a7)
  │││╎╎││   0x00685c0e      4850           pea.l (a0)
  │││╎╎││   0x00685c10      4ebaf882       jsr FONTLET.check_for_div(pc)
  │││╎╎││   0x00685c14      504f           addq.w 0x8, a7
  │││╎╎││   0x00685c16      f21f4400       fmove.s (a7)+, fp0
  │││╎╎││   0x00685c1a      f22e4420000c   fdiv.s 0xc(a6), fp0
  │││╎╎││   0x00685c20      f2124422       fadd.s (a2), fp0
  │││╎╎││   0x00685c24      f22c64000066   fmove.s fp0, 0x66(a4)
  │││╎╎││   0x00685c2a      5290           addq.l 0x1, (a0)
  │││╎╎││   0x00685c2c      594f           subq.w 0x4, a7
  │││╎╎││   0x00685c2e      2f2e0014       move.l 0x14(a6), -(a7)
  │││╎╎││   0x00685c32      4850           pea.l (a0)
  │││╎╎││   0x00685c34      4ebaf85e       jsr FONTLET.check_for_div(pc)
  │││╎╎││   0x00685c38      504f           addq.w 0x8, a7
  │││╎╎││   0x00685c3a      f21f4400       fmove.s (a7)+, fp0
  │││╎╎││   0x00685c3e      f22e44200010   fdiv.s 0x10(a6), fp0
  │││╎╎││   0x00685c44      f22c4422003e   fadd.s 0x3e(a4), fp0
  │││╎╎││   0x00685c4a      f22c64000042   fmove.s fp0, 0x42(a4)
  │││╎╎││   0x00685c50      5290           addq.l 0x1, (a0)
  │││╎╎││   0x00685c52      594f           subq.w 0x4, a7
  │││╎╎││   0x00685c54      2f2e0014       move.l 0x14(a6), -(a7)
  │││╎╎││   0x00685c58      4850           pea.l (a0)
  │││╎╎││   0x00685c5a      4ebaf838       jsr FONTLET.check_for_div(pc)
  │││╎╎││   0x00685c5e      504f           addq.w 0x8, a7
  │││╎╎││   0x00685c60      f21f4400       fmove.s (a7)+, fp0
  │││╎╎││   0x00685c64      f22e4420000c   fdiv.s 0xc(a6), fp0
  │││╎╎││   0x00685c6a      f22c44220066   fadd.s 0x66(a4), fp0
  │││╎╎││   0x00685c70      f22c6400006a   fmove.s fp0, 0x6a(a4)
  │││╎╎││   0x00685c76      5290           addq.l 0x1, (a0)
  │││╎╎││   0x00685c78      594f           subq.w 0x4, a7
  │││╎╎││   0x00685c7a      2f2e0014       move.l 0x14(a6), -(a7)
  │││╎╎││   0x00685c7e      4850           pea.l (a0)
  │││╎╎││   0x00685c80      4ebaf812       jsr FONTLET.check_for_div(pc)
  │││╎╎││   0x00685c84      504f           addq.w 0x8, a7
  │││╎╎││   0x00685c86      f21f4400       fmove.s (a7)+, fp0
  │││╎╎││   0x00685c8a      f22e44200010   fdiv.s 0x10(a6), fp0
  │││╎╎││   0x00685c90      f22c44220042   fadd.s 0x42(a4), fp0
  │││╎╎││   0x00685c96      f22c64000046   fmove.s fp0, 0x46(a4)
  │││╎╎││   0x00685c9c      5290           addq.l 0x1, (a0)
  ────────< 0x00685c9e      60000086       bra.w 0x685d26
  ────────> 0x00685ca2      2953003e       move.l (a3), 0x3e(a4)
  │││╎╎││   0x00685ca6      2210           move.l (a0), d1
  │││╎╎││   0x00685ca8      34311a00       move.w (a1, d1.l * 2), d2
  │││╎╎││   0x00685cac      48c2           ext.l d2
  │││╎╎││   0x00685cae      f2024000       fmove.l d2, fp0
  │││╎╎││   0x00685cb2      f22e4420000c   fdiv.s 0xc(a6), fp0
  │││╎╎││   0x00685cb8      f2124422       fadd.s (a2), fp0
  │││╎╎││   0x00685cbc      f22c64000066   fmove.s fp0, 0x66(a4)
  │││╎╎││   0x00685cc2      5281           addq.l 0x1, d1
  │││╎╎││   0x00685cc4      2081           move.l d1, (a0)
  │││╎╎││   0x00685cc6      30311a00       move.w (a1, d1.l * 2), d0
  │││╎╎││   0x00685cca      48c0           ext.l d0
  │││╎╎││   0x00685ccc      f2004000       fmove.l d0, fp0
  │││╎╎││   0x00685cd0      f22e44200010   fdiv.s 0x10(a6), fp0
  │││╎╎││   0x00685cd6      f22c4422003e   fadd.s 0x3e(a4), fp0
  │││╎╎││   0x00685cdc      f22c64000042   fmove.s fp0, 0x42(a4)
  │││╎╎││   0x00685ce2      5281           addq.l 0x1, d1
  │││╎╎││   0x00685ce4      2081           move.l d1, (a0)
  │││╎╎││   0x00685ce6      30311a00       move.w (a1, d1.l * 2), d0
  │││╎╎││   0x00685cea      48c0           ext.l d0
  │││╎╎││   0x00685cec      f2004000       fmove.l d0, fp0
  │││╎╎││   0x00685cf0      f22e4420000c   fdiv.s 0xc(a6), fp0
  │││╎╎││   0x00685cf6      f22c44220066   fadd.s 0x66(a4), fp0
  │││╎╎││   0x00685cfc      f22c6400006a   fmove.s fp0, 0x6a(a4)
  │││╎╎││   0x00685d02      5281           addq.l 0x1, d1
  │││╎╎││   0x00685d04      2081           move.l d1, (a0)
  │││╎╎││   0x00685d06      30311a00       move.w (a1, d1.l * 2), d0
  │││╎╎││   0x00685d0a      48c0           ext.l d0
  │││╎╎││   0x00685d0c      f2004000       fmove.l d0, fp0
  │││╎╎││   0x00685d10      f22e44200010   fdiv.s 0x10(a6), fp0
  │││╎╎││   0x00685d16      f22c44220042   fadd.s 0x42(a4), fp0
  │││╎╎││   0x00685d1c      f22c64000046   fmove.s fp0, 0x46(a4)
  │││╎╎││   0x00685d22      5281           addq.l 0x1, d1
  │││╎╎││   0x00685d24      2081           move.l d1, (a0)
  ────────> 0x00685d26      296c006a006e   move.l 0x6a(a4), 0x6e(a4)
  │││└────< 0x00685d2c      6000fe84       bra.w 0x685bb2
  │││ ╎││   0x00685d30      2080           move.l d0, (a0)
  │││ ╎││   0x00685d32      5290           addq.l 0x1, (a0)
  │││ ╎││   0x00685d34      f2124400       fmove.s (a2), fp0
  │││ ╎││   0x00685d38      f22c4428007a   fsub.s 0x7a(a4), fp0
  │││ ╎││   0x00685d3e      f23c40380000.  fcmp.l 0x0, fp0
  │││ ╎││   0x00685d46      f2960018       fbf.w 0x685d60
  │││ ╎││   0x00685d4a      4a2c00e4       tst.b 0xe4(a4)
  │││┌────< 0x00685d4e      6710           beq.b 0x685d60
  ││││╎││   0x00685d50      2f13           move.l (a3), -(a7)
  ││││╎││   0x00685d52      2f2c0052       move.l 0x52(a4), -(a7)
  ││││╎││   0x00685d56      2f12           move.l (a2), -(a7)
  ││││╎││   0x00685d58      4ebaccba       jsr FONTLET.horizontal_line(pc)
  ││││╎││   0x00685d5c      dec3           adda.w d3, a7
  ────────< 0x00685d5e      6012           bra.b 0x685d72
  │││└────> 0x00685d60      2f13           move.l (a3), -(a7)
  │││ ╎││   0x00685d62      2f12           move.l (a2), -(a7)
  │││ ╎││   0x00685d64      2f2c0052       move.l 0x52(a4), -(a7)
  │││ ╎││   0x00685d68      2f2c007a       move.l 0x7a(a4), -(a7)
  │││ ╎││   0x00685d6c      4ebaf06e       jsr FONTLET.intersections(pc)
  │││ ╎││   0x00685d70      dec5           adda.w d5, a7
  ───┌────< 0x00685d72      600001d2       bra.w 0x685f46
  ││││╎││   0x00685d76      2080           move.l d0, (a0)
  ││││╎││   0x00685d78      5290           addq.l 0x1, (a0)
  ││││╎││   0x00685d7a      4a2c00d2       tst.b 0xd2(a4)
  ────────< 0x00685d7e      673e           beq.b 0x685dbe
  ││││╎││   0x00685d80      487ab2fa       pea.l 0x68107c(pc)
  ││││╎││   0x00685d84      4878000d       pea.l 0xd
  ││││╎││   0x00685d88      2f17           move.l (a7), -(a7)
  ││││╎││   0x00685d8a      4eb9004047ea   jsr p_wts_o
  ││││╎││   0x00685d90      dec3           adda.w d3, a7
  ││││╎││   0x00685d92      4eb900404946   jsr p_wtln_o
  ││││╎││   0x00685d98      594f           subq.w 0x4, a7
  ││││╎││   0x00685d9a      2f2e0014       move.l 0x14(a6), -(a7)
  ││││╎││   0x00685d9e      4850           pea.l (a0)
  ││││╎││   0x00685da0      4ebaf6f2       jsr FONTLET.check_for_div(pc)
  ││││╎││   0x00685da4      504f           addq.w 0x8, a7
  ││││╎││   0x00685da6      f21f4400       fmove.s (a7)+, fp0
  ││││╎││   0x00685daa      f22e44200010   fdiv.s 0x10(a6), fp0
  ││││╎││   0x00685db0      f2134422       fadd.s (a3), fp0
  ││││╎││   0x00685db4      f22c64000032   fmove.s fp0, 0x32(a4)
  ││││╎││   0x00685dba      5290           addq.l 0x1, (a0)
  ────────< 0x00685dbc      6020           bra.b 0x685dde
  ────────> 0x00685dbe      2210           move.l (a0), d1
  ││││╎││   0x00685dc0      34311a00       move.w (a1, d1.l * 2), d2
  ││││╎││   0x00685dc4      48c2           ext.l d2
  ││││╎││   0x00685dc6      f2024000       fmove.l d2, fp0
  ││││╎││   0x00685dca      f22e44200010   fdiv.s 0x10(a6), fp0
  ││││╎││   0x00685dd0      f2134422       fadd.s (a3), fp0
  ││││╎││   0x00685dd4      f22c64000032   fmove.s fp0, 0x32(a4)
  ││││╎││   0x00685dda      5281           addq.l 0x1, d1
  ││││╎││   0x00685ddc      2081           move.l d1, (a0)
  ────────> 0x00685dde      2952005a       move.l (a2), 0x5a(a4)
  ────────> 0x00685de2      296c00320052   move.l 0x32(a4), 0x52(a4)
  ││││╎││   0x00685de8      296c005a007a   move.l 0x5a(a4), 0x7a(a4)
  ││││└───< 0x00685dee      6000f9ac       bra.w 0x68579c
  ││││ ││   0x00685df2      2080           move.l d0, (a0)
  ││││ ││   0x00685df4      5290           addq.l 0x1, (a0)
  ││││ ││   0x00685df6      4a2c00d2       tst.b 0xd2(a4)
  ││││┌───< 0x00685dfa      673e           beq.b 0x685e3a
  │││││││   0x00685dfc      487ab298       pea.l 0x681096(pc)
  │││││││   0x00685e00      4878000d       pea.l 0xd
  │││││││   0x00685e04      2f17           move.l (a7), -(a7)
  │││││││   0x00685e06      4eb9004047ea   jsr p_wts_o
  │││││││   0x00685e0c      dec3           adda.w d3, a7
  │││││││   0x00685e0e      4eb900404946   jsr p_wtln_o
  │││││││   0x00685e14      594f           subq.w 0x4, a7
  │││││││   0x00685e16      2f2e0014       move.l 0x14(a6), -(a7)
  │││││││   0x00685e1a      4850           pea.l (a0)
  │││││││   0x00685e1c      4ebaf676       jsr FONTLET.check_for_div(pc)
  │││││││   0x00685e20      504f           addq.w 0x8, a7
  │││││││   0x00685e22      f21f4400       fmove.s (a7)+, fp0
  │││││││   0x00685e26      f22e4420000c   fdiv.s 0xc(a6), fp0
  │││││││   0x00685e2c      f2124422       fadd.s (a2), fp0
  │││││││   0x00685e30      f22c6400005a   fmove.s fp0, 0x5a(a4)
  │││││││   0x00685e36      5290           addq.l 0x1, (a0)
  ────────< 0x00685e38      6020           bra.b 0x685e5a
  ││││└───> 0x00685e3a      2210           move.l (a0), d1
  ││││ ││   0x00685e3c      34311a00       move.w (a1, d1.l * 2), d2
  ││││ ││   0x00685e40      48c2           ext.l d2
  ││││ ││   0x00685e42      f2024000       fmove.l d2, fp0
  ││││ ││   0x00685e46      f22e4420000c   fdiv.s 0xc(a6), fp0
  ││││ ││   0x00685e4c      f2124422       fadd.s (a2), fp0
  ││││ ││   0x00685e50      f22c6400005a   fmove.s fp0, 0x5a(a4)
  ││││ ││   0x00685e56      5281           addq.l 0x1, d1
  ││││ ││   0x00685e58      2081           move.l d1, (a0)
  ────────> 0x00685e5a      29530032       move.l (a3), 0x32(a4)
  ────────< 0x00685e5e      6082           bra.b 0x685de2
  ││││ ││   0x00685e60      2080           move.l d0, (a0)
  ││││ ││   0x00685e62      5290           addq.l 0x1, (a0)
  ││││ ││   0x00685e64      4a2c00d2       tst.b 0xd2(a4)
  ││││┌───< 0x00685e68      6762           beq.b 0x685ecc
  │││││││   0x00685e6a      487ab244       pea.l 0x6810b0(pc)
  │││││││   0x00685e6e      4878000d       pea.l 0xd
  │││││││   0x00685e72      2f17           move.l (a7), -(a7)
  │││││││   0x00685e74      4eb9004047ea   jsr p_wts_o
  │││││││   0x00685e7a      dec3           adda.w d3, a7
  │││││││   0x00685e7c      4eb900404946   jsr p_wtln_o
  │││││││   0x00685e82      594f           subq.w 0x4, a7
  │││││││   0x00685e84      2f2e0014       move.l 0x14(a6), -(a7)
  │││││││   0x00685e88      4850           pea.l (a0)
  │││││││   0x00685e8a      4ebaf608       jsr FONTLET.check_for_div(pc)
  │││││││   0x00685e8e      504f           addq.w 0x8, a7
  │││││││   0x00685e90      f21f4400       fmove.s (a7)+, fp0
  │││││││   0x00685e94      f22e44200010   fdiv.s 0x10(a6), fp0
  │││││││   0x00685e9a      f2134422       fadd.s (a3), fp0
  │││││││   0x00685e9e      f22c64000032   fmove.s fp0, 0x32(a4)
  │││││││   0x00685ea4      5290           addq.l 0x1, (a0)
  │││││││   0x00685ea6      594f           subq.w 0x4, a7
  │││││││   0x00685ea8      2f2e0014       move.l 0x14(a6), -(a7)
  │││││││   0x00685eac      4850           pea.l (a0)
  │││││││   0x00685eae      4ebaf5e4       jsr FONTLET.check_for_div(pc)
  │││││││   0x00685eb2      504f           addq.w 0x8, a7
  │││││││   0x00685eb4      f21f4400       fmove.s (a7)+, fp0
  │││││││   0x00685eb8      f22e4420000c   fdiv.s 0xc(a6), fp0
  │││││││   0x00685ebe      f2124422       fadd.s (a2), fp0
  │││││││   0x00685ec2      f22c6400005a   fmove.s fp0, 0x5a(a4)
  │││││││   0x00685ec8      5290           addq.l 0x1, (a0)
  ────────< 0x00685eca      603e           bra.b 0x685f0a
  ││││└───> 0x00685ecc      2210           move.l (a0), d1
  ││││ ││   0x00685ece      34311a00       move.w (a1, d1.l * 2), d2
  ││││ ││   0x00685ed2      48c2           ext.l d2
  ││││ ││   0x00685ed4      f2024000       fmove.l d2, fp0
  ││││ ││   0x00685ed8      f22e44200010   fdiv.s 0x10(a6), fp0
  ││││ ││   0x00685ede      f2134422       fadd.s (a3), fp0
  ││││ ││   0x00685ee2      f22c64000032   fmove.s fp0, 0x32(a4)
  ││││ ││   0x00685ee8      5281           addq.l 0x1, d1
  ││││ ││   0x00685eea      2081           move.l d1, (a0)
  ││││ ││   0x00685eec      30311a00       move.w (a1, d1.l * 2), d0
  ││││ ││   0x00685ef0      48c0           ext.l d0
  ││││ ││   0x00685ef2      f2004000       fmove.l d0, fp0
  ││││ ││   0x00685ef6      f22e4420000c   fdiv.s 0xc(a6), fp0
  ││││ ││   0x00685efc      f2124422       fadd.s (a2), fp0
  ││││ ││   0x00685f00      f22c6400005a   fmove.s fp0, 0x5a(a4)
  ││││ ││   0x00685f06      5281           addq.l 0x1, d1
  ││││ ││   0x00685f08      2081           move.l d1, (a0)
  ────────< 0x00685f0a      6000fed6       bra.w 0x685de2
  ││││ ││   0x00685f0e      2080           move.l d0, (a0)
  ││││ ││   0x00685f10      5290           addq.l 0x1, (a0)
  ││││ ││   0x00685f12      197c0001002c   move.b 0x1, 0x2c(a4)
  ││││ ││   0x00685f18      422c00d3       clr.b 0xd3(a4)
  ││││ ││   0x00685f1c      4a2c00e4       tst.b 0xe4(a4)
  ││││┌───< 0x00685f20      670a           beq.b 0x685f2c
  │││││││   0x00685f22      4a2c007f       tst.b 0x7f(a4)
  ────────< 0x00685f26      6604           bne.b 0x685f2c
  │││││││   0x00685f28      4ebac52a       jsr FONTLET.find_remaining_(pc)
  ────└───> 0x00685f2c      6018           bra.b 0x685f46
  ││││ ││   0x00685f2e      2080           move.l d0, (a0)
  ││││ ││   0x00685f30      5290           addq.l 0x1, (a0)
  ││││ ││   0x00685f32      422c00d3       clr.b 0xd3(a4)
  ││││┌───< 0x00685f36      600e           bra.b 0x685f46
  │││││└──> 0x00685f38      be04           cmp.b d4, d7
  │││││┌──< 0x00685f3a      6606           bne.b 0x685f42
  │││││││   0x00685f3c      2080           move.l d0, (a0)
  │││││││   0x00685f3e      5690           addq.l 0x3, (a0)
  ────────< 0x00685f40      6004           bra.b 0x685f46
  │││││└──> 0x00685f42      2080           move.l d0, (a0)
  │││││ │   0x00685f44      5290           addq.l 0x1, (a0)
  └└└└└─└─> 0x00685f46      f21fd080       fmovem (a7)+, fp0
            0x00685f4a      4cdf0fff       movem.l (a7)+, d0-d7/a0-a3
            0x00685f4e      4e5e           unlk a6
            0x00685f50      4e75           rts
            ; CALL XREF from FONTLET.subrread @ 0x685fce
            ; CALL XREF from FONTLET.charread @ 0x686184
┌ 170: FONTLET.subrread ();
│           0x00685f52      4e56ff8e       link.w a6, 0xff8e
│           0x00685f56      bfd5           cmpa.l (a5), a7
│       ┌─< 0x00685f58      6206           bhi.b 0x685f60
│       │   0x00685f5a      44fc0002       move.w 0x2, ccr
│       │   0x00685f5e      4e76           trapv
│       └─> 0x00685f60      defc0064       adda.w 0x64, a7
│           0x00685f64      48e7f1f0       movem.l d0-d3/d7/a0-a3, -(a7)
│           0x00685f68      43eefffc       lea.l -0x4(a6), a1
│           0x00685f6c      45eefff8       lea.l -0x8(a6), a2
│           0x00685f70      7601           moveq 0x1, d3
│           0x00685f72      266c00ea       movea.l 0xea(a4), a3
│           0x00685f76      7e00           moveq 0x0, d7
│       ┌─> 0x00685f78      4a07           tst.b d7
│      ┌──< 0x00685f7a      6618           bne.b 0x685f94
│      │╎   0x00685f7c      2013           move.l (a3), d0
│      │╎   0x00685f7e      b0ae0010       cmp.l 0x10(a6), d0
│     ┌───< 0x00685f82      6604           bne.b 0x685f88
│     ││╎   0x00685f84      7e01           moveq 0x1, d7
│    ┌────< 0x00685f86      6004           bra.b 0x685f8c
│    │└───> 0x00685f88      266b0004       movea.l 0x4(a3), a3
│    └────> 0x00685f8c      b6c3           cmpa.w d3, a3
│     ┌───< 0x00685f8e      6602           bne.b 0x685f92
│     ││╎   0x00685f90      7e01           moveq 0x1, d7
│     └─└─< 0x00685f92      60e4           bra.b 0x685f78
│      └──> 0x00685f94      24ab0008       move.l 0x8(a3), (a2)
│           0x00685f98      194300d3       move.b d3, 0xd3(a4)
│           0x00685f9c      4291           clr.l (a1)
│       ┌─> 0x00685f9e      4a2c00d3       tst.b 0xd3(a4)
│      ┌──< 0x00685fa2      6750           beq.b 0x685ff4
│      │╎   0x00685fa4      4a2c002c       tst.b 0x2c(a4)
│     ┌───< 0x00685fa8      664a           bne.b 0x685ff4
│     ││╎   0x00685faa      2052           movea.l (a2), a0
│     ││╎   0x00685fac      2011           move.l (a1), d0
│     ││╎   0x00685fae      32300a00       move.w (a0, d0.l * 2), d1
│     ││╎   0x00685fb2      0c410004       cmpi.w 0x4, d1
│    ┌────< 0x00685fb6      6626           bne.b 0x685fde
│    │││╎   0x00685fb8      2280           move.l d0, (a1)
│    │││╎   0x00685fba      5291           addq.l 0x1, (a1)
│    │││╎   0x00685fbc      2211           move.l (a1), d1
│    │││╎   0x00685fbe      34301a00       move.w (a0, d1.l * 2), d2
│    │││╎   0x00685fc2      48c2           ext.l d2
│    │││╎   0x00685fc4      2f02           move.l d2, -(a7)
│    │││╎   0x00685fc6      2f2e000c       move.l 0xc(a6), -(a7)
│    │││╎   0x00685fca      2f2e0008       move.l 0x8(a6), -(a7)
│    │││╎   0x00685fce      4ebaff82       jsr FONTLET.subrread(pc)
│    │││╎   0x00685fd2      defc000c       adda.w 0xc, a7
│    │││╎   0x00685fd6      5291           addq.l 0x1, (a1)
│    │││╎   0x00685fd8      194300d3       move.b d3, 0xd3(a4)
│   ┌─────< 0x00685fdc      6014           bra.b 0x685ff2
│   │└────> 0x00685fde      2f12           move.l (a2), -(a7)
│   │ ││╎   0x00685fe0      2f2e000c       move.l 0xc(a6), -(a7)
│   │ ││╎   0x00685fe4      2f2e0008       move.l 0x8(a6), -(a7)
│   │ ││╎   0x00685fe8      4851           pea.l (a1)
│   │ ││╎   0x00685fea      4ebaf680       jsr FONTLET.instruct_conver(pc)
│   │ ││╎   0x00685fee      defc0010       adda.w 0x10, a7
│   └───└─< 0x00685ff2      60aa           bra.b 0x685f9e
│     └└──> 0x00685ff4      4cdf0f8f       movem.l (a7)+, d0-d3/d7/a0-a3
│           0x00685ff8      4e5e           unlk a6
└           0x00685ffa      4e75           rts
            ; CALL XREF from FONTLET.charread @ 0x68619a
┌ 24: FONTLET.seac_instructio ();
│           0x00685ffc      4e56ffac       link.w a6, 0xffac
│           0x00686000      bfd5           cmpa.l (a5), a7
│       ┌─< 0x00686002      6206           bhi.b 0x68600a
│       │   0x00686004      44fc0002       move.w 0x2, ccr
│       │   0x00686008      4e76           trapv
│       └─> 0x0068600a      defc0048       adda.w 0x48, a7
│           0x0068600e      48e7f0f8       movem.l d0-d3/a0-a4, -(a7)
│           0x00686012      f227e001       fmovem fp0, -(a7)
            0x00686016      45ec000e       lea.l 0xe(a4), a2
            0x0068601a      47ec0004       lea.l 0x4(a4), a3
            0x0068601e      7401           moveq 0x1, d2
            0x00686020      760c           moveq 0xc, d3
            0x00686022      2054           movea.l (a4), a0
            0x00686024      1142007e       move.b d2, 0x7e(a0)
            0x00686028      1142007f       move.b d2, 0x7f(a0)
            0x0068602c      226c0008       movea.l 0x8(a4), a1
            0x00686030      594f           subq.w 0x4, a7
            0x00686032      2012           move.l (a2), d0
            0x00686034      5680           addq.l 0x3, d0
            0x00686036      32310a00       move.w (a1, d0.l * 2), d1
            0x0068603a      48c1           ext.l d1
            0x0068603c      2f01           move.l d1, -(a7)
            0x0068603e      2f2800ee       move.l 0xee(a0), -(a7)
            0x00686042      4ebab3fc       jsr FONTLET.look_up_char_ad(pc)
            0x00686046      504f           addq.w 0x8, a7
            0x00686048      269f           move.l (a7)+, (a3)
            0x0068604a      2d68002efff8   move.l 0x2e(a0), -0x8(a6)
            0x00686050      2d680056fffc   move.l 0x56(a0), -0x4(a6)
            0x00686056      2f13           move.l (a3), -(a7)
            0x00686058      2f2c001e       move.l 0x1e(a4), -(a7)
            0x0068605c      2f2c001a       move.l 0x1a(a4), -(a7)
            0x00686060      4eb900686102   jsr 0x686102
            0x00686066      dec3           adda.w d3, a7
            0x00686068      286efff0       movea.l -0x10(a6), a4
            0x0068606c      4228002c       clr.b 0x2c(a0)
            0x00686070      4228007f       clr.b 0x7f(a0)
            0x00686074      2012           move.l (a2), d0
            0x00686076      5280           addq.l 0x1, d0
            0x00686078      32310a00       move.w (a1, d0.l * 2), d1
            0x0068607c      48c1           ext.l d1
            0x0068607e      f2014000       fmove.l d1, fp0
            0x00686082      f22c4420001e   fdiv.s 0x1e(a4), fp0
            0x00686088      f22e4422fff8   fadd.s -0x8(a6), fp0
            0x0068608e      f2286400002e   fmove.s fp0, 0x2e(a0)
            0x00686094      2012           move.l (a2), d0
            0x00686096      5480           addq.l 0x2, d0
            0x00686098      32310a00       move.w (a1, d0.l * 2), d1
            0x0068609c      48c1           ext.l d1
            0x0068609e      f2014000       fmove.l d1, fp0
            0x006860a2      f22c4420001a   fdiv.s 0x1a(a4), fp0
            0x006860a8      f22e4422fffc   fadd.s -0x4(a6), fp0
            0x006860ae      f22864000056   fmove.s fp0, 0x56(a0)
            0x006860b4      514f           subq.w 0x8, a7
            0x006860b6      2012           move.l (a2), d0
            0x006860b8      5880           addq.l 0x4, d0
            0x006860ba      32310a00       move.w (a1, d0.l * 2), d1
            0x006860be      48c1           ext.l d1
            0x006860c0      f2014000       fmove.l d1, fp0
            0x006860c4      f2276400       fmove.s fp0, -(a7)
            0x006860c8      4eb9004081d2   jsr p_round
            0x006860ce      2ea800ee       move.l 0xee(a0), (a7)
            0x006860d2      4ebab36c       jsr FONTLET.look_up_char_ad(pc)
            0x006860d6      504f           addq.w 0x8, a7
            0x006860d8      269f           move.l (a7)+, (a3)
            0x006860da      2f13           move.l (a3), -(a7)
            0x006860dc      2f2c001e       move.l 0x1e(a4), -(a7)
            0x006860e0      2f2c001a       move.l 0x1a(a4), -(a7)
            0x006860e4      4eb900686102   jsr 0x686102
            0x006860ea      dec3           adda.w d3, a7
            0x006860ec      286efff0       movea.l -0x10(a6), a4
            0x006860f0      1142002c       move.b d2, 0x2c(a0)
            0x006860f4      5a92           addq.l 0x5, (a2)
            0x006860f6      f21fd080       fmovem (a7)+, fp0
            0x006860fa      4cdf1f0f       movem.l (a7)+, d0-d3/a0-a4
            0x006860fe      4e5e           unlk a6
            0x00686100      4e75           rts
            0x00686102      .byte 0x28
            0x00686103      .byte 0x54
┌ 190: FONTLET.charread ();
│           0x00686104      4e56ff88       link.w a6, 0xff88
│           0x00686108      bfd5           cmpa.l (a5), a7
│       ┌─< 0x0068610a      6206           bhi.b 0x686112
│       │   0x0068610c      44fc0002       move.w 0x2, ccr
│       │   0x00686110      4e76           trapv
│       └─> 0x00686112      defc006a       adda.w 0x6a, a7
│           0x00686116      48e7fce8       movem.l d0-d5/a0-a2/a4, -(a7)
│           0x0068611a      43eefffc       lea.l -0x4(a6), a1
│           0x0068611e      45eefff6       lea.l -0xa(a6), a2
│           0x00686122      7801           moveq 0x1, d4
│           0x00686124      7a0c           moveq 0xc, d5
│           0x00686126      206e0010       movea.l 0x10(a6), a0
│           0x0068612a      b0c4           cmpa.w d4, a0
│       ┌─< 0x0068612c      661c           bne.b 0x68614a
│       │   0x0068612e      2484           move.l d4, (a2)
│       │   0x00686130      487aafd3       pea.l 0x681105(pc)
│       │   0x00686134      4878000b       pea.l 0xb
│       │   0x00686138      2f17           move.l (a7), -(a7)
│       │   0x0068613a      4eb9004047ea   jsr p_wts_o
│       │   0x00686140      dec5           adda.w d5, a7
│       │   0x00686142      4eb900404946   jsr p_wtln_o
│      ┌──< 0x00686148      600a           bra.b 0x686154
│      │└─> 0x0068614a      24a80018       move.l 0x18(a0), (a2)
│      │    0x0068614e      1968001100d2   move.b 0x11(a0), 0xd2(a4)
│      └──> 0x00686154      1d44fffb       move.b d4, -0x5(a6)
│           0x00686158      4291           clr.l (a1)
│       ┌─> 0x0068615a      4a2c002c       tst.b 0x2c(a4)
│      ┌──< 0x0068615e      665a           bne.b 0x6861ba
│      │╎   0x00686160      2052           movea.l (a2), a0
│      │╎   0x00686162      2011           move.l (a1), d0
│      │╎   0x00686164      32300a00       move.w (a0, d0.l * 2), d1
│      │╎   0x00686168      0c410004       cmpi.w 0x4, d1
│     ┌───< 0x0068616c      6620           bne.b 0x68618e
│     ││╎   0x0068616e      2280           move.l d0, (a1)
│     ││╎   0x00686170      5291           addq.l 0x1, (a1)
│     ││╎   0x00686172      2411           move.l (a1), d2
│     ││╎   0x00686174      36302a00       move.w (a0, d2.l * 2), d3
│     ││╎   0x00686178      48c3           ext.l d3
│     ││╎   0x0068617a      2f03           move.l d3, -(a7)
│     ││╎   0x0068617c      2f2e000c       move.l 0xc(a6), -(a7)
│     ││╎   0x00686180      2f2e0008       move.l 0x8(a6), -(a7)
│     ││╎   0x00686184      4ebafdcc       jsr FONTLET.subrread(pc)
│     ││╎   0x00686188      dec5           adda.w d5, a7
│     ││╎   0x0068618a      5291           addq.l 0x1, (a1)
│    ┌────< 0x0068618c      602a           bra.b 0x6861b8
│    │└───> 0x0068618e      0c41000f       cmpi.w 0xf, d1
│    │┌───< 0x00686192      6610           bne.b 0x6861a4
│    │││╎   0x00686194      5291           addq.l 0x1, (a1)
│    │││╎   0x00686196      49eeffee       lea.l -0x12(a6), a4
│    │││╎   0x0068619a      4ebafe60       jsr FONTLET.seac_instructio(pc)
│    │││╎   0x0068619e      286effee       movea.l -0x12(a6), a4
│   ┌─────< 0x006861a2      6014           bra.b 0x6861b8
│   ││└───> 0x006861a4      2f12           move.l (a2), -(a7)
│   ││ │╎   0x006861a6      2f2e000c       move.l 0xc(a6), -(a7)
│   ││ │╎   0x006861aa      2f2e0008       move.l 0x8(a6), -(a7)
│   ││ │╎   0x006861ae      4851           pea.l (a1)
│   ││ │╎   0x006861b0      4ebaf4ba       jsr FONTLET.instruct_conver(pc)
│   ││ │╎   0x006861b4      defc0010       adda.w 0x10, a7
│   └└──└─< 0x006861b8      60a0           bra.b 0x68615a
│      └──> 0x006861ba      4cdf173f       movem.l (a7)+, d0-d5/a0-a2/a4
│           0x006861be      4e5e           unlk a6
└           0x006861c0      4e75           rts
            ; CALL XREF from VECTORFONT.vec_char_precal @ 0x680d9a
┌ 24: FONTLET.draw_char ();
│           0x006861c2      4e56feac       link.w a6, 0xfeac
│           0x006861c6      bfd5           cmpa.l (a5), a7
│       ┌─< 0x006861c8      6206           bhi.b 0x6861d0
│       │   0x006861ca      44fc0002       move.w 0x2, ccr
│       │   0x006861ce      4e76           trapv
│       └─> 0x006861d0      defc0080       adda.w 0x80, a7
│           0x006861d4      48e7fff8       movem.l d0-d7/a0-a4, -(a7)
│           0x006861d8      f227e0c3       fmovem fp0-fp1/fp6-fp7, -(a7)
            0x006861dc      45f9004081f8   lea.l p_trunc, a2
            0x006861e2      47eeff54       lea.l -0xac(a6), a3
            0x006861e6      7200           moveq 0x0, d1
            0x006861e8      7401           moveq 0x1, d2
            0x006861ea      7602           moveq 0x2, d3
            0x006861ec      780c           moveq 0xc, d4
            0x006861ee      7aff           moveq 0xff, d5
            0x006861f0      594f           subq.w 0x4, a7
            0x006861f2      4eb900402e30   jsr p_Cur_Ticks
            0x006861f8      23d7008518ba   move.l (a7), 0x8518ba
            0x006861fe      544f           addq.w 0x2, a7
            0x00686200      486effac       pea.l -0x54(a6)
            0x00686204      4eb900404434   jsr fcn.00404434
            0x0068620a      584f           addq.w 0x4, a7
            0x0068620c      4a1f           tst.b (a7)+
        ┌─< 0x0068620e      670003a8       beq.w 0x6865b8
        │   0x00686212      4879008518b2   pea.l 0x8518b2
        │   0x00686218      2f3c00010000   move.l 0x10000, -(a7)
        │   0x0068621e      4eb900403a92   jsr p_New
        │   0x00686224      504f           addq.w 0x8, a7
        │   0x00686226      2079008518b2   movea.l 0x8518b2, a0
        │   0x0068622c      b0c2           cmpa.w d2, a0
       ┌──< 0x0068622e      660c           bne.b 0x68623c
       ││   0x00686230      486effac       pea.l -0x54(a6)
       ││   0x00686234      4eb900404468   jsr fcn.00404468
       ││   0x0068623a      584f           addq.w 0x4, a7
       └──> 0x0068623c      23f9008518b2.  move.l 0x8518b2, 0x8518b6.l
        │   0x00686246      2079008518b6   movea.l 0x8518b6, a0
        │   0x0068624c      218201700000.  move.l d2, 0xfffc(a0, invalid.w)
        │   0x00686254      21b9008518b6.  move.l 0x8518b6, 0xaaaaaaaa(a0, invalid.w)
        │   0x0068625e      fff8           invalid
        │   0x00686260      43f001700000.  lea.l 0xfff4(a0, invalid.w), a1
        │   0x00686268      2f09           move.l a1, -(a7)
        │   0x0068626a      219f01700000.  move.l (a7)+, 0xfff4(a0, invalid.w)
        │   0x00686272      f22e44000012   fmove.s 0x12(a6), fp0
        │   0x00686278      f22e4420004e   fdiv.s 0x4e(a6), fp0
        │   0x0068627e      f22e6400004e   fmove.s fp0, 0x4e(a6)
        │   0x00686284      f22e44000012   fmove.s 0x12(a6), fp0
        │   0x0068628a      f22e4420004a   fdiv.s 0x4a(a6), fp0
        │   0x00686290      f22e6400004a   fmove.s fp0, 0x4a(a6)
        │   0x00686296      206e005a       movea.l 0x5a(a6), a0
        │   0x0068629a      594f           subq.w 0x4, a7
        │   0x0068629c      f22840000008   fmove.l 0x8(a0), fp0
        │   0x006862a2      f22e4420004e   fdiv.s 0x4e(a6), fp0
        │   0x006862a8      f2276400       fmove.s fp0, -(a7)
        │   0x006862ac      4e92           jsr (a2)                    ; fcn.00000009+0x2
        │   0x006862ae      584f           addq.w 0x4, a7
        │   0x006862b0      2c17           move.l (a7), d6
        │   0x006862b2      f22e4000002a   fmove.l 0x2a(a6), fp0
        │   0x006862b8      f22e4420004a   fdiv.s 0x4a(a6), fp0
        │   0x006862be      f2276400       fmove.s fp0, -(a7)
        │   0x006862c2      4e92           jsr (a2)                    ; fcn.00000009+0x2
        │   0x006862c4      584f           addq.w 0x4, a7
        │   0x006862c6      269f           move.l (a7)+, (a3)
        │   0x006862c8      5293           addq.l 0x1, (a3)
        │   0x006862ca      594f           subq.w 0x4, a7
        │   0x006862cc      f2104000       fmove.l (a0), fp0
        │   0x006862d0      f22e4420004e   fdiv.s 0x4e(a6), fp0
        │   0x006862d6      f2276400       fmove.s fp0, -(a7)
        │   0x006862da      4e92           jsr (a2)                    ; fcn.00000009+0x2
        │   0x006862dc      584f           addq.w 0x4, a7
        │   0x006862de      2006           move.l d6, d0
       ┌──< 0x006862e0      6a02           bpl.b 0x6862e4
       ││   0x006862e2      4480           neg.l d0
       └──> 0x006862e4      d09f           add.l (a7)+, d0
        │   0x006862e6      5680           addq.l 0x3, d0
        │   0x006862e8      f2004000       fmove.l d0, fp0
        │   0x006862ec      f22e6400fff6   fmove.s fp0, -0xa(a6)
        │   0x006862f2      4aa8000c       tst.l 0xc(a0)
       ┌──< 0x006862f6      6614           bne.b 0x68630c
       ││   0x006862f8      f2014380       fmove.l d1, fp7
       ││   0x006862fc      f2014000       fmove.l d1, fp0
       ││   0x00686300      f22e6400ff48   fmove.s fp0, -0xb8(a6)
       ││   0x00686306      f2014000       fmove.l d1, fp0
      ┌───< 0x0068630a      601a           bra.b 0x686326
      │└──> 0x0068630c      f23c43800000.  fmove.l 0x2cf, fp7
      │ │   0x00686314      f2014000       fmove.l d1, fp0
      │ │   0x00686318      f22e6400ff48   fmove.s fp0, -0xb8(a6)
      │ │   0x0068631e      f23c40000000.  fmove.l 0x7d0, fp0
      └───> 0x00686326      f22e6400ff44   fmove.s fp0, -0xbc(a6)
        │   0x0068632c      f2014000       fmove.l d1, fp0
        │   0x00686330      f22e6400ff4c   fmove.s fp0, -0xb4(a6)
        │   0x00686336      f22e44000056   fmove.s 0x56(a6), fp0
        │   0x0068633c      f2034022       fadd.l d3, fp0
        │   0x00686340      f22e6400ff5a   fmove.s fp0, -0xa6(a6)
        │   0x00686346      4a2e0008       tst.b 0x8(a6)
       ┌──< 0x0068634a      6726           beq.b 0x686372
       ││   0x0068634c      594f           subq.w 0x4, a7
       ││   0x0068634e      f22e40000022   fmove.l 0x22(a6), fp0
       ││   0x00686354      f22e4420004a   fdiv.s 0x4a(a6), fp0
       ││   0x0068635a      f2276400       fmove.s fp0, -(a7)
       ││   0x0068635e      4eb9004081d2   jsr p_round
       ││   0x00686364      584f           addq.w 0x4, a7
       ││   0x00686366      201f           move.l (a7)+, d0
      ┌───< 0x00686368      6a02           bpl.b 0x68636c
      │││   0x0068636a      4480           neg.l d0
      └───> 0x0068636c      f2004000       fmove.l d0, fp0
      ┌───< 0x00686370      6004           bra.b 0x686376
      │└──> 0x00686372      f2134000       fmove.l (a3), fp0
      └───> 0x00686376      f22e44220052   fadd.s 0x52(a6), fp0
        │   0x0068637c      f22e6400ff82   fmove.s fp0, -0x7e(a6)
        │   0x00686382      f22e4700ff82   fmove.s -0x7e(a6), fp6
        │   0x00686388      7e02           moveq 0x2, d7
       ┌──> 0x0068638a      f2014000       fmove.l d1, fp0
       ╎│   0x0068638e      f23664007d20.  fmove.s fp0, 0xff56(a6, d7.l * 4)
       ╎│   0x00686396      f2014000       fmove.l d1, fp0
       ╎│   0x0068639a      f23664007d20.  fmove.s fp0, 0xff7e(a6, d7.l * 4)
       ╎│   0x006863a2      5287           addq.l 0x1, d7
       ╎│   0x006863a4      0c870000000a   cmpi.l 0xa, d7
       └──< 0x006863aa      6fde           ble.b 0x68638a
        │   0x006863ac      2d42ff34       move.l d2, -0xcc(a6)
        │   0x006863b0      2d42ff3c       move.l d2, -0xc4(a6)
        │   0x006863b4      422eff58       clr.b -0xa8(a6)
        │   0x006863b8      422effaa       clr.b -0x56(a6)
        │   0x006863bc      422effab       clr.b -0x55(a6)
        │   0x006863c0      206e0046       movea.l 0x46(a6), a0
        │   0x006863c4      594f           subq.w 0x4, a7
        │   0x006863c6      f22e40000022   fmove.l 0x22(a6), fp0
        │   0x006863cc      f22e4420004a   fdiv.s 0x4a(a6), fp0
        │   0x006863d2      f2276400       fmove.s fp0, -(a7)
        │   0x006863d6      4eb9004081d2   jsr p_round
        │   0x006863dc      584f           addq.w 0x4, a7
        │   0x006863de      215f0008       move.l (a7)+, 0x8(a0)
       ┌──< 0x006863e2      6a04           bpl.b 0x6863e8
       ││   0x006863e4      44a80008       neg.l 0x8(a0)
       └──> 0x006863e8      20280008       move.l 0x8(a0), d0
        │   0x006863ec      d093           add.l (a3), d0
        │   0x006863ee      5880           addq.l 0x4, d0
        │   0x006863f0      21400008       move.l d0, 0x8(a0)
        │   0x006863f4      0c8000000bb8   cmpi.l 0xbb8, d0
       ┌──< 0x006863fa      6f24           ble.b 0x686420
       ││   0x006863fc      487aad2d       pea.l 0x68112b(pc)
       ││   0x00686400      4878000e       pea.l 0xe
       ││   0x00686404      2f17           move.l (a7), -(a7)
       ││   0x00686406      4eb9004047ea   jsr p_wts_o
       ││   0x0068640c      dec4           adda.w d4, a7
       ││   0x0068640e      4eb900404946   jsr p_wtln_o
       ││   0x00686414      486effac       pea.l -0x54(a6)
       ││   0x00686418      4eb900404468   jsr fcn.00404468
       ││   0x0068641e      584f           addq.w 0x4, a7
       └──> 0x00686420      206e0046       movea.l 0x46(a6), a0
        │   0x00686424      4c030800       muls.l d3, d0
        │   0x00686428      2f00           move.l d0, -(a7)
        │   0x0068642a      7e00           moveq 0x0, d7
       ┌──> 0x0068642c      be97           cmp.l (a7), d7
      ┌───< 0x0068642e      6e0e           bgt.b 0x68643e
      │╎│   0x00686430      21827c0c       move.l d2, 0xc(a0, d7.l)
      │╎│   0x00686434      21827d202ef0   move.l d2, 0x2ef0(a0, d7.l * 4)
      │╎│   0x0068643a      5287           addq.l 0x1, d7
      │└──< 0x0068643c      68ee           bvc.b 0x68642c
      └───> 0x0068643e      584f           addq.w 0x4, a7
        │   0x00686440      206e0046       movea.l 0x46(a6), a0
        │   0x00686444      2085           move.l d5, (a0)
        │   0x00686446      21530004       move.l (a3), 0x4(a0)
        │   0x0068644a      2f2e005a       move.l 0x5a(a6), -(a7)
        │   0x0068644e      2f2e004e       move.l 0x4e(a6), -(a7)
        │   0x00686452      2f2e004a       move.l 0x4a(a6), -(a7)
        │   0x00686456      49eeff2c       lea.l -0xd4(a6), a4
        │   0x0068645a      4ebafca8       jsr FONTLET.charread(pc)
        │   0x0068645e      dec4           adda.w d4, a7
        │   0x00686460      2006           move.l d6, d0
        │   0x00686462      5580           subq.l 0x2, d0
        │   0x00686464      31405dd4       move.w d0, 0x5dd4(a0)
        │   0x00686468      f23c43b80000.  fcmp.l 0x2cf, fp7
        │   0x00686470      f296001e       fbf.w 0x686490
        │   0x00686474      f22e4400ff48   fmove.s -0xb8(a6), fp0
        │   0x0068647a      f2014038       fcmp.l d1, fp0
        │   0x0068647e      f2960010       fbf.w 0x686490
        │   0x00686482      f2014380       fmove.l d1, fp7
        │   0x00686486      f2014000       fmove.l d1, fp0
        │   0x0068648a      f22e6400ff48   fmove.s fp0, -0xb8(a6)
        │   0x00686490      f22e4400ff44   fmove.s -0xbc(a6), fp0
        │   0x00686496      f23c40380000.  fcmp.l 0x7d0, fp0
        │   0x0068649e      f2960024       fbf.w 0x6864c4
        │   0x006864a2      f22e4400ff4c   fmove.s -0xb4(a6), fp0
        │   0x006864a8      f2014038       fcmp.l d1, fp0
        │   0x006864ac      f2960016       fbf.w 0x6864c4
        │   0x006864b0      f2014000       fmove.l d1, fp0
        │   0x006864b4      f22e6400ff44   fmove.s fp0, -0xbc(a6)
        │   0x006864ba      f2014000       fmove.l d1, fp0
        │   0x006864be      f22e6400ff4c   fmove.s fp0, -0xb4(a6)
        │   0x006864c4      4a2e0008       tst.b 0x8(a6)
       ┌──< 0x006864c8      6752           beq.b 0x68651c
       ││   0x006864ca      594f           subq.w 0x4, a7
       ││   0x006864cc      f2001800       fmove fp6, fp0
       ││   0x006864d0      f22e4428ff4c   fsub.s -0xb4(a6), fp0
       ││   0x006864d6      f2034028       fsub.l d3, fp0
       ││   0x006864da      f2276400       fmove.s fp0, -(a7)
       ││   0x006864de      4e92           jsr (a2)                    ; fcn.00000009+0x2
       ││   0x006864e0      584f           addq.w 0x4, a7
       ││   0x006864e2      316f00025dd6   move.w 0x2(a7), 0x5dd6(a0)
       ││   0x006864e8      f2276700       fmove.s fp6, -(a7)
       ││   0x006864ec      4eb9004081d2   jsr p_round
       ││   0x006864f2      584f           addq.w 0x4, a7
       ││   0x006864f4      30285dd6       move.w 0x5dd6(a0), d0
       ││   0x006864f8      48c0           ext.l d0
       ││   0x006864fa      4480           neg.l d0
       ││   0x006864fc      d09f           add.l (a7)+, d0
       ││   0x006864fe      594f           subq.w 0x4, a7
       ││   0x00686500      f22e4400ff44   fmove.s -0xbc(a6), fp0
       ││   0x00686506      f2001828       fsub fp6, fp0
       ││   0x0068650a      f2276400       fmove.s fp0, -(a7)
       ││   0x0068650e      4e92           jsr (a2)                    ; fcn.00000009+0x2
       ││   0x00686510      584f           addq.w 0x4, a7
       ││   0x00686512      d09f           add.l (a7)+, d0
       ││   0x00686514      5580           subq.l 0x2, d0
       ││   0x00686516      21400004       move.l d0, 0x4(a0)
      ┌───< 0x0068651a      6020           bra.b 0x68653c
      │└──> 0x0068651c      594f           subq.w 0x4, a7
      │ │   0x0068651e      f22e4400ff44   fmove.s -0xbc(a6), fp0
      │ │   0x00686524      f2134028       fsub.l (a3), fp0
      │ │   0x00686528      f2034028       fsub.l d3, fp0
      │ │   0x0068652c      f2276400       fmove.s fp0, -(a7)
      │ │   0x00686530      4e92           jsr (a2)                    ; fcn.00000009+0x2
      │ │   0x00686532      584f           addq.w 0x4, a7
      │ │   0x00686534      316f00025dd6   move.w 0x2(a7), 0x5dd6(a0)
      │ │   0x0068653a      584f           addq.w 0x4, a7
      └───> 0x0068653c      594f           subq.w 0x4, a7
        │   0x0068653e      2f2eff48       move.l -0xb8(a6), -(a7)
        │   0x00686542      4e92           jsr (a2)                    ; fcn.00000009+0x2
        │   0x00686544      584f           addq.w 0x4, a7
        │   0x00686546      201f           move.l (a7)+, d0
        │   0x00686548      5880           addq.l 0x4, d0
        │   0x0068654a      5e80           addq.l 0x7, d0
        │   0x0068654c      02800000fff8   andi.l 0xfff8, d0
        │   0x00686552      31405dd8       move.w d0, 0x5dd8(a0)
        │   0x00686556      f22e4400ff4c   fmove.s -0xb4(a6), fp0
        │   0x0068655c      f22e4428ff44   fsub.s -0xbc(a6), fp0
        │   0x00686562      594f           subq.w 0x4, a7
        │   0x00686564      f2276400       fmove.s fp0, -(a7)
        │   0x00686568      4e92           jsr (a2)                    ; fcn.00000009+0x2
        │   0x0068656a      584f           addq.w 0x4, a7
        │   0x0068656c      201f           move.l (a7)+, d0
        │   0x0068656e      5880           addq.l 0x4, d0
        │   0x00686570      31405dda       move.w d0, 0x5dda(a0)
        │   0x00686574      206e000c       movea.l 0xc(a6), a0
        │   0x00686578      3086           move.w d6, (a0)
        │   0x0068657a      594f           subq.w 0x4, a7
        │   0x0068657c      f22e4480ff44   fmove.s -0xbc(a6), fp1
        │   0x00686582      f21340a8       fsub.l (a3), fp1
        │   0x00686586      f20240a8       fsub.l d2, fp1
        │   0x0068658a      f2276480       fmove.s fp1, -(a7)
        │   0x0068658e      4e92           jsr (a2)                    ; fcn.00000009+0x2
        │   0x00686590      584f           addq.w 0x4, a7
        │   0x00686592      316f00020002   move.w 0x2(a7), 0x2(a0)
        │   0x00686598      2f2eff48       move.l -0xb8(a6), -(a7)
        │   0x0068659c      4e92           jsr (a2)                    ; fcn.00000009+0x2
        │   0x0068659e      584f           addq.w 0x4, a7
        │   0x006865a0      316f00020004   move.w 0x2(a7), 0x4(a0)
        │   0x006865a6      f2276400       fmove.s fp0, -(a7)
        │   0x006865aa      4e92           jsr (a2)                    ; fcn.00000009+0x2
        │   0x006865ac      584f           addq.w 0x4, a7
        │   0x006865ae      201f           move.l (a7)+, d0
        │   0x006865b0      5480           addq.l 0x2, d0
        │   0x006865b2      31400006       move.w d0, 0x6(a0)
       ┌──< 0x006865b6      603a           bra.b 0x6865f2
       │└─> 0x006865b8      487aab80       pea.l 0x68113a(pc)
       │    0x006865bc      48780009       pea.l 0x9
       │    0x006865c0      2f17           move.l (a7), -(a7)
       │    0x006865c2      4eb9004047ea   jsr p_wts_o
       │    0x006865c8      dec4           adda.w d4, a7
       │    0x006865ca      4eb900404946   jsr p_wtln_o
       │    0x006865d0      206e0046       movea.l 0x46(a6), a0
       │    0x006865d4      4850           pea.l (a0)
       │    0x006865d6      4ebaad5e       jsr FONTLET.dispose_heap(pc)
       │    0x006865da      584f           addq.w 0x4, a7
       │    0x006865dc      2085           move.l d5, (a0)
       │    0x006865de      42a80004       clr.l 0x4(a0)
       │    0x006865e2      42685dd4       clr.w 0x5dd4(a0)
       │    0x006865e6      42685dd6       clr.w 0x5dd6(a0)
       │    0x006865ea      42685dd8       clr.w 0x5dd8(a0)
       │    0x006865ee      42685dda       clr.w 0x5dda(a0)
       └──> 0x006865f2      594f           subq.w 0x4, a7
            0x006865f4      4eb900402e30   jsr p_Cur_Ticks
            0x006865fa      23df008518be   move.l (a7)+, 0x8518be
            0x00686600      f21fd0c3       fmovem (a7)+, fp0-fp1/fp6-fp7
            0x00686604      4cdf1fff       movem.l (a7)+, d0-d7/a0-a4
            0x00686608      4e5e           unlk a6
            0x0068660a      4e75           rts
┌ 24: FONTLET.draw_edge ();
│           0x0068660c      4e56ff68       link.w a6, 0xff68
│           0x00686610      bfd5           cmpa.l (a5), a7
│       ┌─< 0x00686612      6206           bhi.b 0x68661a
│       │   0x00686614      44fc0002       move.w 0x2, ccr
│       │   0x00686618      4e76           trapv
│       └─> 0x0068661a      defc0090       adda.w 0x90, a7
│           0x0068661e      48e783f0       movem.l d0/d6-d7/a0-a3, -(a7)
│           0x00686622      f227e001       fmovem fp0, -(a7)
            0x00686626      2f2e0010       move.l 0x10(a6), -(a7)
            0x0068662a      5397           subq.l 0x1, (a7)
            0x0068662c      2e2c0014       move.l 0x14(a4), d7
        ┌─> 0x00686630      be97           cmp.l (a7), d7
       ┌──< 0x00686632      6e0a           bgt.b 0x68663e
       │╎   0x00686634      4279fff50000   clr.w 0xfff50000
       │╎   0x0068663a      5287           addq.l 0x1, d7
       │└─< 0x0068663c      68f2           bvc.b 0x686630
       └──> 0x0068663e      f23c40000000.  fmove.l 0xff, fp0
            0x00686646      f22e4423000c   fmul.s 0xc(a6), fp0
            0x0068664c      f2276400       fmove.s fp0, -(a7)
            0x00686650      4eb9004081d2   jsr p_round
            0x00686656      584f           addq.w 0x4, a7
            0x00686658      33ef0002fff5.  move.w 0x2(a7), 0xfff50000.l
            0x00686660      584f           addq.w 0x4, a7
            0x00686662      2c2e0010       move.l 0x10(a6), d6
            0x00686666      206e0008       movea.l 0x8(a6), a0
            0x0068666a      226e0008       movea.l 0x8(a6), a1
        ┌─> 0x0068666e      2451           movea.l (a1), a2
        ╎   0x00686670      b4fc0001       cmpa.w 0x1, a2
       ┌──< 0x00686674      6752           beq.b 0x6866c8
       │╎   0x00686676      2d520010       move.l (a2), 0x10(a6)
       │╎   0x0068667a      2006           move.l d6, d0
       │╎   0x0068667c      5280           addq.l 0x1, d0
       │╎   0x0068667e      2f2e0010       move.l 0x10(a6), -(a7)
       │╎   0x00686682      5397           subq.l 0x1, (a7)
       │╎   0x00686684      2e00           move.l d0, d7
      ┌───> 0x00686686      be97           cmp.l (a7), d7
     ┌────< 0x00686688      6e0a           bgt.b 0x686694
     │╎│╎   0x0068668a      4279fff50000   clr.w 0xfff50000
     │╎│╎   0x00686690      5287           addq.l 0x1, d7
     │└───< 0x00686692      68f2           bvc.b 0x686686
     └────> 0x00686694      584f           addq.w 0x4, a7
       │╎   0x00686696      2650           movea.l (a0), a3
       │╎   0x00686698      594f           subq.w 0x4, a7
       │╎   0x0068669a      f23c40000000.  fmove.l 0xff, fp0
       │╎   0x006866a2      f22b44230014   fmul.s 0x14(a3), fp0
       │╎   0x006866a8      f2276400       fmove.s fp0, -(a7)
       │╎   0x006866ac      4eb9004081d2   jsr p_round
       │╎   0x006866b2      584f           addq.w 0x4, a7
       │╎   0x006866b4      33ef0002fff5.  move.w 0x2(a7), 0xfff50000.l
       │╎   0x006866bc      584f           addq.w 0x4, a7
       │╎   0x006866be      2c2e0010       move.l 0x10(a6), d6
       │╎   0x006866c2      20ab001e       move.l 0x1e(a3), (a0)
       │└─< 0x006866c6      60a6           bra.b 0x68666e
       └──> 0x006866c8      2006           move.l d6, d0
            0x006866ca      5280           addq.l 0x1, d0
            0x006866cc      2e00           move.l d0, d7
        ┌─> 0x006866ce      beac001c       cmp.l 0x1c(a4), d7
       ┌──< 0x006866d2      6e0a           bgt.b 0x6866de
       │╎   0x006866d4      4279fff50000   clr.w 0xfff50000
       │╎   0x006866da      5287           addq.l 0x1, d7
       │└─< 0x006866dc      68f0           bvc.b 0x6866ce
       └──> 0x006866de      f21fd080       fmovem (a7)+, fp0
            0x006866e2      4cdf0fc1       movem.l (a7)+, d0/d6-d7/a0-a3
            0x006866e6      4e5e           unlk a6
            0x006866e8      4e75           rts
┌ 190: FONTLET.draw_solid ();
│           0x006866ea      4e56ff7a       link.w a6, 0xff7a
│           0x006866ee      bfd5           cmpa.l (a5), a7
│       ┌─< 0x006866f0      6206           bhi.b 0x6866f8
│       │   0x006866f2      44fc0002       move.w 0x2, ccr
│       │   0x006866f6      4e76           trapv
│       └─> 0x006866f8      defc0084       adda.w 0x84, a7
│           0x006866fc      48e781f0       movem.l d0/d7/a0-a3, -(a7)
│           0x00686700      3e2c0016       move.w 0x16(a4), d7
│       ┌─> 0x00686704      48c7           ext.l d7
│       ╎   0x00686706      beae0010       cmp.l 0x10(a6), d7
│      ┌──< 0x0068670a      6c0a           bge.b 0x686716
│      │╎   0x0068670c      4279fff50000   clr.w 0xfff50000
│      │╎   0x00686712      5287           addq.l 0x1, d7
│      │└─< 0x00686714      60ee           bra.b 0x686704
│      └┌─> 0x00686716      48c7           ext.l d7
│       ╎   0x00686718      beae000c       cmp.l 0xc(a6), d7
│      ┌──< 0x0068671c      6e0c           bgt.b 0x68672a
│      │╎   0x0068671e      33fc00fffff5.  move.w 0xff, 0xfff50000.l
│      │╎   0x00686726      5287           addq.l 0x1, d7
│      │└─< 0x00686728      60ec           bra.b 0x686716
│      └──> 0x0068672a      206e0008       movea.l 0x8(a6), a0
│           0x0068672e      226e0008       movea.l 0x8(a6), a1
│           0x00686732      246e0008       movea.l 0x8(a6), a2
│       ┌─> 0x00686736      2652           movea.l (a2), a3
│       ╎   0x00686738      b6fc0001       cmpa.w 0x1, a3
│      ┌──< 0x0068673c      6748           beq.b 0x686786
│      │╎   0x0068673e      2651           movea.l (a1), a3
│     ┌───> 0x00686740      594f           subq.w 0x4, a7
│     ╎│╎   0x00686742      2f13           move.l (a3), -(a7)
│     ╎│╎   0x00686744      4eb9004081f8   jsr p_trunc
│     ╎│╎   0x0068674a      584f           addq.w 0x4, a7
│     ╎│╎   0x0068674c      48c7           ext.l d7
│     ╎│╎   0x0068674e      be9f           cmp.l (a7)+, d7
│    ┌────< 0x00686750      6c0a           bge.b 0x68675c
│    │╎│╎   0x00686752      4279fff50000   clr.w 0xfff50000
│    │╎│╎   0x00686758      5287           addq.l 0x1, d7
│    │└───< 0x0068675a      60e4           bra.b 0x686740
│    └────> 0x0068675c      22ab0008       move.l 0x8(a3), (a1)
│      │╎   0x00686760      2650           movea.l (a0), a3
│     ┌───> 0x00686762      594f           subq.w 0x4, a7
│     ╎│╎   0x00686764      2f13           move.l (a3), -(a7)
│     ╎│╎   0x00686766      4eb9004081f8   jsr p_trunc
│     ╎│╎   0x0068676c      584f           addq.w 0x4, a7
│     ╎│╎   0x0068676e      48c7           ext.l d7
│     ╎│╎   0x00686770      be9f           cmp.l (a7)+, d7
│    ┌────< 0x00686772      6e0c           bgt.b 0x686780
│    │╎│╎   0x00686774      33fc00fffff5.  move.w 0xff, 0xfff50000.l
│    │╎│╎   0x0068677c      5287           addq.l 0x1, d7
│    │└───< 0x0068677e      60e2           bra.b 0x686762
│    └────> 0x00686780      20ab0008       move.l 0x8(a3), (a0)
│      │└─< 0x00686784      60b0           bra.b 0x686736
│      └──> 0x00686786      202c001c       move.l 0x1c(a4), d0
│           0x0068678a      d0ac0014       add.l 0x14(a4), d0
│           0x0068678e      5280           addq.l 0x1, d0
│       ┌─> 0x00686790      48c7           ext.l d7
│       ╎   0x00686792      be80           cmp.l d0, d7
│      ┌──< 0x00686794      6e0a           bgt.b 0x6867a0
│      │╎   0x00686796      4279fff50000   clr.w 0xfff50000
│      │╎   0x0068679c      5287           addq.l 0x1, d7
│      │└─< 0x0068679e      60f0           bra.b 0x686790
│      └──> 0x006867a0      4cdf0f81       movem.l (a7)+, d0/d7/a0-a3
│           0x006867a4      4e5e           unlk a6
└           0x006867a6      4e75           rts
┌ 24: FONTLET.draw_both ();
│           0x006867a8      4e56ff22       link.w a6, 0xff22
│           0x006867ac      bfd5           cmpa.l (a5), a7
│       ┌─< 0x006867ae      6206           bhi.b 0x6867b6
│       │   0x006867b0      44fc0002       move.w 0x2, ccr
│       │   0x006867b4      4e76           trapv
│       └─> 0x006867b6      defc00d4       adda.w 0xd4, a7
│           0x006867ba      48e7fff0       movem.l d0-d7/a0-a3, -(a7)
│           0x006867be      f227e001       fmovem fp0, -(a7)
            0x006867c2      7401           moveq 0x1, d2
            0x006867c4      263c000000ff   move.l 0xff, d3
            0x006867ca      283c7fffffff   move.l 0x7fffffff, d4
            0x006867d0      1d42fffa       move.b d2, -0x6(a6)
            0x006867d4      7a01           moveq 0x1, d5
            0x006867d6      2c2c0014       move.l 0x14(a4), d6
            0x006867da      202e001c       move.l 0x1c(a6), d0
            0x006867de      b0ae0014       cmp.l 0x14(a6), d0
        ┌─< 0x006867e2      6c1e           bge.b 0x686802
        │   0x006867e4      2f00           move.l d0, -(a7)
        │   0x006867e6      5397           subq.l 0x1, (a7)
        │   0x006867e8      2e2c0014       move.l 0x14(a4), d7
       ┌──> 0x006867ec      be97           cmp.l (a7), d7
      ┌───< 0x006867ee      6e0a           bgt.b 0x6867fa
      │╎│   0x006867f0      4279fff50000   clr.w 0xfff50000
      │╎│   0x006867f6      5287           addq.l 0x1, d7
      │└──< 0x006867f8      68f2           bvc.b 0x6867ec
      └───> 0x006867fa      584f           addq.w 0x4, a7
        │   0x006867fc      2c2e001c       move.l 0x1c(a6), d6
       ┌──< 0x00686800      601e           bra.b 0x686820
       │└─> 0x00686802      2f2e0014       move.l 0x14(a6), -(a7)
       │    0x00686806      5397           subq.l 0x1, (a7)
       │    0x00686808      2e2c0014       move.l 0x14(a4), d7
       │┌─> 0x0068680c      be97           cmp.l (a7), d7
      ┌───< 0x0068680e      6e0a           bgt.b 0x68681a
      ││╎   0x00686810      4279fff50000   clr.w 0xfff50000
      ││╎   0x00686816      5287           addq.l 0x1, d7
      ││└─< 0x00686818      68f2           bvc.b 0x68680c
      └───> 0x0068681a      584f           addq.w 0x4, a7
       │    0x0068681c      2c2e0014       move.l 0x14(a6), d6
       └──> 0x00686820      5386           subq.l 0x1, d6
            0x00686822      206e000c       movea.l 0xc(a6), a0
            0x00686826      226e0008       movea.l 0x8(a6), a1
            0x0068682a      2f09           move.l a1, -(a7)
            0x0068682c      246e0008       movea.l 0x8(a6), a2
        ┌─> 0x00686830      2257           movea.l (a7), a1
        ╎   0x00686832      4a2efffa       tst.b -0x6(a6)
       ┌──< 0x00686836      6606           bne.b 0x68683e
       │╎   0x00686838      584f           addq.w 0x4, a7
      ┌───< 0x0068683a      60000146       bra.w 0x686982
      │└──> 0x0068683e      4a05           tst.b d5
      │┌──< 0x00686840      6606           bne.b 0x686848
      ││╎   0x00686842      584f           addq.w 0x4, a7
     ┌────< 0x00686844      6000013c       bra.w 0x686982
    ┌──└──> 0x00686848      202e0014       move.l 0x14(a6), d0
    ╎││ ╎   0x0068684c      b0ae001c       cmp.l 0x1c(a6), d0
    ╎││┌──< 0x00686850      6e5a           bgt.b 0x6868ac
    ╎│││╎   0x00686852      2206           move.l d6, d1
    ╎│││╎   0x00686854      5281           addq.l 0x1, d1
    ╎│││╎   0x00686856      2f00           move.l d0, -(a7)
    ╎│││╎   0x00686858      5397           subq.l 0x1, (a7)
    ╎│││╎   0x0068685a      2e01           move.l d1, d7
   ┌──────> 0x0068685c      be97           cmp.l (a7), d7
  ┌───────< 0x0068685e      6e0a           bgt.b 0x68686a
  │╎╎│││╎   0x00686860      4279fff50000   clr.w 0xfff50000
  │╎╎│││╎   0x00686866      5287           addq.l 0x1, d7
  │└──────< 0x00686868      68f2           bvc.b 0x68685c
  └───────> 0x0068686a      f2034000       fmove.l d3, fp0
    ╎│││╎   0x0068686e      f22e44230010   fmul.s 0x10(a6), fp0
    ╎│││╎   0x00686874      f2276400       fmove.s fp0, -(a7)
    ╎│││╎   0x00686878      4eb9004081d2   jsr p_round
    ╎│││╎   0x0068687e      584f           addq.w 0x4, a7
    ╎│││╎   0x00686880      33ef0002fff5.  move.w 0x2(a7), 0xfff50000.l
    ╎│││╎   0x00686888      584f           addq.w 0x4, a7
    ╎│││╎   0x0068688a      2c2e0014       move.l 0x14(a6), d6
    ╎│││╎   0x0068688e      2652           movea.l (a2), a3
    ╎│││╎   0x00686890      b6c2           cmpa.w d2, a3
   ┌──────< 0x00686892      6710           beq.b 0x6868a4
   │╎│││╎   0x00686894      2d530014       move.l (a3), 0x14(a6)
   │╎│││╎   0x00686898      2d6b00140010   move.l 0x14(a3), 0x10(a6)
   │╎│││╎   0x0068689e      24ab001e       move.l 0x1e(a3), (a2)
  ┌───────< 0x006868a2      6006           bra.b 0x6868aa
  │└──────> 0x006868a4      2d440014       move.l d4, 0x14(a6)
  │ ╎│││╎   0x006868a8      7a00           moveq 0x0, d5
  └─└─────< 0x006868aa      609c           bra.b 0x686848
    ┌──└──> 0x006868ac      202e0014       move.l 0x14(a6), d0
    ╎││ ╎   0x006868b0      b0ae0018       cmp.l 0x18(a6), d0
    ╎││┌──< 0x006868b4      6e5a           bgt.b 0x686910
    ╎│││╎   0x006868b6      2206           move.l d6, d1
    ╎│││╎   0x006868b8      5281           addq.l 0x1, d1
    ╎│││╎   0x006868ba      2f00           move.l d0, -(a7)
    ╎│││╎   0x006868bc      5397           subq.l 0x1, (a7)
    ╎│││╎   0x006868be      2e01           move.l d1, d7
   ┌──────> 0x006868c0      be97           cmp.l (a7), d7
  ┌───────< 0x006868c2      6e0a           bgt.b 0x6868ce
  │╎╎│││╎   0x006868c4      33c3fff50000   move.w d3, 0xfff50000
  │╎╎│││╎   0x006868ca      5287           addq.l 0x1, d7
  │└──────< 0x006868cc      68f2           bvc.b 0x6868c0
  └───────> 0x006868ce      f2034000       fmove.l d3, fp0
    ╎│││╎   0x006868d2      f22e44230010   fmul.s 0x10(a6), fp0
    ╎│││╎   0x006868d8      f2276400       fmove.s fp0, -(a7)
    ╎│││╎   0x006868dc      4eb9004081d2   jsr p_round
    ╎│││╎   0x006868e2      584f           addq.w 0x4, a7
    ╎│││╎   0x006868e4      33ef0002fff5.  move.w 0x2(a7), 0xfff50000.l
    ╎│││╎   0x006868ec      584f           addq.w 0x4, a7
    ╎│││╎   0x006868ee      2c2e0014       move.l 0x14(a6), d6
    ╎│││╎   0x006868f2      2651           movea.l (a1), a3
    ╎│││╎   0x006868f4      b6c2           cmpa.w d2, a3
   ┌──────< 0x006868f6      6710           beq.b 0x686908
   │╎│││╎   0x006868f8      2d530014       move.l (a3), 0x14(a6)
   │╎│││╎   0x006868fc      2d6b00140010   move.l 0x14(a3), 0x10(a6)
   │╎│││╎   0x00686902      22ab001e       move.l 0x1e(a3), (a1)
  ┌───────< 0x00686906      6006           bra.b 0x68690e
  │└──────> 0x00686908      2d440014       move.l d4, 0x14(a6)
  │ ╎│││╎   0x0068690c      7a00           moveq 0x0, d5
  └─└─────< 0x0068690e      609c           bra.b 0x6868ac
     ││└──> 0x00686910      bcae0018       cmp.l 0x18(a6), d6
     ││┌──< 0x00686914      6c1e           bge.b 0x686934
     │││╎   0x00686916      2006           move.l d6, d0
     │││╎   0x00686918      5280           addq.l 0x1, d0
     │││╎   0x0068691a      2f2e0018       move.l 0x18(a6), -(a7)
     │││╎   0x0068691e      2e00           move.l d0, d7
    ┌─────> 0x00686920      be97           cmp.l (a7), d7
   ┌──────< 0x00686922      6e0a           bgt.b 0x68692e
   │╎│││╎   0x00686924      33c3fff50000   move.w d3, 0xfff50000
   │╎│││╎   0x0068692a      5287           addq.l 0x1, d7
   │└─────< 0x0068692c      68f2           bvc.b 0x686920
   └──────> 0x0068692e      584f           addq.w 0x4, a7
     │││╎   0x00686930      2c2e0018       move.l 0x18(a6), d6
     ││└──> 0x00686934      2650           movea.l (a0), a3
     ││ ╎   0x00686936      b6c2           cmpa.w d2, a3
     ││┌──< 0x00686938      6738           beq.b 0x686972
     │││╎   0x0068693a      594f           subq.w 0x4, a7
     │││╎   0x0068693c      2f13           move.l (a3), -(a7)
     │││╎   0x0068693e      4eb9004081f8   jsr p_trunc
     │││╎   0x00686944      584f           addq.w 0x4, a7
     │││╎   0x00686946      2d5f001c       move.l (a7)+, 0x1c(a6)
     │││╎   0x0068694a      20ab0008       move.l 0x8(a3), (a0)
     │││╎   0x0068694e      2250           movea.l (a0), a1
     │││╎   0x00686950      b2c2           cmpa.w d2, a1
    ┌─────< 0x00686952      6716           beq.b 0x68696a
    ││││╎   0x00686954      594f           subq.w 0x4, a7
    ││││╎   0x00686956      2f11           move.l (a1), -(a7)
    ││││╎   0x00686958      4eb9004081f8   jsr p_trunc
    ││││╎   0x0068695e      584f           addq.w 0x4, a7
    ││││╎   0x00686960      2d5f0018       move.l (a7)+, 0x18(a6)
    ││││╎   0x00686964      20a90008       move.l 0x8(a1), (a0)
   ┌──────< 0x00686968      6014           bra.b 0x68697e
   │└─────> 0x0068696a      2d6e001c0018   move.l 0x1c(a6), 0x18(a6)
   │┌─────< 0x00686970      600c           bra.b 0x68697e
   ││││└──> 0x00686972      422efffa       clr.b -0x6(a6)
   ││││ ╎   0x00686976      2d44001c       move.l d4, 0x1c(a6)
   ││││ ╎   0x0068697a      2d440018       move.l d4, 0x18(a6)
   └└───└─< 0x0068697e      6000feb0       bra.w 0x686830
     └└───> 0x00686982      4a05           tst.b d5
        ┌─< 0x00686984      670000a6       beq.w 0x686a2c
        │   0x00686988      4a2efffa       tst.b -0x6(a6)
       ┌──< 0x0068698c      6600009e       bne.w 0x686a2c
       ││   0x00686990      2006           move.l d6, d0
       ││   0x00686992      5280           addq.l 0x1, d0
       ││   0x00686994      2f2e0014       move.l 0x14(a6), -(a7)
       ││   0x00686998      5397           subq.l 0x1, (a7)
       ││   0x0068699a      2e00           move.l d0, d7
      ┌───> 0x0068699c      be97           cmp.l (a7), d7
     ┌────< 0x0068699e      6e0a           bgt.b 0x6869aa
     │╎││   0x006869a0      4279fff50000   clr.w 0xfff50000
     │╎││   0x006869a6      5287           addq.l 0x1, d7
     │└───< 0x006869a8      68f2           bvc.b 0x68699c
     └────> 0x006869aa      f2034000       fmove.l d3, fp0
       ││   0x006869ae      f22e44230010   fmul.s 0x10(a6), fp0
       ││   0x006869b4      f2276400       fmove.s fp0, -(a7)
       ││   0x006869b8      4eb9004081d2   jsr p_round
       ││   0x006869be      584f           addq.w 0x4, a7
       ││   0x006869c0      33ef0002fff5.  move.w 0x2(a7), 0xfff50000.l
       ││   0x006869c8      584f           addq.w 0x4, a7
       ││   0x006869ca      2c2e0014       move.l 0x14(a6), d6
       ││   0x006869ce      206e0008       movea.l 0x8(a6), a0
      ┌───> 0x006869d2      2250           movea.l (a0), a1
      ╎││   0x006869d4      b2c2           cmpa.w d2, a1
     ┌────< 0x006869d6      670000d4       beq.w 0x686aac
     │╎││   0x006869da      2d510014       move.l (a1), 0x14(a6)
     │╎││   0x006869de      2d6900140010   move.l 0x14(a1), 0x10(a6)
     │╎││   0x006869e4      20a9001e       move.l 0x1e(a1), (a0)
     │╎││   0x006869e8      2006           move.l d6, d0
     │╎││   0x006869ea      5280           addq.l 0x1, d0
     │╎││   0x006869ec      2f2e0014       move.l 0x14(a6), -(a7)
     │╎││   0x006869f0      5397           subq.l 0x1, (a7)
     │╎││   0x006869f2      2e00           move.l d0, d7
    ┌─────> 0x006869f4      be97           cmp.l (a7), d7
   ┌──────< 0x006869f6      6e0a           bgt.b 0x686a02
   │╎│╎││   0x006869f8      4279fff50000   clr.w 0xfff50000
   │╎│╎││   0x006869fe      5287           addq.l 0x1, d7
   │└─────< 0x00686a00      68f2           bvc.b 0x6869f4
   └──────> 0x00686a02      f2034000       fmove.l d3, fp0
     │╎││   0x00686a06      f22e44230010   fmul.s 0x10(a6), fp0
     │╎││   0x00686a0c      f2276400       fmove.s fp0, -(a7)
     │╎││   0x00686a10      4eb9004081d2   jsr p_round
     │╎││   0x00686a16      584f           addq.w 0x4, a7
     │╎││   0x00686a18      33ef0002fff5.  move.w 0x2(a7), 0xfff50000.l
     │╎││   0x00686a20      584f           addq.w 0x4, a7
     │╎││   0x00686a22      2c2e0014       move.l 0x14(a6), d6
     │└───< 0x00686a26      60aa           bra.b 0x6869d2
     │┌───< 0x00686a28      60000082       bra.w 0x686aac
     ││└└─> 0x00686a2c      4a2efffa       tst.b -0x6(a6)
     ││ ┌─< 0x00686a30      677a           beq.b 0x686aac
     ││ │   0x00686a32      4a05           tst.b d5
     ││┌──< 0x00686a34      6676           bne.b 0x686aac
     ││││   0x00686a36      206e000c       movea.l 0xc(a6), a0
    ┌─────> 0x00686a3a      2250           movea.l (a0), a1
    ╎││││   0x00686a3c      b2c2           cmpa.w d2, a1
   ┌──────< 0x00686a3e      676c           beq.b 0x686aac
   │╎││││   0x00686a40      594f           subq.w 0x4, a7
   │╎││││   0x00686a42      2f11           move.l (a1), -(a7)
   │╎││││   0x00686a44      4eb9004081f8   jsr p_trunc
   │╎││││   0x00686a4a      584f           addq.w 0x4, a7
   │╎││││   0x00686a4c      2d5f001c       move.l (a7)+, 0x1c(a6)
   │╎││││   0x00686a50      20a90008       move.l 0x8(a1), (a0)
   │╎││││   0x00686a54      2450           movea.l (a0), a2
   │╎││││   0x00686a56      b4c2           cmpa.w d2, a2
  ┌───────< 0x00686a58      6716           beq.b 0x686a70
  ││╎││││   0x00686a5a      594f           subq.w 0x4, a7
  ││╎││││   0x00686a5c      2f12           move.l (a2), -(a7)
  ││╎││││   0x00686a5e      4eb9004081f8   jsr p_trunc
  ││╎││││   0x00686a64      584f           addq.w 0x4, a7
  ││╎││││   0x00686a66      2d5f0018       move.l (a7)+, 0x18(a6)
  ││╎││││   0x00686a6a      20aa0008       move.l 0x8(a2), (a0)
  ────────< 0x00686a6e      6006           bra.b 0x686a76
  └───────> 0x00686a70      2d6e001c0018   move.l 0x1c(a6), 0x18(a6)
  ────────> 0x00686a76      2006           move.l d6, d0
   │╎││││   0x00686a78      5280           addq.l 0x1, d0
   │╎││││   0x00686a7a      2f2e001c       move.l 0x1c(a6), -(a7)
   │╎││││   0x00686a7e      5397           subq.l 0x1, (a7)
   │╎││││   0x00686a80      2e00           move.l d0, d7
  ┌───────> 0x00686a82      be97           cmp.l (a7), d7
  ────────< 0x00686a84      6e0a           bgt.b 0x686a90
  ╎│╎││││   0x00686a86      4279fff50000   clr.w 0xfff50000
  ╎│╎││││   0x00686a8c      5287           addq.l 0x1, d7
  └───────< 0x00686a8e      68f2           bvc.b 0x686a82
  ────────> 0x00686a90      584f           addq.w 0x4, a7
   │╎││││   0x00686a92      2e2e001c       move.l 0x1c(a6), d7
  ┌───────> 0x00686a96      beae0018       cmp.l 0x18(a6), d7
  ────────< 0x00686a9a      6e0a           bgt.b 0x686aa6
  ╎│╎││││   0x00686a9c      33c3fff50000   move.w d3, 0xfff50000
  ╎│╎││││   0x00686aa2      5287           addq.l 0x1, d7
  └───────< 0x00686aa4      68f0           bvc.b 0x686a96
  ────────> 0x00686aa6      2c2e0018       move.l 0x18(a6), d6
   │└─────< 0x00686aaa      608e           bra.b 0x686a3a
   └─└└└└─> 0x00686aac      2006           move.l d6, d0
            0x00686aae      5280           addq.l 0x1, d0
            0x00686ab0      2e00           move.l d0, d7
        ┌─> 0x00686ab2      beac001c       cmp.l 0x1c(a4), d7
       ┌──< 0x00686ab6      6e0a           bgt.b 0x686ac2
       │╎   0x00686ab8      4279fff50000   clr.w 0xfff50000
       │╎   0x00686abe      5287           addq.l 0x1, d7
       │└─< 0x00686ac0      68f0           bvc.b 0x686ab2
       └──> 0x00686ac2      f21fd080       fmovem (a7)+, fp0
            0x00686ac6      4cdf0fff       movem.l (a7)+, d0-d7/a0-a3
            0x00686aca      4e5e           unlk a6
            0x00686acc      4e75           rts
            ; CALL XREF from VECTORFONT.vec_char_load @ 0x680e1a
┌ 24: FONTLET.fillchar ();
│           0x00686ace      4e56ff4a       link.w a6, 0xff4a
│           0x00686ad2      bfd5           cmpa.l (a5), a7
│       ┌─< 0x00686ad4      6206           bhi.b 0x686adc
│       │   0x00686ad6      44fc0002       move.w 0x2, ccr
│       │   0x00686ada      4e76           trapv
│       └─> 0x00686adc      defc0084       adda.w 0x84, a7
│           0x00686ae0      48e7e7f8       movem.l d0-d2/d5-d7/a0-a4, -(a7)
│           0x00686ae4      f227e080       fmovem fp7, -(a7)
            0x00686ae8      47eeffe6       lea.l -0x1a(a6), a3
            0x00686aec      7401           moveq 0x1, d2
            0x00686aee      594f           subq.w 0x4, a7
            0x00686af0      4eb900402e30   jsr p_Cur_Ticks
            0x00686af6      23df008518c2   move.l (a7)+, 0x8518c2
            0x00686afc      206e0008       movea.l 0x8(a6), a0
            0x00686b00      2d50ffe2       move.l (a0), -0x1e(a6)
            0x00686b04      30285dd6       move.w 0x5dd6(a0), d0
            0x00686b08      48c0           ext.l d0
            0x00686b0a      d0a80004       add.l 0x4(a0), d0
            0x00686b0e      2680           move.l d0, (a3)
            0x00686b10      4a80           tst.l d0
        ┌─< 0x00686b12      6c02           bge.b 0x686b16
        │   0x00686b14      4293           clr.l (a3)
        └─> 0x00686b16      30285dd8       move.w 0x5dd8(a0), d0
            0x00686b1a      48c0           ext.l d0
            0x00686b1c      5580           subq.l 0x2, d0
            0x00686b1e      2d40ffea       move.l d0, -0x16(a6)
            0x00686b22      30285dda       move.w 0x5dda(a0), d0
            0x00686b26      48c0           ext.l d0
            0x00686b28      d093           add.l (a3), d0
            0x00686b2a      2d40ffee       move.l d0, -0x12(a6)
            0x00686b2e      2d685dd4fff2   move.l 0x5dd4(a0), -0xe(a6)
            0x00686b34      2d685dd8fff6   move.l 0x5dd8(a0), -0xa(a6)
            0x00686b3a      322efff2       move.w -0xe(a6), d1
            0x00686b3e      48c1           ext.l d1
            0x00686b40      d2ae0012       add.l 0x12(a6), d1
            0x00686b44      3d41fff2       move.w d1, -0xe(a6)
            0x00686b48      322efff4       move.w -0xc(a6), d1
            0x00686b4c      48c1           ext.l d1
            0x00686b4e      d2ae000e       add.l 0xe(a6), d1
            0x00686b52      3d41fff4       move.w d1, -0xc(a6)
            0x00686b56      1f02           move.b d2, -(a7)
            0x00686b58      1f2e000c       move.b 0xc(a6), -(a7)
            0x00686b5c      1f02           move.b d2, -(a7)
            0x00686b5e      2f2efff6       move.l -0xa(a6), -(a7)
            0x00686b62      2f2efff2       move.l -0xe(a6), -(a7)
            0x00686b66      4eb9005217d8   jsr BRUSHCOM.br_transfer
            0x00686b6c      defc000e       adda.w 0xe, a7
            0x00686b70      206e0008       movea.l 0x8(a6), a0
            0x00686b74      2f00           move.l d0, -(a7)
            0x00686b76      2013           move.l (a3), d0
        ┌─> 0x00686b78      b097           cmp.l (a7), d0
       ┌──< 0x00686b7a      6e0000f6       bgt.w 0x686c72
       │╎   0x00686b7e      2d40ffd2       move.l d0, -0x2e(a6)
       │╎   0x00686b82      22700c0c       movea.l 0xc(a0, d0.l), a1
       │╎   0x00686b86      b2c2           cmpa.w d2, a1
      ┌───< 0x00686b88      6606           bne.b 0x686b90
      ││╎   0x00686b8a      422efffe       clr.b -0x2(a6)
     ┌────< 0x00686b8e      6038           bra.b 0x686bc8
     │└───> 0x00686b90      1d42fffe       move.b d2, -0x2(a6)
     │ │╎   0x00686b94      594f           subq.w 0x4, a7
     │ │╎   0x00686b96      2f11           move.l (a1), -(a7)
     │ │╎   0x00686b98      4eb9004081f8   jsr p_trunc
     │ │╎   0x00686b9e      584f           addq.w 0x4, a7
     │ │╎   0x00686ba0      2c1f           move.l (a7)+, d6
     │ │╎   0x00686ba2      21a900080c0c   move.l 0x8(a1), 0xc(a0, d0.l)
     │ │╎   0x00686ba8      24700c0c       movea.l 0xc(a0, d0.l), a2
     │ │╎   0x00686bac      b4c2           cmpa.w d2, a2
     │┌───< 0x00686bae      6716           beq.b 0x686bc6
     │││╎   0x00686bb0      594f           subq.w 0x4, a7
     │││╎   0x00686bb2      2f12           move.l (a2), -(a7)
     │││╎   0x00686bb4      4eb9004081f8   jsr p_trunc
     │││╎   0x00686bba      584f           addq.w 0x4, a7
     │││╎   0x00686bbc      2a1f           move.l (a7)+, d5
     │││╎   0x00686bbe      21aa00080c0c   move.l 0x8(a2), 0xc(a0, d0.l)
    ┌─────< 0x00686bc4      6002           bra.b 0x686bc8
    ││└───> 0x00686bc6      2a06           move.l d6, d5
    └└────> 0x00686bc8      22700d202ef0   movea.l 0x2ef0(a0, d0.l * 4), a1
       │╎   0x00686bce      b2c2           cmpa.w d2, a1
      ┌───< 0x00686bd0      6606           bne.b 0x686bd8
      ││╎   0x00686bd2      422effff       clr.b -0x1(a6)
     ┌────< 0x00686bd6      6016           bra.b 0x686bee
     │└───> 0x00686bd8      2d51ffd6       move.l (a1), -0x2a(a6)
     │ │╎   0x00686bdc      f22947800014   fmove.s 0x14(a1), fp7
     │ │╎   0x00686be2      21a9001e0d20.  move.l 0x1e(a1), 0x2ef0(a0, d0.l * 4)
     │ │╎   0x00686bea      1d42ffff       move.b d2, -0x1(a6)
     └────> 0x00686bee      4a2efffe       tst.b -0x2(a6)
      ┌───< 0x00686bf2      672a           beq.b 0x686c1e
      ││╎   0x00686bf4      4a2effff       tst.b -0x1(a6)
     ┌────< 0x00686bf8      6724           beq.b 0x686c1e
     │││╎   0x00686bfa      2f06           move.l d6, -(a7)
     │││╎   0x00686bfc      2f05           move.l d5, -(a7)
     │││╎   0x00686bfe      2f2effd6       move.l -0x2a(a6), -(a7)
     │││╎   0x00686c02      f2276780       fmove.s fp7, -(a7)
     │││╎   0x00686c06      48700c0c       pea.l 0xc(a0, d0.l)
     │││╎   0x00686c0a      48700d202ef0   pea.l 0x2ef0(a0, d0.l * 4)
     │││╎   0x00686c10      49eeffce       lea.l -0x32(a6), a4
     │││╎   0x00686c14      4ebafb92       jsr FONTLET.draw_both(pc)
     │││╎   0x00686c18      defc0018       adda.w 0x18, a7
    ┌─────< 0x00686c1c      604e           bra.b 0x686c6c
    │└└───> 0x00686c1e      4a2effff       tst.b -0x1(a6)
    │ ┌───< 0x00686c22      671c           beq.b 0x686c40
    │ ││╎   0x00686c24      2f2effd6       move.l -0x2a(a6), -(a7)
    │ ││╎   0x00686c28      f2276780       fmove.s fp7, -(a7)
    │ ││╎   0x00686c2c      48700d202ef0   pea.l 0x2ef0(a0, d0.l * 4)
    │ ││╎   0x00686c32      49eeffce       lea.l -0x32(a6), a4
    │ ││╎   0x00686c36      4ebaf9d4       jsr FONTLET.draw_edge(pc)
    │┌────> 0x00686c3a      defc000c       adda.w 0xc, a7
   ┌──────< 0x00686c3e      602c           bra.b 0x686c6c
   ││╎└───> 0x00686c40      4a2efffe       tst.b -0x2(a6)
   ││╎┌───< 0x00686c44      6712           beq.b 0x686c58
   ││╎││╎   0x00686c46      2f06           move.l d6, -(a7)
   ││╎││╎   0x00686c48      2f05           move.l d5, -(a7)
   ││╎││╎   0x00686c4a      48700c0c       pea.l 0xc(a0, d0.l)
   ││╎││╎   0x00686c4e      49eeffce       lea.l -0x32(a6), a4
   ││╎││╎   0x00686c52      4ebafa96       jsr FONTLET.draw_solid(pc)
   ││└────< 0x00686c56      60e2           bra.b 0x686c3a
   ││ └───> 0x00686c58      2e2effe2       move.l -0x1e(a6), d7
   ││ ┌───> 0x00686c5c      beaeffea       cmp.l -0x16(a6), d7
   ││┌────< 0x00686c60      6e0a           bgt.b 0x686c6c
   │││╎│╎   0x00686c62      4279fff50000   clr.w 0xfff50000
   │││╎│╎   0x00686c68      5287           addq.l 0x1, d7
   │││└───< 0x00686c6a      68f0           bvc.b 0x686c5c
   └└└────> 0x00686c6c      5280           addq.l 0x1, d0
       │└─< 0x00686c6e      6800ff08       bvc.w 0x686b78
       └──> 0x00686c72      584f           addq.w 0x4, a7
            0x00686c74      4eb90051fa24   jsr BRUSHCOM.br_abort
            0x00686c7a      206e0008       movea.l 0x8(a6), a0
            0x00686c7e      4850           pea.l (a0)
            0x00686c80      4ebaa6b4       jsr FONTLET.dispose_heap(pc)
            0x00686c84      4eb900402e30   jsr p_Cur_Ticks
            0x00686c8a      23df008518c6   move.l (a7)+, 0x8518c6
            0x00686c90      f21fd001       fmovem (a7)+, fp7
            0x00686c94      4cdf1fe7       movem.l (a7)+, d0-d2/d5-d7/a0-a4
            0x00686c98      4e5e           unlk a6
