            ;-- GRAPHICCOM:
            0x007396d2      .byte 0x00
            0x007396d3      .byte 0x88
            0x007396d4      .byte 0x00
            0x007396d5      .byte 0x46
            0x007396d6      .byte 0x00
            0x007396d7      .byte 0xd2
            0x007396d8      .byte 0x00
            0x007396d9      .byte 0x51
            0x007396da      .byte 0x00
            0x007396db      .byte 0x80
            0x007396dc      .byte 0x00
            0x007396dd      .byte 0x80
            0x007396de      .byte 0x00
            0x007396df      .byte 0x3c
            0x007396e0      .byte 0x00
            0x007396e1      .byte 0x80
            0x007396e2      .byte 0x00
            0x007396e3      .byte 0x80
            0x007396e4      .byte 0x00
            0x007396e5      .byte 0x32
            0x007396e6      .byte 0x00
            0x007396e7      .byte 0x80
            0x007396e8      .byte 0x00
            0x007396e9      .byte 0x80
            0x007396ea      .byte 0x00
            0x007396eb      .byte 0x10
            0x007396ec      .byte 0x00
            0x007396ed      .byte 0x80
            0x007396ee      .byte 0x00
            0x007396ef      .byte 0x80
            0x007396f0      .byte 0x00
            0x007396f1      .byte 0xa7
            0x007396f2      .byte 0x00
            0x007396f3      .byte 0x72
            0x007396f4      .byte 0x00
            0x007396f5      .byte 0x9e
            0x007396f6      .byte 0x00
            0x007396f7      .byte 0xbf
            0x007396f8      .byte 0x00
            0x007396f9      .byte 0x80
            0x007396fa      .byte 0x00
            0x007396fb      .byte 0x80
            0x007396fc      .byte 0x00
            0x007396fd      .byte 0xa0
            0x007396fe      .byte 0x00
            0x007396ff      .byte 0x96
            0x00739700      .byte 0x00
            0x00739701      .byte 0x74
            0x00739702      .byte 0x00
            0x00739703      .byte 0x23
            0x00739704      .byte 0x00
            0x00739705      .byte 0xf0
            0x00739706      .byte 0x00
            0x00739707      .byte 0x6e
            0x00739708      .byte 0x00
            0x00739709      .byte 0x8c
            0x0073970a      .byte 0x00
            0x0073970b      .byte 0x6e
            0x0073970c      .byte 0x00
            0x0073970d      .byte 0x6e
            0x0073970e      .byte 0x00
            0x0073970f      .byte 0xc4
            0x00739710      .byte 0x00
            0x00739711      .byte 0x31
            0x00739712      .byte 0x00
            0x00739713      .byte 0x8c
            0x00739714      .byte 0x00
            0x00739715      .byte 0xa8
            0x00739716      .byte 0x00
            0x00739717      .byte 0x28
            0x00739718      .byte 0x00
            0x00739719      .byte 0xb1
            0x0073971a      .byte 0x00
            0x0073971b      .byte 0x00
            0x0073971c      .byte 0x00
            0x0073971d      .byte 0x80
            0x0073971e      .byte 0x00
            0x0073971f      .byte 0x80
            0x00739720      .byte 0x00
            0x00739721      .byte 0xff
            0x00739722      .byte 0x00
            0x00739723      .byte 0x80
            0x00739724      .byte 0x00
            0x00739725      .byte 0x80
            0x00739726      .byte 0x00
            0x00739727      .byte 0xcc
            0x00739728      .byte 0x00
            0x00739729      .byte 0x80
            0x0073972a      .byte 0x00
            0x0073972b      .byte 0x80
            0x0073972c      .byte 0x00
            0x0073972d      .byte 0xad
            0x0073972e      .byte 0x00
            0x0073972f      .byte 0x80
            0x00739730      .byte 0x00
            0x00739731      .byte 0x80
            0x00739732      .byte 0x00
            0x00739733      .byte 0xeb
            0x00739734      .byte 0x00
            0x00739735      .byte 0x80
            0x00739736      .byte 0x00
            0x00739737      .byte 0x80
            0x00739738      .byte 0x00
            0x00739739      .byte 0x10
            0x0073973a      .byte 0x00
            0x0073973b      .byte 0x80
            0x0073973c      .byte 0x00
            0x0073973d      .byte 0x80
            0x0073973e      .byte 0x00
            0x0073973f      .byte 0x80
            0x00739740      .byte 0x00
            0x00739741      .byte 0x80
            0x00739742      .byte 0x00
            0x00739743      .byte 0x80
            0x00739744      .byte 0x00
            0x00739745      .byte 0x51
            0x00739746      .byte 0x00
            0x00739747      .byte 0x5a
            0x00739748      .byte 0x00
            0x00739749      .byte 0xf0
            0x0073974a      .byte 0x00
            0x0073974b      .byte 0xd2
            0x0073974c      .byte 0x00
            0x0073974d      .byte 0x10
            0x0073974e      .byte 0x00
            0x0073974f      .byte 0x92
            0x00739750      .byte 0x00
            0x00739751      .byte 0x29
            0x00739752      .byte 0x00
            0x00739753      .byte 0xf0
            0x00739754      .byte 0x00
            0x00739755      .byte 0x6e
            0x00739756      .byte 0x00
            0x00739757      .byte 0x91
            0x00739758      .byte 0x00
            0x00739759      .byte 0x36
            0x0073975a      .byte 0x00
            0x0073975b      .byte 0x22
            0x0073975c      .byte 0x00
            0x0073975d      .byte 0xa2
            0x0073975e      .byte 0x00
            0x0073975f      .byte 0x2c
            0x00739760      .byte 0x00
            0x00739761      .byte 0x8e
            0x00739762      .byte 0x00
            0x00739763      .byte 0x83
            0x00739764      .byte 0x00
            0x00739765      .byte 0x9c
            0x00739766      .byte 0x00
            0x00739767      .byte 0x2c
            0x00739768      .byte 0x00
            0x00739769      .byte 0x70
            0x0073976a      .byte 0x00
            0x0073976b      .byte 0x48
            0x0073976c      .byte 0x00
            0x0073976d      .byte 0x3a
            0x0073976e      .byte 0x00
            0x0073976f      .byte 0x54
            0x00739770      .byte 0x00
            0x00739771      .byte 0xb8
            0x00739772      .byte 0x00
            0x00739773      .byte 0xc6
            0x00739774      .byte 0x00
            0x00739775      .byte 0x41
            0x00739776      .byte 0x00
            0x00739777      .byte 0x64
            0x00739778      .byte 0x00
            0x00739779      .byte 0xd4
            0x0073977a      .byte 0x00
            0x0073977b      .byte 0x23
            0x0073977c      .byte 0x00
            0x0073977d      .byte 0xd4
            0x0073977e      .byte 0x00
            0x0073977f      .byte 0x72
            0x00739780      .byte 0x00
            0x00739781      .byte 0xd2
            0x00739782      .byte 0x00
            0x00739783      .byte 0x10
            0x00739784      .byte 0x00
            0x00739785      .byte 0x92
            0x00739786      .byte 0x00
            0x00739787      .byte 0xaa
            0x00739788      .byte 0x00
            0x00739789      .byte 0xa6
            0x0073978a      .byte 0x00
            0x0073978b      .byte 0x10
            0x0073978c      .byte 0x00
            0x0073978d      .byte 0x91
            0x0073978e      .byte 0x00
            0x0073978f      .byte 0x36
            0x00739790      .byte 0x00
            0x00739791      .byte 0x22
            0x00739792      .byte 0x00
            0x00739793      .byte 0x6a
            0x00739794      .byte 0x00
            0x00739795      .byte 0xca
            0x00739796      .byte 0x00
            0x00739797      .byte 0xde
            0x00739798      .byte 0x00
            0x00739799      .byte 0x51
            0x0073979a      .byte 0x00
            0x0073979b      .byte 0x5a
            0x0073979c      .byte 0x00
            0x0073979d      .byte 0xf0
            0x0073979e      .byte 0x00
            0x0073979f      .byte 0x29
            0x007397a0      .byte 0x00
            0x007397a1      .byte 0xf0
            0x007397a2      .byte 0x00
            0x007397a3      .byte 0x6e
            0x007397a4      .byte 0x00
            0x007397a5      .byte 0x78
            0x007397a6      .byte 0x02
            0x007397a7      .byte 0xd8
            0x007397a8      .byte 0x01
            0x007397a9      .byte 0xf8
            0x007397aa      .byte 0x0b
            0x007397ab      .byte 0x60
            0x007397ac      .byte 0x01
            0x007397ad      .byte 0xf8
            0x007397ae      .byte 0x05
            0x007397af      .byte 0xb0
            0x007397b0      .byte 0x07
            0x007397b1      .byte 0xf8
            0x007397b2      .byte 0x0b
            0x007397b3      .byte 0x60
            0x007397b4      .byte 0x02
            0x007397b5      .byte 0xc7
            0x007397b6      .byte 0x01
            0x007397b7      .byte 0xe5
            0x007397b8      .byte 0x03
            0x007397b9      .byte 0x00
            0x007397ba      .byte 0x01
            0x007397bb      .byte 0xe4
            0x007397bc      .byte 0x02
            0x007397bd      .byte 0xbd
            0x007397be      .byte 0x02
            0x007397bf      .byte 0x3f
            0x007397c0      .byte 0x00
            0x007397c1      .byte 0x0c
            0x007397c2      .byte 0x00
            0x007397c3      .byte 0x18
            0x007397c4      .byte 0x00
            0x007397c5      .byte 0x00
            0x007397c6      .byte 0x00
            0x007397c7      .byte 0x00
            0x007397c8      .byte 0x00
            0x007397c9      .byte 0x00
            0x007397ca      .byte 0x00
            0x007397cb      .byte 0x00
            0x007397cc      .byte 0x00
            0x007397cd      .byte 0x00
            0x007397ce      .byte 0x00
            0x007397cf      .byte 0x00
            0x007397d0      .byte 0x00
            0x007397d1      .byte 0x00
            0x007397d2      .byte 0x00
            0x007397d3      .byte 0x00
            0x007397d4      .byte 0x00
            0x007397d5      .byte 0x00
            0x007397d6      .byte 0x00
            0x007397d7      .byte 0x00
            0x007397d8      .byte 0x00
            0x007397d9      .byte 0x00
            0x007397da      .byte 0x00
            0x007397db      .byte 0x00
            0x007397dc      .byte 0x00
            0x007397dd      .byte 0x00
            0x007397de      .byte 0x00
            0x007397df      .byte 0x00
            0x007397e0      .byte 0x00
            0x007397e1      .byte 0x00
            0x007397e2      .byte 0x00
            0x007397e3      .byte 0x01
            0x007397e4      .byte 0x00
            0x007397e5      .byte 0x01
            0x007397e6      .byte 0x00
            0x007397e7      .byte 0x01
            0x007397e8      .byte 0x00
            0x007397e9      .byte 0x01
            0x007397ea      .byte 0x00
            0x007397eb      .byte 0x01
            0x007397ec      .byte 0x00
            0x007397ed      .byte 0x01
            0x007397ee      .byte 0x00
            0x007397ef      .byte 0x01
            0x007397f0      .byte 0x00
            0x007397f1      .byte 0x01
            0x007397f2      .byte 0x00
            0x007397f3      .byte 0x01
            0x007397f4      .byte 0x00
            0x007397f5      .byte 0x01
            0x007397f6      .byte 0x00
            0x007397f7      .byte 0x02
            0x007397f8      .byte 0x00
            0x007397f9      .byte 0x02
            0x007397fa      .byte 0x00
            0x007397fb      .byte 0x02
            0x007397fc      .byte 0x00
            0x007397fd      .byte 0x02
            0x007397fe      .byte 0x00
            0x007397ff      .byte 0x02
            0x00739800      .byte 0x00
            0x00739801      .byte 0x02
            0x00739802      .byte 0x00
            0x00739803      .byte 0x02
            0x00739804      .byte 0x00
            0x00739805      .byte 0x02
            0x00739806      .byte 0x00
            0x00739807      .byte 0x03
            0x00739808      .byte 0x00
            0x00739809      .byte 0x03
            0x0073980a      .byte 0x00
            0x0073980b      .byte 0x03
            0x0073980c      .byte 0x00
            0x0073980d      .byte 0x03
            0x0073980e      .byte 0x00
            0x0073980f      .byte 0x03
            0x00739810      .byte 0x00
            0x00739811      .byte 0x03
            0x00739812      .byte 0x00
            0x00739813      .byte 0x04
            0x00739814      .byte 0x00
            0x00739815      .byte 0x04
            0x00739816      .byte 0x00
            0x00739817      .byte 0x04
            0x00739818      .byte 0x00
            0x00739819      .byte 0x04
            0x0073981a      .byte 0x00
            0x0073981b      .byte 0x04
            0x0073981c      .byte 0x00
            0x0073981d      .byte 0x05
            0x0073981e      .byte 0x00
            0x0073981f      .byte 0x05
            0x00739820      .byte 0x00
            0x00739821      .byte 0x05
            0x00739822      .byte 0x00
            0x00739823      .byte 0x05
            0x00739824      .byte 0x00
            0x00739825      .byte 0x06
            0x00739826      .byte 0x00
            0x00739827      .byte 0x06
            0x00739828      .byte 0x00
            0x00739829      .byte 0x06
            0x0073982a      .byte 0x00
            0x0073982b      .byte 0x06
            0x0073982c      .byte 0x00
            0x0073982d      .byte 0x07
            0x0073982e      .byte 0x00
            0x0073982f      .byte 0x07
            0x00739830      .byte 0x00
            0x00739831      .byte 0x07
            0x00739832      .byte 0x00
            0x00739833      .byte 0x07
            0x00739834      .byte 0x00
            0x00739835      .byte 0x08
            0x00739836      .byte 0x00
            0x00739837      .byte 0x08
            0x00739838      .byte 0x00
            0x00739839      .byte 0x08
            0x0073983a      .byte 0x00
            0x0073983b      .byte 0x08
            0x0073983c      .byte 0x00
            0x0073983d      .byte 0x09
            0x0073983e      .byte 0x00
            0x0073983f      .byte 0x09
            0x00739840      .byte 0x00
            0x00739841      .byte 0x09
            0x00739842      .byte 0x00
            0x00739843      .byte 0x0a
            0x00739844      .byte 0x00
            0x00739845      .byte 0x0a
            0x00739846      .byte 0x00
            0x00739847      .byte 0x0a
            0x00739848      .byte 0x00
            0x00739849      .byte 0x0a
            0x0073984a      .byte 0x00
            0x0073984b      .byte 0x0b
            0x0073984c      .byte 0x00
            0x0073984d      .byte 0x0b
            0x0073984e      .byte 0x00
            0x0073984f      .byte 0x0b
            0x00739850      .byte 0x00
            0x00739851      .byte 0x0c
            0x00739852      .byte 0x00
            0x00739853      .byte 0x0c
            0x00739854      .byte 0x00
            0x00739855      .byte 0x0c
            0x00739856      .byte 0x00
            0x00739857      .byte 0x0d
            0x00739858      .byte 0x00
            0x00739859      .byte 0x0d
            0x0073985a      .byte 0x00
            0x0073985b      .byte 0x0d
            0x0073985c      .byte 0x00
            0x0073985d      .byte 0x0e
            0x0073985e      .byte 0x00
            0x0073985f      .byte 0x0e
            0x00739860      .byte 0x00
            0x00739861      .byte 0x0f
            0x00739862      .byte 0x00
            0x00739863      .byte 0x0f
            0x00739864      .byte 0x00
            0x00739865      .byte 0x0f
            0x00739866      .byte 0x00
            0x00739867      .byte 0x10
            0x00739868      .byte 0x00
            0x00739869      .byte 0x10
            0x0073986a      .byte 0x00
            0x0073986b      .byte 0x11
            0x0073986c      .byte 0x00
            0x0073986d      .byte 0x11
            0x0073986e      .byte 0x00
            0x0073986f      .byte 0x11
            0x00739870      .byte 0x00
            0x00739871      .byte 0x12
            0x00739872      .byte 0x00
            0x00739873      .byte 0x12
            0x00739874      .byte 0x00
            0x00739875      .byte 0x13
            0x00739876      .byte 0x00
            0x00739877      .byte 0x13
            0x00739878      .byte 0x00
            0x00739879      .byte 0x13
            0x0073987a      .byte 0x00
            0x0073987b      .byte 0x14
            0x0073987c      .byte 0x00
            0x0073987d      .byte 0x14
            0x0073987e      .byte 0x00
            0x0073987f      .byte 0x15
            0x00739880      .byte 0x00
            0x00739881      .byte 0x15
            0x00739882      .byte 0x00
            0x00739883      .byte 0x16
            0x00739884      .byte 0x00
            0x00739885      .byte 0x16
            0x00739886      .byte 0x00
            0x00739887      .byte 0x17
            0x00739888      .byte 0x00
            0x00739889      .byte 0x17
            0x0073988a      .byte 0x00
            0x0073988b      .byte 0x17
            0x0073988c      .byte 0x00
            0x0073988d      .byte 0x18
            0x0073988e      .byte 0x00
            0x0073988f      .byte 0x18
            0x00739890      .byte 0x00
            0x00739891      .byte 0x19
            0x00739892      .byte 0x00
            0x00739893      .byte 0x19
            0x00739894      .byte 0x00
            0x00739895      .byte 0x1a
            0x00739896      .byte 0x00
            0x00739897      .byte 0x1a
            0x00739898      .byte 0x00
            0x00739899      .byte 0x1b
            0x0073989a      .byte 0x00
            0x0073989b      .byte 0x1b
            0x0073989c      .byte 0x00
            0x0073989d      .byte 0x1c
            0x0073989e      .byte 0x00
            0x0073989f      .byte 0x1c
            0x007398a0      .byte 0x00
            0x007398a1      .byte 0x1d
            0x007398a2      .byte 0x00
            0x007398a3      .byte 0x1d
            0x007398a4      .byte 0x00
            0x007398a5      .byte 0x1e
            0x007398a6      .byte 0x00
            0x007398a7      .byte 0x1e
            0x007398a8      .byte 0x00
            0x007398a9      .byte 0x1f
            0x007398aa      .byte 0x00
            0x007398ab      .byte 0x20
            0x007398ac      .byte 0x00
            0x007398ad      .byte 0x20
            0x007398ae      .byte 0x00
            0x007398af      .byte 0x21
            0x007398b0      .byte 0x00
            0x007398b1      .byte 0x21
            0x007398b2      .byte 0x00
            0x007398b3      .byte 0x22
            0x007398b4      .byte 0x00
            0x007398b5      .byte 0x22
            0x007398b6      .byte 0x00
            0x007398b7      .byte 0x23
            0x007398b8      .byte 0x00
            0x007398b9      .byte 0x23
            0x007398ba      .byte 0x00
            0x007398bb      .byte 0x24
            0x007398bc      .byte 0x00
            0x007398bd      .byte 0x25
            0x007398be      .byte 0x00
            0x007398bf      .byte 0x25
            0x007398c0      .byte 0x00
            0x007398c1      .byte 0x26
            0x007398c2      .byte 0x00
            0x007398c3      .byte 0x26
            0x007398c4      .byte 0x00
            0x007398c5      .byte 0x27
            0x007398c6      .byte 0x00
            0x007398c7      .byte 0x28
            0x007398c8      .byte 0x00
            0x007398c9      .byte 0x28
            0x007398ca      .byte 0x00
            0x007398cb      .byte 0x29
            0x007398cc      .byte 0x00
            0x007398cd      .byte 0x29
            0x007398ce      .byte 0x00
            0x007398cf      .byte 0x2a
            0x007398d0      .byte 0x00
            0x007398d1      .byte 0x2b
            0x007398d2      .byte 0x00
            0x007398d3      .byte 0x2b
            0x007398d4      .byte 0x00
            0x007398d5      .byte 0x2c
            0x007398d6      .byte 0x00
            0x007398d7      .byte 0x2d
            0x007398d8      .byte 0x00
            0x007398d9      .byte 0x2d
            0x007398da      .byte 0x00
            0x007398db      .byte 0x2e
            0x007398dc      .byte 0x00
            0x007398dd      .byte 0x2f
            0x007398de      .byte 0x00
            0x007398df      .byte 0x2f
            0x007398e0      .byte 0x00
            0x007398e1      .byte 0x30
            0x007398e2      .byte 0x00
            0x007398e3      .byte 0x30
            0x007398e4      .byte 0x00
            0x007398e5      .byte 0x31
            0x007398e6      .byte 0x00
            0x007398e7      .byte 0x32
            0x007398e8      .byte 0x00
            0x007398e9      .byte 0x33
            0x007398ea      .byte 0x00
            0x007398eb      .byte 0x33
            0x007398ec      .byte 0x00
            0x007398ed      .byte 0x34
            0x007398ee      .byte 0x00
            0x007398ef      .byte 0x35
            0x007398f0      .byte 0x00
            0x007398f1      .byte 0x35
            0x007398f2      .byte 0x00
            0x007398f3      .byte 0x36
            0x007398f4      .byte 0x00
            0x007398f5      .byte 0x37
            0x007398f6      .byte 0x00
            0x007398f7      .byte 0x37
            0x007398f8      .byte 0x00
            0x007398f9      .byte 0x38
            0x007398fa      .byte 0x00
            0x007398fb      .byte 0x39
            0x007398fc      .byte 0x00
            0x007398fd      .byte 0x3a
            0x007398fe      .byte 0x00
            0x007398ff      .byte 0x3a
            0x00739900      .byte 0x00
            0x00739901      .byte 0x3b
            0x00739902      .byte 0x00
            0x00739903      .byte 0x3c
            0x00739904      .byte 0x00
            0x00739905      .byte 0x3c
            0x00739906      .byte 0x00
            0x00739907      .byte 0x3d
            0x00739908      .byte 0x00
            0x00739909      .byte 0x3e
            0x0073990a      .byte 0x00
            0x0073990b      .byte 0x3f
            0x0073990c      .byte 0x00
            0x0073990d      .byte 0x3f
            0x0073990e      .byte 0x00
            0x0073990f      .byte 0x40
            0x00739910      .byte 0x00
            0x00739911      .byte 0x41
            0x00739912      .byte 0x00
            0x00739913      .byte 0x42
            0x00739914      .byte 0x00
            0x00739915      .byte 0x43
            0x00739916      .byte 0x00
            0x00739917      .byte 0x43
            0x00739918      .byte 0x00
            0x00739919      .byte 0x44
            0x0073991a      .byte 0x00
            0x0073991b      .byte 0x45
            0x0073991c      .byte 0x00
            0x0073991d      .byte 0x46
            0x0073991e      .byte 0x00
            0x0073991f      .byte 0x46
            0x00739920      .byte 0x00
            0x00739921      .byte 0x47
            0x00739922      .byte 0x00
            0x00739923      .byte 0x48
            0x00739924      .byte 0x00
            0x00739925      .byte 0x49
            0x00739926      .byte 0x00
            0x00739927      .byte 0x4a
            0x00739928      .byte 0x00
            0x00739929      .byte 0x4a
            0x0073992a      .byte 0x00
            0x0073992b      .byte 0x4b
            0x0073992c      .byte 0x00
            0x0073992d      .byte 0x4c
            0x0073992e      .byte 0x00
            0x0073992f      .byte 0x4d
            0x00739930      .byte 0x00
            0x00739931      .byte 0x4e
            0x00739932      .byte 0x00
            0x00739933      .byte 0x4f
            0x00739934      .byte 0x00
            0x00739935      .byte 0x4f
            0x00739936      .byte 0x00
            0x00739937      .byte 0x50
            0x00739938      .byte 0x00
            0x00739939      .byte 0x51
            0x0073993a      .byte 0x00
            0x0073993b      .byte 0x52
            0x0073993c      .byte 0x00
            0x0073993d      .byte 0x53
            0x0073993e      .byte 0x00
            0x0073993f      .byte 0x54
            0x00739940      .byte 0x00
            0x00739941      .byte 0x55
            0x00739942      .byte 0x00
            0x00739943      .byte 0x55
            0x00739944      .byte 0x00
            0x00739945      .byte 0x56
            0x00739946      .byte 0x00
            0x00739947      .byte 0x57
            0x00739948      .byte 0x00
            0x00739949      .byte 0x58
            0x0073994a      .byte 0x00
            0x0073994b      .byte 0x59
            0x0073994c      .byte 0x00
            0x0073994d      .byte 0x5a
            0x0073994e      .byte 0x00
            0x0073994f      .byte 0x5b
            0x00739950      .byte 0x00
            0x00739951      .byte 0x5c
            0x00739952      .byte 0x00
            0x00739953      .byte 0x5c
            0x00739954      .byte 0x00
            0x00739955      .byte 0x5d
            0x00739956      .byte 0x00
            0x00739957      .byte 0x5e
            0x00739958      .byte 0x00
            0x00739959      .byte 0x5f
            0x0073995a      .byte 0x00
            0x0073995b      .byte 0x60
            0x0073995c      .byte 0x00
            0x0073995d      .byte 0x61
            0x0073995e      .byte 0x00
            0x0073995f      .byte 0x62
            0x00739960      .byte 0x00
            0x00739961      .byte 0x63
            0x00739962      .byte 0x00
            0x00739963      .byte 0x64
            0x00739964      .byte 0x00
            0x00739965      .byte 0x65
            0x00739966      .byte 0x00
            0x00739967      .byte 0x66
            0x00739968      .byte 0x00
            0x00739969      .byte 0x67
            0x0073996a      .byte 0x00
            0x0073996b      .byte 0x68
            0x0073996c      .byte 0x00
            0x0073996d      .byte 0x69
            0x0073996e      .byte 0x00
            0x0073996f      .byte 0x69
            0x00739970      .byte 0x00
            0x00739971      .byte 0x6a
            0x00739972      .byte 0x00
            0x00739973      .byte 0x6b
            0x00739974      .byte 0x00
            0x00739975      .byte 0x6c
            0x00739976      .byte 0x00
            0x00739977      .byte 0x6d
            0x00739978      .byte 0x00
            0x00739979      .byte 0x6e
            0x0073997a      .byte 0x00
            0x0073997b      .byte 0x6f
            0x0073997c      .byte 0x00
            0x0073997d      .byte 0x70
            0x0073997e      .byte 0x00
            0x0073997f      .byte 0x71
            0x00739980      .byte 0x00
            0x00739981      .byte 0x72
            0x00739982      .byte 0x00
            0x00739983      .byte 0x73
            0x00739984      .byte 0x00
            0x00739985      .byte 0x74
            0x00739986      .byte 0x00
            0x00739987      .byte 0x75
            0x00739988      .byte 0x00
            0x00739989      .byte 0x76
            0x0073998a      .byte 0x00
            0x0073998b      .byte 0x77
            0x0073998c      .byte 0x00
            0x0073998d      .byte 0x78
            0x0073998e      .byte 0x00
            0x0073998f      .byte 0x79
            0x00739990      .byte 0x00
            0x00739991      .byte 0x7a
            0x00739992      .byte 0x00
            0x00739993      .byte 0x7b
            0x00739994      .byte 0x00
            0x00739995      .byte 0x7c
            0x00739996      .byte 0x00
            0x00739997      .byte 0x7d
            0x00739998      .byte 0x00
            0x00739999      .byte 0x7e
            0x0073999a      .byte 0x00
            0x0073999b      .byte 0x7f
            0x0073999c      .byte 0x00
            0x0073999d      .byte 0x80
            0x0073999e      .byte 0x00
            0x0073999f      .byte 0x81
            0x007399a0      .byte 0x00
            0x007399a1      .byte 0x83
            0x007399a2      .byte 0x00
            0x007399a3      .byte 0x84
            0x007399a4      .byte 0x00
            0x007399a5      .byte 0x85
            0x007399a6      .byte 0x00
            0x007399a7      .byte 0x86
            0x007399a8      .byte 0x00
            0x007399a9      .byte 0x87
            0x007399aa      .byte 0x00
            0x007399ab      .byte 0x88
            0x007399ac      .byte 0x00
            0x007399ad      .byte 0x89
            0x007399ae      .byte 0x00
            0x007399af      .byte 0x8a
            0x007399b0      .byte 0x00
            0x007399b1      .byte 0x8b
            0x007399b2      .byte 0x00
            0x007399b3      .byte 0x8c
            0x007399b4      .byte 0x00
            0x007399b5      .byte 0x8d
            0x007399b6      .byte 0x00
            0x007399b7      .byte 0x8e
            0x007399b8      .byte 0x00
            0x007399b9      .byte 0x8f
            0x007399ba      .byte 0x00
            0x007399bb      .byte 0x90
            0x007399bc      .byte 0x00
            0x007399bd      .byte 0x92
            0x007399be      .byte 0x00
            0x007399bf      .byte 0x93
            0x007399c0      .byte 0x00
            0x007399c1      .byte 0x94
            0x007399c2      .byte 0x00
            0x007399c3      .byte 0x95
            0x007399c4      .byte 0x00
            0x007399c5      .byte 0x96
            0x007399c6      .byte 0x00
            0x007399c7      .byte 0x97
            0x007399c8      .byte 0x00
            0x007399c9      .byte 0x98
            0x007399ca      .byte 0x00
            0x007399cb      .byte 0x99
            0x007399cc      .byte 0x00
            0x007399cd      .byte 0x9a
            0x007399ce      .byte 0x00
            0x007399cf      .byte 0x9c
            0x007399d0      .byte 0x00
            0x007399d1      .byte 0x9d
            0x007399d2      .byte 0x00
            0x007399d3      .byte 0x9e
            0x007399d4      .byte 0x00
            0x007399d5      .byte 0x9f
            0x007399d6      .byte 0x00
            0x007399d7      .byte 0xa0
            0x007399d8      .byte 0x00
            0x007399d9      .byte 0xa1
            0x007399da      .byte 0x00
            0x007399db      .byte 0xa2
            0x007399dc      .byte 0x00
            0x007399dd      .byte 0xa4
            0x007399de      .byte 0x00
            0x007399df      .byte 0xa5
            0x007399e0      .byte 0x00
            0x007399e1      .byte 0xa6
            0x007399e2      .byte 0x00
            0x007399e3      .byte 0xa7
            0x007399e4      .byte 0x00
            0x007399e5      .byte 0xa8
            0x007399e6      .byte 0x00
            0x007399e7      .byte 0xa9
            0x007399e8      .byte 0x00
            0x007399e9      .byte 0xaa
            0x007399ea      .byte 0x00
            0x007399eb      .byte 0xac
            0x007399ec      .byte 0x00
            0x007399ed      .byte 0xad
            0x007399ee      .byte 0x00
            0x007399ef      .byte 0xae
            0x007399f0      .byte 0x00
            0x007399f1      .byte 0xaf
            0x007399f2      .byte 0x00
            0x007399f3      .byte 0xb0
            0x007399f4      .byte 0x00
            0x007399f5      .byte 0xb2
            0x007399f6      .byte 0x00
            0x007399f7      .byte 0xb3
            0x007399f8      .byte 0x00
            0x007399f9      .byte 0xb4
            0x007399fa      .byte 0x00
            0x007399fb      .byte 0xb5
            0x007399fc      .byte 0x00
            0x007399fd      .byte 0xb6
            0x007399fe      .byte 0x00
            0x007399ff      .byte 0xb8
            0x00739a00      .byte 0x00
            0x00739a01      .byte 0xb9
            0x00739a02      .byte 0x00
            0x00739a03      .byte 0xba
            0x00739a04      .byte 0x00
            0x00739a05      .byte 0xbb
            0x00739a06      .byte 0x00
            0x00739a07      .byte 0xbc
            0x00739a08      .byte 0x00
            0x00739a09      .byte 0xbe
            0x00739a0a      .byte 0x00
            0x00739a0b      .byte 0xbf
            0x00739a0c      .byte 0x00
            0x00739a0d      .byte 0xc0
            0x00739a0e      .byte 0x00
            0x00739a0f      .byte 0xc1
            0x00739a10      .byte 0x00
            0x00739a11      .byte 0xc3
            0x00739a12      .byte 0x00
            0x00739a13      .byte 0xc4
            0x00739a14      .byte 0x00
            0x00739a15      .byte 0xc5
            0x00739a16      .byte 0x00
            0x00739a17      .byte 0xc6
            0x00739a18      .byte 0x00
            0x00739a19      .byte 0xc7
            0x00739a1a      .byte 0x00
            0x00739a1b      .byte 0xc9
            0x00739a1c      .byte 0x00
            0x00739a1d      .byte 0xca
            0x00739a1e      .byte 0x00
            0x00739a1f      .byte 0xcb
            0x00739a20      .byte 0x00
            0x00739a21      .byte 0xcc
            0x00739a22      .byte 0x00
            0x00739a23      .byte 0xce
            0x00739a24      .byte 0x00
            0x00739a25      .byte 0xcf
            0x00739a26      .byte 0x00
            0x00739a27      .byte 0xd0
            0x00739a28      .byte 0x00
            0x00739a29      .byte 0xd2
            0x00739a2a      .byte 0x00
            0x00739a2b      .byte 0xd3
            0x00739a2c      .byte 0x00
            0x00739a2d      .byte 0xd4
            0x00739a2e      .byte 0x00
            0x00739a2f      .byte 0xd5
            0x00739a30      .byte 0x00
            0x00739a31      .byte 0xd7
            0x00739a32      .byte 0x00
            0x00739a33      .byte 0xd8
            0x00739a34      .byte 0x00
            0x00739a35      .byte 0xd9
            0x00739a36      .byte 0x00
            0x00739a37      .byte 0xda
            0x00739a38      .byte 0x00
            0x00739a39      .byte 0xdc
            0x00739a3a      .byte 0x00
            0x00739a3b      .byte 0xdd
            0x00739a3c      .byte 0x00
            0x00739a3d      .byte 0xde
            0x00739a3e      .byte 0x00
            0x00739a3f      .byte 0xe0
            0x00739a40      .byte 0x00
            0x00739a41      .byte 0xe1
            0x00739a42      .byte 0x00
            0x00739a43      .byte 0xe2
            0x00739a44      .byte 0x00
            0x00739a45      .byte 0xe4
            0x00739a46      .byte 0x00
            0x00739a47      .byte 0xe5
            0x00739a48      .byte 0x00
            0x00739a49      .byte 0xe6
            0x00739a4a      .byte 0x00
            0x00739a4b      .byte 0xe7
            0x00739a4c      .byte 0x00
            0x00739a4d      .byte 0xe9
            0x00739a4e      .byte 0x00
            0x00739a4f      .byte 0xea
            0x00739a50      .byte 0x00
            0x00739a51      .byte 0xeb
            0x00739a52      .byte 0x00
            0x00739a53      .byte 0xed
            0x00739a54      .byte 0x00
            0x00739a55      .byte 0xee
            0x00739a56      .byte 0x00
            0x00739a57      .byte 0xef
            0x00739a58      .byte 0x00
            0x00739a59      .byte 0xf1
            0x00739a5a      .byte 0x00
            0x00739a5b      .byte 0xf2
            0x00739a5c      .byte 0x00
            0x00739a5d      .byte 0xf3
            0x00739a5e      .byte 0x00
            0x00739a5f      .byte 0xf5
            0x00739a60      .byte 0x00
            0x00739a61      .byte 0xf6
            0x00739a62      .byte 0x00
            0x00739a63      .byte 0xf7
            0x00739a64      .byte 0x00
            0x00739a65      .byte 0xf9
            0x00739a66      .byte 0x00
            0x00739a67      .byte 0xfa
            0x00739a68      .byte 0x00
            0x00739a69      .byte 0xfb
            0x00739a6a      .byte 0x00
            0x00739a6b      .byte 0xfd
            0x00739a6c      .byte 0x00
            0x00739a6d      .byte 0xfe
            0x00739a6e      .byte 0x01
            0x00739a6f      .byte 0x00
            0x00739a70      .byte 0x01
            0x00739a71      .byte 0x01
            0x00739a72      .byte 0x01
            0x00739a73      .byte 0x02
            0x00739a74      .byte 0x01
            0x00739a75      .byte 0x04
            0x00739a76      .byte 0x01
            0x00739a77      .byte 0x05
            0x00739a78      .byte 0x01
            0x00739a79      .byte 0x06
            0x00739a7a      .byte 0x01
            0x00739a7b      .byte 0x08
            0x00739a7c      .byte 0x01
            0x00739a7d      .byte 0x09
            0x00739a7e      .byte 0x01
            0x00739a7f      .byte 0x0a
            0x00739a80      .byte 0x01
            0x00739a81      .byte 0x0c
            0x00739a82      .byte 0x01
            0x00739a83      .byte 0x0d
            0x00739a84      .byte 0x01
            0x00739a85      .byte 0x0f
            0x00739a86      .byte 0x01
            0x00739a87      .byte 0x10
            0x00739a88      .byte 0x01
            0x00739a89      .byte 0x11
            0x00739a8a      .byte 0x01
            0x00739a8b      .byte 0x13
            0x00739a8c      .byte 0x01
            0x00739a8d      .byte 0x14
            0x00739a8e      .byte 0x01
            0x00739a8f      .byte 0x16
            0x00739a90      .byte 0x01
            0x00739a91      .byte 0x17
            0x00739a92      .byte 0x01
            0x00739a93      .byte 0x18
            0x00739a94      .byte 0x01
            0x00739a95      .byte 0x1a
            0x00739a96      .byte 0x01
            0x00739a97      .byte 0x1b
            0x00739a98      .byte 0x01
            0x00739a99      .byte 0x1d
            0x00739a9a      .byte 0x01
            0x00739a9b      .byte 0x1e
            0x00739a9c      .byte 0x01
            0x00739a9d      .byte 0x1f
            0x00739a9e      .byte 0x01
            0x00739a9f      .byte 0x21
            0x00739aa0      .byte 0x01
            0x00739aa1      .byte 0x22
            0x00739aa2      .byte 0x01
            0x00739aa3      .byte 0x24
            0x00739aa4      .byte 0x01
            0x00739aa5      .byte 0x25
            0x00739aa6      .byte 0x01
            0x00739aa7      .byte 0x27
            0x00739aa8      .byte 0x01
            0x00739aa9      .byte 0x28
            0x00739aaa      .byte 0x01
            0x00739aab      .byte 0x29
            0x00739aac      .byte 0x01
            0x00739aad      .byte 0x2b
            0x00739aae      .byte 0x01
            0x00739aaf      .byte 0x2c
            0x00739ab0      .byte 0x01
            0x00739ab1      .byte 0x2e
            0x00739ab2      .byte 0x01
            0x00739ab3      .byte 0x2f
            0x00739ab4      .byte 0x01
            0x00739ab5      .byte 0x31
            0x00739ab6      .byte 0x01
            0x00739ab7      .byte 0x32
            0x00739ab8      .byte 0x01
            0x00739ab9      .byte 0x33
            0x00739aba      .byte 0x01
            0x00739abb      .byte 0x35
            0x00739abc      .byte 0x01
            0x00739abd      .byte 0x36
            0x00739abe      .byte 0x01
            0x00739abf      .byte 0x38
            0x00739ac0      .byte 0x01
            0x00739ac1      .byte 0x39
            0x00739ac2      .byte 0x01
            0x00739ac3      .byte 0x3b
            0x00739ac4      .byte 0x01
            0x00739ac5      .byte 0x3c
            0x00739ac6      .byte 0x01
            0x00739ac7      .byte 0x3e
            0x00739ac8      .byte 0x01
            0x00739ac9      .byte 0x3f
            0x00739aca      .byte 0x01
            0x00739acb      .byte 0x40
            0x00739acc      .byte 0x01
            0x00739acd      .byte 0x42
            0x00739ace      .byte 0x01
            0x00739acf      .byte 0x43
            0x00739ad0      .byte 0x01
            0x00739ad1      .byte 0x45
            0x00739ad2      .byte 0x01
            0x00739ad3      .byte 0x46
            0x00739ad4      .byte 0x01
            0x00739ad5      .byte 0x48
            0x00739ad6      .byte 0x01
            0x00739ad7      .byte 0x49
            0x00739ad8      .byte 0x01
            0x00739ad9      .byte 0x4b
            0x00739ada      .byte 0x01
            0x00739adb      .byte 0x4c
            0x00739adc      .byte 0x01
            0x00739add      .byte 0x4e
            0x00739ade      .byte 0x01
            0x00739adf      .byte 0x4f
            0x00739ae0      .byte 0x01
            0x00739ae1      .byte 0x51
            0x00739ae2      .byte 0x01
            0x00739ae3      .byte 0x52
            0x00739ae4      .byte 0x01
            0x00739ae5      .byte 0x54
            0x00739ae6      .byte 0x01
            0x00739ae7      .byte 0x55
            0x00739ae8      .byte 0x01
            0x00739ae9      .byte 0x56
            0x00739aea      .byte 0x01
            0x00739aeb      .byte 0x58
            0x00739aec      .byte 0x01
            0x00739aed      .byte 0x59
            0x00739aee      .byte 0x01
            0x00739aef      .byte 0x5b
            0x00739af0      .byte 0x01
            0x00739af1      .byte 0x5c
            0x00739af2      .byte 0x01
            0x00739af3      .byte 0x5e
            0x00739af4      .byte 0x01
            0x00739af5      .byte 0x5f
            0x00739af6      .byte 0x01
            0x00739af7      .byte 0x61
            0x00739af8      .byte 0x01
            0x00739af9      .byte 0x62
            0x00739afa      .byte 0x01
            0x00739afb      .byte 0x64
            0x00739afc      .byte 0x01
            0x00739afd      .byte 0x65
            0x00739afe      .byte 0x01
            0x00739aff      .byte 0x67
            0x00739b00      .byte 0x01
            0x00739b01      .byte 0x68
            0x00739b02      .byte 0x01
            0x00739b03      .byte 0x6a
            0x00739b04      .byte 0x01
            0x00739b05      .byte 0x6b
            0x00739b06      .byte 0x01
            0x00739b07      .byte 0x6d
            0x00739b08      .byte 0x01
            0x00739b09      .byte 0x6e
            0x00739b0a      .byte 0x01
            0x00739b0b      .byte 0x70
            0x00739b0c      .byte 0x01
            0x00739b0d      .byte 0x71
            0x00739b0e      .byte 0x01
            0x00739b0f      .byte 0x73
            0x00739b10      .byte 0x01
            0x00739b11      .byte 0x74
            0x00739b12      .byte 0x01
            0x00739b13      .byte 0x76
            0x00739b14      .byte 0x01
            0x00739b15      .byte 0x77
            0x00739b16      .byte 0x01
            0x00739b17      .byte 0x79
            0x00739b18      .byte 0x01
            0x00739b19      .byte 0x7a
            0x00739b1a      .byte 0x01
            0x00739b1b      .byte 0x7c
            0x00739b1c      .byte 0x01
            0x00739b1d      .byte 0x7e
            0x00739b1e      .byte 0x01
            0x00739b1f      .byte 0x7f
            0x00739b20      .byte 0x01
            0x00739b21      .byte 0x81
            0x00739b22      .byte 0x01
            0x00739b23      .byte 0x82
            0x00739b24      .byte 0x01
            0x00739b25      .byte 0x84
            0x00739b26      .byte 0x01
            0x00739b27      .byte 0x85
            0x00739b28      .byte 0x01
            0x00739b29      .byte 0x87
            0x00739b2a      .byte 0x01
            0x00739b2b      .byte 0x88
            0x00739b2c      .byte 0x01
            0x00739b2d      .byte 0x8a
            0x00739b2e      .byte 0x01
            0x00739b2f      .byte 0x8b
            0x00739b30      .byte 0x01
            0x00739b31      .byte 0x8d
            0x00739b32      .byte 0x01
            0x00739b33      .byte 0x8e
            0x00739b34      .byte 0x01
            0x00739b35      .byte 0x90
            0x00739b36      .byte 0x01
            0x00739b37      .byte 0x91
            0x00739b38      .byte 0x01
            0x00739b39      .byte 0x93
            0x00739b3a      .byte 0x01
            0x00739b3b      .byte 0x94
            0x00739b3c      .byte 0x01
            0x00739b3d      .byte 0x96
            0x00739b3e      .byte 0x01
            0x00739b3f      .byte 0x97
            0x00739b40      .byte 0x01
            0x00739b41      .byte 0x99
            0x00739b42      .byte 0x01
            0x00739b43      .byte 0x9b
            0x00739b44      .byte 0x01
            0x00739b45      .byte 0x9c
            0x00739b46      .byte 0x01
            0x00739b47      .byte 0x9e
            0x00739b48      .byte 0x01
            0x00739b49      .byte 0x9f
            0x00739b4a      .byte 0x01
            0x00739b4b      .byte 0xa1
            0x00739b4c      .byte 0x01
            0x00739b4d      .byte 0xa2
            0x00739b4e      .byte 0x01
            0x00739b4f      .byte 0xa4
            0x00739b50      .byte 0x01
            0x00739b51      .byte 0xa5
            0x00739b52      .byte 0x01
            0x00739b53      .byte 0xa7
            0x00739b54      .byte 0x01
            0x00739b55      .byte 0xa8
            0x00739b56      .byte 0x01
            0x00739b57      .byte 0xaa
            0x00739b58      .byte 0x01
            0x00739b59      .byte 0xac
            0x00739b5a      .byte 0x01
            0x00739b5b      .byte 0xad
            0x00739b5c      .byte 0x01
            0x00739b5d      .byte 0xaf
            0x00739b5e      .byte 0x01
            0x00739b5f      .byte 0xb0
            0x00739b60      .byte 0x01
            0x00739b61      .byte 0xb2
            0x00739b62      .byte 0x01
            0x00739b63      .byte 0xb3
            0x00739b64      .byte 0x01
            0x00739b65      .byte 0xb5
            0x00739b66      .byte 0x01
            0x00739b67      .byte 0xb6
            0x00739b68      .byte 0x01
            0x00739b69      .byte 0xb8
            0x00739b6a      .byte 0x01
            0x00739b6b      .byte 0xba
            0x00739b6c      .byte 0x01
            0x00739b6d      .byte 0xbb
            0x00739b6e      .byte 0x01
            0x00739b6f      .byte 0xbd
            0x00739b70      .byte 0x01
            0x00739b71      .byte 0xbe
            0x00739b72      .byte 0x01
            0x00739b73      .byte 0xc0
            0x00739b74      .byte 0x01
            0x00739b75      .byte 0xc1
            0x00739b76      .byte 0x01
            0x00739b77      .byte 0xc3
            0x00739b78      .byte 0x01
            0x00739b79      .byte 0xc4
            0x00739b7a      .byte 0x01
            0x00739b7b      .byte 0xc6
            0x00739b7c      .byte 0x01
            0x00739b7d      .byte 0xc8
            0x00739b7e      .byte 0x01
            0x00739b7f      .byte 0xc9
            0x00739b80      .byte 0x01
            0x00739b81      .byte 0xcb
            0x00739b82      .byte 0x01
            0x00739b83      .byte 0xcc
            0x00739b84      .byte 0x01
            0x00739b85      .byte 0xce
            0x00739b86      .byte 0x01
            0x00739b87      .byte 0xcf
            0x00739b88      .byte 0x01
            0x00739b89      .byte 0xd1
            0x00739b8a      .byte 0x01
            0x00739b8b      .byte 0xd3
            0x00739b8c      .byte 0x01
            0x00739b8d      .byte 0xd4
            0x00739b8e      .byte 0x01
            0x00739b8f      .byte 0xd6
            0x00739b90      .byte 0x01
            0x00739b91      .byte 0xd7
            0x00739b92      .byte 0x01
            0x00739b93      .byte 0xd9
            0x00739b94      .byte 0x01
            0x00739b95      .byte 0xda
            0x00739b96      .byte 0x01
            0x00739b97      .byte 0xdc
            0x00739b98      .byte 0x01
            0x00739b99      .byte 0xdd
            0x00739b9a      .byte 0x01
            0x00739b9b      .byte 0xdf
            0x00739b9c      .byte 0x01
            0x00739b9d      .byte 0xe1
            0x00739b9e      .byte 0x01
            0x00739b9f      .byte 0xe2
            0x00739ba0      .byte 0x01
            0x00739ba1      .byte 0xe4
            0x00739ba2      .byte 0x01
            0x00739ba3      .byte 0xe5
            0x00739ba4      .byte 0x01
            0x00739ba5      .byte 0xe7
            0x00739ba6      .byte 0x01
            0x00739ba7      .byte 0xe8
            0x00739ba8      .byte 0x01
            0x00739ba9      .byte 0xea
            0x00739baa      .byte 0x01
            0x00739bab      .byte 0xec
            0x00739bac      .byte 0x01
            0x00739bad      .byte 0xed
            0x00739bae      .byte 0x01
            0x00739baf      .byte 0xef
            0x00739bb0      .byte 0x01
            0x00739bb1      .byte 0xf0
            0x00739bb2      .byte 0x01
            0x00739bb3      .byte 0xf2
            0x00739bb4      .byte 0x01
            0x00739bb5      .byte 0xf3
            0x00739bb6      .byte 0x01
            0x00739bb7      .byte 0xf5
            0x00739bb8      .byte 0x01
            0x00739bb9      .byte 0xf7
            0x00739bba      .byte 0x01
            0x00739bbb      .byte 0xf8
            0x00739bbc      .byte 0x01
            0x00739bbd      .byte 0xfa
            0x00739bbe      .byte 0x01
            0x00739bbf      .byte 0xfb
            0x00739bc0      .byte 0x01
            0x00739bc1      .byte 0xfd
            0x00739bc2      .byte 0x01
            0x00739bc3      .byte 0xfe
            0x00739bc4      .byte 0x02
            0x00739bc5      .byte 0x00
            0x00739bc6      .byte 0x02
            0x00739bc7      .byte 0x02
            0x00739bc8      .byte 0x02
            0x00739bc9      .byte 0x03
            0x00739bca      .byte 0x02
            0x00739bcb      .byte 0x05
            0x00739bcc      .byte 0x02
            0x00739bcd      .byte 0x06
            0x00739bce      .byte 0x02
            0x00739bcf      .byte 0x08
            0x00739bd0      .byte 0x02
            0x00739bd1      .byte 0x09
            0x00739bd2      .byte 0x02
            0x00739bd3      .byte 0x0b
            0x00739bd4      .byte 0x02
            0x00739bd5      .byte 0x0d
            0x00739bd6      .byte 0x02
            0x00739bd7      .byte 0x0e
            0x00739bd8      .byte 0x02
            0x00739bd9      .byte 0x10
            0x00739bda      .byte 0x02
            0x00739bdb      .byte 0x11
            0x00739bdc      .byte 0x02
            0x00739bdd      .byte 0x13
            0x00739bde      .byte 0x02
            0x00739bdf      .byte 0x14
            0x00739be0      .byte 0x02
            0x00739be1      .byte 0x16
            0x00739be2      .byte 0x02
            0x00739be3      .byte 0x18
            0x00739be4      .byte 0x02
            0x00739be5      .byte 0x19
            0x00739be6      .byte 0x02
            0x00739be7      .byte 0x1b
            0x00739be8      .byte 0x02
            0x00739be9      .byte 0x1c
            0x00739bea      .byte 0x02
            0x00739beb      .byte 0x1e
            0x00739bec      .byte 0x02
            0x00739bed      .byte 0x1f
            0x00739bee      .byte 0x02
            0x00739bef      .byte 0x21
            0x00739bf0      .byte 0x02
            0x00739bf1      .byte 0x23
            0x00739bf2      .byte 0x02
            0x00739bf3      .byte 0x24
            0x00739bf4      .byte 0x02
            0x00739bf5      .byte 0x26
            0x00739bf6      .byte 0x02
            0x00739bf7      .byte 0x27
            0x00739bf8      .byte 0x02
            0x00739bf9      .byte 0x29
            0x00739bfa      .byte 0x02
            0x00739bfb      .byte 0x2a
            0x00739bfc      .byte 0x02
            0x00739bfd      .byte 0x2c
            0x00739bfe      .byte 0x02
            0x00739bff      .byte 0x2d
            0x00739c00      .byte 0x02
            0x00739c01      .byte 0x2f
            0x00739c02      .byte 0x02
            0x00739c03      .byte 0x31
            0x00739c04      .byte 0x02
            0x00739c05      .byte 0x32
            0x00739c06      .byte 0x02
            0x00739c07      .byte 0x34
            0x00739c08      .byte 0x02
            0x00739c09      .byte 0x35
            0x00739c0a      .byte 0x02
            0x00739c0b      .byte 0x37
            0x00739c0c      .byte 0x02
            0x00739c0d      .byte 0x38
            0x00739c0e      .byte 0x02
            0x00739c0f      .byte 0x3a
            0x00739c10      .byte 0x02
            0x00739c11      .byte 0x3c
            0x00739c12      .byte 0x02
            0x00739c13      .byte 0x3d
            0x00739c14      .byte 0x02
            0x00739c15      .byte 0x3f
            0x00739c16      .byte 0x02
            0x00739c17      .byte 0x40
            0x00739c18      .byte 0x02
            0x00739c19      .byte 0x42
            0x00739c1a      .byte 0x02
            0x00739c1b      .byte 0x43
            0x00739c1c      .byte 0x02
            0x00739c1d      .byte 0x45
            0x00739c1e      .byte 0x02
            0x00739c1f      .byte 0x46
            0x00739c20      .byte 0x02
            0x00739c21      .byte 0x48
            0x00739c22      .byte 0x02
            0x00739c23      .byte 0x4a
            0x00739c24      .byte 0x02
            0x00739c25      .byte 0x4b
            0x00739c26      .byte 0x02
            0x00739c27      .byte 0x4d
            0x00739c28      .byte 0x02
            0x00739c29      .byte 0x4e
            0x00739c2a      .byte 0x02
            0x00739c2b      .byte 0x50
            0x00739c2c      .byte 0x02
            0x00739c2d      .byte 0x51
            0x00739c2e      .byte 0x02
            0x00739c2f      .byte 0x53
            0x00739c30      .byte 0x02
            0x00739c31      .byte 0x54
            0x00739c32      .byte 0x02
            0x00739c33      .byte 0x56
            0x00739c34      .byte 0x02
            0x00739c35      .byte 0x58
            0x00739c36      .byte 0x02
            0x00739c37      .byte 0x59
            0x00739c38      .byte 0x02
            0x00739c39      .byte 0x5b
            0x00739c3a      .byte 0x02
            0x00739c3b      .byte 0x5c
            0x00739c3c      .byte 0x02
            0x00739c3d      .byte 0x5e
            0x00739c3e      .byte 0x02
            0x00739c3f      .byte 0x5f
            0x00739c40      .byte 0x02
            0x00739c41      .byte 0x61
            0x00739c42      .byte 0x02
            0x00739c43      .byte 0x62
            0x00739c44      .byte 0x02
            0x00739c45      .byte 0x64
            0x00739c46      .byte 0x02
            0x00739c47      .byte 0x65
            0x00739c48      .byte 0x02
            0x00739c49      .byte 0x67
            0x00739c4a      .byte 0x02
            0x00739c4b      .byte 0x69
            0x00739c4c      .byte 0x02
            0x00739c4d      .byte 0x6a
            0x00739c4e      .byte 0x02
            0x00739c4f      .byte 0x6c
            0x00739c50      .byte 0x02
            0x00739c51      .byte 0x6d
            0x00739c52      .byte 0x02
            0x00739c53      .byte 0x6f
            0x00739c54      .byte 0x02
            0x00739c55      .byte 0x70
            0x00739c56      .byte 0x02
            0x00739c57      .byte 0x72
            0x00739c58      .byte 0x02
            0x00739c59      .byte 0x73
            0x00739c5a      .byte 0x02
            0x00739c5b      .byte 0x75
            0x00739c5c      .byte 0x02
            0x00739c5d      .byte 0x76
            0x00739c5e      .byte 0x02
            0x00739c5f      .byte 0x78
            0x00739c60      .byte 0x02
            0x00739c61      .byte 0x79
            0x00739c62      .byte 0x02
            0x00739c63      .byte 0x7b
            0x00739c64      .byte 0x02
            0x00739c65      .byte 0x7c
            0x00739c66      .byte 0x02
            0x00739c67      .byte 0x7e
            0x00739c68      .byte 0x02
            0x00739c69      .byte 0x7f
            0x00739c6a      .byte 0x02
            0x00739c6b      .byte 0x81
            0x00739c6c      .byte 0x02
            0x00739c6d      .byte 0x82
            0x00739c6e      .byte 0x02
            0x00739c6f      .byte 0x84
            0x00739c70      .byte 0x02
            0x00739c71      .byte 0x86
            0x00739c72      .byte 0x02
            0x00739c73      .byte 0x87
            0x00739c74      .byte 0x02
            0x00739c75      .byte 0x89
            0x00739c76      .byte 0x02
            0x00739c77      .byte 0x8a
            0x00739c78      .byte 0x02
            0x00739c79      .byte 0x8c
            0x00739c7a      .byte 0x02
            0x00739c7b      .byte 0x8d
            0x00739c7c      .byte 0x02
            0x00739c7d      .byte 0x8f
            0x00739c7e      .byte 0x02
            0x00739c7f      .byte 0x90
            0x00739c80      .byte 0x02
            0x00739c81      .byte 0x92
            0x00739c82      .byte 0x02
            0x00739c83      .byte 0x93
            0x00739c84      .byte 0x02
            0x00739c85      .byte 0x95
            0x00739c86      .byte 0x02
            0x00739c87      .byte 0x96
            0x00739c88      .byte 0x02
            0x00739c89      .byte 0x98
            0x00739c8a      .byte 0x02
            0x00739c8b      .byte 0x99
            0x00739c8c      .byte 0x02
            0x00739c8d      .byte 0x9b
            0x00739c8e      .byte 0x02
            0x00739c8f      .byte 0x9c
            0x00739c90      .byte 0x02
            0x00739c91      .byte 0x9e
            0x00739c92      .byte 0x02
            0x00739c93      .byte 0x9f
            0x00739c94      .byte 0x02
            0x00739c95      .byte 0xa1
            0x00739c96      .byte 0x02
            0x00739c97      .byte 0xa2
            0x00739c98      .byte 0x02
            0x00739c99      .byte 0xa4
            0x00739c9a      .byte 0x02
            0x00739c9b      .byte 0xa5
            0x00739c9c      .byte 0x02
            0x00739c9d      .byte 0xa7
            0x00739c9e      .byte 0x02
            0x00739c9f      .byte 0xa8
            0x00739ca0      .byte 0x02
            0x00739ca1      .byte 0xaa
            0x00739ca2      .byte 0x02
            0x00739ca3      .byte 0xab
            0x00739ca4      .byte 0x02
            0x00739ca5      .byte 0xac
            0x00739ca6      .byte 0x02
            0x00739ca7      .byte 0xae
            0x00739ca8      .byte 0x02
            0x00739ca9      .byte 0xaf
            0x00739caa      .byte 0x02
            0x00739cab      .byte 0xb1
            0x00739cac      .byte 0x02
            0x00739cad      .byte 0xb2
            0x00739cae      .byte 0x02
            0x00739caf      .byte 0xb4
            0x00739cb0      .byte 0x02
            0x00739cb1      .byte 0xb5
            0x00739cb2      .byte 0x02
            0x00739cb3      .byte 0xb7
            0x00739cb4      .byte 0x02
            0x00739cb5      .byte 0xb8
            0x00739cb6      .byte 0x02
            0x00739cb7      .byte 0xba
            0x00739cb8      .byte 0x02
            0x00739cb9      .byte 0xbb
            0x00739cba      .byte 0x02
            0x00739cbb      .byte 0xbd
            0x00739cbc      .byte 0x02
            0x00739cbd      .byte 0xbe
            0x00739cbe      .byte 0x02
            0x00739cbf      .byte 0xc0
            0x00739cc0      .byte 0x02
            0x00739cc1      .byte 0xc1
            0x00739cc2      .byte 0x02
            0x00739cc3      .byte 0xc2
            0x00739cc4      .byte 0x02
            0x00739cc5      .byte 0xc4
            0x00739cc6      .byte 0x02
            0x00739cc7      .byte 0xc5
            0x00739cc8      .byte 0x02
            0x00739cc9      .byte 0xc7
            0x00739cca      .byte 0x02
            0x00739ccb      .byte 0xc8
            0x00739ccc      .byte 0x02
            0x00739ccd      .byte 0xca
            0x00739cce      .byte 0x02
            0x00739ccf      .byte 0xcb
            0x00739cd0      .byte 0x02
            0x00739cd1      .byte 0xcd
            0x00739cd2      .byte 0x02
            0x00739cd3      .byte 0xce
            0x00739cd4      .byte 0x02
            0x00739cd5      .byte 0xcf
            0x00739cd6      .byte 0x02
            0x00739cd7      .byte 0xd1
            0x00739cd8      .byte 0x02
            0x00739cd9      .byte 0xd2
            0x00739cda      .byte 0x02
            0x00739cdb      .byte 0xd4
            0x00739cdc      .byte 0x02
            0x00739cdd      .byte 0xd5
            0x00739cde      .byte 0x02
            0x00739cdf      .byte 0xd7
            0x00739ce0      .byte 0x02
            0x00739ce1      .byte 0xd8
            0x00739ce2      .byte 0x02
            0x00739ce3      .byte 0xd9
            0x00739ce4      .byte 0x02
            0x00739ce5      .byte 0xdb
            0x00739ce6      .byte 0x02
            0x00739ce7      .byte 0xdc
            0x00739ce8      .byte 0x02
            0x00739ce9      .byte 0xde
            0x00739cea      .byte 0x02
            0x00739ceb      .byte 0xdf
            0x00739cec      .byte 0x02
            0x00739ced      .byte 0xe1
            0x00739cee      .byte 0x02
            0x00739cef      .byte 0xe2
            0x00739cf0      .byte 0x02
            0x00739cf1      .byte 0xe3
            0x00739cf2      .byte 0x02
            0x00739cf3      .byte 0xe5
            0x00739cf4      .byte 0x02
            0x00739cf5      .byte 0xe6
            0x00739cf6      .byte 0x02
            0x00739cf7      .byte 0xe8
            0x00739cf8      .byte 0x02
            0x00739cf9      .byte 0xe9
            0x00739cfa      .byte 0x02
            0x00739cfb      .byte 0xea
            0x00739cfc      .byte 0x02
            0x00739cfd      .byte 0xec
            0x00739cfe      .byte 0x02
            0x00739cff      .byte 0xed
            0x00739d00      .byte 0x02
            0x00739d01      .byte 0xef
            0x00739d02      .byte 0x02
            0x00739d03      .byte 0xf0
            0x00739d04      .byte 0x02
            0x00739d05      .byte 0xf1
            0x00739d06      .byte 0x02
            0x00739d07      .byte 0xf3
            0x00739d08      .byte 0x02
            0x00739d09      .byte 0xf4
            0x00739d0a      .byte 0x02
            0x00739d0b      .byte 0xf6
            0x00739d0c      .byte 0x02
            0x00739d0d      .byte 0xf7
            0x00739d0e      .byte 0x02
            0x00739d0f      .byte 0xf8
            0x00739d10      .byte 0x02
            0x00739d11      .byte 0xfa
            0x00739d12      .byte 0x02
            0x00739d13      .byte 0xfb
            0x00739d14      .byte 0x02
            0x00739d15      .byte 0xfc
            0x00739d16      .byte 0x02
            0x00739d17      .byte 0xfe
            0x00739d18      .byte 0x02
            0x00739d19      .byte 0xff
            0x00739d1a      .byte 0x03
            0x00739d1b      .byte 0x00
            0x00739d1c      .byte 0x03
            0x00739d1d      .byte 0x02
            0x00739d1e      .byte 0x03
            0x00739d1f      .byte 0x03
            0x00739d20      .byte 0x03
            0x00739d21      .byte 0x05
            0x00739d22      .byte 0x03
            0x00739d23      .byte 0x06
            0x00739d24      .byte 0x03
            0x00739d25      .byte 0x07
            0x00739d26      .byte 0x03
            0x00739d27      .byte 0x09
            0x00739d28      .byte 0x03
            0x00739d29      .byte 0x0a
            0x00739d2a      .byte 0x03
            0x00739d2b      .byte 0x0b
            0x00739d2c      .byte 0x03
            0x00739d2d      .byte 0x0d
            0x00739d2e      .byte 0x03
            0x00739d2f      .byte 0x0e
            0x00739d30      .byte 0x03
            0x00739d31      .byte 0x0f
            0x00739d32      .byte 0x03
            0x00739d33      .byte 0x11
            0x00739d34      .byte 0x03
            0x00739d35      .byte 0x12
            0x00739d36      .byte 0x03
            0x00739d37      .byte 0x13
            0x00739d38      .byte 0x03
            0x00739d39      .byte 0x15
            0x00739d3a      .byte 0x03
            0x00739d3b      .byte 0x16
            0x00739d3c      .byte 0x03
            0x00739d3d      .byte 0x17
            0x00739d3e      .byte 0x03
            0x00739d3f      .byte 0x19
            0x00739d40      .byte 0x03
            0x00739d41      .byte 0x1a
            0x00739d42      .byte 0x03
            0x00739d43      .byte 0x1b
            0x00739d44      .byte 0x03
            0x00739d45      .byte 0x1c
            0x00739d46      .byte 0x03
            0x00739d47      .byte 0x1e
            0x00739d48      .byte 0x03
            0x00739d49      .byte 0x1f
            0x00739d4a      .byte 0x03
            0x00739d4b      .byte 0x20
            0x00739d4c      .byte 0x03
            0x00739d4d      .byte 0x22
            0x00739d4e      .byte 0x03
            0x00739d4f      .byte 0x23
            0x00739d50      .byte 0x03
            0x00739d51      .byte 0x24
            0x00739d52      .byte 0x03
            0x00739d53      .byte 0x26
            0x00739d54      .byte 0x03
            0x00739d55      .byte 0x27
            0x00739d56      .byte 0x03
            0x00739d57      .byte 0x28
            0x00739d58      .byte 0x03
            0x00739d59      .byte 0x29
            0x00739d5a      .byte 0x03
            0x00739d5b      .byte 0x2b
            0x00739d5c      .byte 0x03
            0x00739d5d      .byte 0x2c
            0x00739d5e      .byte 0x03
            0x00739d5f      .byte 0x2d
            0x00739d60      .byte 0x03
            0x00739d61      .byte 0x2e
            0x00739d62      .byte 0x03
            0x00739d63      .byte 0x30
            0x00739d64      .byte 0x03
            0x00739d65      .byte 0x31
            0x00739d66      .byte 0x03
            0x00739d67      .byte 0x32
            0x00739d68      .byte 0x03
            0x00739d69      .byte 0x34
            0x00739d6a      .byte 0x03
            0x00739d6b      .byte 0x35
            0x00739d6c      .byte 0x03
            0x00739d6d      .byte 0x36
            0x00739d6e      .byte 0x03
            0x00739d6f      .byte 0x37
            0x00739d70      .byte 0x03
            0x00739d71      .byte 0x39
            0x00739d72      .byte 0x03
            0x00739d73      .byte 0x3a
            0x00739d74      .byte 0x03
            0x00739d75      .byte 0x3b
            0x00739d76      .byte 0x03
            0x00739d77      .byte 0x3c
            0x00739d78      .byte 0x03
            0x00739d79      .byte 0x3d
            0x00739d7a      .byte 0x03
            0x00739d7b      .byte 0x3f
            0x00739d7c      .byte 0x03
            0x00739d7d      .byte 0x40
            0x00739d7e      .byte 0x03
            0x00739d7f      .byte 0x41
            0x00739d80      .byte 0x03
            0x00739d81      .byte 0x42
            0x00739d82      .byte 0x03
            0x00739d83      .byte 0x44
            0x00739d84      .byte 0x03
            0x00739d85      .byte 0x45
            0x00739d86      .byte 0x03
            0x00739d87      .byte 0x46
            0x00739d88      .byte 0x03
            0x00739d89      .byte 0x47
            0x00739d8a      .byte 0x03
            0x00739d8b      .byte 0x48
            0x00739d8c      .byte 0x03
            0x00739d8d      .byte 0x4a
            0x00739d8e      .byte 0x03
            0x00739d8f      .byte 0x4b
            0x00739d90      .byte 0x03
            0x00739d91      .byte 0x4c
            0x00739d92      .byte 0x03
            0x00739d93      .byte 0x4d
            0x00739d94      .byte 0x03
            0x00739d95      .byte 0x4e
            0x00739d96      .byte 0x03
            0x00739d97      .byte 0x50
            0x00739d98      .byte 0x03
            0x00739d99      .byte 0x51
            0x00739d9a      .byte 0x03
            0x00739d9b      .byte 0x52
            0x00739d9c      .byte 0x03
            0x00739d9d      .byte 0x53
            0x00739d9e      .byte 0x03
            0x00739d9f      .byte 0x54
            0x00739da0      .byte 0x03
            0x00739da1      .byte 0x56
            0x00739da2      .byte 0x03
            0x00739da3      .byte 0x57
            0x00739da4      .byte 0x03
            0x00739da5      .byte 0x58
            0x00739da6      .byte 0x03
            0x00739da7      .byte 0x59
            0x00739da8      .byte 0x03
            0x00739da9      .byte 0x5a
            0x00739daa      .byte 0x03
            0x00739dab      .byte 0x5b
            0x00739dac      .byte 0x03
            0x00739dad      .byte 0x5c
            0x00739dae      .byte 0x03
            0x00739daf      .byte 0x5e
            0x00739db0      .byte 0x03
            0x00739db1      .byte 0x5f
            0x00739db2      .byte 0x03
            0x00739db3      .byte 0x60
            0x00739db4      .byte 0x03
            0x00739db5      .byte 0x61
            0x00739db6      .byte 0x03
            0x00739db7      .byte 0x62
            0x00739db8      .byte 0x03
            0x00739db9      .byte 0x63
            0x00739dba      .byte 0x03
            0x00739dbb      .byte 0x64
            0x00739dbc      .byte 0x03
            0x00739dbd      .byte 0x66
            0x00739dbe      .byte 0x03
            0x00739dbf      .byte 0x67
            0x00739dc0      .byte 0x03
            0x00739dc1      .byte 0x68
            0x00739dc2      .byte 0x03
            0x00739dc3      .byte 0x69
            0x00739dc4      .byte 0x03
            0x00739dc5      .byte 0x6a
            0x00739dc6      .byte 0x03
            0x00739dc7      .byte 0x6b
            0x00739dc8      .byte 0x03
            0x00739dc9      .byte 0x6c
            0x00739dca      .byte 0x03
            0x00739dcb      .byte 0x6d
            0x00739dcc      .byte 0x03
            0x00739dcd      .byte 0x6e
            0x00739dce      .byte 0x03
            0x00739dcf      .byte 0x70
            0x00739dd0      .byte 0x03
            0x00739dd1      .byte 0x71
            0x00739dd2      .byte 0x03
            0x00739dd3      .byte 0x72
            0x00739dd4      .byte 0x03
            0x00739dd5      .byte 0x73
            0x00739dd6      .byte 0x03
            0x00739dd7      .byte 0x74
            0x00739dd8      .byte 0x03
            0x00739dd9      .byte 0x75
            0x00739dda      .byte 0x03
            0x00739ddb      .byte 0x76
            0x00739ddc      .byte 0x03
            0x00739ddd      .byte 0x77
            0x00739dde      .byte 0x03
            0x00739ddf      .byte 0x78
            0x00739de0      .byte 0x03
            0x00739de1      .byte 0x79
            0x00739de2      .byte 0x03
            0x00739de3      .byte 0x7a
            0x00739de4      .byte 0x03
            0x00739de5      .byte 0x7b
            0x00739de6      .byte 0x03
            0x00739de7      .byte 0x7c
            0x00739de8      .byte 0x03
            0x00739de9      .byte 0x7d
            0x00739dea      .byte 0x03
            0x00739deb      .byte 0x7f
            0x00739dec      .byte 0x03
            0x00739ded      .byte 0x80
            0x00739dee      .byte 0x03
            0x00739def      .byte 0x81
            0x00739df0      .byte 0x03
            0x00739df1      .byte 0x82
            0x00739df2      .byte 0x03
            0x00739df3      .byte 0x83
            0x00739df4      .byte 0x03
            0x00739df5      .byte 0x84
            0x00739df6      .byte 0x03
            0x00739df7      .byte 0x85
            0x00739df8      .byte 0x03
            0x00739df9      .byte 0x86
            0x00739dfa      .byte 0x03
            0x00739dfb      .byte 0x87
            0x00739dfc      .byte 0x03
            0x00739dfd      .byte 0x88
            0x00739dfe      .byte 0x03
            0x00739dff      .byte 0x89
            0x00739e00      .byte 0x03
            0x00739e01      .byte 0x8a
            0x00739e02      .byte 0x03
            0x00739e03      .byte 0x8b
            0x00739e04      .byte 0x03
            0x00739e05      .byte 0x8c
            0x00739e06      .byte 0x03
            0x00739e07      .byte 0x8d
            0x00739e08      .byte 0x03
            0x00739e09      .byte 0x8e
            0x00739e0a      .byte 0x03
            0x00739e0b      .byte 0x8f
            0x00739e0c      .byte 0x03
            0x00739e0d      .byte 0x90
            0x00739e0e      .byte 0x03
            0x00739e0f      .byte 0x91
            0x00739e10      .byte 0x03
            0x00739e11      .byte 0x92
            0x00739e12      .byte 0x03
            0x00739e13      .byte 0x93
            0x00739e14      .byte 0x03
            0x00739e15      .byte 0x94
            0x00739e16      .byte 0x03
            0x00739e17      .byte 0x95
            0x00739e18      .byte 0x03
            0x00739e19      .byte 0x96
            0x00739e1a      .byte 0x03
            0x00739e1b      .byte 0x97
            0x00739e1c      .byte 0x03
            0x00739e1d      .byte 0x97
            0x00739e1e      .byte 0x03
            0x00739e1f      .byte 0x98
            0x00739e20      .byte 0x03
            0x00739e21      .byte 0x99
            0x00739e22      .byte 0x03
            0x00739e23      .byte 0x9a
            0x00739e24      .byte 0x03
            0x00739e25      .byte 0x9b
            0x00739e26      .byte 0x03
            0x00739e27      .byte 0x9c
            0x00739e28      .byte 0x03
            0x00739e29      .byte 0x9d
            0x00739e2a      .byte 0x03
            0x00739e2b      .byte 0x9e
            0x00739e2c      .byte 0x03
            0x00739e2d      .byte 0x9f
            0x00739e2e      .byte 0x03
            0x00739e2f      .byte 0xa0
            0x00739e30      .byte 0x03
            0x00739e31      .byte 0xa1
            0x00739e32      .byte 0x03
            0x00739e33      .byte 0xa2
            0x00739e34      .byte 0x03
            0x00739e35      .byte 0xa3
            0x00739e36      .byte 0x03
            0x00739e37      .byte 0xa4
            0x00739e38      .byte 0x03
            0x00739e39      .byte 0xa4
            0x00739e3a      .byte 0x03
            0x00739e3b      .byte 0xa5
            0x00739e3c      .byte 0x03
            0x00739e3d      .byte 0xa6
            0x00739e3e      .byte 0x03
            0x00739e3f      .byte 0xa7
            0x00739e40      .byte 0x03
            0x00739e41      .byte 0xa8
            0x00739e42      .byte 0x03
            0x00739e43      .byte 0xa9
            0x00739e44      .byte 0x03
            0x00739e45      .byte 0xaa
            0x00739e46      .byte 0x03
            0x00739e47      .byte 0xab
            0x00739e48      .byte 0x03
            0x00739e49      .byte 0xab
            0x00739e4a      .byte 0x03
            0x00739e4b      .byte 0xac
            0x00739e4c      .byte 0x03
            0x00739e4d      .byte 0xad
            0x00739e4e      .byte 0x03
            0x00739e4f      .byte 0xae
            0x00739e50      .byte 0x03
            0x00739e51      .byte 0xaf
            0x00739e52      .byte 0x03
            0x00739e53      .byte 0xb0
            0x00739e54      .byte 0x03
            0x00739e55      .byte 0xb1
            0x00739e56      .byte 0x03
            0x00739e57      .byte 0xb1
            0x00739e58      .byte 0x03
            0x00739e59      .byte 0xb2
            0x00739e5a      .byte 0x03
            0x00739e5b      .byte 0xb3
            0x00739e5c      .byte 0x03
            0x00739e5d      .byte 0xb4
            0x00739e5e      .byte 0x03
            0x00739e5f      .byte 0xb5
            0x00739e60      .byte 0x03
            0x00739e61      .byte 0xb6
            0x00739e62      .byte 0x03
            0x00739e63      .byte 0xb6
            0x00739e64      .byte 0x03
            0x00739e65      .byte 0xb7
            0x00739e66      .byte 0x03
            0x00739e67      .byte 0xb8
            0x00739e68      .byte 0x03
            0x00739e69      .byte 0xb9
            0x00739e6a      .byte 0x03
            0x00739e6b      .byte 0xba
            0x00739e6c      .byte 0x03
            0x00739e6d      .byte 0xba
            0x00739e6e      .byte 0x03
            0x00739e6f      .byte 0xbb
            0x00739e70      .byte 0x03
            0x00739e71      .byte 0xbc
            0x00739e72      .byte 0x03
            0x00739e73      .byte 0xbd
            0x00739e74      .byte 0x03
            0x00739e75      .byte 0xbd
            0x00739e76      .byte 0x03
            0x00739e77      .byte 0xbe
            0x00739e78      .byte 0x03
            0x00739e79      .byte 0xbf
            0x00739e7a      .byte 0x03
            0x00739e7b      .byte 0xc0
            0x00739e7c      .byte 0x03
            0x00739e7d      .byte 0xc1
            0x00739e7e      .byte 0x03
            0x00739e7f      .byte 0xc1
            0x00739e80      .byte 0x03
            0x00739e81      .byte 0xc2
            0x00739e82      .byte 0x03
            0x00739e83      .byte 0xc3
            0x00739e84      .byte 0x03
            0x00739e85      .byte 0xc4
            0x00739e86      .byte 0x03
            0x00739e87      .byte 0xc4
            0x00739e88      .byte 0x03
            0x00739e89      .byte 0xc5
            0x00739e8a      .byte 0x03
            0x00739e8b      .byte 0xc6
            0x00739e8c      .byte 0x03
            0x00739e8d      .byte 0xc6
            0x00739e8e      .byte 0x03
            0x00739e8f      .byte 0xc7
            0x00739e90      .byte 0x03
            0x00739e91      .byte 0xc8
            0x00739e92      .byte 0x03
            0x00739e93      .byte 0xc9
            0x00739e94      .byte 0x03
            0x00739e95      .byte 0xc9
            0x00739e96      .byte 0x03
            0x00739e97      .byte 0xca
            0x00739e98      .byte 0x03
            0x00739e99      .byte 0xcb
            0x00739e9a      .byte 0x03
            0x00739e9b      .byte 0xcb
            0x00739e9c      .byte 0x03
            0x00739e9d      .byte 0xcc
            0x00739e9e      .byte 0x03
            0x00739e9f      .byte 0xcd
            0x00739ea0      .byte 0x03
            0x00739ea1      .byte 0xcd
            0x00739ea2      .byte 0x03
            0x00739ea3      .byte 0xce
            0x00739ea4      .byte 0x03
            0x00739ea5      .byte 0xcf
            0x00739ea6      .byte 0x03
            0x00739ea7      .byte 0xd0
            0x00739ea8      .byte 0x03
            0x00739ea9      .byte 0xd0
            0x00739eaa      .byte 0x03
            0x00739eab      .byte 0xd1
            0x00739eac      .byte 0x03
            0x00739ead      .byte 0xd1
            0x00739eae      .byte 0x03
            0x00739eaf      .byte 0xd2
            0x00739eb0      .byte 0x03
            0x00739eb1      .byte 0xd3
            0x00739eb2      .byte 0x03
            0x00739eb3      .byte 0xd3
            0x00739eb4      .byte 0x03
            0x00739eb5      .byte 0xd4
            0x00739eb6      .byte 0x03
            0x00739eb7      .byte 0xd5
            0x00739eb8      .byte 0x03
            0x00739eb9      .byte 0xd5
            0x00739eba      .byte 0x03
            0x00739ebb      .byte 0xd6
            0x00739ebc      .byte 0x03
            0x00739ebd      .byte 0xd7
            0x00739ebe      .byte 0x03
            0x00739ebf      .byte 0xd7
            0x00739ec0      .byte 0x03
            0x00739ec1      .byte 0xd8
            0x00739ec2      .byte 0x03
            0x00739ec3      .byte 0xd8
            0x00739ec4      .byte 0x03
            0x00739ec5      .byte 0xd9
            0x00739ec6      .byte 0x03
            0x00739ec7      .byte 0xda
            0x00739ec8      .byte 0x03
            0x00739ec9      .byte 0xda
            0x00739eca      .byte 0x03
            0x00739ecb      .byte 0xdb
            0x00739ecc      .byte 0x03
            0x00739ecd      .byte 0xdb
            0x00739ece      .byte 0x03
            0x00739ecf      .byte 0xdc
            0x00739ed0      .byte 0x03
            0x00739ed1      .byte 0xdd
            0x00739ed2      .byte 0x03
            0x00739ed3      .byte 0xdd
            0x00739ed4      .byte 0x03
            0x00739ed5      .byte 0xde
            0x00739ed6      .byte 0x03
            0x00739ed7      .byte 0xde
            0x00739ed8      .byte 0x03
            0x00739ed9      .byte 0xdf
            0x00739eda      .byte 0x03
            0x00739edb      .byte 0xdf
            0x00739edc      .byte 0x03
            0x00739edd      .byte 0xe0
            0x00739ede      .byte 0x03
            0x00739edf      .byte 0xe0
            0x00739ee0      .byte 0x03
            0x00739ee1      .byte 0xe1
            0x00739ee2      .byte 0x03
            0x00739ee3      .byte 0xe2
            0x00739ee4      .byte 0x03
            0x00739ee5      .byte 0xe2
            0x00739ee6      .byte 0x03
            0x00739ee7      .byte 0xe3
            0x00739ee8      .byte 0x03
            0x00739ee9      .byte 0xe3
            0x00739eea      .byte 0x03
            0x00739eeb      .byte 0xe4
            0x00739eec      .byte 0x03
            0x00739eed      .byte 0xe4
            0x00739eee      .byte 0x03
            0x00739eef      .byte 0xe5
            0x00739ef0      .byte 0x03
            0x00739ef1      .byte 0xe5
            0x00739ef2      .byte 0x03
            0x00739ef3      .byte 0xe6
            0x00739ef4      .byte 0x03
            0x00739ef5      .byte 0xe6
            0x00739ef6      .byte 0x03
            0x00739ef7      .byte 0xe7
            0x00739ef8      .byte 0x03
            0x00739ef9      .byte 0xe7
            0x00739efa      .byte 0x03
            0x00739efb      .byte 0xe8
            0x00739efc      .byte 0x03
            0x00739efd      .byte 0xe8
            0x00739efe      .byte 0x03
            0x00739eff      .byte 0xe9
            0x00739f00      .byte 0x03
            0x00739f01      .byte 0xe9
            0x00739f02      .byte 0x03
            0x00739f03      .byte 0xe9
            0x00739f04      .byte 0x03
            0x00739f05      .byte 0xea
            0x00739f06      .byte 0x03
            0x00739f07      .byte 0xea
            0x00739f08      .byte 0x03
            0x00739f09      .byte 0xeb
            0x00739f0a      .byte 0x03
            0x00739f0b      .byte 0xeb
            0x00739f0c      .byte 0x03
            0x00739f0d      .byte 0xec
            0x00739f0e      .byte 0x03
            0x00739f0f      .byte 0xec
            0x00739f10      .byte 0x03
            0x00739f11      .byte 0xed
            0x00739f12      .byte 0x03
            0x00739f13      .byte 0xed
            0x00739f14      .byte 0x03
            0x00739f15      .byte 0xed
            0x00739f16      .byte 0x03
            0x00739f17      .byte 0xee
            0x00739f18      .byte 0x03
            0x00739f19      .byte 0xee
            0x00739f1a      .byte 0x03
            0x00739f1b      .byte 0xef
            0x00739f1c      .byte 0x03
            0x00739f1d      .byte 0xef
            0x00739f1e      .byte 0x03
            0x00739f1f      .byte 0xef
            0x00739f20      .byte 0x03
            0x00739f21      .byte 0xf0
            0x00739f22      .byte 0x03
            0x00739f23      .byte 0xf0
            0x00739f24      .byte 0x03
            0x00739f25      .byte 0xf1
            0x00739f26      .byte 0x03
            0x00739f27      .byte 0xf1
            0x00739f28      .byte 0x03
            0x00739f29      .byte 0xf1
            0x00739f2a      .byte 0x03
            0x00739f2b      .byte 0xf2
            0x00739f2c      .byte 0x03
            0x00739f2d      .byte 0xf2
            0x00739f2e      .byte 0x03
            0x00739f2f      .byte 0xf3
            0x00739f30      .byte 0x03
            0x00739f31      .byte 0xf3
            0x00739f32      .byte 0x03
            0x00739f33      .byte 0xf3
            0x00739f34      .byte 0x03
            0x00739f35      .byte 0xf4
            0x00739f36      .byte 0x03
            0x00739f37      .byte 0xf4
            0x00739f38      .byte 0x03
            0x00739f39      .byte 0xf4
            0x00739f3a      .byte 0x03
            0x00739f3b      .byte 0xf5
            0x00739f3c      .byte 0x03
            0x00739f3d      .byte 0xf5
            0x00739f3e      .byte 0x03
            0x00739f3f      .byte 0xf5
            0x00739f40      .byte 0x03
            0x00739f41      .byte 0xf6
            0x00739f42      .byte 0x03
            0x00739f43      .byte 0xf6
            0x00739f44      .byte 0x03
            0x00739f45      .byte 0xf6
            0x00739f46      .byte 0x03
            0x00739f47      .byte 0xf6
            0x00739f48      .byte 0x03
            0x00739f49      .byte 0xf7
            0x00739f4a      .byte 0x03
            0x00739f4b      .byte 0xf7
            0x00739f4c      .byte 0x03
            0x00739f4d      .byte 0xf7
            0x00739f4e      .byte 0x03
            0x00739f4f      .byte 0xf8
            0x00739f50      .byte 0x03
            0x00739f51      .byte 0xf8
            0x00739f52      .byte 0x03
            0x00739f53      .byte 0xf8
            0x00739f54      .byte 0x03
            0x00739f55      .byte 0xf8
            0x00739f56      .byte 0x03
            0x00739f57      .byte 0xf9
            0x00739f58      .byte 0x03
            0x00739f59      .byte 0xf9
            0x00739f5a      .byte 0x03
            0x00739f5b      .byte 0xf9
            0x00739f5c      .byte 0x03
            0x00739f5d      .byte 0xf9
            0x00739f5e      .byte 0x03
            0x00739f5f      .byte 0xfa
            0x00739f60      .byte 0x03
            0x00739f61      .byte 0xfa
            0x00739f62      .byte 0x03
            0x00739f63      .byte 0xfa
            0x00739f64      .byte 0x03
            0x00739f65      .byte 0xfa
            0x00739f66      .byte 0x03
            0x00739f67      .byte 0xfb
            0x00739f68      .byte 0x03
            0x00739f69      .byte 0xfb
            0x00739f6a      .byte 0x03
            0x00739f6b      .byte 0xfb
            0x00739f6c      .byte 0x03
            0x00739f6d      .byte 0xfb
            0x00739f6e      .byte 0x03
            0x00739f6f      .byte 0xfc
            0x00739f70      .byte 0x03
            0x00739f71      .byte 0xfc
            0x00739f72      .byte 0x03
            0x00739f73      .byte 0xfc
            0x00739f74      .byte 0x03
            0x00739f75      .byte 0xfc
            0x00739f76      .byte 0x03
            0x00739f77      .byte 0xfc
            0x00739f78      .byte 0x03
            0x00739f79      .byte 0xfd
            0x00739f7a      .byte 0x03
            0x00739f7b      .byte 0xfd
            0x00739f7c      .byte 0x03
            0x00739f7d      .byte 0xfd
            0x00739f7e      .byte 0x03
            0x00739f7f      .byte 0xfd
            0x00739f80      .byte 0x03
            0x00739f81      .byte 0xfd
            0x00739f82      .byte 0x03
            0x00739f83      .byte 0xfd
            0x00739f84      .byte 0x03
            0x00739f85      .byte 0xfe
            0x00739f86      .byte 0x03
            0x00739f87      .byte 0xfe
            0x00739f88      .byte 0x03
            0x00739f89      .byte 0xfe
            0x00739f8a      .byte 0x03
            0x00739f8b      .byte 0xfe
            0x00739f8c      .byte 0x03
            0x00739f8d      .byte 0xfe
            0x00739f8e      .byte 0x03
            0x00739f8f      .byte 0xfe
            0x00739f90      .byte 0x03
            0x00739f91      .byte 0xfe
            0x00739f92      .byte 0x03
            0x00739f93      .byte 0xfe
            0x00739f94      .byte 0x03
            0x00739f95      .byte 0xff
            0x00739f96      .byte 0x03
            0x00739f97      .byte 0xff
            0x00739f98      .byte 0x03
            0x00739f99      .byte 0xff
            0x00739f9a      .byte 0x03
            0x00739f9b      .byte 0xff
            0x00739f9c      .byte 0x03
            0x00739f9d      .byte 0xff
            0x00739f9e      .byte 0x03
            0x00739f9f      .byte 0xff
            0x00739fa0      .byte 0x03
            0x00739fa1      .byte 0xff
            0x00739fa2      .byte 0x03
            0x00739fa3      .byte 0xff
            0x00739fa4      .byte 0x03
            0x00739fa5      .byte 0xff
            0x00739fa6      .byte 0x03
            0x00739fa7      .byte 0xff
            0x00739fa8      .byte 0x04
            0x00739fa9      .byte 0x00
            0x00739faa      .byte 0x04
            0x00739fab      .byte 0x00
            0x00739fac      .byte 0x04
            0x00739fad      .byte 0x00
            0x00739fae      .byte 0x04
            0x00739faf      .byte 0x00
            0x00739fb0      .byte 0x04
            0x00739fb1      .byte 0x00
            0x00739fb2      .byte 0x04
            0x00739fb3      .byte 0x00
            0x00739fb4      .byte 0x04
            0x00739fb5      .byte 0x00
            0x00739fb6      .byte 0x04
            0x00739fb7      .byte 0x00
            0x00739fb8      .byte 0x04
            0x00739fb9      .byte 0x00
            0x00739fba      .byte 0x04
            0x00739fbb      .byte 0x00
            0x00739fbc      .byte 0x04
            0x00739fbd      .byte 0x00
            0x00739fbe      .byte 0x04
            0x00739fbf      .byte 0x00
            0x00739fc0      .byte 0x04
            0x00739fc1      .byte 0x00
            0x00739fc2      .byte 0x04
            0x00739fc3      .byte 0x00
            0x00739fc4      .byte 0x04
            0x00739fc5      .byte 0x00
            0x00739fc6      .byte 0x06
            0x00739fc7      .byte 0x00
            0x00739fc8      .byte 0x00
            0x00739fc9      .byte 0x00
            0x00739fca      .byte 0x00
            0x00739fcb      .byte 0x00
            0x00739fcc      .byte 0x10
            0x00739fcd     .string "do_draw_graphic " ; len=16
            0x00739fdd      .byte 0x07
            0x00739fde     .string ", draw " ; len=7
            0x00739fe5      .byte 0x00
            0x00739fe6      .byte 0x30
            0x00739fe7      .byte 0x0b
            0x00739fe8     .string "draw rubber" ; len=11
            0x00739ff3      .byte 0x0f
            0x00739ff4     .string "spec or preview" ; len=15
            0x0073a003      .byte 0x1f
            0x0073a004     .string "do_draw_graphic set rubber out " ; len=31
            0x0073a023      .byte 0x00
            0x0073a024      .byte 0x30
            0x0073a025      .byte 0x09
            0x0073a026     .string "remainder" ; len=9
            0x0073a02f      .byte 0x1e
            0x0073a030      .byte 0x64
            0x0073a031      .byte 0x6f
            0x0073a032      .byte 0x5f
            0x0073a033      .byte 0x64
            0x0073a034      .byte 0x72
            0x0073a035      .byte 0x61
            0x0073a036      .byte 0x77
            0x0073a037      .byte 0x5f
            0x0073a038      .byte 0x67
            0x0073a039      .byte 0x72
            0x0073a03a      .byte 0x61
            0x0073a03b      .byte 0x70
            0x0073a03c      .byte 0x68
            0x0073a03d      .byte 0x69
            0x0073a03e      .byte 0x63
            0x0073a03f      .byte 0x20
            0x0073a040      .byte 0x6e
            0x0073a041      .byte 0x6f
            0x0073a042      .byte 0x72
            0x0073a043      .byte 0x6d
            0x0073a044      .byte 0x61
            0x0073a045      .byte 0x6c
            0x0073a046      .byte 0x20
            0x0073a047      .byte 0x73
            0x0073a048      .byte 0x65
            0x0073a049      .byte 0x74
            0x0073a04a      .byte 0x20
            0x0073a04b      .byte 0x6f
            0x0073a04c      .byte 0x75
            0x0073a04d      .byte 0x74
            ; CALL XREF from GRAPHICCOM.draw_rectangle @ 0x73a1c4
 108: GRAPHICCOM.move_to ();
           0x0073a04e      4e56ffe4       link.w a6, 0xffe4
           0x0073a052      bfd5           cmpa.l (a5), a7
       < 0x0073a054      6206           bhi.b 0x73a05c
          0x0073a056      44fc0002       move.w 0x2, ccr
          0x0073a05a      4e76           trapv
       > 0x0073a05c      defc0018       adda.w 0x18, a7
           0x0073a060      48e7f000       movem.l d0-d3, -(a7)
           0x0073a064      243cffff8000   move.l 0xffff8000, d2
           0x0073a06a      7608           moveq 0x8, d3
           0x0073a06c      302e000a       move.w 0xa(a6), d0
           0x0073a070      c1c3           muls.w d3, d0
           0x0073a072      322e0008       move.w 0x8(a6), d1
           0x0073a076      48c1           ext.l d1
           0x0073a078      d081           add.l d1, d0
           0x0073a07a      9082           sub.l d2, d0
           0x0073a07c      0c800000ffff   cmpi.l 0xffff, d0
       < 0x0073a082      6302           bls.b 0x73a086
          0x0073a084      4e4f           trap 0xf
       > 0x0073a086      d082           add.l d2, d0
           0x0073a088      3d40fffc       move.w d0, -0x4(a6)
           0x0073a08c      302e000c       move.w 0xc(a6), d0
           0x0073a090      c1c3           muls.w d3, d0
           0x0073a092      d280           add.l d0, d1
           0x0073a094      9282           sub.l d2, d1
           0x0073a096      0c810000ffff   cmpi.l 0xffff, d1
       < 0x0073a09c      6302           bls.b 0x73a0a0
          0x0073a09e      4e4f           trap 0xf
       > 0x0073a0a0      d282           add.l d2, d1
           0x0073a0a2      3d41fffe       move.w d1, -0x2(a6)
           0x0073a0a6      2f2efffc       move.l -0x4(a6), -(a7)
           0x0073a0aa      4eb900635510   jsr asm_start_line
           0x0073a0b0      584f           addq.w 0x4, a7
           0x0073a0b2      4cdf000f       movem.l (a7)+, d0-d3
           0x0073a0b6      4e5e           unlk a6
           0x0073a0b8      4e75           rts
 116: GRAPHICCOM.start_at ();
           0x0073a0ba      4e56ffe0       link.w a6, 0xffe0
           0x0073a0be      bfd5           cmpa.l (a5), a7
       < 0x0073a0c0      6206           bhi.b 0x73a0c8
          0x0073a0c2      44fc0002       move.w 0x2, ccr
          0x0073a0c6      4e76           trapv
       > 0x0073a0c8      defc001c       adda.w 0x1c, a7
           0x0073a0cc      48e7f080       movem.l d0-d3/a0, -(a7)
           0x0073a0d0      41eefffc       lea.l -0x4(a6), a0
           0x0073a0d4      243cffff8000   move.l 0xffff8000, d2
           0x0073a0da      7608           moveq 0x8, d3
           0x0073a0dc      302e000a       move.w 0xa(a6), d0
           0x0073a0e0      c1c3           muls.w d3, d0
           0x0073a0e2      322e0008       move.w 0x8(a6), d1
           0x0073a0e6      48c1           ext.l d1
           0x0073a0e8      d081           add.l d1, d0
           0x0073a0ea      9082           sub.l d2, d0
           0x0073a0ec      0c800000ffff   cmpi.l 0xffff, d0
       < 0x0073a0f2      6302           bls.b 0x73a0f6
          0x0073a0f4      4e4f           trap 0xf
       > 0x0073a0f6      d082           add.l d2, d0
           0x0073a0f8      3080           move.w d0, (a0)
           0x0073a0fa      302e000c       move.w 0xc(a6), d0
           0x0073a0fe      c1c3           muls.w d3, d0
           0x0073a100      d280           add.l d0, d1
           0x0073a102      9282           sub.l d2, d1
           0x0073a104      0c810000ffff   cmpi.l 0xffff, d1
       < 0x0073a10a      6302           bls.b 0x73a10e
          0x0073a10c      4e4f           trap 0xf
       > 0x0073a10e      d282           add.l d2, d1
           0x0073a110      3d41fffe       move.w d1, -0x2(a6)
           0x0073a114      2f10           move.l (a0), -(a7)
           0x0073a116      4eb900635510   jsr asm_start_line
           0x0073a11c      2e90           move.l (a0), (a7)
           0x0073a11e      4eb90063553e   jsr asm_stamp
           0x0073a124      584f           addq.w 0x4, a7
           0x0073a126      4cdf010f       movem.l (a7)+, d0-d3/a0
           0x0073a12a      4e5e           unlk a6
           0x0073a12c      4e75           rts
 112: GRAPHICCOM.draw_to_line ();
           0x0073a12e      4e56ffe2       link.w a6, 0xffe2
           0x0073a132      bfd5           cmpa.l (a5), a7
       < 0x0073a134      6206           bhi.b 0x73a13c
          0x0073a136      44fc0002       move.w 0x2, ccr
          0x0073a13a      4e76           trapv
       > 0x0073a13c      defc001a       adda.w 0x1a, a7
           0x0073a140      48e7f000       movem.l d0-d3, -(a7)
           0x0073a144      243cffff8000   move.l 0xffff8000, d2
           0x0073a14a      7608           moveq 0x8, d3
           0x0073a14c      302e000a       move.w 0xa(a6), d0
           0x0073a150      c1c3           muls.w d3, d0
           0x0073a152      322e0008       move.w 0x8(a6), d1
           0x0073a156      48c1           ext.l d1
           0x0073a158      d081           add.l d1, d0
           0x0073a15a      9082           sub.l d2, d0
           0x0073a15c      0c800000ffff   cmpi.l 0xffff, d0
       < 0x0073a162      6302           bls.b 0x73a166
          0x0073a164      4e4f           trap 0xf
       > 0x0073a166      d082           add.l d2, d0
           0x0073a168      3d40fffc       move.w d0, -0x4(a6)
           0x0073a16c      302e000c       move.w 0xc(a6), d0
           0x0073a170      c1c3           muls.w d3, d0
           0x0073a172      d280           add.l d0, d1
           0x0073a174      9282           sub.l d2, d1
           0x0073a176      0c810000ffff   cmpi.l 0xffff, d1
       < 0x0073a17c      6302           bls.b 0x73a180
          0x0073a17e      4e4f           trap 0xf
       > 0x0073a180      d282           add.l d2, d1
           0x0073a182      3d41fffe       move.w d1, -0x2(a6)
           0x0073a186      2f2efffc       move.l -0x4(a6), -(a7)
           0x0073a18a      1f3c0001       move.b 0x1, -(a7)
           0x0073a18e      4eb9006355c0   jsr asm_paint_draw_to
           0x0073a194      5c4f           addq.w 0x6, a7
           0x0073a196      4cdf000f       movem.l (a7)+, d0-d3
           0x0073a19a      4e5e           unlk a6
           0x0073a19c      4e75           rts
 102: GRAPHICCOM.draw_rectangle (int32_t arg_ah, int32_t arg_eh);
           ; arg int32_t arg_ah @ a6+0xa
           ; arg int32_t arg_eh @ a6+0xe
           0x0073a19e      4e56ffe6       link.w a6, 0xffe6
           0x0073a1a2      bfd5           cmpa.l (a5), a7
       < 0x0073a1a4      6206           bhi.b 0x73a1ac
          0x0073a1a6      44fc0002       move.w 0x2, ccr
          0x0073a1aa      4e76           trapv
       > 0x0073a1ac      defc0016       adda.w 0x16, a7
           0x0073a1b0      48e700e0       movem.l a0-a2, -(a7)
           0x0073a1b4      41eefffc       lea.l -0x4(a6), a0
           0x0073a1b8      43faff74       lea.l GRAPHICCOM.draw_to_line(pc), a1
           0x0073a1bc      45ee000c       lea.l 0xc(a6), a2
           0x0073a1c0      2f12           move.l (a2), -(a7)
           0x0073a1c2      4267           clr.w -(a7)
           0x0073a1c4      4ebafe88       jsr GRAPHICCOM.move_to(pc)
           0x0073a1c8      5c4f           addq.w 0x6, a7
           0x0073a1ca      30ae0008       move.w 0x8(a6), (a0)
           0x0073a1ce      3d6e000efffe   move.w 0xe(a6), -0x2(a6)
           0x0073a1d4      2f10           move.l (a0), -(a7)
           0x0073a1d6      4267           clr.w -(a7)
           0x0073a1d8      4e91           jsr (a1)                    ; fcn.0000000a
           0x0073a1da      5c4f           addq.w 0x6, a7
           0x0073a1dc      3d6e000afffe   move.w 0xa(a6), -0x2(a6)
           0x0073a1e2      2f10           move.l (a0), -(a7)
           0x0073a1e4      4267           clr.w -(a7)
           0x0073a1e6      4e91           jsr (a1)                    ; fcn.0000000a
           0x0073a1e8      5c4f           addq.w 0x6, a7
           0x0073a1ea      3092           move.w (a2), (a0)
           0x0073a1ec      2f10           move.l (a0), -(a7)
           0x0073a1ee      4267           clr.w -(a7)
           0x0073a1f0      4e91           jsr (a1)                    ; fcn.0000000a
           0x0073a1f2      544f           addq.w 0x2, a7
           0x0073a1f4      2e92           move.l (a2), (a7)
           0x0073a1f6      4267           clr.w -(a7)
           0x0073a1f8      4e91           jsr (a1)                    ; fcn.0000000a
           0x0073a1fa      5c4f           addq.w 0x6, a7
           0x0073a1fc      4cdf0700       movem.l (a7)+, a0-a2
           0x0073a200      4e5e           unlk a6
           0x0073a202      4e75           rts
            ; CALL XREFS from GRAPHICCOM.do_graduated_re @ 0x73a5be, 0x73a5c6
 110: GRAPHICCOM.stretch ();
           0x0073a204      4e56ffda       link.w a6, 0xffda
           0x0073a208      bfd5           cmpa.l (a5), a7
       < 0x0073a20a      6206           bhi.b 0x73a212
          0x0073a20c      44fc0002       move.w 0x2, ccr
          0x0073a210      4e76           trapv
       > 0x0073a212      defc0024       adda.w 0x24, a7
           0x0073a216      48e79980       movem.l d0/d3-d4/d7/a0, -(a7)
           0x0073a21a      206e0008       movea.l 0x8(a6), a0
           0x0073a21e      7e7f           moveq 0x7f, d7
           0x0073a220      9e50           sub.w (a0), d7
           0x0073a222      707f           moveq 0x7f, d0
           0x0073a224      c1c7           muls.w d7, d0
           0x0073a226      2800           move.l d0, d4
           0x0073a228      4eb900408686   jsr fcn.00408686
           0x0073a22e      2f04           move.l d4, -(a7)
           0x0073a230      786f           moveq 0x6f, d4
           0x0073a232      4eb900408686   jsr fcn.00408686
           0x0073a238      2604           move.l d4, d3
           0x0073a23a      2817           move.l (a7), d4
           0x0073a23c      4eb900407ff8   jsr fcn.00407ff8
           0x0073a242      584f           addq.w 0x4, a7
           0x0073a244      4eb900408224   jsr fcn.00408224
           0x0073a24a      3e04           move.w d4, d7
           0x0073a24c      48c7           ext.l d7
           0x0073a24e      707f           moveq 0x7f, d0
           0x0073a250      9087           sub.l d7, d0
           0x0073a252      4a80           tst.l d0
       < 0x0073a254      6c04           bge.b 0x73a25a
          0x0073a256      4250           clr.w (a0)
      < 0x0073a258      6010           bra.b 0x73a26a
      > 0x0073a25a      0c80000000ff   cmpi.l 0xff, d0
      < 0x0073a260      6f06           ble.b 0x73a268
         0x0073a262      30bc00ff       move.w 0xff, (a0)
     < 0x0073a266      6002           bra.b 0x73a26a
     > 0x0073a268      3080           move.w d0, (a0)
     > 0x0073a26a      4cdf0199       movem.l (a7)+, d0/d3-d4/d7/a0
           0x0073a26e      4e5e           unlk a6
           0x0073a270      4e75           rts
            ; CALL XREF from GRAPHICCOM.do_graduated_re @ 0x73a77e
 374: GRAPHICCOM.do_vert_method ();
           0x0073a272      4e56ff9a       link.w a6, 0xff9a
           0x0073a276      bfd5           cmpa.l (a5), a7
       < 0x0073a278      6206           bhi.b 0x73a280
          0x0073a27a      44fc0002       move.w 0x2, ccr
          0x0073a27e      4e76           trapv
       > 0x0073a280      defc003c       adda.w 0x3c, a7
           0x0073a284      48e7dff0       movem.l d0-d1/d3-d7/a0-a3, -(a7)
           0x0073a288      45f900406b50   lea.l fcn.00406b50, a2
           0x0073a28e      47ee0008       lea.l 0x8(a6), a3
           0x0073a292      323c0100       move.w 0x100, d1
           0x0073a296      302e0010       move.w 0x10(a6), d0
           0x0073a29a      906e0016       sub.w 0x16(a6), d0
           0x0073a29e      48c0           ext.l d0
           0x0073a2a0      2d40ffea       move.l d0, -0x16(a6)
           0x0073a2a4      302e0012       move.w 0x12(a6), d0
           0x0073a2a8      906e0018       sub.w 0x18(a6), d0
           0x0073a2ac      48c0           ext.l d0
           0x0073a2ae      2d40ffee       move.l d0, -0x12(a6)
           0x0073a2b2      302e0014       move.w 0x14(a6), d0
           0x0073a2b6      906e001a       sub.w 0x1a(a6), d0
           0x0073a2ba      48c0           ext.l d0
           0x0073a2bc      2d40fff2       move.l d0, -0xe(a6)
           0x0073a2c0      302e0016       move.w 0x16(a6), d0
           0x0073a2c4      c1c1           muls.w d1, d0
           0x0073a2c6      2d40ffda       move.l d0, -0x26(a6)
           0x0073a2ca      302e0018       move.w 0x18(a6), d0
           0x0073a2ce      c1c1           muls.w d1, d0
           0x0073a2d0      2d40ffde       move.l d0, -0x22(a6)
           0x0073a2d4      302e001a       move.w 0x1a(a6), d0
           0x0073a2d8      c1c1           muls.w d1, d0
           0x0073a2da      2d40ffe2       move.l d0, -0x1e(a6)
           0x0073a2de      2813           move.l (a3), d4
           0x0073a2e0      7602           moveq 0x2, d3
           0x0073a2e2      4e92           jsr (a2)                    ; fcn.00000009+0x2
           0x0073a2e4      2c04           move.l d4, d6
           0x0073a2e6      206c0072       movea.l 0x72(a4), a0
           0x0073a2ea      202e000c       move.l 0xc(a6), d0
           0x0073a2ee      d093           add.l (a3), d0
           0x0073a2f0      5380           subq.l 0x1, d0
           0x0073a2f2      2f00           move.l d0, -(a7)
           0x0073a2f4      2a2e000c       move.l 0xc(a6), d5
       > 0x0073a2f8      ba97           cmp.l (a7), d5
      < 0x0073a2fa      6e0000e2       bgt.w 0x73a3de
         0x0073a2fe      068600000400   addi.l 0x400, d6
         0x0073a304      2806           move.l d6, d4
         0x0073a306      2613           move.l (a3), d3
         0x0073a308      4eb900406bf4   jsr fcn.00406bf4
         0x0073a30e      e38c           lsl.l 0x1, d4
         0x0073a310      43faf4b2       lea.l 0x7397c4(pc), a1
         0x0073a314      4280           clr.l d0
         0x0073a316      30314800       move.w (a1, d4.l), d0
         0x0073a31a      2e00           move.l d0, d7
         0x0073a31c      2807           move.l d7, d4
         0x0073a31e      262effea       move.l -0x16(a6), d3
         0x0073a322      4eb900406a74   jsr fcn.00406a74
         0x0073a328      7604           moveq 0x4, d3
         0x0073a32a      4e92           jsr (a2)                    ; fcn.00000009+0x2
         0x0073a32c      d8aeffda       add.l -0x26(a6), d4
         0x0073a330      3d44fff6       move.w d4, -0xa(a6)
         0x0073a334      2807           move.l d7, d4
         0x0073a336      262effee       move.l -0x12(a6), d3
         0x0073a33a      4eb900406a74   jsr fcn.00406a74
         0x0073a340      7604           moveq 0x4, d3
         0x0073a342      4e92           jsr (a2)                    ; fcn.00000009+0x2
         0x0073a344      d8aeffde       add.l -0x22(a6), d4
         0x0073a348      3d44fff8       move.w d4, -0x8(a6)
         0x0073a34c      2807           move.l d7, d4
         0x0073a34e      262efff2       move.l -0xe(a6), d3
         0x0073a352      4eb900406a74   jsr fcn.00406a74
         0x0073a358      7604           moveq 0x4, d3
         0x0073a35a      4e92           jsr (a2)                    ; fcn.00000009+0x2
         0x0073a35c      d8aeffe2       add.l -0x1e(a6), d4
         0x0073a360      3d44fffa       move.w d4, -0x6(a6)
         0x0073a364      4a2c0098       tst.b 0x98(a4)
     < 0x0073a368      6708           beq.b 0x73a372
        0x0073a36a      33c5fff840f2   move.w d5, 0xfff840f2
    < 0x0073a370      601e           bra.b 0x73a390
    > 0x0073a372      33c5fff840f0   move.w d5, 0xfff840f0
        0x0073a378      2005           move.l d5, d0
        0x0073a37a      028000000007   andi.l 0x7, d0
        0x0073a380      39400004       move.w d0, 0x4(a4)
        0x0073a384      33c0fff80040   move.w d0, 0xfff80040
        0x0073a38a      33c0fff80044   move.w d0, 0xfff80044
    > 0x0073a390      554f           subq.w 0x2, a7
        0x0073a392      4eb90051f2e4   jsr BRUSHCOM.b_brush_busy
        0x0073a398      4a1f           tst.b (a7)+
    < 0x0073a39a      671e           beq.b 0x73a3ba
       0x0073a39c      554f           subq.w 0x2, a7
       0x0073a39e      4eb900402f52   jsr p_Flagged
       0x0073a3a4      4a1f           tst.b (a7)+
   < 0x0073a3a6      6710           beq.b 0x73a3b8
      0x0073a3a8      10bc0001       move.b 0x1, (a0)
      0x0073a3ac      486c0018       pea.l 0x18(a4)
      0x0073a3b0      4eb900404468   jsr fcn.00404468
      0x0073a3b6      584f           addq.w 0x4, a7
   < 0x0073a3b8      60d6           bra.b 0x73a390
    > 0x0073a3ba      33eefff6fff8.  move.w -0xa(a6), 0xfff80006.l
         0x0073a3c2      33eefff8fff8.  move.w -0x8(a6), 0xfff80008.l
         0x0073a3ca      33eefffafff8.  move.w -0x6(a6), 0xfff80008.l
         0x0073a3d2      4279fff80000   clr.w 0xfff80000
         0x0073a3d8      5285           addq.l 0x1, d5
      < 0x0073a3da      6800ff1c       bvc.w 0x73a2f8
      > 0x0073a3de      584f           addq.w 0x4, a7
           0x0073a3e0      4cdf0ffb       movem.l (a7)+, d0-d1/d3-d7/a0-a3
           0x0073a3e4      4e5e           unlk a6
           0x0073a3e6      4e75           rts
            ; CALL XREF from GRAPHICCOM.do_graduated_re @ 0x73a610
 170: GRAPHICCOM.set_up_horiz_da ();
           0x0073a3e8      4e56e932       link.w a6, 0xe932
           0x0073a3ec      bfd5           cmpa.l (a5), a7
       < 0x0073a3ee      6206           bhi.b 0x73a3f6
          0x0073a3f0      44fc0002       move.w 0x2, ccr
          0x0073a3f4      4e76           trapv
       > 0x0073a3f6      defc0042       adda.w 0x42, a7
           0x0073a3fa      48e7dfe0       movem.l d0-d1/d3-d7/a0-a2, -(a7)
           0x0073a3fe      7e00           moveq 0x0, d7
           0x0073a400      2a2e000c       move.l 0xc(a6), d5
           0x0073a404      5385           subq.l 0x1, d5
           0x0073a406      7c00           moveq 0x0, d6
       > 0x0073a408      bc85           cmp.l d5, d6
      < 0x0073a40a      6e32           bgt.b 0x73a43e
         0x0073a40c      2006           move.l d6, d0
         0x0073a40e      e380           asl.l 0x1, d0
         0x0073a410      41eee974       lea.l -0x168c(a6), a0
         0x0073a414      2807           move.l d7, d4
         0x0073a416      2605           move.l d5, d3
         0x0073a418      4eb900406bf4   jsr fcn.00406bf4
         0x0073a41e      e38c           lsl.l 0x1, d4
         0x0073a420      43faf3a2       lea.l 0x7397c4(pc), a1
         0x0073a424      32314800       move.w (a1, d4.l), d1
         0x0073a428      c2fc00ff       mulu.w 0xff, d1
         0x0073a42c      e089           lsr.l 0x8, d1
         0x0073a42e      e489           lsr.l 0x2, d1
         0x0073a430      3181080c       move.w d1, 0xc(a0, d0.l)
         0x0073a434      068700000400   addi.l 0x400, d7
         0x0073a43a      5286           addq.l 0x1, d6
      < 0x0073a43c      68ca           bvc.b 0x73a408
      > 0x0073a43e      206e0008       movea.l 0x8(a6), a0
           0x0073a442      514f           subq.w 0x8, a7
           0x0073a444      1f3c000c       move.b 0xc, -(a7)
           0x0073a448      4eb9006336ea   jsr HANDCOM.get_area
           0x0073a44e      544f           addq.w 0x2, a7
           0x0073a450      2248           movea.l a0, a1
           0x0073a452      244f           movea.l a7, a2
           0x0073a454      7007           moveq 0x7, d0
       > 0x0073a456      12da           move.b (a2)+, (a1)+
       < 0x0073a458      51c8fffc       dbra d0, 0x73a456
           0x0073a45c      504f           addq.w 0x8, a7
           0x0073a45e      316c00940004   move.w 0x94(a4), 0x4(a0)
           0x0073a464      1f3c0004       move.b 0x4, -(a7)
           0x0073a468      4227           clr.b -(a7)
           0x0073a46a      1f3c0001       move.b 0x1, -(a7)
           0x0073a46e      514f           subq.w 0x8, a7
           0x0073a470      224f           movea.l a7, a1
           0x0073a472      7007           moveq 0x7, d0
       > 0x0073a474      12d8           move.b (a0)+, (a1)+
       < 0x0073a476      51c8fffc       dbra d0, 0x73a474
           0x0073a47a      41eee980       lea.l -0x1680(a6), a0
           0x0073a47e      2f08           move.l a0, -(a7)
           0x0073a480      4eb900521974   jsr BRUSHCOM.br_computer_tra
           0x0073a486      defc0012       adda.w 0x12, a7
           0x0073a48a      4cdf07fb       movem.l (a7)+, d0-d1/d3-d7/a0-a2
           0x0073a48e      4e5e           unlk a6
           0x0073a490      4e75           rts
            ; CALL XREF from GRAPHICCOM.do_graduated_re @ 0x73a798
 122: GRAPHICCOM.do_horiz_method ();
           0x0073a492      4e56ffd4       link.w a6, 0xffd4
           0x0073a496      bfd5           cmpa.l (a5), a7
       < 0x0073a498      6206           bhi.b 0x73a4a0
          0x0073a49a      44fc0002       move.w 0x2, ccr
          0x0073a49e      4e76           trapv
       > 0x0073a4a0      defc0020       adda.w 0x20, a7
           0x0073a4a4      48e78380       movem.l d0/d6-d7/a0, -(a7)
           0x0073a4a8      2c2e000c       move.l 0xc(a6), d6
           0x0073a4ac      5286           addq.l 0x1, d6
           0x0073a4ae      202e000c       move.l 0xc(a6), d0
           0x0073a4b2      d0ae0008       add.l 0x8(a6), d0
           0x0073a4b6      2d40fffc       move.l d0, -0x4(a6)
           0x0073a4ba      4a86           tst.l d6
       < 0x0073a4bc      6c02           bge.b 0x73a4c0
          0x0073a4be      7c00           moveq 0x0, d6
       > 0x0073a4c0      206c0072       movea.l 0x72(a4), a0
           0x0073a4c4      2e06           move.l d6, d7
       > 0x0073a4c6      be80           cmp.l d0, d7
      < 0x0073a4c8      6e3a           bgt.b 0x73a504
         0x0073a4ca      33c7fff840f2   move.w d7, 0xfff840f2
     > 0x0073a4d0      554f           subq.w 0x2, a7
        0x0073a4d2      4eb90051f2e4   jsr BRUSHCOM.b_brush_busy
        0x0073a4d8      4a1f           tst.b (a7)+
    < 0x0073a4da      671e           beq.b 0x73a4fa
       0x0073a4dc      554f           subq.w 0x2, a7
       0x0073a4de      4eb900402f52   jsr p_Flagged
       0x0073a4e4      4a1f           tst.b (a7)+
   < 0x0073a4e6      6710           beq.b 0x73a4f8
      0x0073a4e8      10bc0001       move.b 0x1, (a0)
      0x0073a4ec      486c0018       pea.l 0x18(a4)
      0x0073a4f0      4eb900404468   jsr fcn.00404468
      0x0073a4f6      584f           addq.w 0x4, a7
   < 0x0073a4f8      60d6           bra.b 0x73a4d0
    > 0x0073a4fa      4279fff80000   clr.w 0xfff80000
         0x0073a500      5287           addq.l 0x1, d7
      < 0x0073a502      68c2           bvc.b 0x73a4c6
      > 0x0073a504      4cdf01c1       movem.l (a7)+, d0/d6-d7/a0
           0x0073a508      4e5e           unlk a6
           0x0073a50a      4e75           rts
 722: GRAPHICCOM.do_graduated_re (int32_t arg_18h, int32_t arg_1eh, int32_t arg_28h);
           ; arg int32_t arg_18h @ a6+0x18
           ; arg int32_t arg_1eh @ a6+0x1e
           ; arg int32_t arg_28h @ a6+0x28
           0x0073a50c      4e56ff46       link.w a6, 0xff46
           0x0073a510      bfd5           cmpa.l (a5), a7
       < 0x0073a512      6206           bhi.b 0x73a51a
          0x0073a514      44fc0002       move.w 0x2, ccr
          0x0073a518      4e76           trapv
       > 0x0073a51a      defc0050       adda.w 0x50, a7
           0x0073a51e      48e7fff8       movem.l d0-d7/a0-a4, -(a7)
           0x0073a522      41ee002a       lea.l 0x2a(a6), a0
           0x0073a526      43eeffa2       lea.l -0x5e(a6), a1
           0x0073a52a      45ee0026       lea.l 0x26(a6), a2
           0x0073a52e      47eeff9c       lea.l -0x64(a6), a3
           0x0073a532      7401           moveq 0x1, d2
           0x0073a534      7603           moveq 0x3, d3
           0x0073a536      7802           moveq 0x2, d4
           0x0073a538      7e00           moveq 0x0, d7
           0x0073a53a      4a2e002e       tst.b 0x2e(a6)
       < 0x0073a53e      6618           bne.b 0x73a558
          0x0073a540      554f           subq.w 0x2, a7
          0x0073a542      4eb900523ca0   jsr BRUSHCOM.b_8m_disk_store
          0x0073a548      4a1f           tst.b (a7)+
      < 0x0073a54a      670e           beq.b 0x73a55a
         0x0073a54c      102e0024       move.b 0x24(a6), d0
         0x0073a550      4880           ext.w d0
         0x0073a552      013afa72       btst.l d0, 0x739fc6(pc)
     < 0x0073a556      6702           beq.b 0x73a55a
     > 0x0073a558      5207           addq.b 0x1, d7
     > 0x0073a55a      554f           subq.w 0x2, a7
           0x0073a55c      486effae       pea.l -0x52(a6)
           0x0073a560      4eb900404434   jsr fcn.00404434
           0x0073a566      584f           addq.w 0x4, a7
           0x0073a568      4a1f           tst.b (a7)+
       < 0x0073a56a      6700026a       beq.w 0x73a7d6
          0x0073a56e      302e002c       move.w 0x2c(a6), d0
          0x0073a572      b042           cmp.w d2, d0
      < 0x0073a574      6f000260       ble.w 0x73a7d6
         0x0073a578      3210           move.w (a0), d1
         0x0073a57a      b242           cmp.w d2, d1
     < 0x0073a57c      6f000258       ble.w 0x73a7d6
        0x0073a580      4a2e0010       tst.b 0x10(a6)
    < 0x0073a584      6716           beq.b 0x73a59c
       0x0073a586      26ae001a       move.l 0x1a(a6), (a3)
       0x0073a58a      3d6e001effa0   move.w 0x1e(a6), -0x60(a6)
       0x0073a590      22ae0014       move.l 0x14(a6), (a1)
       0x0073a594      3d6e0018ffa6   move.w 0x18(a6), -0x5a(a6)
   < 0x0073a59a      6014           bra.b 0x73a5b0
   > 0x0073a59c      26ae0014       move.l 0x14(a6), (a3)
       0x0073a5a0      3d6e0018ffa0   move.w 0x18(a6), -0x60(a6)
       0x0073a5a6      22ae001a       move.l 0x1a(a6), (a1)
       0x0073a5aa      3d6e001effa6   move.w 0x1e(a6), -0x5a(a6)
   > 0x0073a5b0      4a2e0022       tst.b 0x22(a6)
    < 0x0073a5b4      6606           bne.b 0x73a5bc
       0x0073a5b6      4a2e0020       tst.b 0x20(a6)
   < 0x0073a5ba      6710           beq.b 0x73a5cc
   > 0x0073a5bc      4853           pea.l (a3)
       0x0073a5be      4ebafc44       jsr GRAPHICCOM.stretch(pc)
       0x0073a5c2      584f           addq.w 0x4, a7
       0x0073a5c4      4851           pea.l (a1)
       0x0073a5c6      4ebafc3c       jsr GRAPHICCOM.stretch(pc)
       0x0073a5ca      584f           addq.w 0x4, a7
   > 0x0073a5cc      322e0028       move.w 0x28(a6), d1
        0x0073a5d0      48c1           ext.l d1
        0x0073a5d2      5281           addq.l 0x1, d1
        0x0073a5d4      3a01           move.w d1, d5
        0x0073a5d6      48c0           ext.l d0
        0x0073a5d8      2200           move.l d0, d1
        0x0073a5da      5381           subq.l 0x1, d1
        0x0073a5dc      3c01           move.w d1, d6
        0x0073a5de      4a2e002e       tst.b 0x2e(a6)
    < 0x0073a5e2      6706           beq.b 0x73a5ea
       0x0073a5e4      3d42002c       move.w d2, 0x2c(a6)
   < 0x0073a5e8      602c           bra.b 0x73a616
   > 0x0073a5ea      4a07           tst.b d7
   < 0x0073a5ec      6714           beq.b 0x73a602
      0x0073a5ee      3212           move.w (a2), d1
      0x0073a5f0      48c1           ext.l d1
      0x0073a5f2      5281           addq.l 0x1, d1
      0x0073a5f4      3a01           move.w d1, d5
      0x0073a5f6      3210           move.w (a0), d1
      0x0073a5f8      48c1           ext.l d1
      0x0073a5fa      5381           subq.l 0x1, d1
      0x0073a5fc      3c01           move.w d1, d6
      0x0073a5fe      3082           move.w d2, (a0)
  < 0x0073a600      6014           bra.b 0x73a616
  > 0x0073a602      3210           move.w (a0), d1
      0x0073a604      48c1           ext.l d1
      0x0073a606      2f01           move.l d1, -(a7)
      0x0073a608      486efff8       pea.l -0x8(a6)
      0x0073a60c      49eeff96       lea.l -0x6a(a6), a4
      0x0073a610      4ebafdd6       jsr GRAPHICCOM.set_up_horiz_da(pc)
      0x0073a614      504f           addq.w 0x8, a7
  > 0x0073a616      3d52ffa8       move.w (a2), -0x58(a6)
        0x0073a61a      3d6e0028ffaa   move.w 0x28(a6), -0x56(a6)
        0x0073a620      3f3c4000       move.w 0x4000, -(a7)
        0x0073a624      4eb900521034   jsr BRUSHCOM.br_pressure
        0x0073a62a      3ebaf0f4       move.w 0x739720(pc), (a7)
        0x0073a62e      2f2eff9e       move.l -0x62(a6), -(a7)
        0x0073a632      3f13           move.w (a3), -(a7)
        0x0073a634      4eb900520fe8   jsr BRUSHCOM.set_br_key_colo
        0x0073a63a      504f           addq.w 0x8, a7
        0x0073a63c      122e0024       move.b 0x24(a6), d1
        0x0073a640      b204           cmp.b d4, d1
    < 0x0073a642      676a           beq.b 0x73a6ae
       0x0073a644      4a2e0022       tst.b 0x22(a6)
   < 0x0073a648      6606           bne.b 0x73a650
      0x0073a64a      4a2e0020       tst.b 0x20(a6)
  < 0x0073a64e      672e           beq.b 0x73a67e
  > 0x0073a650      1f03           move.b d3, -(a7)
      0x0073a652      1f02           move.b d2, -(a7)
      0x0073a654      2f10           move.l (a0), -(a7)
      0x0073a656      2f12           move.l (a2), -(a7)
      0x0073a658      4eb9005213b4   jsr BRUSHCOM.br_wipe
      0x0073a65e      defc000c       adda.w 0xc, a7
      0x0073a662      4a07           tst.b d7
  < 0x0073a664      660000fc       bne.w 0x73a762
     0x0073a668      2f2effa4       move.l -0x5c(a6), -(a7)
     0x0073a66c      3f11           move.w (a1), -(a7)
     0x0073a66e      4eb900520fa4   jsr BRUSHCOM.set_br_colour
     0x0073a674      584f           addq.w 0x4, a7
     0x0073a676      1e83           move.b d3, (a7)
     0x0073a678      1f02           move.b d2, -(a7)
 < 0x0073a67a      600000ca       bra.w 0x73a746
 > 0x0073a67e      1f03           move.b d3, -(a7)
     0x0073a680      1f3c0004       move.b 0x4, -(a7)
     0x0073a684      2f10           move.l (a0), -(a7)
     0x0073a686      2f12           move.l (a2), -(a7)
     0x0073a688      4eb9005213b4   jsr BRUSHCOM.br_wipe
     0x0073a68e      defc000c       adda.w 0xc, a7
     0x0073a692      4a07           tst.b d7
 < 0x0073a694      660000cc       bne.w 0x73a762
    0x0073a698      2f2effa4       move.l -0x5c(a6), -(a7)
    0x0073a69c      3f11           move.w (a1), -(a7)
    0x0073a69e      4eb900520fa4   jsr BRUSHCOM.set_br_colour
    0x0073a6a4      584f           addq.w 0x4, a7
    0x0073a6a6      1e83           move.b d3, (a7)
    0x0073a6a8      4227           clr.b -(a7)
 < 0x0073a6aa      6000009a       bra.w 0x73a746
 > 0x0073a6ae      4a2e0012       tst.b 0x12(a6)
 < 0x0073a6b2      6762           beq.b 0x73a716
    0x0073a6b4      4a2e0022       tst.b 0x22(a6)
 < 0x0073a6b8      665c           bne.b 0x73a716
    0x0073a6ba      4a07           tst.b d7
 < 0x0073a6bc      6720           beq.b 0x73a6de
    0x0073a6be      1f2e000e       move.b 0xe(a6), -(a7)
    0x0073a6c2      1f2e000c       move.b 0xc(a6), -(a7)
    0x0073a6c6      2f10           move.l (a0), -(a7)
    0x0073a6c8      2f12           move.l (a2), -(a7)
    0x0073a6ca      2f2effa8       move.l -0x58(a6), -(a7)
    0x0073a6ce      1f04           move.b d4, -(a7)
    0x0073a6d0      4227           clr.b -(a7)
    0x0073a6d2      1f02           move.b d2, -(a7)
    0x0073a6d4      4eb9005233f0   jsr BRUSHCOM.br_paste
 < 0x0073a6da      60000082       bra.w 0x73a75e
 > 0x0073a6de      1f03           move.b d3, -(a7)
    0x0073a6e0      1f2e000c       move.b 0xc(a6), -(a7)
    0x0073a6e4      2f10           move.l (a0), -(a7)
    0x0073a6e6      2f12           move.l (a2), -(a7)
    0x0073a6e8      2f2effa8       move.l -0x58(a6), -(a7)
    0x0073a6ec      1f04           move.b d4, -(a7)
    0x0073a6ee      4227           clr.b -(a7)
    0x0073a6f0      1f02           move.b d2, -(a7)
    0x0073a6f2      4eb9005233f0   jsr BRUSHCOM.br_paste
    0x0073a6f8      defc0012       adda.w 0x12, a7
    0x0073a6fc      2eaeffa4       move.l -0x5c(a6), (a7)
    0x0073a700      3f11           move.w (a1), -(a7)
    0x0073a702      4eb900520fa4   jsr BRUSHCOM.set_br_colour
    0x0073a708      584f           addq.w 0x4, a7
    0x0073a70a      1e83           move.b d3, (a7)
    0x0073a70c      1f2e000c       move.b 0xc(a6), -(a7)
    0x0073a710      4227           clr.b -(a7)
    0x0073a712      1f02           move.b d2, -(a7)
 < 0x0073a714      6034           bra.b 0x73a74a
 > 0x0073a716      1f2e000e       move.b 0xe(a6), -(a7)
     0x0073a71a      1f2e000c       move.b 0xc(a6), -(a7)
     0x0073a71e      2f10           move.l (a0), -(a7)
     0x0073a720      2f12           move.l (a2), -(a7)
     0x0073a722      4eb9005213b4   jsr BRUSHCOM.br_wipe
     0x0073a728      defc000c       adda.w 0xc, a7
     0x0073a72c      4a07           tst.b d7
 < 0x0073a72e      6632           bne.b 0x73a762
    0x0073a730      2f2effa4       move.l -0x5c(a6), -(a7)
    0x0073a734      3f11           move.w (a1), -(a7)
    0x0073a736      4eb900520fa4   jsr BRUSHCOM.set_br_colour
    0x0073a73c      584f           addq.w 0x4, a7
    0x0073a73e      1eae000e       move.b 0xe(a6), (a7)
    0x0073a742      1f2e000c       move.b 0xc(a6), -(a7)
 > 0x0073a746      4227           clr.b -(a7)
     0x0073a748      4227           clr.b -(a7)
 > 0x0073a74a      4227           clr.b -(a7)
     0x0073a74c      2f2efffc       move.l -0x4(a6), -(a7)
     0x0073a750      2f2efff8       move.l -0x8(a6), -(a7)
     0x0073a754      2f2effa8       move.l -0x58(a6), -(a7)
     0x0073a758      4eb900522da0   jsr BRUSHCOM.br_any_stamp
 > 0x0073a75e      defc0016       adda.w 0x16, a7
  > 0x0073a762      4a07           tst.b d7
    < 0x0073a764      6722           beq.b 0x73a788
       0x0073a766      2f2eff9e       move.l -0x62(a6), -(a7)
       0x0073a76a      3f13           move.w (a3), -(a7)
       0x0073a76c      2f2effa4       move.l -0x5c(a6), -(a7)
       0x0073a770      3f11           move.w (a1), -(a7)
       0x0073a772      48c5           ext.l d5
       0x0073a774      2f05           move.l d5, -(a7)
       0x0073a776      48c6           ext.l d6
       0x0073a778      2f06           move.l d6, -(a7)
       0x0073a77a      49eeff96       lea.l -0x6a(a6), a4
       0x0073a77e      4ebafaf2       jsr GRAPHICCOM.do_vert_method(pc)
       0x0073a782      defc0014       adda.w 0x14, a7
   < 0x0073a786      6016           bra.b 0x73a79e
   > 0x0073a788      322e0028       move.w 0x28(a6), d1
       0x0073a78c      48c1           ext.l d1
       0x0073a78e      2f01           move.l d1, -(a7)
       0x0073a790      48c6           ext.l d6
       0x0073a792      2f06           move.l d6, -(a7)
       0x0073a794      49eeff96       lea.l -0x6a(a6), a4
       0x0073a798      4ebafcf8       jsr GRAPHICCOM.do_horiz_method(pc)
       0x0073a79c      504f           addq.w 0x8, a7
   > 0x0073a79e      122e0024       move.b 0x24(a6), d1
        0x0073a7a2      b204           cmp.b d4, d1
    < 0x0073a7a4      6630           bne.b 0x73a7d6
       0x0073a7a6      4a2e0012       tst.b 0x12(a6)
   < 0x0073a7aa      672a           beq.b 0x73a7d6
      0x0073a7ac      4a2e0022       tst.b 0x22(a6)
  < 0x0073a7b0      6624           bne.b 0x73a7d6
     0x0073a7b2      4a07           tst.b d7
 < 0x0073a7b4      6620           bne.b 0x73a7d6
    0x0073a7b6      1f2e000e       move.b 0xe(a6), -(a7)
    0x0073a7ba      1f2e000c       move.b 0xc(a6), -(a7)
    0x0073a7be      2f10           move.l (a0), -(a7)
    0x0073a7c0      2f12           move.l (a2), -(a7)
    0x0073a7c2      2f2effa8       move.l -0x58(a6), -(a7)
    0x0073a7c6      1f04           move.b d4, -(a7)
    0x0073a7c8      4227           clr.b -(a7)
    0x0073a7ca      4227           clr.b -(a7)
    0x0073a7cc      4eb9005233f0   jsr BRUSHCOM.br_paste
    0x0073a7d2      defc0016       adda.w 0x16, a7
 > 0x0073a7d6      4cdf1fff       movem.l (a7)+, d0-d7/a0-a4
           0x0073a7da      4e5e           unlk a6
           0x0073a7dc      4e75           rts
            ; CALL XREF from GRAPHICCOM.do_solid_rectan @ 0x73aa20
 76: GRAPHICCOM.rubber_solid_re ();
           0x0073a7de      4e56fff0       link.w a6, 0xfff0
           0x0073a7e2      bfd5           cmpa.l (a5), a7
       < 0x0073a7e4      6206           bhi.b 0x73a7ec
          0x0073a7e6      44fc0002       move.w 0x2, ccr
          0x0073a7ea      4e76           trapv
       > 0x0073a7ec      defc0010       adda.w 0x10, a7
           0x0073a7f0      2f2e0012       move.l 0x12(a6), -(a7)
           0x0073a7f4      3f2e0010       move.w 0x10(a6), -(a7)
           0x0073a7f8      4eb900520fa4   jsr BRUSHCOM.set_br_colour
           0x0073a7fe      5c4f           addq.w 0x6, a7
           0x0073a800      4a6e000c       tst.w 0xc(a6)
       < 0x0073a804      6f20           ble.b 0x73a826
          0x0073a806      4a6e000e       tst.w 0xe(a6)
      < 0x0073a80a      6f1a           ble.b 0x73a826
         0x0073a80c      1f3c0003       move.b 0x3, -(a7)
         0x0073a810      1f3c0001       move.b 0x1, -(a7)
         0x0073a814      2f2e000c       move.l 0xc(a6), -(a7)
         0x0073a818      2f2e0008       move.l 0x8(a6), -(a7)
         0x0073a81c      4eb9005213b4   jsr BRUSHCOM.br_wipe
         0x0073a822      defc000c       adda.w 0xc, a7
      > 0x0073a826      4e5e           unlk a6
           0x0073a828      4e75           rts
            ; CALL XREF from GRAPHICCOM.do_solid_rectan @ 0x73aa38
 76: GRAPHICCOM.preview_solid_r ();
           0x0073a82a      4e56fff0       link.w a6, 0xfff0
           0x0073a82e      bfd5           cmpa.l (a5), a7
       < 0x0073a830      6206           bhi.b 0x73a838
          0x0073a832      44fc0002       move.w 0x2, ccr
          0x0073a836      4e76           trapv
       > 0x0073a838      defc0010       adda.w 0x10, a7
           0x0073a83c      2f3aeee4       move.l 0x739722(pc), -(a7)
           0x0073a840      3f3aeede       move.w 0x739720(pc), -(a7)
           0x0073a844      4eb900520fa4   jsr BRUSHCOM.set_br_colour
           0x0073a84a      5c4f           addq.w 0x6, a7
           0x0073a84c      4a6e000c       tst.w 0xc(a6)
       < 0x0073a850      6f20           ble.b 0x73a872
          0x0073a852      4a6e000e       tst.w 0xe(a6)
      < 0x0073a856      6f1a           ble.b 0x73a872
         0x0073a858      1f3c0003       move.b 0x3, -(a7)
         0x0073a85c      1f3c0001       move.b 0x1, -(a7)
         0x0073a860      2f2e000c       move.l 0xc(a6), -(a7)
         0x0073a864      2f2e0008       move.l 0x8(a6), -(a7)
         0x0073a868      4eb9005213b4   jsr BRUSHCOM.br_wipe
         0x0073a86e      defc000c       adda.w 0xc, a7
      > 0x0073a872      4e5e           unlk a6
           0x0073a874      4e75           rts
            ; CALL XREF from GRAPHICCOM.do_solid_rectan @ 0x73aa54
 378: GRAPHICCOM.doit_solid_rect (int32_t arg_12h);
           ; arg int32_t arg_12h @ a6+0x12
           0x0073a876      4e56ff96       link.w a6, 0xff96
           0x0073a87a      bfd5           cmpa.l (a5), a7
       < 0x0073a87c      6206           bhi.b 0x73a884
          0x0073a87e      44fc0002       move.w 0x2, ccr
          0x0073a882      4e76           trapv
       > 0x0073a884      defc0054       adda.w 0x54, a7
           0x0073a888      48e7fff8       movem.l d0-d7/a0-a4, -(a7)
           0x0073a88c      41ee0014       lea.l 0x14(a6), a0
           0x0073a890      43ee0010       lea.l 0x10(a6), a1
           0x0073a894      45ee0008       lea.l 0x8(a6), a2
           0x0073a898      47ee000a       lea.l 0xa(a6), a3
           0x0073a89c      49eefff8       lea.l -0x8(a6), a4
           0x0073a8a0      283cffff8000   move.l 0xffff8000, d4
           0x0073a8a6      7a02           moveq 0x2, d5
           0x0073a8a8      7c01           moveq 0x1, d6
           0x0073a8aa      2e3c0000ffff   move.l 0xffff, d7
           0x0073a8b0      4a2e000e       tst.b 0xe(a6)
       < 0x0073a8b4      6748           beq.b 0x73a8fe
          0x0073a8b6      4a2e000c       tst.b 0xc(a6)
      < 0x0073a8ba      6642           bne.b 0x73a8fe
         0x0073a8bc      3d51ffea       move.w (a1), -0x16(a6)
         0x0073a8c0      3d6e0012ffec   move.w 0x12(a6), -0x14(a6)
         0x0073a8c6      3f3c4000       move.w 0x4000, -(a7)
         0x0073a8ca      4eb900521034   jsr BRUSHCOM.br_pressure
         0x0073a8d0      544f           addq.w 0x2, a7
         0x0073a8d2      1013           move.b (a3), d0
         0x0073a8d4      4880           ext.w d0
         0x0073a8d6      5340           subq.w 0x1, d0
         0x0073a8d8      41bc0008       chk.w 0x8, d0
         0x0073a8dc      5240           addq.w 0x1, d0
         0x0073a8de      1f00           move.b d0, -(a7)
         0x0073a8e0      1f12           move.b (a2), -(a7)
         0x0073a8e2      2f10           move.l (a0), -(a7)
         0x0073a8e4      2f11           move.l (a1), -(a7)
         0x0073a8e6      2f2effea       move.l -0x16(a6), -(a7)
         0x0073a8ea      1f05           move.b d5, -(a7)
         0x0073a8ec      4227           clr.b -(a7)
         0x0073a8ee      1f06           move.b d6, -(a7)
         0x0073a8f0      4eb9005233f0   jsr BRUSHCOM.br_paste
         0x0073a8f6      defc0016       adda.w 0x16, a7
     < 0x0073a8fa      600000ec       bra.w 0x73a9e8
     > 0x0073a8fe      4a12           tst.b (a2)
      < 0x0073a900      670a           beq.b 0x73a90c
         0x0073a902      1012           move.b (a2), d0
         0x0073a904      0c000003       cmpi.b 0x3, d0
     < 0x0073a908      660000cc       bne.w 0x73a9d6
     > 0x0073a90c      7000           moveq 0x0, d0
         0x0073a90e      3211           move.w (a1), d1
         0x0073a910      08010000       btst.b 0x0, d1
     < 0x0073a914      6702           beq.b 0x73a918
        0x0073a916      5200           addq.b 0x1, d0
     > 0x0073a918      1d40ffee       move.b d0, -0x12(a6)
         0x0073a91c      2d51fff0       move.l (a1), -0x10(a6)
         0x0073a920      2d50fff4       move.l (a0), -0xc(a6)
         0x0073a924      7200           moveq 0x0, d1
         0x0073a926      3411           move.w (a1), d2
         0x0073a928      48c2           ext.l d2
         0x0073a92a      3610           move.w (a0), d3
         0x0073a92c      48c3           ext.l d3
         0x0073a92e      d682           add.l d2, d3
         0x0073a930      08030000       btst.b 0x0, d3
     < 0x0073a934      6702           beq.b 0x73a938
        0x0073a936      5201           addq.b 0x1, d1
     > 0x0073a938      1d41ffef       move.b d1, -0x11(a6)
         0x0073a93c      2891           move.l (a1), (a4)
         0x0073a93e      2d50fffc       move.l (a0), -0x4(a6)
         0x0073a942      4a00           tst.b d0
     < 0x0073a944      6740           beq.b 0x73a986
        0x0073a946      4a12           tst.b (a2)
    < 0x0073a948      663c           bne.b 0x73a986
       0x0073a94a      3d46fff4       move.w d6, -0xc(a6)
       0x0073a94e      2002           move.l d2, d0
       0x0073a950      5280           addq.l 0x1, d0
       0x0073a952      9084           sub.l d4, d0
       0x0073a954      b087           cmp.l d7, d0
   < 0x0073a956      6302           bls.b 0x73a95a
      0x0073a958      4e4f           trap 0xf
   > 0x0073a95a      d084           add.l d4, d0
       0x0073a95c      3280           move.w d0, (a1)
       0x0073a95e      3010           move.w (a0), d0
       0x0073a960      48c0           ext.l d0
       0x0073a962      5380           subq.l 0x1, d0
       0x0073a964      9084           sub.l d4, d0
       0x0073a966      b087           cmp.l d7, d0
   < 0x0073a968      6302           bls.b 0x73a96c
      0x0073a96a      4e4f           trap 0xf
   > 0x0073a96c      d084           add.l d4, d0
       0x0073a96e      3080           move.w d0, (a0)
       0x0073a970      1f13           move.b (a3), -(a7)
       0x0073a972      1f05           move.b d5, -(a7)
       0x0073a974      2f2efff4       move.l -0xc(a6), -(a7)
       0x0073a978      2f2efff0       move.l -0x10(a6), -(a7)
       0x0073a97c      4eb9005213b4   jsr BRUSHCOM.br_wipe
       0x0073a982      defc000c       adda.w 0xc, a7
    > 0x0073a986      4a01           tst.b d1
     < 0x0073a988      6748           beq.b 0x73a9d2
        0x0073a98a      4a12           tst.b (a2)
    < 0x0073a98c      6644           bne.b 0x73a9d2
       0x0073a98e      3014           move.w (a4), d0
       0x0073a990      48c0           ext.l d0
       0x0073a992      322efffc       move.w -0x4(a6), d1
       0x0073a996      48c1           ext.l d1
       0x0073a998      d280           add.l d0, d1
       0x0073a99a      5381           subq.l 0x1, d1
       0x0073a99c      9284           sub.l d4, d1
       0x0073a99e      b287           cmp.l d7, d1
   < 0x0073a9a0      6302           bls.b 0x73a9a4
      0x0073a9a2      4e4f           trap 0xf
   > 0x0073a9a4      d284           add.l d4, d1
       0x0073a9a6      3881           move.w d1, (a4)
       0x0073a9a8      3d46fffc       move.w d6, -0x4(a6)
       0x0073a9ac      3010           move.w (a0), d0
       0x0073a9ae      48c0           ext.l d0
       0x0073a9b0      5380           subq.l 0x1, d0
       0x0073a9b2      9084           sub.l d4, d0
       0x0073a9b4      b087           cmp.l d7, d0
   < 0x0073a9b6      6302           bls.b 0x73a9ba
      0x0073a9b8      4e4f           trap 0xf
   > 0x0073a9ba      d084           add.l d4, d0
       0x0073a9bc      3080           move.w d0, (a0)
       0x0073a9be      1f13           move.b (a3), -(a7)
       0x0073a9c0      1f05           move.b d5, -(a7)
       0x0073a9c2      2f2efffc       move.l -0x4(a6), -(a7)
       0x0073a9c6      2f14           move.l (a4), -(a7)
       0x0073a9c8      4eb9005213b4   jsr BRUSHCOM.br_wipe
       0x0073a9ce      defc000c       adda.w 0xc, a7
    > 0x0073a9d2      4a50           tst.w (a0)
     < 0x0073a9d4      6f12           ble.b 0x73a9e8
     > 0x0073a9d6      1f13           move.b (a3), -(a7)
         0x0073a9d8      1f12           move.b (a2), -(a7)
         0x0073a9da      2f10           move.l (a0), -(a7)
         0x0073a9dc      2f11           move.l (a1), -(a7)
         0x0073a9de      4eb9005213b4   jsr BRUSHCOM.br_wipe
         0x0073a9e4      defc000c       adda.w 0xc, a7
     > 0x0073a9e8      4cdf1fff       movem.l (a7)+, d0-d7/a0-a4
           0x0073a9ec      4e5e           unlk a6
           0x0073a9ee      4e75           rts
 116: GRAPHICCOM.do_solid_rectan ();
           0x0073a9f0      4e56ffe0       link.w a6, 0xffe0
           0x0073a9f4      bfd5           cmpa.l (a5), a7
       < 0x0073a9f6      6206           bhi.b 0x73a9fe
          0x0073a9f8      44fc0002       move.w 0x2, ccr
          0x0073a9fc      4e76           trapv
       > 0x0073a9fe      defc0020       adda.w 0x20, a7
           0x0073aa02      48e780c0       movem.l d0/a0-a1, -(a7)
           0x0073aa06      41ee001c       lea.l 0x1c(a6), a0
           0x0073aa0a      43ee0018       lea.l 0x18(a6), a1
           0x0073aa0e      4a2e0016       tst.b 0x16(a6)
       < 0x0073aa12      6616           bne.b 0x73aa2a
          0x0073aa14      2f2e0012       move.l 0x12(a6), -(a7)
          0x0073aa18      3f2e0010       move.w 0x10(a6), -(a7)
          0x0073aa1c      2f10           move.l (a0), -(a7)
          0x0073aa1e      2f11           move.l (a1), -(a7)
          0x0073aa20      4ebafdbc       jsr GRAPHICCOM.rubber_solid_re(pc)
          0x0073aa24      defc000e       adda.w 0xe, a7
      < 0x0073aa28      6032           bra.b 0x73aa5c
      > 0x0073aa2a      102e0016       move.b 0x16(a6), d0
          0x0073aa2e      0c000001       cmpi.b 0x1, d0
      < 0x0073aa32      660c           bne.b 0x73aa40
         0x0073aa34      2f10           move.l (a0), -(a7)
         0x0073aa36      2f11           move.l (a1), -(a7)
         0x0073aa38      4ebafdf0       jsr GRAPHICCOM.preview_solid_r(pc)
         0x0073aa3c      504f           addq.w 0x8, a7
     < 0x0073aa3e      601c           bra.b 0x73aa5c
     > 0x0073aa40      2f10           move.l (a0), -(a7)
         0x0073aa42      2f11           move.l (a1), -(a7)
         0x0073aa44      1f2e000a       move.b 0xa(a6), -(a7)
         0x0073aa48      1f2e0008       move.b 0x8(a6), -(a7)
         0x0073aa4c      1f2e000e       move.b 0xe(a6), -(a7)
         0x0073aa50      1f2e000c       move.b 0xc(a6), -(a7)
         0x0073aa54      4ebafe20       jsr GRAPHICCOM.doit_solid_rect(pc)
         0x0073aa58      defc0010       adda.w 0x10, a7
     > 0x0073aa5c      4cdf0301       movem.l (a7)+, d0/a0-a1
           0x0073aa60      4e5e           unlk a6
           0x0073aa62      4e75           rts
            ; CALL XREF from GRAPHICCOM.do_solid_ellips @ 0x73ad90
 112: GRAPHICCOM.preview_wipe ();
           0x0073aa64      4e56ffe0       link.w a6, 0xffe0
           0x0073aa68      bfd5           cmpa.l (a5), a7
       < 0x0073aa6a      6206           bhi.b 0x73aa72
          0x0073aa6c      44fc0002       move.w 0x2, ccr
          0x0073aa70      4e76           trapv
       > 0x0073aa72      defc0020       adda.w 0x20, a7
           0x0073aa76      48e7f000       movem.l d0-d3, -(a7)
           0x0073aa7a      7203           moveq 0x3, d1
           0x0073aa7c      7401           moveq 0x1, d2
           0x0073aa7e      760c           moveq 0xc, d3
           0x0073aa80      1f01           move.b d1, -(a7)
           0x0073aa82      1f02           move.b d2, -(a7)
           0x0073aa84      2f2e0014       move.l 0x14(a6), -(a7)
           0x0073aa88      2f2e0010       move.l 0x10(a6), -(a7)
           0x0073aa8c      4eb9005213b4   jsr BRUSHCOM.br_wipe
           0x0073aa92      dec3           adda.w d3, a7
           0x0073aa94      4aae000c       tst.l 0xc(a6)
       < 0x0073aa98      6f32           ble.b 0x73aacc
          0x0073aa9a      202e0008       move.l 0x8(a6), d0
          0x0073aa9e      0480ffff8000   subi.l 0xffff8000, d0
          0x0073aaa4      0c800000ffff   cmpi.l 0xffff, d0
      < 0x0073aaaa      6302           bls.b 0x73aaae
         0x0073aaac      4e4f           trap 0xf
      > 0x0073aaae      0680ffff8000   addi.l 0xffff8000, d0
          0x0073aab4      3d400012       move.w d0, 0x12(a6)
          0x0073aab8      1f01           move.b d1, -(a7)
          0x0073aaba      1f02           move.b d2, -(a7)
          0x0073aabc      2f2e0014       move.l 0x14(a6), -(a7)
          0x0073aac0      2f2e0010       move.l 0x10(a6), -(a7)
          0x0073aac4      4eb9005213b4   jsr BRUSHCOM.br_wipe
          0x0073aaca      dec3           adda.w d3, a7
       > 0x0073aacc      4cdf000f       movem.l (a7)+, d0-d3
           0x0073aad0      4e5e           unlk a6
           0x0073aad2      4e75           rts
            ; CALL XREF from GRAPHICCOM.do_solid_ellips @ 0x73adb6
 238: GRAPHICCOM.doit_wipe ();
           0x0073aad4      4e56ffb0       link.w a6, 0xffb0
           0x0073aad8      bfd5           cmpa.l (a5), a7
       < 0x0073aada      6206           bhi.b 0x73aae2
          0x0073aadc      44fc0002       move.w 0x2, ccr
          0x0073aae0      4e76           trapv
       > 0x0073aae2      defc004c       adda.w 0x4c, a7
           0x0073aae6      48e7fef8       movem.l d0-d6/a0-a4, -(a7)
           0x0073aaea      41ee0018       lea.l 0x18(a6), a0
           0x0073aaee      43ee0008       lea.l 0x8(a6), a1
           0x0073aaf2      45ee001c       lea.l 0x1c(a6), a2
           0x0073aaf6      47eefffc       lea.l -0x4(a6), a3
           0x0073aafa      49ee001a       lea.l 0x1a(a6), a4
           0x0073aafe      243cffff8000   move.l 0xffff8000, d2
           0x0073ab04      7602           moveq 0x2, d3
           0x0073ab06      7801           moveq 0x1, d4
           0x0073ab08      7a16           moveq 0x16, d5
           0x0073ab0a      7c0c           moveq 0xc, d6
           0x0073ab0c      4a2e000e       tst.b 0xe(a6)
       < 0x0073ab10      676a           beq.b 0x73ab7c
          0x0073ab12      4a2e000c       tst.b 0xc(a6)
      < 0x0073ab16      6664           bne.b 0x73ab7c
         0x0073ab18      3690           move.w (a0), (a3)
         0x0073ab1a      3d54fffe       move.w (a4), -0x2(a6)
         0x0073ab1e      102e000a       move.b 0xa(a6), d0
         0x0073ab22      4880           ext.w d0
         0x0073ab24      5340           subq.w 0x1, d0
         0x0073ab26      41bc0008       chk.w 0x8, d0
         0x0073ab2a      5240           addq.w 0x1, d0
         0x0073ab2c      1f00           move.b d0, -(a7)
         0x0073ab2e      1f11           move.b (a1), -(a7)
         0x0073ab30      2f12           move.l (a2), -(a7)
         0x0073ab32      2f10           move.l (a0), -(a7)
         0x0073ab34      2f13           move.l (a3), -(a7)
         0x0073ab36      1f03           move.b d3, -(a7)
         0x0073ab38      4227           clr.b -(a7)
         0x0073ab3a      1f04           move.b d4, -(a7)
         0x0073ab3c      4eb9005233f0   jsr BRUSHCOM.br_paste
         0x0073ab42      dec5           adda.w d5, a7
         0x0073ab44      4aae0014       tst.l 0x14(a6)
     < 0x0073ab48      6f70           ble.b 0x73abba
        0x0073ab4a      222e0010       move.l 0x10(a6), d1
        0x0073ab4e      9282           sub.l d2, d1
        0x0073ab50      0c810000ffff   cmpi.l 0xffff, d1
    < 0x0073ab56      6302           bls.b 0x73ab5a
       0x0073ab58      4e4f           trap 0xf
    > 0x0073ab5a      d282           add.l d2, d1
        0x0073ab5c      3881           move.w d1, (a4)
        0x0073ab5e      3d41fffe       move.w d1, -0x2(a6)
        0x0073ab62      1f00           move.b d0, -(a7)
        0x0073ab64      1f11           move.b (a1), -(a7)
        0x0073ab66      2f12           move.l (a2), -(a7)
        0x0073ab68      2f10           move.l (a0), -(a7)
        0x0073ab6a      2f13           move.l (a3), -(a7)
        0x0073ab6c      1f03           move.b d3, -(a7)
        0x0073ab6e      4227           clr.b -(a7)
        0x0073ab70      1f04           move.b d4, -(a7)
        0x0073ab72      4eb9005233f0   jsr BRUSHCOM.br_paste
        0x0073ab78      dec5           adda.w d5, a7
    < 0x0073ab7a      603e           bra.b 0x73abba
    > 0x0073ab7c      1f2e000a       move.b 0xa(a6), -(a7)
         0x0073ab80      1f11           move.b (a1), -(a7)
         0x0073ab82      2f12           move.l (a2), -(a7)
         0x0073ab84      2f10           move.l (a0), -(a7)
         0x0073ab86      4eb9005213b4   jsr BRUSHCOM.br_wipe
         0x0073ab8c      dec6           adda.w d6, a7
         0x0073ab8e      4aae0014       tst.l 0x14(a6)
     < 0x0073ab92      6f26           ble.b 0x73abba
        0x0073ab94      202e0010       move.l 0x10(a6), d0
        0x0073ab98      9082           sub.l d2, d0
        0x0073ab9a      0c800000ffff   cmpi.l 0xffff, d0
    < 0x0073aba0      6302           bls.b 0x73aba4
       0x0073aba2      4e4f           trap 0xf
    > 0x0073aba4      d082           add.l d2, d0
        0x0073aba6      3880           move.w d0, (a4)
        0x0073aba8      1f2e000a       move.b 0xa(a6), -(a7)
        0x0073abac      1f11           move.b (a1), -(a7)
        0x0073abae      2f12           move.l (a2), -(a7)
        0x0073abb0      2f10           move.l (a0), -(a7)
        0x0073abb2      4eb9005213b4   jsr BRUSHCOM.br_wipe
        0x0073abb8      dec6           adda.w d6, a7
    > 0x0073abba      4cdf1f7f       movem.l (a7)+, d0-d6/a0-a4
           0x0073abbe      4e5e           unlk a6
           0x0073abc0      4e75           rts
 526: GRAPHICCOM.do_solid_ellips ();
           0x0073abc2      4e56ff7a       link.w a6, 0xff7a
           0x0073abc6      bfd5           cmpa.l (a5), a7
       < 0x0073abc8      6206           bhi.b 0x73abd0
          0x0073abca      44fc0002       move.w 0x2, ccr
          0x0073abce      4e76           trapv
       > 0x0073abd0      defc0068       adda.w 0x68, a7
           0x0073abd4      48e7fff8       movem.l d0-d7/a0-a4, -(a7)
           0x0073abd8      41f900408686   lea.l fcn.00408686, a0
           0x0073abde      43ee0016       lea.l 0x16(a6), a1
           0x0073abe2      45ee001a       lea.l 0x1a(a6), a2
           0x0073abe6      47f900407e92   lea.l fcn.00407e92, a3
           0x0073abec      49eeffe2       lea.l -0x1e(a6), a4
           0x0073abf0      4a92           tst.l (a2)
       < 0x0073abf2      670001d4       beq.w 0x73adc8
          0x0073abf6      4a91           tst.l (a1)
      < 0x0073abf8      670001ce       beq.w 0x73adc8
         0x0073abfc      2812           move.l (a2), d4
         0x0073abfe      2612           move.l (a2), d3
         0x0073ac00      4eb900406a74   jsr fcn.00406a74
         0x0073ac06      4e90           jsr (a0)                    ; fcn.00000009
         0x0073ac08      2d44ffee       move.l d4, -0x12(a6)
         0x0073ac0c      2f04           move.l d4, -(a7)
         0x0073ac0e      7840           moveq 0x40, d4
         0x0073ac10      4e90           jsr (a0)                    ; fcn.00000009
         0x0073ac12      2617           move.l (a7), d3
         0x0073ac14      4e93           jsr (a3)                    ; fcn.0000000c
         0x0073ac16      2e84           move.l d4, (a7)
         0x0073ac18      2811           move.l (a1), d4
         0x0073ac1a      2611           move.l (a1), d3
         0x0073ac1c      4eb900406a74   jsr fcn.00406a74
         0x0073ac22      4e90           jsr (a0)                    ; fcn.00000009
         0x0073ac24      2604           move.l d4, d3
         0x0073ac26      2817           move.l (a7), d4
         0x0073ac28      4eb900407ff8   jsr fcn.00407ff8
         0x0073ac2e      584f           addq.w 0x4, a7
         0x0073ac30      2d44fff2       move.l d4, -0xe(a6)
         0x0073ac34      3d7c0001ffe8   move.w 0x1, -0x18(a6)
         0x0073ac3a      302e0010       move.w 0x10(a6), d0
         0x0073ac3e      48c0           ext.l d0
         0x0073ac40      81fc0008       divs.w 0x8, d0
         0x0073ac44      3d40ffea       move.w d0, -0x16(a6)
         0x0073ac48      302e0012       move.w 0x12(a6), d0
         0x0073ac4c      48c0           ext.l d0
         0x0073ac4e      81fc0008       divs.w 0x8, d0
         0x0073ac52      3d40ffec       move.w d0, -0x14(a6)
         0x0073ac56      7808           moveq 0x8, d4
         0x0073ac58      4e90           jsr (a0)                    ; fcn.00000009
         0x0073ac5a      2f04           move.l d4, -(a7)
         0x0073ac5c      7800           moveq 0x0, d4
         0x0073ac5e      4e90           jsr (a0)                    ; fcn.00000009
         0x0073ac60      2f04           move.l d4, -(a7)
         0x0073ac62      2011           move.l (a1), d0
         0x0073ac64      5880           addq.l 0x4, d0
         0x0073ac66      2800           move.l d0, d4
         0x0073ac68      7608           moveq 0x8, d3
         0x0073ac6a      4eb900406b50   jsr fcn.00406b50
         0x0073ac70      2f04           move.l d4, -(a7)
         0x0073ac72      7000           moveq 0x0, d0
         0x0073ac74      b097           cmp.l (a7), d0
     < 0x0073ac76      6e0c           bgt.b 0x73ac84
        0x0073ac78      2217           move.l (a7), d1
        0x0073ac7a      0c8100007fff   cmpi.l 0x7fff, d1
    < 0x0073ac80      6f02           ble.b 0x73ac84
       0x0073ac82      4e4f           trap 0xf
   > 0x0073ac84      b06f0002       cmp.w 0x2(a7), d0
    < 0x0073ac88      6e00013a       bgt.w 0x73adc4
       0x0073ac8c      3d40fffa       move.w d0, -0x6(a6)
       0x0073ac90      48c0           ext.l d0
       0x0073ac92      2800           move.l d0, d4
       0x0073ac94      4e90           jsr (a0)                    ; fcn.00000009
       0x0073ac96      2f04           move.l d4, -(a7)
       0x0073ac98      262efff2       move.l -0xe(a6), d3
       0x0073ac9c      4e93           jsr (a3)                    ; fcn.0000000c
       0x0073ac9e      2617           move.l (a7), d3
       0x0073aca0      4e93           jsr (a3)                    ; fcn.0000000c
       0x0073aca2      584f           addq.w 0x4, a7
       0x0073aca4      2604           move.l d4, d3
       0x0073aca6      282effee       move.l -0x12(a6), d4
       0x0073acaa      4eb900407b44   jsr fcn.00407b44
       0x0073acb0      2c04           move.l d4, d6
       0x0073acb2      2806           move.l d6, d4
       0x0073acb4      262f0004       move.l 0x4(a7), d3
       0x0073acb8      4eb900407dd4   jsr fcn.00407dd4
   < 0x0073acbe      6f0000fe       ble.w 0x73adbe
      0x0073acc2      594f           subq.w 0x4, a7
      0x0073acc4      2f06           move.l d6, -(a7)
      0x0073acc6      4eb90040853e   jsr p_fsqrt
      0x0073accc      584f           addq.w 0x4, a7
      0x0073acce      281f           move.l (a7)+, d4
      0x0073acd0      262f0008       move.l 0x8(a7), d3
      0x0073acd4      4eb900407ff8   jsr fcn.00407ff8
      0x0073acda      4eb900408224   jsr fcn.00408224
      0x0073ace0      0484ffff8000   subi.l 0xffff8000, d4
      0x0073ace6      0c840000ffff   cmpi.l 0xffff, d4
  < 0x0073acec      6302           bls.b 0x73acf0
     0x0073acee      4e4f           trap 0xf
  > 0x0073acf0      0684ffff8000   addi.l 0xffff8000, d4
      0x0073acf6      3e04           move.w d4, d7
      0x0073acf8      322effea       move.w -0x16(a6), d1
      0x0073acfc      48c1           ext.l d1
      0x0073acfe      48c7           ext.l d7
      0x0073ad00      9287           sub.l d7, d1
      0x0073ad02      0481ffff8000   subi.l 0xffff8000, d1
      0x0073ad08      0c810000ffff   cmpi.l 0xffff, d1
  < 0x0073ad0e      6302           bls.b 0x73ad12
     0x0073ad10      4e4f           trap 0xf
  > 0x0073ad12      0681ffff8000   addi.l 0xffff8000, d1
      0x0073ad18      3881           move.w d1, (a4)
      0x0073ad1a      2207           move.l d7, d1
      0x0073ad1c      d287           add.l d7, d1
      0x0073ad1e      5281           addq.l 0x1, d1
      0x0073ad20      0481ffff8000   subi.l 0xffff8000, d1
      0x0073ad26      0c810000ffff   cmpi.l 0xffff, d1
  < 0x0073ad2c      6302           bls.b 0x73ad30
     0x0073ad2e      4e4f           trap 0xf
  > 0x0073ad30      0681ffff8000   addi.l 0xffff8000, d1
      0x0073ad36      3d41ffe6       move.w d1, -0x1a(a6)
      0x0073ad3a      322effec       move.w -0x14(a6), d1
      0x0073ad3e      48c1           ext.l d1
      0x0073ad40      48c0           ext.l d0
      0x0073ad42      2401           move.l d1, d2
      0x0073ad44      9480           sub.l d0, d2
      0x0073ad46      0482ffff8000   subi.l 0xffff8000, d2
      0x0073ad4c      0c820000ffff   cmpi.l 0xffff, d2
  < 0x0073ad52      6302           bls.b 0x73ad56
     0x0073ad54      4e4f           trap 0xf
  > 0x0073ad56      0682ffff8000   addi.l 0xffff8000, d2
      0x0073ad5c      3d42ffe4       move.w d2, -0x1c(a6)
      0x0073ad60      d280           add.l d0, d1
      0x0073ad62      0481ffff8000   subi.l 0xffff8000, d1
      0x0073ad68      0c810000ffff   cmpi.l 0xffff, d1
  < 0x0073ad6e      6302           bls.b 0x73ad72
     0x0073ad70      4e4f           trap 0xf
  > 0x0073ad72      0681ffff8000   addi.l 0xffff8000, d1
      0x0073ad78      3a01           move.w d1, d5
      0x0073ad7a      122e0014       move.b 0x14(a6), d1
      0x0073ad7e      0c010001       cmpi.b 0x1, d1
  < 0x0073ad82      6616           bne.b 0x73ad9a
     0x0073ad84      2f2effe6       move.l -0x1a(a6), -(a7)
     0x0073ad88      2f14           move.l (a4), -(a7)
     0x0073ad8a      2f00           move.l d0, -(a7)
     0x0073ad8c      48c5           ext.l d5
     0x0073ad8e      2f05           move.l d5, -(a7)
     0x0073ad90      4ebafcd2       jsr GRAPHICCOM.preview_wipe(pc)
     0x0073ad94      defc0010       adda.w 0x10, a7
 < 0x0073ad98      6024           bra.b 0x73adbe
 > 0x0073ad9a      2f2effe6       move.l -0x1a(a6), -(a7)
     0x0073ad9e      2f14           move.l (a4), -(a7)
     0x0073ada0      2f00           move.l d0, -(a7)
     0x0073ada2      48c5           ext.l d5
     0x0073ada4      2f05           move.l d5, -(a7)
     0x0073ada6      1f2e000a       move.b 0xa(a6), -(a7)
     0x0073adaa      1f2e0008       move.b 0x8(a6), -(a7)
     0x0073adae      1f2e000e       move.b 0xe(a6), -(a7)
     0x0073adb2      1f2e000c       move.b 0xc(a6), -(a7)
     0x0073adb6      4ebafd1c       jsr GRAPHICCOM.doit_wipe(pc)
     0x0073adba      defc0018       adda.w 0x18, a7
 > 0x0073adbe      5240           addq.w 0x1, d0
   < 0x0073adc0      6800fec2       bvc.w 0x73ac84
     > 0x0073adc4      defc000c       adda.w 0xc, a7
      > 0x0073adc8      4cdf1fff       movem.l (a7)+, d0-d7/a0-a4
           0x0073adcc      4e5e           unlk a6
           0x0073adce      4e75           rts
            ; XREFS: CALL 0x0073b574  CALL 0x0073b652  CALL 0x0073b6c4  
            ; XREFS: CALL 0x0073b722  CALL 0x0073b794  CALL 0x0073b816  
 280: GRAPHICCOM.rotate_and_cent ();
           0x0073add0      4e56ffc4       link.w a6, 0xffc4
           0x0073add4      bfd5           cmpa.l (a5), a7
       < 0x0073add6      6206           bhi.b 0x73adde
          0x0073add8      44fc0002       move.w 0x2, ccr
          0x0073addc      4e76           trapv
       > 0x0073adde      defc0038       adda.w 0x38, a7
           0x0073ade2      48e7fcc0       movem.l d0-d5/a0-a1, -(a7)
           0x0073ade6      43f900407e92   lea.l fcn.00407e92, a1
           0x0073adec      243cffff8000   move.l 0xffff8000, d2
           0x0073adf2      2a3c0000ffff   move.l 0xffff, d5
           0x0073adf8      282e001c       move.l 0x1c(a6), d4
           0x0073adfc      7600           moveq 0x0, d3
           0x0073adfe      4eb900407dd4   jsr fcn.00407dd4
       < 0x0073ae04      670000a2       beq.w 0x73aea8
          0x0073ae08      206e0008       movea.l 0x8(a6), a0
          0x0073ae0c      3810           move.w (a0), d4
          0x0073ae0e      48c4           ext.l d4
          0x0073ae10      4eb900408686   jsr fcn.00408686
          0x0073ae16      2f04           move.l d4, -(a7)
          0x0073ae18      38280002       move.w 0x2(a0), d4
          0x0073ae1c      48c4           ext.l d4
          0x0073ae1e      4eb900408686   jsr fcn.00408686
          0x0073ae24      2f04           move.l d4, -(a7)
          0x0073ae26      282e0014       move.l 0x14(a6), d4
          0x0073ae2a      202f0004       move.l 0x4(a7), d0
          0x0073ae2e      2600           move.l d0, d3
          0x0073ae30      4e91           jsr (a1)                    ; fcn.0000000a
          0x0073ae32      2f04           move.l d4, -(a7)
          0x0073ae34      282e0010       move.l 0x10(a6), d4
          0x0073ae38      222f0004       move.l 0x4(a7), d1
          0x0073ae3c      2601           move.l d1, d3
          0x0073ae3e      4e91           jsr (a1)                    ; fcn.0000000a
          0x0073ae40      2604           move.l d4, d3
          0x0073ae42      2817           move.l (a7), d4
          0x0073ae44      4eb900407b44   jsr fcn.00407b44
          0x0073ae4a      584f           addq.w 0x4, a7
          0x0073ae4c      4eb900408224   jsr fcn.00408224
          0x0073ae52      9882           sub.l d2, d4
          0x0073ae54      b885           cmp.l d5, d4
      < 0x0073ae56      6302           bls.b 0x73ae5a
         0x0073ae58      4e4f           trap 0xf
      > 0x0073ae5a      d882           add.l d2, d4
          0x0073ae5c      3d44fffc       move.w d4, -0x4(a6)
          0x0073ae60      282e0018       move.l 0x18(a6), d4
          0x0073ae64      2600           move.l d0, d3
          0x0073ae66      4e91           jsr (a1)                    ; fcn.0000000a
          0x0073ae68      2f04           move.l d4, -(a7)
          0x0073ae6a      282e0014       move.l 0x14(a6), d4
          0x0073ae6e      2601           move.l d1, d3
          0x0073ae70      4e91           jsr (a1)                    ; fcn.0000000a
          0x0073ae72      2617           move.l (a7), d3
          0x0073ae74      4eb900407ba8   jsr fcn.00407ba8
          0x0073ae7a      defc000c       adda.w 0xc, a7
          0x0073ae7e      4eb900408224   jsr fcn.00408224
          0x0073ae84      9882           sub.l d2, d4
          0x0073ae86      b885           cmp.l d5, d4
      < 0x0073ae88      6302           bls.b 0x73ae8c
         0x0073ae8a      4e4f           trap 0xf
      > 0x0073ae8c      d882           add.l d2, d4
          0x0073ae8e      3d44fffe       move.w d4, -0x2(a6)
          0x0073ae92      10aefffc       move.b -0x4(a6), (a0)
          0x0073ae96      116efffd0001   move.b -0x3(a6), 0x1(a0)
          0x0073ae9c      116efffe0002   move.b -0x2(a6), 0x2(a0)
          0x0073aea2      116effff0003   move.b -0x1(a6), 0x3(a0)
       > 0x0073aea8      206e0008       movea.l 0x8(a6), a0
           0x0073aeac      302e000c       move.w 0xc(a6), d0
           0x0073aeb0      48c0           ext.l d0
           0x0073aeb2      3210           move.w (a0), d1
           0x0073aeb4      48c1           ext.l d1
           0x0073aeb6      d280           add.l d0, d1
           0x0073aeb8      9282           sub.l d2, d1
           0x0073aeba      b285           cmp.l d5, d1
       < 0x0073aebc      6302           bls.b 0x73aec0
          0x0073aebe      4e4f           trap 0xf
       > 0x0073aec0      d282           add.l d2, d1
           0x0073aec2      3081           move.w d1, (a0)
           0x0073aec4      302e000e       move.w 0xe(a6), d0
           0x0073aec8      48c0           ext.l d0
           0x0073aeca      32280002       move.w 0x2(a0), d1
           0x0073aece      48c1           ext.l d1
           0x0073aed0      d280           add.l d0, d1
           0x0073aed2      9282           sub.l d2, d1
           0x0073aed4      b285           cmp.l d5, d1
       < 0x0073aed6      6302           bls.b 0x73aeda
          0x0073aed8      4e4f           trap 0xf
       > 0x0073aeda      d282           add.l d2, d1
           0x0073aedc      31410002       move.w d1, 0x2(a0)
           0x0073aee0      4cdf033f       movem.l (a7)+, d0-d5/a0-a1
           0x0073aee4      4e5e           unlk a6
           0x0073aee6      4e75           rts
            ; CALL XREF from GRAPHICCOM.do_draw_graphic @ 0x73bd34
 446: GRAPHICCOM.calc_quad_segme ();
           0x0073aee8      4e56ff90       link.w a6, 0xff90
           0x0073aeec      bfd5           cmpa.l (a5), a7
       < 0x0073aeee      6206           bhi.b 0x73aef6
          0x0073aef0      44fc0002       move.w 0x2, ccr
          0x0073aef4      4e76           trapv
       > 0x0073aef6      defc0060       adda.w 0x60, a7
           0x0073aefa      48e7fff8       movem.l d0-d7/a0-a4, -(a7)
           0x0073aefe      45f900408686   lea.l fcn.00408686, a2
           0x0073af04      47ee0008       lea.l 0x8(a6), a3
           0x0073af08      49f900407e92   lea.l fcn.00407e92, a4
           0x0073af0e      7228           moveq 0x28, d1
           0x0073af10      243cffff8000   move.l 0xffff8000, d2
           0x0073af16      202e001a       move.l 0x1a(a6), d0
           0x0073af1a      b0ae0016       cmp.l 0x16(a6), d0
       < 0x0073af1e      6f04           ble.b 0x73af24
          0x0073af20      2800           move.l d0, d4
      < 0x0073af22      6004           bra.b 0x73af28
      > 0x0073af24      282e0016       move.l 0x16(a6), d4
      > 0x0073af28      4e92           jsr (a2)                    ; fcn.00000009+0x2
           0x0073af2a      2e04           move.l d4, d7
           0x0073af2c      7800           moveq 0x0, d4
           0x0073af2e      4e92           jsr (a2)                    ; fcn.00000009+0x2
           0x0073af30      2f04           move.l d4, -(a7)
           0x0073af32      2604           move.l d4, d3
           0x0073af34      2807           move.l d7, d4
           0x0073af36      4eb900407dd4   jsr fcn.00407dd4
       < 0x0073af3c      6f000140       ble.w 0x73b07e
          0x0073af40      4a2e0010       tst.b 0x10(a6)
      < 0x0073af44      673e           beq.b 0x73af84
         0x0073af46      2053           movea.l (a3), a0
         0x0073af48      7802           moveq 0x2, d4
         0x0073af4a      262e0012       move.l 0x12(a6), d3
         0x0073af4e      4eb900406a74   jsr fcn.00406a74
         0x0073af54      2f04           move.l d4, -(a7)
         0x0073af56      283c40490fdb   move.l 0x40490fdb, d4
         0x0073af5c      2607           move.l d7, d3
         0x0073af5e      4e94           jsr (a4)                    ; fcn.0000000d
         0x0073af60      2f04           move.l d4, -(a7)
         0x0073af62      282f0004       move.l 0x4(a7), d4
         0x0073af66      4e92           jsr (a2)                    ; fcn.00000009+0x2
         0x0073af68      2604           move.l d4, d3
         0x0073af6a      2817           move.l (a7), d4
         0x0073af6c      4eb900407ff8   jsr fcn.00407ff8
         0x0073af72      504f           addq.w 0x8, a7
         0x0073af74      4eb900408224   jsr fcn.00408224
         0x0073af7a      5484           addq.l 0x2, d4
         0x0073af7c      2084           move.l d4, (a0)
         0x0073af7e      b881           cmp.l d1, d4
     < 0x0073af80      6f42           ble.b 0x73afc4
    < 0x0073af82      603e           bra.b 0x73afc2
    > 0x0073af84      2053           movea.l (a3), a0
        0x0073af86      283c40490fdb   move.l 0x40490fdb, d4
        0x0073af8c      2607           move.l d7, d3
        0x0073af8e      4e94           jsr (a4)                    ; fcn.0000000d
        0x0073af90      2f04           move.l d4, -(a7)
        0x0073af92      283c00000080   move.l 0x80, d4
        0x0073af98      4e92           jsr (a2)                    ; fcn.00000009+0x2
        0x0073af9a      2604           move.l d4, d3
        0x0073af9c      2817           move.l (a7), d4
        0x0073af9e      4eb900407ff8   jsr fcn.00407ff8
        0x0073afa4      584f           addq.w 0x4, a7
        0x0073afa6      4eb900408224   jsr fcn.00408224
        0x0073afac      2084           move.l d4, (a0)
        0x0073afae      0c8400000008   cmpi.l 0x8, d4
    < 0x0073afb4      6c08           bge.b 0x73afbe
       0x0073afb6      20bc00000008   move.l 0x8, (a0)
   < 0x0073afbc      6006           bra.b 0x73afc4
   > 0x0073afbe      b881           cmp.l d1, d4
   < 0x0073afc0      6f02           ble.b 0x73afc4
   > 0x0073afc2      2081           move.l d1, (a0)
   > 0x0073afc4      2017           move.l (a7), d0
          0x0073afc6      2e00           move.l d0, d7
          0x0073afc8      2053           movea.l (a3), a0
          0x0073afca      7802           moveq 0x2, d4
          0x0073afcc      2610           move.l (a0), d3
          0x0073afce      4eb900406a74   jsr fcn.00406a74
          0x0073afd4      4e92           jsr (a2)                    ; fcn.00000009+0x2
          0x0073afd6      2604           move.l d4, d3
          0x0073afd8      283c40490fdb   move.l 0x40490fdb, d4
          0x0073afde      4eb900407ff8   jsr fcn.00407ff8
          0x0073afe4      2a04           move.l d4, d5
          0x0073afe6      226e000c       movea.l 0xc(a6), a1
          0x0073afea      282e001a       move.l 0x1a(a6), d4
          0x0073afee      4e92           jsr (a2)                    ; fcn.00000009+0x2
          0x0073aff0      2f04           move.l d4, -(a7)
          0x0073aff2      282e0016       move.l 0x16(a6), d4
          0x0073aff6      4e92           jsr (a2)                    ; fcn.00000009+0x2
          0x0073aff8      2f04           move.l d4, -(a7)
          0x0073affa      2f10           move.l (a0), -(a7)
          0x0073affc      7c00           moveq 0x0, d6
      > 0x0073affe      bc97           cmp.l (a7), d6
     < 0x0073b000      6e76           bgt.b 0x73b078
        0x0073b002      bc81           cmp.l d1, d6
    < 0x0073b004      6302           bls.b 0x73b008
       0x0073b006      4e4f           trap 0xf
    > 0x0073b008      2006           move.l d6, d0
        0x0073b00a      e580           asl.l 0x2, d0
        0x0073b00c      594f           subq.w 0x4, a7
        0x0073b00e      2f07           move.l d7, -(a7)
        0x0073b010      4eb900438824   jsr p_fcos
        0x0073b016      584f           addq.w 0x4, a7
        0x0073b018      261f           move.l (a7)+, d3
        0x0073b01a      282f0008       move.l 0x8(a7), d4
        0x0073b01e      4e94           jsr (a4)                    ; fcn.0000000d
        0x0073b020      4eb900408224   jsr fcn.00408224
        0x0073b026      9882           sub.l d2, d4
        0x0073b028      0c840000ffff   cmpi.l 0xffff, d4
    < 0x0073b02e      6302           bls.b 0x73b032
       0x0073b030      4e4f           trap 0xf
    > 0x0073b032      d882           add.l d2, d4
        0x0073b034      33840800       move.w d4, (a1, d0.l)
        0x0073b038      594f           subq.w 0x4, a7
        0x0073b03a      2f07           move.l d7, -(a7)
        0x0073b03c      4eb9004387fc   jsr p_fsin
        0x0073b042      584f           addq.w 0x4, a7
        0x0073b044      261f           move.l (a7)+, d3
        0x0073b046      282f0004       move.l 0x4(a7), d4
        0x0073b04a      4e94           jsr (a4)                    ; fcn.0000000d
        0x0073b04c      4eb900408224   jsr fcn.00408224
        0x0073b052      9882           sub.l d2, d4
        0x0073b054      0c840000ffff   cmpi.l 0xffff, d4
    < 0x0073b05a      6302           bls.b 0x73b05e
       0x0073b05c      4e4f           trap 0xf
    > 0x0073b05e      d882           add.l d2, d4
        0x0073b060      33840802       move.w d4, 0x2(a1, d0.l)
        0x0073b064      2807           move.l d7, d4
        0x0073b066      2605           move.l d5, d3
        0x0073b068      4eb900407ba8   jsr fcn.00407ba8
        0x0073b06e      2e04           move.l d4, d7
        0x0073b070      282f0004       move.l 0x4(a7), d4
        0x0073b074      5286           addq.l 0x1, d6
     < 0x0073b076      6886           bvc.b 0x73affe
     > 0x0073b078      defc0010       adda.w 0x10, a7
      < 0x0073b07c      6020           bra.b 0x73b09e
      > 0x0073b07e      2053           movea.l (a3), a0
          0x0073b080      4290           clr.l (a0)
          0x0073b082      206e000c       movea.l 0xc(a6), a0
          0x0073b086      10baef40       move.b 0x739fc8(pc), (a0)
          0x0073b08a      117aef3d0001   move.b 0x739fc9(pc), 0x1(a0)
          0x0073b090      117aef380002   move.b 0x739fca(pc), 0x2(a0)
          0x0073b096      117aef330003   move.b 0x739fcb(pc), 0x3(a0)
          0x0073b09c      584f           addq.w 0x4, a7
      > 0x0073b09e      4cdf1fff       movem.l (a7)+, d0-d7/a0-a4
           0x0073b0a2      4e5e           unlk a6
           0x0073b0a4      4e75           rts
            ; CALL XREF from GRAPHICCOM.do_draw_graphic @ 0x73bcee
 806: GRAPHICCOM.get_ellipse_par ();
           0x0073b0a6      4e56ff82       link.w a6, 0xff82
           0x0073b0aa      bfd5           cmpa.l (a5), a7
       < 0x0073b0ac      6206           bhi.b 0x73b0b4
          0x0073b0ae      44fc0002       move.w 0x2, ccr
          0x0073b0b2      4e76           trapv
       > 0x0073b0b4      defc0066       adda.w 0x66, a7
           0x0073b0b8      48e7fff8       movem.l d0-d7/a0-a4, -(a7)
           0x0073b0bc      47f900407e92   lea.l fcn.00407e92, a3
           0x0073b0c2      49f900408686   lea.l fcn.00408686, a4
           0x0073b0c8      2c3cffff8000   move.l 0xffff8000, d6
           0x0073b0ce      206e0008       movea.l 0x8(a6), a0
           0x0073b0d2      20ae0018       move.l 0x18(a6), (a0)
           0x0073b0d6      302e0032       move.w 0x32(a6), d0
           0x0073b0da      48c0           ext.l d0
           0x0073b0dc      068000000080   addi.l 0x80, d0
           0x0073b0e2      9086           sub.l d6, d0
           0x0073b0e4      0c800000ffff   cmpi.l 0xffff, d0
       < 0x0073b0ea      6302           bls.b 0x73b0ee
          0x0073b0ec      4e4f           trap 0xf
       > 0x0073b0ee      d086           add.l d6, d0
           0x0073b0f0      3d400032       move.w d0, 0x32(a6)
           0x0073b0f4      322e002e       move.w 0x2e(a6), d1
           0x0073b0f8      48c1           ext.l d1
           0x0073b0fa      068100000080   addi.l 0x80, d1
           0x0073b100      9286           sub.l d6, d1
           0x0073b102      0c810000ffff   cmpi.l 0xffff, d1
       < 0x0073b108      6302           bls.b 0x73b10c
          0x0073b10a      4e4f           trap 0xf
       > 0x0073b10c      d286           add.l d6, d1
           0x0073b10e      3d41002e       move.w d1, 0x2e(a6)
           0x0073b112      4a2e003c       tst.b 0x3c(a6)
       < 0x0073b116      670001aa       beq.w 0x73b2c2
          0x0073b11a      226e0014       movea.l 0x14(a6), a1
          0x0073b11e      342e0030       move.w 0x30(a6), d2
          0x0073b122      48c2           ext.l d2
          0x0073b124      362e002c       move.w 0x2c(a6), d3
          0x0073b128      48c3           ext.l d3
          0x0073b12a      2802           move.l d2, d4
          0x0073b12c      d883           add.l d3, d4
          0x0073b12e      e584           asl.l 0x2, d4
          0x0073b130      9886           sub.l d6, d4
          0x0073b132      0c840000ffff   cmpi.l 0xffff, d4
      < 0x0073b138      6302           bls.b 0x73b13c
         0x0073b13a      4e4f           trap 0xf
      > 0x0073b13c      d886           add.l d6, d4
          0x0073b13e      3284           move.w d4, (a1)
          0x0073b140      48c0           ext.l d0
          0x0073b142      48c1           ext.l d1
          0x0073b144      2800           move.l d0, d4
          0x0073b146      d881           add.l d1, d4
          0x0073b148      e584           asl.l 0x2, d4
          0x0073b14a      9886           sub.l d6, d4
          0x0073b14c      0c840000ffff   cmpi.l 0xffff, d4
      < 0x0073b152      6302           bls.b 0x73b156
         0x0073b154      4e4f           trap 0xf
      > 0x0073b156      d886           add.l d6, d4
          0x0073b158      33440002       move.w d4, 0x2(a1)
          0x0073b15c      3f04           move.w d4, -(a7)
          0x0073b15e      4a2e003a       tst.b 0x3a(a6)
      < 0x0073b162      67000098       beq.w 0x73b1fc
         0x0073b166      2a02           move.l d2, d5
         0x0073b168      9a83           sub.l d3, d5
         0x0073b16a      2805           move.l d5, d4
         0x0073b16c      2604           move.l d4, d3
         0x0073b16e      4eb900406a74   jsr fcn.00406a74
         0x0073b174      4e94           jsr (a4)                    ; fcn.0000000d
         0x0073b176      2f04           move.l d4, -(a7)
         0x0073b178      2600           move.l d0, d3
         0x0073b17a      9681           sub.l d1, d3
         0x0073b17c      2803           move.l d3, d4
         0x0073b17e      4e94           jsr (a4)                    ; fcn.0000000d
         0x0073b180      262e0020       move.l 0x20(a6), d3
         0x0073b184      4e93           jsr (a3)                    ; fcn.0000000c
         0x0073b186      4eb900408404   jsr fcn.00408404
         0x0073b18c      2617           move.l (a7), d3
         0x0073b18e      4eb900407ba8   jsr fcn.00407ba8
         0x0073b194      2f04           move.l d4, -(a7)
         0x0073b196      4eb90040853e   jsr p_fsqrt
         0x0073b19c      584f           addq.w 0x4, a7
         0x0073b19e      7804           moveq 0x4, d4
         0x0073b1a0      4e94           jsr (a4)                    ; fcn.0000000d
         0x0073b1a2      2617           move.l (a7), d3
         0x0073b1a4      4e93           jsr (a3)                    ; fcn.0000000c
         0x0073b1a6      584f           addq.w 0x4, a7
         0x0073b1a8      2e04           move.l d4, d7
         0x0073b1aa      246e0010       movea.l 0x10(a6), a2
         0x0073b1ae      2807           move.l d7, d4
         0x0073b1b0      4eb900408224   jsr fcn.00408224
         0x0073b1b6      3611           move.w (a1), d3
         0x0073b1b8      48c3           ext.l d3
         0x0073b1ba      4484           neg.l d4
         0x0073b1bc      d883           add.l d3, d4
         0x0073b1be      9886           sub.l d6, d4
         0x0073b1c0      0c840000ffff   cmpi.l 0xffff, d4
     < 0x0073b1c6      6302           bls.b 0x73b1ca
        0x0073b1c8      4e4f           trap 0xf
     > 0x0073b1ca      d886           add.l d6, d4
         0x0073b1cc      3484           move.w d4, (a2)
         0x0073b1ce      2807           move.l d7, d4
         0x0073b1d0      262e0024       move.l 0x24(a6), d3
         0x0073b1d4      4e93           jsr (a3)                    ; fcn.0000000c
         0x0073b1d6      4eb900408224   jsr fcn.00408224
         0x0073b1dc      3617           move.w (a7), d3
         0x0073b1de      48c3           ext.l d3
         0x0073b1e0      4484           neg.l d4
         0x0073b1e2      d883           add.l d3, d4
         0x0073b1e4      9886           sub.l d6, d4
         0x0073b1e6      0c840000ffff   cmpi.l 0xffff, d4
     < 0x0073b1ec      6302           bls.b 0x73b1f0
        0x0073b1ee      4e4f           trap 0xf
     > 0x0073b1f0      d886           add.l d6, d4
         0x0073b1f2      35440002       move.w d4, 0x2(a2)
         0x0073b1f6      544f           addq.w 0x2, a7
     < 0x0073b1f8      600001ca       bra.w 0x73b3c4
     > 0x0073b1fc      2f03           move.l d3, -(a7)
         0x0073b1fe      9597           sub.l d2, (a7)
         0x0073b200      2f01           move.l d1, -(a7)
         0x0073b202      9197           sub.l d0, (a7)
         0x0073b204      486efff0       pea.l -0x10(a6)
         0x0073b208      486efff4       pea.l -0xc(a6)
         0x0073b20c      4eb900732466   jsr MENUGRAPHICCOM.cartesian_to_po
         0x0073b212      defc0010       adda.w 0x10, a7
         0x0073b216      2a2e0034       move.l 0x34(a6), d5
         0x0073b21a      0c8500000001   cmpi.l 0x1, d5
     < 0x0073b220      6608           bne.b 0x73b22a
        0x0073b222      2e3c41c80000   move.l 0x41c80000, d7
    < 0x0073b228      6006           bra.b 0x73b230
    > 0x0073b22a      2e3c42b40000   move.l 0x42b40000, d7
    > 0x0073b230      4a2e0038       tst.b 0x38(a6)
     < 0x0073b234      6704           beq.b 0x73b23a
        0x0073b236      2d47fff4       move.l d7, -0xc(a6)
     > 0x0073b23a      282efff4       move.l -0xc(a6), d4
         0x0073b23e      2607           move.l d7, d3
         0x0073b240      4eb900407b44   jsr fcn.00407b44
         0x0073b246      2084           move.l d4, (a0)
         0x0073b248      246e000c       movea.l 0xc(a6), a2
         0x0073b24c      14bc0001       move.b 0x1, (a2)
         0x0073b250      2f2efff0       move.l -0x10(a6), -(a7)
         0x0073b254      2f07           move.l d7, -(a7)
         0x0073b256      486efff8       pea.l -0x8(a6)
         0x0073b25a      4eb9007325f8   jsr MENUGRAPHICCOM.polar_to_cartes
         0x0073b260      defc000c       adda.w 0xc, a7
         0x0073b264      246e0010       movea.l 0x10(a6), a2
         0x0073b268      7804           moveq 0x4, d4
         0x0073b26a      4e94           jsr (a4)                    ; fcn.0000000d
         0x0073b26c      262efff8       move.l -0x8(a6), d3
         0x0073b270      4e93           jsr (a3)                    ; fcn.0000000c
         0x0073b272      2f04           move.l d4, -(a7)
         0x0073b274      4eb900408224   jsr fcn.00408224
         0x0073b27a      3611           move.w (a1), d3
         0x0073b27c      48c3           ext.l d3
         0x0073b27e      4484           neg.l d4
         0x0073b280      d883           add.l d3, d4
         0x0073b282      9886           sub.l d6, d4
         0x0073b284      0c840000ffff   cmpi.l 0xffff, d4
     < 0x0073b28a      6302           bls.b 0x73b28e
        0x0073b28c      4e4f           trap 0xf
     > 0x0073b28e      d886           add.l d6, d4
         0x0073b290      3484           move.w d4, (a2)
         0x0073b292      2817           move.l (a7), d4
         0x0073b294      262e001c       move.l 0x1c(a6), d3
         0x0073b298      4e93           jsr (a3)                    ; fcn.0000000c
         0x0073b29a      4eb900408224   jsr fcn.00408224
         0x0073b2a0      362f0004       move.w 0x4(a7), d3
         0x0073b2a4      48c3           ext.l d3
         0x0073b2a6      4484           neg.l d4
         0x0073b2a8      d883           add.l d3, d4
         0x0073b2aa      9886           sub.l d6, d4
         0x0073b2ac      0c840000ffff   cmpi.l 0xffff, d4
     < 0x0073b2b2      6302           bls.b 0x73b2b6
        0x0073b2b4      4e4f           trap 0xf
     > 0x0073b2b6      d886           add.l d6, d4
         0x0073b2b8      35440002       move.w d4, 0x2(a2)
         0x0073b2bc      5c4f           addq.w 0x6, a7
     < 0x0073b2be      60000104       bra.w 0x73b3c4
     > 0x0073b2c2      206e0014       movea.l 0x14(a6), a0
         0x0073b2c6      342e0030       move.w 0x30(a6), d2
         0x0073b2ca      48c2           ext.l d2
         0x0073b2cc      e782           asl.l 0x3, d2
         0x0073b2ce      5882           addq.l 0x4, d2
         0x0073b2d0      9486           sub.l d6, d2
         0x0073b2d2      0c820000ffff   cmpi.l 0xffff, d2
     < 0x0073b2d8      6302           bls.b 0x73b2dc
        0x0073b2da      4e4f           trap 0xf
     > 0x0073b2dc      d486           add.l d6, d2
         0x0073b2de      3082           move.w d2, (a0)
         0x0073b2e0      48c0           ext.l d0
         0x0073b2e2      2400           move.l d0, d2
         0x0073b2e4      e782           asl.l 0x3, d2
         0x0073b2e6      5882           addq.l 0x4, d2
         0x0073b2e8      9486           sub.l d6, d2
         0x0073b2ea      0c820000ffff   cmpi.l 0xffff, d2
     < 0x0073b2f0      6302           bls.b 0x73b2f4
        0x0073b2f2      4e4f           trap 0xf
     > 0x0073b2f4      d486           add.l d6, d2
         0x0073b2f6      31420002       move.w d2, 0x2(a0)
         0x0073b2fa      226e0010       movea.l 0x10(a6), a1
         0x0073b2fe      362e002c       move.w 0x2c(a6), d3
         0x0073b302      48c3           ext.l d3
         0x0073b304      e783           asl.l 0x3, d3
         0x0073b306      9686           sub.l d6, d3
         0x0073b308      0c830000ffff   cmpi.l 0xffff, d3
     < 0x0073b30e      6302           bls.b 0x73b312
        0x0073b310      4e4f           trap 0xf
     > 0x0073b312      d686           add.l d6, d3
         0x0073b314      3283           move.w d3, (a1)
         0x0073b316      48c1           ext.l d1
         0x0073b318      2601           move.l d1, d3
         0x0073b31a      e783           asl.l 0x3, d3
         0x0073b31c      9686           sub.l d6, d3
         0x0073b31e      0c830000ffff   cmpi.l 0xffff, d3
     < 0x0073b324      6302           bls.b 0x73b328
        0x0073b326      4e4f           trap 0xf
     > 0x0073b328      d686           add.l d6, d3
         0x0073b32a      33430002       move.w d3, 0x2(a1)
         0x0073b32e      3611           move.w (a1), d3
         0x0073b330      b650           cmp.w (a0), d3
     < 0x0073b332      6f1a           ble.b 0x73b34e
        0x0073b334      3810           move.w (a0), d4
        0x0073b336      c9fc0002       muls.w 0x2, d4
        0x0073b33a      48c3           ext.l d3
        0x0073b33c      9883           sub.l d3, d4
        0x0073b33e      9886           sub.l d6, d4
        0x0073b340      0c840000ffff   cmpi.l 0xffff, d4
    < 0x0073b346      6302           bls.b 0x73b34a
       0x0073b348      4e4f           trap 0xf
    > 0x0073b34a      d886           add.l d6, d4
        0x0073b34c      3284           move.w d4, (a1)
     > 0x0073b34e      b4690002       cmp.w 0x2(a1), d2
     < 0x0073b352      6c22           bge.b 0x73b376
        0x0073b354      3602           move.w d2, d3
        0x0073b356      c7fc0002       muls.w 0x2, d3
        0x0073b35a      38290002       move.w 0x2(a1), d4
        0x0073b35e      48c4           ext.l d4
        0x0073b360      4484           neg.l d4
        0x0073b362      d883           add.l d3, d4
        0x0073b364      9886           sub.l d6, d4
        0x0073b366      0c840000ffff   cmpi.l 0xffff, d4
    < 0x0073b36c      6302           bls.b 0x73b370
       0x0073b36e      4e4f           trap 0xf
    > 0x0073b370      d886           add.l d6, d4
        0x0073b372      33440002       move.w d4, 0x2(a1)
     > 0x0073b376      3611           move.w (a1), d3
         0x0073b378      48c3           ext.l d3
         0x0073b37a      382e0028       move.w 0x28(a6), d4
         0x0073b37e      48c4           ext.l d4
         0x0073b380      4484           neg.l d4
         0x0073b382      d883           add.l d3, d4
         0x0073b384      9886           sub.l d6, d4
         0x0073b386      0c840000ffff   cmpi.l 0xffff, d4
     < 0x0073b38c      6302           bls.b 0x73b390
        0x0073b38e      4e4f           trap 0xf
     > 0x0073b390      d886           add.l d6, d4
         0x0073b392      3284           move.w d4, (a1)
         0x0073b394      b850           cmp.w (a0), d4
     < 0x0073b396      6f02           ble.b 0x73b39a
        0x0073b398      3290           move.w (a0), (a1)
     > 0x0073b39a      36290002       move.w 0x2(a1), d3
         0x0073b39e      48c3           ext.l d3
         0x0073b3a0      382e002a       move.w 0x2a(a6), d4
         0x0073b3a4      48c4           ext.l d4
         0x0073b3a6      4484           neg.l d4
         0x0073b3a8      d883           add.l d3, d4
         0x0073b3aa      9886           sub.l d6, d4
         0x0073b3ac      0c840000ffff   cmpi.l 0xffff, d4
     < 0x0073b3b2      6302           bls.b 0x73b3b6
        0x0073b3b4      4e4f           trap 0xf
     > 0x0073b3b6      d886           add.l d6, d4
         0x0073b3b8      33440002       move.w d4, 0x2(a1)
         0x0073b3bc      b842           cmp.w d2, d4
     < 0x0073b3be      6f04           ble.b 0x73b3c4
        0x0073b3c0      33420002       move.w d2, 0x2(a1)
     > 0x0073b3c4      4cdf1fff       movem.l (a7)+, d0-d7/a0-a4
           0x0073b3c8      4e5e           unlk a6
           0x0073b3ca      4e75           rts
 506: GRAPHICCOM.get_ellipse_seg ();
           0x0073b3cc      4e56ffa0       link.w a6, 0xffa0
           0x0073b3d0      bfd5           cmpa.l (a5), a7
       < 0x0073b3d2      6206           bhi.b 0x73b3da
          0x0073b3d4      44fc0002       move.w 0x2, ccr
          0x0073b3d8      4e76           trapv
       > 0x0073b3da      defc005c       adda.w 0x5c, a7
           0x0073b3de      48e7fff8       movem.l d0-d7/a0-a4, -(a7)
           0x0073b3e2      47ee000c       lea.l 0xc(a6), a3
           0x0073b3e6      49ee0008       lea.l 0x8(a6), a4
           0x0073b3ea      263cffff8000   move.l 0xffff8000, d3
           0x0073b3f0      283c000000a0   move.l 0xa0, d4
           0x0073b3f6      7a28           moveq 0x28, d5
           0x0073b3f8      2c3c0000ffff   move.l 0xffff, d6
           0x0073b3fe      2053           movea.l (a3), a0
           0x0073b400      4290           clr.l (a0)
           0x0073b402      2053           movea.l (a3), a0
           0x0073b404      2254           movea.l (a4), a1
           0x0073b406      246e0026       movea.l 0x26(a6), a2
           0x0073b40a      2e2e002a       move.l 0x2a(a6), d7
       > 0x0073b40e      4a87           tst.l d7
      < 0x0073b410      6d36           blt.b 0x73b448
         0x0073b412      2010           move.l (a0), d0
         0x0073b414      b084           cmp.l d4, d0
     < 0x0073b416      6302           bls.b 0x73b41a
        0x0073b418      4e4f           trap 0xf
     > 0x0073b41a      e580           asl.l 0x2, d0
         0x0073b41c      be85           cmp.l d5, d7
     < 0x0073b41e      6302           bls.b 0x73b422
        0x0073b420      4e4f           trap 0xf
     > 0x0073b422      2207           move.l d7, d1
         0x0073b424      e581           asl.l 0x2, d1
         0x0073b426      33b218000800   move.w (a2, d1.l), (a1, d0.l)
         0x0073b42c      34321802       move.w 0x2(a2, d1.l), d2
         0x0073b430      48c2           ext.l d2
         0x0073b432      4482           neg.l d2
         0x0073b434      9483           sub.l d3, d2
         0x0073b436      b486           cmp.l d6, d2
     < 0x0073b438      6302           bls.b 0x73b43c
        0x0073b43a      4e4f           trap 0xf
     > 0x0073b43c      d483           add.l d3, d2
         0x0073b43e      33820802       move.w d2, 0x2(a1, d0.l)
         0x0073b442      5290           addq.l 0x1, (a0)
         0x0073b444      5387           subq.l 0x1, d7
      < 0x0073b446      68c6           bvc.b 0x73b40e
      > 0x0073b448      2053           movea.l (a3), a0
           0x0073b44a      2254           movea.l (a4), a1
           0x0073b44c      246e0026       movea.l 0x26(a6), a2
           0x0073b450      7e01           moveq 0x1, d7
       > 0x0073b452      beae002a       cmp.l 0x2a(a6), d7
      < 0x0073b456      6e26           bgt.b 0x73b47e
         0x0073b458      2010           move.l (a0), d0
         0x0073b45a      b084           cmp.l d4, d0
     < 0x0073b45c      6302           bls.b 0x73b460
        0x0073b45e      4e4f           trap 0xf
     > 0x0073b460      e580           asl.l 0x2, d0
         0x0073b462      be85           cmp.l d5, d7
     < 0x0073b464      6302           bls.b 0x73b468
        0x0073b466      4e4f           trap 0xf
     > 0x0073b468      2207           move.l d7, d1
         0x0073b46a      e581           asl.l 0x2, d1
         0x0073b46c      33b218000800   move.w (a2, d1.l), (a1, d0.l)
         0x0073b472      33b218020802   move.w 0x2(a2, d1.l), 0x2(a1, d0.l)
         0x0073b478      5290           addq.l 0x1, (a0)
         0x0073b47a      5287           addq.l 0x1, d7
      < 0x0073b47c      68d4           bvc.b 0x73b452
      > 0x0073b47e      2053           movea.l (a3), a0
           0x0073b480      2254           movea.l (a4), a1
           0x0073b482      246e0026       movea.l 0x26(a6), a2
           0x0073b486      202e002a       move.l 0x2a(a6), d0
           0x0073b48a      5380           subq.l 0x1, d0
           0x0073b48c      2e00           move.l d0, d7
       > 0x0073b48e      4a87           tst.l d7
      < 0x0073b490      6d36           blt.b 0x73b4c8
         0x0073b492      2010           move.l (a0), d0
         0x0073b494      b084           cmp.l d4, d0
     < 0x0073b496      6302           bls.b 0x73b49a
        0x0073b498      4e4f           trap 0xf
     > 0x0073b49a      e580           asl.l 0x2, d0
         0x0073b49c      be85           cmp.l d5, d7
     < 0x0073b49e      6302           bls.b 0x73b4a2
        0x0073b4a0      4e4f           trap 0xf
     > 0x0073b4a2      2207           move.l d7, d1
         0x0073b4a4      e581           asl.l 0x2, d1
         0x0073b4a6      34321800       move.w (a2, d1.l), d2
         0x0073b4aa      48c2           ext.l d2
         0x0073b4ac      4482           neg.l d2
         0x0073b4ae      9483           sub.l d3, d2
         0x0073b4b0      b486           cmp.l d6, d2
     < 0x0073b4b2      6302           bls.b 0x73b4b6
        0x0073b4b4      4e4f           trap 0xf
     > 0x0073b4b6      d483           add.l d3, d2
         0x0073b4b8      33820800       move.w d2, (a1, d0.l)
         0x0073b4bc      33b218020802   move.w 0x2(a2, d1.l), 0x2(a1, d0.l)
         0x0073b4c2      5290           addq.l 0x1, (a0)
         0x0073b4c4      5387           subq.l 0x1, d7
      < 0x0073b4c6      68c6           bvc.b 0x73b48e
      > 0x0073b4c8      2053           movea.l (a3), a0
           0x0073b4ca      2254           movea.l (a4), a1
           0x0073b4cc      246e0026       movea.l 0x26(a6), a2
           0x0073b4d0      2f2e002a       move.l 0x2a(a6), -(a7)
           0x0073b4d4      5397           subq.l 0x1, (a7)
           0x0073b4d6      7e01           moveq 0x1, d7
       > 0x0073b4d8      be97           cmp.l (a7), d7
      < 0x0073b4da      6e46           bgt.b 0x73b522
         0x0073b4dc      2010           move.l (a0), d0
         0x0073b4de      b084           cmp.l d4, d0
     < 0x0073b4e0      6302           bls.b 0x73b4e4
        0x0073b4e2      4e4f           trap 0xf
     > 0x0073b4e4      e580           asl.l 0x2, d0
         0x0073b4e6      be85           cmp.l d5, d7
     < 0x0073b4e8      6302           bls.b 0x73b4ec
        0x0073b4ea      4e4f           trap 0xf
     > 0x0073b4ec      2207           move.l d7, d1
         0x0073b4ee      e581           asl.l 0x2, d1
         0x0073b4f0      34321800       move.w (a2, d1.l), d2
         0x0073b4f4      48c2           ext.l d2
         0x0073b4f6      4482           neg.l d2
         0x0073b4f8      9483           sub.l d3, d2
         0x0073b4fa      b486           cmp.l d6, d2
     < 0x0073b4fc      6302           bls.b 0x73b500
        0x0073b4fe      4e4f           trap 0xf
     > 0x0073b500      d483           add.l d3, d2
         0x0073b502      33820800       move.w d2, (a1, d0.l)
         0x0073b506      34321802       move.w 0x2(a2, d1.l), d2
         0x0073b50a      48c2           ext.l d2
         0x0073b50c      4482           neg.l d2
         0x0073b50e      9483           sub.l d3, d2
         0x0073b510      b486           cmp.l d6, d2
     < 0x0073b512      6302           bls.b 0x73b516
        0x0073b514      4e4f           trap 0xf
     > 0x0073b516      d483           add.l d3, d2
         0x0073b518      33820802       move.w d2, 0x2(a1, d0.l)
         0x0073b51c      5290           addq.l 0x1, (a0)
         0x0073b51e      5287           addq.l 0x1, d7
      < 0x0073b520      68b6           bvc.b 0x73b4d8
      > 0x0073b522      584f           addq.w 0x4, a7
           0x0073b524      2053           movea.l (a3), a0
           0x0073b526      2010           move.l (a0), d0
           0x0073b528      b084           cmp.l d4, d0
       < 0x0073b52a      6302           bls.b 0x73b52e
          0x0073b52c      4e4f           trap 0xf
       > 0x0073b52e      e580           asl.l 0x2, d0
           0x0073b530      2254           movea.l (a4), a1
           0x0073b532      13910800       move.b (a1), (a1, d0.l)
           0x0073b536      13a900010801   move.b 0x1(a1), 0x1(a1, d0.l)
           0x0073b53c      13a900020802   move.b 0x2(a1), 0x2(a1, d0.l)
           0x0073b542      13a900030803   move.b 0x3(a1), 0x3(a1, d0.l)
           0x0073b548      2254           movea.l (a4), a1
           0x0073b54a      2f10           move.l (a0), -(a7)
           0x0073b54c      7e00           moveq 0x0, d7
       > 0x0073b54e      be97           cmp.l (a7), d7
      < 0x0073b550      6e2e           bgt.b 0x73b580
         0x0073b552      2f2e0022       move.l 0x22(a6), -(a7)
         0x0073b556      2f2e001e       move.l 0x1e(a6), -(a7)
         0x0073b55a      2f2e001a       move.l 0x1a(a6), -(a7)
         0x0073b55e      2f2e0016       move.l 0x16(a6), -(a7)
         0x0073b562      2f2e0012       move.l 0x12(a6), -(a7)
         0x0073b566      be84           cmp.l d4, d7
     < 0x0073b568      6302           bls.b 0x73b56c
        0x0073b56a      4e4f           trap 0xf
     > 0x0073b56c      2007           move.l d7, d0
         0x0073b56e      e580           asl.l 0x2, d0
         0x0073b570      48710800       pea.l (a1, d0.l)
         0x0073b574      4ebaf85a       jsr GRAPHICCOM.rotate_and_cent(pc)
         0x0073b578      defc0018       adda.w 0x18, a7
         0x0073b57c      5287           addq.l 0x1, d7
      < 0x0073b57e      68ce           bvc.b 0x73b54e
      > 0x0073b580      584f           addq.w 0x4, a7
           0x0073b582      4a2e0010       tst.b 0x10(a6)
       < 0x0073b586      6736           beq.b 0x73b5be
          0x0073b588      2054           movea.l (a4), a0
          0x0073b58a      2253           movea.l (a3), a1
          0x0073b58c      2f11           move.l (a1), -(a7)
          0x0073b58e      7e00           moveq 0x0, d7
      > 0x0073b590      be97           cmp.l (a7), d7
     < 0x0073b592      6e28           bgt.b 0x73b5bc
        0x0073b594      be84           cmp.l d4, d7
    < 0x0073b596      6302           bls.b 0x73b59a
       0x0073b598      4e4f           trap 0xf
    > 0x0073b59a      2007           move.l d7, d0
        0x0073b59c      e580           asl.l 0x2, d0
        0x0073b59e      32300802       move.w 0x2(a0, d0.l), d1
        0x0073b5a2      48c1           ext.l d1
        0x0073b5a4      048100000400   subi.l 0x400, d1
        0x0073b5aa      9283           sub.l d3, d1
        0x0073b5ac      b286           cmp.l d6, d1
    < 0x0073b5ae      6302           bls.b 0x73b5b2
       0x0073b5b0      4e4f           trap 0xf
    > 0x0073b5b2      d283           add.l d3, d1
        0x0073b5b4      31810802       move.w d1, 0x2(a0, d0.l)
        0x0073b5b8      5287           addq.l 0x1, d7
     < 0x0073b5ba      68d4           bvc.b 0x73b590
     > 0x0073b5bc      584f           addq.w 0x4, a7
       > 0x0073b5be      4cdf1fff       movem.l (a7)+, d0-d7/a0-a4
           0x0073b5c2      4e5e           unlk a6
           0x0073b5c4      4e75           rts
 662: GRAPHICCOM.paint_ellipse ();
           0x0073b5c6      4e56ff9c       link.w a6, 0xff9c
           0x0073b5ca      bfd5           cmpa.l (a5), a7
       < 0x0073b5cc      6206           bhi.b 0x73b5d4
          0x0073b5ce      44fc0002       move.w 0x2, ccr
          0x0073b5d2      4e76           trapv
       > 0x0073b5d4      defc0058       adda.w 0x58, a7
           0x0073b5d8      48e7fff8       movem.l d0-d7/a0-a4, -(a7)
           0x0073b5dc      43eefff8       lea.l -0x8(a6), a1
           0x0073b5e0      45eefffa       lea.l -0x6(a6), a2
           0x0073b5e4      47ee0022       lea.l 0x22(a6), a3
           0x0073b5e8      49ee001e       lea.l 0x1e(a6), a4
           0x0073b5ec      243cffff8000   move.l 0xffff8000, d2
           0x0073b5f2      263c0000ffff   move.l 0xffff, d3
           0x0073b5f8      7828           moveq 0x28, d4
           0x0073b5fa      7a18           moveq 0x18, d5
           0x0073b5fc      2c3c00000400   move.l 0x400, d6
           0x0073b602      2013           move.l (a3), d0
           0x0073b604      b084           cmp.l d4, d0
       < 0x0073b606      6302           bls.b 0x73b60a
          0x0073b608      4e4f           trap 0xf
       > 0x0073b60a      e580           asl.l 0x2, d0
           0x0073b60c      2054           movea.l (a4), a0
           0x0073b60e      32300800       move.w (a0, d0.l), d1
           0x0073b612      48c1           ext.l d1
           0x0073b614      4481           neg.l d1
           0x0073b616      9282           sub.l d2, d1
           0x0073b618      b283           cmp.l d3, d1
       < 0x0073b61a      6302           bls.b 0x73b61e
          0x0073b61c      4e4f           trap 0xf
       > 0x0073b61e      d282           add.l d2, d1
           0x0073b620      3d41fff4       move.w d1, -0xc(a6)
           0x0073b624      32300802       move.w 0x2(a0, d0.l), d1
           0x0073b628      48c1           ext.l d1
           0x0073b62a      4481           neg.l d1
           0x0073b62c      9282           sub.l d2, d1
           0x0073b62e      b283           cmp.l d3, d1
       < 0x0073b630      6302           bls.b 0x73b634
          0x0073b632      4e4f           trap 0xf
       > 0x0073b634      d282           add.l d2, d1
           0x0073b636      3d41fff6       move.w d1, -0xa(a6)
           0x0073b63a      2f2e0014       move.l 0x14(a6), -(a7)
           0x0073b63e      2f2e0010       move.l 0x10(a6), -(a7)
           0x0073b642      2f2e000c       move.l 0xc(a6), -(a7)
           0x0073b646      2f2e0008       move.l 0x8(a6), -(a7)
           0x0073b64a      2f2e0018       move.l 0x18(a6), -(a7)
           0x0073b64e      486efff4       pea.l -0xc(a6)
           0x0073b652      4ebaf77c       jsr GRAPHICCOM.rotate_and_cent(pc)
           0x0073b656      dec5           adda.w d5, a7
           0x0073b658      4a2e001c       tst.b 0x1c(a6)
       < 0x0073b65c      6716           beq.b 0x73b674
          0x0073b65e      302efff6       move.w -0xa(a6), d0
          0x0073b662      48c0           ext.l d0
          0x0073b664      9086           sub.l d6, d0
          0x0073b666      9082           sub.l d2, d0
          0x0073b668      b083           cmp.l d3, d0
      < 0x0073b66a      6302           bls.b 0x73b66e
         0x0073b66c      4e4f           trap 0xf
      > 0x0073b66e      d082           add.l d2, d0
          0x0073b670      3d40fff6       move.w d0, -0xa(a6)
       > 0x0073b674      2f2efff4       move.l -0xc(a6), -(a7)
           0x0073b678      4eb900635510   jsr asm_start_line
           0x0073b67e      584f           addq.w 0x4, a7
           0x0073b680      2054           movea.l (a4), a0
           0x0073b682      2013           move.l (a3), d0
           0x0073b684      5380           subq.l 0x1, d0
           0x0073b686      2e00           move.l d0, d7
       > 0x0073b688      4a87           tst.l d7
      < 0x0073b68a      6d66           blt.b 0x73b6f2
         0x0073b68c      be84           cmp.l d4, d7
     < 0x0073b68e      6302           bls.b 0x73b692
        0x0073b690      4e4f           trap 0xf
     > 0x0073b692      2007           move.l d7, d0
         0x0073b694      e580           asl.l 0x2, d0
         0x0073b696      32b00800       move.w (a0, d0.l), (a1)
         0x0073b69a      32300802       move.w 0x2(a0, d0.l), d1
         0x0073b69e      48c1           ext.l d1
         0x0073b6a0      4481           neg.l d1
         0x0073b6a2      9282           sub.l d2, d1
         0x0073b6a4      b283           cmp.l d3, d1
     < 0x0073b6a6      6302           bls.b 0x73b6aa
        0x0073b6a8      4e4f           trap 0xf
     > 0x0073b6aa      d282           add.l d2, d1
         0x0073b6ac      3481           move.w d1, (a2)
         0x0073b6ae      2f2e0014       move.l 0x14(a6), -(a7)
         0x0073b6b2      2f2e0010       move.l 0x10(a6), -(a7)
         0x0073b6b6      2f2e000c       move.l 0xc(a6), -(a7)
         0x0073b6ba      2f2e0008       move.l 0x8(a6), -(a7)
         0x0073b6be      2f2e0018       move.l 0x18(a6), -(a7)
         0x0073b6c2      4851           pea.l (a1)
         0x0073b6c4      4ebaf70a       jsr GRAPHICCOM.rotate_and_cent(pc)
         0x0073b6c8      dec5           adda.w d5, a7
         0x0073b6ca      4a2e001c       tst.b 0x1c(a6)
     < 0x0073b6ce      6712           beq.b 0x73b6e2
        0x0073b6d0      3012           move.w (a2), d0
        0x0073b6d2      48c0           ext.l d0
        0x0073b6d4      9086           sub.l d6, d0
        0x0073b6d6      9082           sub.l d2, d0
        0x0073b6d8      b083           cmp.l d3, d0
    < 0x0073b6da      6302           bls.b 0x73b6de
       0x0073b6dc      4e4f           trap 0xf
    > 0x0073b6de      d082           add.l d2, d0
        0x0073b6e0      3480           move.w d0, (a2)
     > 0x0073b6e2      2f11           move.l (a1), -(a7)
         0x0073b6e4      4227           clr.b -(a7)
         0x0073b6e6      4eb9006355c0   jsr asm_paint_draw_to
         0x0073b6ec      5c4f           addq.w 0x6, a7
         0x0073b6ee      5387           subq.l 0x1, d7
      < 0x0073b6f0      6896           bvc.b 0x73b688
      > 0x0073b6f2      2054           movea.l (a4), a0
           0x0073b6f4      7e01           moveq 0x1, d7
       > 0x0073b6f6      be93           cmp.l (a3), d7
      < 0x0073b6f8      6e56           bgt.b 0x73b750
         0x0073b6fa      be84           cmp.l d4, d7
     < 0x0073b6fc      6302           bls.b 0x73b700
        0x0073b6fe      4e4f           trap 0xf
     > 0x0073b700      2007           move.l d7, d0
         0x0073b702      e580           asl.l 0x2, d0
         0x0073b704      32b00800       move.w (a0, d0.l), (a1)
         0x0073b708      34b00802       move.w 0x2(a0, d0.l), (a2)
         0x0073b70c      2f2e0014       move.l 0x14(a6), -(a7)
         0x0073b710      2f2e0010       move.l 0x10(a6), -(a7)
         0x0073b714      2f2e000c       move.l 0xc(a6), -(a7)
         0x0073b718      2f2e0008       move.l 0x8(a6), -(a7)
         0x0073b71c      2f2e0018       move.l 0x18(a6), -(a7)
         0x0073b720      4851           pea.l (a1)
         0x0073b722      4ebaf6ac       jsr GRAPHICCOM.rotate_and_cent(pc)
         0x0073b726      dec5           adda.w d5, a7
         0x0073b728      4a2e001c       tst.b 0x1c(a6)
     < 0x0073b72c      6712           beq.b 0x73b740
        0x0073b72e      3012           move.w (a2), d0
        0x0073b730      48c0           ext.l d0
        0x0073b732      9086           sub.l d6, d0
        0x0073b734      9082           sub.l d2, d0
        0x0073b736      b083           cmp.l d3, d0
    < 0x0073b738      6302           bls.b 0x73b73c
       0x0073b73a      4e4f           trap 0xf
    > 0x0073b73c      d082           add.l d2, d0
        0x0073b73e      3480           move.w d0, (a2)
     > 0x0073b740      2f11           move.l (a1), -(a7)
         0x0073b742      4227           clr.b -(a7)
         0x0073b744      4eb9006355c0   jsr asm_paint_draw_to
         0x0073b74a      5c4f           addq.w 0x6, a7
         0x0073b74c      5287           addq.l 0x1, d7
      < 0x0073b74e      68a6           bvc.b 0x73b6f6
      > 0x0073b750      2054           movea.l (a4), a0
           0x0073b752      2013           move.l (a3), d0
           0x0073b754      5380           subq.l 0x1, d0
           0x0073b756      2e00           move.l d0, d7
       > 0x0073b758      4a87           tst.l d7
      < 0x0073b75a      6d66           blt.b 0x73b7c2
         0x0073b75c      be84           cmp.l d4, d7
     < 0x0073b75e      6302           bls.b 0x73b762
        0x0073b760      4e4f           trap 0xf
     > 0x0073b762      2007           move.l d7, d0
         0x0073b764      e580           asl.l 0x2, d0
         0x0073b766      32300800       move.w (a0, d0.l), d1
         0x0073b76a      48c1           ext.l d1
         0x0073b76c      4481           neg.l d1
         0x0073b76e      9282           sub.l d2, d1
         0x0073b770      b283           cmp.l d3, d1
     < 0x0073b772      6302           bls.b 0x73b776
        0x0073b774      4e4f           trap 0xf
     > 0x0073b776      d282           add.l d2, d1
         0x0073b778      3281           move.w d1, (a1)
         0x0073b77a      34b00802       move.w 0x2(a0, d0.l), (a2)
         0x0073b77e      2f2e0014       move.l 0x14(a6), -(a7)
         0x0073b782      2f2e0010       move.l 0x10(a6), -(a7)
         0x0073b786      2f2e000c       move.l 0xc(a6), -(a7)
         0x0073b78a      2f2e0008       move.l 0x8(a6), -(a7)
         0x0073b78e      2f2e0018       move.l 0x18(a6), -(a7)
         0x0073b792      4851           pea.l (a1)
         0x0073b794      4ebaf63a       jsr GRAPHICCOM.rotate_and_cent(pc)
         0x0073b798      dec5           adda.w d5, a7
         0x0073b79a      4a2e001c       tst.b 0x1c(a6)
     < 0x0073b79e      6712           beq.b 0x73b7b2
        0x0073b7a0      3012           move.w (a2), d0
        0x0073b7a2      48c0           ext.l d0
        0x0073b7a4      9086           sub.l d6, d0
        0x0073b7a6      9082           sub.l d2, d0
        0x0073b7a8      b083           cmp.l d3, d0
    < 0x0073b7aa      6302           bls.b 0x73b7ae
       0x0073b7ac      4e4f           trap 0xf
    > 0x0073b7ae      d082           add.l d2, d0
        0x0073b7b0      3480           move.w d0, (a2)
     > 0x0073b7b2      2f11           move.l (a1), -(a7)
         0x0073b7b4      4227           clr.b -(a7)
         0x0073b7b6      4eb9006355c0   jsr asm_paint_draw_to
         0x0073b7bc      5c4f           addq.w 0x6, a7
         0x0073b7be      5387           subq.l 0x1, d7
      < 0x0073b7c0      6896           bvc.b 0x73b758
      > 0x0073b7c2      2054           movea.l (a4), a0
           0x0073b7c4      2f13           move.l (a3), -(a7)
           0x0073b7c6      5397           subq.l 0x1, (a7)
           0x0073b7c8      7e01           moveq 0x1, d7
       > 0x0073b7ca      be97           cmp.l (a7), d7
      < 0x0073b7cc      6e76           bgt.b 0x73b844
         0x0073b7ce      be84           cmp.l d4, d7
     < 0x0073b7d0      6302           bls.b 0x73b7d4
        0x0073b7d2      4e4f           trap 0xf
     > 0x0073b7d4      2007           move.l d7, d0
         0x0073b7d6      e580           asl.l 0x2, d0
         0x0073b7d8      32300800       move.w (a0, d0.l), d1
         0x0073b7dc      48c1           ext.l d1
         0x0073b7de      4481           neg.l d1
         0x0073b7e0      9282           sub.l d2, d1
         0x0073b7e2      b283           cmp.l d3, d1
     < 0x0073b7e4      6302           bls.b 0x73b7e8
        0x0073b7e6      4e4f           trap 0xf
     > 0x0073b7e8      d282           add.l d2, d1
         0x0073b7ea      3281           move.w d1, (a1)
         0x0073b7ec      32300802       move.w 0x2(a0, d0.l), d1
         0x0073b7f0      48c1           ext.l d1
         0x0073b7f2      4481           neg.l d1
         0x0073b7f4      9282           sub.l d2, d1
         0x0073b7f6      b283           cmp.l d3, d1
     < 0x0073b7f8      6302           bls.b 0x73b7fc
        0x0073b7fa      4e4f           trap 0xf
     > 0x0073b7fc      d282           add.l d2, d1
         0x0073b7fe      3481           move.w d1, (a2)
         0x0073b800      2f2e0014       move.l 0x14(a6), -(a7)
         0x0073b804      2f2e0010       move.l 0x10(a6), -(a7)
         0x0073b808      2f2e000c       move.l 0xc(a6), -(a7)
         0x0073b80c      2f2e0008       move.l 0x8(a6), -(a7)
         0x0073b810      2f2e0018       move.l 0x18(a6), -(a7)
         0x0073b814      4851           pea.l (a1)
         0x0073b816      4ebaf5b8       jsr GRAPHICCOM.rotate_and_cent(pc)
         0x0073b81a      dec5           adda.w d5, a7
         0x0073b81c      4a2e001c       tst.b 0x1c(a6)
     < 0x0073b820      6712           beq.b 0x73b834
        0x0073b822      3012           move.w (a2), d0
        0x0073b824      48c0           ext.l d0
        0x0073b826      9086           sub.l d6, d0
        0x0073b828      9082           sub.l d2, d0
        0x0073b82a      b083           cmp.l d3, d0
    < 0x0073b82c      6302           bls.b 0x73b830
       0x0073b82e      4e4f           trap 0xf
    > 0x0073b830      d082           add.l d2, d0
        0x0073b832      3480           move.w d0, (a2)
     > 0x0073b834      2f11           move.l (a1), -(a7)
         0x0073b836      4227           clr.b -(a7)
         0x0073b838      4eb9006355c0   jsr asm_paint_draw_to
         0x0073b83e      5c4f           addq.w 0x6, a7
         0x0073b840      5287           addq.l 0x1, d7
      < 0x0073b842      6886           bvc.b 0x73b7ca
      > 0x0073b844      2eaefff4       move.l -0xc(a6), (a7)
           0x0073b848      1f3c0001       move.b 0x1, -(a7)
           0x0073b84c      4eb9006355c0   jsr asm_paint_draw_to
           0x0073b852      5c4f           addq.w 0x6, a7
           0x0073b854      4cdf1fff       movem.l (a7)+, d0-d7/a0-a4
           0x0073b858      4e5e           unlk a6
           0x0073b85a      4e75           rts
 230: GRAPHICCOM.get_rect_segmen ();
           0x0073b85c      4e56ffdc       link.w a6, 0xffdc
           0x0073b860      bfd5           cmpa.l (a5), a7
       < 0x0073b862      6206           bhi.b 0x73b86a
          0x0073b864      44fc0002       move.w 0x2, ccr
          0x0073b868      4e76           trapv
       > 0x0073b86a      defc0024       adda.w 0x24, a7
           0x0073b86e      48e7f880       movem.l d0-d4/a0, -(a7)
           0x0073b872      263cffff8000   move.l 0xffff8000, d3
           0x0073b878      283c0000ffff   move.l 0xffff, d4
           0x0073b87e      302e0016       move.w 0x16(a6), d0
           0x0073b882      48c0           ext.l d0
           0x0073b884      048000000080   subi.l 0x80, d0
           0x0073b88a      9083           sub.l d3, d0
           0x0073b88c      b084           cmp.l d4, d0
       < 0x0073b88e      6302           bls.b 0x73b892
          0x0073b890      4e4f           trap 0xf
       > 0x0073b892      d083           add.l d3, d0
           0x0073b894      3d400016       move.w d0, 0x16(a6)
           0x0073b898      322e0012       move.w 0x12(a6), d1
           0x0073b89c      48c1           ext.l d1
           0x0073b89e      048100000080   subi.l 0x80, d1
           0x0073b8a4      9283           sub.l d3, d1
           0x0073b8a6      b284           cmp.l d4, d1
       < 0x0073b8a8      6302           bls.b 0x73b8ac
          0x0073b8aa      4e4f           trap 0xf
       > 0x0073b8ac      d283           add.l d3, d1
           0x0073b8ae      3d410012       move.w d1, 0x12(a6)
           0x0073b8b2      206e000c       movea.l 0xc(a6), a0
           0x0073b8b6      20bc00000004   move.l 0x4, (a0)
           0x0073b8bc      206e0008       movea.l 0x8(a6), a0
           0x0073b8c0      342e0014       move.w 0x14(a6), d2
           0x0073b8c4      48c2           ext.l d2
           0x0073b8c6      e782           asl.l 0x3, d2
           0x0073b8c8      9483           sub.l d3, d2
           0x0073b8ca      b484           cmp.l d4, d2
       < 0x0073b8cc      6302           bls.b 0x73b8d0
          0x0073b8ce      4e4f           trap 0xf
       > 0x0073b8d0      d483           add.l d3, d2
           0x0073b8d2      3082           move.w d2, (a0)
           0x0073b8d4      48c0           ext.l d0
           0x0073b8d6      e780           asl.l 0x3, d0
           0x0073b8d8      9083           sub.l d3, d0
           0x0073b8da      b084           cmp.l d4, d0
       < 0x0073b8dc      6302           bls.b 0x73b8e0
          0x0073b8de      4e4f           trap 0xf
       > 0x0073b8e0      d083           add.l d3, d0
           0x0073b8e2      31400002       move.w d0, 0x2(a0)
           0x0073b8e6      302e0010       move.w 0x10(a6), d0
           0x0073b8ea      48c0           ext.l d0
           0x0073b8ec      e780           asl.l 0x3, d0
           0x0073b8ee      9083           sub.l d3, d0
           0x0073b8f0      b084           cmp.l d4, d0
       < 0x0073b8f2      6302           bls.b 0x73b8f6
          0x0073b8f4      4e4f           trap 0xf
       > 0x0073b8f6      d083           add.l d3, d0
           0x0073b8f8      31400004       move.w d0, 0x4(a0)
           0x0073b8fc      316800020006   move.w 0x2(a0), 0x6(a0)
           0x0073b902      316800040008   move.w 0x4(a0), 0x8(a0)
           0x0073b908      48c1           ext.l d1
           0x0073b90a      e781           asl.l 0x3, d1
           0x0073b90c      9283           sub.l d3, d1
           0x0073b90e      b284           cmp.l d4, d1
       < 0x0073b910      6302           bls.b 0x73b914
          0x0073b912      4e4f           trap 0xf
       > 0x0073b914      d283           add.l d3, d1
           0x0073b916      3141000a       move.w d1, 0xa(a0)
           0x0073b91a      3150000c       move.w (a0), 0xc(a0)
           0x0073b91e      3168000a000e   move.w 0xa(a0), 0xe(a0)
           0x0073b924      11500010       move.b (a0), 0x10(a0)
           0x0073b928      116800010011   move.b 0x1(a0), 0x11(a0)
           0x0073b92e      116800020012   move.b 0x2(a0), 0x12(a0)
           0x0073b934      116800030013   move.b 0x3(a0), 0x13(a0)
           0x0073b93a      4cdf011f       movem.l (a7)+, d0-d4/a0
           0x0073b93e      4e5e           unlk a6
           0x0073b940      4e75           rts
 210: GRAPHICCOM.get_line_segmen ();
           0x0073b942      4e56ffdc       link.w a6, 0xffdc
           0x0073b946      bfd5           cmpa.l (a5), a7
       < 0x0073b948      6206           bhi.b 0x73b950
          0x0073b94a      44fc0002       move.w 0x2, ccr
          0x0073b94e      4e76           trapv
       > 0x0073b950      defc0024       adda.w 0x24, a7
           0x0073b954      48e7f880       movem.l d0-d4/a0, -(a7)
           0x0073b958      263cffff8000   move.l 0xffff8000, d3
           0x0073b95e      283c0000ffff   move.l 0xffff, d4
           0x0073b964      302e0016       move.w 0x16(a6), d0
           0x0073b968      48c0           ext.l d0
           0x0073b96a      048000000080   subi.l 0x80, d0
           0x0073b970      9083           sub.l d3, d0
           0x0073b972      b084           cmp.l d4, d0
       < 0x0073b974      6302           bls.b 0x73b978
          0x0073b976      4e4f           trap 0xf
       > 0x0073b978      d083           add.l d3, d0
           0x0073b97a      3d400016       move.w d0, 0x16(a6)
           0x0073b97e      322e0012       move.w 0x12(a6), d1
           0x0073b982      48c1           ext.l d1
           0x0073b984      048100000080   subi.l 0x80, d1
           0x0073b98a      9283           sub.l d3, d1
           0x0073b98c      b284           cmp.l d4, d1
       < 0x0073b98e      6302           bls.b 0x73b992
          0x0073b990      4e4f           trap 0xf
       > 0x0073b992      d283           add.l d3, d1
           0x0073b994      3d410012       move.w d1, 0x12(a6)
           0x0073b998      206e000c       movea.l 0xc(a6), a0
           0x0073b99c      20bc00000002   move.l 0x2, (a0)
           0x0073b9a2      206e0008       movea.l 0x8(a6), a0
           0x0073b9a6      342e0014       move.w 0x14(a6), d2
           0x0073b9aa      48c2           ext.l d2
           0x0073b9ac      e782           asl.l 0x3, d2
           0x0073b9ae      9483           sub.l d3, d2
           0x0073b9b0      b484           cmp.l d4, d2
       < 0x0073b9b2      6302           bls.b 0x73b9b6
          0x0073b9b4      4e4f           trap 0xf
       > 0x0073b9b6      d483           add.l d3, d2
           0x0073b9b8      3082           move.w d2, (a0)
           0x0073b9ba      48c0           ext.l d0
           0x0073b9bc      e780           asl.l 0x3, d0
           0x0073b9be      9083           sub.l d3, d0
           0x0073b9c0      b084           cmp.l d4, d0
       < 0x0073b9c2      6302           bls.b 0x73b9c6
          0x0073b9c4      4e4f           trap 0xf
       > 0x0073b9c6      d083           add.l d3, d0
           0x0073b9c8      31400002       move.w d0, 0x2(a0)
           0x0073b9cc      302e0010       move.w 0x10(a6), d0
           0x0073b9d0      48c0           ext.l d0
           0x0073b9d2      e780           asl.l 0x3, d0
           0x0073b9d4      9083           sub.l d3, d0
           0x0073b9d6      b084           cmp.l d4, d0
       < 0x0073b9d8      6302           bls.b 0x73b9dc
          0x0073b9da      4e4f           trap 0xf
       > 0x0073b9dc      d083           add.l d3, d0
           0x0073b9de      31400004       move.w d0, 0x4(a0)
           0x0073b9e2      48c1           ext.l d1
           0x0073b9e4      e781           asl.l 0x3, d1
           0x0073b9e6      9283           sub.l d3, d1
           0x0073b9e8      b284           cmp.l d4, d1
       < 0x0073b9ea      6302           bls.b 0x73b9ee
          0x0073b9ec      4e4f           trap 0xf
       > 0x0073b9ee      d283           add.l d3, d1
           0x0073b9f0      31410006       move.w d1, 0x6(a0)
           0x0073b9f4      116800040008   move.b 0x4(a0), 0x8(a0)
           0x0073b9fa      116800050009   move.b 0x5(a0), 0x9(a0)
           0x0073ba00      11680006000a   move.b 0x6(a0), 0xa(a0)
           0x0073ba06      11680007000b   move.b 0x7(a0), 0xb(a0)
           0x0073ba0c      4cdf011f       movem.l (a7)+, d0-d4/a0
           0x0073ba10      4e5e           unlk a6
           0x0073ba12      4e75           rts
 248: GRAPHICCOM.calc_angle_coef ();
           0x0073ba14      4e56ffb0       link.w a6, 0xffb0
           0x0073ba18      bfd5           cmpa.l (a5), a7
       < 0x0073ba1a      6206           bhi.b 0x73ba22
          0x0073ba1c      44fc0002       move.w 0x2, ccr
          0x0073ba20      4e76           trapv
       > 0x0073ba22      defc004c       adda.w 0x4c, a7
           0x0073ba26      48e7d8f8       movem.l d0-d1/d3-d4/a0-a4, -(a7)
           0x0073ba2a      45ee0014       lea.l 0x14(a6), a2
           0x0073ba2e      47f900407e92   lea.l fcn.00407e92, a3
           0x0073ba34      49f900408686   lea.l fcn.00408686, a4
           0x0073ba3a      4a2e0020       tst.b 0x20(a6)
       < 0x0073ba3e      670a           beq.b 0x73ba4a
          0x0073ba40      2052           movea.l (a2), a0
          0x0073ba42      7800           moveq 0x0, d4
          0x0073ba44      4e94           jsr (a4)                    ; fcn.0000000d
          0x0073ba46      2084           move.l d4, (a0)
      < 0x0073ba48      6006           bra.b 0x73ba50
      > 0x0073ba4a      2052           movea.l (a2), a0
          0x0073ba4c      20ae001c       move.l 0x1c(a6), (a0)
      > 0x0073ba50      202e0018       move.l 0x18(a6), d0
           0x0073ba54      0c8000000001   cmpi.l 0x1, d0
       < 0x0073ba5a      660e           bne.b 0x73ba6a
          0x0073ba5c      2052           movea.l (a2), a0
          0x0073ba5e      2810           move.l (a0), d4
          0x0073ba60      263c40666666   move.l 0x40666666, d3
          0x0073ba66      4e93           jsr (a3)                    ; fcn.0000000c
          0x0073ba68      2084           move.l d4, (a0)
       > 0x0073ba6a      206e0008       movea.l 0x8(a6), a0
           0x0073ba6e      2252           movea.l (a2), a1
           0x0073ba70      2811           move.l (a1), d4
           0x0073ba72      263c40490fdb   move.l 0x40490fdb, d3
           0x0073ba78      4e93           jsr (a3)                    ; fcn.0000000c
           0x0073ba7a      263c43340000   move.l 0x43340000, d3
           0x0073ba80      4eb900407ff8   jsr fcn.00407ff8
           0x0073ba86      594f           subq.w 0x4, a7
           0x0073ba88      2f04           move.l d4, -(a7)
           0x0073ba8a      4eb900438824   jsr p_fcos
           0x0073ba90      584f           addq.w 0x4, a7
           0x0073ba92      209f           move.l (a7)+, (a0)
           0x0073ba94      206e0010       movea.l 0x10(a6), a0
           0x0073ba98      594f           subq.w 0x4, a7
           0x0073ba9a      2f04           move.l d4, -(a7)
           0x0073ba9c      4eb9004387fc   jsr p_fsin
           0x0073baa2      584f           addq.w 0x4, a7
           0x0073baa4      221f           move.l (a7)+, d1
           0x0073baa6      2081           move.l d1, (a0)
           0x0073baa8      0c8000000002   cmpi.l 0x2, d0
       < 0x0073baae      6c4e           bge.b 0x73bafe
          0x0073bab0      594f           subq.w 0x4, a7
          0x0073bab2      4eb900633bb2   jsr HANDCOM.get_pixel_aspec
          0x0073bab8      2d5ffffc       move.l (a7)+, -0x4(a6)
          0x0073babc      226e000c       movea.l 0xc(a6), a1
          0x0073bac0      382efffc       move.w -0x4(a6), d4
          0x0073bac4      48c4           ext.l d4
          0x0073bac6      4e94           jsr (a4)                    ; fcn.0000000d
          0x0073bac8      2f04           move.l d4, -(a7)
          0x0073baca      2601           move.l d1, d3
          0x0073bacc      4e93           jsr (a3)                    ; fcn.0000000c
          0x0073bace      2f04           move.l d4, -(a7)
          0x0073bad0      382efffe       move.w -0x2(a6), d4
          0x0073bad4      48c4           ext.l d4
          0x0073bad6      4e94           jsr (a4)                    ; fcn.0000000d
          0x0073bad8      2f04           move.l d4, -(a7)
          0x0073bada      2604           move.l d4, d3
          0x0073badc      282f0004       move.l 0x4(a7), d4
          0x0073bae0      4eb900407ff8   jsr fcn.00407ff8
          0x0073bae6      2284           move.l d4, (a1)
          0x0073bae8      2801           move.l d1, d4
          0x0073baea      261f           move.l (a7)+, d3
          0x0073baec      4e93           jsr (a3)                    ; fcn.0000000c
          0x0073baee      584f           addq.w 0x4, a7
          0x0073baf0      2617           move.l (a7), d3
          0x0073baf2      4eb900407ff8   jsr fcn.00407ff8
          0x0073baf8      584f           addq.w 0x4, a7
          0x0073bafa      2084           move.l d4, (a0)
      < 0x0073bafc      6006           bra.b 0x73bb04
      > 0x0073bafe      206e000c       movea.l 0xc(a6), a0
          0x0073bb02      2081           move.l d1, (a0)
      > 0x0073bb04      4cdf1f1b       movem.l (a7)+, d0-d1/d3-d4/a0-a4
           0x0073bb08      4e5e           unlk a6
           0x0073bb0a      4e75           rts
            ; CALL XREF from MENUGRAPHICCOM.draw_graphic @ 0x733622
 584: GRAPHICCOM.do_draw_graphic ();
           0x0073bb0c      4e56f990       link.w a6, 0xf990
           0x0073bb10      bfd5           cmpa.l (a5), a7
       < 0x0073bb12      6206           bhi.b 0x73bb1a
          0x0073bb14      44fc0002       move.w 0x2, ccr
          0x0073bb18      4e76           trapv
       > 0x0073bb1a      defc02cc       adda.w 0x2cc, a7
           0x0073bb1e      48e7fff8       movem.l d0-d7/a0-a4, -(a7)
           0x0073bb22      49ee006e       lea.l 0x6e(a6), a4
           0x0073bb26      7601           moveq 0x1, d3
           0x0073bb28      7803           moveq 0x3, d4
           0x0073bb2a      206e0010       movea.l 0x10(a6), a0
           0x0073bb2e      4210           clr.b (a0)
           0x0073bb30      226e000c       movea.l 0xc(a6), a1
           0x0073bb34      4211           clr.b (a1)
           0x0073bb36      554f           subq.w 0x2, a7
           0x0073bb38      486efc5c       pea.l -0x3a4(a6)
           0x0073bb3c      4eb900404434   jsr fcn.00404434
           0x0073bb42      584f           addq.w 0x4, a7
           0x0073bb44      4a1f           tst.b (a7)+
       < 0x0073bb46      67000616       beq.w 0x73c15e
          0x0073bb4a      4a2e006c       tst.b 0x6c(a6)
      < 0x0073bb4e      6718           beq.b 0x73bb68
         0x0073bb50      102e007c       move.b 0x7c(a6), d0
         0x0073bb54      b003           cmp.b d3, d0
     < 0x0073bb56      6610           bne.b 0x73bb68
        0x0073bb58      102e007e       move.b 0x7e(a6), d0
        0x0073bb5c      4880           ext.w d0
        0x0073bb5e      013ae486       btst.l d0, 0x739fe6(pc)
    < 0x0073bb62      6704           beq.b 0x73bb68
       0x0073bb64      422e007c       clr.b 0x7c(a6)
    > 0x0073bb68      4a2e007c       tst.b 0x7c(a6)
      < 0x0073bb6c      6624           bne.b 0x73bb92
         0x0073bb6e      2f2e001a       move.l 0x1a(a6), -(a7)
         0x0073bb72      9efc0100       suba.w 0x100, a7
         0x0073bb76      244f           movea.l a7, a2
         0x0073bb78      47fae46d       lea.l 0x739fe7(pc), a3
         0x0073bb7c      700b           moveq 0xb, d0
     > 0x0073bb7e      14db           move.b (a3)+, (a2)+
     < 0x0073bb80      51c8fffc       dbra d0, 0x73bb7e
         0x0073bb84      4eb900731662   jsr MENUGRAPHICCOM.start_flip
         0x0073bb8a      defc0104       adda.w 0x104, a7
     < 0x0073bb8e      60000086       bra.w 0x73bc16
     > 0x0073bb92      4a14           tst.b (a4)
     < 0x0073bb94      6608           bne.b 0x73bb9e
        0x0073bb96      102e007c       move.b 0x7c(a6), d0
        0x0073bb9a      b003           cmp.b d3, d0
    < 0x0073bb9c      6636           bne.b 0x73bbd4
    > 0x0073bb9e      1f03           move.b d3, -(a7)
        0x0073bba0      1f03           move.b d3, -(a7)
        0x0073bba2      2f3adb78       move.l 0x73971c(pc), -(a7)
        0x0073bba6      3f3adb72       move.w 0x73971a(pc), -(a7)
        0x0073bbaa      9efc0100       suba.w 0x100, a7
        0x0073bbae      244f           movea.l a7, a2
        0x0073bbb0      47fae441       lea.l 0x739ff3(pc), a3
        0x0073bbb4      700f           moveq 0xf, d0
    > 0x0073bbb6      14db           move.b (a3)+, (a2)+
    < 0x0073bbb8      51c8fffc       dbra d0, 0x73bbb6
        0x0073bbbc      4eb9007316f0   jsr MENUGRAPHICCOM.draw_flip
        0x0073bbc2      defc0108       adda.w 0x108, a7
        0x0073bbc6      1eae0014       move.b 0x14(a6), (a7)
        0x0073bbca      4eb900518dd8   jsr OUTCOM.set_out
        0x0073bbd0      544f           addq.w 0x2, a7
    < 0x0073bbd2      6042           bra.b 0x73bc16
    > 0x0073bbd4      4227           clr.b -(a7)
        0x0073bbd6      4227           clr.b -(a7)
        0x0073bbd8      102e007e       move.b 0x7e(a6), d0
        0x0073bbdc      4880           ext.w d0
        0x0073bbde      013ae444       btst.l d0, 0x73a024(pc)
    < 0x0073bbe2      6708           beq.b 0x73bbec
       0x0073bbe4      4a2e006c       tst.b 0x6c(a6)
   < 0x0073bbe8      6702           beq.b 0x73bbec
      0x0073bbea      5217           addq.b 0x1, (a7)
   > 0x0073bbec      2f3adb2e       move.l 0x73971c(pc), -(a7)
        0x0073bbf0      3f3adb28       move.w 0x73971a(pc), -(a7)
        0x0073bbf4      9efc0100       suba.w 0x100, a7
        0x0073bbf8      244f           movea.l a7, a2
        0x0073bbfa      47fae429       lea.l 0x73a025(pc), a3
        0x0073bbfe      7009           moveq 0x9, d0
    > 0x0073bc00      14db           move.b (a3)+, (a2)+
    < 0x0073bc02      51c8fffc       dbra d0, 0x73bc00
        0x0073bc06      4eb9007316f0   jsr MENUGRAPHICCOM.draw_flip
        0x0073bc0c      defc010a       adda.w 0x10a, a7
        0x0073bc10      4eb900518f96   jsr OUTCOM.normal_set_out
     > 0x0073bc16      4a2e007c       tst.b 0x7c(a6)
      < 0x0073bc1a      660a           bne.b 0x73bc26
         0x0073bc1c      2f2e0038       move.l 0x38(a6), -(a7)
         0x0073bc20      3f2e0036       move.w 0x36(a6), -(a7)
     < 0x0073bc24      601e           bra.b 0x73bc44
     > 0x0073bc26      4a14           tst.b (a4)
     < 0x0073bc28      6608           bne.b 0x73bc32
        0x0073bc2a      102e007c       move.b 0x7c(a6), d0
        0x0073bc2e      b003           cmp.b d3, d0
    < 0x0073bc30      660a           bne.b 0x73bc3c
    > 0x0073bc32      2f3adaee       move.l 0x739722(pc), -(a7)
        0x0073bc36      3f3adae8       move.w 0x739720(pc), -(a7)
    < 0x0073bc3a      6008           bra.b 0x73bc44
    > 0x0073bc3c      2f2e0020       move.l 0x20(a6), -(a7)
        0x0073bc40      3f2e001e       move.w 0x1e(a6), -(a7)
     > 0x0073bc44      4eb900520fa4   jsr BRUSHCOM.set_br_colour
          0x0073bc4a      5c4f           addq.w 0x6, a7
          0x0073bc4c      102e007e       move.b 0x7e(a6), d0
          0x0073bc50      b004           cmp.b d4, d0
      < 0x0073bc52      6d0e           blt.b 0x73bc62
         0x0073bc54      b004           cmp.b d4, d0
     < 0x0073bc56      6d06           blt.b 0x73bc5e
        0x0073bc58      0c000006       cmpi.b 0x6, d0
    < 0x0073bc5c      6f0c           ble.b 0x73bc6a
   > 0x0073bc5e      600000dc       bra.w 0x73bd3c
    > 0x0073bc62      b003           cmp.b d3, d0
    < 0x0073bc64      674c           beq.b 0x73bcb2
   < 0x0073bc66      600000d4       bra.w 0x73bd3c
   > 0x0073bc6a      322e007a       move.w 0x7a(a6), d1
       0x0073bc6e      48c1           ext.l d1
       0x0073bc70      068100000080   addi.l 0x80, d1
       0x0073bc76      3d41007a       move.w d1, 0x7a(a6)
       0x0073bc7a      322e0076       move.w 0x76(a6), d1
       0x0073bc7e      48c1           ext.l d1
       0x0073bc80      068100000080   addi.l 0x80, d1
       0x0073bc86      3d410076       move.w d1, 0x76(a6)
       0x0073bc8a      514f           subq.w 0x8, a7
       0x0073bc8c      2f2e0078       move.l 0x78(a6), -(a7)
       0x0073bc90      2f2e0074       move.l 0x74(a6), -(a7)
       0x0073bc94      4eb900732782   jsr MENUGRAPHICCOM.define_area
       0x0073bc9a      504f           addq.w 0x8, a7
       0x0073bc9c      2d5fffce       move.l (a7)+, -0x32(a6)
       0x0073bca0      2d5fffd2       move.l (a7)+, -0x2e(a6)
       0x0073bca4      7a00           moveq 0x0, d5
       0x0073bca6      0c000004       cmpi.b 0x4, d0
   < 0x0073bcaa      6602           bne.b 0x73bcae
      0x0073bcac      5205           addq.b 0x1, d5
  > 0x0073bcae      6000008c       bra.w 0x73bd3c
   > 0x0073bcb2      1f2e0066       move.b 0x66(a6), -(a7)
       0x0073bcb6      1f2e0072       move.b 0x72(a6), -(a7)
       0x0073bcba      1f2e0064       move.b 0x64(a6), -(a7)
       0x0073bcbe      2f2e004a       move.l 0x4a(a6), -(a7)
       0x0073bcc2      2f2e0078       move.l 0x78(a6), -(a7)
       0x0073bcc6      2f2e0074       move.l 0x74(a6), -(a7)
       0x0073bcca      2f2e0016       move.l 0x16(a6), -(a7)
       0x0073bcce      2f2e0052       move.l 0x52(a6), -(a7)
       0x0073bcd2      2f2e0056       move.l 0x56(a6), -(a7)
       0x0073bcd6      2f2e004e       move.l 0x4e(a6), -(a7)
       0x0073bcda      2f2e005a       move.l 0x5a(a6), -(a7)
       0x0073bcde      486effd6       pea.l -0x2a(a6)
       0x0073bce2      486effda       pea.l -0x26(a6)
       0x0073bce6      4851           pea.l (a1)
       0x0073bce8      246e0008       movea.l 0x8(a6), a2
       0x0073bcec      4852           pea.l (a2)
       0x0073bcee      4ebaf3b6       jsr GRAPHICCOM.get_ellipse_par(pc)
       0x0073bcf2      defc0036       adda.w 0x36, a7
       0x0073bcf6      322effd6       move.w -0x2a(a6), d1
       0x0073bcfa      48c1           ext.l d1
       0x0073bcfc      342effda       move.w -0x26(a6), d2
       0x0073bd00      48c2           ext.l d2
       0x0073bd02      4482           neg.l d2
       0x0073bd04      d481           add.l d1, d2
       0x0073bd06      2e02           move.l d2, d7
       0x0073bd08      322effd8       move.w -0x28(a6), d1
       0x0073bd0c      48c1           ext.l d1
       0x0073bd0e      342effdc       move.w -0x24(a6), d2
       0x0073bd12      48c2           ext.l d2
       0x0073bd14      4482           neg.l d2
       0x0073bd16      d481           add.l d1, d2
       0x0073bd18      2c02           move.l d2, d6
       0x0073bd1a      2f07           move.l d7, -(a7)
       0x0073bd1c      2f06           move.l d6, -(a7)
       0x0073bd1e      2f2e0046       move.l 0x46(a6), -(a7)
       0x0073bd22      4227           clr.b -(a7)
       0x0073bd24      4a2e007c       tst.b 0x7c(a6)
   < 0x0073bd28      6602           bne.b 0x73bd2c
      0x0073bd2a      5217           addq.b 0x1, (a7)
   > 0x0073bd2c      486eff2a       pea.l -0xd6(a6)
       0x0073bd30      486effe2       pea.l -0x1e(a6)
       0x0073bd34      4ebaf1b2       jsr GRAPHICCOM.calc_quad_segme(pc)
       0x0073bd38      defc0016       adda.w 0x16, a7
  > 0x0073bd3c      122e007c       move.b 0x7c(a6), d1
          0x0073bd40      4881           ext.w d1
          0x0073bd42      3401           move.w d1, d2
          0x0073bd44      b444           cmp.w d4, d2
      < 0x0073bd46      6302           bls.b 0x73bd4a
         0x0073bd48      4e4e           trap 0xe
      > 0x0073bd4a      d442           add.w d2, d2
          0x0073bd4c      343b2006       move.w 0x73bd54(pc, d2.w), d2
          0x0073bd50      4efb2002       jmp 0x73bd54(pc, d2.w)
           0x0073bd54      000801a0       
           0x0073bd55      0801a001       
           0x0073bd56      01a0           bclr.b d0, -(a0)
           0x0073bd58      01a0           bclr.b d0, -(a0)
           0x0073bd5a      03e2           bset.b d1, -(a2)
           0x0073bd5c      4880           ext.w d0
           0x0073bd5e      3400           move.w d0, d2
           0x0073bd60      5342           subq.w 0x1, d2
           0x0073bd62      0c420005       cmpi.w 0x5, d2
       < 0x0073bd66      62000178       bhi.w 0x73bee0
          0x0073bd6a      d442           add.w d2, d2
          0x0073bd6c      343b2006       move.w 0x73bd74(pc, d2.w), d2
          0x0073bd70      4efb2002       jmp 0x73bd74(pc, d2.w)
          0x0073bd74      0044000c       ori.w 0xc, d4
          0x0073bd78      00ae01180118.  ori.l 0x1180118, 0xd8(a6)
          0x0073bd80      2f2e0078       move.l 0x78(a6), -(a7)
          0x0073bd84      2f2e0074       move.l 0x74(a6), -(a7)
          0x0073bd88      486effde       pea.l -0x22(a6)
          0x0073bd8c      486efca6       pea.l -0x35a(a6)
          0x0073bd90      4ebafbb0       jsr GRAPHICCOM.get_line_segmen(pc)
          0x0073bd94      defc0010       adda.w 0x10, a7
          0x0073bd98      45eeff2a       lea.l -0xd6(a6), a2
          0x0073bd9c      343c00a0       move.w 0xa0, d2
      > 0x0073bda0      2f22           move.l -(a2), -(a7)
      < 0x0073bda2      51cafffc       dbra d2, 0x73bda0
     > 0x0073bda6      2f2effde       move.l -0x22(a6), -(a7)
        0x0073bdaa      4eb900732e50   jsr MENUGRAPHICCOM.do_draw_rubber_
        0x0073bdb0      defc0288       adda.w 0x288, a7
    < 0x0073bdb4      6000012a       bra.w 0x73bee0
       0x0073bdb8      1f2e0072       move.b 0x72(a6), -(a7)
       0x0073bdbc      246e0008       movea.l 0x8(a6), a2
       0x0073bdc0      2f12           move.l (a2), -(a7)
       0x0073bdc2      2f2e004a       move.l 0x4a(a6), -(a7)
       0x0073bdc6      486effee       pea.l -0x12(a6)
       0x0073bdca      486efff6       pea.l -0xa(a6)
       0x0073bdce      486efffa       pea.l -0x6(a6)
       0x0073bdd2      486efff2       pea.l -0xe(a6)
       0x0073bdd6      4ebafc3c       jsr GRAPHICCOM.calc_angle_coef(pc)
       0x0073bdda      defc0016       adda.w 0x16, a7
       0x0073bdde      2eaeffe2       move.l -0x1e(a6), (a7)
       0x0073bde2      486eff2a       pea.l -0xd6(a6)
       0x0073bde6      2f2effee       move.l -0x12(a6), -(a7)
       0x0073bdea      2f2efff6       move.l -0xa(a6), -(a7)
       0x0073bdee      2f2efff2       move.l -0xe(a6), -(a7)
       0x0073bdf2      2f2efffa       move.l -0x6(a6), -(a7)
       0x0073bdf6      2f2effd6       move.l -0x2a(a6), -(a7)
       0x0073bdfa      4227           clr.b -(a7)
       0x0073bdfc      4a41           tst.w d1
   < 0x0073bdfe      6602           bne.b 0x73be02
      0x0073be00      5217           addq.b 0x1, (a7)
   > 0x0073be02      486effde       pea.l -0x22(a6)
       0x0073be06      486efca6       pea.l -0x35a(a6)
       0x0073be0a      4ebaf5c0       jsr GRAPHICCOM.get_ellipse_seg(pc)
       0x0073be0e      defc0026       adda.w 0x26, a7
       0x0073be12      45eeff2a       lea.l -0xd6(a6), a2
       0x0073be16      343c00a0       move.w 0xa0, d2
   > 0x0073be1a      2f22           move.l -(a2), -(a7)
   < 0x0073be1c      51cafffc       dbra d2, 0x73be1a
    < 0x0073be20      6084           bra.b 0x73bda6
        0x0073be22      2f2e0078       move.l 0x78(a6), -(a7)
        0x0073be26      2f2e0074       move.l 0x74(a6), -(a7)
        0x0073be2a      486effde       pea.l -0x22(a6)
        0x0073be2e      486efca6       pea.l -0x35a(a6)
        0x0073be32      4ebafa28       jsr GRAPHICCOM.get_rect_segmen(pc)
        0x0073be36      defc0010       adda.w 0x10, a7
        0x0073be3a      45eeff2a       lea.l -0xd6(a6), a2
        0x0073be3e      343c00a0       move.w 0xa0, d2
    > 0x0073be42      2f22           move.l -(a2), -(a7)
    < 0x0073be44      51cafffc       dbra d2, 0x73be42
     < 0x0073be48      6000ff5c       bra.w 0x73bda6
         0x0073be4c      514f           subq.w 0x8, a7
         0x0073be4e      2f2effd2       move.l -0x2e(a6), -(a7)
         0x0073be52      2f2effce       move.l -0x32(a6), -(a7)
         0x0073be56      2f2e0032       move.l 0x32(a6), -(a7)
         0x0073be5a      3f2e0030       move.w 0x30(a6), -(a7)
         0x0073be5e      4227           clr.b -(a7)
         0x0073be60      4eb9007318ba   jsr MENUGRAPHICCOM.area_flip
         0x0073be66      defc000e       adda.w 0xe, a7
         0x0073be6a      1e81           move.b d1, (a7)
         0x0073be6c      2f2e0038       move.l 0x38(a6), -(a7)
         0x0073be70      3f2e0036       move.w 0x36(a6), -(a7)
         0x0073be74      1f2e003e       move.b 0x3e(a6), -(a7)
         0x0073be78      1f2e003c       move.b 0x3c(a6), -(a7)
         0x0073be7c      1f2e0070       move.b 0x70(a6), -(a7)
         0x0073be80      1f14           move.b (a4), -(a7)
         0x0073be82      4ebaeb6c       jsr GRAPHICCOM.do_solid_rectan(pc)
         0x0073be86      defc0018       adda.w 0x18, a7
     < 0x0073be8a      6054           bra.b 0x73bee0
        0x0073be8c      1f05           move.b d5, -(a7)
        0x0073be8e      514f           subq.w 0x8, a7
        0x0073be90      2f2effd2       move.l -0x2e(a6), -(a7)
        0x0073be94      2f2effce       move.l -0x32(a6), -(a7)
        0x0073be98      2f2e0032       move.l 0x32(a6), -(a7)
        0x0073be9c      3f2e0030       move.w 0x30(a6), -(a7)
        0x0073bea0      1f2e006c       move.b 0x6c(a6), -(a7)
        0x0073bea4      4eb9007318ba   jsr MENUGRAPHICCOM.area_flip
        0x0073beaa      defc000e       adda.w 0xe, a7
        0x0073beae      1e81           move.b d1, (a7)
        0x0073beb0      1f14           move.b (a4), -(a7)
        0x0073beb2      1f2e006c       move.b 0x6c(a6), -(a7)
        0x0073beb6      2f2e002c       move.l 0x2c(a6), -(a7)
        0x0073beba      3f2e002a       move.w 0x2a(a6), -(a7)
        0x0073bebe      2f2e0026       move.l 0x26(a6), -(a7)
        0x0073bec2      3f2e0024       move.w 0x24(a6), -(a7)
        0x0073bec6      1f2e0070       move.b 0x70(a6), -(a7)
        0x0073beca      1f2e005e       move.b 0x5e(a6), -(a7)
        0x0073bece      1f2e003e       move.b 0x3e(a6), -(a7)
        0x0073bed2      1f2e003c       move.b 0x3c(a6), -(a7)
        0x0073bed6      4850           pea.l (a0)
        0x0073bed8      4ebae632       jsr GRAPHICCOM.do_graduated_re(pc)
        0x0073bedc      defc0028       adda.w 0x28, a7
    > 0x0073bee0      1f2e0014       move.b 0x14(a6), -(a7)
           0x0073bee4      486efc5c       pea.l -0x3a4(a6)
           0x0073bee8      4eb900731bd6   jsr MENUGRAPHICCOM.do_flip
           0x0073beee      5c4f           addq.w 0x6, a7
       < 0x0073bef0      60000244       bra.w 0x73c136
          0x0073bef4      1f03           move.b d3, -(a7)
          0x0073bef6      4eb900522436   jsr BRUSHCOM.set_write_en
          0x0073befc      544f           addq.w 0x2, a7
          0x0073befe      4880           ext.w d0
          0x0073bf00      3400           move.w d0, d2
          0x0073bf02      5342           subq.w 0x1, d2
          0x0073bf04      0c420005       cmpi.w 0x5, d2
      < 0x0073bf08      620000b0       bhi.w 0x73bfba
         0x0073bf0c      d442           add.w d2, d2
         0x0073bf0e      343b2006       move.w 0x73bf16(pc, d2.w), d2
         0x0073bf12      4efb2002       jmp 0x73bf16(pc, d2.w)
         0x0073bf16      000c00a4       
         0x0073bf17      0c00a400       cmpi.b 0x0, d0
         0x0073bf1b      3400           move.w d0, d2
     < 0x0073bf1d      64006400       bcc.w 0x74231f              ; MENUEFFECTCOM.do_blur+0x187
        0x0073bf21      a24a           invalid
        0x0073bf23      2e00           move.l d0, d7
    < 0x0073bf25      6467           bcc.b 0x73bf8e
       0x0073bf27      202f072f       move.l 0x72f(a7), d0
       0x0073bf2b      061f012f       addi.b 0x2f, (a7)+
       0x0073bf2f      2effd61f       
       0x0073bf30      ffd6           invalid
       0x0073bf32      1f2e003e       move.b 0x3e(a6), -(a7)
       0x0073bf36      1f2e003c       move.b 0x3c(a6), -(a7)
       0x0073bf3a      1f2e0070       move.b 0x70(a6), -(a7)
       0x0073bf3e      1f14           move.b (a4), -(a7)
       0x0073bf40      4ebaec80       jsr GRAPHICCOM.do_solid_ellips(pc)
       0x0073bf44      defc0016       adda.w 0x16, a7
   < 0x0073bf48      6070           bra.b 0x73bfba
      0x0073bf4a      4a2e0062       tst.b 0x62(a6)
  < 0x0073bf4e      6728           beq.b 0x73bf78
  > 0x0073bf50      2f2effd2       move.l -0x2e(a6), -(a7)
     0x0073bf54      2f2effce       move.l -0x32(a6), -(a7)
     0x0073bf58      1f01           move.b d1, -(a7)
     0x0073bf5a      2f2e0038       move.l 0x38(a6), -(a7)
     0x0073bf5e      3f2e0036       move.w 0x36(a6), -(a7)
     0x0073bf62      1f2e003e       move.b 0x3e(a6), -(a7)
     0x0073bf66      1f2e003c       move.b 0x3c(a6), -(a7)
     0x0073bf6a      1f2e0070       move.b 0x70(a6), -(a7)
     0x0073bf6e      1f14           move.b (a4), -(a7)
     0x0073bf70      4ebaea7e       jsr GRAPHICCOM.do_solid_rectan(pc)
     0x0073bf74      defc0018       adda.w 0x18, a7
  > 0x0073bf78      6040           bra.b 0x73bfba
      0x0073bf7a      1f05           move.b d5, -(a7)
      0x0073bf7c      2f2effd2       move.l -0x2e(a6), -(a7)
      0x0073bf80      2f2effce       move.l -0x32(a6), -(a7)
      0x0073bf84      1f01           move.b d1, -(a7)
      0x0073bf86      1f14           move.b (a4), -(a7)
      0x0073bf88      1f2e006c       move.b 0x6c(a6), -(a7)
      0x0073bf8c      2f2e002c       move.l 0x2c(a6), -(a7)
       0x0073bf90      3f2e002a       move.w 0x2a(a6), -(a7)
       0x0073bf94      2f2e0026       move.l 0x26(a6), -(a7)
       0x0073bf98      3f2e0024       move.w 0x24(a6), -(a7)
       0x0073bf9c      1f2e0070       move.b 0x70(a6), -(a7)
       0x0073bfa0      1f2e005e       move.b 0x5e(a6), -(a7)
       0x0073bfa4      1f2e003e       move.b 0x3e(a6), -(a7)
       0x0073bfa8      1f2e003c       move.b 0x3c(a6), -(a7)
       0x0073bfac      4850           pea.l (a0)
       0x0073bfae      4ebae55c       jsr GRAPHICCOM.do_graduated_re(pc)
       0x0073bfb2      defc0028       adda.w 0x28, a7
   < 0x0073bfb6      6002           bra.b 0x73bfba
  < 0x0073bfb8      6096           bra.b 0x73bf50
  > 0x0073bfba      b203           cmp.b d3, d1
     < 0x0073bfbc      6606           bne.b 0x73bfc4
        0x0073bfbe      1f04           move.b d4, -(a7)
        0x0073bfc0      1f03           move.b d3, -(a7)
    < 0x0073bfc2      602a           bra.b 0x73bfee
    > 0x0073bfc4      4a2e0070       tst.b 0x70(a6)
    < 0x0073bfc8      671c           beq.b 0x73bfe6
       0x0073bfca      4a14           tst.b (a4)
   < 0x0073bfcc      6618           bne.b 0x73bfe6
      0x0073bfce      1f3c0002       move.b 0x2, -(a7)
      0x0073bfd2      1f2e0040       move.b 0x40(a6), -(a7)
      0x0073bfd6      1f2e003c       move.b 0x3c(a6), -(a7)
      0x0073bfda      4227           clr.b -(a7)
      0x0073bfdc      1f03           move.b d3, -(a7)
      0x0073bfde      4eb9005238a6   jsr BRUSHCOM.set_sten_stamp
  < 0x0073bfe4      6014           bra.b 0x73bffa
  > 0x0073bfe6      1f2e0040       move.b 0x40(a6), -(a7)
       0x0073bfea      1f2e003c       move.b 0x3c(a6), -(a7)
   > 0x0073bfee      4227           clr.b -(a7)
        0x0073bff0      4227           clr.b -(a7)
        0x0073bff2      1f03           move.b d3, -(a7)
        0x0073bff4      4eb900523ab6   jsr BRUSHCOM.set_stamp_mode
  > 0x0073bffa      defc000a       adda.w 0xa, a7
         0x0073bffe      3f2e0044       move.w 0x44(a6), -(a7)
         0x0073c002      4eb900521034   jsr BRUSHCOM.br_pressure
         0x0073c008      544f           addq.w 0x2, a7
         0x0073c00a      3400           move.w d0, d2
         0x0073c00c      5342           subq.w 0x1, d2
         0x0073c00e      0c420002       cmpi.w 0x2, d2
     < 0x0073c012      62000094       bhi.w 0x73c0a8
        0x0073c016      d442           add.w d2, d2
        0x0073c018      343b2006       move.w 0x73c020(pc, d2.w), d2
        0x0073c01c      4efb2002       jmp 0x73c020(pc, d2.w)
        0x0073c020      003600060020   ori.b 0x6, 0x20(a6, d0.w)
        0x0073c026      2f2e0078       move.l 0x78(a6), -(a7)
        0x0073c02a      4267           clr.w -(a7)
        0x0073c02c      4ebae08c       jsr GRAPHICCOM.start_at(pc)
        0x0073c030      544f           addq.w 0x2, a7
        0x0073c032      2eae0074       move.l 0x74(a6), (a7)
        0x0073c036      4267           clr.w -(a7)
        0x0073c038      4ebae0f4       jsr GRAPHICCOM.draw_to_line(pc)
        0x0073c03c      5c4f           addq.w 0x6, a7
    < 0x0073c03e      6068           bra.b 0x73c0a8
       0x0073c040      4a2e0060       tst.b 0x60(a6)
   < 0x0073c044      660e           bne.b 0x73c054
      0x0073c046      2f2e0078       move.l 0x78(a6), -(a7)
      0x0073c04a      2f2e0074       move.l 0x74(a6), -(a7)
      0x0073c04e      4ebae14e       jsr GRAPHICCOM.draw_rectangle(pc)
      0x0073c052      504f           addq.w 0x8, a7
  > 0x0073c054      6052           bra.b 0x73c0a8
      0x0073c056      1f2e0072       move.b 0x72(a6), -(a7)
      0x0073c05a      246e0008       movea.l 0x8(a6), a2
      0x0073c05e      2f12           move.l (a2), -(a7)
      0x0073c060      2f2e004a       move.l 0x4a(a6), -(a7)
      0x0073c064      486effee       pea.l -0x12(a6)
      0x0073c068      486efff6       pea.l -0xa(a6)
      0x0073c06c      486efffa       pea.l -0x6(a6)
      0x0073c070      486efff2       pea.l -0xe(a6)
      0x0073c074      4ebaf99e       jsr GRAPHICCOM.calc_angle_coef(pc)
      0x0073c078      defc0016       adda.w 0x16, a7
      0x0073c07c      2eaeffe2       move.l -0x1e(a6), (a7)
      0x0073c080      486eff2a       pea.l -0xd6(a6)
      0x0073c084      4227           clr.b -(a7)
      0x0073c086      4a41           tst.w d1
  < 0x0073c088      6602           bne.b 0x73c08c
     0x0073c08a      5217           addq.b 0x1, (a7)
  > 0x0073c08c      2f2effd6       move.l -0x2a(a6), -(a7)
      0x0073c090      2f2effee       move.l -0x12(a6), -(a7)
      0x0073c094      2f2efff6       move.l -0xa(a6), -(a7)
      0x0073c098      2f2efff2       move.l -0xe(a6), -(a7)
      0x0073c09c      2f2efffa       move.l -0x6(a6), -(a7)
      0x0073c0a0      4ebaf524       jsr GRAPHICCOM.paint_ellipse(pc)
      0x0073c0a4      defc001e       adda.w 0x1e, a7
  > 0x0073c0a8      4227           clr.b -(a7)
         0x0073c0aa      4eb900522436   jsr BRUSHCOM.set_write_en
         0x0073c0b0      544f           addq.w 0x2, a7
         0x0073c0b2      0c010002       cmpi.b 0x2, d1
     < 0x0073c0b6      667e           bne.b 0x73c136
        0x0073c0b8      4a14           tst.b (a4)
    < 0x0073c0ba      6706           beq.b 0x73c0c2
       0x0073c0bc      4eb900732d72   jsr MENUGRAPHICCOM.do_special_brus
    > 0x0073c0c2      554f           subq.w 0x2, a7
        0x0073c0c4      4eb9004feff0   jsr MENUGRIDCOM.make_glue
        0x0073c0ca      4a1f           tst.b (a7)+
    < 0x0073c0cc      6768           beq.b 0x73c136
       0x0073c0ce      3400           move.w d0, d2
       0x0073c0d0      5342           subq.w 0x1, d2
       0x0073c0d2      0c420005       cmpi.w 0x5, d2
   < 0x0073c0d6      6302           bls.b 0x73c0da
      0x0073c0d8      4e4e           trap 0xe
   > 0x0073c0da      d442           add.w d2, d2
       0x0073c0dc      343b2006       move.w 0x73c0e4(pc, d2.w), d2
       0x0073c0e0      4efb2002       jmp 0x73c0e4(pc, d2.w)
       0x0073c0e4      001e000c       ori.b 0xc, (a6)+
       0x0073c0e8      00420042       ori.w 0x42, d2
       0x0073c0ec      00420042       ori.w 0x42, d2
       0x0073c0f0      2f2e0078       move.l 0x78(a6), -(a7)
       0x0073c0f4      2f2e0074       move.l 0x74(a6), -(a7)
       0x0073c0f8      4eb90073cdba   jsr GLUECOM.glue_line
   > 0x0073c0fe      504f           addq.w 0x8, a7
  < 0x0073c100      6034           bra.b 0x73c136
     0x0073c102      2f2effd6       move.l -0x2a(a6), -(a7)
     0x0073c106      2f07           move.l d7, -(a7)
     0x0073c108      2f06           move.l d6, -(a7)
     0x0073c10a      2f2effee       move.l -0x12(a6), -(a7)
     0x0073c10e      2f2efff2       move.l -0xe(a6), -(a7)
     0x0073c112      2f2efff6       move.l -0xa(a6), -(a7)
     0x0073c116      2f2efffa       move.l -0x6(a6), -(a7)
     0x0073c11a      4eb90073cee4   jsr GLUECOM.glue_ellipse
     0x0073c120      defc001c       adda.w 0x1c, a7
  < 0x0073c124      6010           bra.b 0x73c136
     0x0073c126      2f2effd2       move.l -0x2e(a6), -(a7)
     0x0073c12a      2f2effce       move.l -0x32(a6), -(a7)
     0x0073c12e      4eb90073cdec   jsr GLUECOM.glue_rectangle
  < 0x0073c134      60c8           bra.b 0x73c0fe
  > 0x0073c136      1f00           move.b d0, -(a7)
          0x0073c138      2f2e0078       move.l 0x78(a6), -(a7)
          0x0073c13c      2f2e0074       move.l 0x74(a6), -(a7)
          0x0073c140      2f2effd6       move.l -0x2a(a6), -(a7)
          0x0073c144      2f07           move.l d7, -(a7)
          0x0073c146      2f06           move.l d6, -(a7)
          0x0073c148      2f2effd2       move.l -0x2e(a6), -(a7)
          0x0073c14c      2f2effce       move.l -0x32(a6), -(a7)
          0x0073c150      2f2e0016       move.l 0x16(a6), -(a7)
          0x0073c154      4eb900732ee2   jsr MENUGRAPHICCOM.set_current_val
          0x0073c15a      defc0022       adda.w 0x22, a7
       > 0x0073c15e      4cdf1fff       movem.l (a7)+, d0-d7/a0-a4
           0x0073c162      4e5e           unlk a6
           0x0073c164      4e75           rts
 22: GRAPHICCOM.graph_init ();
          0x0073c166      4e56fffc       link.w a6, 0xfffc
          0x0073c16a      bfd5           cmpa.l (a5), a7
      < 0x0073c16c      6206           bhi.b 0x73c174
         0x0073c16e      44fc0002       move.w 0x2, ccr
         0x0073c172      4e76           trapv
      > 0x0073c174      defc0004       adda.w 0x4, a7
          0x0073c178      4e5e           unlk a6
