            ;-- K03_DISKLIST:
            0x005993ac      .byte 0x00
            0x005993ad      .byte 0x80
            0x005993ae      .byte 0xf5
            0x005993af      .byte 0x00
            0x005993b0      .byte 0x00
            0x005993b1      .byte 0x00
            0x005993b2      .byte 0x00
            0x005993b3      .byte 0x80
            0x005993b4      .byte 0xf5
            0x005993b5      .byte 0x00
            0x005993b6      .byte 0x00
            0x005993b7      .byte 0x00
            0x005993b8      .byte 0x01
            0x005993b9      .byte 0x80
            0x005993ba      .byte 0xf5
            0x005993bb      .byte 0x00
            0x005993bc      .byte 0x00
            0x005993bd      .byte 0x00
            0x005993be      .byte 0xff
            0x005993bf      .byte 0xff
            0x005993c0      .byte 0xff
            0x005993c1      .byte 0xff
            0x005993c2      .byte 0xff
            0x005993c3      .byte 0xff
            0x005993c4      .byte 0xff
            0x005993c5      .byte 0xff
            0x005993c6      .byte 0x00
            0x005993c7      .byte 0x00
            0x005993c8      .byte 0x00
            0x005993c9      .byte 0x00
            0x005993ca      .byte 0x00
            0x005993cb      .byte 0x00
            0x005993cc      .byte 0x00
            0x005993cd      .byte 0x00
            0x005993ce      .byte 0x00
            0x005993cf      .byte 0x00
            0x005993d0      .byte 0x3f
            0x005993d1      .byte 0x80
            0x005993d2      .byte 0x00
            0x005993d3      .byte 0x00
            0x005993d4      .byte 0x3f
            0x005993d5      .byte 0x80
            0x005993d6      .byte 0x00
            0x005993d7      .byte 0x00
            0x005993d8      .byte 0x00
            0x005993d9      .byte 0x00
            0x005993da      .byte 0x00
            0x005993db      .byte 0x00
            0x005993dc      .byte 0x00
            0x005993dd      .byte 0x00
            0x005993de      .byte 0x00
            0x005993df      .byte 0x00
            0x005993e0      .byte 0x00
            0x005993e1      .byte 0x00
            0x005993e2      .byte 0x00
            0x005993e3      .byte 0x00
            0x005993e4      .byte 0x00
            0x005993e5      .byte 0x00
            0x005993e6      .byte 0x00
            0x005993e7      .byte 0x00
            0x005993e8      .byte 0x00
            0x005993e9      .byte 0x00
            0x005993ea      .byte 0x00
            0x005993eb      .byte 0x02
            0x005993ec      .byte 0x00
            0x005993ed      .byte 0x00
            0x005993ee      .byte 0x3f
            0x005993ef      .byte 0x80
            0x005993f0      .byte 0x00
            0x005993f1      .byte 0x00
            0x005993f2      .byte 0x3f
            0x005993f3      .byte 0x80
            0x005993f4      .byte 0x00
            0x005993f5      .byte 0x00
            0x005993f6      .byte 0x00
            0x005993f7      .byte 0x00
            0x005993f8      .byte 0x00
            0x005993f9      .byte 0x00
            0x005993fa      .byte 0x00
            0x005993fb      .byte 0x00
            0x005993fc      .byte 0x00
            0x005993fd      .byte 0x00
            0x005993fe      .byte 0x3f
            0x005993ff      .byte 0x80
            0x00599400      .byte 0x00
            0x00599401      .byte 0x00
            0x00599402      .byte 0x3f
            0x00599403      .byte 0x80
            0x00599404      .byte 0x00
            0x00599405      .byte 0x00
            0x00599406      .byte 0x00
            0x00599407      .byte 0x00
            0x00599408      .byte 0x00
            0x00599409      .byte 0x00
            0x0059940a      .byte 0x00
            0x0059940b      .byte 0x00
            0x0059940c      .byte 0x00
            0x0059940d      .byte 0x00
            0x0059940e      .byte 0x00
            0x0059940f      .byte 0x00
            0x00599410      .byte 0x00
            0x00599411      .byte 0x00
            0x00599412      .byte 0x00
            0x00599413      .byte 0x00
            0x00599414      .byte 0x00
            0x00599415      .byte 0x00
            0x00599416      .byte 0x00
            0x00599417      .byte 0x00
            0x00599418      .byte 0x00
            0x00599419      .byte 0x01
            0x0059941a      .byte 0x00
            0x0059941b      .byte 0x00
            0x0059941c      .byte 0x00
            0x0059941d      .byte 0x00
            0x0059941e      .byte 0x00
            0x0059941f      .byte 0x00
            0x00599420      .byte 0x00
            0x00599421      .byte 0x00
            0x00599422      .byte 0x00
            0x00599423      .byte 0x00
            0x00599424      .byte 0x00
            0x00599425      .byte 0x00
            0x00599426      .byte 0x00
            0x00599427      .byte 0x00
            0x00599428      .byte 0x00
            0x00599429      .byte 0x00
            0x0059942a      .byte 0x00
            0x0059942b      .byte 0x00
            0x0059942c      .byte 0x02
            0x0059942d      .byte 0xc7
            0x0059942e      .byte 0x01
            0x0059942f      .byte 0xe5
            0x00599430      .byte 0x03
            0x00599431      .byte 0x00
            0x00599432      .byte 0x01
            0x00599433      .byte 0xe4
            0x00599434      .byte 0x02
            0x00599435      .byte 0xbd
            0x00599436      .byte 0x02
            0x00599437      .byte 0x3f
            0x00599438      .byte 0x00
            0x00599439      .byte 0x2a
            0x0059943a      .byte 0x01
            0x0059943b      .byte 0x00
            0x0059943c      .byte 0x00
            0x0059943d      .byte 0x36
            0x0059943e      .byte 0x01
            0x0059943f      .byte 0x00
            0x00599440      .byte 0x00
            0x00599441      .byte 0x1d
            0x00599442      .byte 0x02
            0x00599443      .byte 0x00
            0x00599444      .byte 0x04
            0x00599445      .byte 0x6e
            0x00599446      .byte 0x6f
            0x00599447      .byte 0x6e
            0x00599448      .byte 0x65
            0x00599449      .byte 0x05
            0x0059944a     .string "local" ; len=5
            0x0059944f      .byte 0x06
            0x00599450     .string "shared" ; len=6
            0x00599456      .byte 0x0a
            0x00599457     .string "net-shared" ; len=10
            0x00599461      .byte 0x04
            0x00599462      .byte 0x62
            0x00599463      .byte 0x61
            0x00599464      .byte 0x6e
            0x00599465      .byte 0x6b
            0x00599466      .byte 0x04
            0x00599467      .byte 0x65
            0x00599468      .byte 0x78
            0x00599469      .byte 0x63
            0x0059946a      .byte 0x68
            0x0059946b      .byte 0x03
            0x0059946c      .byte 0x72
            0x0059946d      .byte 0x73
            0x0059946e      .byte 0x64
            0x0059946f      .byte 0x03
            0x00599470      .byte 0x63
            0x00599471      .byte 0x6c
            0x00599472      .byte 0x6c
            0x00599473      .byte 0x06
            0x00599474     .string "cypher" ; len=6
            0x0059947a      .byte 0x06
            0x0059947b     .string "floppy" ; len=6
            0x00599481      .byte 0x0c
            0x00599482     .string "non_scsi_afs" ; len=12
            0x0059948e      .byte 0x03
            0x0059948f      .byte 0x64
            0x00599490      .byte 0x69
            0x00599491      .byte 0x73
            0x00599492      .byte 0x03
            0x00599493      .byte 0x6f
            0x00599494      .byte 0x66
            0x00599495      .byte 0x66
            0x00599496      .byte 0x08
            0x00599497     .string "off held" ; len=8
            0x0059949f      .byte 0x0c
            0x005994a0     .string "off not held" ; len=12
            0x005994ac      .byte 0x0e
            0x005994ad     .string "off suppressed" ; len=14
            0x005994bb      .byte 0x02
            0x005994bc      .byte 0x6f
            0x005994bd      .byte 0x6e
            0x005994be      .byte 0x0a
            0x005994bf     .string "on numeric" ; len=10
            0x005994c9      .byte 0x08
            0x005994ca     .string "multiple" ; len=8
            0x005994d2      .byte 0x0e
            0x005994d3     .string "$force_node_on" ; len=14
            0x005994e1      .byte 0x0f
            0x005994e2     .string "$force_node_off" ; len=15
            0x005994f1      .byte 0x0c
            0x005994f2     .string "$toggle_node" ; len=12
            0x005994fe      .byte 0x0d
            0x005994ff     .string "$write_switch" ; len=13
            0x0059950c      .byte 0x0c
            0x0059950d     .string "$read_switch" ; len=12
            0x00599519      .byte 0x0c
            0x0059951a     .string "$mail_switch" ; len=12
            0x00599526      .byte 0x02
            0x00599527      .byte 0x2c
            0x00599528      .byte 0x20
            0x00599529      .byte 0x0c
            0x0059952a     .string " NIL volume." ; len=12
            0x00599536      .byte 0x05
            0x00599537     .string " vol " ; len=5
            0x0059953c      .byte 0x05
            0x0059953d     .string " NIL." ; len=5
            0x00599542      .byte 0x02
            0x00599543      .byte 0x2c
            0x00599544      .byte 0x20
            0x00599545      .byte 0x0b
            0x00599546     .string ", def exch " ; len=11
            0x00599551      .byte 0x0e
            0x00599552     .string " NIL supervol." ; len=14
            0x00599560      .byte 0x09
            0x00599561     .string " id name " ; len=9
            0x0059956a      .byte 0x00
            0x0059956b      .byte 0x0c
            0x0059956c     .string " NIL subvol." ; len=12
            0x00599578      .byte 0x08
            0x00599579     .string " subvol " ; len=8
            0x00599581      .byte 0x06
            0x00599582     .string "Level " ; len=6
            0x00599588      .byte 0x0a
            0x00599589     .string "Bank node " ; len=10
            0x00599593      .byte 0x10
            0x00599594     .string "Net shared node " ; len=16
            0x005995a4      .byte 0x0d
            0x005995a5     .string "Foreign node " ; len=13
            0x005995b2      .byte 0x0a
            0x005995b3     .string "Exch node " ; len=10
            0x005995bd      .byte 0x00
            0x005995be      .byte 0x04
            0x005995bf      .byte 0x6e
            0x005995c0      .byte 0x61
            0x005995c1      .byte 0x6d
            0x005995c2      .byte 0x65
            0x005995c3      .byte 0x0a
            0x005995c4     .string "other name" ; len=10
            0x005995ce      .byte 0x36
            0x005995cf      .byte 0x00
            0x005995d0      .byte 0x03
            0x005995d1      .byte 0x00
            0x005995d2      .byte 0x00
            0x005995d3      .byte 0x00
            0x005995d4      .byte 0x00
            0x005995d5      .byte 0x00
            0x005995d6      .byte 0x00
            0x005995d7      .byte 0x00
            0x005995d8      .byte 0x00
            0x005995d9      .byte 0x00
            0x005995da      .byte 0x00
            0x005995db      .byte 0x00
            0x005995dc      .byte 0x00
            0x005995dd      .byte 0x00
            0x005995de      .byte 0x00
            0x005995df      .byte 0x00
            0x005995e0      .byte 0x00
            0x005995e1      .byte 0x00
            0x005995e2      .byte 0x00
            0x005995e3      .byte 0x00
            0x005995e4      .byte 0x00
            0x005995e5      .byte 0x00
            0x005995e6      .byte 0x00
            0x005995e7      .byte 0x00
            0x005995e8      .byte 0x00
            0x005995e9      .byte 0x00
            0x005995ea      .byte 0x00
            0x005995eb      .byte 0x00
            0x005995ec      .byte 0x00
            0x005995ed      .byte 0x00
            0x005995ee      .byte 0x00
            0x005995ef      .byte 0x00
            0x005995f0      .byte 0x0c
            0x005995f1     .string "set default " ; len=12
            0x005995fd      .byte 0x17
            0x005995fe     .string "add to tree. node type " ; len=23
            0x00599615      .byte 0x08
            0x00599616     .string ", drive " ; len=8
            0x0059961e      .byte 0x12
            0x0059961f     .string "!!!! non-zero lun " ; len=18
            0x00599631      .byte 0x05
            0x00599632     .string " !!!!" ; len=5
            0x00599637      .byte 0x0b
            0x00599638     .string "under exch." ; len=11
            0x00599643      .byte 0x0d
            0x00599644     .string "exchangeables" ; len=13
            0x00599651      .byte 0x0d
            0x00599652     .string "exch supervol" ; len=13
            0x0059965f      .byte 0x0d
            0x00599660     .string "non scsi afs." ; len=13
            0x0059966d      .byte 0x06
            0x0059966e     .string " disks" ; len=6
            0x00599674      .byte 0x12
            0x00599675     .string "node type supervol" ; len=18
            0x00599687      .byte 0x16
            0x00599688     .string "Couldn't get net name " ; len=22
            0x0059969e      .byte 0x0b
            0x0059969f     .string "controller " ; len=11
            0x005996aa      .byte 0x0b
            0x005996ab     .string "controller " ; len=11
            0x005996b6      .byte 0x14
            0x005996b7     .string "volume at top level." ; len=20
            0x005996cb      .byte 0x1a
            0x005996cc     .string "volume under super-volume." ; len=26
            0x005996e6      .byte 0x32
            0x005996e7     .string "WARNING. Volume node already present for sort key " ; len=50
            0x00599719      .byte 0x3f
            0x0059971a     .string "WARNING. Subvol. volume node not already present for sort key  " ; len=63
            0x00599759      .byte 0x2d
            0x0059975a     .string "WARNING. Sub-volume node already present for " ; len=45
            0x00599787      .byte 0x04
            0x00599788      .byte 0x73
            0x00599789      .byte 0x6d
            0x0059978a      .byte 0x64
            0x0059978b      .byte 0x20
            0x0059978c      .byte 0x07
            0x0059978d     .string "floppy " ; len=7
            0x00599794      .byte 0x04
            0x00599795      .byte 0x63
            0x00599796      .byte 0x6c
            0x00599797      .byte 0x6c
            0x00599798      .byte 0x20
            0x00599799      .byte 0x08
            0x0059979a     .string "clipbox " ; len=8
            0x005997a2      .byte 0x06
            0x005997a3     .string "shared" ; len=6
            0x005997a9      .byte 0x02
            0x005997aa      .byte 0x42
            0x005997ab      .byte 0x20
            0x005997ac      .byte 0x01
            0x005997ad      .byte 0x2e
            0x005997ae      .byte 0x06
            0x005997af     .string "local " ; len=6
            0x005997b5      .byte 0x04
            0x005997b6      .byte 0x6e
            0x005997b7      .byte 0x65
            0x005997b8      .byte 0x74
            0x005997b9      .byte 0x20
            0x005997ba      .byte 0x01
            0x005997bb      .byte 0x42
            0x005997bc      .byte 0x01
            0x005997bd      .byte 0x2f
            0x005997be      .byte 0x00
            0x005997bf      .byte 0x1b
            0x005997c0     .string "Parent shouldn't be NIL !!." ; len=27
            0x005997db      .byte 0x21
            0x005997dc     .string "Grand-parent shouldn't be NIL !!." ; len=33
            0x005997fd      .byte 0x22
            0x005997fe     .string "Grand-parent shouldn't be Root !!." ; len=34
            0x00599820      .byte 0x04
            0x00599821      .byte 0x73
            0x00599822      .byte 0x75
            0x00599823      .byte 0x62
            0x00599824      .byte 0x20
            0x00599825      .byte 0x04
            0x00599826     .string "loc " ; len=4
            0x0059982a      .byte 0x28
            0x0059982b     .string "Parent should be local or shared but is " ; len=40
            0x00599853      .byte 0x27
            0x00599854     .string "Great-grand-parent shouldn't be NIL !!." ; len=39
            0x0059987b      .byte 0x28
            0x0059987c     .string "Great-grand-parent shouldn't be Root !!." ; len=40
            0x005998a4      .byte 0x0e
            0x005998a5     .string "Missed node !!" ; len=14
            0x005998b3      .byte 0x00
            0x005998b4      .byte 0x00
            0x005998b5      .byte 0x01
            0x005998b6      .byte 0x00
            0x005998b7      .byte 0x01
            0x005998b8      .byte 0x06
            0x005998b9     .string "subvol" ; len=6
            0x005998bf      .byte 0x00
            0x005998c0      .byte 0x00
            0x005998c1      .byte 0x01
            0x005998c2      .byte 0x00
            0x005998c3      .byte 0x01
            0x005998c4      .byte 0x02
            0x005998c5      .byte 0x4f
            0x005998c6      .byte 0x4b
            0x005998c7      .byte 0x19
            0x005998c8     .string "!!! k_menu_status failed " ; len=25
            0x005998e1      .byte 0x12
            0x005998e2     .string "!! node_ptr = NIL." ; len=18
            0x005998f4      .byte 0x02
            0x005998f5      .byte 0x4f
            0x005998f6      .byte 0x4b
            0x005998f7      .byte 0x07
            0x005998f8     .string "Result " ; len=7
            0x005998ff      .byte 0x1a
            0x00599900     .string " getting label for volume " ; len=26
            0x0059991a      .byte 0x02
            0x0059991b      .byte 0x4f
            0x0059991c      .byte 0x4b
            0x0059991d      .byte 0x00
            0x0059991e      .byte 0x05
            0x0059991f     .string "local" ; len=5
            0x00599924      .byte 0x06
            0x00599925     .string "shared" ; len=6
            0x0059992b      .byte 0x21
            0x0059992c     .string "? this is not really a net drive " ; len=33
            0x0059994d      .byte 0x04
            0x0059994e      .byte 0x6e
            0x0059994f      .byte 0x65
            0x00599950      .byte 0x74
            0x00599951      .byte 0x20
            0x00599952      .byte 0x0c
            0x00599953     .string " fixed disk " ; len=12
            0x0059995f      .byte 0x0b
            0x00599960     .string " exch disk " ; len=11
            0x0059996b      .byte 0x01
            0x0059996c      .byte 0x93
            0x0059996d      .byte 0x01
            0x0059996e      .byte 0x94
            0x0059996f      .byte 0x02
            0x00599970      .byte 0x4f
            0x00599971      .byte 0x4b
            0x00599972      .byte 0x11
            0x00599973     .string "   Not accessable" ; len=17
            0x00599984      .byte 0x0b
            0x00599985     .string ", Protected" ; len=11
            0x00599990      .byte 0x09
            0x00599991     .string "get_mail " ; len=9
            0x0059999a      .byte 0x03
            0x0059999b      .byte 0x20
            0x0059999c      .byte 0x3a
            0x0059999d      .byte 0x20
            0x0059999e      .byte 0x0a
            0x0059999f     .string "$not_found" ; len=10
            0x005999a9      .byte 0x06
            0x005999aa     .string "$found" ; len=6
            0x005999b0      .byte 0x08
            0x005999b1     .string "$overrun" ; len=8
            0x005999b9      .byte 0x04
            0x005999ba      .byte 0x20
            0x005999bb      .byte 0x61
            0x005999bc      .byte 0x74
            0x005999bd      .byte 0x20
            0x005999be      .byte 0x14
            0x005999bf     .string "Error altering mail " ; len=20
            0x005999d3      .byte 0x00
            0x005999d4      .byte 0x08
            0x005999d5      .byte 0x10
            0x005999d6     .string "super_vol_state " ; len=16
            0x005999e6      .byte 0x18
            0x005999e7     .string "Leaving super_vol_state " ; len=24
            0x005999ff      .byte 0x02
            0x00599a00      .byte 0x72
            0x00599a01      .byte 0x20
            0x00599a02      .byte 0x04
            0x00599a03      .byte 0x2c
            0x00599a04      .byte 0x20
            0x00599a05      .byte 0x77
            0x00599a06      .byte 0x20
            0x00599a07      .byte 0x04
            0x00599a08      .byte 0x2c
            0x00599a09      .byte 0x20
            0x00599a0a      .byte 0x6d
            0x00599a0b      .byte 0x20
            0x00599a0c      .byte 0x0d
            0x00599a0d     .string "volume_state " ; len=13
            0x00599a1a      .byte 0x02
            0x00599a1b      .byte 0x42
            0x00599a1c      .byte 0x44
            0x00599a1d      .byte 0x02
            0x00599a1e      .byte 0x4f
            0x00599a1f      .byte 0x4b
            0x00599a20      .byte 0x19
            0x00599a21     .string "Leaving get_volume_state " ; len=25
            0x00599a3a      .byte 0x02
            0x00599a3b      .byte 0x72
            0x00599a3c      .byte 0x20
            0x00599a3d      .byte 0x04
            0x00599a3e      .byte 0x2c
            0x00599a3f      .byte 0x20
            0x00599a40      .byte 0x77
            0x00599a41      .byte 0x20
            0x00599a42      .byte 0x04
            0x00599a43      .byte 0x2c
            0x00599a44      .byte 0x20
            0x00599a45      .byte 0x6d
            0x00599a46      .byte 0x20
            0x00599a47      .byte 0x0f
            0x00599a48     .string "get_node_state " ; len=15
            0x00599a57      .byte 0x17
            0x00599a58     .string "Leaving get_node_state " ; len=23
            0x00599a6f      .byte 0x02
            0x00599a70      .byte 0x72
            0x00599a71      .byte 0x20
            0x00599a72      .byte 0x04
            0x00599a73      .byte 0x2c
            0x00599a74      .byte 0x20
            0x00599a75      .byte 0x77
            0x00599a76      .byte 0x20
            0x00599a77      .byte 0x04
            0x00599a78      .byte 0x2c
            0x00599a79      .byte 0x20
            0x00599a7a      .byte 0x6d
            0x00599a7b      .byte 0x20
            0x00599a7c      .byte 0x04
            0x00599a7d      .byte 0x6d
            0x00599a7e      .byte 0x61
            0x00599a7f      .byte 0x69
            0x00599a80      .byte 0x6c
            0x00599a81      .byte 0x04
            0x00599a82      .byte 0x72
            0x00599a83      .byte 0x65
            0x00599a84      .byte 0x61
            0x00599a85      .byte 0x64
            0x00599a86      .byte 0x05
            0x00599a87     .string "write" ; len=5
            0x00599a8c      .byte 0x04
            0x00599a8d      .byte 0x6d
            0x00599a8e      .byte 0x61
            0x00599a8f      .byte 0x69
            0x00599a90      .byte 0x6c
            0x00599a91      .byte 0x0a
            0x00599a92     .string "Dismounted" ; len=10
            0x00599a9c      .byte 0x02
            0x00599a9d      .byte 0x4f
            0x00599a9e      .byte 0x4b
            0x00599a9f      .byte 0x09
            0x00599aa0     .string "subvolume" ; len=9
            0x00599aa9      .byte 0x04
            0x00599aaa      .byte 0x72
            0x00599aab      .byte 0x65
            0x00599aac      .byte 0x61
            0x00599aad      .byte 0x64
            0x00599aae      .byte 0x05
            0x00599aaf     .string "write" ; len=5
            0x00599ab4      .byte 0x04
            0x00599ab5      .byte 0x6d
            0x00599ab6      .byte 0x61
            0x00599ab7      .byte 0x69
            0x00599ab8      .byte 0x6c
            0x00599ab9      .byte 0x04
            0x00599aba      .byte 0x72
            0x00599abb      .byte 0x65
            0x00599abc      .byte 0x61
            0x00599abd      .byte 0x64
            0x00599abe      .byte 0x05
            0x00599abf     .string "write" ; len=5
            0x00599ac4      .byte 0x04
            0x00599ac5      .byte 0x6d
            0x00599ac6      .byte 0x61
            0x00599ac7      .byte 0x69
            0x00599ac8      .byte 0x6c
            0x00599ac9      .byte 0x18
            0x00599aca     .string "Different read and write" ; len=24
            0x00599ae2      .byte 0x18
            0x00599ae3     .string "Different read and write" ; len=24
            0x00599afb      .byte 0x04
            0x00599afc      .byte 0x72
            0x00599afd      .byte 0x65
            0x00599afe      .byte 0x61
            0x00599aff      .byte 0x64
            0x00599b00      .byte 0x05
            0x00599b01     .string "write" ; len=5
            0x00599b06      .byte 0x04
            0x00599b07      .byte 0x6d
            0x00599b08      .byte 0x61
            0x00599b09      .byte 0x69
            0x00599b0a      .byte 0x6c
            0x00599b0b      .byte 0x18
            0x00599b0c     .string "Leaving get_node_status " ; len=24
            0x00599b24      .byte 0x02
            0x00599b25      .byte 0x72
            0x00599b26      .byte 0x20
            0x00599b27      .byte 0x04
            0x00599b28      .byte 0x2c
            0x00599b29      .byte 0x20
            0x00599b2a      .byte 0x77
            0x00599b2b      .byte 0x20
            0x00599b2c      .byte 0x04
            0x00599b2d      .byte 0x2c
            0x00599b2e      .byte 0x20
            0x00599b2f      .byte 0x6d
            0x00599b30      .byte 0x20
            0x00599b31      .byte 0x0a
            0x00599b32     .string "used. def " ; len=10
            0x00599b3c      .byte 0x07
            0x00599b3d     .string ", poss " ; len=7
            0x00599b44      .byte 0x1e
            0x00599b45     .string "Failed to set subvolume state." ; len=30
            0x00599b63      .byte 0x07
            0x00599b64     .string "Subvol " ; len=7
            0x00599b6b      .byte 0x0b
            0x00599b6c     .string " not found." ; len=11
            0x00599b77      .byte 0x1a
            0x00599b78     .string "write interlock. stop_node" ; len=26
            0x00599b92      .byte 0x15
            0x00599b93     .string "done write interlock." ; len=21
            0x00599ba8      .byte 0x0f
            0x00599ba9     .string "exch interlock." ; len=15
            0x00599bb8      .byte 0x14
            0x00599bb9     .string "done exch interlock." ; len=20
            0x00599bcd      .byte 0x00
            0x00599bce      .byte 0x03
            0x00599bcf      .byte 0x15
            0x00599bd0     .string "net-shared interlock." ; len=21
            0x00599be5      .byte 0x1a
            0x00599be6     .string "done net-shared interlock." ; len=26
            0x00599c00      .byte 0x12
            0x00599c01     .string "foreign interlock." ; len=18
            0x00599c13      .byte 0x17
            0x00599c14     .string "done foreign interlock." ; len=23
            0x00599c2b      .byte 0x16
            0x00599c2c     .string "non-foreign interlock." ; len=22
            0x00599c42      .byte 0x1b
            0x00599c43     .string "done non-foreign interlock." ; len=27
            0x00599c5e      .byte 0x0e
            0x00599c5f     .string "set crnt_node " ; len=14
            0x00599c6d      .byte 0x00
            0x00599c6e      .byte 0x1e
            0x00599c6f      .byte 0x13
            0x00599c70     .string "set_volume_select. " ; len=19
            0x00599c83      .byte 0x07
            0x00599c84     .string "  mode " ; len=7
            0x00599c8b      .byte 0x06
            0x00599c8c     .string ", sel " ; len=6
            0x00599c92      .byte 0x08
            0x00599c93     .string ", force " ; len=8
            0x00599c9b      .byte 0x05
            0x00599c9c     .string ", sw " ; len=5
            0x00599ca1      .byte 0x07
            0x00599ca2     .string ", prop " ; len=7
            0x00599ca9      .byte 0x08
            0x00599caa     .string ", saved " ; len=8
            0x00599cb2      .byte 0x07
            0x00599cb3     .string ", this " ; len=7
            0x00599cba      .byte 0x09
            0x00599cbb     .string ", parent " ; len=9
            0x00599cc4      .byte 0x09
            0x00599cc5     .string ", p mask " ; len=9
            0x00599cce      .byte 0x08
            0x00599ccf     .string ", state " ; len=8
            0x00599cd7      .byte 0x15
            0x00599cd8     .string "k_volume_status. vol " ; len=21
            0x00599ced      .byte 0x09
            0x00599cee     .string ", result " ; len=9
            0x00599cf7      .byte 0x08
            0x00599cf8     .string ", state " ; len=8
            0x00599d00      .byte 0x02
            0x00599d01      .byte 0x4f
            0x00599d02      .byte 0x4b
            0x00599d03      .byte 0x14
            0x00599d04     .string "  set_volume_select " ; len=20
            0x00599d18      .byte 0x1e
            0x00599d19      .byte 0x15
            0x00599d1a     .string "set_supervol_select. " ; len=21
            0x00599d2f      .byte 0x07
            0x00599d30     .string "  mode " ; len=7
            0x00599d37      .byte 0x06
            0x00599d38     .string ", sel " ; len=6
            0x00599d3e      .byte 0x08
            0x00599d3f     .string ", force " ; len=8
            0x00599d47      .byte 0x05
            0x00599d48     .string ", sw " ; len=5
            0x00599d4d      .byte 0x07
            0x00599d4e     .string ", mask " ; len=7
            0x00599d55      .byte 0x08
            0x00599d56     .string ", saved " ; len=8
            0x00599d5e      .byte 0x07
            0x00599d5f     .string ", this " ; len=7
            0x00599d66      .byte 0x09
            0x00599d67     .string ", parent " ; len=9
            0x00599d70      .byte 0x09
            0x00599d71     .string ", i/lock " ; len=9
            0x00599d7a      .byte 0x08
            0x00599d7b     .string ", state " ; len=8
            0x00599d83      .byte 0x28
            0x00599d84     .string "!!! Mail to exch in set_supervol_select." ; len=40
            0x00599dac      .byte 0x16
            0x00599dad     .string "  set_supervol_select " ; len=22
            0x00599dc3      .byte 0x11
            0x00599dc4     .string "set_node_select. " ; len=17
            0x00599dd5      .byte 0x05
            0x00599dd6     .string "mode " ; len=5
            0x00599ddb      .byte 0x05
            0x00599ddc     .string ", sw " ; len=5
            0x00599de1      .byte 0x0b
            0x00599de2     .string ", this hit " ; len=11
            0x00599ded      .byte 0x09
            0x00599dee     .string ", i/lock " ; len=9
            0x00599df7      .byte 0x10
            0x00599df8     .string "set_node_select " ; len=16
            0x00599e08      .byte 0x05
            0x00599e09     .string "local" ; len=5
            0x00599e0e      .byte 0x06
            0x00599e0f     .string "shared" ; len=6
            0x00599e15      .byte 0x0a
            0x00599e16     .string "net-shared" ; len=10
            0x00599e20      .byte 0x04
            0x00599e21      .byte 0x62
            0x00599e22      .byte 0x61
            0x00599e23      .byte 0x6e
            0x00599e24      .byte 0x6b
            0x00599e25      .byte 0x04
            0x00599e26      .byte 0x65
            0x00599e27      .byte 0x78
            0x00599e28      .byte 0x63
            0x00599e29      .byte 0x68
            0x00599e2a      .byte 0x07
            0x00599e2b     .string "net num" ; len=7
            0x00599e32      .byte 0x06
            0x00599e33      .byte 0x00
            0x00599e34      .byte 0x00
            0x00599e35      .byte 0x00
            0x00599e36      .byte 0x00
            0x00599e37      .byte 0x00
            0x00599e38      .byte 0x00
            0x00599e39      .byte 0x00
            0x00599e3a      .byte 0x00
            0x00599e3b      .byte 0x00
            0x00599e3c      .byte 0x00
            0x00599e3d      .byte 0x00
            0x00599e3e      .byte 0x00
            0x00599e3f      .byte 0x00
            0x00599e40      .byte 0x00
            0x00599e41      .byte 0x00
            0x00599e42      .byte 0x00
            0x00599e43      .byte 0x00
            0x00599e44      .byte 0x00
            0x00599e45      .byte 0x00
            0x00599e46      .byte 0x00
            0x00599e47      .byte 0x00
            0x00599e48      .byte 0x00
            0x00599e49      .byte 0x00
            0x00599e4a      .byte 0x00
            0x00599e4b      .byte 0x00
            0x00599e4c      .byte 0x00
            0x00599e4d      .byte 0x00
            0x00599e4e      .byte 0x00
            0x00599e4f      .byte 0x00
            0x00599e50      .byte 0x00
            0x00599e51      .byte 0x00
            0x00599e52      .byte 0x06
            0x00599e53      .byte 0x00
            0x00599e54      .byte 0x00
            0x00599e55      .byte 0x00
            0x00599e56      .byte 0x00
            0x00599e57      .byte 0x00
            0x00599e58      .byte 0x00
            0x00599e59      .byte 0x00
            0x00599e5a      .byte 0x00
            0x00599e5b      .byte 0x00
            0x00599e5c      .byte 0x00
            0x00599e5d      .byte 0x00
            0x00599e5e      .byte 0x00
            0x00599e5f      .byte 0x00
            0x00599e60      .byte 0x00
            0x00599e61      .byte 0x00
            0x00599e62      .byte 0x00
            0x00599e63      .byte 0x00
            0x00599e64      .byte 0x00
            0x00599e65      .byte 0x00
            0x00599e66      .byte 0x00
            0x00599e67      .byte 0x00
            0x00599e68      .byte 0x00
            0x00599e69      .byte 0x00
            0x00599e6a      .byte 0x00
            0x00599e6b      .byte 0x00
            0x00599e6c      .byte 0x00
            0x00599e6d      .byte 0x00
            0x00599e6e      .byte 0x00
            0x00599e6f      .byte 0x00
            0x00599e70      .byte 0x00
            0x00599e71      .byte 0x00
            0x00599e72      .byte 0x06
            0x00599e73      .byte 0x00
            0x00599e74      .byte 0x00
            0x00599e75      .byte 0x00
            0x00599e76      .byte 0x00
            0x00599e77      .byte 0x00
            0x00599e78      .byte 0x00
            0x00599e79      .byte 0x00
            0x00599e7a      .byte 0x00
            0x00599e7b      .byte 0x00
            0x00599e7c      .byte 0x00
            0x00599e7d      .byte 0x00
            0x00599e7e      .byte 0x00
            0x00599e7f      .byte 0x00
            0x00599e80      .byte 0x00
            0x00599e81      .byte 0x00
            0x00599e82      .byte 0x00
            0x00599e83      .byte 0x00
            0x00599e84      .byte 0x00
            0x00599e85      .byte 0x00
            0x00599e86      .byte 0x00
            0x00599e87      .byte 0x00
            0x00599e88      .byte 0x00
            0x00599e89      .byte 0x00
            0x00599e8a      .byte 0x00
            0x00599e8b      .byte 0x00
            0x00599e8c      .byte 0x00
            0x00599e8d      .byte 0x00
            0x00599e8e      .byte 0x00
            0x00599e8f      .byte 0x00
            0x00599e90      .byte 0x00
            0x00599e91      .byte 0x00
            0x00599e92      .byte 0x06
            0x00599e93      .byte 0x00
            0x00599e94      .byte 0x00
            0x00599e95      .byte 0x00
            0x00599e96      .byte 0x00
            0x00599e97      .byte 0x00
            0x00599e98      .byte 0x00
            0x00599e99      .byte 0x00
            0x00599e9a      .byte 0x00
            0x00599e9b      .byte 0x00
            0x00599e9c      .byte 0x00
            0x00599e9d      .byte 0x00
            0x00599e9e      .byte 0x00
            0x00599e9f      .byte 0x00
            0x00599ea0      .byte 0x00
            0x00599ea1      .byte 0x00
            0x00599ea2      .byte 0x00
            0x00599ea3      .byte 0x00
            0x00599ea4      .byte 0x00
            0x00599ea5      .byte 0x00
            0x00599ea6      .byte 0x00
            0x00599ea7      .byte 0x00
            0x00599ea8      .byte 0x00
            0x00599ea9      .byte 0x00
            0x00599eaa      .byte 0x00
            0x00599eab      .byte 0x00
            0x00599eac      .byte 0x00
            0x00599ead      .byte 0x00
            0x00599eae      .byte 0x00
            0x00599eaf      .byte 0x00
            0x00599eb0      .byte 0x00
            0x00599eb1      .byte 0x00
            0x00599eb2      .byte 0x02
            0x00599eb3      .byte 0x00
            0x00599eb4      .byte 0x00
            0x00599eb5      .byte 0x00
            0x00599eb6      .byte 0x00
            0x00599eb7      .byte 0x00
            0x00599eb8      .byte 0x00
            0x00599eb9      .byte 0x00
            0x00599eba      .byte 0x00
            0x00599ebb      .byte 0x00
            0x00599ebc      .byte 0x00
            0x00599ebd      .byte 0x00
            0x00599ebe      .byte 0x00
            0x00599ebf      .byte 0x00
            0x00599ec0      .byte 0x00
            0x00599ec1      .byte 0x00
            0x00599ec2      .byte 0x00
            0x00599ec3      .byte 0x00
            0x00599ec4      .byte 0x00
            0x00599ec5      .byte 0x00
            0x00599ec6      .byte 0x00
            0x00599ec7      .byte 0x00
            0x00599ec8      .byte 0x00
            0x00599ec9      .byte 0x00
            0x00599eca      .byte 0x00
            0x00599ecb      .byte 0x00
            0x00599ecc      .byte 0x00
            0x00599ecd      .byte 0x00
            0x00599ece      .byte 0x00
            0x00599ecf      .byte 0x00
            0x00599ed0      .byte 0x00
            0x00599ed1      .byte 0x00
            0x00599ed2      .byte 0x0c
            0x00599ed3      .byte 0x00
            0x00599ed4      .byte 0x00
            0x00599ed5      .byte 0x00
            0x00599ed6      .byte 0x00
            0x00599ed7      .byte 0x00
            0x00599ed8      .byte 0x00
            0x00599ed9      .byte 0x00
            0x00599eda      .byte 0x00
            0x00599edb      .byte 0x00
            0x00599edc      .byte 0x00
            0x00599edd      .byte 0x00
            0x00599ede      .byte 0x00
            0x00599edf      .byte 0x00
            0x00599ee0      .byte 0x00
            0x00599ee1      .byte 0x00
            0x00599ee2      .byte 0x00
            0x00599ee3      .byte 0x00
            0x00599ee4      .byte 0x00
            0x00599ee5      .byte 0x00
            0x00599ee6      .byte 0x00
            0x00599ee7      .byte 0x00
            0x00599ee8      .byte 0x00
            0x00599ee9      .byte 0x00
            0x00599eea      .byte 0x00
            0x00599eeb      .byte 0x00
            0x00599eec      .byte 0x00
            0x00599eed      .byte 0x00
            0x00599eee      .byte 0x00
            0x00599eef      .byte 0x00
            0x00599ef0      .byte 0x00
            0x00599ef1      .byte 0x00
            0x00599ef2      .byte 0x0e
            0x00599ef3     .string "Supervol type " ; len=14
            0x00599f01      .byte 0x16
            0x00599f02     .string " not allowed at level " ; len=22
            0x00599f18      .byte 0x00
            0x00599f19      .byte 0x00
            0x00599f1a      .byte 0x06
            0x00599f1b      .byte 0x00
            0x00599f1c      .byte 0x00
            0x00599f1d      .byte 0x00
            0x00599f1e      .byte 0x00
            0x00599f1f      .byte 0x00
            0x00599f20      .byte 0x00
            0x00599f21      .byte 0x00
            0x00599f22      .byte 0x00
            0x00599f23      .byte 0x00
            0x00599f24      .byte 0x00
            0x00599f25      .byte 0x00
            0x00599f26      .byte 0x00
            0x00599f27      .byte 0x00
            0x00599f28      .byte 0x00
            0x00599f29      .byte 0x00
            0x00599f2a      .byte 0x00
            0x00599f2b      .byte 0x00
            0x00599f2c      .byte 0x00
            0x00599f2d      .byte 0x00
            0x00599f2e      .byte 0x00
            0x00599f2f      .byte 0x00
            0x00599f30      .byte 0x00
            0x00599f31      .byte 0x00
            0x00599f32      .byte 0x00
            0x00599f33      .byte 0x00
            0x00599f34      .byte 0x00
            0x00599f35      .byte 0x00
            0x00599f36      .byte 0x00
            0x00599f37      .byte 0x00
            0x00599f38      .byte 0x00
            0x00599f39      .byte 0x00
            0x00599f3a      .byte 0x06
            0x00599f3b      .byte 0x00
            0x00599f3c      .byte 0x00
            0x00599f3d      .byte 0x00
            0x00599f3e      .byte 0x00
            0x00599f3f      .byte 0x00
            0x00599f40      .byte 0x00
            0x00599f41      .byte 0x00
            0x00599f42      .byte 0x00
            0x00599f43      .byte 0x00
            0x00599f44      .byte 0x00
            0x00599f45      .byte 0x00
            0x00599f46      .byte 0x00
            0x00599f47      .byte 0x00
            0x00599f48      .byte 0x00
            0x00599f49      .byte 0x00
            0x00599f4a      .byte 0x00
            0x00599f4b      .byte 0x00
            0x00599f4c      .byte 0x00
            0x00599f4d      .byte 0x00
            0x00599f4e      .byte 0x00
            0x00599f4f      .byte 0x00
            0x00599f50      .byte 0x00
            0x00599f51      .byte 0x00
            0x00599f52      .byte 0x00
            0x00599f53      .byte 0x00
            0x00599f54      .byte 0x00
            0x00599f55      .byte 0x00
            0x00599f56      .byte 0x00
            0x00599f57      .byte 0x00
            0x00599f58      .byte 0x00
            0x00599f59      .byte 0x00
            0x00599f5a      .byte 0x06
            0x00599f5b      .byte 0x00
            0x00599f5c      .byte 0x00
            0x00599f5d      .byte 0x00
            0x00599f5e      .byte 0x00
            0x00599f5f      .byte 0x00
            0x00599f60      .byte 0x00
            0x00599f61      .byte 0x00
            0x00599f62      .byte 0x00
            0x00599f63      .byte 0x00
            0x00599f64      .byte 0x00
            0x00599f65      .byte 0x00
            0x00599f66      .byte 0x00
            0x00599f67      .byte 0x00
            0x00599f68      .byte 0x00
            0x00599f69      .byte 0x00
            0x00599f6a      .byte 0x00
            0x00599f6b      .byte 0x00
            0x00599f6c      .byte 0x00
            0x00599f6d      .byte 0x00
            0x00599f6e      .byte 0x00
            0x00599f6f      .byte 0x00
            0x00599f70      .byte 0x00
            0x00599f71      .byte 0x00
            0x00599f72      .byte 0x00
            0x00599f73      .byte 0x00
            0x00599f74      .byte 0x00
            0x00599f75      .byte 0x00
            0x00599f76      .byte 0x00
            0x00599f77      .byte 0x00
            0x00599f78      .byte 0x00
            0x00599f79      .byte 0x00
            0x00599f7a      .byte 0x06
            0x00599f7b      .byte 0x00
            0x00599f7c      .byte 0x00
            0x00599f7d      .byte 0x00
            0x00599f7e      .byte 0x00
            0x00599f7f      .byte 0x00
            0x00599f80      .byte 0x00
            0x00599f81      .byte 0x00
            0x00599f82      .byte 0x00
            0x00599f83      .byte 0x00
            0x00599f84      .byte 0x00
            0x00599f85      .byte 0x00
            0x00599f86      .byte 0x00
            0x00599f87      .byte 0x00
            0x00599f88      .byte 0x00
            0x00599f89      .byte 0x00
            0x00599f8a      .byte 0x00
            0x00599f8b      .byte 0x00
            0x00599f8c      .byte 0x00
            0x00599f8d      .byte 0x00
            0x00599f8e      .byte 0x00
            0x00599f8f      .byte 0x00
            0x00599f90      .byte 0x00
            0x00599f91      .byte 0x00
            0x00599f92      .byte 0x00
            0x00599f93      .byte 0x00
            0x00599f94      .byte 0x00
            0x00599f95      .byte 0x00
            0x00599f96      .byte 0x00
            0x00599f97      .byte 0x00
            0x00599f98      .byte 0x00
            0x00599f99      .byte 0x00
            0x00599f9a      .byte 0x02
            0x00599f9b      .byte 0x00
            0x00599f9c      .byte 0x00
            0x00599f9d      .byte 0x00
            0x00599f9e      .byte 0x00
            0x00599f9f      .byte 0x00
            0x00599fa0      .byte 0x00
            0x00599fa1      .byte 0x00
            0x00599fa2      .byte 0x00
            0x00599fa3      .byte 0x00
            0x00599fa4      .byte 0x00
            0x00599fa5      .byte 0x00
            0x00599fa6      .byte 0x00
            0x00599fa7      .byte 0x00
            0x00599fa8      .byte 0x00
            0x00599fa9      .byte 0x00
            0x00599faa      .byte 0x00
            0x00599fab      .byte 0x00
            0x00599fac      .byte 0x00
            0x00599fad      .byte 0x00
            0x00599fae      .byte 0x00
            0x00599faf      .byte 0x00
            0x00599fb0      .byte 0x00
            0x00599fb1      .byte 0x00
            0x00599fb2      .byte 0x00
            0x00599fb3      .byte 0x00
            0x00599fb4      .byte 0x00
            0x00599fb5      .byte 0x00
            0x00599fb6      .byte 0x00
            0x00599fb7      .byte 0x00
            0x00599fb8      .byte 0x00
            0x00599fb9      .byte 0x00
            0x00599fba      .byte 0x0c
            0x00599fbb      .byte 0x00
            0x00599fbc      .byte 0x00
            0x00599fbd      .byte 0x00
            0x00599fbe      .byte 0x00
            0x00599fbf      .byte 0x00
            0x00599fc0      .byte 0x00
            0x00599fc1      .byte 0x00
            0x00599fc2      .byte 0x00
            0x00599fc3      .byte 0x00
            0x00599fc4      .byte 0x00
            0x00599fc5      .byte 0x00
            0x00599fc6      .byte 0x00
            0x00599fc7      .byte 0x00
            0x00599fc8      .byte 0x00
            0x00599fc9      .byte 0x00
            0x00599fca      .byte 0x00
            0x00599fcb      .byte 0x00
            0x00599fcc      .byte 0x00
            0x00599fcd      .byte 0x00
            0x00599fce      .byte 0x00
            0x00599fcf      .byte 0x00
            0x00599fd0      .byte 0x00
            0x00599fd1      .byte 0x00
            0x00599fd2      .byte 0x00
            0x00599fd3      .byte 0x00
            0x00599fd4      .byte 0x00
            0x00599fd5      .byte 0x00
            0x00599fd6      .byte 0x00
            0x00599fd7      .byte 0x00
            0x00599fd8      .byte 0x00
            0x00599fd9      .byte 0x00
            0x00599fda      .byte 0x0e
            0x00599fdb     .string "Supervol type " ; len=14
            0x00599fe9      .byte 0x16
            0x00599fea     .string " not allowed at level " ; len=22
            0x0059a000      .byte 0x11
            0x0059a001     .string "No exchangeables." ; len=17
            0x0059a012      .byte 0x07
            0x0059a013     .string "No net." ; len=7
            0x0059a01a      .byte 0x0e
            0x0059a01b     .string "Adding volume " ; len=14
            0x0059a029      .byte 0x02
            0x0059a02a      .byte 0x2c
            0x0059a02b      .byte 0x20
            0x0059a02c      .byte 0x04
            0x0059a02d      .byte 0x20
            0x0059a02e      .byte 0x6f
            0x0059a02f      .byte 0x6e
            0x0059a030      .byte 0x20
            0x0059a031      .byte 0x05
            0x0059a032     .string " dri " ; len=5
            0x0059a037      .byte 0x0e
            0x0059a038     .string ", under filer " ; len=14
            0x0059a046      .byte 0x0e
            0x0059a047     .string "Finding drive " ; len=14
            0x0059a055      .byte 0x0a
            0x0059a056     .string ", new_vol " ; len=10
            0x0059a060      .byte 0x0d
            0x0059a061     .string "Create entry." ; len=13
            0x0059a06e      .byte 0x39
            0x0059a06f     .string "!!!!!!!!!!!!!! Heap full in k03_add_volume !!!!!!!!!!!!!!" ; len=57
            0x0059a0a8      .byte 0x04
            0x0059a0a9      .byte 0x4b
            0x0059a0aa      .byte 0x30
            0x0059a0ab      .byte 0x2d
            0x0059a0ac      .byte 0x56
            0x0059a0ad      .byte 0x1c
            0x0059a0ae     .string "Drive Entry already existed." ; len=28
            0x0059a0ca      .byte 0x07
            0x0059a0cb     .string "Volume " ; len=7
            0x0059a0d2      .byte 0x1c
            0x0059a0d3     .string " is currently known on drive" ; len=28
            0x0059a0ef      .byte 0x07
            0x0059a0f0     .string "No disk" ; len=7
            0x0059a0f7      .byte 0x11
            0x0059a0f8     .string "Before assigning " ; len=17
            0x0059a109      .byte 0x10
            0x0059a10a     .string "After assigning " ; len=16
            0x0059a11a      .byte 0x10
            0x0059a11b     .string "New volume list:" ; len=16
            0x0059a12b      .byte 0x07
            0x0059a12c     .string "Volume " ; len=7
            0x0059a133      .byte 0x07
            0x0059a134     .string " drive " ; len=7
            0x0059a13b      .byte 0x19
            0x0059a13c     .string " volumes in forward list." ; len=25
            0x0059a155      .byte 0x1a
            0x0059a156     .string " volumes in backward list." ; len=26
            0x0059a170      .byte 0x10
            0x0059a171     .string "Removing volume " ; len=16
            0x0059a181      .byte 0x04
            0x0059a182      .byte 0x49
            0x0059a183      .byte 0x76
            0x0059a184      .byte 0x4b
            0x0059a185      .byte 0x56
            0x0059a186      .byte 0x15
            0x0059a187     .string "Couldn't find volume " ; len=21
            0x0059a19c      .byte 0x0b
            0x0059a19d     .string " to remove." ; len=11
            0x0059a1a8      .byte 0x00
            0x0059a1a9      .byte 0x00
            0x0059a1aa      .byte 0x00
            0x0059a1ab      .byte 0x00
            0x0059a1ac      .byte 0x00
            0x0059a1ad      .byte 0x00
            0x0059a1ae      .byte 0x00
            0x0059a1af      .byte 0x00
            0x0059a1b0      .byte 0x00
            0x0059a1b1      .byte 0x00
            0x0059a1b2      .byte 0x00
            0x0059a1b3      .byte 0x00
            0x0059a1b4      .byte 0x00
            0x0059a1b5      .byte 0x00
            0x0059a1b6      .byte 0x00
            0x0059a1b7      .byte 0x00
            0x0059a1b8      .byte 0x00
            0x0059a1b9      .byte 0x00
            0x0059a1ba      .byte 0x00
            0x0059a1bb      .byte 0x00
            0x0059a1bc      .byte 0x00
            0x0059a1bd      .byte 0x00
            0x0059a1be      .byte 0x00
            0x0059a1bf      .byte 0x00
            0x0059a1c0      .byte 0x00
            0x0059a1c1      .byte 0x00
            0x0059a1c2      .byte 0x00
            0x0059a1c3      .byte 0x00
            0x0059a1c4      .byte 0x00
            0x0059a1c5      .byte 0x00
            0x0059a1c6      .byte 0x00
            0x0059a1c7      .byte 0x00
            0x0059a1c8     .string "7K0-choose disk-W-Requirements and prohibitions overlap." ; len=56
            0x0059a200      .byte 0x12
            0x0059a201     .string "Choose vol result " ; len=18
            0x0059a213      .byte 0x18
            0x0059a214     .string "Choose vol returning NIL" ; len=24
            0x0059a22c      .byte 0x09
            0x0059a22d     .string "next vol " ; len=9
            0x0059a236      .byte 0x0b
            0x0059a237     .string ", prev vol " ; len=11
            0x0059a242      .byte 0x08
            0x0059a243     .string ", filer " ; len=8
            0x0059a24b      .byte 0x06
            0x0059a24c     .string ", vol " ; len=6
            0x0059a252      .byte 0x02
            0x0059a253     .string ", " ; len=2
            0x0059a255      .byte 0x21
            0x0059a256     .string "Attempt to add subvol to NIL vol " ; len=33
            0x0059a277      .byte 0x25
            0x0059a278     .string "!!!!! Heap full in k_add_subvol !!!!!" ; len=37
            0x0059a29d      .byte 0x04
            0x0059a29e      .byte 0x4b
            0x0059a29f      .byte 0x30
            0x0059a2a0      .byte 0x73
            0x0059a2a1      .byte 0x76
            0x0059a2a2      .byte 0x0d
            0x0059a2a3     .string "Added subvol " ; len=13
            0x0059a2b0      .byte 0x23
            0x0059a2b1     .string "Attempt to get subvol from NIL vol " ; len=35
            0x0059a2d4      .byte 0x27
            0x0059a2d5     .string "Attempt to get/set subvol from NIL vol " ; len=39
            0x0059a2fc      .byte 0x19
            0x0059a2fd     .string "Attemp to get/set subvol " ; len=25
            0x0059a316      .byte 0x04
            0x0059a317      .byte 0x52
            0x0059a318      .byte 0x6f
            0x0059a319      .byte 0x6f
            0x0059a31a      .byte 0x74
            0x0059a31b      .byte 0x06
            0x0059a31c     .string "Root 1" ; len=6
            0x0059a322      .byte 0x06
            0x0059a323     .string "Root 2" ; len=6
            0x0059a329      .byte 0x0b
            0x0059a32a     .string "local disks" ; len=11
            0x0059a335      .byte 0x0b
            0x0059a336     .string "local disks" ; len=11
            0x0059a341      .byte 0x0c
            0x0059a342     .string "shared disks" ; len=12
            0x0059a34e      .byte 0x0c
            0x0059a34f     .string "shared disks" ; len=12
            0x0059a35b      .byte 0x10
            0x0059a35c     .string "net-shared disks" ; len=16
            0x0059a36c      .byte 0x10
            0x0059a36d     .string "net-shared disks" ; len=16
            0x0059a37d      .byte 0x0b
            0x0059a37e     .string "picturebank" ; len=11
            0x0059a389      .byte 0x0a
            0x0059a38a     .string "bank disks" ; len=10
            0x0059a394      .byte 0x12
            0x0059a395     .string "exchangeable disks" ; len=18
            0x0059a3a7      .byte 0x12
            0x0059a3a8      .byte 0x65
            0x0059a3a9      .byte 0x78
            0x0059a3aa      .byte 0x63
            0x0059a3ab      .byte 0x68
            0x0059a3ac      .byte 0x61
            0x0059a3ad      .byte 0x6e
            0x0059a3ae      .byte 0x67
            0x0059a3af      .byte 0x65
            0x0059a3b0      .byte 0x61
            0x0059a3b1      .byte 0x62
            0x0059a3b2      .byte 0x6c
            0x0059a3b3      .byte 0x65
            0x0059a3b4      .byte 0x20
            0x0059a3b5      .byte 0x64
            0x0059a3b6      .byte 0x69
            0x0059a3b7      .byte 0x73
            0x0059a3b8      .byte 0x6b
            0x0059a3b9      .byte 0x73
            ; CALL XREFS from K03_DISKLIST.add_to_tree @ 0x59b188, 0x59b33c, 0x59b3fc, 0x59b412
 54: K03_DISKLIST.node_type_str ();
           0x0059a3ba      4e56ffe8       link.w a6, 0xffe8
           0x0059a3be      bfd5           cmpa.l (a5), a7
       < 0x0059a3c0      6206           bhi.b 0x59a3c8
          0x0059a3c2      44fc0002       move.w 0x2, ccr
          0x0059a3c6      4e76           trapv
       > 0x0059a3c8      defc0018       adda.w 0x18, a7
           0x0059a3cc      48e780f0       movem.l d0/a0-a3, -(a7)
           0x0059a3d0      45ee000a       lea.l 0xa(a6), a2
           0x0059a3d4      47ee000e       lea.l 0xe(a6), a3
           0x0059a3d8      102e0008       move.b 0x8(a6), d0
           0x0059a3dc      4880           ext.w d0
           0x0059a3de      0c40000a       cmpi.w 0xa, d0
       < 0x0059a3e2      6302           bls.b 0x59a3e6
          0x0059a3e4      4e4e           trap 0xe
       > 0x0059a3e6      d040           add.w d0, d0
           0x0059a3e8      303b0006       move.w 0x59a3f0(pc, d0.w), d0
           0x0059a3ec      4efb0002       jmp 0x59a3f0(pc, d0.w)
            0x0059a3f0      00160022       ori.b 0x22, (a6)
            0x0059a3f4      00340046005c   ori.b 0x46, 0x5c(a4, d0.w)
            0x0059a3fa      006c0076008e   ori.w 0x76, 0x8e(a4)
            0x0059a400      00a600b600c6   ori.l 0xb600c6, -(a6)
            0x0059a406      24baf03c       move.l 0x599444(pc), (a2)
            0x0059a40a      16baf03c       move.b 0x599448(pc), (a3)
        < 0x0059a40e      600000b4       bra.w 0x59a4c4
           0x0059a412      204a           movea.l a2, a0
           0x0059a414      43faf033       lea.l 0x599449(pc), a1
           0x0059a418      7005           moveq 0x5, d0
       > 0x0059a41a      10d9           move.b (a1)+, (a0)+
       < 0x0059a41c      51c8fffc       dbra d0, 0x59a41a
       < 0x0059a420      600000a2       bra.w 0x59a4c4
          0x0059a424      204a           movea.l a2, a0
          0x0059a426      43faf027       lea.l 0x59944f(pc), a1
          0x0059a42a      7006           moveq 0x6, d0
      > 0x0059a42c      10d9           move.b (a1)+, (a0)+
      < 0x0059a42e      51c8fffc       dbra d0, 0x59a42c
      < 0x0059a432      60000090       bra.w 0x59a4c4
         0x0059a436      24baf01e       move.l 0x599456(pc), (a2)
         0x0059a43a      26baf01e       move.l 0x59945a(pc), (a3)
         0x0059a43e      3d7af01e0012   move.w 0x59945e(pc), 0x12(a6)
         0x0059a444      1d7af01a0014   move.b 0x599460(pc), 0x14(a6)
     < 0x0059a44a      6078           bra.b 0x59a4c4
        0x0059a44c      204a           movea.l a2, a0
        0x0059a44e      43faf011       lea.l 0x599461(pc), a1
        0x0059a452      7004           moveq 0x4, d0
    > 0x0059a454      10d9           move.b (a1)+, (a0)+
    < 0x0059a456      51c8fffc       dbra d0, 0x59a454
    < 0x0059a45a      6068           bra.b 0x59a4c4
       0x0059a45c      24baf008       move.l 0x599466(pc), (a2)
       0x0059a460      16baf008       move.b 0x59946a(pc), (a3)
   < 0x0059a464      605e           bra.b 0x59a4c4
      0x0059a466      14baf003       move.b 0x59946b(pc), (a2)
      0x0059a46a      1d7af000000b   move.b 0x59946c(pc), 0xb(a6)
      0x0059a470      1d7aeffb000c   move.b 0x59946d(pc), 0xc(a6)
      0x0059a476      1d7aeff6000d   move.b 0x59946e(pc), 0xd(a6)
  < 0x0059a47c      6046           bra.b 0x59a4c4
     0x0059a47e      14baefef       move.b 0x59946f(pc), (a2)
     0x0059a482      1d7aefec000b   move.b 0x599470(pc), 0xb(a6)
     0x0059a488      1d7aefe7000c   move.b 0x599471(pc), 0xc(a6)
     0x0059a48e      1d7aefe2000d   move.b 0x599472(pc), 0xd(a6)
  < 0x0059a494      602e           bra.b 0x59a4c4
     0x0059a496      204a           movea.l a2, a0
     0x0059a498      43faefd9       lea.l 0x599473(pc), a1
     0x0059a49c      7006           moveq 0x6, d0
  > 0x0059a49e      10d9           move.b (a1)+, (a0)+
  < 0x0059a4a0      51c8fffc       dbra d0, 0x59a49e
  < 0x0059a4a4      601e           bra.b 0x59a4c4
     0x0059a4a6      24baefd2       move.l 0x59947a(pc), (a2)
     0x0059a4aa      36baefd2       move.w 0x59947e(pc), (a3)
     0x0059a4ae      1d7aefd00010   move.b 0x599480(pc), 0x10(a6)
  < 0x0059a4b4      600e           bra.b 0x59a4c4
     0x0059a4b6      204a           movea.l a2, a0
     0x0059a4b8      43faefc7       lea.l 0x599481(pc), a1
     0x0059a4bc      700c           moveq 0xc, d0
  > 0x0059a4be      10d9           move.b (a1)+, (a0)+
  < 0x0059a4c0      51c8fffc       dbra d0, 0x59a4be
  > 0x0059a4c4      4cdf0f01       movem.l (a7)+, d0/a0-a3
            0x0059a4c8      4e5e           unlk a6
            0x0059a4ca      4e75           rts
            ; XREFS: CALL 0x0059d23c  CALL 0x0059d248  CALL 0x0059d254  
            ; XREFS: CALL 0x0059d4dc  CALL 0x0059d4e8  CALL 0x0059d4f4  
            ; XREFS: CALL 0x0059d688  CALL 0x0059d694  CALL 0x0059d6a0  
 58: K03_DISKLIST.node_state_str ();
           0x0059a4cc      4e56ffe4       link.w a6, 0xffe4
           0x0059a4d0      bfd5           cmpa.l (a5), a7
       < 0x0059a4d2      6206           bhi.b 0x59a4da
          0x0059a4d4      44fc0002       move.w 0x2, ccr
          0x0059a4d8      4e76           trapv
       > 0x0059a4da      defc001c       adda.w 0x1c, a7
           0x0059a4de      48e780f8       movem.l d0/a0-a4, -(a7)
           0x0059a4e2      45ee000a       lea.l 0xa(a6), a2
           0x0059a4e6      47ee000e       lea.l 0xe(a6), a3
           0x0059a4ea      49ee0012       lea.l 0x12(a6), a4
           0x0059a4ee      102e0008       move.b 0x8(a6), d0
           0x0059a4f2      4880           ext.w d0
           0x0059a4f4      0c400007       cmpi.w 0x7, d0
       < 0x0059a4f8      6302           bls.b 0x59a4fc
          0x0059a4fa      4e4e           trap 0xe
       > 0x0059a4fc      d040           add.w d0, d0
           0x0059a4fe      303b0006       move.w 0x59a506(pc, d0.w), d0
           0x0059a502      4efb0002       jmp 0x59a506(pc, d0.w)
            0x0059a506      00100016       ori.b 0x16, (a0)
            0x0059a50a      001c002a       ori.b 0x2a, (a4)+
            0x0059a50e      003a0054       
            0x0059a50f      3a00           move.w d0, d5
            0x0059a511      5400           addq.b 0x2, d0
        < 0x0059a513      66007a24       bne.w 0x5a1f39              ; K04_FILEROPS.k_cutout_data+0x301
           0x0059a517      baef7660       cmpa.w 0x7660(a7), a5
           0x0059a51b      7224           moveq 0x24, d1
           0x0059a51d      baef7460       cmpa.w 0x7460(a7), a5
       < 0x0059a521      6c24           bge.b 0x59a547
          0x0059a523      baef7226       cmpa.w 0x7226(a7), a5
          0x0059a527      baef7218       cmpa.w 0x7218(a7), a5
          0x0059a52b      baef7260       cmpa.w 0x7260(a7), a5
          0x0059a52f      5e20           addq.b 0x7, -(a0)
          0x0059a531      4a43           tst.w d3
          0x0059a533      faef6b700c10   fbf.l 0x6bc9b145
          0x0059a539      d951           add.w d4, (a1)
          0x0059a53b      c8fffc60       
          0x0059a53c      fffc           invalid
      < 0x0059a53e      604e           bra.b 0x59a58e
         0x0059a540      24baef6a       move.l 0x5994ac(pc), (a2)
         0x0059a544      26baef6a       move.l 0x5994b0(pc), (a3)
          0x0059a548      28baef6a       move.l 0x5994b4(pc), (a4)
          0x0059a54c      3d7aef6a0016   move.w 0x5994b8(pc), 0x16(a6)
          0x0059a552      1d7aef660018   move.b 0x5994ba(pc), 0x18(a6)
      < 0x0059a558      6034           bra.b 0x59a58e
         0x0059a55a      14baef5f       move.b 0x5994bb(pc), (a2)
         0x0059a55e      1d7aef5c000b   move.b 0x5994bc(pc), 0xb(a6)
         0x0059a564      1d7aef57000c   move.b 0x5994bd(pc), 0xc(a6)
     < 0x0059a56a      6022           bra.b 0x59a58e
        0x0059a56c      24baef50       move.l 0x5994be(pc), (a2)
        0x0059a570      26baef50       move.l 0x5994c2(pc), (a3)
        0x0059a574      38baef50       move.w 0x5994c6(pc), (a4)
        0x0059a578      1d7aef4e0014   move.b 0x5994c8(pc), 0x14(a6)
    < 0x0059a57e      600e           bra.b 0x59a58e
       0x0059a580      204a           movea.l a2, a0
       0x0059a582      43faef45       lea.l 0x5994c9(pc), a1
       0x0059a586      7008           moveq 0x8, d0
   > 0x0059a588      10d9           move.b (a1)+, (a0)+
   < 0x0059a58a      51c8fffc       dbra d0, 0x59a588
    > 0x0059a58e      4cdf1f01       movem.l (a7)+, d0/a0-a4
           0x0059a592      4e5e           unlk a6
           0x0059a594      4e75           rts
 50: K03_DISKLIST.node_sel_str ();
          0x0059a596      4e56ffec       link.w a6, 0xffec
          0x0059a59a      bfd5           cmpa.l (a5), a7
      < 0x0059a59c      6206           bhi.b 0x59a5a4
         0x0059a59e      44fc0002       move.w 0x2, ccr
         0x0059a5a2      4e76           trapv
      > 0x0059a5a4      defc0014       adda.w 0x14, a7
          0x0059a5a8      48e780e0       movem.l d0/a0-a2, -(a7)
          0x0059a5ac      45ee000a       lea.l 0xa(a6), a2
          0x0059a5b0      102e0008       move.b 0x8(a6), d0
          0x0059a5b4      4880           ext.w d0
          0x0059a5b6      0c400002       cmpi.w 0x2, d0
      < 0x0059a5ba      6302           bls.b 0x59a5be
         0x0059a5bc      4e4e           trap 0xe
      > 0x0059a5be      d040           add.w d0, d0
          0x0059a5c0      303b0006       move.w 0x59a5c8(pc, d0.w), d0
          0x0059a5c4      4efb0002       jmp 0x59a5c8(pc, d0.w)
           0x0059a5c8      003400060024   ori.b 0x6, 0x24(a4, d0.w)
           0x0059a5ce      24baef02       move.l 0x5994d2(pc), (a2)
           0x0059a5d2      2d7aef02000e   move.l 0x5994d6(pc), 0xe(a6)
           0x0059a5d8      2d7aef000012   move.l 0x5994da(pc), 0x12(a6)
           0x0059a5de      3d7aeefe0016   move.w 0x5994de(pc), 0x16(a6)
           0x0059a5e4      1d7aeefa0018   move.b 0x5994e0(pc), 0x18(a6)
       < 0x0059a5ea      601e           bra.b 0x59a60a
          0x0059a5ec      204a           movea.l a2, a0
          0x0059a5ee      43faeef1       lea.l 0x5994e1(pc), a1
          0x0059a5f2      700f           moveq 0xf, d0
      > 0x0059a5f4      10d9           move.b (a1)+, (a0)+
      < 0x0059a5f6      51c8fffc       dbra d0, 0x59a5f4
      < 0x0059a5fa      600e           bra.b 0x59a60a
         0x0059a5fc      204a           movea.l a2, a0
         0x0059a5fe      43faeef1       lea.l 0x5994f1(pc), a1
         0x0059a602      700c           moveq 0xc, d0
     > 0x0059a604      10d9           move.b (a1)+, (a0)+
     < 0x0059a606      51c8fffc       dbra d0, 0x59a604
      > 0x0059a60a      4cdf0701       movem.l (a7)+, d0/a0-a2
           0x0059a60e      4e5e           unlk a6
           0x0059a610      4e75           rts
 50: K03_DISKLIST.switch_str ();
          0x0059a612      4e56ffec       link.w a6, 0xffec
          0x0059a616      bfd5           cmpa.l (a5), a7
      < 0x0059a618      6206           bhi.b 0x59a620
         0x0059a61a      44fc0002       move.w 0x2, ccr
         0x0059a61e      4e76           trapv
      > 0x0059a620      defc0014       adda.w 0x14, a7
          0x0059a624      48e780e0       movem.l d0/a0-a2, -(a7)
          0x0059a628      45ee000a       lea.l 0xa(a6), a2
          0x0059a62c      102e0008       move.b 0x8(a6), d0
          0x0059a630      4880           ext.w d0
          0x0059a632      0c400002       cmpi.w 0x2, d0
      < 0x0059a636      6302           bls.b 0x59a63a
         0x0059a638      4e4e           trap 0xe
      > 0x0059a63a      d040           add.w d0, d0
          0x0059a63c      303b0006       move.w 0x59a644(pc, d0.w), d0
          0x0059a640      4efb0002       jmp 0x59a644(pc, d0.w)
           0x0059a644      001e0006       ori.b 0x6, (a6)+
           0x0059a648      003624baeeb2   ori.b 0xba, -0x4e(a6, a6.l)
           0x0059a64e      2d7aeeb2000e   move.l 0x599502(pc), 0xe(a6)
           0x0059a654      2d7aeeb00012   move.l 0x599506(pc), 0x12(a6)
           0x0059a65a      3d7aeeae0016   move.w 0x59950a(pc), 0x16(a6)
       < 0x0059a660      6026           bra.b 0x59a688
          0x0059a662      24baeea8       move.l 0x59950c(pc), (a2)
          0x0059a666      2d7aeea8000e   move.l 0x599510(pc), 0xe(a6)
          0x0059a66c      2d7aeea60012   move.l 0x599514(pc), 0x12(a6)
          0x0059a672      1d7aeea40016   move.b 0x599518(pc), 0x16(a6)
      < 0x0059a678      600e           bra.b 0x59a688
         0x0059a67a      204a           movea.l a2, a0
         0x0059a67c      43faee9b       lea.l 0x599519(pc), a1
         0x0059a680      700c           moveq 0xc, d0
     > 0x0059a682      10d9           move.b (a1)+, (a0)+
     < 0x0059a684      51c8fffc       dbra d0, 0x59a682
      > 0x0059a688      4cdf0701       movem.l (a7)+, d0/a0-a2
           0x0059a68c      4e5e           unlk a6
           0x0059a68e      4e75           rts
           ; CALL XREFS from K03_DISKLIST.get_level @ 0x59a6d0, 0x59a6de
           ; CALL XREF from K03_DISKLIST.show_branches @ 0x59ac04
           ; CALL XREF from K03_DISKLIST.get_node_data @ 0x59bff4
           ; CALL XREF from K03_DISKLIST.k03_supervol_no @ 0x5a0808
 96: K03_DISKLIST.get_level ();
          0x0059a690      4e56ffe4       link.w a6, 0xffe4
          0x0059a694      bfd5           cmpa.l (a5), a7
      < 0x0059a696      6206           bhi.b 0x59a69e
         0x0059a698      44fc0002       move.w 0x2, ccr
         0x0059a69c      4e76           trapv
      > 0x0059a69e      defc001c       adda.w 0x1c, a7
          0x0059a6a2      48e700c0       movem.l a0-a1, -(a7)
          0x0059a6a6      43ee000c       lea.l 0xc(a6), a1
          0x0059a6aa      206e0008       movea.l 0x8(a6), a0
          0x0059a6ae      b1f90083fe46   cmpa.l 0x83fe46, a0
      < 0x0059a6b4      6608           bne.b 0x59a6be
         0x0059a6b6      22bcffffffff   move.l 0xffffffff, (a1)
     < 0x0059a6bc      602a           bra.b 0x59a6e8
     > 0x0059a6be      b1e8fffc       cmpa.l -0x4(a0), a0
     < 0x0059a6c2      6702           beq.b 0x59a6c6
        0x0059a6c4      4e4d           trap 0xd
     > 0x0059a6c6      4a280021       tst.b 0x21(a0)
     < 0x0059a6ca      670e           beq.b 0x59a6da
        0x0059a6cc      594f           subq.w 0x4, a7
        0x0059a6ce      2f10           move.l (a0), -(a7)
        0x0059a6d0      4ebaffbe       jsr K03_DISKLIST.get_level(pc)
        0x0059a6d4      584f           addq.w 0x4, a7
        0x0059a6d6      229f           move.l (a7)+, (a1)
    < 0x0059a6d8      600e           bra.b 0x59a6e8
    > 0x0059a6da      594f           subq.w 0x4, a7
        0x0059a6dc      2f10           move.l (a0), -(a7)
        0x0059a6de      4ebaffb0       jsr K03_DISKLIST.get_level(pc)
        0x0059a6e2      584f           addq.w 0x4, a7
        0x0059a6e4      229f           move.l (a7)+, (a1)
        0x0059a6e6      5291           addq.l 0x1, (a1)
    > 0x0059a6e8      4cdf0300       movem.l (a7)+, a0-a1
          0x0059a6ec      4e5e           unlk a6
          0x0059a6ee      4e75           rts
           ; CALL XREFS from K03_DISKLIST.k03_add_vol @ 0x59f92c, 0x59fb70, 0x59fc4a
 384: K03_DISKLIST.volume_str ();
          0x0059a6f0      4e56fdc2       link.w a6, 0xfdc2
          0x0059a6f4      bfd5           cmpa.l (a5), a7
      < 0x0059a6f6      6206           bhi.b 0x59a6fe
         0x0059a6f8      44fc0002       move.w 0x2, ccr
         0x0059a6fc      4e76           trapv
      > 0x0059a6fe      defc003e       adda.w 0x3e, a7
          0x0059a702      48e7f8f8       movem.l d0-d4/a0-a4, -(a7)
          0x0059a706      47eeff00       lea.l -0x100(a6), a3
          0x0059a70a      49eefe00       lea.l -0x200(a6), a4
          0x0059a70e      363c00ff       move.w 0xff, d3
          0x0059a712      780e           moveq 0xe, d4
          0x0059a714      2f2e0008       move.l 0x8(a6), -(a7)
          0x0059a718      4878ffff       pea.l 0xffff
          0x0059a71c      4854           pea.l (a4)
          0x0059a71e      3f03           move.w d3, -(a7)
          0x0059a720      4eb900406e56   jsr p_strI1
          0x0059a726      dec4           adda.w d4, a7
          0x0059a728      4240           clr.w d0
          0x0059a72a      102e000c       move.b 0xc(a6), d0
          0x0059a72e      3200           move.w d0, d1
          0x0059a730      41eeff01       lea.l -0xff(a6), a0
          0x0059a734      5301           subq.b 0x1, d1
      < 0x0059a736      650a           bcs.b 0x59a742
         0x0059a738      43ee000d       lea.l 0xd(a6), a1
     > 0x0059a73c      10d9           move.b (a1)+, (a0)+
     < 0x0059a73e      51c9fffc       dbra d1, 0x59a73c
      > 0x0059a742      7202           moveq 0x2, d1
          0x0059a744      d200           add.b d0, d1
      < 0x0059a746      6406           bcc.b 0x59a74e
         0x0059a748      4eb900406c8a   jsr p_strovr
      > 0x0059a74e      7202           moveq 0x2, d1
          0x0059a750      3403           move.w d3, d2
          0x0059a752      9440           sub.w d0, d2
          0x0059a754      b242           cmp.w d2, d1
      < 0x0059a756      6302           bls.b 0x59a75a
         0x0059a758      3202           move.w d2, d1
      > 0x0059a75a      1680           move.b d0, (a3)
          0x0059a75c      d313           add.b d1, (a3)
          0x0059a75e      43faedc7       lea.l 0x599527(pc), a1
      > 0x0059a762      10d9           move.b (a1)+, (a0)+
      < 0x0059a764      51c9fffc       dbra d1, 0x59a762
          0x0059a768      4240           clr.w d0
          0x0059a76a      1013           move.b (a3), d0
          0x0059a76c      41eeff01       lea.l -0xff(a6), a0
          0x0059a770      d0c0           adda.w d0, a0
          0x0059a772      4241           clr.w d1
          0x0059a774      1214           move.b (a4), d1
          0x0059a776      d200           add.b d0, d1
      < 0x0059a778      6406           bcc.b 0x59a780
         0x0059a77a      4eb900406c8a   jsr p_strovr
      > 0x0059a780      4241           clr.w d1
          0x0059a782      1214           move.b (a4), d1
          0x0059a784      3403           move.w d3, d2
          0x0059a786      9440           sub.w d0, d2
          0x0059a788      b242           cmp.w d2, d1
      < 0x0059a78a      6302           bls.b 0x59a78e
         0x0059a78c      3202           move.w d2, d1
      > 0x0059a78e      d313           add.b d1, (a3)
          0x0059a790      5301           subq.b 0x1, d1
      < 0x0059a792      650a           bcs.b 0x59a79e
         0x0059a794      43eefe01       lea.l -0x1ff(a6), a1
     > 0x0059a798      10d9           move.b (a1)+, (a0)+
     < 0x0059a79a      51c9fffc       dbra d1, 0x59a798
      > 0x0059a79e      206e0008       movea.l 0x8(a6), a0
          0x0059a7a2      b0fc0001       cmpa.w 0x1, a0
      < 0x0059a7a6      6632           bne.b 0x59a7da
         0x0059a7a8      4240           clr.w d0
         0x0059a7aa      1013           move.b (a3), d0
         0x0059a7ac      43eeff01       lea.l -0xff(a6), a1
         0x0059a7b0      d2c0           adda.w d0, a1
         0x0059a7b2      720c           moveq 0xc, d1
         0x0059a7b4      d200           add.b d0, d1
     < 0x0059a7b6      6406           bcc.b 0x59a7be
        0x0059a7b8      4eb900406c8a   jsr p_strovr
     > 0x0059a7be      720c           moveq 0xc, d1
         0x0059a7c0      3403           move.w d3, d2
         0x0059a7c2      9440           sub.w d0, d2
         0x0059a7c4      b242           cmp.w d2, d1
     < 0x0059a7c6      6302           bls.b 0x59a7ca
        0x0059a7c8      3202           move.w d2, d1
     > 0x0059a7ca      d313           add.b d1, (a3)
         0x0059a7cc      45faed5c       lea.l 0x59952a(pc), a2
     > 0x0059a7d0      12da           move.b (a2)+, (a1)+
     < 0x0059a7d2      51c9fffc       dbra d1, 0x59a7d0
     < 0x0059a7d6      60000082       bra.w 0x59a85a
     > 0x0059a7da      b1e8fffc       cmpa.l -0x4(a0), a0
     < 0x0059a7de      6702           beq.b 0x59a7e2
        0x0059a7e0      4e4d           trap 0xd
     > 0x0059a7e2      2f28000e       move.l 0xe(a0), -(a7)
         0x0059a7e6      4878ffff       pea.l 0xffff
         0x0059a7ea      4854           pea.l (a4)
         0x0059a7ec      3f03           move.w d3, -(a7)
         0x0059a7ee      4eb900406e56   jsr p_strI1
         0x0059a7f4      dec4           adda.w d4, a7
         0x0059a7f6      4240           clr.w d0
         0x0059a7f8      1013           move.b (a3), d0
         0x0059a7fa      43eeff01       lea.l -0xff(a6), a1
         0x0059a7fe      d2c0           adda.w d0, a1
         0x0059a800      7205           moveq 0x5, d1
         0x0059a802      d200           add.b d0, d1
     < 0x0059a804      6406           bcc.b 0x59a80c
        0x0059a806      4eb900406c8a   jsr p_strovr
     > 0x0059a80c      7205           moveq 0x5, d1
         0x0059a80e      3403           move.w d3, d2
         0x0059a810      9440           sub.w d0, d2
         0x0059a812      b242           cmp.w d2, d1
     < 0x0059a814      6302           bls.b 0x59a818
        0x0059a816      3202           move.w d2, d1
     > 0x0059a818      d313           add.b d1, (a3)
         0x0059a81a      45faed1b       lea.l 0x599537(pc), a2
     > 0x0059a81e      12da           move.b (a2)+, (a1)+
     < 0x0059a820      51c9fffc       dbra d1, 0x59a81e
         0x0059a824      4240           clr.w d0
         0x0059a826      1013           move.b (a3), d0
         0x0059a828      43eeff01       lea.l -0xff(a6), a1
         0x0059a82c      d2c0           adda.w d0, a1
         0x0059a82e      4241           clr.w d1
         0x0059a830      1214           move.b (a4), d1
         0x0059a832      d200           add.b d0, d1
     < 0x0059a834      6406           bcc.b 0x59a83c
        0x0059a836      4eb900406c8a   jsr p_strovr
     > 0x0059a83c      4241           clr.w d1
         0x0059a83e      1214           move.b (a4), d1
         0x0059a840      3403           move.w d3, d2
         0x0059a842      9440           sub.w d0, d2
         0x0059a844      b242           cmp.w d2, d1
     < 0x0059a846      6302           bls.b 0x59a84a
        0x0059a848      3202           move.w d2, d1
     > 0x0059a84a      d313           add.b d1, (a3)
         0x0059a84c      5301           subq.b 0x1, d1
     < 0x0059a84e      650a           bcs.b 0x59a85a
        0x0059a850      45eefe01       lea.l -0x1ff(a6), a2
    > 0x0059a854      12da           move.b (a2)+, (a1)+
    < 0x0059a856      51c9fffc       dbra d1, 0x59a854
     > 0x0059a85a      41ee010c       lea.l 0x10c(a6), a0
          0x0059a85e      224b           movea.l a3, a1
          0x0059a860      703f           moveq 0x3f, d0
      > 0x0059a862      20d9           move.l (a1)+, (a0)+
      < 0x0059a864      51c8fffc       dbra d0, 0x59a862
          0x0059a868      4cdf1f1f       movem.l (a7)+, d0-d4/a0-a4
          0x0059a86c      4e5e           unlk a6
          0x0059a86e      4e75           rts
           ; XREFS: CALL 0x0059ac1a  CALL 0x0059b0f2  CALL 0x0059d11c  
           ; XREFS: CALL 0x0059d20a  CALL 0x0059d36a  CALL 0x0059d4a6  
           ; XREFS: CALL 0x0059d59a  CALL 0x0059d652  
 418: K03_DISKLIST.node_str ();
          0x0059a870      4e56fbc4       link.w a6, 0xfbc4
          0x0059a874      bfd5           cmpa.l (a5), a7
      < 0x0059a876      6206           bhi.b 0x59a87e
         0x0059a878      44fc0002       move.w 0x2, ccr
         0x0059a87c      4e76           trapv
      > 0x0059a87e      defc023c       adda.w 0x23c, a7
          0x0059a882      48e7fcf8       movem.l d0-d5/a0-a4, -(a7)
          0x0059a886      49eeff00       lea.l -0x100(a6), a4
          0x0059a88a      363c00ff       move.w 0xff, d3
          0x0059a88e      7801           moveq 0x1, d4
          0x0059a890      7a0e           moveq 0xe, d5
          0x0059a892      2f2e0008       move.l 0x8(a6), -(a7)
          0x0059a896      4878ffff       pea.l 0xffff
          0x0059a89a      486efe00       pea.l -0x200(a6)
          0x0059a89e      3f03           move.w d3, -(a7)
          0x0059a8a0      4eb900406e56   jsr p_strI1
          0x0059a8a6      dec5           adda.w d5, a7
          0x0059a8a8      204c           movea.l a4, a0
          0x0059a8aa      43eefe00       lea.l -0x200(a6), a1
          0x0059a8ae      703f           moveq 0x3f, d0
      > 0x0059a8b0      20d9           move.l (a1)+, (a0)+
      < 0x0059a8b2      51c8fffc       dbra d0, 0x59a8b0
          0x0059a8b6      206e0008       movea.l 0x8(a6), a0
          0x0059a8ba      b0c4           cmpa.w d4, a0
      < 0x0059a8bc      6632           bne.b 0x59a8f0
         0x0059a8be      4240           clr.w d0
         0x0059a8c0      1014           move.b (a4), d0
         0x0059a8c2      43eeff01       lea.l -0xff(a6), a1
         0x0059a8c6      d2c0           adda.w d0, a1
         0x0059a8c8      7205           moveq 0x5, d1
         0x0059a8ca      d200           add.b d0, d1
     < 0x0059a8cc      6406           bcc.b 0x59a8d4
        0x0059a8ce      4eb900406c8a   jsr p_strovr
     > 0x0059a8d4      7205           moveq 0x5, d1
         0x0059a8d6      3403           move.w d3, d2
         0x0059a8d8      9440           sub.w d0, d2
         0x0059a8da      b242           cmp.w d2, d1
     < 0x0059a8dc      6302           bls.b 0x59a8e0
        0x0059a8de      3202           move.w d2, d1
     > 0x0059a8e0      d314           add.b d1, (a4)
         0x0059a8e2      45faec59       lea.l 0x59953d(pc), a2
     > 0x0059a8e6      12da           move.b (a2)+, (a1)+
     < 0x0059a8e8      51c9fffc       dbra d1, 0x59a8e6
     < 0x0059a8ec      600002cc       bra.w loc.0059abba
     > 0x0059a8f0      b1e8fffc       cmpa.l -0x4(a0), a0
     < 0x0059a8f4      6702           beq.b 0x59a8f8
        0x0059a8f6      4e4d           trap 0xd
     > 0x0059a8f8      2f28001c       move.l 0x1c(a0), -(a7)
         0x0059a8fc      4878ffff       pea.l 0xffff
         0x0059a900      486efe00       pea.l -0x200(a6)
         0x0059a904      3f03           move.w d3, -(a7)
         0x0059a906      4eb900406e56   jsr p_strI1
         0x0059a90c      dec5           adda.w d5, a7
         0x0059a90e      4240           clr.w d0
         0x0059a910      1014           move.b (a4), d0
         0x0059a912      43eeff01       lea.l -0xff(a6), a1
         0x0059a916      d2c0           adda.w d0, a1
         0x0059a918      7202           moveq 0x2, d1
         0x0059a91a      d200           add.b d0, d1
     < 0x0059a91c      6406           bcc.b 0x59a924
        0x0059a91e      4eb900406c8a   jsr p_strovr
     > 0x0059a924      7202           moveq 0x2, d1
         0x0059a926      3403           move.w d3, d2
         0x0059a928      9440           sub.w d0, d2
         0x0059a92a      b242           cmp.w d2, d1
     < 0x0059a92c      6302           bls.b 0x59a930
        0x0059a92e      3202           move.w d2, d1
     > 0x0059a930      d314           add.b d1, (a4)
         0x0059a932      45faec0f       lea.l 0x599543(pc), a2
     > 0x0059a936      12da           move.b (a2)+, (a1)+
     < 0x0059a938      51c9fffc       dbra d1, 0x59a936
         0x0059a93c      4240           clr.w d0
         0x0059a93e      1014           move.b (a4), d0
         0x0059a940      43eeff01       lea.l -0xff(a6), a1
         0x0059a944      d2c0           adda.w d0, a1
         0x0059a946      4241           clr.w d1
         0x0059a948      122efe00       move.b -0x200(a6), d1
         0x0059a94c      d200           add.b d0, d1
     < 0x0059a94e      6406           bcc.b 0x59a956
        0x0059a950      4eb900406c8a   jsr p_strovr
     > 0x0059a956      4241           clr.w d1
         0x0059a958      122efe00       move.b -0x200(a6), d1
         0x0059a95c      3403           move.w d3, d2
         0x0059a95e      9440           sub.w d0, d2
         0x0059a960      b242           cmp.w d2, d1
     < 0x0059a962      6302           bls.b 0x59a966
        0x0059a964      3202           move.w d2, d1
     > 0x0059a966      d314           add.b d1, (a4)
         0x0059a968      5301           subq.b 0x1, d1
     < 0x0059a96a      650a           bcs.b 0x59a976
        0x0059a96c      45eefe01       lea.l -0x1ff(a6), a2
    > 0x0059a970      12da           move.b (a2)+, (a1)+
    < 0x0059a972      51c9fffc       dbra d1, 0x59a970
     > 0x0059a976      2268000c       movea.l 0xc(a0), a1
         0x0059a97a      b2c4           cmpa.w d4, a1
     < 0x0059a97c      677c           beq.b 0x59a9fa
        0x0059a97e      2f09           move.l a1, -(a7)
        0x0059a980      4878ffff       pea.l 0xffff
        0x0059a984      486efe00       pea.l -0x200(a6)
        0x0059a988      3f03           move.w d3, -(a7)
        0x0059a98a      4eb900406e56   jsr p_strI1
        0x0059a990      dec5           adda.w d5, a7
        0x0059a992      4240           clr.w d0
        0x0059a994      1014           move.b (a4), d0
        0x0059a996      45eeff01       lea.l -0xff(a6), a2
        0x0059a99a      d4c0           adda.w d0, a2
        0x0059a99c      720b           moveq 0xb, d1
        0x0059a99e      d200           add.b d0, d1
    < 0x0059a9a0      6406           bcc.b 0x59a9a8
       0x0059a9a2      4eb900406c8a   jsr p_strovr
    > 0x0059a9a8      720b           moveq 0xb, d1
        0x0059a9aa      3403           move.w d3, d2
        0x0059a9ac      9440           sub.w d0, d2
        0x0059a9ae      b242           cmp.w d2, d1
    < 0x0059a9b0      6302           bls.b 0x59a9b4
       0x0059a9b2      3202           move.w d2, d1
    > 0x0059a9b4      d314           add.b d1, (a4)
        0x0059a9b6      47faeb8e       lea.l 0x599546(pc), a3
    > 0x0059a9ba      14db           move.b (a3)+, (a2)+
    < 0x0059a9bc      51c9fffc       dbra d1, 0x59a9ba
        0x0059a9c0      4240           clr.w d0
        0x0059a9c2      1014           move.b (a4), d0
        0x0059a9c4      45eeff01       lea.l -0xff(a6), a2
        0x0059a9c8      d4c0           adda.w d0, a2
        0x0059a9ca      4241           clr.w d1
        0x0059a9cc      122efe00       move.b -0x200(a6), d1
        0x0059a9d0      d200           add.b d0, d1
    < 0x0059a9d2      6406           bcc.b 0x59a9da
       0x0059a9d4      4eb900406c8a   jsr p_strovr
    > 0x0059a9da      4241           clr.w d1
        0x0059a9dc      122efe00       move.b -0x200(a6), d1
        0x0059a9e0      3403           move.w d3, d2
        0x0059a9e2      9440           sub.w d0, d2
        0x0059a9e4      b242           cmp.w d2, d1
    < 0x0059a9e6      6302           bls.b 0x59a9ea
       0x0059a9e8      3202           move.w d2, d1
    > 0x0059a9ea      d314           add.b d1, (a4)
        0x0059a9ec      5301           subq.b 0x1, d1
    < 0x0059a9ee      650a           bcs.b 0x59a9fa
       0x0059a9f0      47eefe01       lea.l -0x1ff(a6), a3
   > 0x0059a9f4      14db           move.b (a3)+, (a2)+
   < 0x0059a9f6      51c9fffc       dbra d1, 0x59a9f4
    > 0x0059a9fa      10280022       move.b 0x22(a0), d0
         0x0059a9fe      4880           ext.w d0
         0x0059aa00      0c400002       cmpi.w 0x2, d0
     < 0x0059aa04      6302           bls.b 0x59aa08
        0x0059aa06      4e4e           trap 0xe
     > 0x0059aa08      d040           add.w d0, d0
         0x0059aa0a      303b0006       move.w 0x59aa12(pc, d0.w), d0
         0x0059aa0e      4efb0002       jmp 0x59aa12(pc, d0.w)
          0x0059aa12      000600ae       ori.b 0xae, d6
          0x0059aa16      0100           btst.l d0, d0
          0x0059aa18      22680024       movea.l 0x24(a0), a1
          0x0059aa1c      b2c4           cmpa.w d4, a1
      < 0x0059aa1e      6630           bne.b 0x59aa50
         0x0059aa20      4240           clr.w d0
         0x0059aa22      1014           move.b (a4), d0
         0x0059aa24      45eeff01       lea.l -0xff(a6), a2
         0x0059aa28      d4c0           adda.w d0, a2
         0x0059aa2a      720e           moveq 0xe, d1
         0x0059aa2c      d200           add.b d0, d1
     < 0x0059aa2e      6406           bcc.b 0x59aa36
        0x0059aa30      4eb900406c8a   jsr p_strovr
     > 0x0059aa36      720e           moveq 0xe, d1
         0x0059aa38      3403           move.w d3, d2
         0x0059aa3a      9440           sub.w d0, d2
         0x0059aa3c      b242           cmp.w d2, d1
     < 0x0059aa3e      6302           bls.b 0x59aa42
        0x0059aa40      3202           move.w d2, d1
     > 0x0059aa42      d314           add.b d1, (a4)
         0x0059aa44      47faeb0c       lea.l 0x599552(pc), a3
     > 0x0059aa48      14db           move.b (a3)+, (a2)+
     < 0x0059aa4a      51c9fffc       dbra d1, 0x59aa48
     < 0x0059aa4e      606c           bra.b 0x59aabc
     > 0x0059aa50      4240           clr.w d0
         0x0059aa52      1014           move.b (a4), d0
         0x0059aa54      45eeff01       lea.l -0xff(a6), a2
         0x0059aa58      d4c0           adda.w d0, a2
         0x0059aa5a      7209           moveq 0x9, d1
         0x0059aa5c      d200           add.b d0, d1
     < 0x0059aa5e      6406           bcc.b 0x59aa66
        0x0059aa60      4eb900406c8a   jsr p_strovr
     > 0x0059aa66      7209           moveq 0x9, d1
         0x0059aa68      3403           move.w d3, d2
         0x0059aa6a      9440           sub.w d0, d2
         0x0059aa6c      b242           cmp.w d2, d1
     < 0x0059aa6e      6302           bls.b 0x59aa72
        0x0059aa70      3202           move.w d2, d1
     > 0x0059aa72      d314           add.b d1, (a4)
         0x0059aa74      47faeaeb       lea.l 0x599561(pc), a3
     > 0x0059aa78      14db           move.b (a3)+, (a2)+
     < 0x0059aa7a      51c9fffc       dbra d1, 0x59aa78
         0x0059aa7e      b3e9fffc       cmpa.l -0x4(a1), a1
     < 0x0059aa82      6702           beq.b 0x59aa86
        0x0059aa84      4e4d           trap 0xd
     > 0x0059aa86      4240           clr.w d0
         0x0059aa88      1014           move.b (a4), d0
         0x0059aa8a      45eeff01       lea.l -0xff(a6), a2
         0x0059aa8e      d4c0           adda.w d0, a2
         0x0059aa90      4241           clr.w d1
         0x0059aa92      1211           move.b (a1), d1
         0x0059aa94      d200           add.b d0, d1
     < 0x0059aa96      6406           bcc.b 0x59aa9e
        0x0059aa98      4eb900406c8a   jsr p_strovr
     > 0x0059aa9e      4241           clr.w d1
         0x0059aaa0      1211           move.b (a1), d1
         0x0059aaa2      3403           move.w d3, d2
         0x0059aaa4      9440           sub.w d0, d2
         0x0059aaa6      b242           cmp.w d2, d1
     < 0x0059aaa8      6302           bls.b 0x59aaac
        0x0059aaaa      3202           move.w d2, d1
     > 0x0059aaac      d314           add.b d1, (a4)
         0x0059aaae      5301           subq.b 0x1, d1
     < 0x0059aab0      650a           bcs.b 0x59aabc
        0x0059aab2      47e90001       lea.l 0x1(a1), a3
    > 0x0059aab6      14db           move.b (a3)+, (a2)+
    < 0x0059aab8      51c9fffc       dbra d1, 0x59aab6
    > 0x0059aabc      600000fc       bra.w loc.0059abba
         0x0059aac0      9efc0200       suba.w 0x200, a7
         0x0059aac4      1ebaeaa4       move.b 0x59956a(pc), (a7)
         0x0059aac8      2f280024       move.l 0x24(a0), -(a7)
         0x0059aacc      4ebafc22       jsr K03_DISKLIST.volume_str(pc)
         0x0059aad0      defc0104       adda.w 0x104, a7
         0x0059aad4      4240           clr.w d0
         0x0059aad6      1014           move.b (a4), d0
         0x0059aad8      43eeff01       lea.l -0xff(a6), a1
         0x0059aadc      d2c0           adda.w d0, a1
         0x0059aade      4241           clr.w d1
         0x0059aae0      1217           move.b (a7), d1
         0x0059aae2      d200           add.b d0, d1
     < 0x0059aae4      6406           bcc.b 0x59aaec
        0x0059aae6      4eb900406c8a   jsr p_strovr
     > 0x0059aaec      4241           clr.w d1
         0x0059aaee      1217           move.b (a7), d1
         0x0059aaf0      3403           move.w d3, d2
         0x0059aaf2      9440           sub.w d0, d2
         0x0059aaf4      b242           cmp.w d2, d1
     < 0x0059aaf6      6302           bls.b 0x59aafa
        0x0059aaf8      3202           move.w d2, d1
     > 0x0059aafa      d314           add.b d1, (a4)
         0x0059aafc      5301           subq.b 0x1, d1
     < 0x0059aafe      650a           bcs.b 0x59ab0a
        0x0059ab00      45ef0001       lea.l 0x1(a7), a2
    > 0x0059ab04      12da           move.b (a2)+, (a1)+
    < 0x0059ab06      51c9fffc       dbra d1, 0x59ab04
     > 0x0059ab0a      defc0100       adda.w 0x100, a7
     < 0x0059ab0e      600000aa       bra.w loc.0059abba
        0x0059ab12      22680024       movea.l 0x24(a0), a1
        0x0059ab16      b2c4           cmpa.w d4, a1
    < 0x0059ab18      6630           bne.b 0x59ab4a
       0x0059ab1a      4240           clr.w d0
       0x0059ab1c      1014           move.b (a4), d0
       0x0059ab1e      45eeff01       lea.l -0xff(a6), a2
       0x0059ab22      d4c0           adda.w d0, a2
       0x0059ab24      720c           moveq 0xc, d1
       0x0059ab26      d200           add.b d0, d1
   < 0x0059ab28      6406           bcc.b 0x59ab30
      0x0059ab2a      4eb900406c8a   jsr p_strovr
   > 0x0059ab30      720c           moveq 0xc, d1
       0x0059ab32      3403           move.w d3, d2
       0x0059ab34      9440           sub.w d0, d2
       0x0059ab36      b242           cmp.w d2, d1
   < 0x0059ab38      6302           bls.b 0x59ab3c
      0x0059ab3a      3202           move.w d2, d1
   > 0x0059ab3c      d314           add.b d1, (a4)
       0x0059ab3e      47faea2c       lea.l 0x59956c(pc), a3
   > 0x0059ab42      14db           move.b (a3)+, (a2)+
   < 0x0059ab44      51c9fffc       dbra d1, 0x59ab42
   < 0x0059ab48      6070           bra.b loc.0059abba
   > 0x0059ab4a      4240           clr.w d0
       0x0059ab4c      1014           move.b (a4), d0
       0x0059ab4e      45eeff01       lea.l -0xff(a6), a2
       0x0059ab52      d4c0           adda.w d0, a2
       0x0059ab54      7208           moveq 0x8, d1
       0x0059ab56      d200           add.b d0, d1
   < 0x0059ab58      6406           bcc.b 0x59ab60
      0x0059ab5a      4eb900406c8a   jsr p_strovr
   > 0x0059ab60      7208           moveq 0x8, d1
       0x0059ab62      3403           move.w d3, d2
       0x0059ab64      9440           sub.w d0, d2
       0x0059ab66      b242           cmp.w d2, d1
   < 0x0059ab68      6302           bls.b 0x59ab6c
      0x0059ab6a      3202           move.w d2, d1
   > 0x0059ab6c      d314           add.b d1, (a4)
       0x0059ab6e      47faea09       lea.l 0x599579(pc), a3
   > 0x0059ab72      14db           move.b (a3)+, (a2)+
   < 0x0059ab74      51c9fffc       dbra d1, 0x59ab72
       0x0059ab78      b3e9fffc       cmpa.l -0x4(a1), a1
   < 0x0059ab7c      6702           beq.b 0x59ab80
      0x0059ab7e      4e4d           trap 0xd
   > 0x0059ab80      4240           clr.w d0
       0x0059ab82      1014           move.b (a4), d0
       0x0059ab84      45eeff01       lea.l -0xff(a6), a2
       0x0059ab88      d4c0           adda.w d0, a2
       0x0059ab8a      4241           clr.w d1
       0x0059ab8c      12290010       move.b 0x10(a1), d1
       0x0059ab90      d200           add.b d0, d1
   < 0x0059ab92      6406           bcc.b 0x59ab9a
      0x0059ab94      4eb900406c8a   jsr p_strovr
   > 0x0059ab9a      4241           clr.w d1
       0x0059ab9c      12290010       move.b 0x10(a1), d1
       0x0059aba0      3403           move.w d3, d2
       0x0059aba2      9440           sub.w d0, d2
       0x0059aba4      b242           cmp.w d2, d1
   < 0x0059aba6      6302           bls.b 0x59abaa
      0x0059aba8      3202           move.w d2, d1
   > 0x0059abaa      d314           add.b d1, (a4)
       0x0059abac      5301           subq.b 0x1, d1
   < 0x0059abae      650a           bcs.b loc.0059abba
      0x0059abb0      47e90011       lea.l 0x11(a1), a3
  > 0x0059abb4      14db           move.b (a3)+, (a2)+
  < 0x0059abb6      51c9fffc       dbra d1, 0x59abb4
      ; CODE XREF from K03_DISKLIST.node_str @ 0x59a8ec
 22: loc.0059abba ();
  > 0x0059abba      41ee000c       lea.l 0xc(a6), a0
          0x0059abbe      224c           movea.l a4, a1
          0x0059abc0      703f           moveq 0x3f, d0
      > 0x0059abc2      20d9           move.l (a1)+, (a0)+
      < 0x0059abc4      51c8fffc       dbra d0, 0x59abc2
          0x0059abc8      4cdf1f3f       movem.l (a7)+, d0-d5/a0-a4
          0x0059abcc      4e5e           unlk a6
          0x0059abce      4e75           rts
           ; CALL XREF from K03_DISKLIST.show_branches @ 0x59ac4a
           ; CALL XREF from K03_DISKLIST.show_tree @ 0x59ac96
 142: K03_DISKLIST.show_branches ();
          ; var int32_t var_8h @ a7+0x8
          0x0059abd0      4e56fee8       link.w a6, 0xfee8
          0x0059abd4      bfd5           cmpa.l (a5), a7
      < 0x0059abd6      6206           bhi.b 0x59abde
         0x0059abd8      44fc0002       move.w 0x2, ccr
         0x0059abdc      4e76           trapv
      > 0x0059abde      defc0114       adda.w 0x114, a7
          0x0059abe2      48e70010       movem.l a3, -(a7)
          0x0059abe6      266e0008       movea.l 0x8(a6), a3
      > 0x0059abea      b6fc0001       cmpa.w 0x1, a3
     < 0x0059abee      6766           beq.b 0x59ac56
        0x0059abf0      487ae990       pea.l 0x599582(pc)
        0x0059abf4      48780006       pea.l 0x6
        0x0059abf8      2f17           move.l (a7), -(a7)
        0x0059abfa      4eb9004047ea   jsr p_wts_o
        0x0059ac00      584f           addq.w 0x4, a7
        0x0059ac02      2e8b           move.l a3, (a7)
        0x0059ac04      4ebafa8a       jsr K03_DISKLIST.get_level(pc)
        0x0059ac08      584f           addq.w 0x4, a7
        0x0059ac0a      48780002       pea.l 0x2
        0x0059ac0e      4eb9004070e4   jsr p_wti_o
        0x0059ac14      9efc00f8       suba.w 0xf8, a7
        0x0059ac18      2f0b           move.l a3, -(a7)
        0x0059ac1a      4ebafc54       jsr K03_DISKLIST.node_str(pc)
        0x0059ac1e      584f           addq.w 0x4, a7
        0x0059ac20      486f0001       pea.l 0x1(a7)
        0x0059ac24      42a7           clr.l -(a7)
        0x0059ac26      1f6f00080003   move.b 0x8(a7), 0x3(a7)
        0x0059ac2c      2f17           move.l (a7), -(a7)
        0x0059ac2e      4eb9004047ea   jsr p_wts_o
        0x0059ac34      defc010c       adda.w 0x10c, a7
        0x0059ac38      4eb900404946   jsr p_wtln_o
        0x0059ac3e      b7ebfffc       cmpa.l -0x4(a3), a3
    < 0x0059ac42      6702           beq.b 0x59ac46
       0x0059ac44      4e4d           trap 0xd
    > 0x0059ac46      2f2b0008       move.l 0x8(a3), -(a7)
        0x0059ac4a      4ebaff84       jsr K03_DISKLIST.show_branches(pc)
        0x0059ac4e      584f           addq.w 0x4, a7
        0x0059ac50      266b0004       movea.l 0x4(a3), a3
     < 0x0059ac54      6094           bra.b 0x59abea
     > 0x0059ac56      4cdf0800       movem.l (a7)+, a3
          0x0059ac5a      4e5e           unlk a6
          0x0059ac5c      4e75           rts
           ; CALL XREF from K03_DISKLIST.remove_from_tre @ 0x59ba26
           ; CALL XREF from K03_DISKLIST.k03_add_vol @ 0x59f83c
 254: K03_DISKLIST.show_tree ();
          ; var int32_t var_8h @ a7+0x8
          0x0059ac5e      4e56fed4       link.w a6, 0xfed4
          0x0059ac62      bfd5           cmpa.l (a5), a7
      < 0x0059ac64      6206           bhi.b 0x59ac6c
         0x0059ac66      44fc0002       move.w 0x2, ccr
         0x0059ac6a      4e76           trapv
      > 0x0059ac6c      defc012c       adda.w 0x12c, a7
          0x0059ac70      48e7e0e8       movem.l d0-d2/a0-a2/a4, -(a7)
          0x0059ac74      41f9004047ea   lea.l p_wts_o, a0
          0x0059ac7a      43fafbf4       lea.l K03_DISKLIST.node_str(pc), a1
          0x0059ac7e      45f900404946   lea.l p_wtln_o, a2
          0x0059ac84      700c           moveq 0xc, d0
          0x0059ac86      323c010c       move.w 0x10c, d1
          0x0059ac8a      343c0100       move.w 0x100, d2
          0x0059ac8e      2f390083fe46   move.l 0x83fe46, -(a7)
          0x0059ac94      284e           movea.l a6, a4
          0x0059ac96      4ebaff38       jsr K03_DISKLIST.show_branches(pc)
          0x0059ac9a      9efc00fc       suba.w 0xfc, a7
          0x0059ac9e      2f390083fe4a   move.l 0x83fe4a, -(a7)
          0x0059aca4      4e91           jsr (a1)                    ; fcn.0000000a
          0x0059aca6      584f           addq.w 0x4, a7
          0x0059aca8      487ae8df       pea.l 0x599589(pc)
          0x0059acac      4878000a       pea.l 0xa
          0x0059acb0      2f17           move.l (a7), -(a7)
          0x0059acb2      4e90           jsr (a0)                    ; fcn.00000009
          0x0059acb4      dec0           adda.w d0, a7
          0x0059acb6      486f0001       pea.l 0x1(a7)
          0x0059acba      42a7           clr.l -(a7)
          0x0059acbc      1f6f00080003   move.b 0x8(a7), 0x3(a7)
          0x0059acc2      2f17           move.l (a7), -(a7)
          0x0059acc4      4e90           jsr (a0)                    ; fcn.00000009
          0x0059acc6      dec1           adda.w d1, a7
          0x0059acc8      4e92           jsr (a2)                    ; fcn.00000009+0x2
          0x0059acca      9ec2           suba.w d2, a7
          0x0059accc      2f390083fe4e   move.l 0x83fe4e, -(a7)
          0x0059acd2      4e91           jsr (a1)                    ; fcn.0000000a
          0x0059acd4      584f           addq.w 0x4, a7
          0x0059acd6      487ae8bc       pea.l 0x599594(pc)
          0x0059acda      48780010       pea.l 0x10
          0x0059acde      2f17           move.l (a7), -(a7)
          0x0059ace0      4e90           jsr (a0)                    ; fcn.00000009
          0x0059ace2      dec0           adda.w d0, a7
          0x0059ace4      486f0001       pea.l 0x1(a7)
          0x0059ace8      42a7           clr.l -(a7)
          0x0059acea      1f6f00080003   move.b 0x8(a7), 0x3(a7)
          0x0059acf0      2f17           move.l (a7), -(a7)
          0x0059acf2      4e90           jsr (a0)                    ; fcn.00000009
          0x0059acf4      dec1           adda.w d1, a7
          0x0059acf6      4e92           jsr (a2)                    ; fcn.00000009+0x2
          0x0059acf8      9ec2           suba.w d2, a7
          0x0059acfa      2f390083fe52   move.l 0x83fe52, -(a7)
          0x0059ad00      4e91           jsr (a1)                    ; fcn.0000000a
          0x0059ad02      584f           addq.w 0x4, a7
          0x0059ad04      487ae89f       pea.l 0x5995a5(pc)
          0x0059ad08      4878000d       pea.l 0xd
          0x0059ad0c      2f17           move.l (a7), -(a7)
          0x0059ad0e      4e90           jsr (a0)                    ; fcn.00000009
          0x0059ad10      dec0           adda.w d0, a7
          0x0059ad12      486f0001       pea.l 0x1(a7)
          0x0059ad16      42a7           clr.l -(a7)
          0x0059ad18      1f6f00080003   move.b 0x8(a7), 0x3(a7)
          0x0059ad1e      2f17           move.l (a7), -(a7)
          0x0059ad20      4e90           jsr (a0)                    ; fcn.00000009
          0x0059ad22      dec1           adda.w d1, a7
          0x0059ad24      4e92           jsr (a2)                    ; fcn.00000009+0x2
          0x0059ad26      9ec2           suba.w d2, a7
          0x0059ad28      2f390083fe56   move.l 0x83fe56, -(a7)
          0x0059ad2e      4e91           jsr (a1)                    ; fcn.0000000a
          0x0059ad30      584f           addq.w 0x4, a7
          0x0059ad32      487ae87f       pea.l 0x5995b3(pc)
          0x0059ad36      4878000a       pea.l 0xa
          0x0059ad3a      2f17           move.l (a7), -(a7)
          0x0059ad3c      4e90           jsr (a0)                    ; fcn.00000009
          0x0059ad3e      dec0           adda.w d0, a7
          0x0059ad40      486f0001       pea.l 0x1(a7)
          0x0059ad44      42a7           clr.l -(a7)
          0x0059ad46      1f6f00080003   move.b 0x8(a7), 0x3(a7)
          0x0059ad4c      2f17           move.l (a7), -(a7)
          0x0059ad4e      4e90           jsr (a0)                    ; fcn.00000009
          0x0059ad50      dec1           adda.w d1, a7
          0x0059ad52      4e92           jsr (a2)                    ; fcn.00000009+0x2
          0x0059ad54      4cdf1707       movem.l (a7)+, d0-d2/a0-a2/a4
          0x0059ad58      4e5e           unlk a6
          0x0059ad5a      4e75           rts
           ; CALL XREF from K03_DISKLIST.find_insert_nod @ 0x59af24
 50: K03_DISKLIST.new_node ();
          0x0059ad5c      4e56ffc6       link.w a6, 0xffc6
          0x0059ad60      bfd5           cmpa.l (a5), a7
      < 0x0059ad62      6206           bhi.b 0x59ad6a
         0x0059ad64      44fc0002       move.w 0x2, ccr
         0x0059ad68      4e76           trapv
      > 0x0059ad6a      defc003a       adda.w 0x3a, a7
          0x0059ad6e      48e7f0f0       movem.l d0-d3/a0-a3, -(a7)
          0x0059ad72      7401           moveq 0x1, d2
          0x0059ad74      7602           moveq 0x2, d3
          0x0059ad76      102c0016       move.b 0x16(a4), d0
          0x0059ad7a      4880           ext.w d0
          0x0059ad7c      3200           move.w d0, d1
          0x0059ad7e      b243           cmp.w d3, d1
      < 0x0059ad80      6302           bls.b 0x59ad84
         0x0059ad82      4e4e           trap 0xe
      > 0x0059ad84      d241           add.w d1, d1
          0x0059ad86      323b1006       move.w 0x59ad8e(pc, d1.w), d1
          0x0059ad8a      4efb1002       jmp 0x59ad8e(pc, d1.w)
           0x0059ad8e      002e0006001a   ori.b 0x6, 0x1a(a6)
       > 0x0059ad94      206c0012       movea.l 0x12(a4), a0
          0x0059ad98      4850           pea.l (a0)
          0x0059ad9a      48780028       pea.l 0x28
          0x0059ad9e      4eb900403a92   jsr p_New
          0x0059ada4      504f           addq.w 0x8, a7
      < 0x0059ada6      6016           bra.b 0x59adbe
         0x0059ada8      206c0012       movea.l 0x12(a4), a0
         0x0059adac      4850           pea.l (a0)
         0x0059adae      48780028       pea.l 0x28
         0x0059adb2      4eb900403a92   jsr p_New
         0x0059adb8      504f           addq.w 0x8, a7
     < 0x0059adba      6002           bra.b 0x59adbe
     < 0x0059adbc      60d6           bra.b 0x59ad94
     > 0x0059adbe      206c0012       movea.l 0x12(a4), a0
           0x0059adc2      2f08           move.l a0, -(a7)
           0x0059adc4      2250           movea.l (a0), a1
           0x0059adc6      b3e9fffc       cmpa.l -0x4(a1), a1
       < 0x0059adca      6702           beq.b 0x59adce
          0x0059adcc      4e4d           trap 0xd
       > 0x0059adce      236c00060004   move.l 0x6(a4), 0x4(a1)
           0x0059add4      236c0018001c   move.l 0x18(a4), 0x1c(a1)
           0x0059adda      23420008       move.l d2, 0x8(a1)
           0x0059adde      42290020       clr.b 0x20(a1)
           0x0059ade2      42290021       clr.b 0x21(a1)
           0x0059ade6      13400022       move.b d0, 0x22(a1)
           0x0059adea      22ac001c       move.l 0x1c(a4), (a1)
           0x0059adee      b043           cmp.w d3, d0
       < 0x0059adf0      6302           bls.b 0x59adf4
          0x0059adf2      4e4e           trap 0xe
       > 0x0059adf4      d040           add.w d0, d0
           0x0059adf6      303b0006       move.w 0x59adfe(pc, d0.w), d0
           0x0059adfa      4efb0002       jmp 0x59adfe(pc, d0.w)
           0x0059adfe      00120006       ori.b 0x6, (a2)
           0x0059ae02      000c2342       
           0x0059ae03      0c234200       cmpi.b 0x0, -(a3)
           0x0059ae07      2460           movea.l -(a0), a2
       < 0x0059ae09      6423           bcc.b 0x59ae2e
          0x0059ae0b      4200           clr.b d0
          0x0059ae0d      2460           movea.l -(a0), a2
          0x0059ae0f      5e48           addq.w 0x7, a0
      < 0x0059ae11      69002448       bvs.w 0x59d25b              ; K03_DISKLIST.super_vol_state+0x16f
         0x0059ae15      7803           moveq 0x3, d4
         0x0059ae17      074eb900       movep.l -0x4700(a6), d3
         0x0059ae1b      403a9250       
         0x0059ae1c      3a92           move.w (a2), (a5)
         0x0059ae1e      504f           addq.w 0x8, a7
         0x0059ae20      24690024       movea.l 0x24(a1), a2
         0x0059ae24      b5eafffc       cmpa.l -0x4(a2), a2
     < 0x0059ae28      6702           beq.b 0x59ae2c
        0x0059ae2a      4e4d           trap 0xd
     > 0x0059ae2c      14bae78f       move.b 0x5995bd(pc), (a2)
          0x0059ae30      47ea0100       lea.l 0x100(a2), a3
          0x0059ae34      41fae788       lea.l 0x5995be(pc), a0
          0x0059ae38      7004           moveq 0x4, d0
      > 0x0059ae3a      16d8           move.b (a0)+, (a3)+
      < 0x0059ae3c      51c8fffc       dbra d0, 0x59ae3a
          0x0059ae40      41ea0200       lea.l 0x200(a2), a0
          0x0059ae44      47fae77d       lea.l 0x5995c3(pc), a3
          0x0059ae48      700a           moveq 0xa, d0
      > 0x0059ae4a      10db           move.b (a3)+, (a0)+
      < 0x0059ae4c      51c8fffc       dbra d0, 0x59ae4a
          0x0059ae50      157c00060300   move.b 0x6, 0x300(a2)
          0x0059ae56      15420302       move.b d2, 0x302(a2)
          0x0059ae5a      15420301       move.b d2, 0x301(a2)
          0x0059ae5e      15420303       move.b d2, 0x303(a2)
          0x0059ae62      15420305       move.b d2, 0x305(a2)
          0x0059ae66      15420304       move.b d2, 0x304(a2)
          0x0059ae6a      15420306       move.b d2, 0x306(a2)
          0x0059ae6e      206c0002       movea.l 0x2(a4), a0
          0x0059ae72      b0c2           cmpa.w d2, a0
      < 0x0059ae74      6710           beq.b 0x59ae86
         0x0059ae76      b1e8fffc       cmpa.l -0x4(a0), a0
     < 0x0059ae7a      6702           beq.b 0x59ae7e
        0x0059ae7c      4e4d           trap 0xd
     > 0x0059ae7e      2457           movea.l (a7), a2
         0x0059ae80      21520004       move.l (a2), 0x4(a0)
     < 0x0059ae84      6012           bra.b 0x59ae98
     > 0x0059ae86      206c001c       movea.l 0x1c(a4), a0
         0x0059ae8a      b1e8fffc       cmpa.l -0x4(a0), a0
     < 0x0059ae8e      6702           beq.b 0x59ae92
        0x0059ae90      4e4d           trap 0xd
     > 0x0059ae92      2457           movea.l (a7), a2
         0x0059ae94      21520008       move.l (a2), 0x8(a0)
     > 0x0059ae98      2342000c       move.l d2, 0xc(a1)
          0x0059ae9c      23420010       move.l d2, 0x10(a1)
          0x0059aea0      23420018       move.l d2, 0x18(a1)
          0x0059aea4      584f           addq.w 0x4, a7
          0x0059aea6      23420014       move.l d2, 0x14(a1)
          0x0059aeaa      19420020       move.b d2, 0x20(a4)
          0x0059aeae      4cdf0f0f       movem.l (a7)+, d0-d3/a0-a3
          0x0059aeb2      4e5e           unlk a6
          0x0059aeb4      4e75           rts
          ; CALL XREFS from K03_DISKLIST.add_to_tree @ 0x59b314, 0x59b3ce
          ; CALL XREF from K03_DISKLIST @ +0x21aa
 168: K03_DISKLIST.find_insert_nod ();
         0x0059aeb6      4e56ffc4       link.w a6, 0xffc4
         0x0059aeba      bfd5           cmpa.l (a5), a7
     < 0x0059aebc      6206           bhi.b 0x59aec4
        0x0059aebe      44fc0002       move.w 0x2, ccr
        0x0059aec2      4e76           trapv
     > 0x0059aec4      defc0032       adda.w 0x32, a7
         0x0059aec8      48e7e1f8       movem.l d0-d2/d7/a0-a4, -(a7)
         0x0059aecc      45eefffc       lea.l -0x4(a6), a2
         0x0059aed0      47ee000e       lea.l 0xe(a6), a3
         0x0059aed4      7401           moveq 0x1, d2
         0x0059aed6      206e0012       movea.l 0x12(a6), a0
         0x0059aeda      b1e8fffc       cmpa.l -0x4(a0), a0
     < 0x0059aede      6702           beq.b 0x59aee2
        0x0059aee0      4e4d           trap 0xd
     > 0x0059aee2      24a80008       move.l 0x8(a0), (a2)
         0x0059aee6      2d42fff8       move.l d2, -0x8(a6)
         0x0059aeea      7e00           moveq 0x0, d7
     > 0x0059aeec      4a07           tst.b d7
    < 0x0059aeee      662a           bne.b 0x59af1a
       0x0059aef0      2052           movea.l (a2), a0
       0x0059aef2      b0c2           cmpa.w d2, a0
   < 0x0059aef4      6724           beq.b 0x59af1a
      0x0059aef6      7000           moveq 0x0, d0
      0x0059aef8      2052           movea.l (a2), a0
      0x0059aefa      b1e8fffc       cmpa.l -0x4(a0), a0
  < 0x0059aefe      6702           beq.b 0x59af02
     0x0059af00      4e4d           trap 0xd
  > 0x0059af02      2228001c       move.l 0x1c(a0), d1
      0x0059af06      b293           cmp.l (a3), d1
  < 0x0059af08      6d02           blt.b 0x59af0c
     0x0059af0a      5200           addq.b 0x1, d0
  > 0x0059af0c      1e00           move.b d0, d7
  < 0x0059af0e      6608           bne.b 0x59af18
     0x0059af10      2d52fff8       move.l (a2), -0x8(a6)
     0x0059af14      24a80004       move.l 0x4(a0), (a2)
  < 0x0059af18      60d2           bra.b 0x59aeec
   > 0x0059af1a      2052           movea.l (a2), a0
         0x0059af1c      b0c2           cmpa.w d2, a0
     < 0x0059af1e      660a           bne.b 0x59af2a
    > 0x0059af20      49eefff6       lea.l -0xa(a6), a4
       0x0059af24      4ebafe36       jsr K03_DISKLIST.new_node(pc)
   < 0x0059af28      602c           bra.b 0x59af56
   > 0x0059af2a      b1e8fffc       cmpa.l -0x4(a0), a0
   < 0x0059af2e      6702           beq.b 0x59af32
      0x0059af30      4e4d           trap 0xd
   > 0x0059af32      2028001c       move.l 0x1c(a0), d0
       0x0059af36      b093           cmp.l (a3), d0
   < 0x0059af38      6f02           ble.b 0x59af3c
   < 0x0059af3a      60e4           bra.b 0x59af20
    > 0x0059af3c      4227           clr.b -(a7)
        0x0059af3e      b093           cmp.l (a3), d0
    < 0x0059af40      6602           bne.b 0x59af44
       0x0059af42      5217           addq.b 0x1, (a7)
    > 0x0059af44      4eb90040452a   jsr p_Assert
        0x0059af4a      544f           addq.w 0x2, a7
        0x0059af4c      226e0008       movea.l 0x8(a6), a1
        0x0059af50      2288           move.l a0, (a1)
        0x0059af52      422e0016       clr.b 0x16(a6)
   > 0x0059af56      4cdf1f87       movem.l (a7)+, d0-d2/d7/a0-a4
         0x0059af5a      4e5e           unlk a6
         0x0059af5c      4e75           rts
          ; CALL XREF from K03_DISKLIST.k03_add_vol @ 0x59fca6
          ; CALL XREF from K03_DISKLIST.k03_add_subvol @ 0x5a04a4
 354: K03_DISKLIST.get_node_type ();
         0x0059af5e      4e56ffb2       link.w a6, 0xffb2
         0x0059af62      bfd5           cmpa.l (a5), a7
     < 0x0059af64      6206           bhi.b 0x59af6c
        0x0059af66      44fc0002       move.w 0x2, ccr
        0x0059af6a      4e76           trapv
     > 0x0059af6c      defc004c       adda.w 0x4c, a7
         0x0059af70      48e7fff8       movem.l d0-d7/a0-a4, -(a7)
         0x0059af74      47f90040452a   lea.l p_Assert, a3
         0x0059af7a      49ee0018       lea.l 0x18(a6), a4
         0x0059af7e      7601           moveq 0x1, d3
         0x0059af80      7803           moveq 0x3, d4
         0x0059af82      7a02           moveq 0x2, d5
         0x0059af84      7c04           moveq 0x4, d6
         0x0059af86      206e000c       movea.l 0xc(a6), a0
         0x0059af8a      4210           clr.b (a0)
         0x0059af8c      226e0008       movea.l 0x8(a6), a1
         0x0059af90      4211           clr.b (a1)
         0x0059af92      102e001a       move.b 0x1a(a6), d0
         0x0059af96      b003           cmp.b d3, d0
     < 0x0059af98      661a           bne.b 0x59afb4
        0x0059af9a      7e09           moveq 0x9, d7
        0x0059af9c      1283           move.b d3, (a1)
        0x0059af9e      4227           clr.b -(a7)
        0x0059afa0      1214           move.b (a4), d1
        0x0059afa2      4881           ext.w d1
        0x0059afa4      033ae628       btst.l d1, 0x5995ce(pc)
    < 0x0059afa8      6702           beq.b 0x59afac
       0x0059afaa      5217           addq.b 0x1, (a7)
 > 0x0059afac      4e93           jsr (a3)                    ; fcn.0000000c
     0x0059afae      544f           addq.w 0x2, a7
 < 0x0059afb0      600000fc       bra.w 0x59b0ae
 > 0x0059afb4      b005           cmp.b d5, d0
 < 0x0059afb6      661e           bne.b 0x59afd6
    0x0059afb8      7e06           moveq 0x6, d7
    0x0059afba      1283           move.b d3, (a1)
    0x0059afbc      4227           clr.b -(a7)
    0x0059afbe      082e00070010   btst.b 0x7, 0x10(a6)
 < 0x0059afc4      6702           beq.b 0x59afc8
    0x0059afc6      5217           addq.b 0x1, (a7)
 > 0x0059afc8      4e93           jsr (a3)                    ; fcn.0000000c
    0x0059afca      4217           clr.b (a7)
    0x0059afcc      1214           move.b (a4), d1
    0x0059afce      b205           cmp.b d5, d1
 < 0x0059afd0      6602           bne.b 0x59afd4
    0x0059afd2      5217           addq.b 0x1, (a7)
 < 0x0059afd4      60d6           bra.b 0x59afac
 > 0x0059afd6      b004           cmp.b d4, d0
 < 0x0059afd8      661c           bne.b 0x59aff6
    0x0059afda      7e07           moveq 0x7, d7
    0x0059afdc      1283           move.b d3, (a1)
    0x0059afde      4227           clr.b -(a7)
    0x0059afe0      092e0010       btst.l d4, 0x10(a6)
 < 0x0059afe4      6702           beq.b 0x59afe8
    0x0059afe6      5217           addq.b 0x1, (a7)
 > 0x0059afe8      4e93           jsr (a3)                    ; fcn.0000000c
    0x0059afea      4217           clr.b (a7)
    0x0059afec      1214           move.b (a4), d1
    0x0059afee      b204           cmp.b d4, d1
 < 0x0059aff0      6602           bne.b 0x59aff4
    0x0059aff2      5217           addq.b 0x1, (a7)
 < 0x0059aff4      60b6           bra.b 0x59afac
  > 0x0059aff6      1214           move.b (a4), d1
      0x0059aff8      b206           cmp.b d6, d1
  < 0x0059affa      661e           bne.b 0x59b01a
     0x0059affc      7e08           moveq 0x8, d7
     0x0059affe      1283           move.b d3, (a1)
     0x0059b000      4227           clr.b -(a7)
     0x0059b002      0280000000ff   andi.l 0xff, d0
     0x0059b008      45fae5c6       lea.l 0x5995d0(pc), a2
     0x0059b00c      3400           move.w d0, d2
     0x0059b00e      e64a           lsr.w 0x3, d2
     0x0059b010      01322000       btst.l d0, (a2, d2.w)
 < 0x0059b014      6702           beq.b 0x59b018
    0x0059b016      5217           addq.b 0x1, (a7)
 < 0x0059b018      6092           bra.b 0x59afac
   > 0x0059b01a      4227           clr.b -(a7)
       0x0059b01c      082e001a0013   btst.b 0x1a, 0x13(a6)
   < 0x0059b022      6702           beq.b 0x59b026
      0x0059b024      5217           addq.b 0x1, (a7)
   > 0x0059b026      4e93           jsr (a3)                    ; fcn.0000000c
       0x0059b028      4217           clr.b (a7)
       0x0059b02a      b203           cmp.b d3, d1
   < 0x0059b02c      6602           bne.b 0x59b030
      0x0059b02e      5217           addq.b 0x1, (a7)
   > 0x0059b030      4e93           jsr (a3)                    ; fcn.0000000c
       0x0059b032      4217           clr.b (a7)
       0x0059b034      4a00           tst.b d0
   < 0x0059b036      6716           beq.b 0x59b04e
      0x0059b038      b006           cmp.b d6, d0
  < 0x0059b03a      6712           beq.b 0x59b04e
     0x0059b03c      554f           subq.w 0x2, a7
     0x0059b03e      2f2e001a       move.l 0x1a(a6), -(a7)
     0x0059b042      4eb90066ead8   jsr N10_UTILS.n_net_drive
     0x0059b048      584f           addq.w 0x4, a7
     0x0059b04a      4a1f           tst.b (a7)+
 < 0x0059b04c      6702           beq.b 0x59b050
 > 0x0059b04e      5217           addq.b 0x1, (a7)
 > 0x0059b050      1417           move.b (a7), d2
       0x0059b052      4882           ext.w d2
       0x0059b054      4583           chk.w d3, d2
       0x0059b056      1e82           move.b d2, (a7)
       0x0059b058      4e93           jsr (a3)                    ; fcn.0000000c
       0x0059b05a      544f           addq.w 0x2, a7
       0x0059b05c      082e00060010   btst.b 0x6, 0x10(a6)
   < 0x0059b062      6602           bne.b 0x59b066
      0x0059b064      1083           move.b d3, (a0)
   > 0x0059b066      082e00260014   btst.b 0x26, 0x14(a6)
   < 0x0059b06c      6704           beq.b 0x59b072
      0x0059b06e      7e03           moveq 0x3, d7
  < 0x0059b070      603c           bra.b 0x59b0ae
  > 0x0059b072      082e00220014   btst.b 0x22, 0x14(a6)
  < 0x0059b078      671c           beq.b 0x59b096
     0x0059b07a      7e04           moveq 0x4, d7
     0x0059b07c      554f           subq.w 0x2, a7
     0x0059b07e      2f2e001a       move.l 0x1a(a6), -(a7)
     0x0059b082      4eb90066ead8   jsr N10_UTILS.n_net_drive
     0x0059b088      584f           addq.w 0x4, a7
     0x0059b08a      1417           move.b (a7), d2
     0x0059b08c      4882           ext.w d2
     0x0059b08e      4583           chk.w d3, d2
     0x0059b090      1e82           move.b d2, (a7)
  < 0x0059b092      6000ff18       bra.w 0x59afac
   > 0x0059b096      082e00180013   btst.b 0x18, 0x13(a6)
   < 0x0059b09c      6704           beq.b 0x59b0a2
  > 0x0059b09e      7e02           moveq 0x2, d7
 < 0x0059b0a0      600c           bra.b 0x59b0ae
 > 0x0059b0a2      082e001b0013   btst.b 0x1b, 0x13(a6)
 < 0x0059b0a8      6702           beq.b 0x59b0ac
 < 0x0059b0aa      60f2           bra.b 0x59b09e
  > 0x0059b0ac      7e01           moveq 0x1, d7
 > 0x0059b0ae      4887           ext.w d7
         0x0059b0b0      4fbc000a       chk.w 0xa, d7
         0x0059b0b4      1d47001e       move.b d7, 0x1e(a6)
         0x0059b0b8      4cdf1fff       movem.l (a7)+, d0-d7/a0-a4
         0x0059b0bc      4e5e           unlk a6
         0x0059b0be      4e75           rts
          ; CALL XREF from K03_DISKLIST.default_me @ 0x59e55a
 148: K03_DISKLIST.set_default_cha ();
         ; var int32_t var_8h @ a7+0x8
         0x0059b0c0      4e56fee4       link.w a6, 0xfee4
         0x0059b0c4      bfd5           cmpa.l (a5), a7
     < 0x0059b0c6      6206           bhi.b 0x59b0ce
        0x0059b0c8      44fc0002       move.w 0x2, ccr
        0x0059b0cc      4e76           trapv
     > 0x0059b0ce      defc011c       adda.w 0x11c, a7
         0x0059b0d2      48e700e0       movem.l a0-a2, -(a7)
         0x0059b0d6      45ee000c       lea.l 0xc(a6), a2
     > 0x0059b0da      554f           subq.w 0x2, a7
        0x0059b0dc      1f3c001e       move.b 0x1e, -(a7)
        0x0059b0e0      4eb900598cca   jsr K01_DEBUG.k01_debug
        0x0059b0e6      544f           addq.w 0x2, a7
        0x0059b0e8      4a1f           tst.b (a7)+
    < 0x0059b0ea      673e           beq.b 0x59b12a
       0x0059b0ec      9efc0100       suba.w 0x100, a7
       0x0059b0f0      2f12           move.l (a2), -(a7)
       0x0059b0f2      4ebaf77c       jsr K03_DISKLIST.node_str(pc)
       0x0059b0f6      584f           addq.w 0x4, a7
       0x0059b0f8      487ae4f7       pea.l 0x5995f1(pc)
       0x0059b0fc      4878000c       pea.l 0xc
       0x0059b100      2f17           move.l (a7), -(a7)
       0x0059b102      4eb9004047ea   jsr p_wts_o
       0x0059b108      defc000c       adda.w 0xc, a7
       0x0059b10c      486f0001       pea.l 0x1(a7)
       0x0059b110      42a7           clr.l -(a7)
       0x0059b112      1f6f00080003   move.b 0x8(a7), 0x3(a7)
       0x0059b118      2f17           move.l (a7), -(a7)
       0x0059b11a      4eb9004047ea   jsr p_wts_o
       0x0059b120      defc010c       adda.w 0x10c, a7
       0x0059b124      4eb900404946   jsr p_wtln_o
    > 0x0059b12a      2052           movea.l (a2), a0
        0x0059b12c      b1e8fffc       cmpa.l -0x4(a0), a0
    < 0x0059b130      6702           beq.b 0x59b134
       0x0059b132      4e4d           trap 0xd
    > 0x0059b134      2250           movea.l (a0), a1
        0x0059b136      b3e9fffc       cmpa.l -0x4(a1), a1
    < 0x0059b13a      6702           beq.b 0x59b13e
       0x0059b13c      4e4d           trap 0xd
    > 0x0059b13e      2352000c       move.l (a2), 0xc(a1)
        0x0059b142      2490           move.l (a0), (a2)
        0x0059b144      2052           movea.l (a2), a0
        0x0059b146      b1ee0008       cmpa.l 0x8(a6), a0
     < 0x0059b14a      668e           bne.b 0x59b0da
         0x0059b14c      4cdf0700       movem.l (a7)+, a0-a2
         0x0059b150      4e5e           unlk a6
         0x0059b152      4e75           rts
          ; CALL XREF from K03_DISKLIST.k03_add_vol @ 0x59fd08
          ; CALL XREF from K03_DISKLIST.k03_add_subvol @ 0x5a04f8
 814: K03_DISKLIST.add_to_tree ();
         ; var int32_t var_8h @ a7+0x8
         0x0059b154      4e56fe9e       link.w a6, 0xfe9e
         0x0059b158      bfd5           cmpa.l (a5), a7
     < 0x0059b15a      6206           bhi.b 0x59b162
        0x0059b15c      44fc0002       move.w 0x2, ccr
        0x0059b160      4e76           trapv
     > 0x0059b162      defc014e       adda.w 0x14e, a7
         0x0059b166      48e7fff8       movem.l d0-d7/a0-a4, -(a7)
         0x0059b16a      7801           moveq 0x1, d4
         0x0059b16c      3a3c0100       move.w 0x100, d5
         0x0059b170      554f           subq.w 0x2, a7
         0x0059b172      1f3c001e       move.b 0x1e, -(a7)
         0x0059b176      4eb900598cca   jsr K01_DEBUG.k01_debug
         0x0059b17c      544f           addq.w 0x2, a7
         0x0059b17e      4a1f           tst.b (a7)+
     < 0x0059b180      6760           beq.b 0x59b1e2
        0x0059b182      9ec5           suba.w d5, a7
        0x0059b184      1f2e001c       move.b 0x1c(a6), -(a7)
        0x0059b188      4ebaf230       jsr K03_DISKLIST.node_type_str(pc)
        0x0059b18c      544f           addq.w 0x2, a7
        0x0059b18e      487ae46e       pea.l 0x5995fe(pc)
        0x0059b192      48780017       pea.l 0x17
        0x0059b196      2f17           move.l (a7), -(a7)
        0x0059b198      4eb9004047ea   jsr p_wts_o
        0x0059b19e      defc000c       adda.w 0xc, a7
        0x0059b1a2      486f0001       pea.l 0x1(a7)
        0x0059b1a6      42a7           clr.l -(a7)
        0x0059b1a8      1f6f00080003   move.b 0x8(a7), 0x3(a7)
        0x0059b1ae      2f17           move.l (a7), -(a7)
        0x0059b1b0      4eb9004047ea   jsr p_wts_o
        0x0059b1b6      defc010c       adda.w 0x10c, a7
        0x0059b1ba      487ae45a       pea.l 0x599616(pc)
        0x0059b1be      48780008       pea.l 0x8
        0x0059b1c2      2f17           move.l (a7), -(a7)
        0x0059b1c4      4eb9004047ea   jsr p_wts_o
        0x0059b1ca      504f           addq.w 0x8, a7
        0x0059b1cc      2eae001e       move.l 0x1e(a6), (a7)
        0x0059b1d0      4878ffff       pea.l 0xffff
        0x0059b1d4      4eb9004070e4   jsr p_wti_o
        0x0059b1da      504f           addq.w 0x8, a7
        0x0059b1dc      4eb900404946   jsr p_wtln_o
     > 0x0059b1e2      4227           clr.b -(a7)
         0x0059b1e4      4a2e001c       tst.b 0x1c(a6)
     < 0x0059b1e8      6702           beq.b 0x59b1ec
        0x0059b1ea      5217           addq.b 0x1, (a7)
     > 0x0059b1ec      4eb90040452a   jsr p_Assert
         0x0059b1f2      544f           addq.w 0x2, a7
         0x0059b1f4      4a2e001e       tst.b 0x1e(a6)
     < 0x0059b1f8      6714           beq.b 0x59b20e
        0x0059b1fa      554f           subq.w 0x2, a7
        0x0059b1fc      2f2e001e       move.l 0x1e(a6), -(a7)
        0x0059b200      4eb90066ead8   jsr N10_UTILS.n_net_drive
        0x0059b206      584f           addq.w 0x4, a7
        0x0059b208      4a1f           tst.b (a7)+
    < 0x0059b20a      670000a8       beq.w 0x59b2b4
    > 0x0059b20e      4280           clr.l d0
        0x0059b210      102e0021       move.b 0x21(a6), d0
        0x0059b214      0c4000ff       cmpi.w 0xff, d0
    < 0x0059b218      6608           bne.b 0x59b222
       0x0059b21a      2c2e000c       move.l 0xc(a6), d6
   < 0x0059b21e      60000096       bra.w 0x59b2b6
   > 0x0059b222      2c2e001e       move.l 0x1e(a6), d6
       0x0059b226      4a40           tst.w d0
   < 0x0059b228      6700008c       beq.w 0x59b2b6
      0x0059b22c      487ae3f1       pea.l 0x59961f(pc)
      0x0059b230      48780012       pea.l 0x12
      0x0059b234      2f17           move.l (a7), -(a7)
      0x0059b236      4eb9004047ea   jsr p_wts_o
      0x0059b23c      defc000c       adda.w 0xc, a7
      0x0059b240      4281           clr.l d1
      0x0059b242      122e001f       move.b 0x1f(a6), d1
      0x0059b246      2f01           move.l d1, -(a7)
      0x0059b248      48780000       pea.l 0x0
      0x0059b24c      4eb9004070e4   jsr p_wti_o
      0x0059b252      5c4f           addq.w 0x6, a7
      0x0059b254      1ebc002e       move.b 0x2e, (a7)
      0x0059b258      48780001       pea.l 0x1
      0x0059b25c      4eb9004048b4   jsr p_wtc_o
      0x0059b262      5c4f           addq.w 0x6, a7
      0x0059b264      4281           clr.l d1
      0x0059b266      122e0020       move.b 0x20(a6), d1
      0x0059b26a      2f01           move.l d1, -(a7)
      0x0059b26c      48780000       pea.l 0x0
      0x0059b270      4eb9004070e4   jsr p_wti_o
      0x0059b276      5c4f           addq.w 0x6, a7
      0x0059b278      1ebc002e       move.b 0x2e, (a7)
      0x0059b27c      48780001       pea.l 0x1
      0x0059b280      4eb9004048b4   jsr p_wtc_o
      0x0059b286      5c4f           addq.w 0x6, a7
      0x0059b288      48c0           ext.l d0
      0x0059b28a      2f00           move.l d0, -(a7)
      0x0059b28c      48780000       pea.l 0x0
      0x0059b290      4eb9004070e4   jsr p_wti_o
      0x0059b296      504f           addq.w 0x8, a7
      0x0059b298      487ae398       pea.l 0x599632(pc)
      0x0059b29c      48780005       pea.l 0x5
      0x0059b2a0      2f17           move.l (a7), -(a7)
      0x0059b2a2      4eb9004047ea   jsr p_wts_o
      0x0059b2a8      defc000c       adda.w 0xc, a7
      0x0059b2ac      4eb900404946   jsr p_wtln_o
  < 0x0059b2b2      6002           bra.b 0x59b2b6
  > 0x0059b2b4      7c01           moveq 0x1, d6
  > 0x0059b2b6      554f           subq.w 0x2, a7
         0x0059b2b8      2f2e001e       move.l 0x1e(a6), -(a7)
         0x0059b2bc      4eb90066e8fe   jsr N10_UTILS.n_stn_id
         0x0059b2c2      584f           addq.w 0x4, a7
         0x0059b2c4      301f           move.w (a7)+, d0
         0x0059b2c6      3d40fff8       move.w d0, -0x8(a6)
         0x0059b2ca      28790083fe46   movea.l 0x83fe46, a4
         0x0059b2d0      4a2e001a       tst.b 0x1a(a6)
     < 0x0059b2d4      670000aa       beq.w 0x59b380
        0x0059b2d8      554f           subq.w 0x2, a7
        0x0059b2da      1f3c001e       move.b 0x1e, -(a7)
        0x0059b2de      4eb900598cca   jsr K01_DEBUG.k01_debug
        0x0059b2e4      544f           addq.w 0x2, a7
        0x0059b2e6      4a1f           tst.b (a7)+
    < 0x0059b2e8      671a           beq.b 0x59b304
       0x0059b2ea      487ae34c       pea.l 0x599638(pc)
       0x0059b2ee      4878000b       pea.l 0xb
       0x0059b2f2      2f17           move.l (a7), -(a7)
       0x0059b2f4      4eb9004047ea   jsr p_wts_o
       0x0059b2fa      defc000c       adda.w 0xc, a7
       0x0059b2fe      4eb900404946   jsr p_wtln_o
    > 0x0059b304      206e0008       movea.l 0x8(a6), a0
        0x0059b308      554f           subq.w 0x2, a7
        0x0059b30a      2f0c           move.l a4, -(a7)
        0x0059b30c      48780005       pea.l 0x5
        0x0059b310      4227           clr.b -(a7)
        0x0059b312      4850           pea.l (a0)
        0x0059b314      4ebafba0       jsr K03_DISKLIST.find_insert_nod(pc)
        0x0059b318      defc000e       adda.w 0xe, a7
        0x0059b31c      4a1f           tst.b (a7)+
    < 0x0059b31e      6758           beq.b 0x59b378
       0x0059b320      2250           movea.l (a0), a1
       0x0059b322      b3e9fffc       cmpa.l -0x4(a1), a1
   < 0x0059b326      6702           beq.b 0x59b32a
      0x0059b328      4e4d           trap 0xd
   > 0x0059b32a      22690024       movea.l 0x24(a1), a1
       0x0059b32e      b3e9fffc       cmpa.l -0x4(a1), a1
   < 0x0059b332      6702           beq.b 0x59b336
      0x0059b334      4e4d           trap 0xd
   > 0x0059b336      9ec5           suba.w d5, a7
       0x0059b338      1f3c0005       move.b 0x5, -(a7)
       0x0059b33c      4ebaf07c       jsr K03_DISKLIST.node_type_str(pc)
       0x0059b340      544f           addq.w 0x2, a7
       0x0059b342      2449           movea.l a1, a2
       0x0059b344      264f           movea.l a7, a3
       0x0059b346      323c00ff       move.w 0xff, d1
   > 0x0059b34a      14db           move.b (a3)+, (a2)+
   < 0x0059b34c      51c9fffc       dbra d1, 0x59b34a
       0x0059b350      dec5           adda.w d5, a7
       0x0059b352      45e90100       lea.l 0x100(a1), a2
       0x0059b356      47fae2eb       lea.l 0x599643(pc), a3
       0x0059b35a      720d           moveq 0xd, d1
   > 0x0059b35c      14db           move.b (a3)+, (a2)+
   < 0x0059b35e      51c9fffc       dbra d1, 0x59b35c
       0x0059b362      45e90200       lea.l 0x200(a1), a2
       0x0059b366      47fae2e9       lea.l 0x599651(pc), a3
       0x0059b36a      720d           moveq 0xd, d1
   > 0x0059b36c      14db           move.b (a3)+, (a2)+
   < 0x0059b36e      51c9fffc       dbra d1, 0x59b36c
       0x0059b372      137c00040300   move.b 0x4, 0x300(a1)
    > 0x0059b378      23d00083fe56   move.l (a0), 0x83fe56
        0x0059b37e      2850           movea.l (a0), a4
     > 0x0059b380      4a2e0018       tst.b 0x18(a6)
     < 0x0059b384      6730           beq.b 0x59b3b6
        0x0059b386      554f           subq.w 0x2, a7
        0x0059b388      1f3c001e       move.b 0x1e, -(a7)
        0x0059b38c      4eb900598cca   jsr K01_DEBUG.k01_debug
        0x0059b392      544f           addq.w 0x2, a7
        0x0059b394      4a1f           tst.b (a7)+
    < 0x0059b396      671a           beq.b 0x59b3b2
       0x0059b398      487ae2c6       pea.l 0x599660(pc)
       0x0059b39c      4878000d       pea.l 0xd
       0x0059b3a0      2f17           move.l (a7), -(a7)
       0x0059b3a2      4eb9004047ea   jsr p_wts_o
       0x0059b3a8      defc000c       adda.w 0xc, a7
       0x0059b3ac      4eb900404946   jsr p_wtln_o
    > 0x0059b3b2      7e0a           moveq 0xa, d7
    < 0x0059b3b4      6004           bra.b 0x59b3ba
    > 0x0059b3b6      1e2e001c       move.b 0x1c(a6), d7
    > 0x0059b3ba      206e0008       movea.l 0x8(a6), a0
         0x0059b3be      2f08           move.l a0, -(a7)
         0x0059b3c0      554f           subq.w 0x2, a7
         0x0059b3c2      2f0c           move.l a4, -(a7)
         0x0059b3c4      4887           ext.w d7
         0x0059b3c6      48c7           ext.l d7
         0x0059b3c8      2f07           move.l d7, -(a7)
         0x0059b3ca      4227           clr.b -(a7)
         0x0059b3cc      4850           pea.l (a0)
         0x0059b3ce      4ebafae6       jsr K03_DISKLIST.find_insert_nod(pc)
         0x0059b3d2      defc000e       adda.w 0xe, a7
         0x0059b3d6      4a1f           tst.b (a7)+
     < 0x0059b3d8      670000d4       beq.w 0x59b4ae
        0x0059b3dc      2250           movea.l (a0), a1
        0x0059b3de      b3e9fffc       cmpa.l -0x4(a1), a1
    < 0x0059b3e2      6702           beq.b 0x59b3e6
       0x0059b3e4      4e4d           trap 0xd
    > 0x0059b3e6      22690024       movea.l 0x24(a1), a1
        0x0059b3ea      b3e9fffc       cmpa.l -0x4(a1), a1
    < 0x0059b3ee      6702           beq.b 0x59b3f2
       0x0059b3f0      4e4d           trap 0xd
    > 0x0059b3f2      4887           ext.w d7
        0x0059b3f4      4fbc000a       chk.w 0xa, d7
        0x0059b3f8      9ec5           suba.w d5, a7
        0x0059b3fa      1f07           move.b d7, -(a7)
        0x0059b3fc      4ebaefbc       jsr K03_DISKLIST.node_type_str(pc)
        0x0059b400      544f           addq.w 0x2, a7
        0x0059b402      2449           movea.l a1, a2
        0x0059b404      264f           movea.l a7, a3
        0x0059b406      323c00ff       move.w 0xff, d1
    > 0x0059b40a      14db           move.b (a3)+, (a2)+
    < 0x0059b40c      51c9fffc       dbra d1, 0x59b40a
        0x0059b410      1f07           move.b d7, -(a7)
        0x0059b412      4ebaefa6       jsr K03_DISKLIST.node_type_str(pc)
        0x0059b416      544f           addq.w 0x2, a7
        0x0059b418      4241           clr.w d1
        0x0059b41a      1217           move.b (a7), d1
        0x0059b41c      3401           move.w d1, d2
        0x0059b41e      45e90101       lea.l 0x101(a1), a2
        0x0059b422      5302           subq.b 0x1, d2
    < 0x0059b424      650a           bcs.b 0x59b430
       0x0059b426      47ef0001       lea.l 0x1(a7), a3
   > 0x0059b42a      14db           move.b (a3)+, (a2)+
   < 0x0059b42c      51cafffc       dbra d2, 0x59b42a
    > 0x0059b430      7406           moveq 0x6, d2
        0x0059b432      d401           add.b d1, d2
    < 0x0059b434      6406           bcc.b 0x59b43c
       0x0059b436      4eb900406c8a   jsr p_strovr
    > 0x0059b43c      7406           moveq 0x6, d2
        0x0059b43e      363c00ff       move.w 0xff, d3
        0x0059b442      9641           sub.w d1, d3
        0x0059b444      b443           cmp.w d3, d2
    < 0x0059b446      6302           bls.b 0x59b44a
       0x0059b448      3403           move.w d3, d2
    > 0x0059b44a      13410100       move.b d1, 0x100(a1)
        0x0059b44e      d5290100       add.b d2, 0x100(a1)
        0x0059b452      47fae21a       lea.l 0x59966e(pc), a3
    > 0x0059b456      14db           move.b (a3)+, (a2)+
    < 0x0059b458      51cafffc       dbra d2, 0x59b456
        0x0059b45c      dec5           adda.w d5, a7
        0x0059b45e      45e90200       lea.l 0x200(a1), a2
        0x0059b462      47fae210       lea.l 0x599674(pc), a3
        0x0059b466      7212           moveq 0x12, d1
    > 0x0059b468      14db           move.b (a3)+, (a2)+
    < 0x0059b46a      51c9fffc       dbra d1, 0x59b468
        0x0059b46e      3207           move.w d7, d1
        0x0059b470      5341           subq.w 0x1, d1
        0x0059b472      0c410004       cmpi.w 0x4, d1
    < 0x0059b476      6236           bhi.b 0x59b4ae
       0x0059b478      d241           add.w d1, d1
       0x0059b47a      323b1006       move.w 0x59b482(pc, d1.w), d1
       0x0059b47e      4efb1002       jmp 0x59b482(pc, d1.w)
        0x0059b482      000a0010       
        0x0059b483      0a001000       eori.b 0x0, d0
        0x0059b487      1600           move.b d0, d3
        0x0059b489      1e00           move.b d0, d7
        0x0059b48b      2642           movea.l d2, a3
        0x0059b48d      2903           move.l d3, -(a4)
        0x0059b48f      00601c13       ori.w 0x1c13, -(a0)
        0x0059b493      4403           neg.b d3
        0x0059b495      00601613       ori.w 0x1613, -(a0)
        0x0059b499      7c00           moveq 0x0, d6
        0x0059b49b      0303           btst.l d1, d3
        0x0059b49d      00600e13       ori.w 0xe13, -(a0)
        0x0059b4a1      7c00           moveq 0x0, d6
        0x0059b4a3      02030060       andi.b 0x60, d3
        0x0059b4a7      06137c00       addi.b 0x0, (a3)
        0x0059b4ab      0403004a       subi.b 0x4a, d3
          0x0059b4af      2e00           move.l d0, d7
          0x0059b4b1      18671a23       
      < 0x0059b4b2      671a           beq.b 0x59b4ce
         0x0059b4b4      23d00083fe52   move.l (a0), 0x83fe52
         0x0059b4ba      2250           movea.l (a0), a1
         0x0059b4bc      b3e9fffc       cmpa.l -0x4(a1), a1
     < 0x0059b4c0      6702           beq.b 0x59b4c4
        0x0059b4c2      4e4d           trap 0xd
     > 0x0059b4c4      13440020       move.b d4, 0x20(a1)
         0x0059b4c8      13440021       move.b d4, 0x21(a1)
     < 0x0059b4cc      602a           bra.b 0x59b4f8
     > 0x0059b4ce      0c070004       cmpi.b 0x4, d7
     < 0x0059b4d2      6610           bne.b 0x59b4e4
        0x0059b4d4      b9f90083fe46   cmpa.l 0x83fe46, a4
    < 0x0059b4da      6608           bne.b 0x59b4e4
       0x0059b4dc      23d00083fe4a   move.l (a0), 0x83fe4a
   < 0x0059b4e2      6014           bra.b 0x59b4f8
   > 0x0059b4e4      0c070003       cmpi.b 0x3, d7
    < 0x0059b4e8      660e           bne.b 0x59b4f8
       0x0059b4ea      b9f90083fe46   cmpa.l 0x83fe46, a4
   < 0x0059b4f0      6606           bne.b 0x59b4f8
      0x0059b4f2      23d00083fe4e   move.l (a0), 0x83fe4e
      ; CODE XREFS from K03_DISKLIST @ +0x2120, +0x2136
   > 0x0059b4f8      4a2e001a       tst.b 0x1a(a6)
      < 0x0059b4fc      6712           beq.b 0x59b510
         0x0059b4fe      2250           movea.l (a0), a1
         0x0059b500      b3e9fffc       cmpa.l -0x4(a1), a1
     < 0x0059b504      6702           beq.b 0x59b508
        0x0059b506      4e4d           trap 0xd
     > 0x0059b508      13440020       move.b d4, 0x20(a1)
         0x0059b50c      13440021       move.b d4, 0x21(a1)
      > 0x0059b510      2850           movea.l (a0), a4
          0x0059b512      4a40           tst.w d0
      < 0x0059b514      670001b2       beq.w 0x59b6c8
         0x0059b518      122e001c       move.b 0x1c(a6), d1
         0x0059b51c      0c010004       cmpi.b 0x4, d1
     < 0x0059b520      660001a6       bne.w 0x59b6c8
        0x0059b524      4281           clr.l d1
        0x0059b526      122efff8       move.b -0x8(a6), d1
        0x0059b52a      b2b90083fe6a   cmp.l 0x83fe6a, d1
    < 0x0059b530      6c06           bge.b 0x59b538
       0x0059b532      23c10083fe6a   move.l d1, 0x83fe6a
    > 0x0059b538      b2b90083fe6e   cmp.l 0x83fe6e, d1
    < 0x0059b53e      6f06           ble.b 0x59b546
       0x0059b540      23c10083fe6e   move.l d1, 0x83fe6e
    > 0x0059b546      554f           subq.w 0x2, a7
        0x0059b548      2f0c           move.l a4, -(a7)
        0x0059b54a      02800000ffff   andi.l 0xffff, d0
        0x0059b550      2f00           move.l d0, -(a7)
        0x0059b552      4227           clr.b -(a7)
        0x0059b554      4850           pea.l (a0)
        0x0059b556      4ebaf95e       jsr K03_DISKLIST.find_insert_nod(pc)
        0x0059b55a      defc000e       adda.w 0xe, a7
        0x0059b55e      4a1f           tst.b (a7)+
    < 0x0059b560      6700014c       beq.w 0x59b6ae
       0x0059b564      2250           movea.l (a0), a1
       0x0059b566      b3e9fffc       cmpa.l -0x4(a1), a1
   < 0x0059b56a      6702           beq.b 0x59b56e
      0x0059b56c      4e4d           trap 0xd
   > 0x0059b56e      22690024       movea.l 0x24(a1), a1
       0x0059b572      b3e9fffc       cmpa.l -0x4(a1), a1
   < 0x0059b576      6702           beq.b 0x59b57a
      0x0059b578      4e4d           trap 0xd
   > 0x0059b57a      9ec5           suba.w d5, a7
       0x0059b57c      3f00           move.w d0, -(a7)
       0x0059b57e      48780000       pea.l 0x0
       0x0059b582      4eb90066e95e   jsr N10_UTILS.n_stn_str1
       0x0059b588      5c4f           addq.w 0x6, a7
       0x0059b58a      2449           movea.l a1, a2
       0x0059b58c      264f           movea.l a7, a3
       0x0059b58e      323c00ff       move.w 0xff, d1
   > 0x0059b592      14db           move.b (a3)+, (a2)+
   < 0x0059b594      51c9fffc       dbra d1, 0x59b592
       0x0059b598      defc00fc       adda.w 0xfc, a7
       0x0059b59c      3e80           move.w d0, (a7)
       0x0059b59e      48690100       pea.l 0x100(a1)
       0x0059b5a2      4eb90066b8f6   jsr N5_PICTURENET.n5_net_name
       0x0059b5a8      5c4f           addq.w 0x6, a7
       0x0059b5aa      4a1f           tst.b (a7)+
   < 0x0059b5ac      6600009e       bne.w 0x59b64c
      0x0059b5b0      9ec5           suba.w d5, a7
      0x0059b5b2      4eb900408ec0   jsr p_err_string
      0x0059b5b8      487ae0ce       pea.l 0x599688(pc)
      0x0059b5bc      48780016       pea.l 0x16
      0x0059b5c0      2f17           move.l (a7), -(a7)
      0x0059b5c2      4eb9004047ea   jsr p_wts_o
      0x0059b5c8      defc000c       adda.w 0xc, a7
      0x0059b5cc      486f0001       pea.l 0x1(a7)
      0x0059b5d0      42a7           clr.l -(a7)
      0x0059b5d2      1f6f00080003   move.b 0x8(a7), 0x3(a7)
      0x0059b5d8      2f17           move.l (a7), -(a7)
      0x0059b5da      4eb9004047ea   jsr p_wts_o
      0x0059b5e0      defc010c       adda.w 0x10c, a7
      0x0059b5e4      4eb900404946   jsr p_wtln_o
      0x0059b5ea      4eb900404188   jsr p_Unlink
      0x0059b5f0      9ec5           suba.w d5, a7
      0x0059b5f2      3f00           move.w d0, -(a7)
      0x0059b5f4      48780000       pea.l 0x0
      0x0059b5f8      4eb90066e95e   jsr N10_UTILS.n_stn_str1
      0x0059b5fe      5c4f           addq.w 0x6, a7
      0x0059b600      720a           moveq 0xa, d1
      0x0059b602      45e90101       lea.l 0x101(a1), a2
      0x0059b606      47fae097       lea.l 0x59969f(pc), a3
  > 0x0059b60a      14db           move.b (a3)+, (a2)+
  < 0x0059b60c      51c9fffc       dbra d1, 0x59b60a
      0x0059b610      4241           clr.w d1
      0x0059b612      1217           move.b (a7), d1
      0x0059b614      0601000b       addi.b 0xb, d1
  < 0x0059b618      6406           bcc.b 0x59b620
     0x0059b61a      4eb900406c8a   jsr p_strovr
  > 0x0059b620      4241           clr.w d1
      0x0059b622      1217           move.b (a7), d1
      0x0059b624      343c00ff       move.w 0xff, d2
      0x0059b628      0442000b       subi.w 0xb, d2
      0x0059b62c      b242           cmp.w d2, d1
  < 0x0059b62e      6302           bls.b 0x59b632
     0x0059b630      3202           move.w d2, d1
  > 0x0059b632      137c000b0100   move.b 0xb, 0x100(a1)
      0x0059b638      d3290100       add.b d1, 0x100(a1)
      0x0059b63c      5301           subq.b 0x1, d1
  < 0x0059b63e      650a           bcs.b 0x59b64a
     0x0059b640      47ef0001       lea.l 0x1(a7), a3
  > 0x0059b644      14db           move.b (a3)+, (a2)+
  < 0x0059b646      51c9fffc       dbra d1, 0x59b644
  > 0x0059b64a      dec5           adda.w d5, a7
   > 0x0059b64c      9ec5           suba.w d5, a7
       0x0059b64e      3f00           move.w d0, -(a7)
       0x0059b650      48780000       pea.l 0x0
       0x0059b654      4eb90066e95e   jsr N10_UTILS.n_stn_str1
       0x0059b65a      5c4f           addq.w 0x6, a7
       0x0059b65c      720a           moveq 0xa, d1
       0x0059b65e      45e90201       lea.l 0x201(a1), a2
       0x0059b662      47fae047       lea.l 0x5996ab(pc), a3
   > 0x0059b666      14db           move.b (a3)+, (a2)+
   < 0x0059b668      51c9fffc       dbra d1, 0x59b666
       0x0059b66c      4241           clr.w d1
       0x0059b66e      1217           move.b (a7), d1
       0x0059b670      0601000b       addi.b 0xb, d1
   < 0x0059b674      6406           bcc.b 0x59b67c
      0x0059b676      4eb900406c8a   jsr p_strovr
   > 0x0059b67c      4241           clr.w d1
       0x0059b67e      1217           move.b (a7), d1
       0x0059b680      343c00ff       move.w 0xff, d2
       0x0059b684      0442000b       subi.w 0xb, d2
       0x0059b688      b242           cmp.w d2, d1
   < 0x0059b68a      6302           bls.b 0x59b68e
      0x0059b68c      3202           move.w d2, d1
   > 0x0059b68e      137c000b0200   move.b 0xb, 0x200(a1)
       0x0059b694      d3290200       add.b d1, 0x200(a1)
       0x0059b698      5301           subq.b 0x1, d1
   < 0x0059b69a      650a           bcs.b 0x59b6a6
      0x0059b69c      47ef0001       lea.l 0x1(a7), a3
  > 0x0059b6a0      14db           move.b (a3)+, (a2)+
  < 0x0059b6a2      51c9fffc       dbra d1, 0x59b6a0
   > 0x0059b6a6      dec5           adda.w d5, a7
       0x0059b6a8      137c00050300   move.b 0x5, 0x300(a1)
    > 0x0059b6ae      4a2e001a       tst.b 0x1a(a6)
    < 0x0059b6b2      6712           beq.b 0x59b6c6
       0x0059b6b4      2250           movea.l (a0), a1
       0x0059b6b6      b3e9fffc       cmpa.l -0x4(a1), a1
   < 0x0059b6ba      6702           beq.b 0x59b6be
      0x0059b6bc      4e4d           trap 0xd
   > 0x0059b6be      13440020       move.b d4, 0x20(a1)
       0x0059b6c2      13440021       move.b d4, 0x21(a1)
    > 0x0059b6c6      2850           movea.l (a0), a4
     > 0x0059b6c8      4a2e0018       tst.b 0x18(a6)
      < 0x0059b6cc      6738           beq.b 0x59b706
         0x0059b6ce      554f           subq.w 0x2, a7
         0x0059b6d0      1f3c001e       move.b 0x1e, -(a7)
         0x0059b6d4      4eb900598cca   jsr K01_DEBUG.k01_debug
         0x0059b6da      544f           addq.w 0x2, a7
         0x0059b6dc      4a1f           tst.b (a7)+
     < 0x0059b6de      671a           beq.b 0x59b6fa
        0x0059b6e0      487adfd5       pea.l 0x5996b7(pc)
        0x0059b6e4      48780014       pea.l 0x14
        0x0059b6e8      2f17           move.l (a7), -(a7)
        0x0059b6ea      4eb9004047ea   jsr p_wts_o
        0x0059b6f0      defc000c       adda.w 0xc, a7
        0x0059b6f4      4eb900404946   jsr p_wtln_o
     > 0x0059b6fa      102e001c       move.b 0x1c(a6), d0
         0x0059b6fe      4880           ext.w d0
         0x0059b700      48c0           ext.l d0
         0x0059b702      2e00           move.l d0, d7
     < 0x0059b704      602e           bra.b 0x59b734
     > 0x0059b706      554f           subq.w 0x2, a7
         0x0059b708      1f3c001e       move.b 0x1e, -(a7)
         0x0059b70c      4eb900598cca   jsr K01_DEBUG.k01_debug
         0x0059b712      544f           addq.w 0x2, a7
         0x0059b714      4a1f           tst.b (a7)+
     < 0x0059b716      671a           beq.b 0x59b732
        0x0059b718      487adfb2       pea.l 0x5996cc(pc)
        0x0059b71c      4878001a       pea.l 0x1a
        0x0059b720      2f17           move.l (a7), -(a7)
        0x0059b722      4eb9004047ea   jsr p_wts_o
        0x0059b728      defc000c       adda.w 0xc, a7
        0x0059b72c      4eb900404946   jsr p_wtln_o
     > 0x0059b732      2e06           move.l d6, d7
         ; CODE XREF from K03_DISKLIST @ +0x2358
     > 0x0059b734      102e0014       move.b 0x14(a6), d0
          0x0059b738      4880           ext.w d0
          0x0059b73a      0c400002       cmpi.w 0x2, d0
      < 0x0059b73e      6302           bls.b 0x59b742
         0x0059b740      4e4e           trap 0xe
      > 0x0059b742      d040           add.w d0, d0
          0x0059b744      303b0006       move.w 0x59b74c(pc, d0.w), d0
          0x0059b748      4efb0002       jmp 0x59b74c(pc, d0.w)
          0x0059b74c      017e0006       
          0x0059b74d      7e00           moveq 0x0, d7
          0x0059b74f      0600c655       addi.b 0x55, d0
          0x0059b753      4f2f0c2f       chk.l 0xc2f(a7), d7
          0x0059b757      071f           btst.l d3, (a7)+
          0x0059b759      0448504e       
          0x0059b75a      4850           pea.l (a0)
          0x0059b75c      4ebaf758       jsr K03_DISKLIST.find_insert_nod(pc)
          0x0059b760      defc000e       adda.w 0xe, a7
          0x0059b764      4a1f           tst.b (a7)+
      < 0x0059b766      6702           beq.b 0x59b76a
     < 0x0059b768      6038           bra.b 0x59b7a2
     > 0x0059b76a      554f           subq.w 0x2, a7
         0x0059b76c      1f3c001e       move.b 0x1e, -(a7)
         0x0059b770      4eb900598cca   jsr K01_DEBUG.k01_debug
         0x0059b776      544f           addq.w 0x2, a7
         0x0059b778      4a1f           tst.b (a7)+
     < 0x0059b77a      6726           beq.b 0x59b7a2
        0x0059b77c      487adf69       pea.l 0x5996e7(pc)
        0x0059b780      48780032       pea.l 0x32
        0x0059b784      2f17           move.l (a7), -(a7)
        0x0059b786      4eb9004047ea   jsr p_wts_o
        0x0059b78c      504f           addq.w 0x8, a7
        0x0059b78e      2e87           move.l d7, (a7)
        0x0059b790      4878ffff       pea.l 0xffff
        0x0059b794      4eb9004070e4   jsr p_wti_o
        0x0059b79a      504f           addq.w 0x8, a7
        0x0059b79c      4eb900404946   jsr p_wtln_o
     > 0x0059b7a2      2250           movea.l (a0), a1
          0x0059b7a4      b3e9fffc       cmpa.l -0x4(a1), a1
      < 0x0059b7a8      6702           beq.b 0x59b7ac
         0x0059b7aa      4e4d           trap 0xd
      > 0x0059b7ac      236e00100024   move.l 0x10(a6), 0x24(a1)
          0x0059b7b2      4a2e001a       tst.b 0x1a(a6)
      < 0x0059b7b6      6724           beq.b 0x59b7dc
         0x0059b7b8      b9ecfffc       cmpa.l -0x4(a4), a4
     < 0x0059b7bc      6702           beq.b 0x59b7c0
        0x0059b7be      4e4d           trap 0xd
     > 0x0059b7c0      246c000c       movea.l 0xc(a4), a2
         0x0059b7c4      b4c4           cmpa.w d4, a2
     < 0x0059b7c6      6604           bne.b 0x59b7cc
        0x0059b7c8      2950000c       move.l (a0), 0xc(a4)
     > 0x0059b7cc      4a2e0016       tst.b 0x16(a6)
     < 0x0059b7d0      673c           beq.b 0x59b80e
        0x0059b7d2      2f10           move.l (a0), -(a7)
        0x0059b7d4      2f390083fe56   move.l 0x83fe56, -(a7)
    < 0x0059b7da      602c           bra.b 0x59b808
    > 0x0059b7dc      2451           movea.l (a1), a2
        0x0059b7de      b5f90083fe4e   cmpa.l 0x83fe4e, a2
    < 0x0059b7e4      6628           bne.b 0x59b80e
       0x0059b7e6      b9ecfffc       cmpa.l -0x4(a4), a4
   < 0x0059b7ea      6702           beq.b 0x59b7ee
      0x0059b7ec      4e4d           trap 0xd
   > 0x0059b7ee      246c000c       movea.l 0xc(a4), a2
       0x0059b7f2      b4c4           cmpa.w d4, a2
   < 0x0059b7f4      6604           bne.b 0x59b7fa
      0x0059b7f6      2950000c       move.l (a0), 0xc(a4)
   > 0x0059b7fa      4a2e0016       tst.b 0x16(a6)
   < 0x0059b7fe      670e           beq.b 0x59b80e
      0x0059b800      2f10           move.l (a0), -(a7)
      0x0059b802      2f390083fe4e   move.l 0x83fe4e, -(a7)
   > 0x0059b808      4ebaf8b6       jsr K03_DISKLIST.set_default_cha(pc)
       0x0059b80c      504f           addq.w 0x8, a7
   > 0x0059b80e      60000132       bra.w 0x59b942
         0x0059b812      554f           subq.w 0x2, a7
         0x0059b814      2f0c           move.l a4, -(a7)
         0x0059b816      2f07           move.l d7, -(a7)
         0x0059b818      1f04           move.b d4, -(a7)
         0x0059b81a      4850           pea.l (a0)
         0x0059b81c      4ebaf698       jsr K03_DISKLIST.find_insert_nod(pc)
         0x0059b820      defc000e       adda.w 0xe, a7
         0x0059b824      4a1f           tst.b (a7)+
     < 0x0059b826      6738           beq.b 0x59b860
        0x0059b828      554f           subq.w 0x2, a7
        0x0059b82a      1f3c001e       move.b 0x1e, -(a7)
        0x0059b82e      4eb900598cca   jsr K01_DEBUG.k01_debug
        0x0059b834      544f           addq.w 0x2, a7
        0x0059b836      4a1f           tst.b (a7)+
    < 0x0059b838      6726           beq.b 0x59b860
       0x0059b83a      487adede       pea.l 0x59971a(pc)
       0x0059b83e      4878003f       pea.l 0x3f
       0x0059b842      2f17           move.l (a7), -(a7)
       0x0059b844      4eb9004047ea   jsr p_wts_o
       0x0059b84a      504f           addq.w 0x8, a7
       0x0059b84c      2e87           move.l d7, (a7)
       0x0059b84e      4878ffff       pea.l 0xffff
       0x0059b852      4eb9004070e4   jsr p_wti_o
       0x0059b858      504f           addq.w 0x8, a7
       0x0059b85a      4eb900404946   jsr p_wtln_o
    > 0x0059b860      2850           movea.l (a0), a4
         0x0059b862      554f           subq.w 0x2, a7
         0x0059b864      2f0c           move.l a4, -(a7)
         0x0059b866      2f2e000c       move.l 0xc(a6), -(a7)
         0x0059b86a      1f3c0002       move.b 0x2, -(a7)
         0x0059b86e      4850           pea.l (a0)
         0x0059b870      4ebaf644       jsr K03_DISKLIST.find_insert_nod(pc)
         0x0059b874      defc000e       adda.w 0xe, a7
         0x0059b878      4a1f           tst.b (a7)+
     < 0x0059b87a      6702           beq.b 0x59b87e
    < 0x0059b87c      603a           bra.b 0x59b8b8
    > 0x0059b87e      554f           subq.w 0x2, a7
        0x0059b880      1f3c001e       move.b 0x1e, -(a7)
        0x0059b884      4eb900598cca   jsr K01_DEBUG.k01_debug
        0x0059b88a      544f           addq.w 0x2, a7
        0x0059b88c      4a1f           tst.b (a7)+
    < 0x0059b88e      6728           beq.b 0x59b8b8
       0x0059b890      487adec8       pea.l 0x59975a(pc)
       0x0059b894      4878002d       pea.l 0x2d
       0x0059b898      2f17           move.l (a7), -(a7)
       0x0059b89a      4eb9004047ea   jsr p_wts_o
       0x0059b8a0      504f           addq.w 0x8, a7
       0x0059b8a2      2eae000c       move.l 0xc(a6), (a7)
       0x0059b8a6      4878ffff       pea.l 0xffff
       0x0059b8aa      4eb9004070e4   jsr p_wti_o
       0x0059b8b0      504f           addq.w 0x8, a7
       0x0059b8b2      4eb900404946   jsr p_wtln_o
    > 0x0059b8b8      2250           movea.l (a0), a1
         0x0059b8ba      b3e9fffc       cmpa.l -0x4(a1), a1
     < 0x0059b8be      6702           beq.b 0x59b8c2
        0x0059b8c0      4e4d           trap 0xd
     > 0x0059b8c2      236e00100024   move.l 0x10(a6), 0x24(a1)
     < 0x0059b8c8      6078           bra.b 0x59b942
        0x0059b8ca      286e0010       movea.l 0x10(a6), a4
        0x0059b8ce      2250           movea.l (a0), a1
        0x0059b8d0      b3e9fffc       cmpa.l -0x4(a1), a1
    < 0x0059b8d4      6702           beq.b 0x59b8d8
       0x0059b8d6      4e4d           trap 0xd
    > 0x0059b8d8      24690024       movea.l 0x24(a1), a2
        0x0059b8dc      b4c4           cmpa.w d4, a2
    < 0x0059b8de      6734           beq.b 0x59b914
       0x0059b8e0      b9ecfffc       cmpa.l -0x4(a4), a4
   < 0x0059b8e4      6702           beq.b 0x59b8e8
      0x0059b8e6      4e4d           trap 0xd
   > 0x0059b8e8      b5eafffc       cmpa.l -0x4(a2), a2
   < 0x0059b8ec      6702           beq.b 0x59b8f0
      0x0059b8ee      4e4d           trap 0xd
   > 0x0059b8f0      264c           movea.l a4, a3
       0x0059b8f2      204a           movea.l a2, a0
       0x0059b8f4      303c00ff       move.w 0xff, d0
   > 0x0059b8f8      16d8           move.b (a0)+, (a3)+
   < 0x0059b8fa      51c8fffc       dbra d0, 0x59b8f8
       0x0059b8fe      196a03000300   move.b 0x300(a2), 0x300(a4)
       0x0059b904      48690024       pea.l 0x24(a1)
       0x0059b908      48780307       pea.l 0x307
       0x0059b90c      4eb900403b98   jsr p_Dispos
       0x0059b912      504f           addq.w 0x8, a7
    > 0x0059b914      234c0024       move.l a4, 0x24(a1)
        0x0059b918      2451           movea.l (a1), a2
        0x0059b91a      b5eafffc       cmpa.l -0x4(a2), a2
    < 0x0059b91e      6702           beq.b 0x59b922
       0x0059b920      4e4d           trap 0xd
    > 0x0059b922      266a000c       movea.l 0xc(a2), a3
        0x0059b926      b6c4           cmpa.w d4, a3
    < 0x0059b928      6618           bne.b 0x59b942
       0x0059b92a      4a2e001a       tst.b 0x1a(a6)
   < 0x0059b92e      6702           beq.b 0x59b932
  < 0x0059b930      600a           bra.b 0x59b93c
  > 0x0059b932      2651           movea.l (a1), a3
      0x0059b934      b7f90083fe4e   cmpa.l 0x83fe4e, a3
  < 0x0059b93a      6606           bne.b 0x59b942
  > 0x0059b93c      2657           movea.l (a7), a3
      0x0059b93e      2553000c       move.l (a3), 0xc(a2)
   > 0x0059b942      1ebc001e       move.b 0x1e, (a7)
          0x0059b946      4eb900598cca   jsr K01_DEBUG.k01_debug
          0x0059b94c      544f           addq.w 0x2, a7
          0x0059b94e      4a1f           tst.b (a7)+
      < 0x0059b950      6704           beq.b 0x59b956
         0x0059b952      4ebaf30a       jsr K03_DISKLIST.show_tree(pc)
      > 0x0059b956      4cdf1fff       movem.l (a7)+, d0-d7/a0-a4
          0x0059b95a      4e5e           unlk a6
          0x0059b95c      4e75           rts
          ; CALL XREF from K03_DISKLIST.remove_from_tre @ 0x59b9ac
          ; CALL XREF from K03_DISKLIST.k03_remove_vol @ 0x59ffde
 212: K03_DISKLIST.remove_from_tre ();
         0x0059b95e      4e56ffc8       link.w a6, 0xffc8
         0x0059b962      bfd5           cmpa.l (a5), a7
     < 0x0059b964      6206           bhi.b 0x59b96c
        0x0059b966      44fc0002       move.w 0x2, ccr
        0x0059b96a      4e76           trapv
     > 0x0059b96c      defc0034       adda.w 0x34, a7
         0x0059b970      48e780f8       movem.l d0/a0-a4, -(a7)
         0x0059b974      7001           moveq 0x1, d0
         0x0059b976      4227           clr.b -(a7)
         0x0059b978      206e000a       movea.l 0xa(a6), a0
         0x0059b97c      2050           movea.l (a0), a0
         0x0059b97e      b1f90083fe46   cmpa.l 0x83fe46, a0
     < 0x0059b984      6702           beq.b 0x59b988
        0x0059b986      5217           addq.b 0x1, (a7)
     > 0x0059b988      4eb90040452a   jsr p_Assert
         0x0059b98e      544f           addq.w 0x2, a7
         0x0059b990      206e000a       movea.l 0xa(a6), a0
     > 0x0059b994      2250           movea.l (a0), a1
        0x0059b996      b3e9fffc       cmpa.l -0x4(a1), a1
    < 0x0059b99a      6702           beq.b 0x59b99e
       0x0059b99c      4e4d           trap 0xd
    > 0x0059b99e      24690008       movea.l 0x8(a1), a2
        0x0059b9a2      b4c0           cmpa.w d0, a2
    < 0x0059b9a4      670e           beq.b 0x59b9b4
       0x0059b9a6      48690008       pea.l 0x8(a1)
       0x0059b9aa      4227           clr.b -(a7)
       0x0059b9ac      4ebaffb0       jsr K03_DISKLIST.remove_from_tre(pc)
       0x0059b9b0      5c4f           addq.w 0x6, a7
    < 0x0059b9b2      60e0           bra.b 0x59b994
    > 0x0059b9b4      4a2e0008       tst.b 0x8(a6)
     < 0x0059b9b8      665a           bne.b 0x59ba14
        0x0059b9ba      2451           movea.l (a1), a2
        0x0059b9bc      b5eafffc       cmpa.l -0x4(a2), a2
    < 0x0059b9c0      6702           beq.b 0x59b9c4
       0x0059b9c2      4e4d           trap 0xd
    > 0x0059b9c4      286a0008       movea.l 0x8(a2), a4
        0x0059b9c8      b9d0           cmpa.l (a0), a4
    < 0x0059b9ca      6608           bne.b 0x59b9d4
       0x0059b9cc      256900040008   move.l 0x4(a1), 0x8(a2)
   < 0x0059b9d2      602e           bra.b 0x59ba02
   > 0x0059b9d4      246e000a       movea.l 0xa(a6), a2
   > 0x0059b9d8      b9ecfffc       cmpa.l -0x4(a4), a4
  < 0x0059b9dc      6702           beq.b 0x59b9e0
     0x0059b9de      4e4d           trap 0xd
  > 0x0059b9e0      b8c0           cmpa.w d0, a4
  < 0x0059b9e2      670e           beq.b 0x59b9f2
     0x0059b9e4      266c0004       movea.l 0x4(a4), a3
     0x0059b9e8      b7d2           cmpa.l (a2), a3
 < 0x0059b9ea      6706           beq.b 0x59b9f2
    0x0059b9ec      286c0004       movea.l 0x4(a4), a4
 < 0x0059b9f0      60e6           bra.b 0x59b9d8
 > 0x0059b9f2      2452           movea.l (a2), a2
       0x0059b9f4      b5eafffc       cmpa.l -0x4(a2), a2
   < 0x0059b9f8      6702           beq.b 0x59b9fc
      0x0059b9fa      4e4d           trap 0xd
   > 0x0059b9fc      296a00040004   move.l 0x4(a2), 0x4(a4)
   > 0x0059ba02      246e000a       movea.l 0xa(a6), a2
        0x0059ba06      4852           pea.l (a2)
        0x0059ba08      48780028       pea.l 0x28
        0x0059ba0c      4eb900403b98   jsr p_Dispos
        0x0059ba12      504f           addq.w 0x8, a7
     > 0x0059ba14      554f           subq.w 0x2, a7
         0x0059ba16      1f3c001e       move.b 0x1e, -(a7)
         0x0059ba1a      4eb900598cca   jsr K01_DEBUG.k01_debug
         0x0059ba20      544f           addq.w 0x2, a7
         0x0059ba22      4a1f           tst.b (a7)+
     < 0x0059ba24      6704           beq.b 0x59ba2a
        0x0059ba26      4ebaf236       jsr K03_DISKLIST.show_tree(pc)
     > 0x0059ba2a      4cdf1f01       movem.l (a7)+, d0/a0-a4
         0x0059ba2e      4e5e           unlk a6
         0x0059ba30      4e75           rts
          ; CALL XREF from K03_DISKLIST.get_volume_stat @ 0x59d836
 90: K03_DISKLIST.fixed_id_str ();
         0x0059ba32      4e56fbc2       link.w a6, 0xfbc2
         0x0059ba36      bfd5           cmpa.l (a5), a7
     < 0x0059ba38      6206           bhi.b 0x59ba40
        0x0059ba3a      44fc0002       move.w 0x2, ccr
        0x0059ba3e      4e76           trapv
     > 0x0059ba40      defc013e       adda.w 0x13e, a7
         0x0059ba44      48e7fff8       movem.l d0-d7/a0-a4, -(a7)
         0x0059ba48      45eefe00       lea.l -0x200(a6), a2
         0x0059ba4c      47eefd00       lea.l -0x300(a6), a3
         0x0059ba50      49eeff00       lea.l -0x100(a6), a4
         0x0059ba54      383c00ff       move.w 0xff, d4
         0x0059ba58      7a04           moveq 0x4, d5
         0x0059ba5a      7c0e           moveq 0xe, d6
         0x0059ba5c      7e07           moveq 0x7, d7
         0x0059ba5e      4280           clr.l d0
         0x0059ba60      102e000f       move.b 0xf(a6), d0
         0x0059ba64      2f00           move.l d0, -(a7)
         0x0059ba66      48780000       pea.l 0x0
         0x0059ba6a      4853           pea.l (a3)
         0x0059ba6c      3f04           move.w d4, -(a7)
         0x0059ba6e      4eb900406e56   jsr p_strI1
         0x0059ba74      dec6           adda.w d6, a7
         0x0059ba76      4280           clr.l d0
         0x0059ba78      102e000c       move.b 0xc(a6), d0
         0x0059ba7c      b045           cmp.w d5, d0
     < 0x0059ba7e      6200022c       bhi.w 0x59bcac
        0x0059ba82      d040           add.w d0, d0
        0x0059ba84      303b0006       move.w 0x59ba8c(pc, d0.w), d0
        0x0059ba88      4efb0002       jmp 0x59ba8c(pc, d0.w)
         0x0059ba8c      0114           btst.l d0, (a4)
         0x0059ba8e      004c000a       
         0x0059ba8f      4c000a00       
         0x0059ba90      000a008e       
         0x0059ba91      0a008e00       eori.b 0x0, d0
         0x0059ba95      d0700341       add.w ([a0]), d0
         0x0059ba99      eefe0143       
         0x0059ba9a      fe0143fa       ftwotox.l d1, fp7
         0x0059ba9e      dcea10d9       adda.w 0x10d9(a2), a6
     < 0x0059baa2      51c8fffc       dbra d0, 0x59baa0
         0x0059baa6      4240           clr.w d0
         0x0059baa8      1013           move.b (a3), d0
         0x0059baaa      5800           addq.b 0x4, d0
     < 0x0059baac      6406           bcc.b 0x59bab4
        0x0059baae      4eb900406c8a   jsr p_strovr
     > 0x0059bab4      4240           clr.w d0
         0x0059bab6      1013           move.b (a3), d0
         0x0059bab8      3204           move.w d4, d1
         0x0059baba      5941           subq.w 0x4, d1
         0x0059babc      b041           cmp.w d1, d0
     < 0x0059babe      6302           bls.b 0x59bac2
        0x0059bac0      3001           move.w d1, d0
     > 0x0059bac2      1485           move.b d5, (a2)
         0x0059bac4      d112           add.b d0, (a2)
         0x0059bac6      5300           subq.b 0x1, d0
     < 0x0059bac8      650a           bcs.b 0x59bad4
        0x0059baca      43eefd01       lea.l -0x2ff(a6), a1
    > 0x0059bace      10d9           move.b (a1)+, (a0)+
    < 0x0059bad0      51c8fffc       dbra d0, 0x59bace
    > 0x0059bad4      6000035e       bra.w 0x59be34
        0x0059bad8      7006           moveq 0x6, d0
        0x0059bada      41eefe01       lea.l -0x1ff(a6), a0
        0x0059bade      43fadcad       lea.l 0x59978d(pc), a1
    > 0x0059bae2      10d9           move.b (a1)+, (a0)+
    < 0x0059bae4      51c8fffc       dbra d0, 0x59bae2
        0x0059bae8      4240           clr.w d0
        0x0059baea      1013           move.b (a3), d0
        0x0059baec      5e00           addq.b 0x7, d0
    < 0x0059baee      6406           bcc.b 0x59baf6
       0x0059baf0      4eb900406c8a   jsr p_strovr
    > 0x0059baf6      4240           clr.w d0
        0x0059baf8      1013           move.b (a3), d0
        0x0059bafa      3204           move.w d4, d1
        0x0059bafc      5f41           subq.w 0x7, d1
        0x0059bafe      b041           cmp.w d1, d0
    < 0x0059bb00      6302           bls.b 0x59bb04
       0x0059bb02      3001           move.w d1, d0
    > 0x0059bb04      1487           move.b d7, (a2)
        0x0059bb06      d112           add.b d0, (a2)
        0x0059bb08      5300           subq.b 0x1, d0
    < 0x0059bb0a      650a           bcs.b 0x59bb16
       0x0059bb0c      43eefd01       lea.l -0x2ff(a6), a1
   > 0x0059bb10      10d9           move.b (a1)+, (a0)+
   < 0x0059bb12      51c8fffc       dbra d0, 0x59bb10
   > 0x0059bb16      6000031c       bra.w 0x59be34
       0x0059bb1a      7003           moveq 0x3, d0
       0x0059bb1c      41eefe01       lea.l -0x1ff(a6), a0
       0x0059bb20      43fadc73       lea.l 0x599795(pc), a1
   > 0x0059bb24      10d9           move.b (a1)+, (a0)+
   < 0x0059bb26      51c8fffc       dbra d0, 0x59bb24
       0x0059bb2a      4240           clr.w d0
       0x0059bb2c      1013           move.b (a3), d0
       0x0059bb2e      5800           addq.b 0x4, d0
   < 0x0059bb30      6406           bcc.b 0x59bb38
      0x0059bb32      4eb900406c8a   jsr p_strovr
   > 0x0059bb38      4240           clr.w d0
       0x0059bb3a      1013           move.b (a3), d0
       0x0059bb3c      3204           move.w d4, d1
       0x0059bb3e      5941           subq.w 0x4, d1
       0x0059bb40      b041           cmp.w d1, d0
   < 0x0059bb42      6302           bls.b 0x59bb46
      0x0059bb44      3001           move.w d1, d0
   > 0x0059bb46      1485           move.b d5, (a2)
       0x0059bb48      d112           add.b d0, (a2)
       0x0059bb4a      5300           subq.b 0x1, d0
   < 0x0059bb4c      650a           bcs.b 0x59bb58
      0x0059bb4e      43eefd01       lea.l -0x2ff(a6), a1
  > 0x0059bb52      10d9           move.b (a1)+, (a0)+
  < 0x0059bb54      51c8fffc       dbra d0, 0x59bb52
  > 0x0059bb58      600002da       bra.w 0x59be34
      0x0059bb5c      7007           moveq 0x7, d0
      0x0059bb5e      41eefe01       lea.l -0x1ff(a6), a0
      0x0059bb62      43fadc36       lea.l 0x59979a(pc), a1
  > 0x0059bb66      10d9           move.b (a1)+, (a0)+
  < 0x0059bb68      51c8fffc       dbra d0, 0x59bb66
      0x0059bb6c      4240           clr.w d0
      0x0059bb6e      1013           move.b (a3), d0
      0x0059bb70      5000           addq.b 0x8, d0
  < 0x0059bb72      6406           bcc.b 0x59bb7a
     0x0059bb74      4eb900406c8a   jsr p_strovr
  > 0x0059bb7a      4240           clr.w d0
      0x0059bb7c      1013           move.b (a3), d0
      0x0059bb7e      3204           move.w d4, d1
      0x0059bb80      5141           subq.w 0x8, d1
      0x0059bb82      b041           cmp.w d1, d0
  < 0x0059bb84      6302           bls.b 0x59bb88
     0x0059bb86      3001           move.w d1, d0
  > 0x0059bb88      14bc0008       move.b 0x8, (a2)
      0x0059bb8c      d112           add.b d0, (a2)
      0x0059bb8e      5300           subq.b 0x1, d0
  < 0x0059bb90      650a           bcs.b 0x59bb9c
     0x0059bb92      43eefd01       lea.l -0x2ff(a6), a1
  > 0x0059bb96      10d9           move.b (a1)+, (a0)+
  < 0x0059bb98      51c8fffc       dbra d0, 0x59bb96
  > 0x0059bb9c      60000296       bra.w 0x59be34
      0x0059bba0      4280           clr.l d0
      0x0059bba2      102e000f       move.b 0xf(a6), d0
      0x0059bba6      b044           cmp.w d4, d0
  < 0x0059bba8      6614           bne.b 0x59bbbe
     0x0059bbaa      24badbf6       move.l 0x5997a2(pc), (a2)
     0x0059bbae      3d7adbf6fe04   move.w 0x5997a6(pc), -0x1fc(a6)
     0x0059bbb4      1d7adbf2fe06   move.b 0x5997a8(pc), -0x1fa(a6)
  < 0x0059bbba      600000ec       bra.w 0x59bca8
  > 0x0059bbbe      4281           clr.l d1
      0x0059bbc0      122e000e       move.b 0xe(a6), d1
      0x0059bbc4      2f01           move.l d1, -(a7)
      0x0059bbc6      48780000       pea.l 0x0
      0x0059bbca      4854           pea.l (a4)
      0x0059bbcc      3f04           move.w d4, -(a7)
      0x0059bbce      4eb900406e56   jsr p_strI1
      0x0059bbd4      dec6           adda.w d6, a7
      0x0059bbd6      4a2e000d       tst.b 0xd(a6)
  < 0x0059bbda      674e           beq.b 0x59bc2a
     0x0059bbdc      554f           subq.w 0x2, a7
     0x0059bbde      4eb900628118   jsr PICTURENET.b_bus_local
     0x0059bbe4      4a1f           tst.b (a7)+
  < 0x0059bbe6      6742           beq.b 0x59bc2a
     0x0059bbe8      7201           moveq 0x1, d1
     0x0059bbea      41eefe01       lea.l -0x1ff(a6), a0
     0x0059bbee      43fadbba       lea.l 0x5997aa(pc), a1
  > 0x0059bbf2      10d9           move.b (a1)+, (a0)+
  < 0x0059bbf4      51c9fffc       dbra d1, 0x59bbf2
     0x0059bbf8      4241           clr.w d1
     0x0059bbfa      1214           move.b (a4), d1
     0x0059bbfc      5401           addq.b 0x2, d1
  < 0x0059bbfe      6406           bcc.b 0x59bc06
     0x0059bc00      4eb900406c8a   jsr p_strovr
  > 0x0059bc06      4241           clr.w d1
     0x0059bc08      1214           move.b (a4), d1
     0x0059bc0a      3404           move.w d4, d2
     0x0059bc0c      5542           subq.w 0x2, d2
     0x0059bc0e      b242           cmp.w d2, d1
  < 0x0059bc10      6302           bls.b 0x59bc14
     0x0059bc12      3202           move.w d2, d1
  > 0x0059bc14      14bc0002       move.b 0x2, (a2)
     0x0059bc18      d312           add.b d1, (a2)
     0x0059bc1a      5301           subq.b 0x1, d1
  < 0x0059bc1c      650a           bcs.b 0x59bc28
     0x0059bc1e      43eeff01       lea.l -0xff(a6), a1
  > 0x0059bc22      10d9           move.b (a1)+, (a0)+
  < 0x0059bc24      51c9fffc       dbra d1, 0x59bc22
  > 0x0059bc28      600c           bra.b 0x59bc36
  > 0x0059bc2a      204a           movea.l a2, a0
      0x0059bc2c      224c           movea.l a4, a1
      0x0059bc2e      723f           moveq 0x3f, d1
  > 0x0059bc30      20d9           move.l (a1)+, (a0)+
  < 0x0059bc32      51c9fffc       dbra d1, 0x59bc30
  > 0x0059bc36      4a40           tst.w d0
  < 0x0059bc38      6758           beq.b 0x59bc92
     0x0059bc3a      4241           clr.w d1
     0x0059bc3c      1212           move.b (a2), d1
     0x0059bc3e      41eefe01       lea.l -0x1ff(a6), a0
     0x0059bc42      d0c1           adda.w d1, a0
     0x0059bc44      7401           moveq 0x1, d2
     0x0059bc46      3604           move.w d4, d3
     0x0059bc48      9641           sub.w d1, d3
     0x0059bc4a      b443           cmp.w d3, d2
  < 0x0059bc4c      6302           bls.b 0x59bc50
     0x0059bc4e      3403           move.w d3, d2
  > 0x0059bc50      d512           add.b d2, (a2)
     0x0059bc52      43fadb59       lea.l 0x5997ad(pc), a1
  > 0x0059bc56      10d9           move.b (a1)+, (a0)+
  < 0x0059bc58      51cafffc       dbra d2, 0x59bc56
     0x0059bc5c      4241           clr.w d1
     0x0059bc5e      1212           move.b (a2), d1
     0x0059bc60      41eefe01       lea.l -0x1ff(a6), a0
     0x0059bc64      d0c1           adda.w d1, a0
     0x0059bc66      4242           clr.w d2
     0x0059bc68      1413           move.b (a3), d2
     0x0059bc6a      d401           add.b d1, d2
  < 0x0059bc6c      6406           bcc.b 0x59bc74
     0x0059bc6e      4eb900406c8a   jsr p_strovr
  > 0x0059bc74      4242           clr.w d2
     0x0059bc76      1413           move.b (a3), d2
     0x0059bc78      3604           move.w d4, d3
     0x0059bc7a      9641           sub.w d1, d3
     0x0059bc7c      b443           cmp.w d3, d2
  < 0x0059bc7e      6302           bls.b 0x59bc82
     0x0059bc80      3403           move.w d3, d2
  > 0x0059bc82      d512           add.b d2, (a2)
     0x0059bc84      5302           subq.b 0x1, d2
  < 0x0059bc86      650a           bcs.b 0x59bc92
     0x0059bc88      43eefd01       lea.l -0x2ff(a6), a1
  > 0x0059bc8c      10d9           move.b (a1)+, (a0)+
  < 0x0059bc8e      51cafffc       dbra d2, 0x59bc8c
  > 0x0059bc92      4a2e000a       tst.b 0xa(a6)
  < 0x0059bc96      6710           beq.b 0x59bca8
     0x0059bc98      24badb14       move.l 0x5997ae(pc), (a2)
     0x0059bc9c      3d7adb14fe04   move.w 0x5997b2(pc), -0x1fc(a6)
     0x0059bca2      1d7adb10fe06   move.b 0x5997b4(pc), -0x1fa(a6)
  > 0x0059bca8      6000018a       bra.w 0x59be34
   > 0x0059bcac      554f           subq.w 0x2, a7
       0x0059bcae      2f2e000c       move.l 0xc(a6), -(a7)
       0x0059bcb2      4eb90066ead8   jsr N10_UTILS.n_net_drive
       0x0059bcb8      584f           addq.w 0x4, a7
       0x0059bcba      4a1f           tst.b (a7)+
   < 0x0059bcbc      67000176       beq.w 0x59be34
      0x0059bcc0      4a2e000a       tst.b 0xa(a6)
  < 0x0059bcc4      6762           beq.b 0x59bd28
     0x0059bcc6      9efc0102       suba.w 0x102, a7
     0x0059bcca      2f2e000c       move.l 0xc(a6), -(a7)
     0x0059bcce      4eb90066e8fe   jsr N10_UTILS.n_stn_id
     0x0059bcd4      584f           addq.w 0x4, a7
     0x0059bcd6      48780000       pea.l 0x0
     0x0059bcda      4eb90066e95e   jsr N10_UTILS.n_stn_str1
     0x0059bce0      5c4f           addq.w 0x6, a7
     0x0059bce2      7003           moveq 0x3, d0
     0x0059bce4      41eefe01       lea.l -0x1ff(a6), a0
     0x0059bce8      43fadacc       lea.l 0x5997b6(pc), a1
  > 0x0059bcec      10d9           move.b (a1)+, (a0)+
  < 0x0059bcee      51c8fffc       dbra d0, 0x59bcec
     0x0059bcf2      4240           clr.w d0
     0x0059bcf4      1017           move.b (a7), d0
     0x0059bcf6      5800           addq.b 0x4, d0
  < 0x0059bcf8      6406           bcc.b 0x59bd00
     0x0059bcfa      4eb900406c8a   jsr p_strovr
  > 0x0059bd00      4240           clr.w d0
     0x0059bd02      1017           move.b (a7), d0
     0x0059bd04      3204           move.w d4, d1
     0x0059bd06      5941           subq.w 0x4, d1
     0x0059bd08      b041           cmp.w d1, d0
  < 0x0059bd0a      6302           bls.b 0x59bd0e
     0x0059bd0c      3001           move.w d1, d0
  > 0x0059bd0e      1485           move.b d5, (a2)
     0x0059bd10      d112           add.b d0, (a2)
     0x0059bd12      5300           subq.b 0x1, d0
  < 0x0059bd14      650a           bcs.b 0x59bd20
     0x0059bd16      43ef0001       lea.l 0x1(a7), a1
  > 0x0059bd1a      10d9           move.b (a1)+, (a0)+
  < 0x0059bd1c      51c8fffc       dbra d0, 0x59bd1a
  > 0x0059bd20      defc0100       adda.w 0x100, a7
  < 0x0059bd24      6000010e       bra.w 0x59be34
  > 0x0059bd28      4280           clr.l d0
      0x0059bd2a      102e000e       move.b 0xe(a6), d0
      0x0059bd2e      2f00           move.l d0, -(a7)
      0x0059bd30      48780000       pea.l 0x0
      0x0059bd34      4854           pea.l (a4)
      0x0059bd36      3f04           move.w d4, -(a7)
      0x0059bd38      4eb900406e56   jsr p_strI1
      0x0059bd3e      dec6           adda.w d6, a7
      0x0059bd40      102e000e       move.b 0xe(a6), d0
      0x0059bd44      b007           cmp.b d7, d0
  < 0x0059bd46      634e           bls.b 0x59bd96
     0x0059bd48      9efc0100       suba.w 0x100, a7
     0x0059bd4c      7000           moveq 0x0, d0
     0x0059bd4e      41ef0001       lea.l 0x1(a7), a0
     0x0059bd52      43fada67       lea.l 0x5997bb(pc), a1
  > 0x0059bd56      10d9           move.b (a1)+, (a0)+
  < 0x0059bd58      51c8fffc       dbra d0, 0x59bd56
     0x0059bd5c      4240           clr.w d0
     0x0059bd5e      1014           move.b (a4), d0
     0x0059bd60      5200           addq.b 0x1, d0
  < 0x0059bd62      6406           bcc.b 0x59bd6a
     0x0059bd64      4eb900406c8a   jsr p_strovr
  > 0x0059bd6a      4240           clr.w d0
     0x0059bd6c      1014           move.b (a4), d0
     0x0059bd6e      3204           move.w d4, d1
     0x0059bd70      5341           subq.w 0x1, d1
     0x0059bd72      b041           cmp.w d1, d0
  < 0x0059bd74      6302           bls.b 0x59bd78
     0x0059bd76      3001           move.w d1, d0
  > 0x0059bd78      1ebc0001       move.b 0x1, (a7)
     0x0059bd7c      d117           add.b d0, (a7)
     0x0059bd7e      5300           subq.b 0x1, d0
  < 0x0059bd80      650a           bcs.b 0x59bd8c
     0x0059bd82      43eeff01       lea.l -0xff(a6), a1
  > 0x0059bd86      10d9           move.b (a1)+, (a0)+
  < 0x0059bd88      51c8fffc       dbra d0, 0x59bd86
  > 0x0059bd8c      204c           movea.l a4, a0
     0x0059bd8e      703f           moveq 0x3f, d0
  > 0x0059bd90      20df           move.l (a7)+, (a0)+
  < 0x0059bd92      51c8fffc       dbra d0, 0x59bd90
  > 0x0059bd96      4a2e0008       tst.b 0x8(a6)
  < 0x0059bd9a      6700008c       beq.w 0x59be28
     0x0059bd9e      9efc0102       suba.w 0x102, a7
     0x0059bda2      2f2e000c       move.l 0xc(a6), -(a7)
     0x0059bda6      4eb90066e8fe   jsr N10_UTILS.n_stn_id
     0x0059bdac      584f           addq.w 0x4, a7
     0x0059bdae      48780000       pea.l 0x0
     0x0059bdb2      4eb90066e95e   jsr N10_UTILS.n_stn_str1
     0x0059bdb8      5c4f           addq.w 0x6, a7
     0x0059bdba      4240           clr.w d0
     0x0059bdbc      1017           move.b (a7), d0
     0x0059bdbe      3200           move.w d0, d1
     0x0059bdc0      41eefe01       lea.l -0x1ff(a6), a0
     0x0059bdc4      5301           subq.b 0x1, d1
  < 0x0059bdc6      650a           bcs.b 0x59bdd2
     0x0059bdc8      43ef0001       lea.l 0x1(a7), a1
  > 0x0059bdcc      10d9           move.b (a1)+, (a0)+
  < 0x0059bdce      51c9fffc       dbra d1, 0x59bdcc
  > 0x0059bdd2      7201           moveq 0x1, d1
     0x0059bdd4      3404           move.w d4, d2
     0x0059bdd6      9440           sub.w d0, d2
     0x0059bdd8      b242           cmp.w d2, d1
  < 0x0059bdda      6302           bls.b 0x59bdde
     0x0059bddc      3202           move.w d2, d1
  > 0x0059bdde      1480           move.b d0, (a2)
     0x0059bde0      d312           add.b d1, (a2)
     0x0059bde2      43fad9d9       lea.l 0x5997bd(pc), a1
  > 0x0059bde6      10d9           move.b (a1)+, (a0)+
  < 0x0059bde8      51c9fffc       dbra d1, 0x59bde6
     0x0059bdec      defc0100       adda.w 0x100, a7
     0x0059bdf0      4240           clr.w d0
     0x0059bdf2      1012           move.b (a2), d0
     0x0059bdf4      41eefe01       lea.l -0x1ff(a6), a0
     0x0059bdf8      d0c0           adda.w d0, a0
     0x0059bdfa      4241           clr.w d1
     0x0059bdfc      1214           move.b (a4), d1
     0x0059bdfe      d200           add.b d0, d1
  < 0x0059be00      6406           bcc.b 0x59be08
     0x0059be02      4eb900406c8a   jsr p_strovr
  > 0x0059be08      4241           clr.w d1
     0x0059be0a      1214           move.b (a4), d1
     0x0059be0c      3404           move.w d4, d2
     0x0059be0e      9440           sub.w d0, d2
     0x0059be10      b242           cmp.w d2, d1
  < 0x0059be12      6302           bls.b 0x59be16
     0x0059be14      3202           move.w d2, d1
  > 0x0059be16      d312           add.b d1, (a2)
     0x0059be18      5301           subq.b 0x1, d1
  < 0x0059be1a      650a           bcs.b 0x59be26
     0x0059be1c      43eeff01       lea.l -0xff(a6), a1
  > 0x0059be20      10d9           move.b (a1)+, (a0)+
  < 0x0059be22      51c9fffc       dbra d1, 0x59be20
  > 0x0059be26      600c           bra.b 0x59be34
  > 0x0059be28      204a           movea.l a2, a0
      0x0059be2a      224c           movea.l a4, a1
      0x0059be2c      703f           moveq 0x3f, d0
  > 0x0059be2e      20d9           move.l (a1)+, (a0)+
  < 0x0059be30      51c8fffc       dbra d0, 0x59be2e
      ; CODE XREFS from K03_DISKLIST @ +0x2978, +0x2a7a
  > 0x0059be34      41ee0010       lea.l 0x10(a6), a0
          0x0059be38      224a           movea.l a2, a1
          0x0059be3a      703f           moveq 0x3f, d0
      > 0x0059be3c      20d9           move.l (a1)+, (a0)+
      < 0x0059be3e      51c8fffc       dbra d0, 0x59be3c
          0x0059be42      4cdf1fff       movem.l (a7)+, d0-d7/a0-a4
          0x0059be46      4e5e           unlk a6
          0x0059be48      4e75           rts
          ; XREFS: CALL 0x0059cca6  CALL 0x0059d74c  CALL 0x0059d8f2  
          ; XREFS: CALL 0x0059db86  CALL 0x0059de66  CALL 0x0059de7c  
          ; XREFS: CALL 0x0059deaa  CALL 0x0059dede  CALL 0x0059df88  
          ; XREFS: CALL 0x0059e0e4  CALL 0x0059e336  CALL 0x0059e376  
          ; XREFS: CALL 0x0059e434  CALL 0x0059e5de  CALL 0x0059e5fa  
 72: K03_DISKLIST.under ();
         0x0059be4a      4e56fff4       link.w a6, 0xfff4
         0x0059be4e      bfd5           cmpa.l (a5), a7
     < 0x0059be50      6206           bhi.b 0x59be58
        0x0059be52      44fc0002       move.w 0x2, ccr
        0x0059be56      4e76           trapv
     > 0x0059be58      defc000c       adda.w 0xc, a7
         0x0059be5c      48e70080       movem.l a0, -(a7)
         0x0059be60      422e0010       clr.b 0x10(a6)
     > 0x0059be64      206e000c       movea.l 0xc(a6), a0
        0x0059be68      b1f90083fe46   cmpa.l 0x83fe46, a0
    < 0x0059be6e      671a           beq.b 0x59be8a
       0x0059be70      b1ee0008       cmpa.l 0x8(a6), a0
   < 0x0059be74      6606           bne.b 0x59be7c
      0x0059be76      1d7c00010010   move.b 0x1, 0x10(a6)
   > 0x0059be7c      b1e8fffc       cmpa.l -0x4(a0), a0
   < 0x0059be80      6702           beq.b 0x59be84
      0x0059be82      4e4d           trap 0xd
   > 0x0059be84      2d50000c       move.l (a0), 0xc(a6)
    < 0x0059be88      60da           bra.b 0x59be64
    > 0x0059be8a      4cdf0100       movem.l (a7)+, a0
         0x0059be8e      4e5e           unlk a6
         0x0059be90      4e75           rts
 294: K03_DISKLIST.invisible_node_ ();
         ; var int32_t var_26f4h @ a6-0x26f4
         0x0059be92      4e56feb8       link.w a6, 0xfeb8
         0x0059be96      bfd5           cmpa.l (a5), a7
     < 0x0059be98      6206           bhi.b 0x59bea0
        0x0059be9a      44fc0002       move.w 0x2, ccr
        0x0059be9e      4e76           trapv
     > 0x0059bea0      defc0048       adda.w 0x48, a7
         0x0059bea4      48e7e0f8       movem.l d0-d2/a0-a4, -(a7)
         0x0059bea8      49eeff00       lea.l -0x100(a6), a4
         0x0059beac      7401           moveq 0x1, d2
         0x0059beae      18bad90e       move.b 0x5997be(pc), (a4)
         0x0059beb2      206e000c       movea.l 0xc(a6), a0
         0x0059beb6      b1e8fffc       cmpa.l -0x4(a0), a0
     < 0x0059beba      6702           beq.b 0x59bebe
        0x0059bebc      4e4d           trap 0xd
     > 0x0059bebe      2250           movea.l (a0), a1
         0x0059bec0      b2c2           cmpa.w d2, a1
     < 0x0059bec2      660e           bne.b 0x59bed2
        0x0059bec4      487ad8fa       pea.l 0x5997c0(pc)
        0x0059bec8      4878001b       pea.l 0x1b
        0x0059becc      2f17           move.l (a7), -(a7)
    < 0x0059bece      600000c2       bra.w 0x59bf92
    > 0x0059bed2      b3e9fffc       cmpa.l -0x4(a1), a1
    < 0x0059bed6      6702           beq.b 0x59beda
       0x0059bed8      4e4d           trap 0xd
    > 0x0059beda      2051           movea.l (a1), a0
        0x0059bedc      b0c2           cmpa.w d2, a0
    < 0x0059bede      660e           bne.b 0x59beee
       0x0059bee0      487ad8fa       pea.l 0x5997dc(pc)
       0x0059bee4      48780021       pea.l 0x21
   > 0x0059bee8      2f17           move.l (a7), -(a7)
  < 0x0059beea      600000a6       bra.w 0x59bf92
  > 0x0059beee      b1f90083fe46   cmpa.l 0x83fe46, a0
  < 0x0059bef4      660a           bne.b 0x59bf00
     0x0059bef6      487ad906       pea.l 0x5997fe(pc)
     0x0059befa      48780022       pea.l 0x22
  < 0x0059befe      60e8           bra.b 0x59bee8
   > 0x0059bf00      b1ee0008       cmpa.l 0x8(a6), a0
   < 0x0059bf04      6650           bne.b 0x59bf56
      0x0059bf06      2029001c       move.l 0x1c(a1), d0
      0x0059bf0a      0c8000000002   cmpi.l 0x2, d0
  < 0x0059bf10      660e           bne.b 0x59bf20
     0x0059bf12      28bad90c       move.l 0x599820(pc), (a4)
     0x0059bf16      1d7ad90cff04   move.b 0x599824(pc), -0xfc(a6)
 < 0x0059bf1c      60000084       bra.w 0x59bfa2
 > 0x0059bf20      b082           cmp.l d2, d0
 < 0x0059bf22      6610           bne.b 0x59bf34
    0x0059bf24      244c           movea.l a4, a2
    0x0059bf26      47fad8fd       lea.l 0x599825(pc), a3
    0x0059bf2a      7204           moveq 0x4, d1
 > 0x0059bf2c      14db           move.b (a3)+, (a2)+
 < 0x0059bf2e      51c9fffc       dbra d1, 0x59bf2c
 < 0x0059bf32      606e           bra.b 0x59bfa2
 > 0x0059bf34      487ad8f5       pea.l 0x59982b(pc)
     0x0059bf38      48780028       pea.l 0x28
     0x0059bf3c      2f17           move.l (a7), -(a7)
     0x0059bf3e      4eb9004047ea   jsr p_wts_o
     0x0059bf44      504f           addq.w 0x8, a7
     0x0059bf46      2e80           move.l d0, (a7)
     0x0059bf48      48780000       pea.l 0x0
     0x0059bf4c      4eb9004070e4   jsr p_wti_o
     0x0059bf52      504f           addq.w 0x8, a7
 < 0x0059bf54      6046           bra.b 0x59bf9c
 > 0x0059bf56      b1e8fffc       cmpa.l -0x4(a0), a0
 < 0x0059bf5a      6702           beq.b 0x59bf5e
    0x0059bf5c      4e4d           trap 0xd
 > 0x0059bf5e      2450           movea.l (a0), a2
     0x0059bf60      b4c2           cmpa.w d2, a2
 < 0x0059bf62      660a           bne.b 0x59bf6e
    0x0059bf64      487ad8ee       pea.l 0x599854(pc)
    0x0059bf68      48780027       pea.l 0x27
 < 0x0059bf6c      6022           bra.b 0x59bf90
 > 0x0059bf6e      b5f90083fe46   cmpa.l 0x83fe46, a2
 < 0x0059bf74      660a           bne.b 0x59bf80
    0x0059bf76      487ad904       pea.l 0x59987c(pc)
    0x0059bf7a      48780028       pea.l 0x28
 < 0x0059bf7e      6010           bra.b 0x59bf90
 > 0x0059bf80      b5ee0008       cmpa.l 0x8(a6), a2
 < 0x0059bf84      6602           bne.b 0x59bf88
 < 0x0059bf86      601a           bra.b 0x59bfa2
 > 0x0059bf88      487ad91b       pea.l 0x5998a5(pc)
     0x0059bf8c      4878000e       pea.l 0xe
 > 0x0059bf90      2f17           move.l (a7), -(a7)
 > 0x0059bf92      4eb9004047ea   jsr p_wts_o
       0x0059bf98      defc000c       adda.w 0xc, a7
  > 0x0059bf9c      4eb900404946   jsr p_wtln_o
 > 0x0059bfa2      41ee0010       lea.l 0x10(a6), a0
         0x0059bfa6      224c           movea.l a4, a1
         0x0059bfa8      703f           moveq 0x3f, d0
     > 0x0059bfaa      20d9           move.l (a1)+, (a0)+
     < 0x0059bfac      51c8fffc       dbra d0, 0x59bfaa
         0x0059bfb0      4cdf1f07       movem.l (a7)+, d0-d2/a0-a4
         0x0059bfb4      4e5e           unlk a6
         0x0059bfb6      4e75           rts
          ; CALL XREF from K03_DISKLIST.k03_node_data @ 0x59c452
 104: K03_DISKLIST.get_node_data ();
         0x0059bfb8      4e56fdae       link.w a6, 0xfdae
         0x0059bfbc      bfd5           cmpa.l (a5), a7
     < 0x0059bfbe      6206           bhi.b 0x59bfc6
        0x0059bfc0      44fc0002       move.w 0x2, ccr
        0x0059bfc4      4e76           trapv
     > 0x0059bfc6      defc0150       adda.w 0x150, a7
         0x0059bfca      48e7fff8       movem.l d0-d7/a0-a4, -(a7)
         0x0059bfce      7601           moveq 0x1, d3
         0x0059bfd0      383c0100       move.w 0x100, d4
         0x0059bfd4      3a3c00ff       move.w 0xff, d5
         0x0059bfd8      7c0c           moveq 0xc, d6
         0x0059bfda      206e0008       movea.l 0x8(a6), a0
         0x0059bfde      226e0010       movea.l 0x10(a6), a1
         0x0059bfe2      b3e9fffc       cmpa.l -0x4(a1), a1
     < 0x0059bfe6      6702           beq.b 0x59bfea
        0x0059bfe8      4e4d           trap 0xd
     > 0x0059bfea      10a90022       move.b 0x22(a1), (a0)
         0x0059bfee      594f           subq.w 0x4, a7
         0x0059bff0      2f2e0010       move.l 0x10(a6), -(a7)
         0x0059bff4      4ebae69a       jsr K03_DISKLIST.get_level(pc)
         0x0059bff8      584f           addq.w 0x4, a7
         0x0059bffa      215f0006       move.l (a7)+, 0x6(a0)
         0x0059bffe      117c0006011c   move.b 0x6, 0x11c(a0)
         0x0059c004      4228011d       clr.b 0x11d(a0)
         0x0059c008      10290022       move.b 0x22(a1), d0
         0x0059c00c      4880           ext.w d0
         0x0059c00e      0c400002       cmpi.w 0x2, d0
     < 0x0059c012      6302           bls.b 0x59c016
        0x0059c014      4e4e           trap 0xe
     > 0x0059c016      d040           add.w d0, d0
         0x0059c018      303b0006       move.w 0x59c020(pc, d0.w), d0
         0x0059c01c      4efb0002       jmp 0x59c020(pc, d0.w)
          0x0059c020      023600060346   andi.b 0x6, ([a6])
          0x0059c026      24690024       movea.l 0x24(a1), a2
          0x0059c02a      b5eafffc       cmpa.l -0x4(a2), a2
      < 0x0059c02e      6702           beq.b 0x59c032
         0x0059c030      4e4d           trap 0xd
      > 0x0059c032      216a000e0002   move.l 0xe(a2), 0x2(a0)
          0x0059c038      42280114       clr.b 0x114(a0)
          0x0059c03c      4a2a0222       tst.b 0x222(a2)
      < 0x0059c040      6604           bne.b 0x59c046
         0x0059c042      52280114       addq.b 0x1, 0x114(a0)
      > 0x0059c046      554f           subq.w 0x2, a7
          0x0059c048      2f2a0222       move.l 0x222(a2), -(a7)
          0x0059c04c      4eb90066ead8   jsr N10_UTILS.n_net_drive
          0x0059c052      584f           addq.w 0x4, a7
          0x0059c054      101f           move.b (a7)+, d0
          0x0059c056      4880           ext.w d0
          0x0059c058      4183           chk.w d3, d0
          0x0059c05a      11400115       move.b d0, 0x115(a0)
          0x0059c05e      554f           subq.w 0x2, a7
          0x0059c060      2f2e0010       move.l 0x10(a6), -(a7)
          0x0059c064      2f390083fe52   move.l 0x83fe52, -(a7)
          0x0059c06a      4ebafdde       jsr K03_DISKLIST.under(pc)
          0x0059c06e      504f           addq.w 0x8, a7
          0x0059c070      4a1f           tst.b (a7)+
      < 0x0059c072      6726           beq.b 0x59c09a
         0x0059c074      9ec4           suba.w d4, a7
         0x0059c076      1029001f       move.b 0x1f(a1), d0
         0x0059c07a      4880           ext.w d0
         0x0059c07c      41bc000a       chk.w 0xa, d0
         0x0059c080      1f00           move.b d0, -(a7)
         0x0059c082      4ebae336       jsr K03_DISKLIST.node_type_str(pc)
         0x0059c086      544f           addq.w 0x2, a7
         0x0059c088      45e80012       lea.l 0x12(a0), a2
         0x0059c08c      264f           movea.l a7, a3
         0x0059c08e      3005           move.w d5, d0
     > 0x0059c090      14db           move.b (a3)+, (a2)+
     < 0x0059c092      51c8fffc       dbra d0, 0x59c090
     < 0x0059c096      60000152       bra.w 0x59c1ea
     > 0x0059c09a      554f           subq.w 0x2, a7
         0x0059c09c      2f2e0010       move.l 0x10(a6), -(a7)
         0x0059c0a0      2f390083fe56   move.l 0x83fe56, -(a7)
         0x0059c0a6      4ebafda2       jsr K03_DISKLIST.under(pc)
         0x0059c0aa      504f           addq.w 0x8, a7
         0x0059c0ac      4a1f           tst.b (a7)+
     < 0x0059c0ae      670000a2       beq.w 0x59c152
        0x0059c0b2      9ec4           suba.w d4, a7
        0x0059c0b4      2f2e0010       move.l 0x10(a6), -(a7)
        0x0059c0b8      2f390083fe56   move.l 0x83fe56, -(a7)
        0x0059c0be      4ebafdd2       jsr K03_DISKLIST.invisible_node_(pc)
        0x0059c0c2      504f           addq.w 0x8, a7
        0x0059c0c4      45eefefe       lea.l -0x102(a6), a2
        0x0059c0c8      703f           moveq 0x3f, d0
    > 0x0059c0ca      24df           move.l (a7)+, (a2)+
    < 0x0059c0cc      51c8fffc       dbra d0, 0x59c0ca
        0x0059c0d0      9ec4           suba.w d4, a7
        0x0059c0d2      24690024       movea.l 0x24(a1), a2
        0x0059c0d6      b5eafffc       cmpa.l -0x4(a2), a2
    < 0x0059c0da      6702           beq.b 0x59c0de
       0x0059c0dc      4e4d           trap 0xd
    > 0x0059c0de      594f           subq.w 0x4, a7
        0x0059c0e0      1eaa0222       move.b 0x222(a2), (a7)
        0x0059c0e4      1f6a02230001   move.b 0x223(a2), 0x1(a7)
        0x0059c0ea      1f6a02240002   move.b 0x224(a2), 0x2(a7)
        0x0059c0f0      1f6a02250003   move.b 0x225(a2), 0x3(a7)
        0x0059c0f6      1f2e000e       move.b 0xe(a6), -(a7)
        0x0059c0fa      1f03           move.b d3, -(a7)
        0x0059c0fc      4ebaf934       jsr K03_DISKLIST.fixed_id_str(pc)
        0x0059c100      504f           addq.w 0x8, a7
        0x0059c102      4240           clr.w d0
        0x0059c104      102efefe       move.b -0x102(a6), d0
        0x0059c108      3200           move.w d0, d1
        0x0059c10a      45e80013       lea.l 0x13(a0), a2
        0x0059c10e      5301           subq.b 0x1, d1
    < 0x0059c110      650a           bcs.b 0x59c11c
       0x0059c112      47eefeff       lea.l -0x101(a6), a3
   > 0x0059c116      14db           move.b (a3)+, (a2)+
   < 0x0059c118      51c9fffc       dbra d1, 0x59c116
    > 0x0059c11c      4241           clr.w d1
        0x0059c11e      1217           move.b (a7), d1
        0x0059c120      d200           add.b d0, d1
    < 0x0059c122      6406           bcc.b 0x59c12a
       0x0059c124      4eb900406c8a   jsr p_strovr
    > 0x0059c12a      4241           clr.w d1
        0x0059c12c      1217           move.b (a7), d1
        0x0059c12e      3405           move.w d5, d2
        0x0059c130      9440           sub.w d0, d2
        0x0059c132      b242           cmp.w d2, d1
    < 0x0059c134      6302           bls.b 0x59c138
       0x0059c136      3202           move.w d2, d1
    > 0x0059c138      11400012       move.b d0, 0x12(a0)
        0x0059c13c      d3280012       add.b d1, 0x12(a0)
        0x0059c140      5301           subq.b 0x1, d1
    < 0x0059c142      650a           bcs.b 0x59c14e
       0x0059c144      47ef0001       lea.l 0x1(a7), a3
   > 0x0059c148      14db           move.b (a3)+, (a2)+
   < 0x0059c14a      51c9fffc       dbra d1, 0x59c148
   > 0x0059c14e      6000009a       bra.w 0x59c1ea
    > 0x0059c152      554f           subq.w 0x2, a7
        0x0059c154      2f2e0010       move.l 0x10(a6), -(a7)
        0x0059c158      2f390083fe4a   move.l 0x83fe4a, -(a7)
        0x0059c15e      4ebafcea       jsr K03_DISKLIST.under(pc)
        0x0059c162      504f           addq.w 0x8, a7
        0x0059c164      4a1f           tst.b (a7)+
    < 0x0059c166      6742           beq.b 0x59c1aa
       0x0059c168      9ec4           suba.w d4, a7
       0x0059c16a      24690024       movea.l 0x24(a1), a2
       0x0059c16e      b5eafffc       cmpa.l -0x4(a2), a2
   < 0x0059c172      6702           beq.b 0x59c176
      0x0059c174      4e4d           trap 0xd
   > 0x0059c176      594f           subq.w 0x4, a7
       0x0059c178      1eaa0222       move.b 0x222(a2), (a7)
       0x0059c17c      1f6a02230001   move.b 0x223(a2), 0x1(a7)
       0x0059c182      1f6a02240002   move.b 0x224(a2), 0x2(a7)
       0x0059c188      1f6a02250003   move.b 0x225(a2), 0x3(a7)
       0x0059c18e      1f2e000e       move.b 0xe(a6), -(a7)
       0x0059c192      4227           clr.b -(a7)
       0x0059c194      4ebaf89c       jsr K03_DISKLIST.fixed_id_str(pc)
       0x0059c198      504f           addq.w 0x8, a7
       0x0059c19a      45e80012       lea.l 0x12(a0), a2
       0x0059c19e      264f           movea.l a7, a3
       0x0059c1a0      3005           move.w d5, d0
   > 0x0059c1a2      14db           move.b (a3)+, (a2)+
   < 0x0059c1a4      51c8fffc       dbra d0, 0x59c1a2
   < 0x0059c1a8      6040           bra.b 0x59c1ea
   > 0x0059c1aa      9ec4           suba.w d4, a7
       0x0059c1ac      24690024       movea.l 0x24(a1), a2
       0x0059c1b0      b5eafffc       cmpa.l -0x4(a2), a2
   < 0x0059c1b4      6702           beq.b 0x59c1b8
      0x0059c1b6      4e4d           trap 0xd
   > 0x0059c1b8      594f           subq.w 0x4, a7
       0x0059c1ba      1eaa0222       move.b 0x222(a2), (a7)
       0x0059c1be      1f6a02230001   move.b 0x223(a2), 0x1(a7)
       0x0059c1c4      1f6a02240002   move.b 0x224(a2), 0x2(a7)
       0x0059c1ca      1f6a02250003   move.b 0x225(a2), 0x3(a7)
       0x0059c1d0      1f2e000e       move.b 0xe(a6), -(a7)
       0x0059c1d4      1f03           move.b d3, -(a7)
       0x0059c1d6      4ebaf85a       jsr K03_DISKLIST.fixed_id_str(pc)
       0x0059c1da      504f           addq.w 0x8, a7
       0x0059c1dc      45e80012       lea.l 0x12(a0), a2
       0x0059c1e0      264f           movea.l a7, a3
       0x0059c1e2      3005           move.w d5, d0
   > 0x0059c1e4      14db           move.b (a3)+, (a2)+
   < 0x0059c1e6      51c8fffc       dbra d0, 0x59c1e4
   > 0x0059c1ea      dec4           adda.w d4, a7
          0x0059c1ec      11430112       move.b d3, 0x112(a0)
          0x0059c1f0      24690024       movea.l 0x24(a1), a2
          0x0059c1f4      b5eafffc       cmpa.l -0x4(a2), a2
      < 0x0059c1f8      6702           beq.b 0x59c1fc
         0x0059c1fa      4e4d           trap 0xd
      > 0x0059c1fc      4280           clr.l d0
          0x0059c1fe      102a0224       move.b 0x224(a2), d0
          0x0059c202      2140000a       move.l d0, 0xa(a0)
          0x0059c206      216a0222000e   move.l 0x222(a2), 0xe(a0)
          0x0059c20c      42280117       clr.b 0x117(a0)
          0x0059c210      4280           clr.l d0
          0x0059c212      102a0223       move.b 0x223(a2), d0
          0x0059c216      c043           and.w d3, d0
      < 0x0059c218      6704           beq.b 0x59c21e
         0x0059c21a      52280117       addq.b 0x1, 0x117(a0)
      > 0x0059c21e      42280113       clr.b 0x113(a0)
          0x0059c222      102a000c       move.b 0xc(a2), d0
          0x0059c226      b003           cmp.b d3, d0
      < 0x0059c228      6604           bne.b 0x59c22e
         0x0059c22a      52280113       addq.b 0x1, 0x113(a0)
      > 0x0059c22e      42280116       clr.b 0x116(a0)
          0x0059c232      b003           cmp.b d3, d0
      < 0x0059c234      6704           beq.b 0x59c23a
         0x0059c236      52280116       addq.b 0x1, 0x116(a0)
      > 0x0059c23a      116a02260118   move.b 0x226(a2), 0x118(a0)
          0x0059c240      116a02270119   move.b 0x227(a2), 0x119(a0)
          0x0059c246      116a0228011a   move.b 0x228(a2), 0x11a(a0)
          0x0059c24c      116a0229011b   move.b 0x229(a2), 0x11b(a0)
      < 0x0059c252      6000016c       bra.w 0x59c3c0
         0x0059c256      42280113       clr.b 0x113(a0)
         0x0059c25a      42280116       clr.b 0x116(a0)
         0x0059c25e      117ad6540118   move.b 0x5998b4(pc), 0x118(a0)
         0x0059c264      117ad64f0119   move.b 0x5998b5(pc), 0x119(a0)
         0x0059c26a      117ad64a011a   move.b 0x5998b6(pc), 0x11a(a0)
         0x0059c270      117ad645011b   move.b 0x5998b7(pc), 0x11b(a0)
         0x0059c276      7e00           moveq 0x0, d7
         0x0059c278      554f           subq.w 0x2, a7
         0x0059c27a      2f2e0010       move.l 0x10(a6), -(a7)
         0x0059c27e      2f390083fe56   move.l 0x83fe56, -(a7)
         0x0059c284      4ebafbc4       jsr K03_DISKLIST.under(pc)
         0x0059c288      504f           addq.w 0x8, a7
         0x0059c28a      4a1f           tst.b (a7)+
     < 0x0059c28c      6722           beq.b 0x59c2b0
        0x0059c28e      24690014       movea.l 0x14(a1), a2
        0x0059c292      b5e90010       cmpa.l 0x10(a1), a2
    < 0x0059c296      666e           bne.b 0x59c306
       0x0059c298      b4c3           cmpa.w d3, a2
   < 0x0059c29a      676a           beq.b 0x59c306
  > 0x0059c29c      2f0a           move.l a2, -(a7)
     0x0059c29e      1f2e000e       move.b 0xe(a6), -(a7)
     0x0059c2a2      1f2e000c       move.b 0xc(a6), -(a7)
     0x0059c2a6      4850           pea.l (a0)
     0x0059c2a8      4ebafd0e       jsr K03_DISKLIST.get_node_data(pc)
     0x0059c2ac      dec6           adda.w d6, a7
  < 0x0059c2ae      6056           bra.b 0x59c306
  > 0x0059c2b0      554f           subq.w 0x2, a7
      0x0059c2b2      2f2e0010       move.l 0x10(a6), -(a7)
      0x0059c2b6      2f390083fe4e   move.l 0x83fe4e, -(a7)
      0x0059c2bc      4ebafb8c       jsr K03_DISKLIST.under(pc)
      0x0059c2c0      504f           addq.w 0x8, a7
      0x0059c2c2      4a1f           tst.b (a7)+
  < 0x0059c2c4      6710           beq.b 0x59c2d6
     0x0059c2c6      24690014       movea.l 0x14(a1), a2
     0x0059c2ca      b5e90010       cmpa.l 0x10(a1), a2
  < 0x0059c2ce      6636           bne.b 0x59c306
     0x0059c2d0      b4c3           cmpa.w d3, a2
  < 0x0059c2d2      6732           beq.b 0x59c306
  < 0x0059c2d4      60c6           bra.b 0x59c29c
   > 0x0059c2d6      24690008       movea.l 0x8(a1), a2
       0x0059c2da      b5eafffc       cmpa.l -0x4(a2), a2
   < 0x0059c2de      6702           beq.b 0x59c2e2
      0x0059c2e0      4e4d           trap 0xd
   > 0x0059c2e2      246a0004       movea.l 0x4(a2), a2
       0x0059c2e6      b4c3           cmpa.w d3, a2
   < 0x0059c2e8      661c           bne.b 0x59c306
      0x0059c2ea      4a2e000c       tst.b 0xc(a6)
  < 0x0059c2ee      6716           beq.b 0x59c306
     0x0059c2f0      2f290008       move.l 0x8(a1), -(a7)
     0x0059c2f4      1f2e000e       move.b 0xe(a6), -(a7)
     0x0059c2f8      1f2e000c       move.b 0xc(a6), -(a7)
     0x0059c2fc      4850           pea.l (a0)
     0x0059c2fe      4ebafcb8       jsr K03_DISKLIST.get_node_data(pc)
     0x0059c302      dec6           adda.w d6, a7
     0x0059c304      7e01           moveq 0x1, d7
  > 0x0059c306      594f           subq.w 0x4, a7
         0x0059c308      2f2e0010       move.l 0x10(a6), -(a7)
         0x0059c30c      4ebae382       jsr K03_DISKLIST.get_level(pc)
         0x0059c310      584f           addq.w 0x4, a7
         0x0059c312      215f0006       move.l (a7)+, 0x6(a0)
         0x0059c316      24690024       movea.l 0x24(a1), a2
         0x0059c31a      b5eafffc       cmpa.l -0x4(a2), a2
     < 0x0059c31e      6702           beq.b 0x59c322
        0x0059c320      4e4d           trap 0xd
     > 0x0059c322      47e80012       lea.l 0x12(a0), a3
         0x0059c326      284a           movea.l a2, a4
         0x0059c328      3005           move.w d5, d0
     > 0x0059c32a      16dc           move.b (a4)+, (a3)+
     < 0x0059c32c      51c8fffc       dbra d0, 0x59c32a
         0x0059c330      4a07           tst.b d7
     < 0x0059c332      6630           bne.b 0x59c364
        0x0059c334      217cffffffff.  move.l 0xffffffff, 0x2(a0)
        0x0059c33c      42280114       clr.b 0x114(a0)
        0x0059c340      42280115       clr.b 0x115(a0)
        0x0059c344      11430112       move.b d3, 0x112(a0)
        0x0059c348      42a8000a       clr.l 0xa(a0)
        0x0059c34c      42a8000e       clr.l 0xe(a0)
        0x0059c350      42280117       clr.b 0x117(a0)
        0x0059c354      10a90022       move.b 0x22(a1), (a0)
        0x0059c358      116a0300011c   move.b 0x300(a2), 0x11c(a0)
        0x0059c35e      11690020011d   move.b 0x20(a1), 0x11d(a0)
    > 0x0059c364      605a           bra.b 0x59c3c0
        0x0059c366      24690024       movea.l 0x24(a1), a2
        0x0059c36a      b5eafffc       cmpa.l -0x4(a2), a2
    < 0x0059c36e      6702           beq.b 0x59c372
       0x0059c370      4e4d           trap 0xd
    > 0x0059c372      216a000c0002   move.l 0xc(a2), 0x2(a0)
        0x0059c378      42280114       clr.b 0x114(a0)
        0x0059c37c      42280115       clr.b 0x115(a0)
        0x0059c380      45e80012       lea.l 0x12(a0), a2
        0x0059c384      47fad532       lea.l 0x5998b8(pc), a3
        0x0059c388      7006           moveq 0x6, d0
    > 0x0059c38a      14db           move.b (a3)+, (a2)+
    < 0x0059c38c      51c8fffc       dbra d0, 0x59c38a
        0x0059c390      42a8000a       clr.l 0xa(a0)
        0x0059c394      42a8000e       clr.l 0xe(a0)
        0x0059c398      42280117       clr.b 0x117(a0)
        0x0059c39c      42280112       clr.b 0x112(a0)
        0x0059c3a0      42280113       clr.b 0x113(a0)
        0x0059c3a4      42280116       clr.b 0x116(a0)
        0x0059c3a8      117ad5160118   move.b 0x5998c0(pc), 0x118(a0)
        0x0059c3ae      117ad5110119   move.b 0x5998c1(pc), 0x119(a0)
        0x0059c3b4      117ad50c011a   move.b 0x5998c2(pc), 0x11a(a0)
        0x0059c3ba      117ad507011b   move.b 0x5998c3(pc), 0x11b(a0)
    > 0x0059c3c0      4a290022       tst.b 0x22(a1)
      < 0x0059c3c4      6736           beq.b 0x59c3fc
     > 0x0059c3c6      226e0010       movea.l 0x10(a6), a1
        0x0059c3ca      b2c3           cmpa.w d3, a1
    < 0x0059c3cc      672e           beq.b 0x59c3fc
       0x0059c3ce      b3f90083fe46   cmpa.l 0x83fe46, a1
   < 0x0059c3d4      6726           beq.b 0x59c3fc
      0x0059c3d6      b3e9fffc       cmpa.l -0x4(a1), a1
  < 0x0059c3da      6702           beq.b 0x59c3de
     0x0059c3dc      4e4d           trap 0xd
  > 0x0059c3de      4a290022       tst.b 0x22(a1)
  < 0x0059c3e2      6612           bne.b 0x59c3f6
     0x0059c3e4      24690024       movea.l 0x24(a1), a2
     0x0059c3e8      b5eafffc       cmpa.l -0x4(a2), a2
  < 0x0059c3ec      6702           beq.b 0x59c3f0
     0x0059c3ee      4e4d           trap 0xd
  > 0x0059c3f0      116a0300011c   move.b 0x300(a2), 0x11c(a0)
  > 0x0059c3f6      2d510010       move.l (a1), 0x10(a6)
   < 0x0059c3fa      60ca           bra.b 0x59c3c6
   > 0x0059c3fc      4cdf1fff       movem.l (a7)+, d0-d7/a0-a4
          0x0059c400      4e5e           unlk a6
          0x0059c402      4e75           rts
          ; CALL XREF from K0_DISKMGR.k_node_data @ 0x5983f4
 104: K03_DISKLIST.k03_node_data ();
         0x0059c404      4e56ffdc       link.w a6, 0xffdc
         0x0059c408      bfd5           cmpa.l (a5), a7
     < 0x0059c40a      6206           bhi.b 0x59c412
        0x0059c40c      44fc0002       move.w 0x2, ccr
        0x0059c410      4e76           trapv
     > 0x0059c412      defc0020       adda.w 0x20, a7
         0x0059c416      48e780c8       movem.l d0/a0-a1/a4, -(a7)
         0x0059c41a      43f90083fe5c   lea.l 0x83fe5c, a1
         0x0059c420      4851           pea.l (a1)
         0x0059c422      4eb9004023c4   jsr p_Wait
         0x0059c428      584f           addq.w 0x4, a7
         0x0059c42a      202e0010       move.l 0x10(a6), d0
         0x0059c42e      0c80ffffffff   cmpi.l 0xffffffff, d0
     < 0x0059c434      6608           bne.b 0x59c43e
        0x0059c436      28790083fe46   movea.l 0x83fe46, a4
    < 0x0059c43c      6004           bra.b 0x59c442
    > 0x0059c43e      2f00           move.l d0, -(a7)
        0x0059c440      285f           movea.l (a7)+, a4
    > 0x0059c442      2f0c           move.l a4, -(a7)
         0x0059c444      1f2e000e       move.b 0xe(a6), -(a7)
         0x0059c448      1f2e000c       move.b 0xc(a6), -(a7)
         0x0059c44c      206e0008       movea.l 0x8(a6), a0
         0x0059c450      4850           pea.l (a0)
         0x0059c452      4ebafb64       jsr K03_DISKLIST.get_node_data(pc)
         0x0059c456      defc000c       adda.w 0xc, a7
         0x0059c45a      4851           pea.l (a1)
         0x0059c45c      4eb90040234e   jsr p_Signal
         0x0059c462      584f           addq.w 0x4, a7
         0x0059c464      4cdf1301       movem.l (a7)+, d0/a0-a1/a4
         0x0059c468      4e5e           unlk a6
         0x0059c46a      4e75           rts
          ; CALL XREF from K03_DISKLIST.volumes_under @ 0x59c580
          ; CALL XREF from K03_DISKLIST.get_node_ptr @ 0x59c68a
 324: K03_DISKLIST.volumes_under ();
         0x0059c46c      4e56ff9a       link.w a6, 0xff9a
         0x0059c470      bfd5           cmpa.l (a5), a7
     < 0x0059c472      6206           bhi.b 0x59c47a
        0x0059c474      44fc0002       move.w 0x2, ccr
        0x0059c478      4e76           trapv
     > 0x0059c47a      defc0054       adda.w 0x54, a7
         0x0059c47e      48e7f1f8       movem.l d0-d3/d7/a0-a4, -(a7)
         0x0059c482      45ee0010       lea.l 0x10(a6), a2
         0x0059c486      47eefff5       lea.l -0xb(a6), a3
         0x0059c48a      7401           moveq 0x1, d2
         0x0059c48c      760c           moveq 0xc, d3
         0x0059c48e      206e000c       movea.l 0xc(a6), a0
         0x0059c492      b0c2           cmpa.w d2, a0
     < 0x0059c494      6606           bne.b 0x59c49c
    > 0x0059c496      4212           clr.b (a2)
   < 0x0059c498      6000010e       bra.w 0x59c5a8
   > 0x0059c49c      b1e8fffc       cmpa.l -0x4(a0), a0
   < 0x0059c4a0      6702           beq.b 0x59c4a4
      0x0059c4a2      4e4d           trap 0xd
   > 0x0059c4a4      10280022       move.b 0x22(a0), d0
       0x0059c4a8      0c000002       cmpi.b 0x2, d0
   < 0x0059c4ac      6606           bne.b 0x59c4b4
      0x0059c4ae      1482           move.b d2, (a2)
  < 0x0059c4b0      600000f6       bra.w 0x59c5a8
  > 0x0059c4b4      b002           cmp.b d2, d0
  < 0x0059c4b6      660000a8       bne.w 0x59c560
     0x0059c4ba      554f           subq.w 0x2, a7
     0x0059c4bc      22680024       movea.l 0x24(a0), a1
     0x0059c4c0      b3e9fffc       cmpa.l -0x4(a1), a1
 < 0x0059c4c4      6702           beq.b 0x59c4c8
    0x0059c4c6      4e4d           trap 0xd
 > 0x0059c4c8      2f29000e       move.l 0xe(a1), -(a7)
     0x0059c4cc      4853           pea.l (a3)
     0x0059c4ce      486efff2       pea.l -0xe(a6)
     0x0059c4d2      486efff3       pea.l -0xd(a6)
     0x0059c4d6      486efff8       pea.l -0x8(a6)
     0x0059c4da      486efffc       pea.l -0x4(a6)
     0x0059c4de      4eb9005a13ba   jsr K04_FILEROPS.k_menu_status
     0x0059c4e4      defc0018       adda.w 0x18, a7
     0x0059c4e8      3d5ffff6       move.w (a7)+, -0xa(a6)
     0x0059c4ec      122efff6       move.b -0xa(a6), d1
     0x0059c4f0      b23ad3d3       cmp.b 0x5998c5(pc), d1
 < 0x0059c4f4      6608           bne.b 0x59c4fe
    0x0059c4f6      122efff7       move.b -0x9(a6), d1
    0x0059c4fa      b23ad3ca       cmp.b 0x5998c6(pc), d1
 > 0x0059c4fe      672c           beq.b 0x59c52c
     0x0059c500      487ad3c6       pea.l 0x5998c8(pc)
     0x0059c504      48780019       pea.l 0x19
     0x0059c508      2f17           move.l (a7), -(a7)
     0x0059c50a      4eb9004047ea   jsr p_wts_o
     0x0059c510      dec3           adda.w d3, a7
     0x0059c512      486efff6       pea.l -0xa(a6)
     0x0059c516      48780002       pea.l 0x2
     0x0059c51a      2f17           move.l (a7), -(a7)
     0x0059c51c      4eb9004047ea   jsr p_wts_o
     0x0059c522      dec3           adda.w d3, a7
     0x0059c524      4eb900404946   jsr p_wtln_o
     0x0059c52a      4213           clr.b (a3)
 > 0x0059c52c      4212           clr.b (a2)
     0x0059c52e      4a2e000a       tst.b 0xa(a6)
 < 0x0059c532      6614           bne.b 0x59c548
    0x0059c534      22680024       movea.l 0x24(a0), a1
    0x0059c538      b3e9fffc       cmpa.l -0x4(a1), a1
 < 0x0059c53c      6702           beq.b 0x59c540
    0x0059c53e      4e4d           trap 0xd
 > 0x0059c540      08290023001e   btst.b 0x23, 0x1e(a1)
 < 0x0059c546      6616           bne.b 0x59c55e
 > 0x0059c548      4a2e0008       tst.b 0x8(a6)
 < 0x0059c54c      660e           bne.b 0x59c55c
    0x0059c54e      2250           movea.l (a0), a1
    0x0059c550      b3f90083fe52   cmpa.l 0x83fe52, a1
 < 0x0059c556      6604           bne.b 0x59c55c
    0x0059c558      4a13           tst.b (a3)
 < 0x0059c55a      6702           beq.b 0x59c55e
 > 0x0059c55c      5212           addq.b 0x1, (a2)
 < 0x0059c55e      6048           bra.b 0x59c5a8
 > 0x0059c560      22680008       movea.l 0x8(a0), a1
     0x0059c564      b2c2           cmpa.w d2, a1
 < 0x0059c566      6604           bne.b 0x59c56c
 < 0x0059c568      6000ff2c       bra.w 0x59c496
  > 0x0059c56c      7e00           moveq 0x0, d7
      0x0059c56e      2849           movea.l a1, a4
  > 0x0059c570      b8c2           cmpa.w d2, a4
 < 0x0059c572      672e           beq.b 0x59c5a2
    0x0059c574      554f           subq.w 0x2, a7
    0x0059c576      2f0c           move.l a4, -(a7)
    0x0059c578      1f2e000a       move.b 0xa(a6), -(a7)
    0x0059c57c      1f2e0008       move.b 0x8(a6), -(a7)
    0x0059c580      4ebafeea       jsr K03_DISKLIST.volumes_under(pc)
    0x0059c584      504f           addq.w 0x8, a7
    0x0059c586      121f           move.b (a7)+, d1
    0x0059c588      4881           ext.w d1
    0x0059c58a      4382           chk.w d2, d1
    0x0059c58c      1e01           move.b d1, d7
 < 0x0059c58e      6704           beq.b 0x59c594
    0x0059c590      3842           movea.w d2, a4
 < 0x0059c592      600c           bra.b 0x59c5a0
 > 0x0059c594      b9ecfffc       cmpa.l -0x4(a4), a4
 < 0x0059c598      6702           beq.b 0x59c59c
    0x0059c59a      4e4d           trap 0xd
 > 0x0059c59c      286c0004       movea.l 0x4(a4), a4
 < 0x0059c5a0      60ce           bra.b 0x59c570
 > 0x0059c5a2      4887           ext.w d7
      0x0059c5a4      4f82           chk.w d2, d7
      0x0059c5a6      1487           move.b d7, (a2)
 > 0x0059c5a8      4cdf1f8f       movem.l (a7)+, d0-d3/d7/a0-a4
         0x0059c5ac      4e5e           unlk a6
         0x0059c5ae      4e75           rts
          ; CALL XREF from K03_DISKLIST.k03_get_node @ 0x59c6da
 258: K03_DISKLIST.get_node_ptr ();
         0x0059c5b0      4e56ffcc       link.w a6, 0xffcc
         0x0059c5b4      bfd5           cmpa.l (a5), a7
     < 0x0059c5b6      6206           bhi.b 0x59c5be
        0x0059c5b8      44fc0002       move.w 0x2, ccr
        0x0059c5bc      4e76           trapv
     > 0x0059c5be      defc002c       adda.w 0x2c, a7
         0x0059c5c2      48e7c0f8       movem.l d0-d1/a0-a4, -(a7)
         0x0059c5c6      43f90083fe5c   lea.l 0x83fe5c, a1
         0x0059c5cc      45ee000a       lea.l 0xa(a6), a2
         0x0059c5d0      7201           moveq 0x1, d1
         0x0059c5d2      202e000c       move.l 0xc(a6), d0
         0x0059c5d6      0c80ffffffff   cmpi.l 0xffffffff, d0
     < 0x0059c5dc      6608           bne.b 0x59c5e6
        0x0059c5de      28790083fe46   movea.l 0x83fe46, a4
    < 0x0059c5e4      6004           bra.b 0x59c5ea
    > 0x0059c5e6      2f00           move.l d0, -(a7)
        0x0059c5e8      285f           movea.l (a7)+, a4
    > 0x0059c5ea      b8c1           cmpa.w d1, a4
     < 0x0059c5ec      661a           bne.b 0x59c608
        0x0059c5ee      487ad2f2       pea.l 0x5998e2(pc)
        0x0059c5f2      48780012       pea.l 0x12
        0x0059c5f6      2f17           move.l (a7), -(a7)
        0x0059c5f8      4eb9004047ea   jsr p_wts_o
        0x0059c5fe      defc000c       adda.w 0xc, a7
        0x0059c602      4eb900404946   jsr p_wtln_o
   > 0x0059c608      4851           pea.l (a1)
       0x0059c60a      4eb9004023c4   jsr p_Wait
       0x0059c610      584f           addq.w 0x4, a7
       0x0059c612      b9ecfffc       cmpa.l -0x4(a4), a4
   < 0x0059c616      6702           beq.b 0x59c61a
      0x0059c618      4e4d           trap 0xd
   > 0x0059c61a      206c0008       movea.l 0x8(a4), a0
       0x0059c61e      b0c1           cmpa.w d1, a0
   < 0x0059c620      670e           beq.b 0x59c630
      0x0059c622      4a2c0020       tst.b 0x20(a4)
  < 0x0059c626      6604           bne.b 0x59c62c
     0x0059c628      4a12           tst.b (a2)
 < 0x0059c62a      6704           beq.b 0x59c630
 > 0x0059c62c      2848           movea.l a0, a4
 < 0x0059c62e      6038           bra.b 0x59c668
 > 0x0059c630      206c0004       movea.l 0x4(a4), a0
      0x0059c634      b0c1           cmpa.w d1, a0
  < 0x0059c636      6702           beq.b 0x59c63a
 < 0x0059c638      60f2           bra.b 0x59c62c
 > 0x0059c63a      b9ecfffc       cmpa.l -0x4(a4), a4
 < 0x0059c63e      6702           beq.b 0x59c642
    0x0059c640      4e4d           trap 0xd
 > 0x0059c642      2654           movea.l (a4), a3
     0x0059c644      b6c1           cmpa.w d1, a3
 < 0x0059c646      6604           bne.b 0x59c64c
    0x0059c648      3841           movea.w d1, a4
 < 0x0059c64a      6018           bra.b 0x59c664
 > 0x0059c64c      b7ebfffc       cmpa.l -0x4(a3), a3
 < 0x0059c650      6702           beq.b 0x59c654
    0x0059c652      4e4d           trap 0xd
 > 0x0059c654      206b0004       movea.l 0x4(a3), a0
     0x0059c658      b0c1           cmpa.w d1, a0
 < 0x0059c65a      6706           beq.b 0x59c662
    0x0059c65c      2848           movea.l a0, a4
    0x0059c65e      3641           movea.w d1, a3
 < 0x0059c660      6002           bra.b 0x59c664
 > 0x0059c662      284b           movea.l a3, a4
 > 0x0059c664      b6c1           cmpa.w d1, a3
 < 0x0059c666      66d2           bne.b 0x59c63a
  > 0x0059c668      4851           pea.l (a1)
       0x0059c66a      4eb90040234e   jsr p_Signal
       0x0059c670      584f           addq.w 0x4, a7
       0x0059c672      b8c1           cmpa.w d1, a4
   < 0x0059c674      6730           beq.b 0x59c6a6
      0x0059c676      554f           subq.w 0x2, a7
      0x0059c678      2f0c           move.l a4, -(a7)
      0x0059c67a      4227           clr.b -(a7)
      0x0059c67c      4a12           tst.b (a2)
  < 0x0059c67e      6708           beq.b 0x59c688
     0x0059c680      4a2e0008       tst.b 0x8(a6)
 < 0x0059c684      6702           beq.b 0x59c688
    0x0059c686      5217           addq.b 0x1, (a7)
 > 0x0059c688      1f12           move.b (a2), -(a7)
      0x0059c68a      4ebafde0       jsr K03_DISKLIST.volumes_under(pc)
      0x0059c68e      504f           addq.w 0x8, a7
      0x0059c690      4a1f           tst.b (a7)+
   < 0x0059c692      6700ff74       beq.w 0x59c608
       0x0059c696      b9ecfffc       cmpa.l -0x4(a4), a4
   < 0x0059c69a      6702           beq.b 0x59c69e
      0x0059c69c      4e4d           trap 0xd
   > 0x0059c69e      4a2c0021       tst.b 0x21(a4)
    < 0x0059c6a2      6600ff64       bne.w 0x59c608
     > 0x0059c6a6      2d4c0010       move.l a4, 0x10(a6)
         0x0059c6aa      4cdf1f03       movem.l (a7)+, d0-d1/a0-a4
         0x0059c6ae      4e5e           unlk a6
         0x0059c6b0      4e75           rts
          ; CALL XREF from K0_DISKMGR.k_get_node @ 0x5983b0
 84: K03_DISKLIST.k03_get_node ();
         0x0059c6b2      4e56ffdc       link.w a6, 0xffdc
         0x0059c6b6      bfd5           cmpa.l (a5), a7
     < 0x0059c6b8      6206           bhi.b 0x59c6c0
        0x0059c6ba      44fc0002       move.w 0x2, ccr
        0x0059c6be      4e76           trapv
     > 0x0059c6c0      defc0020       adda.w 0x20, a7
         0x0059c6c4      48e78088       movem.l d0/a0/a4, -(a7)
         0x0059c6c8      7001           moveq 0x1, d0
         0x0059c6ca      206e000c       movea.l 0xc(a6), a0
         0x0059c6ce      594f           subq.w 0x4, a7
         0x0059c6d0      2f10           move.l (a0), -(a7)
         0x0059c6d2      1f2e000a       move.b 0xa(a6), -(a7)
         0x0059c6d6      1f2e0008       move.b 0x8(a6), -(a7)
         0x0059c6da      4ebafed4       jsr K03_DISKLIST.get_node_ptr(pc)
         0x0059c6de      504f           addq.w 0x8, a7
         0x0059c6e0      285f           movea.l (a7)+, a4
         0x0059c6e2      422e0010       clr.b 0x10(a6)
         0x0059c6e6      b8c0           cmpa.w d0, a4
     < 0x0059c6e8      6704           beq.b 0x59c6ee
        0x0059c6ea      522e0010       addq.b 0x1, 0x10(a6)
     > 0x0059c6ee      b8c0           cmpa.w d0, a4
     < 0x0059c6f0      6608           bne.b 0x59c6fa
        0x0059c6f2      20bcffffffff   move.l 0xffffffff, (a0)
    < 0x0059c6f8      6004           bra.b 0x59c6fe
    > 0x0059c6fa      2f0c           move.l a4, -(a7)
        0x0059c6fc      209f           move.l (a7)+, (a0)
    > 0x0059c6fe      4cdf1101       movem.l (a7)+, d0/a0/a4
         0x0059c702      4e5e           unlk a6
         0x0059c704      4e75           rts
          ; CALL XREF from K03_DISKLIST.full_vol_str @ 0x59c9e4
          ; CALL XREF from K03_DISKLIST @ +0x38dc
 192: K03_DISKLIST.vol_str ();
         0x0059c706      4e56fed0       link.w a6, 0xfed0
         0x0059c70a      bfd5           cmpa.l (a5), a7
     < 0x0059c70c      6206           bhi.b 0x59c714
        0x0059c70e      44fc0002       move.w 0x2, ccr
        0x0059c712      4e76           trapv
     > 0x0059c714      defc002e       adda.w 0x2e, a7
         0x0059c718      48e7c0f8       movem.l d0-d1/a0-a4, -(a7)
         0x0059c71c      45ee0008       lea.l 0x8(a6), a2
         0x0059c720      47eefefe       lea.l -0x102(a6), a3
         0x0059c724      49eefffe       lea.l -0x2(a6), a4
         0x0059c728      720c           moveq 0xc, d1
         0x0059c72a      554f           subq.w 0x2, a7
         0x0059c72c      4227           clr.b -(a7)
         0x0059c72e      2f12           move.l (a2), -(a7)
         0x0059c730      1f3c0001       move.b 0x1, -(a7)
         0x0059c734      4853           pea.l (a3)
         0x0059c736      4eb9005a27e6   jsr K04_FILEROPS.k_str_info
         0x0059c73c      dec1           adda.w d1, a7
         0x0059c73e      389f           move.w (a7)+, (a4)
         0x0059c740      1014           move.b (a4), d0
         0x0059c742      b03ad1b1       cmp.b 0x5998f5(pc), d0
     < 0x0059c746      6608           bne.b 0x59c750
        0x0059c748      102effff       move.b -0x1(a6), d0
        0x0059c74c      b03ad1a8       cmp.b 0x5998f6(pc), d0
    > 0x0059c750      675e           beq.b 0x59c7b0
        0x0059c752      487ad1a4       pea.l 0x5998f8(pc)
        0x0059c756      48780007       pea.l 0x7
        0x0059c75a      2f17           move.l (a7), -(a7)
        0x0059c75c      4eb9004047ea   jsr p_wts_o
        0x0059c762      dec1           adda.w d1, a7
        0x0059c764      4854           pea.l (a4)
        0x0059c766      48780002       pea.l 0x2
        0x0059c76a      2f17           move.l (a7), -(a7)
        0x0059c76c      4eb9004047ea   jsr p_wts_o
        0x0059c772      dec1           adda.w d1, a7
        0x0059c774      487ad18a       pea.l 0x599900(pc)
        0x0059c778      4878001a       pea.l 0x1a
        0x0059c77c      2f17           move.l (a7), -(a7)
        0x0059c77e      4eb9004047ea   jsr p_wts_o
        0x0059c784      504f           addq.w 0x8, a7
        0x0059c786      2e92           move.l (a2), (a7)
        0x0059c788      48780000       pea.l 0x0
        0x0059c78c      4eb9004070e4   jsr p_wti_o
        0x0059c792      504f           addq.w 0x8, a7
        0x0059c794      4eb900404946   jsr p_wtln_o
        0x0059c79a      2f12           move.l (a2), -(a7)
        0x0059c79c      4878ffff       pea.l 0xffff
        0x0059c7a0      4853           pea.l (a3)
        0x0059c7a2      3f3c00ff       move.w 0xff, -(a7)
        0x0059c7a6      4eb900406e56   jsr p_strI1
        0x0059c7ac      defc000e       adda.w 0xe, a7
    > 0x0059c7b0      41ee000c       lea.l 0xc(a6), a0
         0x0059c7b4      224b           movea.l a3, a1
         0x0059c7b6      703f           moveq 0x3f, d0
     > 0x0059c7b8      20d9           move.l (a1)+, (a0)+
     < 0x0059c7ba      51c8fffc       dbra d0, 0x59c7b8
         0x0059c7be      4cdf1f03       movem.l (a7)+, d0-d1/a0-a4
         0x0059c7c2      4e5e           unlk a6
         0x0059c7c4      4e75           rts
          ; CALL XREF from K03_DISKLIST @ +0x38be
 842: K03_DISKLIST.full_vol_str ();
         ; var int32_t var_2ed8h @ a6-0x2ed8
         ; var int32_t var_2ed3h @ a6-0x2ed3
         0x0059c7c6      4e56fccc       link.w a6, 0xfccc
         0x0059c7ca      bfd5           cmpa.l (a5), a7
     < 0x0059c7cc      6206           bhi.b 0x59c7d4
        0x0059c7ce      44fc0002       move.w 0x2, ccr
        0x0059c7d2      4e76           trapv
     > 0x0059c7d4      defc012e       adda.w 0x12e, a7
         0x0059c7d8      48e7f0f8       movem.l d0-d3/a0-a4, -(a7)
         0x0059c7dc      45eefdfc       lea.l -0x204(a6), a2
         0x0059c7e0      47eefdfd       lea.l -0x203(a6), a3
         0x0059c7e4      49ee0008       lea.l 0x8(a6), a4
         0x0059c7e8      363c00ff       move.w 0xff, d3
         0x0059c7ec      1d7ad12dfdfa   move.b 0x59991b(pc), -0x206(a6)
         0x0059c7f2      1d7ad128fdfb   move.b 0x59991c(pc), -0x205(a6)
         0x0059c7f8      14bad123       move.b 0x59991d(pc), (a2)
         0x0059c7fc      554f           subq.w 0x2, a7
         0x0059c7fe      2f14           move.l (a4), -(a7)
         0x0059c800      1f3c0005       move.b 0x5, -(a7)
         0x0059c804      4eb9005a1286   jsr K04_FILEROPS.k_property_avai
         0x0059c80a      5c4f           addq.w 0x6, a7
         0x0059c80c      4a1f           tst.b (a7)+
     < 0x0059c80e      6730           beq.b 0x59c840
        0x0059c810      4240           clr.w d0
        0x0059c812      1012           move.b (a2), d0
        0x0059c814      204b           movea.l a3, a0
        0x0059c816      d0c0           adda.w d0, a0
        0x0059c818      7205           moveq 0x5, d1
        0x0059c81a      d200           add.b d0, d1
    < 0x0059c81c      6406           bcc.b 0x59c824
       0x0059c81e      4eb900406c8a   jsr p_strovr
    > 0x0059c824      7205           moveq 0x5, d1
        0x0059c826      3403           move.w d3, d2
        0x0059c828      9440           sub.w d0, d2
        0x0059c82a      b242           cmp.w d2, d1
    < 0x0059c82c      6302           bls.b 0x59c830
       0x0059c82e      3202           move.w d2, d1
    > 0x0059c830      d312           add.b d1, (a2)
        0x0059c832      43fad0eb       lea.l 0x59991f(pc), a1
    > 0x0059c836      10d9           move.b (a1)+, (a0)+
    < 0x0059c838      51c9fffc       dbra d1, 0x59c836
    < 0x0059c83c      60000132       bra.w 0x59c970
    > 0x0059c840      554f           subq.w 0x2, a7
        0x0059c842      2f14           move.l (a4), -(a7)
        0x0059c844      1f3c001b       move.b 0x1b, -(a7)
        0x0059c848      4eb9005a1286   jsr K04_FILEROPS.k_property_avai
        0x0059c84e      5c4f           addq.w 0x6, a7
        0x0059c850      4a1f           tst.b (a7)+
    < 0x0059c852      6730           beq.b 0x59c884
       0x0059c854      4240           clr.w d0
       0x0059c856      1012           move.b (a2), d0
       0x0059c858      204b           movea.l a3, a0
       0x0059c85a      d0c0           adda.w d0, a0
       0x0059c85c      7206           moveq 0x6, d1
       0x0059c85e      d200           add.b d0, d1
   < 0x0059c860      6406           bcc.b 0x59c868
      0x0059c862      4eb900406c8a   jsr p_strovr
   > 0x0059c868      7206           moveq 0x6, d1
       0x0059c86a      3403           move.w d3, d2
       0x0059c86c      9440           sub.w d0, d2
       0x0059c86e      b242           cmp.w d2, d1
   < 0x0059c870      6302           bls.b 0x59c874
      0x0059c872      3202           move.w d2, d1
   > 0x0059c874      d312           add.b d1, (a2)
       0x0059c876      43fad0ad       lea.l 0x599925(pc), a1
   > 0x0059c87a      10d9           move.b (a1)+, (a0)+
   < 0x0059c87c      51c9fffc       dbra d1, 0x59c87a
   < 0x0059c880      600000ee       bra.w 0x59c970
   > 0x0059c884      554f           subq.w 0x2, a7
       0x0059c886      2f14           move.l (a4), -(a7)
       0x0059c888      1f3c0022       move.b 0x22, -(a7)
       0x0059c88c      4eb9005a1286   jsr K04_FILEROPS.k_property_avai
       0x0059c892      5c4f           addq.w 0x6, a7
       0x0059c894      4a1f           tst.b (a7)+
   < 0x0059c896      670000d8       beq.w 0x59c970
      0x0059c89a      554f           subq.w 0x2, a7
      0x0059c89c      4227           clr.b -(a7)
      0x0059c89e      2f14           move.l (a4), -(a7)
      0x0059c8a0      4227           clr.b -(a7)
      0x0059c8a2      41eefffc       lea.l -0x4(a6), a0
      0x0059c8a6      2f08           move.l a0, -(a7)
      0x0059c8a8      3f3c0004       move.w 0x4, -(a7)
      0x0059c8ac      4eb9005a269c   jsr K04_FILEROPS.k_info
      0x0059c8b2      defc000e       adda.w 0xe, a7
      0x0059c8b6      3d57fdfa       move.w (a7), -0x206(a6)
      0x0059c8ba      2f2efffc       move.l -0x4(a6), -(a7)
      0x0059c8be      4eb90066ead8   jsr N10_UTILS.n_net_drive
      0x0059c8c4      584f           addq.w 0x4, a7
      0x0059c8c6      4a1f           tst.b (a7)+
  < 0x0059c8c8      6626           bne.b 0x59c8f0
     0x0059c8ca      487ad060       pea.l 0x59992c(pc)
     0x0059c8ce      48780021       pea.l 0x21
     0x0059c8d2      2f17           move.l (a7), -(a7)
     0x0059c8d4      4eb9004047ea   jsr p_wts_o
     0x0059c8da      504f           addq.w 0x8, a7
     0x0059c8dc      2e94           move.l (a4), (a7)
     0x0059c8de      4878ffff       pea.l 0xffff
     0x0059c8e2      4eb9004070e4   jsr p_wti_o
     0x0059c8e8      504f           addq.w 0x8, a7
     0x0059c8ea      4eb900404946   jsr p_wtln_o
  > 0x0059c8f0      4240           clr.w d0
      0x0059c8f2      1012           move.b (a2), d0
      0x0059c8f4      204b           movea.l a3, a0
      0x0059c8f6      d0c0           adda.w d0, a0
      0x0059c8f8      7204           moveq 0x4, d1
      0x0059c8fa      d200           add.b d0, d1
  < 0x0059c8fc      6406           bcc.b 0x59c904
     0x0059c8fe      4eb900406c8a   jsr p_strovr
  > 0x0059c904      7204           moveq 0x4, d1
      0x0059c906      3403           move.w d3, d2
      0x0059c908      9440           sub.w d0, d2
      0x0059c90a      b242           cmp.w d2, d1
  < 0x0059c90c      6302           bls.b 0x59c910
     0x0059c90e      3202           move.w d2, d1
  > 0x0059c910      d312           add.b d1, (a2)
      0x0059c912      43fad03a       lea.l 0x59994e(pc), a1
  > 0x0059c916      10d9           move.b (a1)+, (a0)+
  < 0x0059c918      51c9fffc       dbra d1, 0x59c916
      0x0059c91c      9efc0102       suba.w 0x102, a7
      0x0059c920      2f2efffc       move.l -0x4(a6), -(a7)
      0x0059c924      4eb90066e8fe   jsr N10_UTILS.n_stn_id
      0x0059c92a      584f           addq.w 0x4, a7
      0x0059c92c      48780000       pea.l 0x0
      0x0059c930      4eb90066e95e   jsr N10_UTILS.n_stn_str1
      0x0059c936      5c4f           addq.w 0x6, a7
      0x0059c938      4240           clr.w d0
      0x0059c93a      1012           move.b (a2), d0
      0x0059c93c      204b           movea.l a3, a0
      0x0059c93e      d0c0           adda.w d0, a0
      0x0059c940      4241           clr.w d1
      0x0059c942      1217           move.b (a7), d1
      0x0059c944      d200           add.b d0, d1
  < 0x0059c946      6406           bcc.b 0x59c94e
     0x0059c948      4eb900406c8a   jsr p_strovr
  > 0x0059c94e      4241           clr.w d1
      0x0059c950      1217           move.b (a7), d1
      0x0059c952      3403           move.w d3, d2
      0x0059c954      9440           sub.w d0, d2
      0x0059c956      b242           cmp.w d2, d1
  < 0x0059c958      6302           bls.b 0x59c95c
     0x0059c95a      3202           move.w d2, d1
  > 0x0059c95c      d312           add.b d1, (a2)
      0x0059c95e      5301           subq.b 0x1, d1
  < 0x0059c960      650a           bcs.b 0x59c96c
     0x0059c962      43ef0001       lea.l 0x1(a7), a1
 > 0x0059c966      10d9           move.b (a1)+, (a0)+
 < 0x0059c968      51c9fffc       dbra d1, 0x59c966
  > 0x0059c96c      defc0100       adda.w 0x100, a7
   > 0x0059c970      554f           subq.w 0x2, a7
         0x0059c972      2f14           move.l (a4), -(a7)
         0x0059c974      1f3c0006       move.b 0x6, -(a7)
         0x0059c978      4eb9005a1286   jsr K04_FILEROPS.k_property_avai
         0x0059c97e      5c4f           addq.w 0x6, a7
         0x0059c980      4a1f           tst.b (a7)+
     < 0x0059c982      672e           beq.b 0x59c9b2
        0x0059c984      4240           clr.w d0
        0x0059c986      1012           move.b (a2), d0
        0x0059c988      204b           movea.l a3, a0
        0x0059c98a      d0c0           adda.w d0, a0
        0x0059c98c      720c           moveq 0xc, d1
        0x0059c98e      d200           add.b d0, d1
    < 0x0059c990      6406           bcc.b 0x59c998
       0x0059c992      4eb900406c8a   jsr p_strovr
    > 0x0059c998      720c           moveq 0xc, d1
        0x0059c99a      3403           move.w d3, d2
        0x0059c99c      9440           sub.w d0, d2
        0x0059c99e      b242           cmp.w d2, d1
    < 0x0059c9a0      6302           bls.b 0x59c9a4
       0x0059c9a2      3202           move.w d2, d1
    > 0x0059c9a4      d312           add.b d1, (a2)
        0x0059c9a6      43facfab       lea.l 0x599953(pc), a1
    > 0x0059c9aa      10d9           move.b (a1)+, (a0)+
    < 0x0059c9ac      51c9fffc       dbra d1, 0x59c9aa
    < 0x0059c9b0      602c           bra.b 0x59c9de
    > 0x0059c9b2      4240           clr.w d0
        0x0059c9b4      1012           move.b (a2), d0
        0x0059c9b6      204b           movea.l a3, a0
        0x0059c9b8      d0c0           adda.w d0, a0
        0x0059c9ba      720b           moveq 0xb, d1
        0x0059c9bc      d200           add.b d0, d1
    < 0x0059c9be      6406           bcc.b 0x59c9c6
       0x0059c9c0      4eb900406c8a   jsr p_strovr
    > 0x0059c9c6      720b           moveq 0xb, d1
        0x0059c9c8      3403           move.w d3, d2
        0x0059c9ca      9440           sub.w d0, d2
        0x0059c9cc      b242           cmp.w d2, d1
    < 0x0059c9ce      6302           bls.b 0x59c9d2
       0x0059c9d0      3202           move.w d2, d1
    > 0x0059c9d2      d312           add.b d1, (a2)
        0x0059c9d4      43facf8a       lea.l 0x599960(pc), a1
    > 0x0059c9d8      10d9           move.b (a1)+, (a0)+
    < 0x0059c9da      51c9fffc       dbra d1, 0x59c9d8
    > 0x0059c9de      9efc0100       suba.w 0x100, a7
         0x0059c9e2      2f14           move.l (a4), -(a7)
         0x0059c9e4      4ebafd20       jsr K03_DISKLIST.vol_str(pc)
         0x0059c9e8      584f           addq.w 0x4, a7
         0x0059c9ea      41eefefc       lea.l -0x104(a6), a0
         0x0059c9ee      703f           moveq 0x3f, d0
     > 0x0059c9f0      20df           move.l (a7)+, (a0)+
     < 0x0059c9f2      51c8fffc       dbra d0, 0x59c9f0
         0x0059c9f6      4240           clr.w d0
         0x0059c9f8      1012           move.b (a2), d0
         0x0059c9fa      204b           movea.l a3, a0
         0x0059c9fc      d0c0           adda.w d0, a0
         0x0059c9fe      7201           moveq 0x1, d1
         0x0059ca00      3403           move.w d3, d2
         0x0059ca02      9440           sub.w d0, d2
         0x0059ca04      b242           cmp.w d2, d1
     < 0x0059ca06      6302           bls.b 0x59ca0a
        0x0059ca08      3202           move.w d2, d1
     > 0x0059ca0a      d312           add.b d1, (a2)
         0x0059ca0c      43facf5e       lea.l 0x59996c(pc), a1
     > 0x0059ca10      10d9           move.b (a1)+, (a0)+
     < 0x0059ca12      51c9fffc       dbra d1, 0x59ca10
         0x0059ca16      4240           clr.w d0
         0x0059ca18      1012           move.b (a2), d0
         0x0059ca1a      204b           movea.l a3, a0
         0x0059ca1c      d0c0           adda.w d0, a0
         0x0059ca1e      4241           clr.w d1
         0x0059ca20      122efefc       move.b -0x104(a6), d1
         0x0059ca24      d200           add.b d0, d1
     < 0x0059ca26      6406           bcc.b 0x59ca2e
        0x0059ca28      4eb900406c8a   jsr p_strovr
     > 0x0059ca2e      4241           clr.w d1
         0x0059ca30      122efefc       move.b -0x104(a6), d1
         0x0059ca34      3403           move.w d3, d2
         0x0059ca36      9440           sub.w d0, d2
         0x0059ca38      b242           cmp.w d2, d1
     < 0x0059ca3a      6302           bls.b 0x59ca3e
        0x0059ca3c      3202           move.w d2, d1
     > 0x0059ca3e      d312           add.b d1, (a2)
         0x0059ca40      5301           subq.b 0x1, d1
     < 0x0059ca42      650a           bcs.b 0x59ca4e
        0x0059ca44      43eefefd       lea.l -0x103(a6), a1
    > 0x0059ca48      10d9           move.b (a1)+, (a0)+
    < 0x0059ca4a      51c9fffc       dbra d1, 0x59ca48
     > 0x0059ca4e      4240           clr.w d0
         0x0059ca50      1012           move.b (a2), d0
         0x0059ca52      204b           movea.l a3, a0
         0x0059ca54      d0c0           adda.w d0, a0
         0x0059ca56      7201           moveq 0x1, d1
         0x0059ca58      3403           move.w d3, d2
         0x0059ca5a      9440           sub.w d0, d2
         0x0059ca5c      b242           cmp.w d2, d1
     < 0x0059ca5e      6302           bls.b 0x59ca62
        0x0059ca60      3202           move.w d2, d1
     > 0x0059ca62      d312           add.b d1, (a2)
         0x0059ca64      43facf08       lea.l 0x59996e(pc), a1
     > 0x0059ca68      10d9           move.b (a1)+, (a0)+
     < 0x0059ca6a      51c9fffc       dbra d1, 0x59ca68
         0x0059ca6e      302efdfa       move.w -0x206(a6), d0
         0x0059ca72      b07acefc       cmp.w 0x599970(pc), d0
     < 0x0059ca76      672e           beq.b 0x59caa6
        0x0059ca78      4240           clr.w d0
        0x0059ca7a      1012           move.b (a2), d0
        0x0059ca7c      204b           movea.l a3, a0
        0x0059ca7e      d0c0           adda.w d0, a0
        0x0059ca80      7211           moveq 0x11, d1
        0x0059ca82      d200           add.b d0, d1
    < 0x0059ca84      6406           bcc.b 0x59ca8c
       0x0059ca86      4eb900406c8a   jsr p_strovr
    > 0x0059ca8c      7211           moveq 0x11, d1
        0x0059ca8e      3403           move.w d3, d2
        0x0059ca90      9440           sub.w d0, d2
        0x0059ca92      b242           cmp.w d2, d1
    < 0x0059ca94      6302           bls.b 0x59ca98
       0x0059ca96      3202           move.w d2, d1
    > 0x0059ca98      d312           add.b d1, (a2)
        0x0059ca9a      43faced7       lea.l 0x599973(pc), a1
    > 0x0059ca9e      10d9           move.b (a1)+, (a0)+
    < 0x0059caa0      51c9fffc       dbra d1, 0x59ca9e
    < 0x0059caa4      6054           bra.b 0x59cafa
    > 0x0059caa6      554f           subq.w 0x2, a7
        0x0059caa8      2f14           move.l (a4), -(a7)
        0x0059caaa      1f3c0024       move.b 0x24, -(a7)
        0x0059caae      4eb9005a1286   jsr K04_FILEROPS.k_property_avai
        0x0059cab4      5c4f           addq.w 0x6, a7
        0x0059cab6      4a1f           tst.b (a7)+
    < 0x0059cab8      6714           beq.b 0x59cace
       0x0059caba      554f           subq.w 0x2, a7
       0x0059cabc      2f14           move.l (a4), -(a7)
       0x0059cabe      1f3c0025       move.b 0x25, -(a7)
       0x0059cac2      4eb9005a1286   jsr K04_FILEROPS.k_property_avai
       0x0059cac8      5c4f           addq.w 0x6, a7
       0x0059caca      4a1f           tst.b (a7)+
   < 0x0059cacc      662c           bne.b 0x59cafa
   > 0x0059cace      4240           clr.w d0
       0x0059cad0      1012           move.b (a2), d0
       0x0059cad2      204b           movea.l a3, a0
       0x0059cad4      d0c0           adda.w d0, a0
       0x0059cad6      720b           moveq 0xb, d1
       0x0059cad8      d200           add.b d0, d1
   < 0x0059cada      6406           bcc.b 0x59cae2
      0x0059cadc      4eb900406c8a   jsr p_strovr
   > 0x0059cae2      720b           moveq 0xb, d1
       0x0059cae4      3403           move.w d3, d2
       0x0059cae6      9440           sub.w d0, d2
       0x0059cae8      b242           cmp.w d2, d1
   < 0x0059caea      6302           bls.b 0x59caee
      0x0059caec      3202           move.w d2, d1
   > 0x0059caee      d312           add.b d1, (a2)
       0x0059caf0      43face93       lea.l 0x599985(pc), a1
   > 0x0059caf4      10d9           move.b (a1)+, (a0)+
   < 0x0059caf6      51c9fffc       dbra d1, 0x59caf4
   > 0x0059cafa      41ee000c       lea.l 0xc(a6), a0
         0x0059cafe      224a           movea.l a2, a1
         0x0059cb00      703f           moveq 0x3f, d0
     > 0x0059cb02      20d9           move.l (a1)+, (a0)+
     < 0x0059cb04      51c8fffc       dbra d0, 0x59cb02
         0x0059cb08      4cdf1f0f       movem.l (a7)+, d0-d3/a0-a4
         0x0059cb0c      4e5e           unlk a6
         0x0059cb0e      4e75           rts
          ; CALL XREF from K0_DISKMGR.k_node_grouping @ 0x5985e2
 224: K03_DISKLIST.k03_node_groupi ();
         ; var int32_t var_17h @ a7+0x17
         ; var int32_t var_18h @ a7+0x18
         ; var int32_t var_19h @ a7+0x19
         0x0059cb10      4e56fec0       link.w a6, 0xfec0
         0x0059cb14      bfd5           cmpa.l (a5), a7
     < 0x0059cb16      6206           bhi.b 0x59cb1e
        0x0059cb18      44fc0002       move.w 0x2, ccr
        0x0059cb1c      4e76           trapv
     > 0x0059cb1e      defc0134       adda.w 0x134, a7
         0x0059cb22      48e7f8f8       movem.l d0-d4/a0-a4, -(a7)
         0x0059cb26      7201           moveq 0x1, d1
         0x0059cb28      343c00ff       move.w 0xff, d2
         0x0059cb2c      7604           moveq 0x4, d3
         0x0059cb2e      383c0100       move.w 0x100, d4
         0x0059cb32      594f           subq.w 0x4, a7
         0x0059cb34      2f2e0012       move.l 0x12(a6), -(a7)
         0x0059cb38      4227           clr.b -(a7)
         0x0059cb3a      4eb900593ae0   jsr K0_DISKMGR.k0_gen_vol_ptr
         0x0059cb40      5c4f           addq.w 0x6, a7
         0x0059cb42      2d5ffffc       move.l (a7)+, -0x4(a6)
         0x0059cb46      48790083fe5c   pea.l 0x83fe5c
         0x0059cb4c      4eb9004023c4   jsr p_Wait
         0x0059cb52      584f           addq.w 0x4, a7
         0x0059cb54      206efffc       movea.l -0x4(a6), a0
         0x0059cb58      b1e8fffc       cmpa.l -0x4(a0), a0
     < 0x0059cb5c      6702           beq.b 0x59cb60
        0x0059cb5e      4e4d           trap 0xd
     > 0x0059cb60      594f           subq.w 0x4, a7
         0x0059cb62      1ea80016       move.b 0x16(a0), (a7)
         0x0059cb66      1f6800170001   move.b 0x17(a0), 0x1(a7)
         0x0059cb6c      1f6800180002   move.b 0x18(a0), 0x2(a7)
         0x0059cb72      1f6800190003   move.b 0x19(a0), 0x3(a7)
         0x0059cb78      285f           movea.l (a7)+, a4
         0x0059cb7a      4227           clr.b -(a7)
         0x0059cb7c      b9ecfffc       cmpa.l -0x4(a4), a4
     < 0x0059cb80      6702           beq.b 0x59cb84
        0x0059cb82      4e4d           trap 0xd
     > 0x0059cb84      102c0022       move.b 0x22(a4), d0
         0x0059cb88      b001           cmp.b d1, d0
     < 0x0059cb8a      6602           bne.b 0x59cb8e
        0x0059cb8c      5217           addq.b 0x1, (a7)
     > 0x0059cb8e      4eb90040452a   jsr p_Assert
         0x0059cb94      544f           addq.w 0x2, a7
         0x0059cb96      264c           movea.l a4, a3
     > 0x0059cb98      b9ecfffc       cmpa.l -0x4(a4), a4
    < 0x0059cb9c      6702           beq.b 0x59cba0
       0x0059cb9e      4e4d           trap 0xd
    > 0x0059cba0      4a2c0020       tst.b 0x20(a4)
    < 0x0059cba4      6602           bne.b 0x59cba8
       0x0059cba6      264c           movea.l a4, a3
    > 0x0059cba8      2854           movea.l (a4), a4
        0x0059cbaa      b9ecfffc       cmpa.l -0x4(a4), a4
    < 0x0059cbae      6702           beq.b 0x59cbb2
       0x0059cbb0      4e4d           trap 0xd
    > 0x0059cbb2      2054           movea.l (a4), a0
        0x0059cbb4      b1f90083fe46   cmpa.l 0x83fe46, a0
    < 0x0059cbba      6670           bne.b 0x59cc2c
       0x0059cbbc      4227           clr.b -(a7)
       0x0059cbbe      4a2c0022       tst.b 0x22(a4)
   < 0x0059cbc2      6602           bne.b 0x59cbc6
      0x0059cbc4      5217           addq.b 0x1, (a7)
   > 0x0059cbc6      4eb90040452a   jsr p_Assert
       0x0059cbcc      544f           addq.w 0x2, a7
       0x0059cbce      206c0024       movea.l 0x24(a4), a0
       0x0059cbd2      b1e8fffc       cmpa.l -0x4(a0), a0
   < 0x0059cbd6      6702           beq.b 0x59cbda
      0x0059cbd8      4e4d           trap 0xd
   > 0x0059cbda      10280300       move.b 0x300(a0), d0
       0x0059cbde      4880           ext.w d0
       0x0059cbe0      b043           cmp.w d3, d0
   < 0x0059cbe2      6302           bls.b 0x59cbe6
      0x0059cbe4      4e4e           trap 0xe
   > 0x0059cbe6      d040           add.w d0, d0
       0x0059cbe8      303b0006       move.w 0x59cbf0(pc, d0.w), d0
       0x0059cbec      4efb0002       jmp 0x59cbf0(pc, d0.w)
        0x0059cbf0      000a0012       
        0x0059cbf1      0a001200       eori.b 0x0, d0
        0x0059cbf5      2a00           move.l d0, d5
        0x0059cbf7      1e00           move.b d0, d7
        0x0059cbf9      3220           move.w -(a0), d1
    < 0x0059cbfb      6e000820       bgt.w 0x59d41d              ; K03_DISKLIST.volume_state+0xe7
       0x0059cbff      8160           or.w d0, -(a0)
       0x0059cc01      2a20           move.l -(a0), d5
   < 0x0059cc03      6e000820       bgt.w 0x59d425              ; K03_DISKLIST.volume_state+0xef
      0x0059cc07      bc00           cmp.b d0, d6
      0x0059cc09      00000260       ori.b 0x60, d0
      0x0059cc0d      1e20           move.b -(a0), d7
  < 0x0059cc0f      6e000820       bgt.w 0x59d431              ; K03_DISKLIST.volume_state+0xfb
     0x0059cc13      bc00           cmp.b d0, d6
     0x0059cc15      00000360       ori.b 0x60, d0
     0x0059cc19      1220           move.b -(a0), d1
  < 0x0059cc1b      6e000820       bgt.w 0x59d43d              ; K03_DISKLIST.volume_state+0x107
     0x0059cc1f      8360           or.w d1, -(a0)
     0x0059cc21      0a206e00       eori.b 0x0, -(a0)
     0x0059cc25      0820bc00       
     0x0059cc26      20bc00000005   move.l 0x5, (a0)
  > 0x0059cc2c      b9f90083fe46   cmpa.l 0x83fe46, a4
   < 0x0059cc32      6600ff64       bne.w 0x59cb98              ; K03_DISKLIST.k03_node_groupi+0x88
       0x0059cc36      2f0b           move.l a3, -(a7)
       0x0059cc38      2d5f0016       move.l (a7)+, 0x16(a6)
       0x0059cc3c      48790083fe5c   pea.l 0x83fe5c
       0x0059cc42      4eb90040234e   jsr p_Signal
       0x0059cc48      584f           addq.w 0x4, a7
       0x0059cc4a      b7ebfffc       cmpa.l -0x4(a3), a3
   < 0x0059cc4e      6702           beq.b 0x59cc52
      0x0059cc50      4e4d           trap 0xd
   > 0x0059cc52      102b0022       move.b 0x22(a3), d0
       0x0059cc56      b001           cmp.b d1, d0
   < 0x0059cc58      6672           bne.b 0x59cccc
      0x0059cc5a      4a2e0010       tst.b 0x10(a6)
  < 0x0059cc5e      671e           beq.b 0x59cc7e
     0x0059cc60      206e000c       movea.l 0xc(a6), a0
     0x0059cc64      9ec4           suba.w d4, a7
     0x0059cc66      2f2e0012       move.l 0x12(a6), -(a7)
     0x0059cc6a      4ebafb5a       jsr K03_DISKLIST.full_vol_str(pc)
     0x0059cc6e      584f           addq.w 0x4, a7
     0x0059cc70      224f           movea.l a7, a1
     0x0059cc72      3002           move.w d2, d0
  > 0x0059cc74      10d9           move.b (a1)+, (a0)+
  < 0x0059cc76      51c8fffc       dbra d0, 0x59cc74
     0x0059cc7a      dec4           adda.w d4, a7
  < 0x0059cc7c      606a           bra.b 0x59cce8
  > 0x0059cc7e      206e000c       movea.l 0xc(a6), a0
      0x0059cc82      9ec4           suba.w d4, a7
      0x0059cc84      2f2e0012       move.l 0x12(a6), -(a7)
      0x0059cc88      4ebafa7c       jsr K03_DISKLIST.vol_str(pc)
      0x0059cc8c      584f           addq.w 0x4, a7
      0x0059cc8e      2248           movea.l a0, a1
      0x0059cc90      244f           movea.l a7, a2
      0x0059cc92      3002           move.w d2, d0
  > 0x0059cc94      12da           move.b (a2)+, (a1)+
  < 0x0059cc96      51c8fffc       dbra d0, 0x59cc94
      0x0059cc9a      defc00fa       adda.w 0xfa, a7
      0x0059cc9e      2e8b           move.l a3, (a7)
      0x0059cca0      2f390083fe4e   move.l 0x83fe4e, -(a7)
      0x0059cca6      4ebaf1a2       jsr K03_DISKLIST.under(pc)
      0x0059ccaa      504f           addq.w 0x8, a7
      0x0059ccac      4a1f           tst.b (a7)+
  < 0x0059ccae      6738           beq.b 0x59cce8
     0x0059ccb0      226efffc       movea.l -0x4(a6), a1
     0x0059ccb4      b3e9fffc       cmpa.l -0x4(a1), a1
  < 0x0059ccb8      6702           beq.b 0x59ccbc
     0x0059ccba      4e4d           trap 0xd
  > 0x0059ccbc      2448           movea.l a0, a2
     0x0059ccbe      43e90122       lea.l 0x122(a1), a1
     0x0059ccc2      3002           move.w d2, d0
  > 0x0059ccc4      14d9           move.b (a1)+, (a2)+
  < 0x0059ccc6      51c8fffc       dbra d0, 0x59ccc4
  < 0x0059ccca      601c           bra.b 0x59cce8
  > 0x0059cccc      206e000c       movea.l 0xc(a6), a0
      0x0059ccd0      226b0024       movea.l 0x24(a3), a1
      0x0059ccd4      b3e9fffc       cmpa.l -0x4(a1), a1
  < 0x0059ccd8      6702           beq.b 0x59ccdc
     0x0059ccda      4e4d           trap 0xd
  > 0x0059ccdc      43e90100       lea.l 0x100(a1), a1
      0x0059cce0      3002           move.w d2, d0
  > 0x0059cce2      10d9           move.b (a1)+, (a0)+
  < 0x0059cce4      51c8fffc       dbra d0, 0x59cce2
      ; CODE XREFS from K03_DISKLIST @ +0x38d0, +0x391e
  > 0x0059cce8      4cdf1f1f       movem.l (a7)+, d0-d4/a0-a4
       0x0059ccec      4e5e           unlk a6
       0x0059ccee      4e75           rts
       ; CALL XREF from K03_DISKLIST.local_get_mail @ 0x59db44
 130: K03_DISKLIST.get_mail ();
      0x0059ccf0      4e56ffbc       link.w a6, 0xffbc
      0x0059ccf4      bfd5           cmpa.l (a5), a7
  < 0x0059ccf6      6206           bhi.b 0x59ccfe
     0x0059ccf8      44fc0002       move.w 0x2, ccr
     0x0059ccfc      4e76           trapv
  > 0x0059ccfe      defc001e       adda.w 0x1e, a7
      0x0059cd02      48e7c380       movem.l d0-d1/d6-d7/a0, -(a7)
      0x0059cd06      41ee000a       lea.l 0xa(a6), a0
      0x0059cd0a      554f           subq.w 0x2, a7
      0x0059cd0c      48780021       pea.l 0x21
      0x0059cd10      4eb900474af8   jsr CONFIG.cfg_option
      0x0059cd16      584f           addq.w 0x4, a7
      0x0059cd18      4a1f           tst.b (a7)+
  < 0x0059cd1a      674c           beq.b 0x59cd68
     0x0059cd1c      486effda       pea.l -0x26(a6)
     0x0059cd20      4eb9004ef8ce   jsr MAILSENDCOM.mail_get_dests
     0x0059cd26      584f           addq.w 0x4, a7
     0x0059cd28      7c00           moveq 0x0, d6
     0x0059cd2a      7e01           moveq 0x1, d7
 > 0x0059cd2c      4a06           tst.b d6
 < 0x0059cd2e      662c           bne.b 0x59cd5c
    0x0059cd30      2007           move.l d7, d0
    0x0059cd32      5380           subq.l 0x1, d0
    0x0059cd34      0c800000000f   cmpi.l 0xf, d0
 < 0x0059cd3a      6302           bls.b 0x59cd3e
    0x0059cd3c      4e4f           trap 0xf
 > 0x0059cd3e      e380           asl.l 0x1, d0
    0x0059cd40      4a7608da       tst.w -0x26(a6, d0.l)
 < 0x0059cd44      6604           bne.b 0x59cd4a
    0x0059cd46      7c02           moveq 0x2, d6
 < 0x0059cd48      6010           bra.b 0x59cd5a
 > 0x0059cd4a      323608da       move.w -0x26(a6, d0.l), d1
    0x0059cd4e      b26e0008       cmp.w 0x8(a6), d1
 < 0x0059cd52      6604           bne.b 0x59cd58
    0x0059cd54      7c01           moveq 0x1, d6
 < 0x0059cd56      6002           bra.b 0x59cd5a
 > 0x0059cd58      5287           addq.l 0x1, d7
 < 0x0059cd5a      60d0           bra.b 0x59cd2c
 > 0x0059cd5c      4210           clr.b (a0)
     0x0059cd5e      0c060001       cmpi.b 0x1, d6
 < 0x0059cd62      6602           bne.b 0x59cd66
    0x0059cd64      5210           addq.b 0x1, (a0)
 > 0x0059cd66      6002           bra.b 0x59cd6a
  > 0x0059cd68      4210           clr.b (a0)
 > 0x0059cd6a      4cdf01c3       movem.l (a7)+, d0-d1/d6-d7/a0
      0x0059cd6e      4e5e           unlk a6
      0x0059cd70      4e75           rts
 120: K03_DISKLIST.set_mail ();
      ; var int32_t var_8h @ a7+0x8
      0x0059cd72      4e56feee       link.w a6, 0xfeee
      0x0059cd76      bfd5           cmpa.l (a5), a7
  < 0x0059cd78      6206           bhi.b 0x59cd80
     0x0059cd7a      44fc0002       move.w 0x2, ccr
     0x0059cd7e      4e76           trapv
  > 0x0059cd80      defc0110       adda.w 0x110, a7
      0x0059cd84      554f           subq.w 0x2, a7
      0x0059cd86      4227           clr.b -(a7)
      0x0059cd88      4a2e0008       tst.b 0x8(a6)
  < 0x0059cd8c      6602           bne.b 0x59cd90
     0x0059cd8e      5217           addq.b 0x1, (a7)
  > 0x0059cd90      3f2e000a       move.w 0xa(a6), -(a7)
      0x0059cd94      486efffe       pea.l -0x2(a6)
      0x0059cd98      4eb9004ef9b2   jsr MAILSENDCOM.mail_alter_dest
      0x0059cd9e      504f           addq.w 0x8, a7
      0x0059cda0      4a1f           tst.b (a7)+
  < 0x0059cda2      6642           bne.b 0x59cde6
     0x0059cda4      9efc0100       suba.w 0x100, a7
     0x0059cda8      4eb900408ec0   jsr p_err_string
     0x0059cdae      487acc0f       pea.l 0x5999bf(pc)
     0x0059cdb2      48780014       pea.l 0x14
     0x0059cdb6      2f17           move.l (a7), -(a7)
     0x0059cdb8      4eb9004047ea   jsr p_wts_o
     0x0059cdbe      defc000c       adda.w 0xc, a7
     0x0059cdc2      486f0001       pea.l 0x1(a7)
     0x0059cdc6      42a7           clr.l -(a7)
     0x0059cdc8      1f6f00080003   move.b 0x8(a7), 0x3(a7)
     0x0059cdce      2f17           move.l (a7), -(a7)
     0x0059cdd0      4eb9004047ea   jsr p_wts_o
     0x0059cdd6      defc010c       adda.w 0x10c, a7
     0x0059cdda      4eb900404946   jsr p_wtln_o
     0x0059cde0      4eb900404188   jsr p_Unlink
  > 0x0059cde6      4e5e           unlk a6
      0x0059cde8      4e75           rts
       ; CALL XREFS from K03_DISKLIST.set_select @ 0x59e692, 0x59e6c2, 0x59e78a
 54: K03_DISKLIST.set_switch ();
      0x0059cdea      4e56ffe4       link.w a6, 0xffe4
      0x0059cdee      bfd5           cmpa.l (a5), a7
  < 0x0059cdf0      6206           bhi.b 0x59cdf8
     0x0059cdf2      44fc0002       move.w 0x2, ccr
     0x0059cdf6      4e76           trapv
  > 0x0059cdf8      defc001c       adda.w 0x1c, a7
      0x0059cdfc      48e780e0       movem.l d0/a0-a2, -(a7)
      0x0059ce00      43ee000c       lea.l 0xc(a6), a1
      0x0059ce04      45ee000a       lea.l 0xa(a6), a2
      0x0059ce08      102e0008       move.b 0x8(a6), d0
      0x0059ce0c      4880           ext.w d0
      0x0059ce0e      0c400002       cmpi.w 0x2, d0
  < 0x0059ce12      6302           bls.b 0x59ce16
     0x0059ce14      4e4e           trap 0xe
  > 0x0059ce16      d040           add.w d0, d0
      0x0059ce18      303b0006       move.w 0x59ce20(pc, d0.w), d0
      0x0059ce1c      4efb0002       jmp 0x59ce20(pc, d0.w)
       0x0059ce20      00060024       ori.b 0x24, d6
       0x0059ce24      003a2051       
       0x0059ce25      3a20           move.w -(a0), d5
       0x0059ce27      51b1e8ff       subq.l 0x8, -0x1(a1, a6.l)
       0x0059ce2b      fc67024e       fsne.b -(a7)
       0x0059ce2f      4d2f2800       chk.l 0x2800(a7), d6
       0x0059ce33      0e1f121f       
       0x0059ce34      1f12           move.b (a2), -(a7)
       0x0059ce36      1f3c0001       move.b 0x1, -(a7)
   > 0x0059ce3a      4eb9005a10d2   jsr K04_FILEROPS.k_set_property
      0x0059ce40      504f           addq.w 0x8, a7
  < 0x0059ce42      6036           bra.b 0x59ce7a
     0x0059ce44      2051           movea.l (a1), a0
     0x0059ce46      b1e8fffc       cmpa.l -0x4(a0), a0
  < 0x0059ce4a      6702           beq.b 0x59ce4e
     0x0059ce4c      4e4d           trap 0xd
  > 0x0059ce4e      2f28000e       move.l 0xe(a0), -(a7)
     0x0059ce52      1f12           move.b (a2), -(a7)
     0x0059ce54      1f3c0025       move.b 0x25, -(a7)
  < 0x0059ce58      60e0           bra.b 0x59ce3a
      0x0059ce5a      554f           subq.w 0x2, a7
      0x0059ce5c      2051           movea.l (a1), a0
      0x0059ce5e      b1e8fffc       cmpa.l -0x4(a0), a0
  < 0x0059ce62      6702           beq.b 0x59ce66
     0x0059ce64      4e4d           trap 0xd
  > 0x0059ce66      2f280222       move.l 0x222(a0), -(a7)
      0x0059ce6a      4eb90066e8fe   jsr N10_UTILS.n_stn_id
      0x0059ce70      544f           addq.w 0x2, a7
      0x0059ce72      1e92           move.b (a2), (a7)
      0x0059ce74      4ebafefc       jsr K03_DISKLIST.set_mail(pc)
      0x0059ce78      584f           addq.w 0x4, a7
  > 0x0059ce7a      4cdf0701       movem.l (a7)+, d0/a0-a2
       0x0059ce7e      4e5e           unlk a6
       0x0059ce80      4e75           rts
       ; CALL XREF from K03_DISKLIST.volume_state @ 0x59d40c
       ; CALL XREF from K03_DISKLIST.set_select @ 0x59e766
 52: K03_DISKLIST.switch_availabl ();
      0x0059ce82      4e56ffe4       link.w a6, 0xffe4
      0x0059ce86      bfd5           cmpa.l (a5), a7
  < 0x0059ce88      6206           bhi.b 0x59ce90
     0x0059ce8a      44fc0002       move.w 0x2, ccr
     0x0059ce8e      4e76           trapv
  > 0x0059ce90      defc001c       adda.w 0x1c, a7
      0x0059ce94      48e7c0c0       movem.l d0-d1/a0-a1, -(a7)
      0x0059ce98      43ee000a       lea.l 0xa(a6), a1
      0x0059ce9c      7201           moveq 0x1, d1
      0x0059ce9e      102e0008       move.b 0x8(a6), d0
      0x0059cea2      4880           ext.w d0
      0x0059cea4      0c400002       cmpi.w 0x2, d0
  < 0x0059cea8      6302           bls.b 0x59ceac
     0x0059ceaa      4e4e           trap 0xe
  > 0x0059ceac      d040           add.w d0, d0
      0x0059ceae      303b0006       move.w 0x59ceb6(pc, d0.w), d0
      0x0059ceb2      4efb0002       jmp 0x59ceb6(pc, d0.w)
       0x0059ceb6      0006002c       ori.b 0x2c, d6
       0x0059ceba      0042554f       ori.w 0x554f, d2
       0x0059cebe      2051           movea.l (a1), a0
       0x0059cec0      b1e8fffc       cmpa.l -0x4(a0), a0
   < 0x0059cec4      6702           beq.b 0x59cec8
      0x0059cec6      4e4d           trap 0xd
   > 0x0059cec8      2f28000e       move.l 0xe(a0), -(a7)
       0x0059cecc      1f01           move.b d1, -(a7)
   > 0x0059cece      4eb9005a1286   jsr K04_FILEROPS.k_property_avai
      0x0059ced4      5c4f           addq.w 0x6, a7
  > 0x0059ced6      101f           move.b (a7)+, d0
     0x0059ced8      4880           ext.w d0
     0x0059ceda      4181           chk.w d1, d0
     0x0059cedc      1d40000e       move.b d0, 0xe(a6)
  < 0x0059cee0      6036           bra.b 0x59cf18
     0x0059cee2      554f           subq.w 0x2, a7
     0x0059cee4      2051           movea.l (a1), a0
     0x0059cee6      b1e8fffc       cmpa.l -0x4(a0), a0
  < 0x0059ceea      6702           beq.b 0x59ceee
     0x0059ceec      4e4d           trap 0xd
  > 0x0059ceee      2f28000e       move.l 0xe(a0), -(a7)
     0x0059cef2      1f3c0025       move.b 0x25, -(a7)
  < 0x0059cef6      60d6           bra.b 0x59cece
      0x0059cef8      594f           subq.w 0x4, a7
      0x0059cefa      2051           movea.l (a1), a0
      0x0059cefc      b1e8fffc       cmpa.l -0x4(a0), a0
  < 0x0059cf00      6702           beq.b 0x59cf04
     0x0059cf02      4e4d           trap 0xd
  > 0x0059cf04      2f280222       move.l 0x222(a0), -(a7)
      0x0059cf08      4eb90066e8fe   jsr N10_UTILS.n_stn_id
      0x0059cf0e      584f           addq.w 0x4, a7
      0x0059cf10      4ebafdde       jsr K03_DISKLIST.get_mail(pc)
      0x0059cf14      544f           addq.w 0x2, a7
  < 0x0059cf16      60be           bra.b 0x59ced6
  > 0x0059cf18      4cdf0303       movem.l (a7)+, d0-d1/a0-a1
       0x0059cf1c      4e5e           unlk a6
       0x0059cf1e      4e75           rts
       ; CALL XREF from K03_DISKLIST.accumulate @ 0x59d076
 54: K03_DISKLIST.add_state ();
      0x0059cf20      4e56ffe6       link.w a6, 0xffe6
      0x0059cf24      bfd5           cmpa.l (a5), a7
  < 0x0059cf26      6206           bhi.b 0x59cf2e
     0x0059cf28      44fc0002       move.w 0x2, ccr
     0x0059cf2c      4e76           trapv
  > 0x0059cf2e      defc001a       adda.w 0x1a, a7
      0x0059cf32      48e7f080       movem.l d0-d3/a0, -(a7)
      0x0059cf36      41ee0008       lea.l 0x8(a6), a0
      0x0059cf3a      7407           moveq 0x7, d2
      0x0059cf3c      7604           moveq 0x4, d3
      0x0059cf3e      102e000a       move.b 0xa(a6), d0
      0x0059cf42      4880           ext.w d0
      0x0059cf44      3200           move.w d0, d1
      0x0059cf46      b242           cmp.w d2, d1
  < 0x0059cf48      6302           bls.b 0x59cf4c
     0x0059cf4a      4e4e           trap 0xe
  > 0x0059cf4c      d241           add.w d1, d1
      0x0059cf4e      323b1006       move.w 0x59cf56(pc, d1.w), d1
      0x0059cf52      4efb1002       jmp 0x59cf56(pc, d1.w)
       0x0059cf56      0010004e       ori.b 0x4e, (a0)
       0x0059cf5a      0086004e00b2   ori.l 0x4e00b2, d6
       0x0059cf60      0014fff4       ori.b 0xf4, (a4)
       0x0059cf64      00de6000       
       0x0059cf65      de60           add.w -(a0), d7
       0x0059cf67      0000ce12       ori.b 0x12, d0
       0x0059cf6b      104881b2       
       0x0059cf6c      4881           ext.w d1
       0x0059cf6e      b242           cmp.w d2, d1
   < 0x0059cf70      6302           bls.b 0x59cf74
      0x0059cf72      4e4e           trap 0xe
   > 0x0059cf74      d241           add.w d1, d1
       0x0059cf76      323b1006       move.w 0x59cf7e(pc, d1.w), d1
       0x0059cf7a      4efb1002       jmp 0x59cf7e(pc, d1.w)
       0x0059cf7e      00100018       ori.b 0x18, (a0)
       0x0059cf82      fff4           invalid
       0x0059cf84      001c0020       ori.b 0x20, (a4)+
       0x0059cf88      0016fff4       ori.b 0xf4, (a6)
       0x0059cf8c      002210bc       ori.b 0xbc, -(a2)
       0x0059cf90      0005600c       ori.b 0xc, d5
   < 0x0059cf94      600a           bra.b 0x59cfa0
  > 0x0059cf96      1082           move.b d2, (a0)
  < 0x0059cf98      6006           bra.b 0x59cfa0
     0x0059cf9a      1082           move.b d2, (a0)
  < 0x0059cf9c      6002           bra.b 0x59cfa0
  < 0x0059cf9e      60f6           bra.b 0x59cf96
  > 0x0059cfa0      60000094       bra.w 0x59d036
      0x0059cfa4      1210           move.b (a0), d1
      0x0059cfa6      4881           ext.w d1
      0x0059cfa8      b242           cmp.w d2, d1
  < 0x0059cfaa      6302           bls.b 0x59cfae
     0x0059cfac      4e4e           trap 0xe
  > 0x0059cfae      d241           add.w d1, d1
      0x0059cfb0      323b1006       move.w 0x59cfb8(pc, d1.w), d1
      0x0059cfb4      4efb1002       jmp 0x59cfb8(pc, d1.w)
      0x0059cfb8      00100018       ori.b 0x18, (a0)
      0x0059cfbc      fff4           invalid
      0x0059cfbe      001e0020       ori.b 0x20, (a6)+
      0x0059cfc2      0014fff4       ori.b 0xf4, (a4)
      0x0059cfc6      00221080       ori.b 0x80, -(a2)
  < 0x0059cfca      600e           bra.b 0x59cfda
     0x0059cfcc      1082           move.b d2, (a0)
  < 0x0059cfce      600a           bra.b 0x59cfda
  > 0x0059cfd0      10bc0003       move.b 0x3, (a0)
  < 0x0059cfd4      6004           bra.b 0x59cfda
  < 0x0059cfd6      6002           bra.b 0x59cfda
  < 0x0059cfd8      60f6           bra.b 0x59cfd0
  > 0x0059cfda      605a           bra.b 0x59d036
      0x0059cfdc      1010           move.b (a0), d0
      0x0059cfde      4880           ext.w d0
      0x0059cfe0      b042           cmp.w d2, d0
  < 0x0059cfe2      6302           bls.b 0x59cfe6
     0x0059cfe4      4e4e           trap 0xe
  > 0x0059cfe6      d040           add.w d0, d0
      0x0059cfe8      303b0006       move.w 0x59cff0(pc, d0.w), d0
      0x0059cfec      4efb0002       jmp 0x59cff0(pc, d0.w)
      0x0059cff0      00100016       ori.b 0x16, (a0)
      0x0059cff4      fff4           invalid
      0x0059cff6      00160016       ori.b 0x16, (a6)
      0x0059cffa      0014fff4       ori.b 0xf4, (a4)
      0x0059cffe      00161083       ori.b 0x83, (a6)
  < 0x0059d002      6002           bra.b 0x59d006
     0x0059d004      1082           move.b d2, (a0)
  > 0x0059d006      602e           bra.b 0x59d036
      0x0059d008      1010           move.b (a0), d0
      0x0059d00a      4880           ext.w d0
      0x0059d00c      b042           cmp.w d2, d0
  < 0x0059d00e      6302           bls.b 0x59d012
     0x0059d010      4e4e           trap 0xe
  > 0x0059d012      d040           add.w d0, d0
      0x0059d014      303b0006       move.w 0x59d01c(pc, d0.w), d0
      0x0059d018      4efb0002       jmp 0x59d01c(pc, d0.w)
      0x0059d01c      00100016       ori.b 0x16, (a0)
      0x0059d020      fff4           invalid
      0x0059d022      00160016       ori.b 0x16, (a6)
      0x0059d026      0014fff4       ori.b 0xf4, (a4)
      0x0059d02a      00161083       ori.b 0x83, (a6)
  < 0x0059d02e      6002           bra.b 0x59d032
     0x0059d030      1082           move.b d2, (a0)
  > 0x0059d032      6002           bra.b 0x59d036
      0x0059d034      1082           move.b d2, (a0)
  > 0x0059d036      1d50000c       move.b (a0), 0xc(a6)
       0x0059d03a      4cdf010f       movem.l (a7)+, d0-d3/a0
       0x0059d03e      4e5e           unlk a6
       0x0059d040      4e75           rts
       ; CALL XREFS from K03_DISKLIST.super_vol_state @ 0x59d1a2, 0x59d1ac
 76: K03_DISKLIST.accumulate ();
      0x0059d042      4e56ffe8       link.w a6, 0xffe8
      0x0059d046      bfd5           cmpa.l (a5), a7
  < 0x0059d048      6206           bhi.b 0x59d050
     0x0059d04a      44fc0002       move.w 0x2, ccr
     0x0059d04e      4e76           trapv
  > 0x0059d050      defc0018       adda.w 0x18, a7
      0x0059d054      48e7e000       movem.l d0-d2, -(a7)
      0x0059d058      7407           moveq 0x7, d2
      0x0059d05a      102e0008       move.b 0x8(a6), d0
      0x0059d05e      4880           ext.w d0
      0x0059d060      554f           subq.w 0x2, a7
      0x0059d062      12340007       move.b 0x7(a4, d0.w), d1
      0x0059d066      4881           ext.w d1
      0x0059d068      4382           chk.w d2, d1
      0x0059d06a      1f01           move.b d1, -(a7)
      0x0059d06c      12340004       move.b 0x4(a4, d0.w), d1
      0x0059d070      4881           ext.w d1
      0x0059d072      4382           chk.w d2, d1
      0x0059d074      1f01           move.b d1, -(a7)
      0x0059d076      4ebafea8       jsr K03_DISKLIST.add_state(pc)
      0x0059d07a      584f           addq.w 0x4, a7
      0x0059d07c      121f           move.b (a7)+, d1
      0x0059d07e      4881           ext.w d1
      0x0059d080      4382           chk.w d2, d1
      0x0059d082      19810004       move.b d1, 0x4(a4, d0.w)
      0x0059d086      4cdf0007       movem.l (a7)+, d0-d2
      0x0059d08a      4e5e           unlk a6
      0x0059d08c      4e75           rts
       ; CALL XREFS from K03_DISKLIST.super_vol_state @ 0x59d1c6, 0x59d1d0
 94: K03_DISKLIST.get_masked_stat ();
      0x0059d08e      4e56ffe4       link.w a6, 0xffe4
      0x0059d092      bfd5           cmpa.l (a5), a7
  < 0x0059d094      6206           bhi.b 0x59d09c
     0x0059d096      44fc0002       move.w 0x2, ccr
     0x0059d09a      4e76           trapv
  > 0x0059d09c      defc001c       adda.w 0x1c, a7
      0x0059d0a0      48e7c080       movem.l d0-d1/a0, -(a7)
      0x0059d0a4      206c003c       movea.l 0x3c(a4), a0
      0x0059d0a8      b1e8fffc       cmpa.l -0x4(a0), a0
  < 0x0059d0ac      6702           beq.b 0x59d0b0
     0x0059d0ae      4e4d           trap 0xd
  > 0x0059d0b0      20680024       movea.l 0x24(a0), a0
      0x0059d0b4      b1e8fffc       cmpa.l -0x4(a0), a0
  < 0x0059d0b8      6702           beq.b 0x59d0bc
     0x0059d0ba      4e4d           trap 0xd
  > 0x0059d0bc      102e0008       move.b 0x8(a6), d0
      0x0059d0c0      4880           ext.w d0
      0x0059d0c2      41f00000       lea.l (a0, d0.w), a0
      0x0059d0c6      4a280301       tst.b 0x301(a0)
  < 0x0059d0ca      6618           bne.b 0x59d0e4
     0x0059d0cc      4a280304       tst.b 0x304(a0)
 < 0x0059d0d0      6612           bne.b 0x59d0e4
    0x0059d0d2      12340004       move.b 0x4(a4, d0.w), d1
    0x0059d0d6      4881           ext.w d1
    0x0059d0d8      033ac8fa       btst.l d1, 0x5999d4(pc)
 < 0x0059d0dc      6706           beq.b 0x59d0e4
    0x0059d0de      19bc00020004   move.b 0x2, 0x4(a4, d0.w)
 > 0x0059d0e4      4cdf0103       movem.l (a7)+, d0-d1/a0
      0x0059d0e8      4e5e           unlk a6
      0x0059d0ea      4e75           rts
       ; CALL XREF from K03_DISKLIST.get_node_state @ 0x59d602
       ; CALL XREF from K03_DISKLIST.single_supervol @ 0x59dc7a
 478: K03_DISKLIST.super_vol_state ();
      ; var int32_t var_8h @ a7+0x8
      ; var int32_t var_108h @ a7+0x108
      ; var int32_t var_208h @ a7+0x208
      0x0059d0ec      4e56fc9e       link.w a6, 0xfc9e
      0x0059d0f0      bfd5           cmpa.l (a5), a7
  < 0x0059d0f2      6206           bhi.b 0x59d0fa
     0x0059d0f4      44fc0002       move.w 0x2, ccr
     0x0059d0f8      4e76           trapv
  > 0x0059d0fa      defc0340       adda.w 0x340, a7
      0x0059d0fe      48e7e7f8       movem.l d0-d2/d5-d7/a0-a4, -(a7)
      0x0059d102      45f9004047ea   lea.l p_wts_o, a2
      0x0059d108      700c           moveq 0xc, d0
      0x0059d10a      7201           moveq 0x1, d1
      0x0059d10c      343c0100       move.w 0x100, d2
      0x0059d110      4a2e0018       tst.b 0x18(a6)
  < 0x0059d114      6734           beq.b 0x59d14a
     0x0059d116      9ec2           suba.w d2, a7
     0x0059d118      2f2e001a       move.l 0x1a(a6), -(a7)
     0x0059d11c      4ebad752       jsr K03_DISKLIST.node_str(pc)
     0x0059d120      584f           addq.w 0x4, a7
     0x0059d122      487ac8b2       pea.l 0x5999d6(pc)
     0x0059d126      48780010       pea.l 0x10
     0x0059d12a      2f17           move.l (a7), -(a7)
     0x0059d12c      4e92           jsr (a2)                    ; fcn.00000009+0x2
     0x0059d12e      dec0           adda.w d0, a7
     0x0059d130      486f0001       pea.l 0x1(a7)
     0x0059d134      42a7           clr.l -(a7)
     0x0059d136      1f6f00080003   move.b 0x8(a7), 0x3(a7)
     0x0059d13c      2f17           move.l (a7), -(a7)
     0x0059d13e      4e92           jsr (a2)                    ; fcn.00000009+0x2
     0x0059d140      defc010c       adda.w 0x10c, a7
     0x0059d144      4eb900404946   jsr p_wtln_o
  > 0x0059d14a      422effe2       clr.b -0x1e(a6)
      0x0059d14e      422effe4       clr.b -0x1c(a6)
      0x0059d152      422effe3       clr.b -0x1d(a6)
      0x0059d156      7e00           moveq 0x0, d7
      0x0059d158      7c00           moveq 0x0, d6
      0x0059d15a      7a00           moveq 0x0, d5
      0x0059d15c      206e001a       movea.l 0x1a(a6), a0
      0x0059d160      b1e8fffc       cmpa.l -0x4(a0), a0
  < 0x0059d164      6702           beq.b 0x59d168
     0x0059d166      4e4d           trap 0xd
  > 0x0059d168      26680008       movea.l 0x8(a0), a3
  > 0x0059d16c      b6c1           cmpa.w d1, a3
 < 0x0059d16e      6750           beq.b 0x59d1c0
    0x0059d170      2f0b           move.l a3, -(a7)
    0x0059d172      1f2e0018       move.b 0x18(a6), -(a7)
    0x0059d176      486effe5       pea.l -0x1b(a6)
    0x0059d17a      486efff4       pea.l -0xc(a6)
    0x0059d17e      486efff8       pea.l -0x8(a6)
    0x0059d182      486efffc       pea.l -0x4(a6)
    0x0059d186      4eb90059d56a   jsr K03_DISKLIST.get_node_state
    0x0059d18c      defc0016       adda.w 0x16, a7
    0x0059d190      deaefff4       add.l -0xc(a6), d7
    0x0059d194      dcaefff8       add.l -0x8(a6), d6
    0x0059d198      daaefffc       add.l -0x4(a6), d5
    0x0059d19c      4227           clr.b -(a7)
    0x0059d19e      49eeffde       lea.l -0x22(a6), a4
    0x0059d1a2      4ebafe9e       jsr K03_DISKLIST.accumulate(pc)
    0x0059d1a6      1e81           move.b d1, (a7)
    0x0059d1a8      49eeffde       lea.l -0x22(a6), a4
    0x0059d1ac      4ebafe94       jsr K03_DISKLIST.accumulate(pc)
    0x0059d1b0      544f           addq.w 0x2, a7
    0x0059d1b2      b7ebfffc       cmpa.l -0x4(a3), a3
 < 0x0059d1b6      6702           beq.b 0x59d1ba
    0x0059d1b8      4e4d           trap 0xd
 > 0x0059d1ba      266b0004       movea.l 0x4(a3), a3
 < 0x0059d1be      60ac           bra.b 0x59d16c
 > 0x0059d1c0      4227           clr.b -(a7)
      0x0059d1c2      49eeffde       lea.l -0x22(a6), a4
      0x0059d1c6      4ebafec6       jsr K03_DISKLIST.get_masked_stat(pc)
      0x0059d1ca      1e81           move.b d1, (a7)
      0x0059d1cc      49eeffde       lea.l -0x22(a6), a4
      0x0059d1d0      4ebafebc       jsr K03_DISKLIST.get_masked_stat(pc)
      0x0059d1d4      544f           addq.w 0x2, a7
      0x0059d1d6      206e0014       movea.l 0x14(a6), a0
      0x0059d1da      10aeffe2       move.b -0x1e(a6), (a0)
      0x0059d1de      116effe30001   move.b -0x1d(a6), 0x1(a0)
      0x0059d1e4      116effe40002   move.b -0x1c(a6), 0x2(a0)
      0x0059d1ea      226e0010       movea.l 0x10(a6), a1
      0x0059d1ee      2287           move.l d7, (a1)
      0x0059d1f0      226e000c       movea.l 0xc(a6), a1
      0x0059d1f4      2286           move.l d6, (a1)
      0x0059d1f6      226e0008       movea.l 0x8(a6), a1
      0x0059d1fa      2285           move.l d5, (a1)
      0x0059d1fc      4a2e0018       tst.b 0x18(a6)
  < 0x0059d200      670000c0       beq.w 0x59d2c2
     0x0059d204      9ec2           suba.w d2, a7
     0x0059d206      2f2e001a       move.l 0x1a(a6), -(a7)
     0x0059d20a      4ebad664       jsr K03_DISKLIST.node_str(pc)
     0x0059d20e      584f           addq.w 0x4, a7
     0x0059d210      487ac7d5       pea.l 0x5999e7(pc)
     0x0059d214      48780018       pea.l 0x18
     0x0059d218      2f17           move.l (a7), -(a7)
     0x0059d21a      4e92           jsr (a2)                    ; fcn.00000009+0x2
     0x0059d21c      dec0           adda.w d0, a7
     0x0059d21e      486f0001       pea.l 0x1(a7)
     0x0059d222      42a7           clr.l -(a7)
     0x0059d224      1f6f00080003   move.b 0x8(a7), 0x3(a7)
     0x0059d22a      2f17           move.l (a7), -(a7)
     0x0059d22c      4e92           jsr (a2)                    ; fcn.00000009+0x2
     0x0059d22e      defc010c       adda.w 0x10c, a7
     0x0059d232      4eb900404946   jsr p_wtln_o
     0x0059d238      9ec2           suba.w d2, a7
     0x0059d23a      1f10           move.b (a0), -(a7)
     0x0059d23c      4ebad28e       jsr K03_DISKLIST.node_state_str(pc)
     0x0059d240      9efc00fe       suba.w 0xfe, a7
     0x0059d244      1f280001       move.b 0x1(a0), -(a7)
     0x0059d248      4ebad282       jsr K03_DISKLIST.node_state_str(pc)
     0x0059d24c      9efc00fe       suba.w 0xfe, a7
     0x0059d250      1f280002       move.b 0x2(a0), -(a7)
     0x0059d254      4ebad276       jsr K03_DISKLIST.node_state_str(pc)
     0x0059d258      544f           addq.w 0x2, a7
     0x0059d25a      487ac7a4       pea.l 0x599a00(pc)
      0x0059d25e      48780002       pea.l 0x2
      0x0059d262      2f17           move.l (a7), -(a7)
      0x0059d264      4e92           jsr (a2)                    ; fcn.00000009+0x2
      0x0059d266      dec0           adda.w d0, a7
      0x0059d268      486f0201       pea.l 0x201(a7)
      0x0059d26c      42a7           clr.l -(a7)
      0x0059d26e      1f6f02080003   move.b 0x208(a7), 0x3(a7)
      0x0059d274      2f17           move.l (a7), -(a7)
      0x0059d276      4e92           jsr (a2)                    ; fcn.00000009+0x2
      0x0059d278      dec0           adda.w d0, a7
      0x0059d27a      487ac787       pea.l 0x599a03(pc)
      0x0059d27e      48780004       pea.l 0x4
      0x0059d282      2f17           move.l (a7), -(a7)
      0x0059d284      4e92           jsr (a2)                    ; fcn.00000009+0x2
      0x0059d286      dec0           adda.w d0, a7
      0x0059d288      486f0101       pea.l 0x101(a7)
      0x0059d28c      42a7           clr.l -(a7)
      0x0059d28e      1f6f01080003   move.b 0x108(a7), 0x3(a7)
      0x0059d294      2f17           move.l (a7), -(a7)
      0x0059d296      4e92           jsr (a2)                    ; fcn.00000009+0x2
      0x0059d298      dec0           adda.w d0, a7
      0x0059d29a      487ac76c       pea.l 0x599a08(pc)
      0x0059d29e      48780004       pea.l 0x4
      0x0059d2a2      2f17           move.l (a7), -(a7)
      0x0059d2a4      4e92           jsr (a2)                    ; fcn.00000009+0x2
      0x0059d2a6      dec0           adda.w d0, a7
      0x0059d2a8      486f0001       pea.l 0x1(a7)
      0x0059d2ac      42a7           clr.l -(a7)
      0x0059d2ae      1f6f00080003   move.b 0x8(a7), 0x3(a7)
      0x0059d2b4      2f17           move.l (a7), -(a7)
      0x0059d2b6      4e92           jsr (a2)                    ; fcn.00000009+0x2
      0x0059d2b8      defc030c       adda.w 0x30c, a7
      0x0059d2bc      4eb900404946   jsr p_wtln_o
   > 0x0059d2c2      4cdf1fe7       movem.l (a7)+, d0-d2/d5-d7/a0-a4
       0x0059d2c6      4e5e           unlk a6
       0x0059d2c8      4e75           rts
        ; CALL XREFS from K03_DISKLIST.volume_state @ 0x59d45a, 0x59d476, 0x59d492
 108: K03_DISKLIST.do_state ();
       0x0059d2ca      4e56ffee       link.w a6, 0xffee
       0x0059d2ce      bfd5           cmpa.l (a5), a7
   < 0x0059d2d0      6206           bhi.b 0x59d2d8
      0x0059d2d2      44fc0002       move.w 0x2, ccr
      0x0059d2d6      4e76           trapv
   > 0x0059d2d8      defc0012       adda.w 0x12, a7
       0x0059d2dc      48e780c0       movem.l d0/a0-a1, -(a7)
       0x0059d2e0      43ec001a       lea.l 0x1a(a4), a1
       0x0059d2e4      102e0008       move.b 0x8(a6), d0
       0x0059d2e8      4880           ext.w d0
       0x0059d2ea      4a340000       tst.b (a4, d0.w)
   < 0x0059d2ee      670a           beq.b 0x59d2fa
      0x0059d2f0      2051           movea.l (a1), a0
      0x0059d2f2      11bc00050000   move.b 0x5, (a0, d0.w)
  < 0x0059d2f8      6034           bra.b 0x59d32e
  > 0x0059d2fa      206c0024       movea.l 0x24(a4), a0
      0x0059d2fe      b1e8fffc       cmpa.l -0x4(a0), a0
  < 0x0059d302      6702           beq.b 0x59d306
     0x0059d304      4e4d           trap 0xd
  > 0x0059d306      20680024       movea.l 0x24(a0), a0
      0x0059d30a      b1e8fffc       cmpa.l -0x4(a0), a0
  < 0x0059d30e      6702           beq.b 0x59d312
     0x0059d310      4e4d           trap 0xd
  > 0x0059d312      41f00000       lea.l (a0, d0.w), a0
      0x0059d316      4a28022e       tst.b 0x22e(a0)
  < 0x0059d31a      670a           beq.b 0x59d326
     0x0059d31c      2051           movea.l (a1), a0
     0x0059d31e      11bc00030000   move.b 0x3, (a0, d0.w)
 < 0x0059d324      6008           bra.b 0x59d32e
 > 0x0059d326      2051           movea.l (a1), a0
     0x0059d328      11bc00020000   move.b 0x2, (a0, d0.w)
 > 0x0059d32e      4cdf0301       movem.l (a7)+, d0/a0-a1
       0x0059d332      4e5e           unlk a6
       0x0059d334      4e75           rts
        ; CALL XREF from K03_DISKLIST.get_node_state @ 0x59d62c
        ; CALL XREF from K03_DISKLIST.get_volume_stat @ 0x59d8c0
 564: K03_DISKLIST.volume_state (int32_t arg_1h);
       ; var int32_t var_398ch @ a6-0x398c
       ; var int32_t var_3987h @ a6-0x3987
       ; arg int32_t arg_1h @ a6+0x1
       ; var int32_t var_8h @ a7+0x8
       ; var int32_t var_108h @ a7+0x108
       ; var int32_t var_208h @ a7+0x208
       0x0059d336      4e56fcba       link.w a6, 0xfcba
       0x0059d33a      bfd5           cmpa.l (a5), a7
   < 0x0059d33c      6206           bhi.b 0x59d344
      0x0059d33e      44fc0002       move.w 0x2, ccr
      0x0059d342      4e76           trapv
   > 0x0059d344      defc0340       adda.w 0x340, a7
       0x0059d348      48e7fcf8       movem.l d0-d5/a0-a4, -(a7)
       0x0059d34c      47f9004047ea   lea.l p_wts_o, a3
       0x0059d352      720c           moveq 0xc, d1
       0x0059d354      7401           moveq 0x1, d2
       0x0059d356      363c0100       move.w 0x100, d3
       0x0059d35a      7802           moveq 0x2, d4
       0x0059d35c      7a03           moveq 0x3, d5
       0x0059d35e      4a2e001c       tst.b 0x1c(a6)
   < 0x0059d362      6734           beq.b 0x59d398
      0x0059d364      9ec3           suba.w d3, a7
      0x0059d366      2f2e001e       move.l 0x1e(a6), -(a7)
      0x0059d36a      4ebad504       jsr K03_DISKLIST.node_str(pc)
      0x0059d36e      584f           addq.w 0x4, a7
      0x0059d370      487ac69b       pea.l 0x599a0d(pc)
      0x0059d374      4878000d       pea.l 0xd
      0x0059d378      2f17           move.l (a7), -(a7)
      0x0059d37a      4e93           jsr (a3)                    ; fcn.0000000c
      0x0059d37c      dec1           adda.w d1, a7
      0x0059d37e      486f0001       pea.l 0x1(a7)
      0x0059d382      42a7           clr.l -(a7)
      0x0059d384      1f6f00080003   move.b 0x8(a7), 0x3(a7)
      0x0059d38a      2f17           move.l (a7), -(a7)
      0x0059d38c      4e93           jsr (a3)                    ; fcn.0000000c
      0x0059d38e      defc010c       adda.w 0x10c, a7
      0x0059d392      4eb900404946   jsr p_wtln_o
   > 0x0059d398      206e001e       movea.l 0x1e(a6), a0
       0x0059d39c      b0c2           cmpa.w d2, a0
   < 0x0059d39e      660e           bne.b 0x59d3ae
      0x0059d3a0      1d7ac679fffd   move.b 0x599a1b(pc), -0x3(a6)
      0x0059d3a6      1d7ac674fffe   move.b 0x599a1c(pc), -0x2(a6)
  < 0x0059d3ac      606c           bra.b 0x59d41a
  > 0x0059d3ae      b1e8fffc       cmpa.l -0x4(a0), a0
  < 0x0059d3b2      6702           beq.b 0x59d3b6
     0x0059d3b4      4e4d           trap 0xd
  > 0x0059d3b6      226e0018       movea.l 0x18(a6), a1
      0x0059d3ba      554f           subq.w 0x2, a7
      0x0059d3bc      24680024       movea.l 0x24(a0), a2
      0x0059d3c0      b5eafffc       cmpa.l -0x4(a2), a2
  < 0x0059d3c4      6702           beq.b 0x59d3c8
     0x0059d3c6      4e4d           trap 0xd
  > 0x0059d3c8      2f2a000e       move.l 0xe(a2), -(a7)
      0x0059d3cc      4851           pea.l (a1)
      0x0059d3ce      486efffb       pea.l -0x5(a6)
      0x0059d3d2      486efffa       pea.l -0x6(a6)
      0x0059d3d6      246e000c       movea.l 0xc(a6), a2
      0x0059d3da      4852           pea.l (a2)
      0x0059d3dc      246e0008       movea.l 0x8(a6), a2
      0x0059d3e0      4852           pea.l (a2)
      0x0059d3e2      4eb9005a13ba   jsr K04_FILEROPS.k_menu_status
      0x0059d3e8      defc0018       adda.w 0x18, a7
      0x0059d3ec      1d57fffd       move.b (a7), -0x3(a6)
      0x0059d3f0      1d6f0001fffe   move.b 0x1(a7), -0x2(a6)
      0x0059d3f6      544f           addq.w 0x2, a7
      0x0059d3f8      422efffc       clr.b -0x4(a6)
      0x0059d3fc      1011           move.b (a1), d0
      0x0059d3fe      0c000004       cmpi.b 0x4, d0
  < 0x0059d402      6616           bne.b 0x59d41a
     0x0059d404      554f           subq.w 0x2, a7
     0x0059d406      2f280024       move.l 0x24(a0), -(a7)
     0x0059d40a      1f04           move.b d4, -(a7)
     0x0059d40c      4ebafa74       jsr K03_DISKLIST.switch_availabl(pc)
     0x0059d410      5c4f           addq.w 0x6, a7
     0x0059d412      4a1f           tst.b (a7)+
 < 0x0059d414      6704           beq.b 0x59d41a
    0x0059d416      522efffc       addq.b 0x1, -0x4(a6)
 > 0x0059d41a      206e0010       movea.l 0x10(a6), a0
        0x0059d41e      4210           clr.b (a0)
        0x0059d420      102efffd       move.b -0x3(a6), d0
        0x0059d424      b03ac5f8       cmp.b 0x599a1e(pc), d0
     < 0x0059d428      6608           bne.b 0x59d432
        0x0059d42a      102efffe       move.b -0x2(a6), d0
        0x0059d42e      b03ac5ef       cmp.b 0x599a1f(pc), d0
     > 0x0059d432      6708           beq.b 0x59d43c
         0x0059d434      226e0018       movea.l 0x18(a6), a1
         0x0059d438      4211           clr.b (a1)
         0x0059d43a      1082           move.b d2, (a0)
     > 0x0059d43c      206e0018       movea.l 0x18(a6), a0
          0x0059d440      4a10           tst.b (a0)
      < 0x0059d442      6610           bne.b 0x59d454
         0x0059d444      226e0014       movea.l 0x14(a6), a1
         0x0059d448      4211           clr.b (a1)
         0x0059d44a      42290002       clr.b 0x2(a1)
         0x0059d44e      42290001       clr.b 0x1(a1)
     < 0x0059d452      6044           bra.b 0x59d498
     > 0x0059d454      4227           clr.b -(a7)
         0x0059d456      49eefffa       lea.l -0x6(a6), a4
         0x0059d45a      4ebafe6e       jsr K03_DISKLIST.do_state(pc)
         0x0059d45e      544f           addq.w 0x2, a7
         0x0059d460      1010           move.b (a0), d0
         0x0059d462      b005           cmp.b d5, d0
     < 0x0059d464      660a           bne.b 0x59d470
        0x0059d466      226e0014       movea.l 0x14(a6), a1
        0x0059d46a      42290001       clr.b 0x1(a1)
    < 0x0059d46e      600c           bra.b 0x59d47c
    > 0x0059d470      1f02           move.b d2, -(a7)
        0x0059d472      49eefffa       lea.l -0x6(a6), a4
        0x0059d476      4ebafe52       jsr K03_DISKLIST.do_state(pc)
        0x0059d47a      544f           addq.w 0x2, a7
    > 0x0059d47c      1010           move.b (a0), d0
         0x0059d47e      b005           cmp.b d5, d0
     < 0x0059d480      660a           bne.b 0x59d48c
        0x0059d482      226e0014       movea.l 0x14(a6), a1
        0x0059d486      42290002       clr.b 0x2(a1)
    < 0x0059d48a      600c           bra.b 0x59d498
    > 0x0059d48c      1f04           move.b d4, -(a7)
        0x0059d48e      49eefffa       lea.l -0x6(a6), a4
        0x0059d492      4ebafe36       jsr K03_DISKLIST.do_state(pc)
        0x0059d496      544f           addq.w 0x2, a7
    > 0x0059d498      4a2e001c       tst.b 0x1c(a6)
      < 0x0059d49c      670000c4       beq.w 0x59d562
         0x0059d4a0      9ec3           suba.w d3, a7
         0x0059d4a2      2f2e001e       move.l 0x1e(a6), -(a7)
         0x0059d4a6      4ebad3c8       jsr K03_DISKLIST.node_str(pc)
         0x0059d4aa      584f           addq.w 0x4, a7
         0x0059d4ac      487ac573       pea.l 0x599a21(pc)
         0x0059d4b0      48780019       pea.l 0x19
         0x0059d4b4      2f17           move.l (a7), -(a7)
         0x0059d4b6      4e93           jsr (a3)                    ; fcn.0000000c
         0x0059d4b8      dec1           adda.w d1, a7
         0x0059d4ba      486f0001       pea.l 0x1(a7)
         0x0059d4be      42a7           clr.l -(a7)
         0x0059d4c0      1f6f00080003   move.b 0x8(a7), 0x3(a7)
         0x0059d4c6      2f17           move.l (a7), -(a7)
         0x0059d4c8      4e93           jsr (a3)                    ; fcn.0000000c
         0x0059d4ca      defc010c       adda.w 0x10c, a7
         0x0059d4ce      4eb900404946   jsr p_wtln_o
         0x0059d4d4      206e0014       movea.l 0x14(a6), a0
         0x0059d4d8      9ec3           suba.w d3, a7
         0x0059d4da      1f10           move.b (a0), -(a7)
         0x0059d4dc      4ebacfee       jsr K03_DISKLIST.node_state_str(pc)
         0x0059d4e0      9efc00fe       suba.w 0xfe, a7
         0x0059d4e4      1f280001       move.b 0x1(a0), -(a7)
         0x0059d4e8      4ebacfe2       jsr K03_DISKLIST.node_state_str(pc)
         0x0059d4ec      9efc00fe       suba.w 0xfe, a7
         0x0059d4f0      1f280002       move.b 0x2(a0), -(a7)
         0x0059d4f4      4ebacfd6       jsr K03_DISKLIST.node_state_str(pc)
         0x0059d4f8      544f           addq.w 0x2, a7
         0x0059d4fa      487ac53f       pea.l 0x599a3b(pc)
         0x0059d4fe      48780002       pea.l 0x2
         0x0059d502      2f17           move.l (a7), -(a7)
         0x0059d504      4e93           jsr (a3)                    ; fcn.0000000c
         0x0059d506      dec1           adda.w d1, a7
         0x0059d508      486f0201       pea.l 0x201(a7)
         0x0059d50c      42a7           clr.l -(a7)
         0x0059d50e      1f6f02080003   move.b 0x208(a7), 0x3(a7)
         0x0059d514      2f17           move.l (a7), -(a7)
         0x0059d516      4e93           jsr (a3)                    ; fcn.0000000c
         0x0059d518      dec1           adda.w d1, a7
         0x0059d51a      487ac522       pea.l 0x599a3e(pc)
         0x0059d51e      48780004       pea.l 0x4
         0x0059d522      2f17           move.l (a7), -(a7)
         0x0059d524      4e93           jsr (a3)                    ; fcn.0000000c
         0x0059d526      dec1           adda.w d1, a7
         0x0059d528      486f0101       pea.l 0x101(a7)
         0x0059d52c      42a7           clr.l -(a7)
         0x0059d52e      1f6f01080003   move.b 0x108(a7), 0x3(a7)
         0x0059d534      2f17           move.l (a7), -(a7)
         0x0059d536      4e93           jsr (a3)                    ; fcn.0000000c
         0x0059d538      dec1           adda.w d1, a7
         0x0059d53a      487ac507       pea.l 0x599a43(pc)
         0x0059d53e      48780004       pea.l 0x4
         0x0059d542      2f17           move.l (a7), -(a7)
         0x0059d544      4e93           jsr (a3)                    ; fcn.0000000c
         0x0059d546      dec1           adda.w d1, a7
         0x0059d548      486f0001       pea.l 0x1(a7)
         0x0059d54c      42a7           clr.l -(a7)
         0x0059d54e      1f6f00080003   move.b 0x8(a7), 0x3(a7)
         0x0059d554      2f17           move.l (a7), -(a7)
         0x0059d556      4e93           jsr (a3)                    ; fcn.0000000c
         0x0059d558      defc030c       adda.w 0x30c, a7
         0x0059d55c      4eb900404946   jsr p_wtln_o
      > 0x0059d562      4cdf1f3f       movem.l (a7)+, d0-d5/a0-a4
          0x0059d566      4e5e           unlk a6
          0x0059d568      4e75           rts
           ; CALL XREF from K03_DISKLIST.super_vol_state @ 0x59d186
           ; CALL XREF from K03_DISKLIST.set_volume_sele @ 0x59e7d2
           ; CALL XREF from K03_DISKLIST.set_supervol_se @ 0x59e9c0
 428: K03_DISKLIST.get_node_state ();
          ; var int32_t var_8h @ a7+0x8
          ; var int32_t var_108h @ a7+0x108
          ; var int32_t var_208h @ a7+0x208
          0x0059d56a      4e56fcca       link.w a6, 0xfcca
          0x0059d56e      bfd5           cmpa.l (a5), a7
      < 0x0059d570      6206           bhi.b 0x59d578
         0x0059d572      44fc0002       move.w 0x2, ccr
         0x0059d576      4e76           trapv
      > 0x0059d578      defc0334       adda.w 0x334, a7
          0x0059d57c      48e7e0f8       movem.l d0-d2/a0-a4, -(a7)
          0x0059d580      47f9004047ea   lea.l p_wts_o, a3
          0x0059d586      49ee001a       lea.l 0x1a(a6), a4
          0x0059d58a      720c           moveq 0xc, d1
          0x0059d58c      343c0100       move.w 0x100, d2
          0x0059d590      4a2e0018       tst.b 0x18(a6)
      < 0x0059d594      6732           beq.b 0x59d5c8
         0x0059d596      9ec2           suba.w d2, a7
         0x0059d598      2f14           move.l (a4), -(a7)
         0x0059d59a      4ebad2d4       jsr K03_DISKLIST.node_str(pc)
         0x0059d59e      584f           addq.w 0x4, a7
         0x0059d5a0      487ac4a6       pea.l 0x599a48(pc)
         0x0059d5a4      4878000f       pea.l 0xf
         0x0059d5a8      2f17           move.l (a7), -(a7)
         0x0059d5aa      4e93           jsr (a3)                    ; fcn.0000000c
         0x0059d5ac      dec1           adda.w d1, a7
         0x0059d5ae      486f0001       pea.l 0x1(a7)
         0x0059d5b2      42a7           clr.l -(a7)
         0x0059d5b4      1f6f00080003   move.b 0x8(a7), 0x3(a7)
         0x0059d5ba      2f17           move.l (a7), -(a7)
         0x0059d5bc      4e93           jsr (a3)                    ; fcn.0000000c
         0x0059d5be      defc010c       adda.w 0x10c, a7
         0x0059d5c2      4eb900404946   jsr p_wtln_o
      > 0x0059d5c8      2054           movea.l (a4), a0
          0x0059d5ca      b1e8fffc       cmpa.l -0x4(a0), a0
      < 0x0059d5ce      6702           beq.b 0x59d5d2
         0x0059d5d0      4e4d           trap 0xd
      > 0x0059d5d2      4a280022       tst.b 0x22(a0)
      < 0x0059d5d6      670c           beq.b 0x59d5e4
         0x0059d5d8      10280022       move.b 0x22(a0), d0
         0x0059d5dc      0c000001       cmpi.b 0x1, d0
     < 0x0059d5e0      672a           beq.b 0x59d60c
        0x0059d5e2      4e4e           trap 0xe
     > 0x0059d5e4      2f14           move.l (a4), -(a7)
         0x0059d5e6      1f2e0018       move.b 0x18(a6), -(a7)
         0x0059d5ea      206e0014       movea.l 0x14(a6), a0
         0x0059d5ee      4850           pea.l (a0)
         0x0059d5f0      206e0010       movea.l 0x10(a6), a0
         0x0059d5f4      4850           pea.l (a0)
         0x0059d5f6      206e000c       movea.l 0xc(a6), a0
         0x0059d5fa      4850           pea.l (a0)
         0x0059d5fc      206e0008       movea.l 0x8(a6), a0
         0x0059d600      4850           pea.l (a0)
         0x0059d602      4ebafae8       jsr K03_DISKLIST.super_vol_state(pc)
         0x0059d606      defc0016       adda.w 0x16, a7
     < 0x0059d60a      603a           bra.b 0x59d646
     > 0x0059d60c      206e0010       movea.l 0x10(a6), a0
         0x0059d610      226e000c       movea.l 0xc(a6), a1
         0x0059d614      2f14           move.l (a4), -(a7)
         0x0059d616      1f2e0018       move.b 0x18(a6), -(a7)
         0x0059d61a      486efffe       pea.l -0x2(a6)
         0x0059d61e      246e0014       movea.l 0x14(a6), a2
         0x0059d622      4852           pea.l (a2)
         0x0059d624      486effff       pea.l -0x1(a6)
         0x0059d628      4850           pea.l (a0)
         0x0059d62a      4851           pea.l (a1)
         0x0059d62c      4ebafd08       jsr K03_DISKLIST.volume_state(pc)
         0x0059d630      defc001a       adda.w 0x1a, a7
         0x0059d634      4a91           tst.l (a1)
     < 0x0059d636      6608           bne.b 0x59d640
        0x0059d638      246e0008       movea.l 0x8(a6), a2
        0x0059d63c      2490           move.l (a0), (a2)
    < 0x0059d63e      6006           bra.b 0x59d646
    > 0x0059d640      206e0008       movea.l 0x8(a6), a0
        0x0059d644      2091           move.l (a1), (a0)
    > 0x0059d646      4a2e0018       tst.b 0x18(a6)
      < 0x0059d64a      670000c2       beq.w 0x59d70e
         0x0059d64e      9ec2           suba.w d2, a7
         0x0059d650      2f14           move.l (a4), -(a7)
         0x0059d652      4ebad21c       jsr K03_DISKLIST.node_str(pc)
         0x0059d656      584f           addq.w 0x4, a7
         0x0059d658      487ac3fe       pea.l 0x599a58(pc)
         0x0059d65c      48780017       pea.l 0x17
         0x0059d660      2f17           move.l (a7), -(a7)
         0x0059d662      4e93           jsr (a3)                    ; fcn.0000000c
         0x0059d664      dec1           adda.w d1, a7
         0x0059d666      486f0001       pea.l 0x1(a7)
         0x0059d66a      42a7           clr.l -(a7)
         0x0059d66c      1f6f00080003   move.b 0x8(a7), 0x3(a7)
         0x0059d672      2f17           move.l (a7), -(a7)
         0x0059d674      4e93           jsr (a3)                    ; fcn.0000000c
         0x0059d676      defc010c       adda.w 0x10c, a7
         0x0059d67a      4eb900404946   jsr p_wtln_o
         0x0059d680      206e0014       movea.l 0x14(a6), a0
         0x0059d684      9ec2           suba.w d2, a7
         0x0059d686      1f10           move.b (a0), -(a7)
         0x0059d688      4ebace42       jsr K03_DISKLIST.node_state_str(pc)
         0x0059d68c      9efc00fe       suba.w 0xfe, a7
         0x0059d690      1f280001       move.b 0x1(a0), -(a7)
         0x0059d694      4ebace36       jsr K03_DISKLIST.node_state_str(pc)
         0x0059d698      9efc00fe       suba.w 0xfe, a7
         0x0059d69c      1f280002       move.b 0x2(a0), -(a7)
         0x0059d6a0      4ebace2a       jsr K03_DISKLIST.node_state_str(pc)
         0x0059d6a4      544f           addq.w 0x2, a7
         0x0059d6a6      487ac3c8       pea.l 0x599a70(pc)
         0x0059d6aa      48780002       pea.l 0x2
         0x0059d6ae      2f17           move.l (a7), -(a7)
         0x0059d6b0      4e93           jsr (a3)                    ; fcn.0000000c
         0x0059d6b2      dec1           adda.w d1, a7
         0x0059d6b4      486f0201       pea.l 0x201(a7)
         0x0059d6b8      42a7           clr.l -(a7)
         0x0059d6ba      1f6f02080003   move.b 0x208(a7), 0x3(a7)
         0x0059d6c0      2f17           move.l (a7), -(a7)
         0x0059d6c2      4e93           jsr (a3)                    ; fcn.0000000c
         0x0059d6c4      dec1           adda.w d1, a7
         0x0059d6c6      487ac3ab       pea.l 0x599a73(pc)
         0x0059d6ca      48780004       pea.l 0x4
         0x0059d6ce      2f17           move.l (a7), -(a7)
         0x0059d6d0      4e93           jsr (a3)                    ; fcn.0000000c
         0x0059d6d2      dec1           adda.w d1, a7
         0x0059d6d4      486f0101       pea.l 0x101(a7)
         0x0059d6d8      42a7           clr.l -(a7)
         0x0059d6da      1f6f01080003   move.b 0x108(a7), 0x3(a7)
         0x0059d6e0      2f17           move.l (a7), -(a7)
         0x0059d6e2      4e93           jsr (a3)                    ; fcn.0000000c
         0x0059d6e4      dec1           adda.w d1, a7
         0x0059d6e6      487ac390       pea.l 0x599a78(pc)
         0x0059d6ea      48780004       pea.l 0x4
         0x0059d6ee      2f17           move.l (a7), -(a7)
         0x0059d6f0      4e93           jsr (a3)                    ; fcn.0000000c
         0x0059d6f2      dec1           adda.w d1, a7
         0x0059d6f4      486f0001       pea.l 0x1(a7)
         0x0059d6f8      42a7           clr.l -(a7)
         0x0059d6fa      1f6f00080003   move.b 0x8(a7), 0x3(a7)
         0x0059d700      2f17           move.l (a7), -(a7)
         0x0059d702      4e93           jsr (a3)                    ; fcn.0000000c
         0x0059d704      defc030c       adda.w 0x30c, a7
         0x0059d708      4eb900404946   jsr p_wtln_o
      > 0x0059d70e      4cdf1f07       movem.l (a7)+, d0-d2/a0-a4
          0x0059d712      4e5e           unlk a6
          0x0059d714      4e75           rts
 528: K03_DISKLIST.get_volume_stat ();
          ; var int32_t var_223h @ a7+0x223
          ; var int32_t var_224h @ a7+0x224
          ; var int32_t var_225h @ a7+0x225
          0x0059d716      4e56fdcc       link.w a6, 0xfdcc
          0x0059d71a      bfd5           cmpa.l (a5), a7
      < 0x0059d71c      6206           bhi.b 0x59d724
         0x0059d71e      44fc0002       move.w 0x2, ccr
         0x0059d722      4e76           trapv
      > 0x0059d724      defc0130       adda.w 0x130, a7
          0x0059d728      48e7e0f8       movem.l d0-d2/a0-a4, -(a7)
          0x0059d72c      49ee0010       lea.l 0x10(a6), a4
          0x0059d730      323c00ff       move.w 0xff, d1
          0x0059d734      7401           moveq 0x1, d2
          0x0059d736      422efefc       clr.b -0x104(a6)
          0x0059d73a      206e0008       movea.l 0x8(a6), a0
          0x0059d73e      11420004       move.b d2, 0x4(a0)
          0x0059d742      554f           subq.w 0x2, a7
          0x0059d744      2f14           move.l (a4), -(a7)
          0x0059d746      2f390083fe4e   move.l 0x83fe4e, -(a7)
          0x0059d74c      4ebae6fc       jsr K03_DISKLIST.under(pc)
          0x0059d750      504f           addq.w 0x8, a7
          0x0059d752      4a1f           tst.b (a7)+
      < 0x0059d754      6738           beq.b 0x59d78e
         0x0059d756      2254           movea.l (a4), a1
         0x0059d758      b3e9fffc       cmpa.l -0x4(a1), a1
     < 0x0059d75c      6702           beq.b 0x59d760
        0x0059d75e      4e4d           trap 0xd
     > 0x0059d760      22690024       movea.l 0x24(a1), a1
         0x0059d764      b3e9fffc       cmpa.l -0x4(a1), a1
     < 0x0059d768      6702           beq.b 0x59d76c
        0x0059d76a      4e4d           trap 0xd
     > 0x0059d76c      45e80305       lea.l 0x305(a0), a2
         0x0059d770      47e90122       lea.l 0x122(a1), a3
         0x0059d774      3001           move.w d1, d0
     > 0x0059d776      14db           move.b (a3)+, (a2)+
     < 0x0059d778      51c8fffc       dbra d0, 0x59d776
         0x0059d77c      45e80405       lea.l 0x405(a0), a2
         0x0059d780      43e90022       lea.l 0x22(a1), a1
         0x0059d784      3001           move.w d1, d0
     > 0x0059d786      14d9           move.b (a1)+, (a2)+
     < 0x0059d788      51c8fffc       dbra d0, 0x59d786
     < 0x0059d78c      6036           bra.b 0x59d7c4
     > 0x0059d78e      2254           movea.l (a4), a1
         0x0059d790      b3e9fffc       cmpa.l -0x4(a1), a1
     < 0x0059d794      6702           beq.b 0x59d798
        0x0059d796      4e4d           trap 0xd
     > 0x0059d798      22690024       movea.l 0x24(a1), a1
         0x0059d79c      b3e9fffc       cmpa.l -0x4(a1), a1
     < 0x0059d7a0      6702           beq.b 0x59d7a4
        0x0059d7a2      4e4d           trap 0xd
     > 0x0059d7a4      45e80305       lea.l 0x305(a0), a2
         0x0059d7a8      47e90022       lea.l 0x22(a1), a3
         0x0059d7ac      3001           move.w d1, d0
     > 0x0059d7ae      14db           move.b (a3)+, (a2)+
     < 0x0059d7b0      51c8fffc       dbra d0, 0x59d7ae
         0x0059d7b4      45e80405       lea.l 0x405(a0), a2
         0x0059d7b8      43e90122       lea.l 0x122(a1), a1
         0x0059d7bc      3001           move.w d1, d0
     > 0x0059d7be      14d9           move.b (a1)+, (a2)+
     < 0x0059d7c0      51c8fffc       dbra d0, 0x59d7be
     > 0x0059d7c4      4a2e000e       tst.b 0xe(a6)
      < 0x0059d7c8      670000b0       beq.w 0x59d87a
         0x0059d7cc      4a2e000c       tst.b 0xc(a6)
     < 0x0059d7d0      672e           beq.b 0x59d800
        0x0059d7d2      2254           movea.l (a4), a1
        0x0059d7d4      b3e9fffc       cmpa.l -0x4(a1), a1
    < 0x0059d7d8      6702           beq.b 0x59d7dc
       0x0059d7da      4e4d           trap 0xd
    > 0x0059d7dc      2251           movea.l (a1), a1
        0x0059d7de      b3e9fffc       cmpa.l -0x4(a1), a1
    < 0x0059d7e2      6702           beq.b 0x59d7e6
       0x0059d7e4      4e4d           trap 0xd
    > 0x0059d7e6      22690024       movea.l 0x24(a1), a1
        0x0059d7ea      b3e9fffc       cmpa.l -0x4(a1), a1
    < 0x0059d7ee      6702           beq.b 0x59d7f2
       0x0059d7f0      4e4d           trap 0xd
    > 0x0059d7f2      45eeff00       lea.l -0x100(a6), a2
        0x0059d7f6      3001           move.w d1, d0
    > 0x0059d7f8      14d9           move.b (a1)+, (a2)+
    < 0x0059d7fa      51c8fffc       dbra d0, 0x59d7f8
    < 0x0059d7fe      6048           bra.b 0x59d848
    > 0x0059d800      9efc0100       suba.w 0x100, a7
        0x0059d804      2254           movea.l (a4), a1
        0x0059d806      b3e9fffc       cmpa.l -0x4(a1), a1
    < 0x0059d80a      6702           beq.b 0x59d80e
       0x0059d80c      4e4d           trap 0xd
    > 0x0059d80e      22690024       movea.l 0x24(a1), a1
        0x0059d812      b3e9fffc       cmpa.l -0x4(a1), a1
    < 0x0059d816      6702           beq.b 0x59d81a
       0x0059d818      4e4d           trap 0xd
    > 0x0059d81a      594f           subq.w 0x4, a7
        0x0059d81c      1ea90222       move.b 0x222(a1), (a7)
        0x0059d820      1f6902230001   move.b 0x223(a1), 0x1(a7)
        0x0059d826      1f6902240002   move.b 0x224(a1), 0x2(a7)
        0x0059d82c      1f6902250003   move.b 0x225(a1), 0x3(a7)
        0x0059d832      4227           clr.b -(a7)
        0x0059d834      1f02           move.b d2, -(a7)
        0x0059d836      4ebae1fa       jsr K03_DISKLIST.fixed_id_str(pc)
        0x0059d83a      504f           addq.w 0x8, a7
        0x0059d83c      43eeff00       lea.l -0x100(a6), a1
        0x0059d840      703f           moveq 0x3f, d0
    > 0x0059d842      22df           move.l (a7)+, (a1)+
    < 0x0059d844      51c8fffc       dbra d0, 0x59d842
    > 0x0059d848      43e80005       lea.l 0x5(a0), a1
         0x0059d84c      45eeff00       lea.l -0x100(a6), a2
         0x0059d850      3001           move.w d1, d0
     > 0x0059d852      12da           move.b (a2)+, (a1)+
     < 0x0059d854      51c8fffc       dbra d0, 0x59d852
         0x0059d858      43e80105       lea.l 0x105(a0), a1
         0x0059d85c      45eeff00       lea.l -0x100(a6), a2
         0x0059d860      3001           move.w d1, d0
     > 0x0059d862      12da           move.b (a2)+, (a1)+
     < 0x0059d864      51c8fffc       dbra d0, 0x59d862
         0x0059d868      43e80205       lea.l 0x205(a0), a1
         0x0059d86c      45fac20e       lea.l 0x599a7c(pc), a2
         0x0059d870      7004           moveq 0x4, d0
     > 0x0059d872      12da           move.b (a2)+, (a1)+
     < 0x0059d874      51c8fffc       dbra d0, 0x59d872
     < 0x0059d878      6030           bra.b 0x59d8aa
     > 0x0059d87a      43e80005       lea.l 0x5(a0), a1
         0x0059d87e      45fac201       lea.l 0x599a81(pc), a2
         0x0059d882      7004           moveq 0x4, d0
     > 0x0059d884      12da           move.b (a2)+, (a1)+
     < 0x0059d886      51c8fffc       dbra d0, 0x59d884
         0x0059d88a      43e80105       lea.l 0x105(a0), a1
         0x0059d88e      45fac1f6       lea.l 0x599a86(pc), a2
         0x0059d892      7005           moveq 0x5, d0
     > 0x0059d894      12da           move.b (a2)+, (a1)+
     < 0x0059d896      51c8fffc       dbra d0, 0x59d894
         0x0059d89a      43e80205       lea.l 0x205(a0), a1
         0x0059d89e      45fac1ec       lea.l 0x599a8c(pc), a2
         0x0059d8a2      7004           moveq 0x4, d0
     > 0x0059d8a4      12da           move.b (a2)+, (a1)+
     < 0x0059d8a6      51c8fffc       dbra d0, 0x59d8a4
     > 0x0059d8aa      2f14           move.l (a4), -(a7)
          0x0059d8ac      4227           clr.b -(a7)
          0x0059d8ae      4850           pea.l (a0)
          0x0059d8b0      486efefd       pea.l -0x103(a6)
          0x0059d8b4      486efefc       pea.l -0x104(a6)
          0x0059d8b8      48680506       pea.l 0x506(a0)
          0x0059d8bc      4868050a       pea.l 0x50a(a0)
          0x0059d8c0      4ebafa74       jsr K03_DISKLIST.volume_state(pc)
          0x0059d8c4      defc001a       adda.w 0x1a, a7
          0x0059d8c8      4aa8050a       tst.l 0x50a(a0)
      < 0x0059d8cc      6608           bne.b 0x59d8d6
         0x0059d8ce      21680506050e   move.l 0x506(a0), 0x50e(a0)
     < 0x0059d8d4      6006           bra.b 0x59d8dc
     > 0x0059d8d6      2168050a050e   move.l 0x50a(a0), 0x50e(a0)
     > 0x0059d8dc      116efefd0001   move.b -0x103(a6), 0x1(a0)
          0x0059d8e2      116efefe0002   move.b -0x102(a6), 0x2(a0)
          0x0059d8e8      554f           subq.w 0x2, a7
          0x0059d8ea      2f14           move.l (a4), -(a7)
          0x0059d8ec      2f390083fe4e   move.l 0x83fe4e, -(a7)
          0x0059d8f2      4ebae556       jsr K03_DISKLIST.under(pc)
          0x0059d8f6      504f           addq.w 0x8, a7
          0x0059d8f8      4a1f           tst.b (a7)+
      < 0x0059d8fa      6708           beq.b 0x59d904
         0x0059d8fc      116efeff0003   move.b -0x101(a6), 0x3(a0)
     < 0x0059d902      6004           bra.b 0x59d908
     > 0x0059d904      42280003       clr.b 0x3(a0)
     > 0x0059d908      4a2efefc       tst.b -0x104(a6)
      < 0x0059d90c      6710           beq.b 0x59d91e
         0x0059d90e      43e80305       lea.l 0x305(a0), a1
         0x0059d912      45fac17d       lea.l 0x599a91(pc), a2
         0x0059d916      700a           moveq 0xa, d0
     > 0x0059d918      12da           move.b (a2)+, (a1)+
     < 0x0059d91a      51c8fffc       dbra d0, 0x59d918
      > 0x0059d91e      4cdf1f07       movem.l (a7)+, d0-d2/a0-a4
          0x0059d922      4e5e           unlk a6
          0x0059d924      4e75           rts
           ; CALL XREF from K03_DISKLIST.subvol_state @ 0x59da00
 144: K03_DISKLIST.parent_off ();
          0x0059d926      4e56ffc8       link.w a6, 0xffc8
          0x0059d92a      bfd5           cmpa.l (a5), a7
      < 0x0059d92c      6206           bhi.b 0x59d934
         0x0059d92e      44fc0002       move.w 0x2, ccr
         0x0059d932      4e76           trapv
      > 0x0059d934      defc002a       adda.w 0x2a, a7
          0x0059d938      48e780c0       movem.l d0/a0-a1, -(a7)
          0x0059d93c      43ee000e       lea.l 0xe(a6), a1
          0x0059d940      554f           subq.w 0x2, a7
          0x0059d942      206e000a       movea.l 0xa(a6), a0
          0x0059d946      b1e8fffc       cmpa.l -0x4(a0), a0
      < 0x0059d94a      6702           beq.b 0x59d94e
         0x0059d94c      4e4d           trap 0xd
      > 0x0059d94e      20680024       movea.l 0x24(a0), a0
          0x0059d952      b1e8fffc       cmpa.l -0x4(a0), a0
      < 0x0059d956      6702           beq.b 0x59d95a
         0x0059d958      4e4d           trap 0xd
      > 0x0059d95a      2f28000e       move.l 0xe(a0), -(a7)
          0x0059d95e      486efff6       pea.l -0xa(a6)
          0x0059d962      486efff2       pea.l -0xe(a6)
          0x0059d966      486efff3       pea.l -0xd(a6)
          0x0059d96a      486efff8       pea.l -0x8(a6)
          0x0059d96e      486efffc       pea.l -0x4(a6)
          0x0059d972      4eb9005a13ba   jsr K04_FILEROPS.k_menu_status
          0x0059d978      defc0018       adda.w 0x18, a7
          0x0059d97c      3d5ffff4       move.w (a7)+, -0xc(a6)
          0x0059d980      102efff4       move.b -0xc(a6), d0
          0x0059d984      b03ac117       cmp.b 0x599a9d(pc), d0
      < 0x0059d988      6608           bne.b 0x59d992
         0x0059d98a      102efff5       move.b -0xb(a6), d0
         0x0059d98e      b03ac10e       cmp.b 0x599a9e(pc), d0
     > 0x0059d992      6706           beq.b 0x59d99a
         0x0059d994      12bc0001       move.b 0x1, (a1)
     < 0x0059d998      6014           bra.b 0x59d9ae
     > 0x0059d99a      4a2e0008       tst.b 0x8(a6)
     < 0x0059d99e      6706           beq.b 0x59d9a6
        0x0059d9a0      12aefff3       move.b -0xd(a6), (a1)
    < 0x0059d9a4      6004           bra.b 0x59d9aa
    > 0x0059d9a6      12aefff2       move.b -0xe(a6), (a1)
    > 0x0059d9aa      4411           neg.b (a1)
         0x0059d9ac      5211           addq.b 0x1, (a1)
      > 0x0059d9ae      4cdf0301       movem.l (a7)+, d0/a0-a1
          0x0059d9b2      4e5e           unlk a6
          0x0059d9b4      4e75           rts
           ; CALL XREFS from K03_DISKLIST.get_subvolume_s @ 0x59dad8, 0x59daf0
 136: K03_DISKLIST.subvol_state ();
          0x0059d9b6      4e56ffdc       link.w a6, 0xffdc
          0x0059d9ba      bfd5           cmpa.l (a5), a7
      < 0x0059d9bc      6206           bhi.b 0x59d9c4
         0x0059d9be      44fc0002       move.w 0x2, ccr
         0x0059d9c2      4e76           trapv
      > 0x0059d9c4      defc0024       adda.w 0x24, a7
          0x0059d9c8      48e7c0e0       movem.l d0-d1/a0-a2, -(a7)
          0x0059d9cc      45ee0010       lea.l 0x10(a6), a2
          0x0059d9d0      7201           moveq 0x1, d1
          0x0059d9d2      206e000c       movea.l 0xc(a6), a0
          0x0059d9d6      b1e8fffc       cmpa.l -0x4(a0), a0
      < 0x0059d9da      6702           beq.b 0x59d9de
         0x0059d9dc      4e4d           trap 0xd
      > 0x0059d9de      22680024       movea.l 0x24(a0), a1
          0x0059d9e2      b3e9fffc       cmpa.l -0x4(a1), a1
      < 0x0059d9e6      6702           beq.b 0x59d9ea
         0x0059d9e8      4e4d           trap 0xd
      > 0x0059d9ea      10290008       move.b 0x8(a1), d0
          0x0059d9ee      b02e000a       cmp.b 0xa(a6), d0
      < 0x0059d9f2      6704           beq.b 0x59d9f8
     > 0x0059d9f4      4212           clr.b (a2)
    < 0x0059d9f6      603e           bra.b 0x59da36
    > 0x0059d9f8      554f           subq.w 0x2, a7
        0x0059d9fa      2f10           move.l (a0), -(a7)
        0x0059d9fc      1f2e0008       move.b 0x8(a6), -(a7)
        0x0059da00      4ebaff24       jsr K03_DISKLIST.parent_off(pc)
        0x0059da04      5c4f           addq.w 0x6, a7
        0x0059da06      4a1f           tst.b (a7)+
    < 0x0059da08      6702           beq.b 0x59da0c
    < 0x0059da0a      60e8           bra.b 0x59d9f4
     > 0x0059da0c      22680024       movea.l 0x24(a0), a1
         0x0059da10      b3e9fffc       cmpa.l -0x4(a1), a1
     < 0x0059da14      6702           beq.b 0x59da18
        0x0059da16      4e4d           trap 0xd
     > 0x0059da18      1029000a       move.b 0xa(a1), d0
         0x0059da1c      b001           cmp.b d1, d0
     < 0x0059da1e      6604           bne.b 0x59da24
        0x0059da20      1481           move.b d1, (a2)
    < 0x0059da22      6012           bra.b 0x59da36
    > 0x0059da24      10290110       move.b 0x110(a1), d0
        0x0059da28      b001           cmp.b d1, d0
    < 0x0059da2a      6606           bne.b 0x59da32
       0x0059da2c      14bc0006       move.b 0x6, (a2)
   < 0x0059da30      6004           bra.b 0x59da36
   > 0x0059da32      14bc0005       move.b 0x5, (a2)
   > 0x0059da36      4cdf0703       movem.l (a7)+, d0-d1/a0-a2
          0x0059da3a      4e5e           unlk a6
          0x0059da3c      4e75           rts
 218: K03_DISKLIST.get_subvolume_s ();
          0x0059da3e      4e56ffd0       link.w a6, 0xffd0
          0x0059da42      bfd5           cmpa.l (a5), a7
      < 0x0059da44      6206           bhi.b 0x59da4c
         0x0059da46      44fc0002       move.w 0x2, ccr
         0x0059da4a      4e76           trapv
      > 0x0059da4c      defc002e       adda.w 0x2e, a7
          0x0059da50      48e7e0f0       movem.l d0-d2/a0-a3, -(a7)
          0x0059da54      47ee000c       lea.l 0xc(a6), a3
          0x0059da58      7201           moveq 0x1, d1
          0x0059da5a      7407           moveq 0x7, d2
          0x0059da5c      206e0008       movea.l 0x8(a6), a0
          0x0059da60      42280004       clr.b 0x4(a0)
          0x0059da64      2253           movea.l (a3), a1
          0x0059da66      b3e9fffc       cmpa.l -0x4(a1), a1
      < 0x0059da6a      6702           beq.b 0x59da6e
         0x0059da6c      4e4d           trap 0xd
      > 0x0059da6e      22690024       movea.l 0x24(a1), a1
          0x0059da72      b3e9fffc       cmpa.l -0x4(a1), a1
      < 0x0059da76      6702           beq.b 0x59da7a
         0x0059da78      4e4d           trap 0xd
      > 0x0059da7a      45e80305       lea.l 0x305(a0), a2
          0x0059da7e      43e90010       lea.l 0x10(a1), a1
          0x0059da82      303c00ff       move.w 0xff, d0
      > 0x0059da86      14d9           move.b (a1)+, (a2)+
      < 0x0059da88      51c8fffc       dbra d0, 0x59da86
          0x0059da8c      43e80405       lea.l 0x405(a0), a1
          0x0059da90      45fac00d       lea.l 0x599a9f(pc), a2
          0x0059da94      7009           moveq 0x9, d0
      > 0x0059da96      12da           move.b (a2)+, (a1)+
      < 0x0059da98      51c8fffc       dbra d0, 0x59da96
          0x0059da9c      43e80005       lea.l 0x5(a0), a1
          0x0059daa0      45fac007       lea.l 0x599aa9(pc), a2
          0x0059daa4      7004           moveq 0x4, d0
      > 0x0059daa6      12da           move.b (a2)+, (a1)+
      < 0x0059daa8      51c8fffc       dbra d0, 0x59daa6
          0x0059daac      43e80105       lea.l 0x105(a0), a1
          0x0059dab0      45fabffc       lea.l 0x599aae(pc), a2
          0x0059dab4      7005           moveq 0x5, d0
      > 0x0059dab6      12da           move.b (a2)+, (a1)+
      < 0x0059dab8      51c8fffc       dbra d0, 0x59dab6
          0x0059dabc      43e80205       lea.l 0x205(a0), a1
          0x0059dac0      45fabff2       lea.l 0x599ab4(pc), a2
          0x0059dac4      7004           moveq 0x4, d0
      > 0x0059dac6      12da           move.b (a2)+, (a1)+
      < 0x0059dac8      51c8fffc       dbra d0, 0x59dac6
          0x0059dacc      10bc0004       move.b 0x4, (a0)
          0x0059dad0      554f           subq.w 0x2, a7
          0x0059dad2      2f13           move.l (a3), -(a7)
          0x0059dad4      4227           clr.b -(a7)
          0x0059dad6      1f01           move.b d1, -(a7)
          0x0059dad8      4ebafedc       jsr K03_DISKLIST.subvol_state(pc)
          0x0059dadc      504f           addq.w 0x8, a7
          0x0059dade      101f           move.b (a7)+, d0
          0x0059dae0      4880           ext.w d0
          0x0059dae2      4182           chk.w d2, d0
          0x0059dae4      11400001       move.b d0, 0x1(a0)
          0x0059dae8      554f           subq.w 0x2, a7
          0x0059daea      2f13           move.l (a3), -(a7)
          0x0059daec      1f01           move.b d1, -(a7)
          0x0059daee      4227           clr.b -(a7)
          0x0059daf0      4ebafec4       jsr K03_DISKLIST.subvol_state(pc)
          0x0059daf4      504f           addq.w 0x8, a7
          0x0059daf6      101f           move.b (a7)+, d0
          0x0059daf8      4880           ext.w d0
          0x0059dafa      4182           chk.w d2, d0
          0x0059dafc      11400002       move.b d0, 0x2(a0)
          0x0059db00      42280003       clr.b 0x3(a0)
          0x0059db04      42a80506       clr.l 0x506(a0)
          0x0059db08      42a8050a       clr.l 0x50a(a0)
          0x0059db0c      42a8050e       clr.l 0x50e(a0)
          0x0059db10      4cdf0f07       movem.l (a7)+, d0-d2/a0-a3
          0x0059db14      4e5e           unlk a6
          0x0059db16      4e75           rts
           ; CALL XREF from K03_DISKLIST.get_mailable @ 0x59dbb8
 70: K03_DISKLIST.local_get_mail ();
          0x0059db18      4e56fff0       link.w a6, 0xfff0
          0x0059db1c      bfd5           cmpa.l (a5), a7
      < 0x0059db1e      6206           bhi.b 0x59db26
         0x0059db20      44fc0002       move.w 0x2, ccr
         0x0059db24      4e76           trapv
      > 0x0059db26      defc000e       adda.w 0xe, a7
          0x0059db2a      48e78000       movem.l d0, -(a7)
          0x0059db2e      202e0008       move.l 0x8(a6), d0
          0x0059db32      0c800000ffff   cmpi.l 0xffff, d0
      < 0x0059db38      6302           bls.b 0x59db3c
         0x0059db3a      4e4f           trap 0xf
      > 0x0059db3c      3d40fffe       move.w d0, -0x2(a6)
          0x0059db40      554f           subq.w 0x2, a7
          0x0059db42      3f00           move.w d0, -(a7)
          0x0059db44      4ebaf1aa       jsr K03_DISKLIST.get_mail(pc)
          0x0059db48      544f           addq.w 0x2, a7
          0x0059db4a      101f           move.b (a7)+, d0
          0x0059db4c      4880           ext.w d0
          0x0059db4e      41bc0001       chk.w 0x1, d0
          0x0059db52      1d40000c       move.b d0, 0xc(a6)
          0x0059db56      4cdf0001       movem.l (a7)+, d0
          0x0059db5a      4e5e           unlk a6
          0x0059db5c      4e75           rts
           ; CALL XREF from K03_DISKLIST.single_supervol @ 0x59dc92
           ; CALL XREF from K03_DISKLIST.get_supervol_st @ 0x59df6a
 120: K03_DISKLIST.get_mailable ();
          0x0059db5e      4e56ffde       link.w a6, 0xffde
          0x0059db62      bfd5           cmpa.l (a5), a7
      < 0x0059db64      6206           bhi.b 0x59db6c
         0x0059db66      44fc0002       move.w 0x2, ccr
         0x0059db6a      4e76           trapv
      > 0x0059db6c      defc0022       adda.w 0x22, a7
          0x0059db70      48e7c0e0       movem.l d0-d1/a0-a2, -(a7)
          0x0059db74      45ee000c       lea.l 0xc(a6), a2
          0x0059db78      7205           moveq 0x5, d1
          0x0059db7a      554f           subq.w 0x2, a7
          0x0059db7c      2f2e0008       move.l 0x8(a6), -(a7)
          0x0059db80      2f390083fe4a   move.l 0x83fe4a, -(a7)
          0x0059db86      4ebae2c2       jsr K03_DISKLIST.under(pc)
          0x0059db8a      504f           addq.w 0x8, a7
          0x0059db8c      4a1f           tst.b (a7)+
      < 0x0059db8e      673c           beq.b 0x59dbcc
         0x0059db90      206e0008       movea.l 0x8(a6), a0
         0x0059db94      b1e8fffc       cmpa.l -0x4(a0), a0
     < 0x0059db98      6702           beq.b 0x59db9c
        0x0059db9a      4e4d           trap 0xd
     > 0x0059db9c      22680024       movea.l 0x24(a0), a1
         0x0059dba0      b3e9fffc       cmpa.l -0x4(a1), a1
     < 0x0059dba4      6702           beq.b 0x59dba8
        0x0059dba6      4e4d           trap 0xd
     > 0x0059dba8      10290300       move.b 0x300(a1), d0
         0x0059dbac      b001           cmp.b d1, d0
     < 0x0059dbae      6702           beq.b 0x59dbb2
    < 0x0059dbb0      601a           bra.b 0x59dbcc
    > 0x0059dbb2      554f           subq.w 0x2, a7
        0x0059dbb4      2f28001c       move.l 0x1c(a0), -(a7)
        0x0059dbb8      4ebaff5e       jsr K03_DISKLIST.local_get_mail(pc)
        0x0059dbbc      584f           addq.w 0x4, a7
        0x0059dbbe      4a1f           tst.b (a7)+
    < 0x0059dbc0      6704           beq.b 0x59dbc6
       0x0059dbc2      1481           move.b d1, (a2)
   < 0x0059dbc4      6008           bra.b 0x59dbce
   > 0x0059dbc6      14bc0001       move.b 0x1, (a2)
   < 0x0059dbca      6002           bra.b 0x59dbce
   > 0x0059dbcc      4212           clr.b (a2)
   > 0x0059dbce      4cdf0703       movem.l (a7)+, d0-d1/a0-a2
          0x0059dbd2      4e5e           unlk a6
          0x0059dbd4      4e75           rts
           ; CALL XREF from K03_DISKLIST.get_supervol_st @ 0x59dfd0
 214: K03_DISKLIST.single_supervol ();
          0x0059dbd6      4e56fec2       link.w a6, 0xfec2
          0x0059dbda      bfd5           cmpa.l (a5), a7
      < 0x0059dbdc      6206           bhi.b 0x59dbe4
         0x0059dbde      44fc0002       move.w 0x2, ccr
         0x0059dbe2      4e76           trapv
      > 0x0059dbe4      defc0036       adda.w 0x36, a7
          0x0059dbe8      48e780f8       movem.l d0/a0-a4, -(a7)
          0x0059dbec      49ee000c       lea.l 0xc(a6), a4
          0x0059dbf0      206e0008       movea.l 0x8(a6), a0
          0x0059dbf4      42280004       clr.b 0x4(a0)
          0x0059dbf8      2254           movea.l (a4), a1
          0x0059dbfa      b3e9fffc       cmpa.l -0x4(a1), a1
      < 0x0059dbfe      6702           beq.b 0x59dc02
         0x0059dc00      4e4d           trap 0xd
      > 0x0059dc02      22690024       movea.l 0x24(a1), a1
          0x0059dc06      b3e9fffc       cmpa.l -0x4(a1), a1
      < 0x0059dc0a      6702           beq.b 0x59dc0e
         0x0059dc0c      4e4d           trap 0xd
      > 0x0059dc0e      45e80305       lea.l 0x305(a0), a2
          0x0059dc12      47e90100       lea.l 0x100(a1), a3
          0x0059dc16      303c00ff       move.w 0xff, d0
      > 0x0059dc1a      14db           move.b (a3)+, (a2)+
      < 0x0059dc1c      51c8fffc       dbra d0, 0x59dc1a
          0x0059dc20      45e80405       lea.l 0x405(a0), a2
          0x0059dc24      43e90200       lea.l 0x200(a1), a1
          0x0059dc28      303c00ff       move.w 0xff, d0
      > 0x0059dc2c      14d9           move.b (a1)+, (a2)+
      < 0x0059dc2e      51c8fffc       dbra d0, 0x59dc2c
          0x0059dc32      43e80005       lea.l 0x5(a0), a1
          0x0059dc36      45fabe81       lea.l 0x599ab9(pc), a2
          0x0059dc3a      7004           moveq 0x4, d0
      > 0x0059dc3c      12da           move.b (a2)+, (a1)+
      < 0x0059dc3e      51c8fffc       dbra d0, 0x59dc3c
          0x0059dc42      43e80105       lea.l 0x105(a0), a1
          0x0059dc46      45fabe76       lea.l 0x599abe(pc), a2
          0x0059dc4a      7005           moveq 0x5, d0
      > 0x0059dc4c      12da           move.b (a2)+, (a1)+
      < 0x0059dc4e      51c8fffc       dbra d0, 0x59dc4c
          0x0059dc52      43e80205       lea.l 0x205(a0), a1
          0x0059dc56      45fabe6c       lea.l 0x599ac4(pc), a2
          0x0059dc5a      7004           moveq 0x4, d0
      > 0x0059dc5c      12da           move.b (a2)+, (a1)+
      < 0x0059dc5e      51c8fffc       dbra d0, 0x59dc5c
          0x0059dc62      10bc0004       move.b 0x4, (a0)
          0x0059dc66      2f14           move.l (a4), -(a7)
          0x0059dc68      4227           clr.b -(a7)
          0x0059dc6a      486efffc       pea.l -0x4(a6)
          0x0059dc6e      48680506       pea.l 0x506(a0)
          0x0059dc72      4868050a       pea.l 0x50a(a0)
          0x0059dc76      4868050e       pea.l 0x50e(a0)
          0x0059dc7a      4ebaf470       jsr K03_DISKLIST.super_vol_state(pc)
          0x0059dc7e      defc0016       adda.w 0x16, a7
          0x0059dc82      116efffc0001   move.b -0x4(a6), 0x1(a0)
          0x0059dc88      116efffd0002   move.b -0x3(a6), 0x2(a0)
          0x0059dc8e      554f           subq.w 0x2, a7
          0x0059dc90      2f14           move.l (a4), -(a7)
          0x0059dc92      4ebafeca       jsr K03_DISKLIST.get_mailable(pc)
          0x0059dc96      584f           addq.w 0x4, a7
          0x0059dc98      101f           move.b (a7)+, d0
          0x0059dc9a      4880           ext.w d0
          0x0059dc9c      41bc0007       chk.w 0x7, d0
          0x0059dca0      11400003       move.b d0, 0x3(a0)
          0x0059dca4      4cdf1f01       movem.l (a7)+, d0/a0-a4
          0x0059dca8      4e5e           unlk a6
          0x0059dcaa      4e75           rts
           ; CALL XREF from K03_DISKLIST.get_supervol_st @ 0x59def6
 252: K03_DISKLIST.mixed_status ();
          0x0059dcac      4e56f8ac       link.w a6, 0xf8ac
          0x0059dcb0      bfd5           cmpa.l (a5), a7
      < 0x0059dcb2      6206           bhi.b 0x59dcba
         0x0059dcb4      44fc0002       move.w 0x2, ccr
         0x0059dcb8      4e76           trapv
      > 0x0059dcba      defc003e       adda.w 0x3e, a7
          0x0059dcbe      48e7f0f8       movem.l d0-d3/a0-a4, -(a7)
          0x0059dcc2      49eefaee       lea.l -0x512(a6), a4
          0x0059dcc6      7201           moveq 0x1, d1
          0x0059dcc8      740e           moveq 0xe, d2
          0x0059dcca      363c00ff       move.w 0xff, d3
          0x0059dcce      206e0008       movea.l 0x8(a6), a0
          0x0059dcd2      42280004       clr.b 0x4(a0)
          0x0059dcd6      43e80305       lea.l 0x305(a0), a1
          0x0059dcda      45fabded       lea.l 0x599ac9(pc), a2
          0x0059dcde      7018           moveq 0x18, d0
      > 0x0059dce0      12da           move.b (a2)+, (a1)+
      < 0x0059dce2      51c8fffc       dbra d0, 0x59dce0
          0x0059dce6      43e80405       lea.l 0x405(a0), a1
          0x0059dcea      45fabdf6       lea.l 0x599ae2(pc), a2
          0x0059dcee      7018           moveq 0x18, d0
      > 0x0059dcf0      12da           move.b (a2)+, (a1)+
      < 0x0059dcf2      51c8fffc       dbra d0, 0x59dcf0
          0x0059dcf6      226e0010       movea.l 0x10(a6), a1
          0x0059dcfa      b3e9fffc       cmpa.l -0x4(a1), a1
      < 0x0059dcfe      6702           beq.b 0x59dd02
         0x0059dd00      4e4d           trap 0xd
      > 0x0059dd02      2f290010       move.l 0x10(a1), -(a7)
          0x0059dd06      1f01           move.b d1, -(a7)
          0x0059dd08      1f2e000e       move.b 0xe(a6), -(a7)
          0x0059dd0c      1f2e000c       move.b 0xc(a6), -(a7)
          0x0059dd10      4854           pea.l (a4)
          0x0059dd12      4eb90059dfde   jsr K03_DISKLIST.get_node_status
          0x0059dd18      dec2           adda.w d2, a7
          0x0059dd1a      116efaef0001   move.b -0x511(a6), 0x1(a0)
          0x0059dd20      45e80005       lea.l 0x5(a0), a2
          0x0059dd24      47eefaf3       lea.l -0x50d(a6), a3
          0x0059dd28      3003           move.w d3, d0
      > 0x0059dd2a      14db           move.b (a3)+, (a2)+
      < 0x0059dd2c      51c8fffc       dbra d0, 0x59dd2a
          0x0059dd30      2f290014       move.l 0x14(a1), -(a7)
          0x0059dd34      1f01           move.b d1, -(a7)
          0x0059dd36      1f2e000e       move.b 0xe(a6), -(a7)
          0x0059dd3a      1f2e000c       move.b 0xc(a6), -(a7)
          0x0059dd3e      4854           pea.l (a4)
          0x0059dd40      4eb90059dfde   jsr K03_DISKLIST.get_node_status
          0x0059dd46      dec2           adda.w d2, a7
          0x0059dd48      116efaf00002   move.b -0x510(a6), 0x2(a0)
          0x0059dd4e      1094           move.b (a4), (a0)
          0x0059dd50      45e80105       lea.l 0x105(a0), a2
          0x0059dd54      47eefbf3       lea.l -0x40d(a6), a3
          0x0059dd58      3003           move.w d3, d0
      > 0x0059dd5a      14db           move.b (a3)+, (a2)+
      < 0x0059dd5c      51c8fffc       dbra d0, 0x59dd5a
          0x0059dd60      216efff40506   move.l -0xc(a6), 0x506(a0)
          0x0059dd66      216efff8050a   move.l -0x8(a6), 0x50a(a0)
          0x0059dd6c      216efffc050e   move.l -0x4(a6), 0x50e(a0)
          0x0059dd72      2f290018       move.l 0x18(a1), -(a7)
          0x0059dd76      1f01           move.b d1, -(a7)
          0x0059dd78      1f2e000e       move.b 0xe(a6), -(a7)
          0x0059dd7c      1f2e000c       move.b 0xc(a6), -(a7)
          0x0059dd80      4854           pea.l (a4)
          0x0059dd82      4eb90059dfde   jsr K03_DISKLIST.get_node_status
          0x0059dd88      dec2           adda.w d2, a7
          0x0059dd8a      116efaf10003   move.b -0x50f(a6), 0x3(a0)
          0x0059dd90      41e80205       lea.l 0x205(a0), a0
          0x0059dd94      43eefcf3       lea.l -0x30d(a6), a1
          0x0059dd98      3003           move.w d3, d0
      > 0x0059dd9a      10d9           move.b (a1)+, (a0)+
      < 0x0059dd9c      51c8fffc       dbra d0, 0x59dd9a
          0x0059dda0      4cdf1f0f       movem.l (a7)+, d0-d3/a0-a4
          0x0059dda4      4e5e           unlk a6
          0x0059dda6      4e75           rts
           ; CALL XREF from K03_DISKLIST.get_supervol_st @ 0x59de8c
 152: K03_DISKLIST.get_disk_to_use ();
          0x0059dda8      4e56ffda       link.w a6, 0xffda
          0x0059ddac      bfd5           cmpa.l (a5), a7
      < 0x0059ddae      6206           bhi.b 0x59ddb6
         0x0059ddb0      44fc0002       move.w 0x2, ccr
         0x0059ddb4      4e76           trapv
      > 0x0059ddb6      defc0022       adda.w 0x22, a7
          0x0059ddba      48e780e8       movem.l d0/a0-a2/a4, -(a7)
          0x0059ddbe      7001           moveq 0x1, d0
          0x0059ddc0      206e0008       movea.l 0x8(a6), a0
          0x0059ddc4      b1e8fffc       cmpa.l -0x4(a0), a0
      < 0x0059ddc8      6702           beq.b 0x59ddcc
         0x0059ddca      4e4d           trap 0xd
      > 0x0059ddcc      22680010       movea.l 0x10(a0), a1
          0x0059ddd0      b2c0           cmpa.w d0, a1
      < 0x0059ddd2      660e           bne.b 0x59dde2
         0x0059ddd4      24680014       movea.l 0x14(a0), a2
         0x0059ddd8      b4c0           cmpa.w d0, a2
     < 0x0059ddda      6606           bne.b 0x59dde2
        0x0059dddc      2868000c       movea.l 0xc(a0), a4
    < 0x0059dde0      6052           bra.b 0x59de34
    > 0x0059dde2      b3e80014       cmpa.l 0x14(a0), a1
     < 0x0059dde6      660c           bne.b 0x59ddf4
        0x0059dde8      24680014       movea.l 0x14(a0), a2
        0x0059ddec      b4c0           cmpa.w d0, a2
    < 0x0059ddee      6704           beq.b 0x59ddf4
   > 0x0059ddf0      2849           movea.l a1, a4
  < 0x0059ddf2      6040           bra.b 0x59de34
  > 0x0059ddf4      b3e80014       cmpa.l 0x14(a0), a1
   < 0x0059ddf8      670a           beq.b 0x59de04
      0x0059ddfa      24680014       movea.l 0x14(a0), a2
      0x0059ddfe      b4c0           cmpa.w d0, a2
  < 0x0059de00      6602           bne.b 0x59de04
  < 0x0059de02      60ec           bra.b 0x59ddf0
   > 0x0059de04      b3e80014       cmpa.l 0x14(a0), a1
    < 0x0059de08      670a           beq.b 0x59de14
       0x0059de0a      b2c0           cmpa.w d0, a1
   < 0x0059de0c      6606           bne.b 0x59de14
      0x0059de0e      28680014       movea.l 0x14(a0), a4
  < 0x0059de12      6020           bra.b 0x59de34
  > 0x0059de14      b3e80014       cmpa.l 0x14(a0), a1
   < 0x0059de18      6710           beq.b 0x59de2a
      0x0059de1a      b2c0           cmpa.w d0, a1
  < 0x0059de1c      670c           beq.b 0x59de2a
     0x0059de1e      24680014       movea.l 0x14(a0), a2
     0x0059de22      b4c0           cmpa.w d0, a2
 < 0x0059de24      6704           beq.b 0x59de2a
    0x0059de26      3840           movea.w d0, a4
 < 0x0059de28      600a           bra.b 0x59de34
 > 0x0059de2a      4227           clr.b -(a7)
       0x0059de2c      4eb90040452a   jsr p_Assert
       0x0059de32      544f           addq.w 0x2, a7
 > 0x0059de34      2d4c000c       move.l a4, 0xc(a6)
          0x0059de38      4cdf1701       movem.l (a7)+, d0/a0-a2/a4
          0x0059de3c      4e5e           unlk a6
          0x0059de3e      4e75           rts
 414: K03_DISKLIST.get_supervol_st ();
          0x0059de40      4e56ffc2       link.w a6, 0xffc2
          0x0059de44      bfd5           cmpa.l (a5), a7
      < 0x0059de46      6206           bhi.b 0x59de4e
         0x0059de48      44fc0002       move.w 0x2, ccr
         0x0059de4c      4e76           trapv
      > 0x0059de4e      defc003a       adda.w 0x3a, a7
          0x0059de52      48e7e0f8       movem.l d0-d2/a0-a4, -(a7)
          0x0059de56      7201           moveq 0x1, d1
          0x0059de58      740e           moveq 0xe, d2
          0x0059de5a      554f           subq.w 0x2, a7
          0x0059de5c      2f2e0010       move.l 0x10(a6), -(a7)
          0x0059de60      2f390083fe56   move.l 0x83fe56, -(a7)
          0x0059de66      4ebadfe2       jsr K03_DISKLIST.under(pc)
          0x0059de6a      504f           addq.w 0x8, a7
          0x0059de6c      4a1f           tst.b (a7)+
      < 0x0059de6e      6616           bne.b 0x59de86
         0x0059de70      554f           subq.w 0x2, a7
         0x0059de72      2f2e0010       move.l 0x10(a6), -(a7)
         0x0059de76      2f390083fe4e   move.l 0x83fe4e, -(a7)
         0x0059de7c      4ebadfcc       jsr K03_DISKLIST.under(pc)
         0x0059de80      504f           addq.w 0x8, a7
         0x0059de82      4a1f           tst.b (a7)+
     < 0x0059de84      677c           beq.b 0x59df02
     > 0x0059de86      594f           subq.w 0x4, a7
         0x0059de88      2f2e0010       move.l 0x10(a6), -(a7)
         0x0059de8c      4ebaff1a       jsr K03_DISKLIST.get_disk_to_use(pc)
         0x0059de90      584f           addq.w 0x4, a7
         0x0059de92      285f           movea.l (a7)+, a4
         0x0059de94      b8c1           cmpa.w d1, a4
     < 0x0059de96      6736           beq.b 0x59dece
        0x0059de98      2f0c           move.l a4, -(a7)
        0x0059de9a      1f2e000e       move.b 0xe(a6), -(a7)
        0x0059de9e      554f           subq.w 0x2, a7
        0x0059dea0      2f2e0010       move.l 0x10(a6), -(a7)
        0x0059dea4      2f390083fe56   move.l 0x83fe56, -(a7)
        0x0059deaa      4ebadf9e       jsr K03_DISKLIST.under(pc)
        0x0059deae      504f           addq.w 0x8, a7
        0x0059deb0      1017           move.b (a7), d0
        0x0059deb2      4880           ext.w d0
        0x0059deb4      4181           chk.w d1, d0
        0x0059deb6      1e80           move.b d0, (a7)
        0x0059deb8      1f2e000c       move.b 0xc(a6), -(a7)
        0x0059debc      206e0008       movea.l 0x8(a6), a0
        0x0059dec0      4850           pea.l (a0)
        0x0059dec2      4eb90059dfde   jsr K03_DISKLIST.get_node_status
        0x0059dec8      dec2           adda.w d2, a7
    < 0x0059deca      6000010a       bra.w 0x59dfd6
    > 0x0059dece      2f2e0010       move.l 0x10(a6), -(a7)
        0x0059ded2      554f           subq.w 0x2, a7
        0x0059ded4      2f2e0010       move.l 0x10(a6), -(a7)
        0x0059ded8      2f390083fe56   move.l 0x83fe56, -(a7)
        0x0059dede      4ebadf6a       jsr K03_DISKLIST.under(pc)
        0x0059dee2      504f           addq.w 0x8, a7
        0x0059dee4      1017           move.b (a7), d0
        0x0059dee6      4880           ext.w d0
        0x0059dee8      4181           chk.w d1, d0
        0x0059deea      1e80           move.b d0, (a7)
        0x0059deec      1f2e000c       move.b 0xc(a6), -(a7)
        0x0059def0      206e0008       movea.l 0x8(a6), a0
        0x0059def4      4850           pea.l (a0)
        0x0059def6      4ebafdb4       jsr K03_DISKLIST.mixed_status(pc)
        0x0059defa      defc000c       adda.w 0xc, a7
    < 0x0059defe      600000d6       bra.w 0x59dfd6
    > 0x0059df02      286e0010       movea.l 0x10(a6), a4
        0x0059df06      206e0010       movea.l 0x10(a6), a0
        0x0059df0a      b1e8fffc       cmpa.l -0x4(a0), a0
    < 0x0059df0e      6702           beq.b 0x59df12
       0x0059df10      4e4d           trap 0xd
    > 0x0059df12      22680008       movea.l 0x8(a0), a1
        0x0059df16      b3e9fffc       cmpa.l -0x4(a1), a1
    < 0x0059df1a      6702           beq.b 0x59df1e
       0x0059df1c      4e4d           trap 0xd
    > 0x0059df1e      22690004       movea.l 0x4(a1), a1
        0x0059df22      b2c1           cmpa.w d1, a1
    < 0x0059df24      660000a2       bne.w 0x59dfc8
       0x0059df28      4a2e000c       tst.b 0xc(a6)
   < 0x0059df2c      6700009a       beq.w 0x59dfc8
      0x0059df30      28680008       movea.l 0x8(a0), a4
      0x0059df34      226e0008       movea.l 0x8(a6), a1
      0x0059df38      2f0c           move.l a4, -(a7)
      0x0059df3a      1f2e000e       move.b 0xe(a6), -(a7)
      0x0059df3e      4227           clr.b -(a7)
      0x0059df40      1f2e000c       move.b 0xc(a6), -(a7)
      0x0059df44      4851           pea.l (a1)
      0x0059df46      4eb90059dfde   jsr K03_DISKLIST.get_node_status
      0x0059df4c      dec2           adda.w d2, a7
      0x0059df4e      24680024       movea.l 0x24(a0), a2
      0x0059df52      b5eafffc       cmpa.l -0x4(a2), a2
  < 0x0059df56      6702           beq.b 0x59df5a
     0x0059df58      4e4d           trap 0xd
  > 0x0059df5a      102a0300       move.b 0x300(a2), d0
      0x0059df5e      0c000005       cmpi.b 0x5, d0
  < 0x0059df62      6618           bne.b 0x59df7c
     0x0059df64      554f           subq.w 0x2, a7
     0x0059df66      2f2e0010       move.l 0x10(a6), -(a7)
     0x0059df6a      4ebafbf2       jsr K03_DISKLIST.get_mailable(pc)
     0x0059df6e      584f           addq.w 0x4, a7
     0x0059df70      101f           move.b (a7)+, d0
     0x0059df72      4880           ext.w d0
     0x0059df74      41bc0007       chk.w 0x7, d0
     0x0059df78      13400003       move.b d0, 0x3(a1)
  > 0x0059df7c      554f           subq.w 0x2, a7
      0x0059df7e      2f2e0010       move.l 0x10(a6), -(a7)
      0x0059df82      2f390083fe4a   move.l 0x83fe4a, -(a7)
      0x0059df88      4ebadec0       jsr K03_DISKLIST.under(pc)
      0x0059df8c      504f           addq.w 0x8, a7
      0x0059df8e      4a1f           tst.b (a7)+
  < 0x0059df90      6744           beq.b 0x59dfd6
     0x0059df92      24680024       movea.l 0x24(a0), a2
     0x0059df96      b5eafffc       cmpa.l -0x4(a2), a2
 < 0x0059df9a      6702           beq.b 0x59df9e
    0x0059df9c      4e4d           trap 0xd
 > 0x0059df9e      2f0a           move.l a2, -(a7)
     0x0059dfa0      47e90305       lea.l 0x305(a1), a3
     0x0059dfa4      45ea0100       lea.l 0x100(a2), a2
     0x0059dfa8      303c00ff       move.w 0xff, d0
 > 0x0059dfac      16da           move.b (a2)+, (a3)+
 < 0x0059dfae      51c8fffc       dbra d0, 0x59dfac
     0x0059dfb2      245f           movea.l (a7)+, a2
     0x0059dfb4      47e90405       lea.l 0x405(a1), a3
     0x0059dfb8      45ea0200       lea.l 0x200(a2), a2
     0x0059dfbc      303c00ff       move.w 0xff, d0
 > 0x0059dfc0      16da           move.b (a2)+, (a3)+
 < 0x0059dfc2      51c8fffc       dbra d0, 0x59dfc0
 < 0x0059dfc6      600e           bra.b 0x59dfd6
 > 0x0059dfc8      2f0c           move.l a4, -(a7)
      0x0059dfca      206e0008       movea.l 0x8(a6), a0
      0x0059dfce      4850           pea.l (a0)
      0x0059dfd0      4ebafc04       jsr K03_DISKLIST.single_supervol(pc)
      0x0059dfd4      504f           addq.w 0x8, a7
 > 0x0059dfd6      4cdf1f07       movem.l (a7)+, d0-d2/a0-a4
          0x0059dfda      4e5e           unlk a6
          0x0059dfdc      4e75           rts
           ; XREFS: CALL 0x0059dd12  CALL 0x0059dd40  CALL 0x0059dd82  
           ; XREFS: CALL 0x0059dec2  CALL 0x0059df46  CALL 0x0059e0fc  
 134: K03_DISKLIST.get_node_status ();
          0x0059dfde      4e56ffd4       link.w a6, 0xffd4
          0x0059dfe2      bfd5           cmpa.l (a5), a7
      < 0x0059dfe4      6206           bhi.b 0x59dfec
         0x0059dfe6      44fc0002       move.w 0x2, ccr
         0x0059dfea      4e76           trapv
      > 0x0059dfec      defc002c       adda.w 0x2c, a7
          0x0059dff0      48e780f8       movem.l d0/a0-a4, -(a7)
          0x0059dff4      49ee0008       lea.l 0x8(a6), a4
          0x0059dff8      206e0012       movea.l 0x12(a6), a0
          0x0059dffc      b0fc0001       cmpa.w 0x1, a0
      < 0x0059e000      6642           bne.b 0x59e044
         0x0059e002      2254           movea.l (a4), a1
         0x0059e004      4211           clr.b (a1)
         0x0059e006      42290001       clr.b 0x1(a1)
         0x0059e00a      42290002       clr.b 0x2(a1)
         0x0059e00e      42290003       clr.b 0x3(a1)
         0x0059e012      45e90005       lea.l 0x5(a1), a2
         0x0059e016      47fabae3       lea.l 0x599afb(pc), a3
         0x0059e01a      7004           moveq 0x4, d0
     > 0x0059e01c      14db           move.b (a3)+, (a2)+
     < 0x0059e01e      51c8fffc       dbra d0, 0x59e01c
         0x0059e022      45e90105       lea.l 0x105(a1), a2
         0x0059e026      47fabad8       lea.l 0x599b00(pc), a3
         0x0059e02a      7005           moveq 0x5, d0
     > 0x0059e02c      14db           move.b (a3)+, (a2)+
     < 0x0059e02e      51c8fffc       dbra d0, 0x59e02c
         0x0059e032      43e90205       lea.l 0x205(a1), a1
         0x0059e036      45fabace       lea.l 0x599b06(pc), a2
         0x0059e03a      7004           moveq 0x4, d0
     > 0x0059e03c      12da           move.b (a2)+, (a1)+
     < 0x0059e03e      51c8fffc       dbra d0, 0x59e03c
     < 0x0059e042      605e           bra.b loc.0059e0a2
     > 0x0059e044      b1e8fffc       cmpa.l -0x4(a0), a0
     < 0x0059e048      6702           beq.b 0x59e04c
        0x0059e04a      4e4d           trap 0xd
     > 0x0059e04c      10280022       move.b 0x22(a0), d0
         0x0059e050      4880           ext.w d0
         0x0059e052      0c400002       cmpi.w 0x2, d0
     < 0x0059e056      6302           bls.b 0x59e05a
        0x0059e058      4e4e           trap 0xe
     > 0x0059e05a      d040           add.w d0, d0
         0x0059e05c      303b0006       move.w 0x59e064(pc, d0.w), d0
         0x0059e060      4efb0002       jmp 0x59e064(pc, d0.w)
          0x0059e064      0006001e       ori.b 0x1e, d6
          0x0059e068      00322f081f2e.  ori.b 0x8, ([0x10, a2], d1.l * 8, 0x1f2e)
          0x0059e072      000c2254       
          0x0059e073      0c225448       cmpi.b 0x48, -(a2)
          0x0059e077      514e           subq.w 0x8, a6
          0x0059e079      bafdc6de       
          0x0059e07a      fdc6           invalid
      > 0x0059e07c      defc000c       adda.w 0xc, a7
     < 0x0059e080      6020           bra.b loc.0059e0a2
        0x0059e082      2f08           move.l a0, -(a7)
        0x0059e084      1f2e0010       move.b 0x10(a6), -(a7)
        0x0059e088      1f2e000e       move.b 0xe(a6), -(a7)
        0x0059e08c      2254           movea.l (a4), a1
        0x0059e08e      4851           pea.l (a1)
        0x0059e090      4ebaf684       jsr K03_DISKLIST.get_volume_stat(pc)
     < 0x0059e094      60e6           bra.b 0x59e07c
         0x0059e096      2f08           move.l a0, -(a7)
         0x0059e098      2254           movea.l (a4), a1
         0x0059e09a      4851           pea.l (a1)
         0x0059e09c      4ebaf9a0       jsr K03_DISKLIST.get_subvolume_s(pc)
         0x0059e0a0      504f           addq.w 0x8, a7
         ; CODE XREF from K03_DISKLIST.get_node_status @ 0x59e042
 8: loc.0059e0a2 ();
    > 0x0059e0a2      4cdf1f01       movem.l (a7)+, d0/a0-a4
          0x0059e0a6      4e5e           unlk a6
          0x0059e0a8      4e75           rts
           ; CALL XREF from K0_DISKMGR.k_node_status @ 0x5984b4
 98: K03_DISKLIST.k03_node_status ();
          0x0059e0aa      4e56ffd8       link.w a6, 0xffd8
          0x0059e0ae      bfd5           cmpa.l (a5), a7
      < 0x0059e0b0      6206           bhi.b 0x59e0b8
         0x0059e0b2      44fc0002       move.w 0x2, ccr
         0x0059e0b6      4e76           trapv
      > 0x0059e0b8      defc0024       adda.w 0x24, a7
          0x0059e0bc      48e7c088       movem.l d0-d1/a0/a4, -(a7)
          0x0059e0c0      7201           moveq 0x1, d1
          0x0059e0c2      202e000e       move.l 0xe(a6), d0
          0x0059e0c6      0c80ffffffff   cmpi.l 0xffffffff, d0
      < 0x0059e0cc      6604           bne.b 0x59e0d2
         0x0059e0ce      3841           movea.w d1, a4
     < 0x0059e0d0      6004           bra.b 0x59e0d6
     > 0x0059e0d2      2f00           move.l d0, -(a7)
         0x0059e0d4      285f           movea.l (a7)+, a4
     > 0x0059e0d6      2f0c           move.l a4, -(a7)
          0x0059e0d8      4227           clr.b -(a7)
          0x0059e0da      554f           subq.w 0x2, a7
          0x0059e0dc      2f0c           move.l a4, -(a7)
          0x0059e0de      2f390083fe56   move.l 0x83fe56, -(a7)
          0x0059e0e4      4ebadd64       jsr K03_DISKLIST.under(pc)
          0x0059e0e8      504f           addq.w 0x8, a7
          0x0059e0ea      1017           move.b (a7), d0
          0x0059e0ec      4880           ext.w d0
          0x0059e0ee      4181           chk.w d1, d0
          0x0059e0f0      1e80           move.b d0, (a7)
          0x0059e0f2      1f2e000c       move.b 0xc(a6), -(a7)
          0x0059e0f6      206e0008       movea.l 0x8(a6), a0
          0x0059e0fa      4850           pea.l (a0)
          0x0059e0fc      4ebafee0       jsr K03_DISKLIST.get_node_status(pc)
          0x0059e100      defc000e       adda.w 0xe, a7
          0x0059e104      4cdf1103       movem.l (a7)+, d0-d1/a0/a4
          0x0059e108      4e5e           unlk a6
          0x0059e10a      4e75           rts
 68: K03_DISKLIST.result_error ();
          0x0059e10c      4e56fff0       link.w a6, 0xfff0
          0x0059e110      bfd5           cmpa.l (a5), a7
      < 0x0059e112      6206           bhi.b 0x59e11a
         0x0059e114      44fc0002       move.w 0x2, ccr
         0x0059e118      4e76           trapv
      > 0x0059e11a      defc0010       adda.w 0x10, a7
          0x0059e11e      48e7c000       movem.l d0-d1, -(a7)
          0x0059e122      4eb900404154   jsr p_Link
          0x0059e128      4280           clr.l d0
          0x0059e12a      102e0008       move.b 0x8(a6), d0
          0x0059e12e      e180           asl.l 0x8, d0
          0x0059e130      00804b000000   ori.l 0x4b000000, d0
          0x0059e136      4281           clr.l d1
          0x0059e138      122e0009       move.b 0x9(a6), d1
          0x0059e13c      8280           or.l d0, d1
          0x0059e13e      2f01           move.l d1, -(a7)
          0x0059e140      4eb900404012   jsr p_Push
          0x0059e146      584f           addq.w 0x4, a7
          0x0059e148      4cdf0003       movem.l (a7)+, d0-d1
          0x0059e14c      4e5e           unlk a6
          0x0059e14e      4e75           rts
           ; CALL XREFS from K03_DISKLIST.k03_select_node @ 0x4f12, 0x59eda8
 56: K03_DISKLIST.error ();
          0x0059e150      4e56fff4       link.w a6, 0xfff4
          0x0059e154      bfd5           cmpa.l (a5), a7
      < 0x0059e156      6206           bhi.b 0x59e15e
         0x0059e158      44fc0002       move.w 0x2, ccr
         0x0059e15c      4e76           trapv
      > 0x0059e15e      defc000c       adda.w 0xc, a7
          0x0059e162      48e78000       movem.l d0, -(a7)
          0x0059e166      4eb900404154   jsr p_Link
          0x0059e16c      203c4b000000   move.l 0x4b000000, d0
          0x0059e172      80ae0008       or.l 0x8(a6), d0
          0x0059e176      2f00           move.l d0, -(a7)
          0x0059e178      4eb900404012   jsr p_Push
          0x0059e17e      584f           addq.w 0x4, a7
          0x0059e180      4cdf0001       movem.l (a7)+, d0
          0x0059e184      4e5e           unlk a6
          0x0059e186      4e75           rts
 148: K03_DISKLIST.set_sv_select (int32_t arg_ch);
          ; var int32_t var_4h @ a6-0x4
          ; arg int32_t arg_ch @ a6+0xc
          0x0059e188      4e56feb8       link.w a6, 0xfeb8
          0x0059e18c      bfd5           cmpa.l (a5), a7
      < 0x0059e18e      6206           bhi.b 0x59e196
         0x0059e190      44fc0002       move.w 0x2, ccr
         0x0059e194      4e76           trapv
      > 0x0059e196      defc0034       adda.w 0x34, a7
          0x0059e19a      48e7f1f0       movem.l d0-d3/d7/a0-a3, -(a7)
          0x0059e19e      45eefeec       lea.l -0x114(a6), a2
          0x0059e1a2      47f9004047ea   lea.l p_wts_o, a3
          0x0059e1a8      7201           moveq 0x1, d1
          0x0059e1aa      740a           moveq 0xa, d2
          0x0059e1ac      760c           moveq 0xc, d3
          0x0059e1ae      1d41000e       move.b d1, 0xe(a6)
          0x0059e1b2      206e000a       movea.l 0xa(a6), a0
          0x0059e1b6      b1e8fffc       cmpa.l -0x4(a0), a0
      < 0x0059e1ba      6702           beq.b 0x59e1be
         0x0059e1bc      4e4d           trap 0xd
      > 0x0059e1be      2250           movea.l (a0), a1
          0x0059e1c0      b3e9fffc       cmpa.l -0x4(a1), a1
      < 0x0059e1c4      6702           beq.b 0x59e1c8
         0x0059e1c6      4e4d           trap 0xd
      > 0x0059e1c8      22690024       movea.l 0x24(a1), a1
          0x0059e1cc      b3e9fffc       cmpa.l -0x4(a1), a1
      < 0x0059e1d0      6702           beq.b 0x59e1d4
         0x0059e1d2      4e4d           trap 0xd
      > 0x0059e1d4      2e29000e       move.l 0xe(a1), d7
          0x0059e1d8      20680024       movea.l 0x24(a0), a0
          0x0059e1dc      b1e8fffc       cmpa.l -0x4(a0), a0
      < 0x0059e1e0      6702           beq.b 0x59e1e4
         0x0059e1e2      4e4d           trap 0xd
      > 0x0059e1e4      2d68000cfffc   move.l 0xc(a0), -0x4(a6)
          0x0059e1ea      2d6efffcfeee   move.l -0x4(a6), -0x112(a6)
          0x0059e1f0      554f           subq.w 0x2, a7
          0x0059e1f2      2f07           move.l d7, -(a7)
          0x0059e1f4      4227           clr.b -(a7)
          0x0059e1f6      4852           pea.l (a2)
          0x0059e1f8      4eb900598346   jsr K0_DISKMGR.k_subvol
          0x0059e1fe      dec2           adda.w d2, a7
          0x0059e200      4a1f           tst.b (a7)+
      < 0x0059e202      6766           beq.b 0x59e26a
         0x0059e204      102e0008       move.b 0x8(a6), d0
         0x0059e208      4880           ext.w d0
         0x0059e20a      0c400002       cmpi.w 0x2, d0
     < 0x0059e20e      6302           bls.b 0x59e212
        0x0059e210      4e4e           trap 0xe
     > 0x0059e212      d040           add.w d0, d0
         0x0059e214      303b0006       move.w 0x59e21c(pc, d0.w), d0
         0x0059e218      4efb0002       jmp 0x59e21c(pc, d0.w)
          0x0059e21c      000e0006       
          0x0059e21d      0e000600       
          0x0059e21e      0006000a       ori.b 0xa, d6
          0x0059e222      4212           clr.b (a2)
      < 0x0059e224      6016           bra.b 0x59e23c
         0x0059e226      1481           move.b d1, (a2)
     < 0x0059e228      6012           bra.b 0x59e23c
        0x0059e22a      4a12           tst.b (a2)
    < 0x0059e22c      6708           beq.b 0x59e236
       0x0059e22e      1012           move.b (a2), d0
       0x0059e230      b001           cmp.b d1, d0
   < 0x0059e232      6706           beq.b 0x59e23a
      0x0059e234      4e4e           trap 0xe
   > 0x0059e236      1481           move.b d1, (a2)
   < 0x0059e238      6002           bra.b 0x59e23c
   > 0x0059e23a      4212           clr.b (a2)
    > 0x0059e23c      554f           subq.w 0x2, a7
          0x0059e23e      2f07           move.l d7, -(a7)
          0x0059e240      1f01           move.b d1, -(a7)
          0x0059e242      4852           pea.l (a2)
          0x0059e244      4eb900598346   jsr K0_DISKMGR.k_subvol
          0x0059e24a      dec2           adda.w d2, a7
          0x0059e24c      4a1f           tst.b (a7)+
      < 0x0059e24e      6678           bne.b 0x59e2c8
         0x0059e250      487ab8f3       pea.l 0x599b45(pc)
         0x0059e254      4878001e       pea.l 0x1e
         0x0059e258      2f17           move.l (a7), -(a7)
         0x0059e25a      4e93           jsr (a3)                    ; fcn.0000000c
         0x0059e25c      dec3           adda.w d3, a7
         0x0059e25e      4eb900404946   jsr p_wtln_o
         0x0059e264      48780004       pea.l 0x4
     < 0x0059e268      6054           bra.b 0x59e2be
     > 0x0059e26a      487ab8f8       pea.l 0x599b64(pc)
         0x0059e26e      48780007       pea.l 0x7
         0x0059e272      2f17           move.l (a7), -(a7)
         0x0059e274      4e93           jsr (a3)                    ; fcn.0000000c
         0x0059e276      504f           addq.w 0x8, a7
         0x0059e278      2e87           move.l d7, (a7)
         0x0059e27a      4878ffff       pea.l 0xffff
         0x0059e27e      4eb9004070e4   jsr p_wti_o
         0x0059e284      5c4f           addq.w 0x6, a7
         0x0059e286      1ebc002e       move.b 0x2e, (a7)
         0x0059e28a      48780001       pea.l 0x1
         0x0059e28e      4eb9004048b4   jsr p_wtc_o
         0x0059e294      544f           addq.w 0x2, a7
         0x0059e296      2eaefeee       move.l -0x112(a6), (a7)
         0x0059e29a      4878ffff       pea.l 0xffff
         0x0059e29e      4eb9004070e4   jsr p_wti_o
         0x0059e2a4      504f           addq.w 0x8, a7
         0x0059e2a6      487ab8c4       pea.l 0x599b6c(pc)
         0x0059e2aa      4878000b       pea.l 0xb
         0x0059e2ae      2f17           move.l (a7), -(a7)
         0x0059e2b0      4e93           jsr (a3)                    ; fcn.0000000c
         0x0059e2b2      dec3           adda.w d3, a7
         0x0059e2b4      4eb900404946   jsr p_wtln_o
         0x0059e2ba      48780005       pea.l 0x5
     > 0x0059e2be      4ebafe90       jsr K03_DISKLIST.error(pc)
          0x0059e2c2      584f           addq.w 0x4, a7
          0x0059e2c4      422e000e       clr.b 0xe(a6)
      > 0x0059e2c8      4cdf0f8f       movem.l (a7)+, d0-d3/d7/a0-a3
           0x0059e2cc      4e5e           unlk a6
           0x0059e2ce      4e75           rts
 322: K03_DISKLIST.do_interlocks ();
          0x0059e2d0      4e56ffba       link.w a6, 0xffba
          0x0059e2d4      bfd5           cmpa.l (a5), a7
      < 0x0059e2d6      6206           bhi.b 0x59e2de
         0x0059e2d8      44fc0002       move.w 0x2, ccr
         0x0059e2dc      4e76           trapv
      > 0x0059e2de      defc0046       adda.w 0x46, a7
          0x0059e2e2      48e7f0f8       movem.l d0-d3/a0-a4, -(a7)
          0x0059e2e6      45ee0008       lea.l 0x8(a6), a2
          0x0059e2ea      47f90059eca4   lea.l K03_DISKLIST.set_node_select, a3
          0x0059e2f0      49f900404188   lea.l p_Unlink, a4
          0x0059e2f6      7201           moveq 0x1, d1
          0x0059e2f8      7402           moveq 0x2, d2
          0x0059e2fa      7614           moveq 0x14, d3
          0x0059e2fc      102e000c       move.b 0xc(a6), d0
          0x0059e300      b001           cmp.b d1, d0
      < 0x0059e302      6622           bne.b 0x59e326
         0x0059e304      554f           subq.w 0x2, a7
         0x0059e306      2f390083fe46   move.l 0x83fe46, -(a7)
         0x0059e30c      2f2e000e       move.l 0xe(a6), -(a7)
         0x0059e310      1f02           move.b d2, -(a7)
         0x0059e312      4227           clr.b -(a7)
         0x0059e314      1f00           move.b d0, -(a7)
         0x0059e316      1f01           move.b d1, -(a7)
         0x0059e318      2052           movea.l (a2), a0
         0x0059e31a      4850           pea.l (a0)
         0x0059e31c      4e93           jsr (a3)                    ; fcn.0000000c
         0x0059e31e      dec3           adda.w d3, a7
         0x0059e320      4a1f           tst.b (a7)+
     < 0x0059e322      6602           bne.b 0x59e326
        0x0059e324      4e94           jsr (a4)                    ; fcn.0000000d
     > 0x0059e326      4a00           tst.b d0
      < 0x0059e328      6638           bne.b 0x59e362
         0x0059e32a      554f           subq.w 0x2, a7
         0x0059e32c      2f2e0012       move.l 0x12(a6), -(a7)
         0x0059e330      2f390083fe56   move.l 0x83fe56, -(a7)
         0x0059e336      4ebadb12       jsr K03_DISKLIST.under(pc)
         0x0059e33a      504f           addq.w 0x8, a7
         0x0059e33c      4a1f           tst.b (a7)+
     < 0x0059e33e      6722           beq.b 0x59e362
        0x0059e340      554f           subq.w 0x2, a7
        0x0059e342      2f390083fe56   move.l 0x83fe56, -(a7)
        0x0059e348      48780001       pea.l 0x1
        0x0059e34c      1f02           move.b d2, -(a7)
        0x0059e34e      4227           clr.b -(a7)
        0x0059e350      1f00           move.b d0, -(a7)
        0x0059e352      1f01           move.b d1, -(a7)
        0x0059e354      2052           movea.l (a2), a0
        0x0059e356      4850           pea.l (a0)
        0x0059e358      4e93           jsr (a3)                    ; fcn.0000000c
        0x0059e35a      dec3           adda.w d3, a7
        0x0059e35c      4a1f           tst.b (a7)+
    < 0x0059e35e      6602           bne.b 0x59e362
       0x0059e360      4e94           jsr (a4)                    ; fcn.0000000d
    > 0x0059e362      4880           ext.w d0
          0x0059e364      013ab868       btst.l d0, 0x599bce(pc)
      < 0x0059e368      6738           beq.b 0x59e3a2
         0x0059e36a      554f           subq.w 0x2, a7
         0x0059e36c      2f2e0012       move.l 0x12(a6), -(a7)
         0x0059e370      2f390083fe4e   move.l 0x83fe4e, -(a7)
         0x0059e376      4ebadad2       jsr K03_DISKLIST.under(pc)
         0x0059e37a      504f           addq.w 0x8, a7
         0x0059e37c      4a1f           tst.b (a7)+
     < 0x0059e37e      6722           beq.b 0x59e3a2
        0x0059e380      554f           subq.w 0x2, a7
        0x0059e382      2f390083fe4e   move.l 0x83fe4e, -(a7)
        0x0059e388      48780001       pea.l 0x1
        0x0059e38c      1f02           move.b d2, -(a7)
        0x0059e38e      4227           clr.b -(a7)
        0x0059e390      1f00           move.b d0, -(a7)
        0x0059e392      1f01           move.b d1, -(a7)
        0x0059e394      2052           movea.l (a2), a0
        0x0059e396      4850           pea.l (a0)
        0x0059e398      4e93           jsr (a3)                    ; fcn.0000000c
        0x0059e39a      dec3           adda.w d3, a7
        0x0059e39c      4a1f           tst.b (a7)+
    < 0x0059e39e      6602           bne.b 0x59e3a2
       0x0059e3a0      4e94           jsr (a4)                    ; fcn.0000000d
    > 0x0059e3a2      206e0012       movea.l 0x12(a6), a0
          0x0059e3a6      b1e8fffc       cmpa.l -0x4(a0), a0
      < 0x0059e3aa      6702           beq.b 0x59e3ae
         0x0059e3ac      4e4d           trap 0xd
      > 0x0059e3ae      2250           movea.l (a0), a1
          0x0059e3b0      b3f90083fe52   cmpa.l 0x83fe52, a1
      < 0x0059e3b6      6622           bne.b 0x59e3da
         0x0059e3b8      554f           subq.w 0x2, a7
         0x0059e3ba      2f390083fe46   move.l 0x83fe46, -(a7)
         0x0059e3c0      48780001       pea.l 0x1
         0x0059e3c4      1f02           move.b d2, -(a7)
         0x0059e3c6      4227           clr.b -(a7)
         0x0059e3c8      1f00           move.b d0, -(a7)
         0x0059e3ca      1f01           move.b d1, -(a7)
         0x0059e3cc      2252           movea.l (a2), a1
         0x0059e3ce      4851           pea.l (a1)
         0x0059e3d0      4e93           jsr (a3)                    ; fcn.0000000c
         0x0059e3d2      dec3           adda.w d3, a7
         0x0059e3d4      4a1f           tst.b (a7)+
     < 0x0059e3d6      6602           bne.b 0x59e3da
        0x0059e3d8      4e94           jsr (a4)                    ; fcn.0000000d
     > 0x0059e3da      4a40           tst.w d0
      < 0x0059e3dc      662c           bne.b 0x59e40a
         0x0059e3de      2050           movea.l (a0), a0
         0x0059e3e0      b1f90083fe52   cmpa.l 0x83fe52, a0
     < 0x0059e3e6      6722           beq.b 0x59e40a
        0x0059e3e8      554f           subq.w 0x2, a7
        0x0059e3ea      2f390083fe52   move.l 0x83fe52, -(a7)
        0x0059e3f0      48780001       pea.l 0x1
        0x0059e3f4      1f02           move.b d2, -(a7)
        0x0059e3f6      4227           clr.b -(a7)
        0x0059e3f8      1f00           move.b d0, -(a7)
        0x0059e3fa      1f01           move.b d1, -(a7)
        0x0059e3fc      2052           movea.l (a2), a0
        0x0059e3fe      4850           pea.l (a0)
        0x0059e400      4e93           jsr (a3)                    ; fcn.0000000c
        0x0059e402      dec3           adda.w d3, a7
        0x0059e404      4a1f           tst.b (a7)+
    < 0x0059e406      6602           bne.b 0x59e40a
       0x0059e408      4e94           jsr (a4)                    ; fcn.0000000d
    > 0x0059e40a      4cdf1f0f       movem.l (a7)+, d0-d3/a0-a4
          0x0059e40e      4e5e           unlk a6
          0x0059e410      4e75           rts
           ; CALL XREFS from K03_DISKLIST.set_select @ 0x59e5a4, 0x59e5b8
           ; CALL XREFS from K03_DISKLIST.k03_add_vol @ 0x59fd4c, 0x59fd76
 148: K03_DISKLIST.set_chain ();
          0x0059e412      4e56ffe6       link.w a6, 0xffe6
          0x0059e416      bfd5           cmpa.l (a5), a7
      < 0x0059e418      6206           bhi.b 0x59e420
         0x0059e41a      44fc0002       move.w 0x2, ccr
         0x0059e41e      4e76           trapv
      > 0x0059e420      defc001a       adda.w 0x1a, a7
          0x0059e424      48e780c0       movem.l d0/a0-a1, -(a7)
          0x0059e428      43ee000c       lea.l 0xc(a6), a1
          0x0059e42c      554f           subq.w 0x2, a7
          0x0059e42e      2f11           move.l (a1), -(a7)
          0x0059e430      2f2e0008       move.l 0x8(a6), -(a7)
          0x0059e434      4ebada14       jsr K03_DISKLIST.under(pc)
          0x0059e438      504f           addq.w 0x8, a7
          0x0059e43a      4a1f           tst.b (a7)+
      < 0x0059e43c      6760           beq.b 0x59e49e
     > 0x0059e43e      4a2e0012       tst.b 0x12(a6)
    < 0x0059e442      6722           beq.b 0x59e466
       0x0059e444      102e0010       move.b 0x10(a6), d0
       0x0059e448      4880           ext.w d0
       0x0059e44a      e540           asl.w 0x2, d0
       0x0059e44c      2051           movea.l (a1), a0
       0x0059e44e      b1e8fffc       cmpa.l -0x4(a0), a0
   < 0x0059e452      6702           beq.b 0x59e456
      0x0059e454      4e4d           trap 0xd
   > 0x0059e456      2050           movea.l (a0), a0
       0x0059e458      b1e8fffc       cmpa.l -0x4(a0), a0
   < 0x0059e45c      6702           beq.b 0x59e460
      0x0059e45e      4e4d           trap 0xd
   > 0x0059e460      21910010       move.l (a1), 0x10(a0, d0.w)
   < 0x0059e464      6024           bra.b 0x59e48a
   > 0x0059e466      102e0010       move.b 0x10(a6), d0
       0x0059e46a      4880           ext.w d0
       0x0059e46c      e540           asl.w 0x2, d0
       0x0059e46e      2051           movea.l (a1), a0
       0x0059e470      b1e8fffc       cmpa.l -0x4(a0), a0
   < 0x0059e474      6702           beq.b 0x59e478
      0x0059e476      4e4d           trap 0xd
   > 0x0059e478      2050           movea.l (a0), a0
       0x0059e47a      b1e8fffc       cmpa.l -0x4(a0), a0
   < 0x0059e47e      6702           beq.b 0x59e482
      0x0059e480      4e4d           trap 0xd
   > 0x0059e482      21bc00000001.  move.l 0x1, 0x10(a0, d0.w)
   > 0x0059e48a      2051           movea.l (a1), a0
        0x0059e48c      b1e8fffc       cmpa.l -0x4(a0), a0
    < 0x0059e490      6702           beq.b 0x59e494
       0x0059e492      4e4d           trap 0xd
    > 0x0059e494      2290           move.l (a0), (a1)
        0x0059e496      2051           movea.l (a1), a0
        0x0059e498      b1ee0008       cmpa.l 0x8(a6), a0
     < 0x0059e49c      66a0           bne.b 0x59e43e
      > 0x0059e49e      4cdf0301       movem.l (a7)+, d0/a0-a1
          0x0059e4a2      4e5e           unlk a6
          0x0059e4a4      4e75           rts
           ; CALL XREFS from K03_DISKLIST.default_me @ 0x59e530, 0x59e546
 94: K03_DISKLIST.get_crnt_disk ();
          0x0059e4a6      4e56ffd6       link.w a6, 0xffd6
          0x0059e4aa      bfd5           cmpa.l (a5), a7
      < 0x0059e4ac      6206           bhi.b 0x59e4b4
         0x0059e4ae      44fc0002       move.w 0x2, ccr
         0x0059e4b2      4e76           trapv
      > 0x0059e4b4      defc0024       adda.w 0x24, a7
          0x0059e4b8      48e7e188       movem.l d0-d2/d7/a0/a4, -(a7)
          0x0059e4bc      7401           moveq 0x1, d2
          0x0059e4be      286e0008       movea.l 0x8(a6), a4
          0x0059e4c2      7e00           moveq 0x0, d7
          0x0059e4c4      102e000c       move.b 0xc(a6), d0
          0x0059e4c8      4880           ext.w d0
          0x0059e4ca      e540           asl.w 0x2, d0
      > 0x0059e4cc      b8c2           cmpa.w d2, a4
     < 0x0059e4ce      6728           beq.b 0x59e4f8
        0x0059e4d0      4a07           tst.b d7
    < 0x0059e4d2      6624           bne.b 0x59e4f8
       0x0059e4d4      b9ecfffc       cmpa.l -0x4(a4), a4
   < 0x0059e4d8      6702           beq.b 0x59e4dc
      0x0059e4da      4e4d           trap 0xd
   > 0x0059e4dc      122c0022       move.b 0x22(a4), d1
       0x0059e4e0      b202           cmp.b d2, d1
   < 0x0059e4e2      6604           bne.b 0x59e4e8
      0x0059e4e4      7e01           moveq 0x1, d7
  < 0x0059e4e6      600e           bra.b 0x59e4f6
  > 0x0059e4e8      20740010       movea.l 0x10(a4, d0.w), a0
      0x0059e4ec      b0c2           cmpa.w d2, a0
  < 0x0059e4ee      6604           bne.b 0x59e4f4
     0x0059e4f0      3842           movea.w d2, a4
 < 0x0059e4f2      6002           bra.b 0x59e4f6
 > 0x0059e4f4      2848           movea.l a0, a4
 < 0x0059e4f6      60d4           bra.b 0x59e4cc
    > 0x0059e4f8      2d4c000e       move.l a4, 0xe(a6)
          0x0059e4fc      4cdf1187       movem.l (a7)+, d0-d2/d7/a0/a4
          0x0059e500      4e5e           unlk a6
          0x0059e502      4e75           rts
           ; CALL XREF from K03_DISKLIST.set_select @ 0x59e60e
 100: K03_DISKLIST.default_me ();
          0x0059e504      4e56ffdc       link.w a6, 0xffdc
          0x0059e508      bfd5           cmpa.l (a5), a7
      < 0x0059e50a      6206           bhi.b 0x59e512
         0x0059e50c      44fc0002       move.w 0x2, ccr
         0x0059e510      4e76           trapv
      > 0x0059e512      defc0024       adda.w 0x24, a7
          0x0059e516      48e780e0       movem.l d0/a0-a2, -(a7)
          0x0059e51a      45ee0008       lea.l 0x8(a6), a2
          0x0059e51e      102c0008       move.b 0x8(a4), d0
          0x0059e522      4880           ext.w d0
          0x0059e524      41bc0002       chk.w 0x2, d0
          0x0059e528      2054           movea.l (a4), a0
          0x0059e52a      594f           subq.w 0x4, a7
          0x0059e52c      1f00           move.b d0, -(a7)
          0x0059e52e      2f12           move.l (a2), -(a7)
          0x0059e530      4ebaff74       jsr K03_DISKLIST.get_crnt_disk(pc)
          0x0059e534      5c4f           addq.w 0x6, a7
          0x0059e536      225f           movea.l (a7)+, a1
          0x0059e538      b3e8002e       cmpa.l 0x2e(a0), a1
      < 0x0059e53c      6602           bne.b 0x59e540
     < 0x0059e53e      6014           bra.b 0x59e554
     > 0x0059e540      594f           subq.w 0x4, a7
         0x0059e542      1f00           move.b d0, -(a7)
         0x0059e544      2f12           move.l (a2), -(a7)
         0x0059e546      4ebaff5e       jsr K03_DISKLIST.get_crnt_disk(pc)
         0x0059e54a      5c4f           addq.w 0x6, a7
         0x0059e54c      225f           movea.l (a7)+, a1
         0x0059e54e      b2fc0001       cmpa.w 0x1, a1
     < 0x0059e552      660c           bne.b 0x59e560
     > 0x0059e554      2f28002e       move.l 0x2e(a0), -(a7)
         0x0059e558      2f12           move.l (a2), -(a7)
         0x0059e55a      4ebacb64       jsr K03_DISKLIST.set_default_cha(pc)
         0x0059e55e      504f           addq.w 0x8, a7
      > 0x0059e560      4cdf0701       movem.l (a7)+, d0/a0-a2
          0x0059e564      4e5e           unlk a6
          0x0059e566      4e75           rts
 560: K03_DISKLIST.set_select ();
          0x0059e568      4e56ffc4       link.w a6, 0xffc4
          0x0059e56c      bfd5           cmpa.l (a5), a7
      < 0x0059e56e      6206           bhi.b 0x59e576
         0x0059e570      44fc0002       move.w 0x2, ccr
         0x0059e574      4e76           trapv
      > 0x0059e576      defc0036       adda.w 0x36, a7
          0x0059e57a      48e7e0f8       movem.l d0-d2/a0-a4, -(a7)
          0x0059e57e      45ec002e       lea.l 0x2e(a4), a2
          0x0059e582      7401           moveq 0x1, d2
          0x0059e584      102c0024       move.b 0x24(a4), d0
          0x0059e588      0c000002       cmpi.b 0x2, d0
      < 0x0059e58c      6700008a       beq.w 0x59e618
         0x0059e590      122c0002       move.b 0x2(a4), d1
         0x0059e594      4881           ext.w d1
         0x0059e596      4382           chk.w d2, d1
         0x0059e598      1f01           move.b d1, -(a7)
         0x0059e59a      1f00           move.b d0, -(a7)
         0x0059e59c      2f12           move.l (a2), -(a7)
         0x0059e59e      2f390083fe56   move.l 0x83fe56, -(a7)
         0x0059e5a4      4ebafe6c       jsr K03_DISKLIST.set_chain(pc)
         0x0059e5a8      defc000a       adda.w 0xa, a7
         0x0059e5ac      1e81           move.b d1, (a7)
         0x0059e5ae      1f00           move.b d0, -(a7)
         0x0059e5b0      2f12           move.l (a2), -(a7)
         0x0059e5b2      2f390083fe4e   move.l 0x83fe4e, -(a7)
         0x0059e5b8      4ebafe58       jsr K03_DISKLIST.set_chain(pc)
         0x0059e5bc      defc000c       adda.w 0xc, a7
         0x0059e5c0      4a00           tst.b d0
     < 0x0059e5c2      6706           beq.b 0x59e5ca
        0x0059e5c4      b002           cmp.b d2, d0
    < 0x0059e5c6      6708           beq.b 0x59e5d0
       0x0059e5c8      4e4e           trap 0xe
    > 0x0059e5ca      1d42fffe       move.b d2, -0x2(a6)
    < 0x0059e5ce      6004           bra.b 0x59e5d4
    > 0x0059e5d0      422efffe       clr.b -0x2(a6)
     > 0x0059e5d4      554f           subq.w 0x2, a7
         0x0059e5d6      2f12           move.l (a2), -(a7)
         0x0059e5d8      2f390083fe56   move.l 0x83fe56, -(a7)
         0x0059e5de      4ebad86a       jsr K03_DISKLIST.under(pc)
         0x0059e5e2      504f           addq.w 0x8, a7
         0x0059e5e4      4a1f           tst.b (a7)+
     < 0x0059e5e6      6708           beq.b 0x59e5f0
        0x0059e5e8      2f390083fe56   move.l 0x83fe56, -(a7)
    < 0x0059e5ee      601a           bra.b 0x59e60a
    > 0x0059e5f0      554f           subq.w 0x2, a7
        0x0059e5f2      2f12           move.l (a2), -(a7)
        0x0059e5f4      2f390083fe4e   move.l 0x83fe4e, -(a7)
        0x0059e5fa      4ebad84e       jsr K03_DISKLIST.under(pc)
        0x0059e5fe      504f           addq.w 0x8, a7
        0x0059e600      4a1f           tst.b (a7)+
    < 0x0059e602      6714           beq.b 0x59e618
       0x0059e604      2f390083fe4e   move.l 0x83fe4e, -(a7)
    > 0x0059e60a      49eefff6       lea.l -0xa(a6), a4
        0x0059e60e      4ebafef4       jsr K03_DISKLIST.default_me(pc)
        0x0059e612      584f           addq.w 0x4, a7
        0x0059e614      286efff6       movea.l -0xa(a6), a4
     > 0x0059e618      4a2c0026       tst.b 0x26(a4)
      < 0x0059e61c      6608           bne.b 0x59e626
         0x0059e61e      4a2c0020       tst.b 0x20(a4)
     < 0x0059e622      670000e4       beq.w 0x59e708
     > 0x0059e626      4a2c0002       tst.b 0x2(a4)
     < 0x0059e62a      677a           beq.b 0x59e6a6
        0x0059e62c      2052           movea.l (a2), a0
        0x0059e62e      b1e8fffc       cmpa.l -0x4(a0), a0
    < 0x0059e632      6702           beq.b 0x59e636
       0x0059e634      4e4d           trap 0xd
    > 0x0059e636      2050           movea.l (a0), a0
        0x0059e638      b1e8fffc       cmpa.l -0x4(a0), a0
    < 0x0059e63c      6702           beq.b 0x59e640
       0x0059e63e      4e4d           trap 0xd
    > 0x0059e640      22680024       movea.l 0x24(a0), a1
        0x0059e644      b3e9fffc       cmpa.l -0x4(a1), a1
    < 0x0059e648      6702           beq.b 0x59e64c
       0x0059e64a      4e4d           trap 0xd
    > 0x0059e64c      102c0024       move.b 0x24(a4), d0
        0x0059e650      4880           ext.w d0
        0x0059e652      43f10000       lea.l (a1, d0.w), a1
        0x0059e656      4a290301       tst.b 0x301(a1)
    < 0x0059e65a      664a           bne.b 0x59e6a6
       0x0059e65c      26680008       movea.l 0x8(a0), a3
   > 0x0059e660      b6c2           cmpa.w d2, a3
  < 0x0059e662      6742           beq.b 0x59e6a6
     0x0059e664      b7d2           cmpa.l (a2), a3
 < 0x0059e666      6730           beq.b 0x59e698
    0x0059e668      b7ebfffc       cmpa.l -0x4(a3), a3
 < 0x0059e66c      6702           beq.b 0x59e670
    0x0059e66e      4e4d           trap 0xd
 > 0x0059e670      226b0024       movea.l 0x24(a3), a1
    0x0059e674      b3e9fffc       cmpa.l -0x4(a1), a1
 < 0x0059e678      6702           beq.b 0x59e67c
    0x0059e67a      4e4d           trap 0xd
 > 0x0059e67c      102c0024       move.b 0x24(a4), d0
    0x0059e680      4880           ext.w d0
    0x0059e682      43f10000       lea.l (a1, d0.w), a1
    0x0059e686      4229022e       clr.b 0x22e(a1)
    0x0059e68a      2f2b0024       move.l 0x24(a3), -(a7)
    0x0059e68e      4227           clr.b -(a7)
    0x0059e690      1f00           move.b d0, -(a7)
    0x0059e692      4ebae756       jsr K03_DISKLIST.set_switch(pc)
    0x0059e696      504f           addq.w 0x8, a7
 > 0x0059e698      b7ebfffc       cmpa.l -0x4(a3), a3
 < 0x0059e69c      6702           beq.b 0x59e6a0
    0x0059e69e      4e4d           trap 0xd
 > 0x0059e6a0      266b0004       movea.l 0x4(a3), a3
  < 0x0059e6a4      60ba           bra.b 0x59e660
  > 0x0059e6a6      2052           movea.l (a2), a0
         0x0059e6a8      b1e8fffc       cmpa.l -0x4(a0), a0
     < 0x0059e6ac      6702           beq.b 0x59e6b0
        0x0059e6ae      4e4d           trap 0xd
     > 0x0059e6b0      102c0002       move.b 0x2(a4), d0
         0x0059e6b4      4880           ext.w d0
         0x0059e6b6      4182           chk.w d2, d0
         0x0059e6b8      2f280024       move.l 0x24(a0), -(a7)
         0x0059e6bc      1f00           move.b d0, -(a7)
         0x0059e6be      1f2c0024       move.b 0x24(a4), -(a7)
         0x0059e6c2      4ebae726       jsr K03_DISKLIST.set_switch(pc)
         0x0059e6c6      504f           addq.w 0x8, a7
         0x0059e6c8      22680024       movea.l 0x24(a0), a1
         0x0059e6cc      b3e9fffc       cmpa.l -0x4(a1), a1
     < 0x0059e6d0      6702           beq.b 0x59e6d4
        0x0059e6d2      4e4d           trap 0xd
     > 0x0059e6d4      122c0024       move.b 0x24(a4), d1
         0x0059e6d8      4881           ext.w d1
         0x0059e6da      43f11000       lea.l (a1, d1.w), a1
         0x0059e6de      1340022e       move.b d0, 0x22e(a1)
         0x0059e6e2      2050           movea.l (a0), a0
         0x0059e6e4      b1e8fffc       cmpa.l -0x4(a0), a0
     < 0x0059e6e8      6702           beq.b 0x59e6ec
        0x0059e6ea      4e4d           trap 0xd
     > 0x0059e6ec      20680024       movea.l 0x24(a0), a0
         0x0059e6f0      b1e8fffc       cmpa.l -0x4(a0), a0
     < 0x0059e6f4      6702           beq.b 0x59e6f8
        0x0059e6f6      4e4d           trap 0xd
     > 0x0059e6f8      41f01000       lea.l (a0, d1.w), a0
         0x0059e6fc      11420301       move.b d2, 0x301(a0)
         0x0059e700      11420304       move.b d2, 0x304(a0)
     < 0x0059e704      6000008a       bra.w 0x59e790
     > 0x0059e708      4a2c0002       tst.b 0x2(a4)
     < 0x0059e70c      672a           beq.b 0x59e738
        0x0059e70e      2052           movea.l (a2), a0
        0x0059e710      b1e8fffc       cmpa.l -0x4(a0), a0
    < 0x0059e714      6702           beq.b 0x59e718
       0x0059e716      4e4d           trap 0xd
    > 0x0059e718      2f280024       move.l 0x24(a0), -(a7)
        0x0059e71c      20680024       movea.l 0x24(a0), a0
        0x0059e720      b1e8fffc       cmpa.l -0x4(a0), a0
    < 0x0059e724      6702           beq.b 0x59e728
       0x0059e726      4e4d           trap 0xd
    > 0x0059e728      102c0024       move.b 0x24(a4), d0
        0x0059e72c      4880           ext.w d0
        0x0059e72e      41f00000       lea.l (a0, d0.w), a0
        0x0059e732      1f28022e       move.b 0x22e(a0), -(a7)
    < 0x0059e736      604e           bra.b 0x59e786
    > 0x0059e738      4a2c0022       tst.b 0x22(a4)
    < 0x0059e73c      6738           beq.b 0x59e776
       0x0059e73e      2052           movea.l (a2), a0
       0x0059e740      b1e8fffc       cmpa.l -0x4(a0), a0
   < 0x0059e744      6702           beq.b 0x59e748
      0x0059e746      4e4d           trap 0xd
   > 0x0059e748      22680024       movea.l 0x24(a0), a1
       0x0059e74c      b3e9fffc       cmpa.l -0x4(a1), a1
   < 0x0059e750      6702           beq.b 0x59e754
      0x0059e752      4e4d           trap 0xd
   > 0x0059e754      102c0024       move.b 0x24(a4), d0
       0x0059e758      4880           ext.w d0
       0x0059e75a      43f10000       lea.l (a1, d0.w), a1
       0x0059e75e      554f           subq.w 0x2, a7
       0x0059e760      2f280024       move.l 0x24(a0), -(a7)
       0x0059e764      1f00           move.b d0, -(a7)
       0x0059e766      4ebae71a       jsr K03_DISKLIST.switch_availabl(pc)
       0x0059e76a      5c4f           addq.w 0x6, a7
       0x0059e76c      101f           move.b (a7)+, d0
       0x0059e76e      4880           ext.w d0
       0x0059e770      4182           chk.w d2, d0
       0x0059e772      1340022e       move.b d0, 0x22e(a1)
    > 0x0059e776      2052           movea.l (a2), a0
        0x0059e778      b1e8fffc       cmpa.l -0x4(a0), a0
    < 0x0059e77c      6702           beq.b 0x59e780
       0x0059e77e      4e4d           trap 0xd
    > 0x0059e780      2f280024       move.l 0x24(a0), -(a7)
        0x0059e784      4227           clr.b -(a7)
    > 0x0059e786      1f2c0024       move.b 0x24(a4), -(a7)
         0x0059e78a      4ebae65e       jsr K03_DISKLIST.set_switch(pc)
         0x0059e78e      504f           addq.w 0x8, a7
      > 0x0059e790      4cdf1f07       movem.l (a7)+, d0-d2/a0-a4
          0x0059e794      4e5e           unlk a6
          0x0059e796      4e75           rts
 90: K03_DISKLIST.set_volume_sele ();
          0x0059e798      4e56ffa2       link.w a6, 0xffa2
          0x0059e79c      bfd5           cmpa.l (a5), a7
      < 0x0059e79e      6206           bhi.b 0x59e7a6
         0x0059e7a0      44fc0002       move.w 0x2, ccr
         0x0059e7a4      4e76           trapv
      > 0x0059e7a6      defc004a       adda.w 0x4a, a7
          0x0059e7aa      48e7fdf8       movem.l d0-d5/d7/a0-a4, -(a7)
          0x0059e7ae      45eeffee       lea.l -0x12(a6), a2
          0x0059e7b2      47eeffec       lea.l -0x14(a6), a3
          0x0059e7b6      7602           moveq 0x2, d3
          0x0059e7b8      7801           moveq 0x1, d4
          0x0059e7ba      7a04           moveq 0x4, d5
          0x0059e7bc      2f2e001a       move.l 0x1a(a6), -(a7)
          0x0059e7c0      4227           clr.b -(a7)
          0x0059e7c2      486efff0       pea.l -0x10(a6)
          0x0059e7c6      486efff4       pea.l -0xc(a6)
          0x0059e7ca      486efff8       pea.l -0x8(a6)
          0x0059e7ce      486efffc       pea.l -0x4(a6)
          0x0059e7d2      4ebaed96       jsr K03_DISKLIST.get_node_state(pc)
          0x0059e7d6      defc0016       adda.w 0x16, a7
          0x0059e7da      102e0014       move.b 0x14(a6), d0
          0x0059e7de      4880           ext.w d0
          0x0059e7e0      3200           move.w d0, d1
          0x0059e7e2      b243           cmp.w d3, d1
      < 0x0059e7e4      6302           bls.b 0x59e7e8
         0x0059e7e6      4e4e           trap 0xe
      > 0x0059e7e8      d241           add.w d1, d1
          0x0059e7ea      323b1006       move.w 0x59e7f2(pc, d1.w), d1
          0x0059e7ee      4efb1002       jmp 0x59e7f2(pc, d1.w)
           0x0059e7f2      0006001e       ori.b 0x1e, d6
           0x0059e7f6      00224212       ori.b 0x12, -(a2)
           0x0059e7fa      122e0010       move.b 0x10(a6), d1
           0x0059e7fe      4881           ext.w d1
           0x0059e800      143610f0       move.b -0x10(a6, d1.w), d2
           0x0059e804      4882           ext.w d2
           0x0059e806      053ab466       btst.l d2, 0x599c6e(pc)
       < 0x0059e80a      6702           beq.b 0x59e80e
          0x0059e80c      5212           addq.b 0x1, (a2)
      > 0x0059e80e      6006           bra.b 0x59e816
          0x0059e810      1484           move.b d4, (a2)
      < 0x0059e812      6002           bra.b 0x59e816
         0x0059e814      4212           clr.b (a2)
      > 0x0059e816      b043           cmp.w d3, d0
       < 0x0059e818      6302           bls.b 0x59e81c
          0x0059e81a      4e4e           trap 0xe
       > 0x0059e81c      d040           add.w d0, d0
           0x0059e81e      303b0006       move.w 0x59e826(pc, d0.w), d0
           0x0059e822      4efb0002       jmp 0x59e826(pc, d0.w)
           0x0059e826      00060006       ori.b 0x6, d6
           0x0059e82a      0018102e       ori.b 0x2e, (a0)+
           0x0059e82e      00104880       ori.b 0x80, (a0)
           0x0059e832      103600f0       move.b -0x10(a6, d0.w), d0
           0x0059e836      b005           cmp.b d5, d0
       < 0x0059e838      6604           bne.b 0x59e83e
          0x0059e83a      1d44000c       move.b d4, 0xc(a6)
       > 0x0059e83e      4a2e0012       tst.b 0x12(a6)
       < 0x0059e842      671e           beq.b 0x59e862
          0x0059e844      4a12           tst.b (a2)
      < 0x0059e846      671a           beq.b 0x59e862
         0x0059e848      2f2e001a       move.l 0x1a(a6), -(a7)
         0x0059e84c      2f2e0016       move.l 0x16(a6), -(a7)
         0x0059e850      1f2e0010       move.b 0x10(a6), -(a7)
         0x0059e854      206e0008       movea.l 0x8(a6), a0
         0x0059e858      4850           pea.l (a0)
         0x0059e85a      4ebafa74       jsr K03_DISKLIST.do_interlocks(pc)
         0x0059e85e      defc000e       adda.w 0xe, a7
      > 0x0059e862      7e01           moveq 0x1, d7
           0x0059e864      206e0008       movea.l 0x8(a6), a0
           0x0059e868      554f           subq.w 0x2, a7
           0x0059e86a      226e001a       movea.l 0x1a(a6), a1
           0x0059e86e      b3e9fffc       cmpa.l -0x4(a1), a1
       < 0x0059e872      6702           beq.b 0x59e876
          0x0059e874      4e4d           trap 0xd
       > 0x0059e876      22690024       movea.l 0x24(a1), a1
           0x0059e87a      b3e9fffc       cmpa.l -0x4(a1), a1
       < 0x0059e87e      6702           beq.b 0x59e882
          0x0059e880      4e4d           trap 0xd
       > 0x0059e882      2f29000e       move.l 0xe(a1), -(a7)
           0x0059e886      4850           pea.l (a0)
           0x0059e888      4eb9005a1346   jsr K04_FILEROPS.k_volume_status
           0x0059e88e      504f           addq.w 0x8, a7
           0x0059e890      369f           move.w (a7)+, (a3)
           0x0059e892      1013           move.b (a3), d0
           0x0059e894      b03ab46b       cmp.b 0x599d01(pc), d0
       < 0x0059e898      6608           bne.b 0x59e8a2
          0x0059e89a      102effed       move.b -0x13(a6), d0
          0x0059e89e      b03ab462       cmp.b 0x599d02(pc), d0
      > 0x0059e8a2      670c           beq.b 0x59e8b0
          0x0059e8a4      3f13           move.w (a3), -(a7)
          0x0059e8a6      4ebaf864       jsr K03_DISKLIST.result_error(pc)
          0x0059e8aa      544f           addq.w 0x2, a7
          0x0059e8ac      7e00           moveq 0x0, d7
      < 0x0059e8ae      604a           bra.b 0x59e8fa
      > 0x0059e8b0      1010           move.b (a0), d0
          0x0059e8b2      0c000003       cmpi.b 0x3, d0
      < 0x0059e8b6      670e           beq.b 0x59e8c6
         0x0059e8b8      b005           cmp.b d5, d0
     < 0x0059e8ba      6702           beq.b 0x59e8be
    < 0x0059e8bc      603a           bra.b 0x59e8f8
    > 0x0059e8be      284b           movea.l a3, a4
        0x0059e8c0      4ebafca6       jsr K03_DISKLIST.set_select(pc)
    < 0x0059e8c4      6034           bra.b 0x59e8fa
    > 0x0059e8c6      102e0010       move.b 0x10(a6), d0
        0x0059e8ca      4880           ext.w d0
        0x0059e8cc      b043           cmp.w d3, d0
    < 0x0059e8ce      6302           bls.b 0x59e8d2
       0x0059e8d0      4e4e           trap 0xe
    > 0x0059e8d2      d040           add.w d0, d0
        0x0059e8d4      303b0006       move.w 0x59e8dc(pc, d0.w), d0
        0x0059e8d8      4efb0002       jmp 0x59e8dc(pc, d0.w)
        0x0059e8dc      0006000e       ori.b 0xe, d6
        0x0059e8e0      000e284b       
        0x0059e8e1      0e284b4e       
        0x0059e8e2      284b           movea.l a3, a4
        0x0059e8e4      4ebafc82       jsr K03_DISKLIST.set_select(pc)
    < 0x0059e8e8      600c           bra.b 0x59e8f6
       0x0059e8ea      48780001       pea.l 0x1
       0x0059e8ee      4ebaf860       jsr K03_DISKLIST.error(pc)
       0x0059e8f2      584f           addq.w 0x4, a7
       0x0059e8f4      7e00           moveq 0x0, d7
   > 0x0059e8f6      6002           bra.b 0x59e8fa
   > 0x0059e8f8      7e01           moveq 0x1, d7
   > 0x0059e8fa      1d47001e       move.b d7, 0x1e(a6)
           0x0059e8fe      4cdf1fbf       movem.l (a7)+, d0-d5/d7/a0-a4
           0x0059e902      4e5e           unlk a6
           0x0059e904      4e75           rts
 138: K03_DISKLIST.select_one ();
          0x0059e906      4e56ffc8       link.w a6, 0xffc8
          0x0059e90a      bfd5           cmpa.l (a5), a7
      < 0x0059e90c      6206           bhi.b 0x59e914
         0x0059e90e      44fc0002       move.w 0x2, ccr
         0x0059e912      4e76           trapv
      > 0x0059e914      defc0034       adda.w 0x34, a7
          0x0059e918      48e7e0d0       movem.l d0-d2/a0-a1/a3, -(a7)
          0x0059e91c      7401           moveq 0x1, d2
          0x0059e91e      102c002e       move.b 0x2e(a4), d0
          0x0059e922      4880           ext.w d0
          0x0059e924      3200           move.w d0, d1
          0x0059e926      e541           asl.w 0x2, d1
          0x0059e928      206c0038       movea.l 0x38(a4), a0
          0x0059e92c      b1e8fffc       cmpa.l -0x4(a0), a0
      < 0x0059e930      6702           beq.b 0x59e934
         0x0059e932      4e4d           trap 0xd
      > 0x0059e934      22701010       movea.l 0x10(a0, d1.w), a1
          0x0059e938      b2c2           cmpa.w d2, a1
      < 0x0059e93a      6704           beq.b 0x59e940
         0x0059e93c      2649           movea.l a1, a3
     < 0x0059e93e      601c           bra.b 0x59e95c
     > 0x0059e940      122c0018       move.b 0x18(a4), d1
         0x0059e944      4881           ext.w d1
         0x0059e946      43bc0002       chk.w 0x2, d1
         0x0059e94a      e541           asl.w 0x2, d1
         0x0059e94c      22701010       movea.l 0x10(a0, d1.w), a1
         0x0059e950      b2c2           cmpa.w d2, a1
     < 0x0059e952      6704           beq.b 0x59e958
        0x0059e954      2649           movea.l a1, a3
    < 0x0059e956      6004           bra.b 0x59e95c
    > 0x0059e958      2668000c       movea.l 0xc(a0), a3
    > 0x0059e95c      554f           subq.w 0x2, a7
          0x0059e95e      2f0b           move.l a3, -(a7)
          0x0059e960      2f2c0034       move.l 0x34(a4), -(a7)
          0x0059e964      1f2c0032       move.b 0x32(a4), -(a7)
          0x0059e968      1f02           move.b d2, -(a7)
          0x0059e96a      1f00           move.b d0, -(a7)
          0x0059e96c      4227           clr.b -(a7)
          0x0059e96e      206c0024       movea.l 0x24(a4), a0
          0x0059e972      4850           pea.l (a0)
          0x0059e974      4eb90059eca4   jsr K03_DISKLIST.set_node_select
          0x0059e97a      defc0014       adda.w 0x14, a7
          0x0059e97e      101f           move.b (a7)+, d0
          0x0059e980      4880           ext.w d0
          0x0059e982      4182           chk.w d2, d0
          0x0059e984      19400006       move.b d0, 0x6(a4)
          0x0059e988      4cdf0b07       movem.l (a7)+, d0-d2/a0-a1/a3
          0x0059e98c      4e5e           unlk a6
          0x0059e98e      4e75           rts
 104: K03_DISKLIST.set_supervol_se ();
          0x0059e990      4e56ff80       link.w a6, 0xff80
          0x0059e994      bfd5           cmpa.l (a5), a7
      < 0x0059e996      6206           bhi.b 0x59e99e
         0x0059e998      44fc0002       move.w 0x2, ccr
         0x0059e99c      4e76           trapv
      > 0x0059e99e      defc0064       adda.w 0x64, a7
          0x0059e9a2      48e7fff8       movem.l d0-d7/a0-a4, -(a7)
          0x0059e9a6      45ee001c       lea.l 0x1c(a6), a2
          0x0059e9aa      7801           moveq 0x1, d4
          0x0059e9ac      2f12           move.l (a2), -(a7)
          0x0059e9ae      4227           clr.b -(a7)
          0x0059e9b0      486effeb       pea.l -0x15(a6)
          0x0059e9b4      486efff0       pea.l -0x10(a6)
          0x0059e9b8      486efff4       pea.l -0xc(a6)
          0x0059e9bc      486efff8       pea.l -0x8(a6)
          0x0059e9c0      4ebaeba8       jsr K03_DISKLIST.get_node_state(pc)
          0x0059e9c4      defc0016       adda.w 0x16, a7
          0x0059e9c8      7a00           moveq 0x0, d5
          0x0059e9ca      102e0012       move.b 0x12(a6), d0
          0x0059e9ce      4880           ext.w d0
          0x0059e9d0      123600eb       move.b -0x15(a6, d0.w), d1
          0x0059e9d4      4881           ext.w d1
          0x0059e9d6      033ab340       btst.l d1, 0x599d18(pc)
      < 0x0059e9da      6702           beq.b 0x59e9de
         0x0059e9dc      5205           addq.b 0x1, d5
      > 0x0059e9de      142e0016       move.b 0x16(a6), d2
          0x0059e9e2      4882           ext.w d2
          0x0059e9e4      3602           move.w d2, d3
          0x0059e9e6      0c430002       cmpi.w 0x2, d3
      < 0x0059e9ea      6302           bls.b 0x59e9ee
         0x0059e9ec      4e4e           trap 0xe
      > 0x0059e9ee      d643           add.w d3, d3
          0x0059e9f0      363b3006       move.w 0x59e9f8(pc, d3.w), d3
          0x0059e9f4      4efb3002       jmp 0x59e9f8(pc, d3.w)
           0x0059e9f8      0006000a       ori.b 0xa, d6
           0x0059e9fc      000e1c05       
           0x0059e9fd      0e1c0560       
           0x0059e9fe      1c05           move.b d5, d6
       < 0x0059ea00      6006           bra.b 0x59ea08
          0x0059ea02      7c01           moveq 0x1, d6
      < 0x0059ea04      6002           bra.b 0x59ea08
         0x0059ea06      7c00           moveq 0x0, d6
      > 0x0059ea08      4a06           tst.b d6
       < 0x0059ea0a      6704           beq.b 0x59ea10
          0x0059ea0c      7e01           moveq 0x1, d7
      < 0x0059ea0e      6002           bra.b 0x59ea12
      > 0x0059ea10      7e02           moveq 0x2, d7
      > 0x0059ea12      4a2e0014       tst.b 0x14(a6)
       < 0x0059ea16      6724           beq.b 0x59ea3c
          0x0059ea18      3602           move.w d2, d3
          0x0059ea1a      0c430002       cmpi.w 0x2, d3
      < 0x0059ea1e      6302           bls.b 0x59ea22
         0x0059ea20      4e4e           trap 0xe
      > 0x0059ea22      d643           add.w d3, d3
          0x0059ea24      363b3006       move.w 0x59ea2c(pc, d3.w), d3
          0x0059ea28      4efb3002       jmp 0x59ea2c(pc, d3.w)
          0x0059ea2c      00060006       ori.b 0x6, d6
          0x0059ea30      00100c01       ori.b 0x1, (a0)
          0x0059ea34      00046604       ori.b 0x4, d4
          0x0059ea38      1d44000e       move.b d4, 0xe(a6)
       > 0x0059ea3c      1d44ffea       move.b d4, -0x16(a6)
           0x0059ea40      ba06           cmp.b d6, d5
       < 0x0059ea42      6708           beq.b 0x59ea4c
          0x0059ea44      4a2e000c       tst.b 0xc(a6)
      < 0x0059ea48      6600024c       bne.w 0x59ec96
      > 0x0059ea4c      4a2e0014       tst.b 0x14(a6)
      < 0x0059ea50      671a           beq.b 0x59ea6c
         0x0059ea52      4a06           tst.b d6
     < 0x0059ea54      6716           beq.b 0x59ea6c
        0x0059ea56      2f12           move.l (a2), -(a7)
        0x0059ea58      2f2e0018       move.l 0x18(a6), -(a7)
        0x0059ea5c      1f00           move.b d0, -(a7)
        0x0059ea5e      206e0008       movea.l 0x8(a6), a0
        0x0059ea62      4850           pea.l (a0)
        0x0059ea64      4ebaf86a       jsr K03_DISKLIST.do_interlocks(pc)
        0x0059ea68      defc000e       adda.w 0xe, a7
     > 0x0059ea6c      3200           move.w d0, d1
          0x0059ea6e      0c410002       cmpi.w 0x2, d1
      < 0x0059ea72      6302           bls.b 0x59ea76
         0x0059ea74      4e4e           trap 0xe
      > 0x0059ea76      d241           add.w d1, d1
          0x0059ea78      323b1006       move.w 0x59ea80(pc, d1.w), d1
          0x0059ea7c      4efb1002       jmp 0x59ea80(pc, d1.w)
          0x0059ea80      0006000c       ori.b 0xc, d6
          0x0059ea84      00121d44       ori.b 0x44, (a2)
          0x0059ea88      fffc           invalid
      < 0x0059ea8a      600c           bra.b 0x59ea98
         0x0059ea8c      422efffc       clr.b -0x4(a6)
     < 0x0059ea90      6006           bra.b 0x59ea98
        0x0059ea92      1d7c0002fffc   move.b 0x2, -0x4(a6)
     > 0x0059ea98      554f           subq.w 0x2, a7
          0x0059ea9a      2f12           move.l (a2), -(a7)
          0x0059ea9c      2f390083fe56   move.l 0x83fe56, -(a7)
          0x0059eaa2      4ebad3a6       jsr K03_DISKLIST.under(pc)
          0x0059eaa6      504f           addq.w 0x8, a7
          0x0059eaa8      4a1f           tst.b (a7)+
      < 0x0059eaaa      6720           beq.b 0x59eacc
         0x0059eaac      0c000002       cmpi.b 0x2, d0
     < 0x0059eab0      661a           bne.b 0x59eacc
        0x0059eab2      487ab2d0       pea.l 0x599d84(pc)
        0x0059eab6      48780028       pea.l 0x28
        0x0059eaba      2f17           move.l (a7), -(a7)
        0x0059eabc      4eb9004047ea   jsr p_wts_o
        0x0059eac2      defc000c       adda.w 0xc, a7
        0x0059eac6      4eb900404946   jsr p_wtln_o
     > 0x0059eacc      554f           subq.w 0x2, a7
          0x0059eace      2f12           move.l (a2), -(a7)
          0x0059ead0      2f390083fe56   move.l 0x83fe56, -(a7)
          0x0059ead6      4ebad372       jsr K03_DISKLIST.under(pc)
          0x0059eada      504f           addq.w 0x8, a7
          0x0059eadc      4a1f           tst.b (a7)+
      < 0x0059eade      670c           beq.b 0x59eaec
     > 0x0059eae0      49eeffe4       lea.l -0x1c(a6), a4
        0x0059eae4      4ebafe20       jsr K03_DISKLIST.select_one(pc)
    < 0x0059eae8      600001ac       bra.w 0x59ec96
    > 0x0059eaec      554f           subq.w 0x2, a7
        0x0059eaee      2f12           move.l (a2), -(a7)
        0x0059eaf0      2f390083fe4e   move.l 0x83fe4e, -(a7)
        0x0059eaf6      4ebad352       jsr K03_DISKLIST.under(pc)
        0x0059eafa      504f           addq.w 0x8, a7
        0x0059eafc      4a1f           tst.b (a7)+
    < 0x0059eafe      6702           beq.b 0x59eb02
    < 0x0059eb00      60de           bra.b 0x59eae0
     > 0x0059eb02      2052           movea.l (a2), a0
         0x0059eb04      b1e8fffc       cmpa.l -0x4(a0), a0
     < 0x0059eb08      6702           beq.b 0x59eb0c
        0x0059eb0a      4e4d           trap 0xd
     > 0x0059eb0c      22680024       movea.l 0x24(a0), a1
         0x0059eb10      b3e9fffc       cmpa.l -0x4(a1), a1
     < 0x0059eb14      6702           beq.b 0x59eb18
        0x0059eb16      4e4d           trap 0xd
     > 0x0059eb18      554f           subq.w 0x2, a7
         0x0059eb1a      2f12           move.l (a2), -(a7)
         0x0059eb1c      2f390083fe4a   move.l 0x83fe4a, -(a7)
         0x0059eb22      4ebad326       jsr K03_DISKLIST.under(pc)
         0x0059eb26      504f           addq.w 0x8, a7
         0x0059eb28      4a1f           tst.b (a7)+
     < 0x0059eb2a      674a           beq.b 0x59eb76
        0x0059eb2c      12290300       move.b 0x300(a1), d1
        0x0059eb30      0c010005       cmpi.b 0x5, d1
    < 0x0059eb34      6640           bne.b 0x59eb76
       0x0059eb36      0c000002       cmpi.b 0x2, d0
   < 0x0059eb3a      663a           bne.b 0x59eb76
      0x0059eb3c      2228001c       move.l 0x1c(a0), d1
      0x0059eb40      0c810000ffff   cmpi.l 0xffff, d1
  < 0x0059eb46      6302           bls.b 0x59eb4a
     0x0059eb48      4e4f           trap 0xf
  > 0x0059eb4a      3d41fffe       move.w d1, -0x2(a6)
      0x0059eb4e      554f           subq.w 0x2, a7
      0x0059eb50      3f01           move.w d1, -(a7)
      0x0059eb52      4ebae19c       jsr K03_DISKLIST.get_mail(pc)
      0x0059eb56      544f           addq.w 0x2, a7
      0x0059eb58      141f           move.b (a7)+, d2
      0x0059eb5a      4402           neg.b d2
      0x0059eb5c      5202           addq.b 0x1, d2
      0x0059eb5e      4882           ext.w d2
      0x0059eb60      4584           chk.w d4, d2
      0x0059eb62      1c02           move.b d2, d6
      0x0059eb64      3f01           move.w d1, -(a7)
      0x0059eb66      4886           ext.w d6
      0x0059eb68      4d84           chk.w d4, d6
      0x0059eb6a      1f06           move.b d6, -(a7)
      0x0059eb6c      4ebae204       jsr K03_DISKLIST.set_mail(pc)
      0x0059eb70      584f           addq.w 0x4, a7
  < 0x0059eb72      60000122       bra.w 0x59ec96
  > 0x0059eb76      4a2e0014       tst.b 0x14(a6)
    < 0x0059eb7a      6606           bne.b 0x59eb82
       0x0059eb7c      4a2e000e       tst.b 0xe(a6)
   < 0x0059eb80      6712           beq.b 0x59eb94
   > 0x0059eb82      41f10000       lea.l (a1, d0.w), a0
       0x0059eb86      4886           ext.w d6
       0x0059eb88      4d84           chk.w d4, d6
       0x0059eb8a      11460301       move.b d6, 0x301(a0)
       0x0059eb8e      11440304       move.b d4, 0x304(a0)
   < 0x0059eb92      602a           bra.b 0x59ebbe
   > 0x0059eb94      4a06           tst.b d6
   < 0x0059eb96      6712           beq.b 0x59ebaa
      0x0059eb98      41f10000       lea.l (a1, d0.w), a0
      0x0059eb9c      12280304       move.b 0x304(a0), d1
      0x0059eba0      4881           ext.w d1
      0x0059eba2      4384           chk.w d4, d1
      0x0059eba4      11410301       move.b d1, 0x301(a0)
  < 0x0059eba8      6014           bra.b 0x59ebbe
  > 0x0059ebaa      41f10000       lea.l (a1, d0.w), a0
      0x0059ebae      12280301       move.b 0x301(a0), d1
      0x0059ebb2      4881           ext.w d1
      0x0059ebb4      4384           chk.w d4, d1
      0x0059ebb6      11410304       move.b d1, 0x304(a0)
      0x0059ebba      42280301       clr.b 0x301(a0)
  > 0x0059ebbe      2052           movea.l (a2), a0
        0x0059ebc0      b1e8fffc       cmpa.l -0x4(a0), a0
    < 0x0059ebc4      6702           beq.b 0x59ebc8
       0x0059ebc6      4e4d           trap 0xd
    > 0x0059ebc8      26680008       movea.l 0x8(a0), a3
        0x0059ebcc      20680024       movea.l 0x24(a0), a0
        0x0059ebd0      b1e8fffc       cmpa.l -0x4(a0), a0
    < 0x0059ebd4      6702           beq.b 0x59ebd8
       0x0059ebd6      4e4d           trap 0xd
    > 0x0059ebd8      122e0012       move.b 0x12(a6), d1
        0x0059ebdc      4881           ext.w d1
        0x0059ebde      41f01000       lea.l (a0, d1.w), a0
        0x0059ebe2      4a280301       tst.b 0x301(a0)
    < 0x0059ebe6      6606           bne.b 0x59ebee
       0x0059ebe8      4a06           tst.b d6
   < 0x0059ebea      660000aa       bne.w 0x59ec96
  > 0x0059ebee      b6c4           cmpa.w d4, a3
  < 0x0059ebf0      670000a4       beq.w 0x59ec96
     0x0059ebf4      4a2effea       tst.b -0x16(a6)
  < 0x0059ebf8      6700009c       beq.w 0x59ec96
     0x0059ebfc      b7ee0018       cmpa.l 0x18(a6), a3
  < 0x0059ec00      67000084       beq.w 0x59ec86
     0x0059ec04      b7ebfffc       cmpa.l -0x4(a3), a3
  < 0x0059ec08      6702           beq.b 0x59ec0c
     0x0059ec0a      4e4d           trap 0xd
  > 0x0059ec0c      4a2b0022       tst.b 0x22(a3)
  < 0x0059ec10      6742           beq.b 0x59ec54
     0x0059ec12      122b0022       move.b 0x22(a3), d1
     0x0059ec16      b204           cmp.b d4, d1
  < 0x0059ec18      6702           beq.b 0x59ec1c
     0x0059ec1a      4e4e           trap 0xe
  > 0x0059ec1c      554f           subq.w 0x2, a7
     0x0059ec1e      2f0b           move.l a3, -(a7)
     0x0059ec20      2f2e0018       move.l 0x18(a6), -(a7)
     0x0059ec24      4887           ext.w d7
     0x0059ec26      4fbc0002       chk.w 0x2, d7
     0x0059ec2a      1f07           move.b d7, -(a7)
     0x0059ec2c      4227           clr.b -(a7)
     0x0059ec2e      1f2e0012       move.b 0x12(a6), -(a7)
     0x0059ec32      1f2e0014       move.b 0x14(a6), -(a7)
     0x0059ec36      1f2e000e       move.b 0xe(a6), -(a7)
     0x0059ec3a      206e0008       movea.l 0x8(a6), a0
     0x0059ec3e      4850           pea.l (a0)
     0x0059ec40      4ebafb56       jsr K03_DISKLIST.set_volume_sele(pc)
     0x0059ec44      defc0016       adda.w 0x16, a7
  > 0x0059ec48      121f           move.b (a7)+, d1
     0x0059ec4a      4881           ext.w d1
     0x0059ec4c      4384           chk.w d4, d1
     0x0059ec4e      1d41ffea       move.b d1, -0x16(a6)
  < 0x0059ec52      6032           bra.b 0x59ec86
  > 0x0059ec54      554f           subq.w 0x2, a7
     0x0059ec56      2f0b           move.l a3, -(a7)
     0x0059ec58      2f2e0018       move.l 0x18(a6), -(a7)
     0x0059ec5c      4887           ext.w d7
     0x0059ec5e      4fbc0002       chk.w 0x2, d7
     0x0059ec62      1f07           move.b d7, -(a7)
     0x0059ec64      4227           clr.b -(a7)
     0x0059ec66      1f2e0012       move.b 0x12(a6), -(a7)
     0x0059ec6a      1f2e0014       move.b 0x14(a6), -(a7)
     0x0059ec6e      1f2e000e       move.b 0xe(a6), -(a7)
     0x0059ec72      1f2e000c       move.b 0xc(a6), -(a7)
     0x0059ec76      206e0008       movea.l 0x8(a6), a0
     0x0059ec7a      4850           pea.l (a0)
     0x0059ec7c      4ebafd12       jsr K03_DISKLIST.set_supervol_se(pc)
     0x0059ec80      defc0018       adda.w 0x18, a7
  < 0x0059ec84      60c2           bra.b 0x59ec48
  > 0x0059ec86      b7ebfffc       cmpa.l -0x4(a3), a3
  < 0x0059ec8a      6702           beq.b 0x59ec8e
     0x0059ec8c      4e4d           trap 0xd
  > 0x0059ec8e      266b0004       movea.l 0x4(a3), a3
  < 0x0059ec92      6000ff5a       bra.w 0x59ebee
  > 0x0059ec96      1d6effea0020   move.b -0x16(a6), 0x20(a6)
           0x0059ec9c      4cdf1fff       movem.l (a7)+, d0-d7/a0-a4
           0x0059eca0      4e5e           unlk a6
           0x0059eca2      4e75           rts
           ; CALL XREF from K03_DISKLIST.select_one @ 0x59e974
           ; CALL XREF from loc.0059ee16 @ 0x59ee5e
 74: K03_DISKLIST.set_node_select ();
          0x0059eca4      4e56ffc4       link.w a6, 0xffc4
          0x0059eca8      bfd5           cmpa.l (a5), a7
      < 0x0059ecaa      6206           bhi.b 0x59ecb2
         0x0059ecac      44fc0002       move.w 0x2, ccr
         0x0059ecb0      4e76           trapv
      > 0x0059ecb2      defc003a       adda.w 0x3a, a7
          0x0059ecb6      48e7c1e0       movem.l d0-d1/d7/a0-a2, -(a7)
          0x0059ecba      45ee0012       lea.l 0x12(a6), a2
          0x0059ecbe      7201           moveq 0x1, d1
          0x0059ecc0      206e0018       movea.l 0x18(a6), a0
          0x0059ecc4      b0c1           cmpa.w d1, a0
      < 0x0059ecc6      6606           bne.b 0x59ecce
         0x0059ecc8      7e01           moveq 0x1, d7
     < 0x0059ecca      6000008e       bra.w loc.0059ed5a
     > 0x0059ecce      b1e8fffc       cmpa.l -0x4(a0), a0
     < 0x0059ecd2      6702           beq.b 0x59ecd6
        0x0059ecd4      4e4d           trap 0xd
     > 0x0059ecd6      10280022       move.b 0x22(a0), d0
         0x0059ecda      4880           ext.w d0
         0x0059ecdc      0c400002       cmpi.w 0x2, d0
     < 0x0059ece0      6302           bls.b 0x59ece4
        0x0059ece2      4e4e           trap 0xe
     > 0x0059ece4      d040           add.w d0, d0
         0x0059ece6      303b0006       move.w 0x59ecee(pc, d0.w), d0
         0x0059ecea      4efb0002       jmp 0x59ecee(pc, d0.w)
          0x0059ecee      00060038       ori.b 0x38, d6
          0x0059ecf2      005e554f       ori.w 0x554f, (a6)+
          0x0059ecf6      2f08           move.l a0, -(a7)
          0x0059ecf8      2f2e0014       move.l 0x14(a6), -(a7)
          0x0059ecfc      1f12           move.b (a2), -(a7)
          0x0059ecfe      1f2e0010       move.b 0x10(a6), -(a7)
          0x0059ed02      1f2e000e       move.b 0xe(a6), -(a7)
          0x0059ed06      4227           clr.b -(a7)
          0x0059ed08      4227           clr.b -(a7)
          0x0059ed0a      1f2e000c       move.b 0xc(a6), -(a7)
          0x0059ed0e      226e0008       movea.l 0x8(a6), a1
          0x0059ed12      4851           pea.l (a1)
          0x0059ed14      4ebafc7a       jsr K03_DISKLIST.set_supervol_se(pc)
          0x0059ed18      defc0018       adda.w 0x18, a7
     > 0x0059ed1c      101f           move.b (a7)+, d0
        0x0059ed1e      4880           ext.w d0
        0x0059ed20      4181           chk.w d1, d0
        0x0059ed22      1e00           move.b d0, d7
    < 0x0059ed24      6034           bra.b loc.0059ed5a
       0x0059ed26      554f           subq.w 0x2, a7
       0x0059ed28      2f08           move.l a0, -(a7)
       0x0059ed2a      2f2e0014       move.l 0x14(a6), -(a7)
       0x0059ed2e      1f12           move.b (a2), -(a7)
       0x0059ed30      1f2e0010       move.b 0x10(a6), -(a7)
       0x0059ed34      1f2e000e       move.b 0xe(a6), -(a7)
       0x0059ed38      4227           clr.b -(a7)
       0x0059ed3a      4227           clr.b -(a7)
       0x0059ed3c      226e0008       movea.l 0x8(a6), a1
       0x0059ed40      4851           pea.l (a1)
       0x0059ed42      4ebafa54       jsr K03_DISKLIST.set_volume_sele(pc)
       0x0059ed46      defc0016       adda.w 0x16, a7
    < 0x0059ed4a      60d0           bra.b 0x59ed1c
        0x0059ed4c      554f           subq.w 0x2, a7
        0x0059ed4e      2f08           move.l a0, -(a7)
        0x0059ed50      1f12           move.b (a2), -(a7)
        0x0059ed52      4ebaf434       jsr K03_DISKLIST.set_sv_select(pc)
        0x0059ed56      5c4f           addq.w 0x6, a7
     < 0x0059ed58      60c2           bra.b 0x59ed1c
         ; CODE XREF from K03_DISKLIST.set_node_select @ 0x59ecca
 16: loc.0059ed5a ();
   > 0x0059ed5a      4887           ext.w d7
          0x0059ed5c      4f81           chk.w d1, d7
          0x0059ed5e      1d47001c       move.b d7, 0x1c(a6)
          0x0059ed62      4cdf0783       movem.l (a7)+, d0-d1/d7/a0-a2
          0x0059ed66      4e5e           unlk a6
          0x0059ed68      4e75           rts
           ; CALL XREF from K0_DISKMGR.k_select_node_h @ 0x5984f4
 116: K03_DISKLIST.k03_select_node (int32_t arg_8h);
          ; arg int32_t arg_8h @ a6+0x8
          0x0059ed6a      4e56ffb2       link.w a6, 0xffb2
          0x0059ed6e      bfd5           cmpa.l (a5), a7
      < 0x0059ed70      6206           bhi.b 0x59ed78
         0x0059ed72      44fc0002       move.w 0x2, ccr
         0x0059ed76      4e76           trapv
      > 0x0059ed78      defc0042       adda.w 0x42, a7
          0x0059ed7c      48e7e0f8       movem.l d0-d2/a0-a4, -(a7)
          0x0059ed80      45f90083fe4a   lea.l 0x83fe4a, a2
          0x0059ed86      7401           moveq 0x1, d2
          0x0059ed88      1d420016       move.b d2, 0x16(a6)
          0x0059ed8c      206e0008       movea.l 0x8(a6), a0
          0x0059ed90      10bc0004       move.b 0x4, (a0)
          0x0059ed94      202e0012       move.l 0x12(a6), d0
          0x0059ed98      0c80ffffffff   cmpi.l 0xffffffff, d0
      < 0x0059ed9e      6612           bne.b 0x59edb2
         0x0059eda0      422e0016       clr.b 0x16(a6)
         0x0059eda4      48780003       pea.l 0x3
         0x0059eda8      4ebaf3a6       jsr K03_DISKLIST.error(pc)
         0x0059edac      584f           addq.w 0x4, a7
     < 0x0059edae      600000c0       bra.w loc.0059ee70
     > 0x0059edb2      2f00           move.l d0, -(a7)
         0x0059edb4      285f           movea.l (a7)+, a4
         0x0059edb6      b8c2           cmpa.w d2, a4
     < 0x0059edb8      6604           bne.b 0x59edbe
    > 0x0059edba      3642           movea.w d2, a3
   < 0x0059edbc      6058           bra.b loc.0059ee16
   > 0x0059edbe      b9ecfffc       cmpa.l -0x4(a4), a4
   < 0x0059edc2      6702           beq.b 0x59edc6
      0x0059edc4      4e4d           trap 0xd
   > 0x0059edc6      122c0022       move.b 0x22(a4), d1
       0x0059edca      4881           ext.w d1
       0x0059edcc      0c410002       cmpi.w 0x2, d1
   < 0x0059edd0      6302           bls.b 0x59edd4
      0x0059edd2      4e4e           trap 0xe
   > 0x0059edd4      d241           add.w d1, d1
       0x0059edd6      323b1006       move.w 0x59edde(pc, d1.w), d1
       0x0059edda      4efb1002       jmp 0x59edde(pc, d1.w)
        0x0059edde      0006001e       ori.b 0x1e, d6
        0x0059ede2      0036554f2f0c   ori.b 0x4f, (a6, d2.l * 8)
        0x0059ede8      2f12           move.l (a2), -(a7)
        0x0059edea      4ebad05e       jsr K03_DISKLIST.under(pc)
        0x0059edee      504f           addq.w 0x8, a7
        0x0059edf0      4a1f           tst.b (a7)+
    < 0x0059edf2      6704           beq.b 0x59edf8
       0x0059edf4      2652           movea.l (a2), a3
   < 0x0059edf6      6002           bra.b 0x59edfa
   > 0x0059edf8      264c           movea.l a4, a3
   < 0x0059edfa      601a           bra.b loc.0059ee16
       0x0059edfc      554f           subq.w 0x2, a7
       0x0059edfe      2f0c           move.l a4, -(a7)
       0x0059ee00      2f12           move.l (a2), -(a7)
       0x0059ee02      4ebad046       jsr K03_DISKLIST.under(pc)
       0x0059ee06      504f           addq.w 0x8, a7
       0x0059ee08      4a1f           tst.b (a7)+
   < 0x0059ee0a      6704           beq.b 0x59ee10
      0x0059ee0c      2652           movea.l (a2), a3
  < 0x0059ee0e      6002           bra.b 0x59ee12
  > 0x0059ee10      2654           movea.l (a4), a3
  < 0x0059ee12      6002           bra.b loc.0059ee16
   < 0x0059ee14      60a4           bra.b 0x59edba              ; K03_DISKLIST.k03_select_node+0x50
       ; CODE XREF from K03_DISKLIST.k03_select_node @ 0x59edbc
 90: loc.0059ee16 (int32_t arg_8h);
      ; arg int32_t arg_8h @ a6+0x8
  > 0x0059ee16      2d4cfff8       move.l a4, -0x8(a6)
         0x0059ee1a      b9ecfffc       cmpa.l -0x4(a4), a4
     < 0x0059ee1e      6702           beq.b 0x59ee22
        0x0059ee20      4e4d           trap 0xd
     > 0x0059ee22      4a2c0022       tst.b 0x22(a4)
     < 0x0059ee26      6620           bne.b 0x59ee48
        0x0059ee28      226c0008       movea.l 0x8(a4), a1
        0x0059ee2c      b3e9fffc       cmpa.l -0x4(a1), a1
    < 0x0059ee30      6702           beq.b 0x59ee34
       0x0059ee32      4e4d           trap 0xd
    > 0x0059ee34      22690004       movea.l 0x4(a1), a1
        0x0059ee38      b2c2           cmpa.w d2, a1
    < 0x0059ee3a      660c           bne.b 0x59ee48
       0x0059ee3c      4a2e000c       tst.b 0xc(a6)
   < 0x0059ee40      6706           beq.b 0x59ee48
      0x0059ee42      2d6c0008fff8   move.l 0x8(a4), -0x8(a6)
   > 0x0059ee48      554f           subq.w 0x2, a7
         0x0059ee4a      2f2efff8       move.l -0x8(a6), -(a7)
         0x0059ee4e      2f0b           move.l a3, -(a7)
         0x0059ee50      1f2e0010       move.b 0x10(a6), -(a7)
         0x0059ee54      1f02           move.b d2, -(a7)
         0x0059ee56      1f2e000e       move.b 0xe(a6), -(a7)
         0x0059ee5a      4227           clr.b -(a7)
         0x0059ee5c      4850           pea.l (a0)
         0x0059ee5e      4ebafe44       jsr K03_DISKLIST.set_node_select(pc)
         0x0059ee62      defc0014       adda.w 0x14, a7
         0x0059ee66      121f           move.b (a7)+, d1
         0x0059ee68      4881           ext.w d1
         0x0059ee6a      4382           chk.w d2, d1
         0x0059ee6c      1d410016       move.b d1, 0x16(a6)
          ; CODE XREF from K03_DISKLIST.k03_select_node @ 0x59edae
 8: loc.0059ee70 ();
     > 0x0059ee70      4cdf1f07       movem.l (a7)+, d0-d2/a0-a4
          0x0059ee74      4e5e           unlk a6
          0x0059ee76      4e75           rts
 54: K03_DISKLIST.supervol_type_s ();
          0x0059ee78      4e56ffe8       link.w a6, 0xffe8
          0x0059ee7c      bfd5           cmpa.l (a5), a7
      < 0x0059ee7e      6206           bhi.b 0x59ee86
         0x0059ee80      44fc0002       move.w 0x2, ccr
         0x0059ee84      4e76           trapv
      > 0x0059ee86      defc0018       adda.w 0x18, a7
          0x0059ee8a      48e780f0       movem.l d0/a0-a3, -(a7)
          0x0059ee8e      45ee000a       lea.l 0xa(a6), a2
          0x0059ee92      47ee000e       lea.l 0xe(a6), a3
          0x0059ee96      102e0008       move.b 0x8(a6), d0
          0x0059ee9a      4880           ext.w d0
          0x0059ee9c      0c400005       cmpi.w 0x5, d0
      < 0x0059eea0      6302           bls.b 0x59eea4
         0x0059eea2      4e4e           trap 0xe
      > 0x0059eea4      d040           add.w d0, d0
          0x0059eea6      303b0006       move.w 0x59eeae(pc, d0.w), d0
          0x0059eeaa      4efb0002       jmp 0x59eeae(pc, d0.w)
           0x0059eeae      000c0016       
           0x0059eeaf      0c001600       cmpi.b 0x0, d0
           0x0059eeb3      3600           move.w d0, d3
           0x0059eeb5      2600           move.l d0, d3
           0x0059eeb7      4000           negx.b d0
           0x0059eeb9      5024           addq.b 0x8, -(a4)
           0x0059eebb      baaf4c36       cmp.l 0x4c36(a7), d5
           0x0059eebf      baaf4c60       cmp.l 0x4c60(a7), d5
           0x0059eec3      4224           clr.b -(a4)
           0x0059eec5      baaf4836       cmp.l 0x4836(a7), d5
           0x0059eec9      baaf481d       cmp.l 0x481d(a7), d5
           0x0059eecd      7aaf           moveq 0xaf, d5
           0x0059eecf      4600           not.b d0
           0x0059eed1      10603220       
       < 0x0059eed2      6032           bra.b 0x59ef06
          0x0059eed4      204a           movea.l a2, a0
          0x0059eed6      43faaf3d       lea.l 0x599e15(pc), a1
          0x0059eeda      700a           moveq 0xa, d0
      > 0x0059eedc      10d9           move.b (a1)+, (a0)+
      < 0x0059eede      51c8fffc       dbra d0, 0x59eedc
      < 0x0059eee2      6022           bra.b 0x59ef06
         0x0059eee4      24baaf3a       move.l 0x599e20(pc), (a2)
         0x0059eee8      16baaf3a       move.b 0x599e24(pc), (a3)
     < 0x0059eeec      6018           bra.b 0x59ef06
        0x0059eeee      204a           movea.l a2, a0
        0x0059eef0      43faaf33       lea.l 0x599e25(pc), a1
        0x0059eef4      7004           moveq 0x4, d0
    > 0x0059eef6      10d9           move.b (a1)+, (a0)+
    < 0x0059eef8      51c8fffc       dbra d0, 0x59eef6
    < 0x0059eefc      6008           bra.b 0x59ef06
       0x0059eefe      24baaf2a       move.l 0x599e2a(pc), (a2)
       0x0059ef02      26baaf2a       move.l 0x599e2e(pc), (a3)
    > 0x0059ef06      4cdf0f01       movem.l (a7)+, d0/a0-a3
           0x0059ef0a      4e5e           unlk a6
           0x0059ef0c      4e75           rts
           ; XREFS: CALL 0x00598558  CALL 0x005a0a0e  CALL 0x005a0a44  
           ; XREFS: CALL 0x005a0a82  CALL 0x005a0ab2  CALL 0x005a0af6  
 84: K03_DISKLIST.k03_set_supervo ();
          0x0059ef0e      4e56fe5e       link.w a6, 0xfe5e
          0x0059ef12      bfd5           cmpa.l (a5), a7
      < 0x0059ef14      6206           bhi.b 0x59ef1c
         0x0059ef16      44fc0002       move.w 0x2, ccr
         0x0059ef1a      4e76           trapv
      > 0x0059ef1c      defc0146       adda.w 0x146, a7
          0x0059ef20      48e7fff8       movem.l d0-d7/a0-a4, -(a7)
          0x0059ef24      47ee0210       lea.l 0x210(a6), a3
          0x0059ef28      49ee020e       lea.l 0x20e(a6), a4
          0x0059ef2c      7601           moveq 0x1, d3
          0x0059ef2e      7820           moveq 0x20, d4
          0x0059ef30      7a02           moveq 0x2, d5
          0x0059ef32      554f           subq.w 0x2, a7
          0x0059ef34      486effa4       pea.l -0x5c(a6)
          0x0059ef38      4eb900404434   jsr fcn.00404434
          0x0059ef3e      584f           addq.w 0x4, a7
          0x0059ef40      4a1f           tst.b (a7)+
      < 0x0059ef42      670002a6       beq.w 0x59f1ea
         0x0059ef46      7e00           moveq 0x0, d7
         0x0059ef48      102e020c       move.b 0x20c(a6), d0
         0x0059ef4c      4880           ext.w d0
         0x0059ef4e      3200           move.w d0, d1
         0x0059ef50      0c410005       cmpi.w 0x5, d1
     < 0x0059ef54      6302           bls.b 0x59ef58
        0x0059ef56      4e4e           trap 0xe
     > 0x0059ef58      d241           add.w d1, d1
         0x0059ef5a      323b1006       move.w 0x59ef62(pc, d1.w), d1
         0x0059ef5e      4efb1002       jmp 0x59ef62(pc, d1.w)
          0x0059ef62      000c002a       
          0x0059ef63      0c002a00       cmpi.b 0x0, d0
      < 0x0059ef67      62004600       bhi.w 0x5a3569
         0x0059ef6b      7e00           moveq 0x0, d7
         0x0059ef6d      9a321341       sub.b ([a2]), d5
         0x0059ef71      faaec034       fbf.w 0x59afa7
         0x0059ef75      01e6           bset.b d0, -(a6)
         0x0059ef77      4ab4446d       tst.l 0x6d(a4, d4.w)
         0x0059ef7b      047400600403   subi.w 0x60, 0x3(a4, d0.w)
         0x0059ef81      3020           move.w -(a0), d0
         0x0059ef83      0066027e       ori.w 0x27e, -(a6)
         0x0059ef87      0160           bchg.b d0, -(a0)
         0x0059ef89      00008c32       ori.b 0x32, d0
         0x0059ef8d      1341faae       move.b d1, -0x552(a1)
         0x0059ef91      c23401e64ab4   and.b ([0x4ab4]), d1
         0x0059ef97      446d0474       neg.w 0x474(a5)
         0x0059ef9b      00600403       ori.w 0x403, -(a0)
         0x0059ef9f      3020           move.w -(a0), d0
         0x0059efa1      0066027e       ori.w 0x27e, -(a6)
         0x0059efa5      0160           bchg.b d0, -(a0)
     < 0x0059efa7      6e32           bgt.b 0x59efdb
        0x0059efa9      1341faae       move.b d1, -0x552(a1)
        0x0059efad      c63401e64ab4   and.b ([0x4ab4]), d3
        0x0059efb3      446d0474       neg.w 0x474(a5)
        0x0059efb7      00600403       ori.w 0x403, -(a0)
       0x0059efbb      3020           move.w -(a0), d0
       0x0059efbd      0066027e       ori.w 0x27e, -(a6)
       0x0059efc1      0160           bchg.b d0, -(a0)
       0x0059efc3      52321341       addq.b 0x1, ([a2])
       0x0059efc7      faaeca34       fbf.w 0x59b9fd
       0x0059efcb      01e6           bset.b d0, -(a6)
       0x0059efcd      4ab4446d       tst.l 0x6d(a4, d4.w)
       0x0059efd1      047400600403   subi.w 0x60, 0x3(a4, d0.w)
       0x0059efd7      3020           move.w -(a0), d0
       0x0059efd9      0066027e       ori.w 0x27e, -(a6)
        0x0059efdd      0160           bchg.b d0, -(a0)
        0x0059efdf      36321341       move.w ([a2]), d3
        0x0059efe3      faaece34       fbf.w 0x59be19
        0x0059efe7      01e6           bset.b d0, -(a6)
        0x0059efe9      4ab4446d       tst.l 0x6d(a4, d4.w)
        0x0059efed      047400600403   subi.w 0x60, 0x3(a4, d0.w)
        0x0059eff3      3020           move.w -(a0), d0
        0x0059eff5      0066027e       ori.w 0x27e, -(a6)
        0x0059eff9      0160           bchg.b d0, -(a0)
        0x0059effb      1a321341       move.b ([a2]), d5
        0x0059efff      faaed234       fbf.w 0x59c235
        0x0059f003      01e6           bset.b d0, -(a6)
        0x0059f005      4ab4446d       tst.l 0x6d(a4, d4.w)
        0x0059f009      047400600403   subi.w 0x60, 0x3(a4, d0.w)
        0x0059f00f      3020           move.w -(a0), d0
        0x0059f011      0066027e       ori.w 0x27e, -(a6)
        0x0059f015      014a0767       movep.l 0x767(a2), d0
    < 0x0059f019      6a9e           bpl.b 0x59efb9
         0x0059f01b      fc01001f       fgetman fp0
         0x0059f01f      004ebafe       
         0x0059f020      4ebafe56       jsr K03_DISKLIST.supervol_type_s(pc)
         0x0059f024      544f           addq.w 0x2, a7
         0x0059f026      487aaecb       pea.l 0x599ef3(pc)
         0x0059f02a      4878000e       pea.l 0xe
         0x0059f02e      2f17           move.l (a7), -(a7)
         0x0059f030      4eb9004047ea   jsr p_wts_o
         0x0059f036      defc000c       adda.w 0xc, a7
         0x0059f03a      486f0001       pea.l 0x1(a7)
         0x0059f03e      42a7           clr.l -(a7)
         0x0059f040      1f6f00080003   move.b 0x8(a7), 0x3(a7)
         0x0059f046      2f17           move.l (a7), -(a7)
         0x0059f048      4eb9004047ea   jsr p_wts_o
         0x0059f04e      defc010c       adda.w 0x10c, a7
         0x0059f052      487aaeae       pea.l 0x599f02(pc)
         0x0059f056      48780016       pea.l 0x16
         0x0059f05a      2f17           move.l (a7), -(a7)
         0x0059f05c      4eb9004047ea   jsr p_wts_o
         0x0059f062      504f           addq.w 0x8, a7
         0x0059f064      2e94           move.l (a4), (a7)
         0x0059f066      48780000       pea.l 0x0
         0x0059f06a      4eb9004070e4   jsr p_wti_o
         0x0059f070      504f           addq.w 0x8, a7
         0x0059f072      4eb900404946   jsr p_wtln_o
         0x0059f078      486effa4       pea.l -0x5c(a6)
         0x0059f07c      4eb900404468   jsr fcn.00404468
         0x0059f082      584f           addq.w 0x4, a7
         0x0059f084      7e00           moveq 0x0, d7
         0x0059f086      3200           move.w d0, d1
         0x0059f088      0c410005       cmpi.w 0x5, d1
     < 0x0059f08c      6302           bls.b 0x59f090
        0x0059f08e      4e4e           trap 0xe
     > 0x0059f090      d241           add.w d1, d1
         0x0059f092      323b1006       move.w 0x59f09a(pc, d1.w), d1
         0x0059f096      4efb1002       jmp 0x59f09a(pc, d1.w)
         0x0059f09a      000c0016       
         0x0059f09b      0c001600       cmpi.b 0x0, d0
         0x0059f09f      2a00           move.l d0, d5
         0x0059f0a1      2000           move.l d0, d0
         0x0059f0a3      3400           move.w d0, d2
         0x0059f0a5      3622           move.w -(a2), d3
         0x0059f0a7      14b28566027e   move.b ([0x27e, a2]), (a2)
         0x0059f0ad      0160           bchg.b d0, -(a0)
         0x0059f0af      2c22           move.l -(a2), d6
         0x0059f0b1      14b28566027e   move.b ([0x27e, a2]), (a2)
         0x0059f0b7      0160           bchg.b d0, -(a0)
         0x0059f0b9      2222           move.l -(a2), d1
         0x0059f0bb      14b28566027e   move.b ([0x27e, a2]), (a2)
         0x0059f0c1      0160           bchg.b d0, -(a0)
         0x0059f0c3      1822           move.b -(a2), d4
         0x0059f0c5      14b28566027e   move.b ([0x27e, a2]), (a2)
         0x0059f0cb      0160           bchg.b d0, -(a0)
         0x0059f0cd      0e600c22       
     < 0x0059f0ce      600c           bra.b 0x59f0dc
        0x0059f0d0      2214           move.l (a4), d1
        0x0059f0d2      0c8100000003   cmpi.l 0x3, d1
    < 0x0059f0d8      6602           bne.b 0x59f0dc
       0x0059f0da      7e01           moveq 0x1, d7
    > 0x0059f0dc      42aefff6       clr.l -0xa(a6)
         0x0059f0e0      3200           move.w d0, d1
         0x0059f0e2      0c410005       cmpi.w 0x5, d1
     < 0x0059f0e6      6302           bls.b 0x59f0ea
        0x0059f0e8      4e4e           trap 0xe
     > 0x0059f0ea      d241           add.w d1, d1
         0x0059f0ec      323b1006       move.w 0x59f0f4(pc, d1.w), d1
         0x0059f0f0      4efb1002       jmp 0x59f0f4(pc, d1.w)
         0x0059f0f4      000c0010       
         0x0059f0f5      0c001000       cmpi.b 0x0, d0
         0x0059f0f9      1800           move.b d0, d4
         0x0059f0fb      1400           move.b d0, d2
         0x0059f0fd      1c00           move.b d0, d6
         0x0059f0ff      207c0160347c   movea.l 0x160347c, a0
         0x0059f105      0260307c       andi.w 0x307c, -(a0)
         0x0059f109      0360           bchg.b d1, -(a0)
         0x0059f10b      2c7c0460287c   movea.l 0x460287c, a6
        0x0059f111      0560           bchg.b d2, -(a0)
        0x0059f113      2422           move.l -(a2), d2
        0x0059f115      2e02           move.l d2, d7
        0x0059f117      080c8100       
        0x0059f118      0c810000ffff   cmpi.l 0xffff, d1
    < 0x0059f11e      6302           bls.b 0x59f122
       0x0059f120      4e4f           trap 0xf
    > 0x0059f122      3d41fffe       move.w d1, -0x2(a6)
        0x0059f126      594f           subq.w 0x4, a7
        0x0059f128      3f01           move.w d1, -(a7)
        0x0059f12a      4eb90066e8bc   jsr N10_UTILS.n_drive_id
        0x0059f130      544f           addq.w 0x2, a7
        0x0059f132      2d5ffff6       move.l (a7)+, -0xa(a6)
     < 0x0059f136      60d4           bra.b 0x59f10c
         0x0059f138      486efff0       pea.l -0x10(a6)
         0x0059f13c      48780307       pea.l 0x307
         0x0059f140      4eb900403a92   jsr p_New
         0x0059f146      504f           addq.w 0x8, a7
         0x0059f148      206efff0       movea.l -0x10(a6), a0
         0x0059f14c      b1e8fffc       cmpa.l -0x4(a0), a0
     < 0x0059f150      6702           beq.b 0x59f154
        0x0059f152      4e4d           trap 0xd
     > 0x0059f154      10baadc2       move.b 0x599f18(pc), (a0)
         0x0059f158      43e80100       lea.l 0x100(a0), a1
         0x0059f15c      45ee0108       lea.l 0x108(a6), a2
         0x0059f160      323c00ff       move.w 0xff, d1
     > 0x0059f164      12da           move.b (a2)+, (a1)+
     < 0x0059f166      51c9fffc       dbra d1, 0x59f164
         0x0059f16a      43e80200       lea.l 0x200(a0), a1
         0x0059f16e      45ee0008       lea.l 0x8(a6), a2
         0x0059f172      323c00ff       move.w 0xff, d1
     > 0x0059f176      12da           move.b (a2)+, (a1)+
     < 0x0059f178      51c9fffc       dbra d1, 0x59f176
         0x0059f17c      11430302       move.b d3, 0x302(a0)
         0x0059f180      11430301       move.b d3, 0x301(a0)
         0x0059f184      11430303       move.b d3, 0x303(a0)
         0x0059f188      11430305       move.b d3, 0x305(a0)
         0x0059f18c      11430304       move.b d3, 0x304(a0)
         0x0059f190      11430306       move.b d3, 0x306(a0)
         0x0059f194      206efff0       movea.l -0x10(a6), a0
         0x0059f198      b1e8fffc       cmpa.l -0x4(a0), a0
     < 0x0059f19c      6702           beq.b 0x59f1a0
        0x0059f19e      4e4d           trap 0xd
     > 0x0059f1a0      11400300       move.b d0, 0x300(a0)
         0x0059f1a4      48790083fe5c   pea.l 0x83fe5c
         0x0059f1aa      4eb9004023c4   jsr p_Wait
         0x0059f1b0      2eaefff6       move.l -0xa(a6), (a7)
         0x0059f1b4      4886           ext.w d6
         0x0059f1b6      4dbc000a       chk.w 0xa, d6
         0x0059f1ba      1f06           move.b d6, -(a7)
         0x0059f1bc      4887           ext.w d7
         0x0059f1be      4f83           chk.w d3, d7
         0x0059f1c0      1f07           move.b d7, -(a7)
         0x0059f1c2      4227           clr.b -(a7)
         0x0059f1c4      4227           clr.b -(a7)
         0x0059f1c6      4227           clr.b -(a7)
         0x0059f1c8      2f2efff0       move.l -0x10(a6), -(a7)
         0x0059f1cc      4878ffff       pea.l 0xffff
         0x0059f1d0      486efffa       pea.l -0x6(a6)
         0x0059f1d4      4ebabf7e       jsr K03_DISKLIST.add_to_tree(pc)
         0x0059f1d8      defc001a       adda.w 0x1a, a7
         0x0059f1dc      48790083fe5c   pea.l 0x83fe5c
         0x0059f1e2      4eb90040234e   jsr p_Signal
         0x0059f1e8      584f           addq.w 0x4, a7
      > 0x0059f1ea      4cdf1fff       movem.l (a7)+, d0-d7/a0-a4
          0x0059f1ee      4e5e           unlk a6
          0x0059f1f0      4e75           rts
          ; CALL XREF from K03_DISKLIST.search_branches @ 0x59f244
          ; CALL XREF from K03_DISKLIST.find_vol_node @ 0x59f27e
 102: K03_DISKLIST.search_branches ();
         0x0059f1f2      4e56ffe4       link.w a6, 0xffe4
         0x0059f1f6      bfd5           cmpa.l (a5), a7
     < 0x0059f1f8      6206           bhi.b 0x59f200
        0x0059f1fa      44fc0002       move.w 0x2, ccr
        0x0059f1fe      4e76           trapv
     > 0x0059f200      defc0018       adda.w 0x18, a7
         0x0059f204      48e7c090       movem.l d0-d1/a0/a3, -(a7)
         0x0059f208      7201           moveq 0x1, d1
         0x0059f20a      266e0008       movea.l 0x8(a6), a3
     > 0x0059f20e      b6c1           cmpa.w d1, a3
    < 0x0059f210      673e           beq.b 0x59f250
       0x0059f212      b7ebfffc       cmpa.l -0x4(a3), a3
   < 0x0059f216      6702           beq.b 0x59f21a
      0x0059f218      4e4d           trap 0xd
   > 0x0059f21a      102b0022       move.b 0x22(a3), d0
       0x0059f21e      b001           cmp.b d1, d0
   < 0x0059f220      661e           bne.b 0x59f240
      0x0059f222      206b0024       movea.l 0x24(a3), a0
      0x0059f226      b0c1           cmpa.w d1, a0
  < 0x0059f228      6716           beq.b 0x59f240
     0x0059f22a      b1e8fffc       cmpa.l -0x4(a0), a0
 < 0x0059f22e      6702           beq.b 0x59f232
    0x0059f230      4e4d           trap 0xd
 > 0x0059f232      2028000e       move.l 0xe(a0), d0
     0x0059f236      b0ac0008       cmp.l 0x8(a4), d0
 < 0x0059f23a      6604           bne.b 0x59f240
    0x0059f23c      294b000c       move.l a3, 0xc(a4)
 > 0x0059f240      2f2b0008       move.l 0x8(a3), -(a7)
       0x0059f244      4ebaffac       jsr K03_DISKLIST.search_branches(pc)
       0x0059f248      584f           addq.w 0x4, a7
       0x0059f24a      266b0004       movea.l 0x4(a3), a3
    < 0x0059f24e      60be           bra.b 0x59f20e
    > 0x0059f250      4cdf0903       movem.l (a7)+, d0-d1/a0/a3
         0x0059f254      4e5e           unlk a6
         0x0059f256      4e75           rts
          ; CALL XREF from K03_DISKLIST.k03_find_node @ 0x59f2ec
 52: K03_DISKLIST.find_vol_node ();
         0x0059f258      4e56fff4       link.w a6, 0xfff4
         0x0059f25c      bfd5           cmpa.l (a5), a7
     < 0x0059f25e      6206           bhi.b 0x59f266
        0x0059f260      44fc0002       move.w 0x2, ccr
        0x0059f264      4e76           trapv
     > 0x0059f266      defc000c       adda.w 0xc, a7
         0x0059f26a      48e70008       movem.l a4, -(a7)
         0x0059f26e      2d7c00000001.  move.l 0x1, 0xc(a6)
         0x0059f276      2f390083fe46   move.l 0x83fe46, -(a7)
         0x0059f27c      284e           movea.l a6, a4
         0x0059f27e      4ebaff72       jsr K03_DISKLIST.search_branches(pc)
         0x0059f282      584f           addq.w 0x4, a7
         0x0059f284      4cdf1000       movem.l (a7)+, a4
         0x0059f288      4e5e           unlk a6
         0x0059f28a      4e75           rts
          ; CALL XREF from K0_DISKMGR.k_find_node @ 0x598598
 150: K03_DISKLIST.k03_find_node ();
         0x0059f28c      4e56fe60       link.w a6, 0xfe60
         0x0059f290      bfd5           cmpa.l (a5), a7
     < 0x0059f292      6206           bhi.b 0x59f29a
        0x0059f294      44fc0002       move.w 0x2, ccr
        0x0059f298      4e76           trapv
     > 0x0059f29a      defc014a       adda.w 0x14a, a7
         0x0059f29e      48e7fff8       movem.l d0-d7/a0-a4, -(a7)
         0x0059f2a2      45ee0016       lea.l 0x16(a6), a2
         0x0059f2a6      47ee0014       lea.l 0x14(a6), a3
         0x0059f2aa      7620           moveq 0x20, d3
         0x0059f2ac      7801           moveq 0x1, d4
         0x0059f2ae      7a05           moveq 0x5, d5
         0x0059f2b0      48790083fe5c   pea.l 0x83fe5c
         0x0059f2b6      4eb9004023c4   jsr p_Wait
         0x0059f2bc      584f           addq.w 0x4, a7
         0x0059f2be      422e0018       clr.b 0x18(a6)
         0x0059f2c2      206e0008       movea.l 0x8(a6), a0
         0x0059f2c6      20bcffffffff   move.l 0xffffffff, (a0)
         0x0059f2cc      554f           subq.w 0x2, a7
         0x0059f2ce      486effaa       pea.l -0x56(a6)
         0x0059f2d2      4eb900404434   jsr fcn.00404434
         0x0059f2d8      584f           addq.w 0x4, a7
         0x0059f2da      4a1f           tst.b (a7)+
     < 0x0059f2dc      670002ac       beq.w loc.0059f58a
        0x0059f2e0      4a2e0012       tst.b 0x12(a6)
    < 0x0059f2e4      6722           beq.b 0x59f308
       0x0059f2e6      594f           subq.w 0x4, a7
       0x0059f2e8      2f2e000c       move.l 0xc(a6), -(a7)
       0x0059f2ec      4ebaff6a       jsr K03_DISKLIST.find_vol_node(pc)
       0x0059f2f0      584f           addq.w 0x4, a7
       0x0059f2f2      285f           movea.l (a7)+, a4
       0x0059f2f4      422e0018       clr.b 0x18(a6)
       0x0059f2f8      b8c4           cmpa.w d4, a4
   < 0x0059f2fa      6704           beq.b 0x59f300
      0x0059f2fc      522e0018       addq.b 0x1, 0x18(a6)
   > 0x0059f300      2f0c           move.l a4, -(a7)
       0x0059f302      209f           move.l (a7)+, (a0)
   < 0x0059f304      60000284       bra.w loc.0059f58a
   > 0x0059f308      7e00           moveq 0x0, d7
       0x0059f30a      102e0010       move.b 0x10(a6), d0
       0x0059f30e      4880           ext.w d0
       0x0059f310      3200           move.w d0, d1
       0x0059f312      b245           cmp.w d5, d1
   < 0x0059f314      6302           bls.b 0x59f318
      0x0059f316      4e4e           trap 0xe
   > 0x0059f318      d241           add.w d1, d1
       0x0059f31a      323b1006       move.w 0x59f322(pc, d1.w), d1
       0x0059f31e      4efb1002       jmp 0x59f322(pc, d1.w)
        0x0059f322      000c002a       
        0x0059f323      0c002a00       cmpi.b 0x0, d0
    < 0x0059f327      62004600       bhi.w 0x5a3929
       0x0059f32b      7e00           moveq 0x0, d7
       0x0059f32d      9a321243       sub.b 0x43(a2, d1.w), d5
       0x0059f331      faabe834       fbf.w 0x59db67
       0x0059f335      01e6           bset.b d0, -(a6)
       0x0059f337      4ab4436d0474   tst.l ([0x474, a4])
       0x0059f33d      00600403       ori.w 0x403, -(a0)
       0x0059f341      3120           move.w -(a0), -(a0)
       0x0059f343      0066027e       ori.w 0x27e, -(a6)
       0x0059f347      0160           bchg.b d0, -(a0)
       0x0059f349      00008c32       ori.b 0x32, d0
       0x0059f34d      1243faab       
       0x0059f34e      43faabea       lea.l 0x599f3a(pc), a1
       0x0059f352      3401           move.w d1, d2
       0x0059f354      e64a           lsr.w 0x3, d2
       0x0059f356      b443           cmp.w d3, d2
   < 0x0059f358      6d04           blt.b 0x59f35e
      0x0059f35a      7400           moveq 0x0, d2
  < 0x0059f35c      6004           bra.b 0x59f362
  > 0x0059f35e      03312000       btst.l d1, (a1, d2.w)
  < 0x0059f362      6602           bne.b 0x59f366
      0x0059f364      7e01           moveq 0x1, d7
  > 0x0059f366      606e           bra.b 0x59f3d6
      0x0059f368      3212           move.w (a2), d1
      0x0059f36a      43faabee       lea.l 0x599f5a(pc), a1
      0x0059f36e      3401           move.w d1, d2
      0x0059f370      e64a           lsr.w 0x3, d2
      0x0059f372      b443           cmp.w d3, d2
  < 0x0059f374      6d04           blt.b 0x59f37a
     0x0059f376      7400           moveq 0x0, d2
  < 0x0059f378      6004           bra.b 0x59f37e
  > 0x0059f37a      03312000       btst.l d1, (a1, d2.w)
  < 0x0059f37e      6602           bne.b 0x59f382
     0x0059f380      7e01           moveq 0x1, d7
  > 0x0059f382      6052           bra.b 0x59f3d6
      0x0059f384      3212           move.w (a2), d1
      0x0059f386      43faabf2       lea.l 0x599f7a(pc), a1
      0x0059f38a      3401           move.w d1, d2
      0x0059f38c      e64a           lsr.w 0x3, d2
      0x0059f38e      b443           cmp.w d3, d2
  < 0x0059f390      6d04           blt.b 0x59f396
     0x0059f392      7400           moveq 0x0, d2
  < 0x0059f394      6004           bra.b 0x59f39a
  > 0x0059f396      03312000       btst.l d1, (a1, d2.w)
  < 0x0059f39a      6602           bne.b 0x59f39e
     0x0059f39c      7e01           moveq 0x1, d7
  > 0x0059f39e      6036           bra.b 0x59f3d6
      0x0059f3a0      3212           move.w (a2), d1
      0x0059f3a2      43faabf6       lea.l 0x599f9a(pc), a1
      0x0059f3a6      3401           move.w d1, d2
      0x0059f3a8      e64a           lsr.w 0x3, d2
      0x0059f3aa      b443           cmp.w d3, d2
  < 0x0059f3ac      6d04           blt.b 0x59f3b2
     0x0059f3ae      7400           moveq 0x0, d2
  < 0x0059f3b0      6004           bra.b 0x59f3b6
  > 0x0059f3b2      03312000       btst.l d1, (a1, d2.w)
  < 0x0059f3b6      6602           bne.b 0x59f3ba
     0x0059f3b8      7e01           moveq 0x1, d7
  > 0x0059f3ba      601a           bra.b 0x59f3d6
      0x0059f3bc      3212           move.w (a2), d1
      0x0059f3be      43faabfa       lea.l 0x599fba(pc), a1
      0x0059f3c2      3401           move.w d1, d2
      0x0059f3c4      e64a           lsr.w 0x3, d2
      0x0059f3c6      b443           cmp.w d3, d2
  < 0x0059f3c8      6d04           blt.b 0x59f3ce
     0x0059f3ca      7400           moveq 0x0, d2
  < 0x0059f3cc      6004           bra.b 0x59f3d2
  > 0x0059f3ce      03312000       btst.l d1, (a1, d2.w)
  < 0x0059f3d2      6602           bne.b 0x59f3d6
     0x0059f3d4      7e01           moveq 0x1, d7
  > 0x0059f3d6      4a07           tst.b d7
   < 0x0059f3d8      676a           beq.b 0x59f444
      0x0059f3da      9efc0100       suba.w 0x100, a7
      0x0059f3de      1f00           move.b d0, -(a7)
      0x0059f3e0      4ebafa96       jsr K03_DISKLIST.supervol_type_s(pc)
      0x0059f3e4      544f           addq.w 0x2, a7
      0x0059f3e6      487aabf3       pea.l 0x599fdb(pc)
      0x0059f3ea      4878000e       pea.l 0xe
      0x0059f3ee      2f17           move.l (a7), -(a7)
      0x0059f3f0      4eb9004047ea   jsr p_wts_o
      0x0059f3f6      defc000c       adda.w 0xc, a7
      0x0059f3fa      486f0001       pea.l 0x1(a7)
      0x0059f3fe      42a7           clr.l -(a7)
      0x0059f400      1f6f00080003   move.b 0x8(a7), 0x3(a7)
      0x0059f406      2f17           move.l (a7), -(a7)
      0x0059f408      4eb9004047ea   jsr p_wts_o
      0x0059f40e      defc010c       adda.w 0x10c, a7
      0x0059f412      487aabd6       pea.l 0x599fea(pc)
      0x0059f416      48780016       pea.l 0x16
      0x0059f41a      2f17           move.l (a7), -(a7)
      0x0059f41c      4eb9004047ea   jsr p_wts_o
      0x0059f422      504f           addq.w 0x8, a7
      0x0059f424      2e93           move.l (a3), (a7)
      0x0059f426      48780000       pea.l 0x0
      0x0059f42a      4eb9004070e4   jsr p_wti_o
      0x0059f430      504f           addq.w 0x8, a7
      0x0059f432      4eb900404946   jsr p_wtln_o
      0x0059f438      486effaa       pea.l -0x56(a6)
      0x0059f43c      4eb900404468   jsr fcn.00404468
      0x0059f442      584f           addq.w 0x4, a7
   > 0x0059f444      7e00           moveq 0x0, d7
       0x0059f446      3200           move.w d0, d1
       0x0059f448      b245           cmp.w d5, d1
   < 0x0059f44a      6302           bls.b 0x59f44e
      0x0059f44c      4e4e           trap 0xe
   > 0x0059f44e      d241           add.w d1, d1
       0x0059f450      323b1006       move.w 0x59f458(pc, d1.w), d1
       0x0059f454      4efb1002       jmp 0x59f458(pc, d1.w)
       0x0059f458      000c001a       
       0x0059f459      0c001a00       cmpi.b 0x0, d0
       0x0059f45d      3600           move.w d0, d3
       0x0059f45f      2800           move.l d0, d4
       0x0059f461      4400           neg.b d0
       0x0059f463      4622           not.b -(a2)
       0x0059f465      130c8100       
       0x0059f466      0c8100000002   cmpi.l 0x2, d1
   < 0x0059f46c      6602           bne.b 0x59f470
      0x0059f46e      7e01           moveq 0x1, d7
  > 0x0059f470      6038           bra.b 0x59f4aa
      0x0059f472      2213           move.l (a3), d1
      0x0059f474      0c8100000002   cmpi.l 0x2, d1
  < 0x0059f47a      6602           bne.b 0x59f47e
     0x0059f47c      7e01           moveq 0x1, d7
  > 0x0059f47e      602a           bra.b 0x59f4aa
      0x0059f480      2213           move.l (a3), d1
      0x0059f482      0c8100000002   cmpi.l 0x2, d1
  < 0x0059f488      6602           bne.b 0x59f48c
     0x0059f48a      7e01           moveq 0x1, d7
  > 0x0059f48c      601c           bra.b 0x59f4aa
      0x0059f48e      2213           move.l (a3), d1
      0x0059f490      0c8100000002   cmpi.l 0x2, d1
  < 0x0059f496      6602           bne.b 0x59f49a
     0x0059f498      7e01           moveq 0x1, d7
  > 0x0059f49a      600e           bra.b 0x59f4aa
  < 0x0059f49c      600c           bra.b 0x59f4aa
     0x0059f49e      2213           move.l (a3), d1
     0x0059f4a0      0c8100000003   cmpi.l 0x3, d1
  < 0x0059f4a6      6602           bne.b 0x59f4aa
     0x0059f4a8      7e01           moveq 0x1, d7
  > 0x0059f4aa      3200           move.w d0, d1
       0x0059f4ac      b245           cmp.w d5, d1
   < 0x0059f4ae      6302           bls.b 0x59f4b2
      0x0059f4b0      4e4e           trap 0xe
   > 0x0059f4b2      d241           add.w d1, d1
       0x0059f4b4      323b1006       move.w 0x59f4bc(pc, d1.w), d1
       0x0059f4b8      4efb1002       jmp 0x59f4bc(pc, d1.w)
       0x0059f4bc      000c0010       
       0x0059f4bd      0c001000       cmpi.b 0x0, d0
       0x0059f4c1      1800           move.b d0, d4
       0x0059f4c3      1400           move.b d0, d2
       0x0059f4c5      1c00           move.b d0, d6
       0x0059f4c7      207c0160147c   movea.l 0x160147c, a0
       0x0059f4cd      0260107c       andi.w 0x107c, -(a0)
       0x0059f4d1      0360           bchg.b d1, -(a0)
       0x0059f4d3      0c7c0460       
       0x0059f4d4      7c04           moveq 0x4, d6
   < 0x0059f4d6      6008           bra.b 0x59f4e0
      0x0059f4d8      7c05           moveq 0x5, d6
  < 0x0059f4da      6004           bra.b 0x59f4e0
     0x0059f4dc      2c2e000c       move.l 0xc(a6), d6
  > 0x0059f4e0      4a07           tst.b d7
   < 0x0059f4e2      673c           beq.b 0x59f520
      0x0059f4e4      22790083fe56   movea.l 0x83fe56, a1
      0x0059f4ea      b2c4           cmpa.w d4, a1
  < 0x0059f4ec      6628           bne.b 0x59f516
     0x0059f4ee      487aab11       pea.l 0x59a001(pc)
     0x0059f4f2      48780011       pea.l 0x11
  > 0x0059f4f6      2f17           move.l (a7), -(a7)
     0x0059f4f8      4eb9004047ea   jsr p_wts_o
     0x0059f4fe      defc000c       adda.w 0xc, a7
     0x0059f502      4eb900404946   jsr p_wtln_o
     0x0059f508      486effaa       pea.l -0x56(a6)
     0x0059f50c      4eb900404468   jsr fcn.00404468
     0x0059f512      584f           addq.w 0x4, a7
  < 0x0059f514      603e           bra.b 0x59f554
  > 0x0059f516      b3e9fffc       cmpa.l -0x4(a1), a1
  < 0x0059f51a      6702           beq.b 0x59f51e
     0x0059f51c      4e4d           trap 0xd
  > 0x0059f51e      6030           bra.b 0x59f550
   > 0x0059f520      b005           cmp.b d5, d0
   < 0x0059f522      661e           bne.b 0x59f542
      0x0059f524      22790083fe4a   movea.l 0x83fe4a, a1
      0x0059f52a      b2c4           cmpa.w d4, a1
  < 0x0059f52c      660a           bne.b 0x59f538
     0x0059f52e      487aaae3       pea.l 0x59a013(pc)
     0x0059f532      48780007       pea.l 0x7
  < 0x0059f536      60be           bra.b 0x59f4f6
  > 0x0059f538      b3e9fffc       cmpa.l -0x4(a1), a1
  < 0x0059f53c      6702           beq.b 0x59f540
     0x0059f53e      4e4d           trap 0xd
  > 0x0059f540      600e           bra.b 0x59f550
   > 0x0059f542      22790083fe46   movea.l 0x83fe46, a1
       0x0059f548      b3e9fffc       cmpa.l -0x4(a1), a1
   < 0x0059f54c      6702           beq.b 0x59f550
      0x0059f54e      4e4d           trap 0xd
  > 0x0059f550      28690008       movea.l 0x8(a1), a4
  > 0x0059f554      7e00           moveq 0x0, d7
   > 0x0059f556      4a07           tst.b d7
  < 0x0059f558      6620           bne.b 0x59f57a
     0x0059f55a      b8c4           cmpa.w d4, a4
  < 0x0059f55c      671c           beq.b 0x59f57a
     0x0059f55e      7000           moveq 0x0, d0
     0x0059f560      b9ecfffc       cmpa.l -0x4(a4), a4
  < 0x0059f564      6702           beq.b 0x59f568
     0x0059f566      4e4d           trap 0xd
  > 0x0059f568      bcac001c       cmp.l 0x1c(a4), d6
  < 0x0059f56c      6602           bne.b 0x59f570
     0x0059f56e      5200           addq.b 0x1, d0
  > 0x0059f570      1e00           move.b d0, d7
  < 0x0059f572      6604           bne.b 0x59f578
     0x0059f574      286c0004       movea.l 0x4(a4), a4
  < 0x0059f578      60dc           bra.b 0x59f556
  > 0x0059f57a      4887           ext.w d7
       0x0059f57c      4f84           chk.w d4, d7
       0x0059f57e      1d470018       move.b d7, 0x18(a6)
       0x0059f582      226e0008       movea.l 0x8(a6), a1
       0x0059f586      2f0c           move.l a4, -(a7)
       0x0059f588      229f           move.l (a7)+, (a1)
       ; CODE XREF from K03_DISKLIST.k03_find_node @ 0x59f304
 22: loc.0059f58a ();
   > 0x0059f58a      48790083fe5c   pea.l 0x83fe5c
        0x0059f590      4eb90040234e   jsr p_Signal
        0x0059f596      584f           addq.w 0x4, a7
        0x0059f598      4cdf1fff       movem.l (a7)+, d0-d7/a0-a4
        0x0059f59c      4e5e           unlk a6
        0x0059f59e      4e75           rts
         ; CALL XREF from K03_DISKLIST.compress_nodes_ @ 0x59f5e0
         ; CALL XREF from K03_DISKLIST.k03_close_nodes @ 0x59f620
 84: K03_DISKLIST.compress_nodes_ ();
        0x0059f5a0      4e56ffec       link.w a6, 0xffec
        0x0059f5a4      bfd5           cmpa.l (a5), a7
    < 0x0059f5a6      6206           bhi.b 0x59f5ae
       0x0059f5a8      44fc0002       move.w 0x2, ccr
       0x0059f5ac      4e76           trapv
    > 0x0059f5ae      defc0010       adda.w 0x10, a7
        0x0059f5b2      48e70090       movem.l a0/a3, -(a7)
        0x0059f5b6      206e0008       movea.l 0x8(a6), a0
        0x0059f5ba      b1e8fffc       cmpa.l -0x4(a0), a0
    < 0x0059f5be      6702           beq.b 0x59f5c2
       0x0059f5c0      4e4d           trap 0xd
    > 0x0059f5c2      26680008       movea.l 0x8(a0), a3
    > 0x0059f5c6      b6fc0001       cmpa.w 0x1, a3
   < 0x0059f5ca      6720           beq.b 0x59f5ec
      0x0059f5cc      b7ebfffc       cmpa.l -0x4(a3), a3
  < 0x0059f5d0      6702           beq.b 0x59f5d4
     0x0059f5d2      4e4d           trap 0xd
  > 0x0059f5d4      4a2b0021       tst.b 0x21(a3)
  < 0x0059f5d8      6604           bne.b 0x59f5de
     0x0059f5da      422b0020       clr.b 0x20(a3)
  > 0x0059f5de      2f0b           move.l a3, -(a7)
      0x0059f5e0      4ebaffbe       jsr K03_DISKLIST.compress_nodes_(pc)
      0x0059f5e4      584f           addq.w 0x4, a7
      0x0059f5e6      266b0004       movea.l 0x4(a3), a3
   < 0x0059f5ea      60da           bra.b 0x59f5c6
   > 0x0059f5ec      4cdf0900       movem.l (a7)+, a0/a3
        0x0059f5f0      4e5e           unlk a6
        0x0059f5f2      4e75           rts
         ; CALL XREF from K0_DISKMGR.k_close_nodes @ 0x598464
 68: K03_DISKLIST.k03_close_nodes ();
        0x0059f5f4      4e56fff0       link.w a6, 0xfff0
        0x0059f5f8      bfd5           cmpa.l (a5), a7
    < 0x0059f5fa      6206           bhi.b 0x59f602
       0x0059f5fc      44fc0002       move.w 0x2, ccr
       0x0059f600      4e76           trapv
    > 0x0059f602      defc0010       adda.w 0x10, a7
        0x0059f606      48e70088       movem.l a0/a4, -(a7)
        0x0059f60a      41f90083fe5c   lea.l 0x83fe5c, a0
        0x0059f610      4850           pea.l (a0)
        0x0059f612      4eb9004023c4   jsr p_Wait
        0x0059f618      2eb90083fe46   move.l 0x83fe46, (a7)
        0x0059f61e      284e           movea.l a6, a4
        0x0059f620      4ebaff7e       jsr K03_DISKLIST.compress_nodes_(pc)
        0x0059f624      584f           addq.w 0x4, a7
        0x0059f626      4850           pea.l (a0)
        0x0059f628      4eb90040234e   jsr p_Signal
        0x0059f62e      584f           addq.w 0x4, a7
        0x0059f630      4cdf1100       movem.l (a7)+, a0/a4
        0x0059f634      4e5e           unlk a6
        0x0059f636      4e75           rts
         ; CALL XREF from K0_DISKMGR.k_hit_node @ 0x598484
 154: K03_DISKLIST.k03_hit_node ();
        0x0059f638      4e56ffd8       link.w a6, 0xffd8
        0x0059f63c      bfd5           cmpa.l (a5), a7
    < 0x0059f63e      6206           bhi.b 0x59f646
       0x0059f640      44fc0002       move.w 0x2, ccr
       0x0059f644      4e76           trapv
    > 0x0059f646      defc0020       adda.w 0x20, a7
        0x0059f64a      48e7c0d8       movem.l d0-d1/a0-a1/a3-a4, -(a7)
        0x0059f64e      43f90083fe5c   lea.l 0x83fe5c, a1
        0x0059f654      7201           moveq 0x1, d1
        0x0059f656      4851           pea.l (a1)
        0x0059f658      4eb9004023c4   jsr p_Wait
        0x0059f65e      584f           addq.w 0x4, a7
        0x0059f660      266e0008       movea.l 0x8(a6), a3
        0x0059f664      b6c1           cmpa.w d1, a3
    < 0x0059f666      6758           beq.b 0x59f6c0
       0x0059f668      b7ebfffc       cmpa.l -0x4(a3), a3
   < 0x0059f66c      6702           beq.b 0x59f670
      0x0059f66e      4e4d           trap 0xd
   > 0x0059f670      102b0020       move.b 0x20(a3), d0
       0x0059f674      4400           neg.b d0
       0x0059f676      5200           addq.b 0x1, d0
       0x0059f678      4880           ext.w d0
       0x0059f67a      4181           chk.w d1, d0
       0x0059f67c      17400020       move.b d0, 0x20(a3)
       0x0059f680      4a00           tst.b d0
   < 0x0059f682      673c           beq.b 0x59f6c0
      0x0059f684      4a2b0022       tst.b 0x22(a3)
  < 0x0059f688      6636           bne.b 0x59f6c0
     0x0059f68a      2053           movea.l (a3), a0
     0x0059f68c      b1e8fffc       cmpa.l -0x4(a0), a0
 < 0x0059f690      6702           beq.b 0x59f694
    0x0059f692      4e4d           trap 0xd
 > 0x0059f694      28680008       movea.l 0x8(a0), a4
 > 0x0059f698      b8c1           cmpa.w d1, a4
 < 0x0059f69a      6724           beq.b 0x59f6c0
    0x0059f69c      b9ecfffc       cmpa.l -0x4(a4), a4
 < 0x0059f6a0      6702           beq.b 0x59f6a4
    0x0059f6a2      4e4d           trap 0xd
 > 0x0059f6a4      b9cb           cmpa.l a3, a4
 < 0x0059f6a6      6712           beq.b 0x59f6ba
    0x0059f6a8      4a2c0022       tst.b 0x22(a4)
 < 0x0059f6ac      660c           bne.b 0x59f6ba
    0x0059f6ae      b9f90083fe52   cmpa.l 0x83fe52, a4
 < 0x0059f6b4      6704           beq.b 0x59f6ba
    0x0059f6b6      422c0020       clr.b 0x20(a4)
 > 0x0059f6ba      286c0004       movea.l 0x4(a4), a4
 < 0x0059f6be      60d8           bra.b 0x59f698
 > 0x0059f6c0      4851           pea.l (a1)
        0x0059f6c2      4eb90040234e   jsr p_Signal
        0x0059f6c8      584f           addq.w 0x4, a7
        0x0059f6ca      4cdf1b03       movem.l (a7)+, d0-d1/a0-a1/a3-a4
        0x0059f6ce      4e5e           unlk a6
        0x0059f6d0      4e75           rts
         ; CALL XREF from K03_DISKLIST.k03_add_vol @ 0x59fc80
         ; CALL XREF from K03_DISKLIST.k03_remove_vol @ 0x59ffce
 70: K03_DISKLIST.floppy_drive ();
        0x0059f6d2      4e56ffea       link.w a6, 0xffea
        0x0059f6d6      bfd5           cmpa.l (a5), a7
    < 0x0059f6d8      6206           bhi.b 0x59f6e0
       0x0059f6da      44fc0002       move.w 0x2, ccr
       0x0059f6de      4e76           trapv
    > 0x0059f6e0      defc0012       adda.w 0x12, a7
        0x0059f6e4      48e78080       movem.l d0/a0, -(a7)
        0x0059f6e8      41ee000c       lea.l 0xc(a6), a0
        0x0059f6ec      554f           subq.w 0x2, a7
        0x0059f6ee      486efffc       pea.l -0x4(a6)
        0x0059f6f2      4eb900628050   jsr PICTURENET.scsi_floppy_dri
        0x0059f6f8      584f           addq.w 0x4, a7
        0x0059f6fa      4a1f           tst.b (a7)+
    < 0x0059f6fc      6604           bne.b 0x59f702
       0x0059f6fe      4210           clr.b (a0)
   < 0x0059f700      600e           bra.b 0x59f710
   > 0x0059f702      4210           clr.b (a0)
       0x0059f704      202efffc       move.l -0x4(a6), d0
       0x0059f708      b0ae0008       cmp.l 0x8(a6), d0
   < 0x0059f70c      6602           bne.b 0x59f710
      0x0059f70e      5210           addq.b 0x1, (a0)
   > 0x0059f710      4cdf0101       movem.l (a7)+, d0/a0
        0x0059f714      4e5e           unlk a6
        0x0059f716      4e75           rts
         ; CALL XREF from K0_DISKMGR.k_vol_mounted @ 0x598034
 1944: K03_DISKLIST.k03_add_vol (int32_t arg_4h, int32_t arg_8h);
        ; var int32_t var_1eh @ a6-0x1e
        ; arg int32_t arg_4h @ a6+0x4
        ; arg int32_t arg_8h @ a6+0x8
        ; var int32_t var_8h @ a7+0x8
        ; var int32_t var_22h @ a7+0x22
        ; var int32_t var_108h @ a7+0x108
        0x0059f718      4e56fd92       link.w a6, 0xfd92
        0x0059f71c      bfd5           cmpa.l (a5), a7
    < 0x0059f71e      6206           bhi.b 0x59f726
       0x0059f720      44fc0002       move.w 0x2, ccr
       0x0059f724      4e76           trapv
    > 0x0059f726      defc0248       adda.w 0x248, a7
        0x0059f72a      48e7fff8       movem.l d0-d7/a0-a4, -(a7)
        0x0059f72e      7601           moveq 0x1, d3
        0x0059f730      780c           moveq 0xc, d4
        0x0059f732      7a1e           moveq 0x1e, d5
        0x0059f734      7c0a           moveq 0xa, d6
        0x0059f736      554f           subq.w 0x2, a7
        0x0059f738      1f05           move.b d5, -(a7)
        0x0059f73a      4eb900598cca   jsr K01_DEBUG.k01_debug
        0x0059f740      544f           addq.w 0x2, a7
        0x0059f742      4a1f           tst.b (a7)+
    < 0x0059f744      670000e6       beq.w 0x59f82c
       0x0059f748      9efc0100       suba.w 0x100, a7
       0x0059f74c      2f2e0018       move.l 0x18(a6), -(a7)
       0x0059f750      4eb9005b0a04   jsr K3_UTILS.k3_fixed_id_str
       0x0059f756      9efc00fc       suba.w 0xfc, a7
       0x0059f75a      1f2e001c       move.b 0x1c(a6), -(a7)
       0x0059f75e      4eb9005b0d30   jsr K3_UTILS.k3_filer_str
       0x0059f764      544f           addq.w 0x2, a7
       0x0059f766      487aa8b3       pea.l 0x59a01b(pc)
       0x0059f76a      4878000e       pea.l 0xe
       0x0059f76e      2f17           move.l (a7), -(a7)
       0x0059f770      4eb9004047ea   jsr p_wts_o
       0x0059f776      504f           addq.w 0x8, a7
       0x0059f778      2eae001e       move.l 0x1e(a6), (a7)
       0x0059f77c      4878ffff       pea.l 0xffff
       0x0059f780      4eb9004070e4   jsr p_wti_o
       0x0059f786      504f           addq.w 0x8, a7
       0x0059f788      487aa8a0       pea.l 0x59a02a(pc)
       0x0059f78c      48780002       pea.l 0x2
       0x0059f790      2f17           move.l (a7), -(a7)
       0x0059f792      4eb9004047ea   jsr p_wts_o
       0x0059f798      dec4           adda.w d4, a7
       0x0059f79a      206e0014       movea.l 0x14(a6), a0
       0x0059f79e      48680001       pea.l 0x1(a0)
       0x0059f7a2      42a7           clr.l -(a7)
       0x0059f7a4      1f500003       move.b (a0), 0x3(a7)
       0x0059f7a8      2f17           move.l (a7), -(a7)
       0x0059f7aa      4eb9004047ea   jsr p_wts_o
       0x0059f7b0      dec4           adda.w d4, a7
       0x0059f7b2      487aa879       pea.l 0x59a02d(pc)
       0x0059f7b6      48780004       pea.l 0x4
       0x0059f7ba      2f17           move.l (a7), -(a7)
       0x0059f7bc      4eb9004047ea   jsr p_wts_o
       0x0059f7c2      dec4           adda.w d4, a7
       0x0059f7c4      486f0101       pea.l 0x101(a7)
       0x0059f7c8      42a7           clr.l -(a7)
       0x0059f7ca      1f6f01080003   move.b 0x108(a7), 0x3(a7)
       0x0059f7d0      2f17           move.l (a7), -(a7)
       0x0059f7d2      4eb9004047ea   jsr p_wts_o
       0x0059f7d8      dec4           adda.w d4, a7
       0x0059f7da      487aa856       pea.l 0x59a032(pc)
       0x0059f7de      48780005       pea.l 0x5
       0x0059f7e2      2f17           move.l (a7), -(a7)
       0x0059f7e4      4eb9004047ea   jsr p_wts_o
       0x0059f7ea      504f           addq.w 0x8, a7
       0x0059f7ec      2eae0018       move.l 0x18(a6), (a7)
       0x0059f7f0      4878fffd       pea.l 0xfffd
       0x0059f7f4      4eb9004070e4   jsr p_wti_o
       0x0059f7fa      504f           addq.w 0x8, a7
       0x0059f7fc      487aa83a       pea.l 0x59a038(pc)
       0x0059f800      4878000e       pea.l 0xe
       0x0059f804      2f17           move.l (a7), -(a7)
       0x0059f806      4eb9004047ea   jsr p_wts_o
       0x0059f80c      dec4           adda.w d4, a7
       0x0059f80e      486f0001       pea.l 0x1(a7)
       0x0059f812      42a7           clr.l -(a7)
       0x0059f814      1f6f00080003   move.b 0x8(a7), 0x3(a7)
       0x0059f81a      2f17           move.l (a7), -(a7)
       0x0059f81c      4eb9004047ea   jsr p_wts_o
       0x0059f822      defc020c       adda.w 0x20c, a7
       0x0059f826      4eb900404946   jsr p_wtln_o
    > 0x0059f82c      554f           subq.w 0x2, a7
        0x0059f82e      1f05           move.b d5, -(a7)
        0x0059f830      4eb900598cca   jsr K01_DEBUG.k01_debug
        0x0059f836      544f           addq.w 0x2, a7
        0x0059f838      4a1f           tst.b (a7)+
    < 0x0059f83a      6704           beq.b 0x59f840
       0x0059f83c      4ebab420       jsr K03_DISKLIST.show_tree(pc)
    > 0x0059f840      48790083fe5c   pea.l 0x83fe5c
        0x0059f846      4eb9004023c4   jsr p_Wait
        0x0059f84c      584f           addq.w 0x4, a7
        0x0059f84e      2d790083fe3e.  move.l 0x83fe3e, -0x1e(a6)
        0x0059f856      7e00           moveq 0x0, d7
    > 0x0059f858      4a07           tst.b d7
   < 0x0059f85a      6674           bne.b 0x59f8d0
      0x0059f85c      206effe2       movea.l -0x1e(a6), a0
      0x0059f860      b0c3           cmpa.w d3, a0
  < 0x0059f862      676c           beq.b 0x59f8d0
     0x0059f864      202e0018       move.l 0x18(a6), d0
     0x0059f868      0c8000ffffff   cmpi.l 0xffffff, d0
 < 0x0059f86e      661e           bne.b 0x59f88e
    0x0059f870      7200           moveq 0x0, d1
    0x0059f872      206effe2       movea.l -0x1e(a6), a0
    0x0059f876      b1e8fffc       cmpa.l -0x4(a0), a0
 < 0x0059f87a      6702           beq.b 0x59f87e
    0x0059f87c      4e4d           trap 0xd
 > 0x0059f87e      2428000e       move.l 0xe(a0), d2
    0x0059f882      b4ae001e       cmp.l 0x1e(a6), d2
 < 0x0059f886      6602           bne.b 0x59f88a
    0x0059f888      5201           addq.b 0x1, d1
 > 0x0059f88a      1e01           move.b d1, d7
 < 0x0059f88c      602a           bra.b 0x59f8b8
 > 0x0059f88e      7200           moveq 0x0, d1
     0x0059f890      206effe2       movea.l -0x1e(a6), a0
     0x0059f894      b1e8fffc       cmpa.l -0x4(a0), a0
 < 0x0059f898      6702           beq.b 0x59f89c
    0x0059f89a      4e4d           trap 0xd
 > 0x0059f89c      b0a80222       cmp.l 0x222(a0), d0
 < 0x0059f8a0      6614           bne.b 0x59f8b6
    0x0059f8a2      1428000c       move.b 0xc(a0), d2
    0x0059f8a6      b42e001c       cmp.b 0x1c(a6), d2
 < 0x0059f8aa      6708           beq.b 0x59f8b4
    0x0059f8ac      142e0018       move.b 0x18(a6), d2
    0x0059f8b0      b403           cmp.b d3, d2
 < 0x0059f8b2      6602           bne.b 0x59f8b6
 > 0x0059f8b4      5201           addq.b 0x1, d1
 > 0x0059f8b6      1e01           move.b d1, d7
 > 0x0059f8b8      4a07           tst.b d7
 < 0x0059f8ba      6612           bne.b 0x59f8ce
    0x0059f8bc      206effe2       movea.l -0x1e(a6), a0
    0x0059f8c0      b1e8fffc       cmpa.l -0x4(a0), a0
 < 0x0059f8c4      6702           beq.b 0x59f8c8
    0x0059f8c6      4e4d           trap 0xd
 > 0x0059f8c8      2d680004ffe2   move.l 0x4(a0), -0x1e(a6)
 < 0x0059f8ce      6088           bra.b 0x59f858
  > 0x0059f8d0      4227           clr.b -(a7)
        0x0059f8d2      7000           moveq 0x0, d0
        0x0059f8d4      206effe2       movea.l -0x1e(a6), a0
        0x0059f8d8      b0c3           cmpa.w d3, a0
    < 0x0059f8da      6702           beq.b 0x59f8de
       0x0059f8dc      5200           addq.b 0x1, d0
    > 0x0059f8de      be00           cmp.b d0, d7
    < 0x0059f8e0      6602           bne.b 0x59f8e4
       0x0059f8e2      5217           addq.b 0x1, (a7)
    > 0x0059f8e4      4eb90040452a   jsr p_Assert
        0x0059f8ea      1f05           move.b d5, -(a7)
        0x0059f8ec      4eb900598cca   jsr K01_DEBUG.k01_debug
        0x0059f8f2      544f           addq.w 0x2, a7
        0x0059f8f4      4a1f           tst.b (a7)+
    < 0x0059f8f6      675a           beq.b 0x59f952
       0x0059f8f8      487aa74d       pea.l 0x59a047(pc)
       0x0059f8fc      4878000e       pea.l 0xe
       0x0059f900      2f17           move.l (a7), -(a7)
       0x0059f902      4eb9004047ea   jsr p_wts_o
       0x0059f908      dec6           adda.w d6, a7
       0x0059f90a      1e87           move.b d7, (a7)
       0x0059f90c      48780005       pea.l 0x5
       0x0059f910      4eb90040718c   jsr p_wtb_o
       0x0059f916      9efc01fa       suba.w 0x1fa, a7
       0x0059f91a      204f           movea.l a7, a0
       0x0059f91c      43faa737       lea.l 0x59a055(pc), a1
       0x0059f920      700a           moveq 0xa, d0
   > 0x0059f922      10d9           move.b (a1)+, (a0)+
   < 0x0059f924      51c8fffc       dbra d0, 0x59f922
       0x0059f928      2f2effe2       move.l -0x1e(a6), -(a7)
       0x0059f92c      4ebaadc2       jsr K03_DISKLIST.volume_str(pc)
       0x0059f930      defc0104       adda.w 0x104, a7
       0x0059f934      486f0001       pea.l 0x1(a7)
       0x0059f938      42a7           clr.l -(a7)
       0x0059f93a      1f6f00080003   move.b 0x8(a7), 0x3(a7)
       0x0059f940      2f17           move.l (a7), -(a7)
       0x0059f942      4eb9004047ea   jsr p_wts_o
       0x0059f948      defc010c       adda.w 0x10c, a7
       0x0059f94c      4eb900404946   jsr p_wtln_o
    > 0x0059f952      4a07           tst.b d7
    < 0x0059f954      6600010a       bne.w 0x59fa60
       0x0059f958      554f           subq.w 0x2, a7
       0x0059f95a      1f05           move.b d5, -(a7)
       0x0059f95c      4eb900598cca   jsr K01_DEBUG.k01_debug
       0x0059f962      544f           addq.w 0x2, a7
       0x0059f964      4a1f           tst.b (a7)+
   < 0x0059f966      6718           beq.b 0x59f980
      0x0059f968      487aa6f7       pea.l 0x59a061(pc)
      0x0059f96c      4878000d       pea.l 0xd
      0x0059f970      2f17           move.l (a7), -(a7)
      0x0059f972      4eb9004047ea   jsr p_wts_o
      0x0059f978      dec4           adda.w d4, a7
      0x0059f97a      4eb900404946   jsr p_wtln_o
   > 0x0059f980      2d43ffe2       move.l d3, -0x1e(a6)
       0x0059f984      486effe2       pea.l -0x1e(a6)
       0x0059f988      48780231       pea.l 0x231
       0x0059f98c      4eb900403a92   jsr p_New
       0x0059f992      504f           addq.w 0x8, a7
       0x0059f994      206effe2       movea.l -0x1e(a6), a0
       0x0059f998      b1e8fffc       cmpa.l -0x4(a0), a0
   < 0x0059f99c      6702           beq.b 0x59f9a0
      0x0059f99e      4e4d           trap 0xd
   > 0x0059f9a0      42a8000e       clr.l 0xe(a0)
       0x0059f9a4      42a80222       clr.l 0x222(a0)
       0x0059f9a8      226effe2       movea.l -0x1e(a6), a1
       0x0059f9ac      b2c3           cmpa.w d3, a1
   < 0x0059f9ae      6618           bne.b 0x59f9c8
      0x0059f9b0      487aa6bd       pea.l 0x59a06f(pc)
      0x0059f9b4      48780039       pea.l 0x39
      0x0059f9b8      2f17           move.l (a7), -(a7)
      0x0059f9ba      4eb9004047ea   jsr p_wts_o
      0x0059f9c0      dec4           adda.w d4, a7
      0x0059f9c2      4eb900404946   jsr p_wtln_o
   > 0x0059f9c8      10baa6df       move.b 0x59a0a9(pc), (a0)
       0x0059f9cc      117aa6dc0001   move.b 0x59a0aa(pc), 0x1(a0)
       0x0059f9d2      117aa6d70002   move.b 0x59a0ab(pc), 0x2(a0)
       0x0059f9d8      117aa6d20003   move.b 0x59a0ac(pc), 0x3(a0)
       0x0059f9de      3643           movea.w d3, a3
       0x0059f9e0      28790083fe3e   movea.l 0x83fe3e, a4
       0x0059f9e6      7e00           moveq 0x0, d7
   > 0x0059f9e8      4a07           tst.b d7
  < 0x0059f9ea      6626           bne.b 0x59fa12
     0x0059f9ec      b8c3           cmpa.w d3, a4
 < 0x0059f9ee      6722           beq.b 0x59fa12
    0x0059f9f0      7000           moveq 0x0, d0
    0x0059f9f2      b9ecfffc       cmpa.l -0x4(a4), a4
 < 0x0059f9f6      6702           beq.b 0x59f9fa
    0x0059f9f8      4e4d           trap 0xd
 > 0x0059f9fa      222c0222       move.l 0x222(a4), d1
    0x0059f9fe      b2ae0018       cmp.l 0x18(a6), d1
 < 0x0059fa02      6502           bcs.b 0x59fa06
    0x0059fa04      5200           addq.b 0x1, d0
 > 0x0059fa06      1e00           move.b d0, d7
 < 0x0059fa08      6606           bne.b 0x59fa10
    0x0059fa0a      264c           movea.l a4, a3
    0x0059fa0c      286c0004       movea.l 0x4(a4), a4
 < 0x0059fa10      60d6           bra.b 0x59f9e8
 > 0x0059fa12      206effe2       movea.l -0x1e(a6), a0
       0x0059fa16      b1e8fffc       cmpa.l -0x4(a0), a0
   < 0x0059fa1a      6702           beq.b 0x59fa1e
      0x0059fa1c      4e4d           trap 0xd
   > 0x0059fa1e      214c0004       move.l a4, 0x4(a0)
       0x0059fa22      214b0008       move.l a3, 0x8(a0)
       0x0059fa26      b6c3           cmpa.w d3, a3
   < 0x0059fa28      660a           bne.b 0x59fa34
      0x0059fa2a      23eeffe20083.  move.l -0x1e(a6), 0x83fe3e.l
  < 0x0059fa32      600e           bra.b 0x59fa42
  > 0x0059fa34      b7ebfffc       cmpa.l -0x4(a3), a3
  < 0x0059fa38      6702           beq.b 0x59fa3c
     0x0059fa3a      4e4d           trap 0xd
  > 0x0059fa3c      276effe20004   move.l -0x1e(a6), 0x4(a3)
  > 0x0059fa42      b8c3           cmpa.w d3, a4
   < 0x0059fa44      660a           bne.b 0x59fa50
      0x0059fa46      23eeffe20083.  move.l -0x1e(a6), 0x83fe42.l
  < 0x0059fa4e      6038           bra.b 0x59fa88
  > 0x0059fa50      b9ecfffc       cmpa.l -0x4(a4), a4
  < 0x0059fa54      6702           beq.b 0x59fa58
     0x0059fa56      4e4d           trap 0xd
  > 0x0059fa58      296effe20008   move.l -0x1e(a6), 0x8(a4)
  < 0x0059fa5e      6028           bra.b 0x59fa88
  > 0x0059fa60      554f           subq.w 0x2, a7
      0x0059fa62      1f05           move.b d5, -(a7)
      0x0059fa64      4eb900598cca   jsr K01_DEBUG.k01_debug
      0x0059fa6a      544f           addq.w 0x2, a7
      0x0059fa6c      4a1f           tst.b (a7)+
  < 0x0059fa6e      6718           beq.b 0x59fa88
     0x0059fa70      487aa63c       pea.l 0x59a0ae(pc)
     0x0059fa74      4878001c       pea.l 0x1c
     0x0059fa78      2f17           move.l (a7), -(a7)
     0x0059fa7a      4eb9004047ea   jsr p_wts_o
     0x0059fa80      dec4           adda.w d4, a7
     0x0059fa82      4eb900404946   jsr p_wtln_o
  > 0x0059fa88      4aae001e       tst.l 0x1e(a6)
    < 0x0059fa8c      670000bc       beq.w 0x59fb4a
       0x0059fa90      28790083fe3e   movea.l 0x83fe3e, a4
       0x0059fa96      7e00           moveq 0x0, d7
   > 0x0059fa98      4a07           tst.b d7
  < 0x0059fa9a      6624           bne.b 0x59fac0
     0x0059fa9c      b8c3           cmpa.w d3, a4
 < 0x0059fa9e      6720           beq.b 0x59fac0
    0x0059faa0      7000           moveq 0x0, d0
    0x0059faa2      b9ecfffc       cmpa.l -0x4(a4), a4
 < 0x0059faa6      6702           beq.b 0x59faaa
    0x0059faa8      4e4d           trap 0xd
 > 0x0059faaa      222c000e       move.l 0xe(a4), d1
    0x0059faae      b2ae001e       cmp.l 0x1e(a6), d1
 < 0x0059fab2      6602           bne.b 0x59fab6
    0x0059fab4      5200           addq.b 0x1, d0
 > 0x0059fab6      1e00           move.b d0, d7
 < 0x0059fab8      6604           bne.b 0x59fabe
    0x0059faba      286c0004       movea.l 0x4(a4), a4
 < 0x0059fabe      60d8           bra.b 0x59fa98
 > 0x0059fac0      4a07           tst.b d7
   < 0x0059fac2      67000086       beq.w 0x59fb4a
      0x0059fac6      b9eeffe2       cmpa.l -0x1e(a6), a4
  < 0x0059faca      677e           beq.b 0x59fb4a
     0x0059facc      554f           subq.w 0x2, a7
     0x0059face      1f05           move.b d5, -(a7)
     0x0059fad0      4eb900598cca   jsr K01_DEBUG.k01_debug
     0x0059fad6      544f           addq.w 0x2, a7
     0x0059fad8      4a1f           tst.b (a7)+
 < 0x0059fada      6752           beq.b 0x59fb2e
    0x0059fadc      487aa5ed       pea.l 0x59a0cb(pc)
    0x0059fae0      48780007       pea.l 0x7
    0x0059fae4      2f17           move.l (a7), -(a7)
    0x0059fae6      4eb9004047ea   jsr p_wts_o
    0x0059faec      504f           addq.w 0x8, a7
    0x0059faee      2eae001e       move.l 0x1e(a6), (a7)
    0x0059faf2      4878ffff       pea.l 0xffff
    0x0059faf6      4eb9004070e4   jsr p_wti_o
    0x0059fafc      504f           addq.w 0x8, a7
    0x0059fafe      487aa5d3       pea.l 0x59a0d3(pc)
    0x0059fb02      4878001c       pea.l 0x1c
    0x0059fb06      2f17           move.l (a7), -(a7)
    0x0059fb08      4eb9004047ea   jsr p_wts_o
    0x0059fb0e      dec4           adda.w d4, a7
    0x0059fb10      b9ecfffc       cmpa.l -0x4(a4), a4
 < 0x0059fb14      6702           beq.b 0x59fb18
    0x0059fb16      4e4d           trap 0xd
 > 0x0059fb18      2f2c0222       move.l 0x222(a4), -(a7)
    0x0059fb1c      4878fffd       pea.l 0xfffd
    0x0059fb20      4eb9004070e4   jsr p_wti_o
    0x0059fb26      504f           addq.w 0x8, a7
    0x0059fb28      4eb900404946   jsr p_wtln_o
 > 0x0059fb2e      b9ecfffc       cmpa.l -0x4(a4), a4
 < 0x0059fb32      6702           beq.b 0x59fb36
    0x0059fb34      4e4d           trap 0xd
 > 0x0059fb36      42ac000e       clr.l 0xe(a4)
     0x0059fb3a      41ec0022       lea.l 0x22(a4), a0
     0x0059fb3e      43faa5af       lea.l 0x59a0ef(pc), a1
     0x0059fb42      7007           moveq 0x7, d0
 > 0x0059fb44      10d9           move.b (a1)+, (a0)+
 < 0x0059fb46      51c8fffc       dbra d0, 0x59fb44
  > 0x0059fb4a      554f           subq.w 0x2, a7
        0x0059fb4c      1f05           move.b d5, -(a7)
        0x0059fb4e      4eb900598cca   jsr K01_DEBUG.k01_debug
        0x0059fb54      544f           addq.w 0x2, a7
        0x0059fb56      4a1f           tst.b (a7)+
    < 0x0059fb58      673c           beq.b 0x59fb96
       0x0059fb5a      9efc0200       suba.w 0x200, a7
       0x0059fb5e      204f           movea.l a7, a0
       0x0059fb60      43faa595       lea.l 0x59a0f7(pc), a1
       0x0059fb64      7011           moveq 0x11, d0
   > 0x0059fb66      10d9           move.b (a1)+, (a0)+
   < 0x0059fb68      51c8fffc       dbra d0, 0x59fb66
       0x0059fb6c      2f2effe2       move.l -0x1e(a6), -(a7)
       0x0059fb70      4ebaab7e       jsr K03_DISKLIST.volume_str(pc)
       0x0059fb74      defc0104       adda.w 0x104, a7
       0x0059fb78      486f0001       pea.l 0x1(a7)
       0x0059fb7c      42a7           clr.l -(a7)
       0x0059fb7e      1f6f00080003   move.b 0x8(a7), 0x3(a7)
       0x0059fb84      2f17           move.l (a7), -(a7)
       0x0059fb86      4eb9004047ea   jsr p_wts_o
       0x0059fb8c      defc010c       adda.w 0x10c, a7
       0x0059fb90      4eb900404946   jsr p_wtln_o
    > 0x0059fb96      206effe2       movea.l -0x1e(a6), a0
        0x0059fb9a      b1e8fffc       cmpa.l -0x4(a0), a0
    < 0x0059fb9e      6702           beq.b 0x59fba2
       0x0059fba0      4e4d           trap 0xd
    > 0x0059fba2      116e001c000c   move.b 0x1c(a6), 0xc(a0)
        0x0059fba8      216e0008001a   move.l 0x8(a6), 0x1a(a0)
        0x0059fbae      216e000c001e   move.l 0xc(a6), 0x1e(a0)
        0x0059fbb4      216e001e000e   move.l 0x1e(a6), 0xe(a0)
        0x0059fbba      116e00180222   move.b 0x18(a6), 0x222(a0)
        0x0059fbc0      116e00190223   move.b 0x19(a6), 0x223(a0)
        0x0059fbc6      116e001a0224   move.b 0x1a(a6), 0x224(a0)
        0x0059fbcc      116e001b0225   move.b 0x1b(a6), 0x225(a0)
        0x0059fbd2      226e0014       movea.l 0x14(a6), a1
        0x0059fbd6      45e80022       lea.l 0x22(a0), a2
        0x0059fbda      303c00ff       move.w 0xff, d0
    > 0x0059fbde      14d9           move.b (a1)+, (a2)+
    < 0x0059fbe0      51c8fffc       dbra d0, 0x59fbde
        0x0059fbe4      226e0010       movea.l 0x10(a6), a1
        0x0059fbe8      45e80122       lea.l 0x122(a0), a2
        0x0059fbec      303c00ff       move.w 0xff, d0
    > 0x0059fbf0      14d9           move.b (a1)+, (a2)+
    < 0x0059fbf2      51c8fffc       dbra d0, 0x59fbf0
        0x0059fbf6      594f           subq.w 0x4, a7
        0x0059fbf8      4eb900633bb2   jsr HANDCOM.get_pixel_aspec
        0x0059fbfe      11570226       move.b (a7), 0x226(a0)
        0x0059fc02      116f00010227   move.b 0x1(a7), 0x227(a0)
        0x0059fc08      116f00020228   move.b 0x2(a7), 0x228(a0)
        0x0059fc0e      116f00030229   move.b 0x3(a7), 0x229(a0)
        0x0059fc14      584f           addq.w 0x4, a7
        0x0059fc16      21430012       move.l d3, 0x12(a0)
        0x0059fc1a      2143022a       move.l d3, 0x22a(a0)
        0x0059fc1e      2d6effe20022   move.l -0x1e(a6), 0x22(a6)
        0x0059fc24      554f           subq.w 0x2, a7
        0x0059fc26      1f05           move.b d5, -(a7)
        0x0059fc28      4eb900598cca   jsr K01_DEBUG.k01_debug
        0x0059fc2e      544f           addq.w 0x2, a7
        0x0059fc30      4a1f           tst.b (a7)+
    < 0x0059fc32      673c           beq.b 0x59fc70
       0x0059fc34      9efc0200       suba.w 0x200, a7
       0x0059fc38      204f           movea.l a7, a0
       0x0059fc3a      43faa4cd       lea.l 0x59a109(pc), a1
       0x0059fc3e      7010           moveq 0x10, d0
   > 0x0059fc40      10d9           move.b (a1)+, (a0)+
   < 0x0059fc42      51c8fffc       dbra d0, 0x59fc40
       0x0059fc46      2f2effe2       move.l -0x1e(a6), -(a7)
       0x0059fc4a      4ebaaaa4       jsr K03_DISKLIST.volume_str(pc)
       0x0059fc4e      defc0104       adda.w 0x104, a7
       0x0059fc52      486f0001       pea.l 0x1(a7)
       0x0059fc56      42a7           clr.l -(a7)
       0x0059fc58      1f6f00080003   move.b 0x8(a7), 0x3(a7)
       0x0059fc5e      2f17           move.l (a7), -(a7)
       0x0059fc60      4eb9004047ea   jsr p_wts_o
       0x0059fc66      defc010c       adda.w 0x10c, a7
       0x0059fc6a      4eb900404946   jsr p_wtln_o
    > 0x0059fc70      082e0023000c   btst.b 0x23, 0xc(a6)
    < 0x0059fc76      66000104       bne.w 0x59fd7c
       0x0059fc7a      554f           subq.w 0x2, a7
       0x0059fc7c      2f2e0018       move.l 0x18(a6), -(a7)
       0x0059fc80      4ebafa50       jsr K03_DISKLIST.floppy_drive(pc)
       0x0059fc84      584f           addq.w 0x4, a7
       0x0059fc86      4a1f           tst.b (a7)+
   < 0x0059fc88      660000f2       bne.w 0x59fd7c
      0x0059fc8c      554f           subq.w 0x2, a7
      0x0059fc8e      2f2e0018       move.l 0x18(a6), -(a7)
      0x0059fc92      1f2e001c       move.b 0x1c(a6), -(a7)
      0x0059fc96      2f2e000c       move.l 0xc(a6), -(a7)
      0x0059fc9a      2f2e0008       move.l 0x8(a6), -(a7)
      0x0059fc9e      486effea       pea.l -0x16(a6)
      0x0059fca2      486effeb       pea.l -0x15(a6)
      0x0059fca6      4ebab2b6       jsr K03_DISKLIST.get_node_type(pc)
      0x0059fcaa      defc0016       adda.w 0x16, a7
      0x0059fcae      101f           move.b (a7)+, d0
      0x0059fcb0      4880           ext.w d0
      0x0059fcb2      4186           chk.w d6, d0
      0x0059fcb4      1e00           move.b d0, d7
      0x0059fcb6      206effe2       movea.l -0x1e(a6), a0
      0x0059fcba      b1e8fffc       cmpa.l -0x4(a0), a0
  < 0x0059fcbe      6702           beq.b 0x59fcc2
     0x0059fcc0      4e4d           trap 0xd
  > 0x0059fcc2      2f2e0018       move.l 0x18(a6), -(a7)
      0x0059fcc6      4887           ext.w d7
      0x0059fcc8      4f86           chk.w d6, d7
      0x0059fcca      1f07           move.b d7, -(a7)
      0x0059fccc      102effea       move.b -0x16(a6), d0
      0x0059fcd0      4880           ext.w d0
      0x0059fcd2      4183           chk.w d3, d0
      0x0059fcd4      1f00           move.b d0, -(a7)
      0x0059fcd6      102effeb       move.b -0x15(a6), d0
      0x0059fcda      4880           ext.w d0
      0x0059fcdc      4183           chk.w d3, d0
      0x0059fcde      1f00           move.b d0, -(a7)
      0x0059fce0      4227           clr.b -(a7)
      0x0059fce2      10390083fe5a   move.b 0x83fe5a, d0
      0x0059fce8      4400           neg.b d0
      0x0059fcea      5200           addq.b 0x1, d0
      0x0059fcec      c02effea       and.b -0x16(a6), d0
  < 0x0059fcf0      6708           beq.b 0x59fcfa
     0x0059fcf2      4aae001e       tst.l 0x1e(a6)
 < 0x0059fcf6      6702           beq.b 0x59fcfa
    0x0059fcf8      5217           addq.b 0x1, (a7)
 > 0x0059fcfa      1f03           move.b d3, -(a7)
      0x0059fcfc      2f2effe2       move.l -0x1e(a6), -(a7)
      0x0059fd00      2f28000e       move.l 0xe(a0), -(a7)
      0x0059fd04      486efff8       pea.l -0x8(a6)
      0x0059fd08      4ebab44a       jsr K03_DISKLIST.add_to_tree(pc)
      0x0059fd0c      defc001a       adda.w 0x1a, a7
      0x0059fd10      4a2effea       tst.b -0x16(a6)
  < 0x0059fd14      670c           beq.b 0x59fd22
     0x0059fd16      4aae001e       tst.l 0x1e(a6)
 < 0x0059fd1a      6706           beq.b 0x59fd22
    0x0059fd1c      13c30083fe5a   move.b d3, 0x83fe5a
 > 0x0059fd22      216efff80016   move.l -0x8(a6), 0x16(a0)
      0x0059fd28      554f           subq.w 0x2, a7
      0x0059fd2a      2f2effe2       move.l -0x1e(a6), -(a7)
      0x0059fd2e      1f03           move.b d3, -(a7)
      0x0059fd30      4eb9005a1202   jsr K04_FILEROPS.k04_property_av
      0x0059fd36      5c4f           addq.w 0x6, a7
      0x0059fd38      1017           move.b (a7), d0
      0x0059fd3a      4880           ext.w d0
      0x0059fd3c      4183           chk.w d3, d0
      0x0059fd3e      1e80           move.b d0, (a7)
      0x0059fd40      4227           clr.b -(a7)
      0x0059fd42      2f2efff8       move.l -0x8(a6), -(a7)
      0x0059fd46      2f390083fe56   move.l 0x83fe56, -(a7)
      0x0059fd4c      4ebae6c4       jsr K03_DISKLIST.set_chain(pc)
      0x0059fd50      5c4f           addq.w 0x6, a7
      0x0059fd52      2eaeffe2       move.l -0x1e(a6), (a7)
      0x0059fd56      1f3c0025       move.b 0x25, -(a7)
      0x0059fd5a      4eb9005a1202   jsr K04_FILEROPS.k04_property_av
      0x0059fd60      5c4f           addq.w 0x6, a7
      0x0059fd62      1017           move.b (a7), d0
      0x0059fd64      4880           ext.w d0
      0x0059fd66      4183           chk.w d3, d0
      0x0059fd68      1e80           move.b d0, (a7)
      0x0059fd6a      1f03           move.b d3, -(a7)
      0x0059fd6c      2f2efff8       move.l -0x8(a6), -(a7)
      0x0059fd70      2f390083fe56   move.l 0x83fe56, -(a7)
      0x0059fd76      4ebae69a       jsr K03_DISKLIST.set_chain(pc)
      0x0059fd7a      dec4           adda.w d4, a7
   > 0x0059fd7c      554f           subq.w 0x2, a7
        0x0059fd7e      1f05           move.b d5, -(a7)
        0x0059fd80      4eb900598cca   jsr K01_DEBUG.k01_debug
        0x0059fd86      544f           addq.w 0x2, a7
        0x0059fd88      4a1f           tst.b (a7)+
    < 0x0059fd8a      6700010e       beq.w 0x59fe9a
       0x0059fd8e      487aa38b       pea.l 0x59a11b(pc)
       0x0059fd92      48780010       pea.l 0x10
       0x0059fd96      2f17           move.l (a7), -(a7)
       0x0059fd98      4eb9004047ea   jsr p_wts_o
       0x0059fd9e      dec4           adda.w d4, a7
       0x0059fda0      4eb900404946   jsr p_wtln_o
       0x0059fda6      2d790083fe3e.  move.l 0x83fe3e, -0x1e(a6)
       0x0059fdae      7e00           moveq 0x0, d7
   > 0x0059fdb0      206effe2       movea.l -0x1e(a6), a0
      0x0059fdb4      b0c3           cmpa.w d3, a0
  < 0x0059fdb6      6772           beq.b 0x59fe2a
     0x0059fdb8      b1e8fffc       cmpa.l -0x4(a0), a0
 < 0x0059fdbc      6702           beq.b 0x59fdc0
    0x0059fdbe      4e4d           trap 0xd
 > 0x0059fdc0      487aa36a       pea.l 0x59a12c(pc)
     0x0059fdc4      48780007       pea.l 0x7
     0x0059fdc8      2f17           move.l (a7), -(a7)
     0x0059fdca      4eb9004047ea   jsr p_wts_o
     0x0059fdd0      504f           addq.w 0x8, a7
     0x0059fdd2      2ea8000e       move.l 0xe(a0), (a7)
     0x0059fdd6      4878fff8       pea.l 0xfff8
     0x0059fdda      4eb9004070e4   jsr p_wti_o
     0x0059fde0      504f           addq.w 0x8, a7
     0x0059fde2      487aa350       pea.l 0x59a134(pc)
     0x0059fde6      48780007       pea.l 0x7
     0x0059fdea      2f17           move.l (a7), -(a7)
     0x0059fdec      4eb9004047ea   jsr p_wts_o
     0x0059fdf2      504f           addq.w 0x8, a7
     0x0059fdf4      2ea80222       move.l 0x222(a0), (a7)
     0x0059fdf8      4878fff8       pea.l 0xfff8
     0x0059fdfc      4eb9004070e4   jsr p_wti_o
     0x0059fe02      504f           addq.w 0x8, a7
     0x0059fe04      48680023       pea.l 0x23(a0)
     0x0059fe08      42a7           clr.l -(a7)
     0x0059fe0a      1f6800220003   move.b 0x22(a0), 0x3(a7)
     0x0059fe10      2f17           move.l (a7), -(a7)
     0x0059fe12      4eb9004047ea   jsr p_wts_o
     0x0059fe18      dec4           adda.w d4, a7
     0x0059fe1a      4eb900404946   jsr p_wtln_o
     0x0059fe20      5287           addq.l 0x1, d7
     0x0059fe22      2d680004ffe2   move.l 0x4(a0), -0x1e(a6)
  < 0x0059fe28      6086           bra.b 0x59fdb0
  > 0x0059fe2a      2f07           move.l d7, -(a7)
       0x0059fe2c      48780000       pea.l 0x0
       0x0059fe30      4eb9004070e4   jsr p_wti_o
       0x0059fe36      504f           addq.w 0x8, a7
       0x0059fe38      487aa302       pea.l 0x59a13c(pc)
       0x0059fe3c      48780019       pea.l 0x19
       0x0059fe40      2f17           move.l (a7), -(a7)
       0x0059fe42      4eb9004047ea   jsr p_wts_o
       0x0059fe48      dec4           adda.w d4, a7
       0x0059fe4a      4eb900404946   jsr p_wtln_o
       0x0059fe50      2d790083fe42.  move.l 0x83fe42, -0x1e(a6)
       0x0059fe58      7e00           moveq 0x0, d7
   > 0x0059fe5a      206effe2       movea.l -0x1e(a6), a0
      0x0059fe5e      b0c3           cmpa.w d3, a0
  < 0x0059fe60      6712           beq.b 0x59fe74
     0x0059fe62      5287           addq.l 0x1, d7
     0x0059fe64      b1e8fffc       cmpa.l -0x4(a0), a0
 < 0x0059fe68      6702           beq.b 0x59fe6c
    0x0059fe6a      4e4d           trap 0xd
 > 0x0059fe6c      2d680008ffe2   move.l 0x8(a0), -0x1e(a6)
  < 0x0059fe72      60e6           bra.b 0x59fe5a
  > 0x0059fe74      2f07           move.l d7, -(a7)
       0x0059fe76      48780000       pea.l 0x0
       0x0059fe7a      4eb9004070e4   jsr p_wti_o
       0x0059fe80      504f           addq.w 0x8, a7
       0x0059fe82      487aa2d2       pea.l 0x59a156(pc)
       0x0059fe86      4878001a       pea.l 0x1a
       0x0059fe8a      2f17           move.l (a7), -(a7)
       0x0059fe8c      4eb9004047ea   jsr p_wts_o
       0x0059fe92      dec4           adda.w d4, a7
       0x0059fe94      4eb900404946   jsr p_wtln_o
    > 0x0059fe9a      48790083fe5c   pea.l 0x83fe5c
        0x0059fea0      4eb90040234e   jsr p_Signal
        0x0059fea6      584f           addq.w 0x4, a7
        0x0059fea8      4cdf1fff       movem.l (a7)+, d0-d7/a0-a4
        0x0059feac      4e5e           unlk a6
        0x0059feae      4e75           rts
         ; CALL XREF from K03_DISKLIST.k03_remove_vol @ 0x59ffa2
 76: K03_DISKLIST.lose_subvol ();
        0x0059feb0      4e56ffe0       link.w a6, 0xffe0
        0x0059feb4      bfd5           cmpa.l (a5), a7
    < 0x0059feb6      6206           bhi.b 0x59febe
       0x0059feb8      44fc0002       move.w 0x2, ccr
       0x0059febc      4e76           trapv
    > 0x0059febe      defc001c       adda.w 0x1c, a7
        0x0059fec2      48e700c0       movem.l a0-a1, -(a7)
        0x0059fec6      206e0008       movea.l 0x8(a6), a0
    > 0x0059feca      2250           movea.l (a0), a1
       0x0059fecc      b2fc0001       cmpa.w 0x1, a1
   < 0x0059fed0      6722           beq.b 0x59fef4
      0x0059fed2      2d49fffc       move.l a1, -0x4(a6)
      0x0059fed6      b3e9fffc       cmpa.l -0x4(a1), a1
  < 0x0059feda      6702           beq.b 0x59fede
     0x0059fedc      4e4d           trap 0xd
  > 0x0059fede      20a90004       move.l 0x4(a1), (a0)
      0x0059fee2      486efffc       pea.l -0x4(a6)
      0x0059fee6      4878011a       pea.l 0x11a
      0x0059feea      4eb900403b98   jsr p_Dispos
      0x0059fef0      504f           addq.w 0x8, a7
   < 0x0059fef2      60d6           bra.b 0x59feca
   > 0x0059fef4      4cdf0300       movem.l (a7)+, a0-a1
        0x0059fef8      4e5e           unlk a6
        0x0059fefa      4e75           rts
         ; CALL XREF from K0_DISKMGR.k_vol_dismounte @ 0x5982ac
 302: K03_DISKLIST.k03_remove_vol ();
        ; var int32_t var_17h @ a7+0x17
        ; var int32_t var_18h @ a7+0x18
        ; var int32_t var_19h @ a7+0x19
        0x0059fefc      4e56ffc6       link.w a6, 0xffc6
        0x0059ff00      bfd5           cmpa.l (a5), a7
    < 0x0059ff02      6206           bhi.b 0x59ff0a
       0x0059ff04      44fc0002       move.w 0x2, ccr
       0x0059ff08      4e76           trapv
    > 0x0059ff0a      defc0030       adda.w 0x30, a7
        0x0059ff0e      48e7e1e8       movem.l d0-d2/d7/a0-a2/a4, -(a7)
        0x0059ff12      41f90083fe5c   lea.l 0x83fe5c, a0
        0x0059ff18      43ee0008       lea.l 0x8(a6), a1
        0x0059ff1c      45f9004047ea   lea.l p_wts_o, a2
        0x0059ff22      7401           moveq 0x1, d2
        0x0059ff24      4850           pea.l (a0)
        0x0059ff26      4eb9004023c4   jsr p_Wait
        0x0059ff2c      584f           addq.w 0x4, a7
        0x0059ff2e      28790083fe3e   movea.l 0x83fe3e, a4
        0x0059ff34      7e00           moveq 0x0, d7
    > 0x0059ff36      4a07           tst.b d7
   < 0x0059ff38      6622           bne.b 0x59ff5c
      0x0059ff3a      b8c2           cmpa.w d2, a4
  < 0x0059ff3c      671e           beq.b 0x59ff5c
     0x0059ff3e      7000           moveq 0x0, d0
     0x0059ff40      b9ecfffc       cmpa.l -0x4(a4), a4
 < 0x0059ff44      6702           beq.b 0x59ff48
    0x0059ff46      4e4d           trap 0xd
 > 0x0059ff48      222c000e       move.l 0xe(a4), d1
     0x0059ff4c      b291           cmp.l (a1), d1
 < 0x0059ff4e      6602           bne.b 0x59ff52
    0x0059ff50      5200           addq.b 0x1, d0
 > 0x0059ff52      1e00           move.b d0, d7
 < 0x0059ff54      6604           bne.b 0x59ff5a
    0x0059ff56      286c0004       movea.l 0x4(a4), a4
 < 0x0059ff5a      60da           bra.b 0x59ff36
  > 0x0059ff5c      4a07           tst.b d7
    < 0x0059ff5e      67000086       beq.w 0x59ffe6
       0x0059ff62      554f           subq.w 0x2, a7
       0x0059ff64      1f3c001e       move.b 0x1e, -(a7)
       0x0059ff68      4eb900598cca   jsr K01_DEBUG.k01_debug
       0x0059ff6e      544f           addq.w 0x2, a7
       0x0059ff70      4a1f           tst.b (a7)+
   < 0x0059ff72      6722           beq.b 0x59ff96
      0x0059ff74      487aa1fb       pea.l 0x59a171(pc)
      0x0059ff78      48780010       pea.l 0x10
      0x0059ff7c      2f17           move.l (a7), -(a7)
      0x0059ff7e      4e92           jsr (a2)                    ; fcn.00000009+0x2
      0x0059ff80      504f           addq.w 0x8, a7
      0x0059ff82      2e91           move.l (a1), (a7)
      0x0059ff84      4878ffff       pea.l 0xffff
      0x0059ff88      4eb9004070e4   jsr p_wti_o
      0x0059ff8e      504f           addq.w 0x8, a7
      0x0059ff90      4eb900404946   jsr p_wtln_o
   > 0x0059ff96      b9ecfffc       cmpa.l -0x4(a4), a4
   < 0x0059ff9a      6702           beq.b 0x59ff9e
      0x0059ff9c      4e4d           trap 0xd
   > 0x0059ff9e      486c022a       pea.l 0x22a(a4)
       0x0059ffa2      4ebaff0c       jsr K03_DISKLIST.lose_subvol(pc)
       0x0059ffa6      1eac0016       move.b 0x16(a4), (a7)
       0x0059ffaa      1f6c00170001   move.b 0x17(a4), 0x1(a7)
       0x0059ffb0      1f6c00180002   move.b 0x18(a4), 0x2(a7)
       0x0059ffb6      1f6c00190003   move.b 0x19(a4), 0x3(a7)
       0x0059ffbc      2d5ffffc       move.l (a7)+, -0x4(a6)
       0x0059ffc0      082c0023001e   btst.b 0x23, 0x1e(a4)
   < 0x0059ffc6      661c           bne.b 0x59ffe4
      0x0059ffc8      554f           subq.w 0x2, a7
      0x0059ffca      2f2c0222       move.l 0x222(a4), -(a7)
      0x0059ffce      4ebaf702       jsr K03_DISKLIST.floppy_drive(pc)
      0x0059ffd2      584f           addq.w 0x4, a7
      0x0059ffd4      4a1f           tst.b (a7)+
  < 0x0059ffd6      660c           bne.b 0x59ffe4
     0x0059ffd8      486efffc       pea.l -0x4(a6)
     0x0059ffdc      1f02           move.b d2, -(a7)
     0x0059ffde      4ebab97e       jsr K03_DISKLIST.remove_from_tre(pc)
     0x0059ffe2      5c4f           addq.w 0x6, a7
 > 0x0059ffe4      6032           bra.b 0x5a0018
   > 0x0059ffe6      487aa19f       pea.l 0x59a187(pc)
       0x0059ffea      48780015       pea.l 0x15
       0x0059ffee      2f17           move.l (a7), -(a7)
       0x0059fff0      4e92           jsr (a2)                    ; fcn.00000009+0x2
       0x0059fff2      504f           addq.w 0x8, a7
       0x0059fff4      2e91           move.l (a1), (a7)
       0x0059fff6      4878ffff       pea.l 0xffff
       0x0059fffa      4eb9004070e4   jsr p_wti_o
       0x005a0000      504f           addq.w 0x8, a7
       0x005a0002      487aa199       pea.l 0x59a19d(pc)
       0x005a0006      4878000b       pea.l 0xb
       0x005a000a      2f17           move.l (a7), -(a7)
       0x005a000c      4e92           jsr (a2)                    ; fcn.00000009+0x2
       0x005a000e      defc000c       adda.w 0xc, a7
       0x005a0012      4eb900404946   jsr p_wtln_o
 > 0x005a0018      4850           pea.l (a0)
        0x005a001a      4eb90040234e   jsr p_Signal
        0x005a0020      584f           addq.w 0x4, a7
        0x005a0022      4cdf1787       movem.l (a7)+, d0-d2/d7/a0-a2/a4
        0x005a0026      4e5e           unlk a6
        0x005a0028      4e75           rts
         ; XREFS: CALL 0x00593b06  CALL 0x005966aa  CALL 0x0059670a  
         ; XREFS: CALL 0x00596aa4  CALL 0x00596eb6  CALL 0x00597fa0  
         ; XREFS: CALL 0x00598244  CALL 0x005a0372  CALL 0x005a0556  
         ; XREFS: CALL 0x005a065a  
 110: K03_DISKLIST.k03_get_vol_ptr ();
        0x005a002a      4e56ffde       link.w a6, 0xffde
        0x005a002e      bfd5           cmpa.l (a5), a7
    < 0x005a0030      6206           bhi.b 0x5a0038
       0x005a0032      44fc0002       move.w 0x2, ccr
       0x005a0036      4e76           trapv
    > 0x005a0038      defc001c       adda.w 0x1c, a7
        0x005a003c      48e7c188       movem.l d0-d1/d7/a0/a4, -(a7)
        0x005a0040      41f90083fe5c   lea.l 0x83fe5c, a0
        0x005a0046      4850           pea.l (a0)
        0x005a0048      4eb9004023c4   jsr p_Wait
        0x005a004e      584f           addq.w 0x4, a7
        0x005a0050      28790083fe3e   movea.l 0x83fe3e, a4
        0x005a0056      7e00           moveq 0x0, d7
    > 0x005a0058      4a07           tst.b d7
   < 0x005a005a      6626           bne.b 0x5a0082
      0x005a005c      b8fc0001       cmpa.w 0x1, a4
  < 0x005a0060      6720           beq.b 0x5a0082
     0x005a0062      7000           moveq 0x0, d0
     0x005a0064      b9ecfffc       cmpa.l -0x4(a4), a4
 < 0x005a0068      6702           beq.b 0x5a006c
    0x005a006a      4e4d           trap 0xd
 > 0x005a006c      222c000e       move.l 0xe(a4), d1
     0x005a0070      b2ae0008       cmp.l 0x8(a6), d1
 < 0x005a0074      6602           bne.b 0x5a0078
    0x005a0076      5200           addq.b 0x1, d0
 > 0x005a0078      1e00           move.b d0, d7
 < 0x005a007a      6604           bne.b 0x5a0080
    0x005a007c      286c0004       movea.l 0x4(a4), a4
 < 0x005a0080      60d6           bra.b 0x5a0058
  > 0x005a0082      2d4c000c       move.l a4, 0xc(a6)
        0x005a0086      4850           pea.l (a0)
        0x005a0088      4eb90040234e   jsr p_Signal
        0x005a008e      584f           addq.w 0x4, a7
        0x005a0090      4cdf1183       movem.l (a7)+, d0-d1/d7/a0/a4
        0x005a0094      4e5e           unlk a6
        0x005a0096      4e75           rts
         ; XREFS: CALL 0x00593fb8  CALL 0x00595356  CALL 0x00595a6a  
         ; XREFS: CALL 0x005962ce  CALL 0x00596bc0  CALL 0x0059743a  
         ; XREFS: CALL 0x00597b5c  CALL 0x005a02e0  
 508: K03_DISKLIST.k03_check_vol ();
        ; var int32_t var_5h @ a7+0x5
        ; var int32_t var_6h @ a7+0x6
        ; var int32_t var_7h @ a7+0x7
        ; var int32_t var_8h @ a7+0x8
        ; var int32_t var_9h @ a7+0x9
        ; var int32_t var_ah @ a7+0xa
        ; var int32_t var_bh @ a7+0xb
        0x005a0098      4e56fec2       link.w a6, 0xfec2
        0x005a009c      bfd5           cmpa.l (a5), a7
    < 0x005a009e      6206           bhi.b 0x5a00a6
       0x005a00a0      44fc0002       move.w 0x2, ccr
       0x005a00a4      4e76           trapv
    > 0x005a00a6      defc013c       adda.w 0x13c, a7
        0x005a00aa      48e7f1f8       movem.l d0-d3/d7/a0-a4, -(a7)
        0x005a00ae      43f9004047ea   lea.l p_wts_o, a1
        0x005a00b4      45f8ffff       lea.l 0xffff, a2
        0x005a00b8      47f9004070e4   lea.l p_wti_o, a3
        0x005a00be      49ee0014       lea.l 0x14(a6), a4
        0x005a00c2      720c           moveq 0xc, d1
        0x005a00c4      7401           moveq 0x1, d2
        0x005a00c6      7610           moveq 0x10, d3
        0x005a00c8      202e000c       move.l 0xc(a6), d0
        0x005a00cc      c094           and.l (a4), d0
        0x005a00ce      2f00           move.l d0, -(a7)
        0x005a00d0      202e0008       move.l 0x8(a6), d0
        0x005a00d4      c0ae0010       and.l 0x10(a6), d0
        0x005a00d8      2f00           move.l d0, -(a7)
        0x005a00da      2017           move.l (a7), d0
        0x005a00dc      b0baa0ca       cmp.l 0x59a1a8(pc), d0
    < 0x005a00e0      6608           bne.b 0x5a00ea
       0x005a00e2      202f0004       move.l 0x4(a7), d0
       0x005a00e6      b0baa0c4       cmp.l 0x59a1ac(pc), d0
   > 0x005a00ea      6718           beq.b 0x5a0104
       0x005a00ec      7e00           moveq 0x0, d7
       0x005a00ee      487aa0d9       pea.l 0x59a1c9(pc)
       0x005a00f2      48780037       pea.l 0x37
       0x005a00f6      2f17           move.l (a7), -(a7)
       0x005a00f8      4e91           jsr (a1)                    ; fcn.0000000a
       0x005a00fa      dec1           adda.w d1, a7
       0x005a00fc      4eb900404946   jsr p_wtln_o
   < 0x005a0102      6064           bra.b 0x5a0168
   > 0x005a0104      206e0018       movea.l 0x18(a6), a0
       0x005a0108      b1e8fffc       cmpa.l -0x4(a0), a0
   < 0x005a010c      6702           beq.b 0x5a0110
      0x005a010e      4e4d           trap 0xd
   > 0x005a0110      2014           move.l (a4), d0
       0x005a0112      c0a8001e       and.l 0x1e(a0), d0
       0x005a0116      2f00           move.l d0, -(a7)
       0x005a0118      202e0010       move.l 0x10(a6), d0
       0x005a011c      c0a8001a       and.l 0x1a(a0), d0
       0x005a0120      2f00           move.l d0, -(a7)
       0x005a0122      2017           move.l (a7), d0
       0x005a0124      b0ae0010       cmp.l 0x10(a6), d0
   < 0x005a0128      6606           bne.b 0x5a0130
      0x005a012a      202f0004       move.l 0x4(a7), d0
      0x005a012e      b094           cmp.l (a4), d0
  > 0x005a0130      6706           beq.b 0x5a0138
      0x005a0132      7e00           moveq 0x0, d7
      0x005a0134      504f           addq.w 0x8, a7
  < 0x005a0136      6030           bra.b 0x5a0168
  > 0x005a0138      202e000c       move.l 0xc(a6), d0
      0x005a013c      c0a8001e       and.l 0x1e(a0), d0
      0x005a0140      2f00           move.l d0, -(a7)
      0x005a0142      202e0008       move.l 0x8(a6), d0
      0x005a0146      c0a8001a       and.l 0x1a(a0), d0
      0x005a014a      2f00           move.l d0, -(a7)
      0x005a014c      2017           move.l (a7), d0
      0x005a014e      b0baa058       cmp.l 0x59a1a8(pc), d0
  < 0x005a0152      6608           bne.b 0x5a015c
     0x005a0154      202f0004       move.l 0x4(a7), d0
     0x005a0158      b0baa052       cmp.l 0x59a1ac(pc), d0
 > 0x005a015c      6706           beq.b 0x5a0164
     0x005a015e      7e00           moveq 0x0, d7
     0x005a0160      dec3           adda.w d3, a7
 < 0x005a0162      6004           bra.b 0x5a0168
 > 0x005a0164      7e01           moveq 0x1, d7
     0x005a0166      dec3           adda.w d3, a7
  > 0x005a0168      504f           addq.w 0x8, a7
        0x005a016a      4887           ext.w d7
        0x005a016c      4f82           chk.w d2, d7
        0x005a016e      1d47001c       move.b d7, 0x1c(a6)
        0x005a0172      554f           subq.w 0x2, a7
        0x005a0174      1f02           move.b d2, -(a7)
        0x005a0176      4eb900598cca   jsr K01_DEBUG.k01_debug
        0x005a017c      544f           addq.w 0x2, a7
        0x005a017e      4a1f           tst.b (a7)+
    < 0x005a0180      6700010a       beq.w 0x5a028c
       0x005a0184      487aa07b       pea.l 0x59a201(pc)
       0x005a0188      48780012       pea.l 0x12
       0x005a018c      2f17           move.l (a7), -(a7)
       0x005a018e      4e91           jsr (a1)                    ; fcn.0000000a
       0x005a0190      defc000a       adda.w 0xa, a7
       0x005a0194      1e87           move.b d7, (a7)
       0x005a0196      48780005       pea.l 0x5
       0x005a019a      4eb90040718c   jsr p_wtb_o
       0x005a01a0      5c4f           addq.w 0x6, a7
       0x005a01a2      4eb900404946   jsr p_wtln_o
       0x005a01a8      206e0018       movea.l 0x18(a6), a0
       0x005a01ac      b0c2           cmpa.w d2, a0
   < 0x005a01ae      6612           bne.b 0x5a01c2
      0x005a01b0      487aa062       pea.l 0x59a214(pc)
      0x005a01b4      48780018       pea.l 0x18
      0x005a01b8      2f17           move.l (a7), -(a7)
      0x005a01ba      4e91           jsr (a1)                    ; fcn.0000000a
      0x005a01bc      dec1           adda.w d1, a7
  < 0x005a01be      600000c6       bra.w 0x5a0286
  > 0x005a01c2      b1e8fffc       cmpa.l -0x4(a0), a0
  < 0x005a01c6      6702           beq.b 0x5a01ca
     0x005a01c8      4e4d           trap 0xd
  > 0x005a01ca      9efc0100       suba.w 0x100, a7
      0x005a01ce      1028000c       move.b 0xc(a0), d0
      0x005a01d2      4880           ext.w d0
      0x005a01d4      41bc0007       chk.w 0x7, d0
      0x005a01d8      1f00           move.b d0, -(a7)
      0x005a01da      4eb9005b0d30   jsr K3_UTILS.k3_filer_str
      0x005a01e0      544f           addq.w 0x2, a7
      0x005a01e2      487aa049       pea.l 0x59a22d(pc)
      0x005a01e6      48780009       pea.l 0x9
      0x005a01ea      2f17           move.l (a7), -(a7)
      0x005a01ec      4e91           jsr (a1)                    ; fcn.0000000a
      0x005a01ee      504f           addq.w 0x8, a7
      0x005a01f0      1ea80004       move.b 0x4(a0), (a7)
      0x005a01f4      1f6800050001   move.b 0x5(a0), 0x1(a7)
      0x005a01fa      1f6800060002   move.b 0x6(a0), 0x2(a7)
      0x005a0200      1f6800070003   move.b 0x7(a0), 0x3(a7)
      0x005a0206      4852           pea.l (a2)
      0x005a0208      4e93           jsr (a3)                    ; fcn.0000000c
      0x005a020a      504f           addq.w 0x8, a7
      0x005a020c      487aa029       pea.l 0x59a237(pc)
      0x005a0210      4878000b       pea.l 0xb
      0x005a0214      2f17           move.l (a7), -(a7)
      0x005a0216      4e91           jsr (a1)                    ; fcn.0000000a
      0x005a0218      504f           addq.w 0x8, a7
      0x005a021a      1ea80008       move.b 0x8(a0), (a7)
      0x005a021e      1f6800090001   move.b 0x9(a0), 0x1(a7)
      0x005a0224      1f68000a0002   move.b 0xa(a0), 0x2(a7)
      0x005a022a      1f68000b0003   move.b 0xb(a0), 0x3(a7)
      0x005a0230      4852           pea.l (a2)
      0x005a0232      4e93           jsr (a3)                    ; fcn.0000000c
      0x005a0234      504f           addq.w 0x8, a7
      0x005a0236      487aa00b       pea.l 0x59a243(pc)
      0x005a023a      48780008       pea.l 0x8
      0x005a023e      2f17           move.l (a7), -(a7)
      0x005a0240      4e91           jsr (a1)                    ; fcn.0000000a
      0x005a0242      dec1           adda.w d1, a7
      0x005a0244      486f0001       pea.l 0x1(a7)
      0x005a0248      42a7           clr.l -(a7)
      0x005a024a      1f6f00080003   move.b 0x8(a7), 0x3(a7)
      0x005a0250      2f17           move.l (a7), -(a7)
      0x005a0252      4e91           jsr (a1)                    ; fcn.0000000a
      0x005a0254      defc010c       adda.w 0x10c, a7
      0x005a0258      487a9ff2       pea.l 0x59a24c(pc)
      0x005a025c      48780006       pea.l 0x6
      0x005a0260      2f17           move.l (a7), -(a7)
      0x005a0262      4e91           jsr (a1)                    ; fcn.0000000a
      0x005a0264      504f           addq.w 0x8, a7
      0x005a0266      2ea8000e       move.l 0xe(a0), (a7)
      0x005a026a      4852           pea.l (a2)
      0x005a026c      4e93           jsr (a3)                    ; fcn.0000000c
      0x005a026e      504f           addq.w 0x8, a7
      0x005a0270      487a9fe1       pea.l 0x59a253(pc)
      0x005a0274      48780002       pea.l 0x2
      0x005a0278      2f17           move.l (a7), -(a7)
      0x005a027a      4e91           jsr (a1)                    ; fcn.0000000a
      0x005a027c      504f           addq.w 0x8, a7
      0x005a027e      2e88           move.l a0, (a7)
      0x005a0280      4852           pea.l (a2)
      0x005a0282      4e93           jsr (a3)                    ; fcn.0000000c
      0x005a0284      504f           addq.w 0x8, a7
  > 0x005a0286      4eb900404946   jsr p_wtln_o
    > 0x005a028c      4cdf1f8f       movem.l (a7)+, d0-d3/d7/a0-a4
        0x005a0290      4e5e           unlk a6
        0x005a0292      4e75           rts
 154: K03_DISKLIST.k03_choose_vol ();
        0x005a0294      4e56ffc8       link.w a6, 0xffc8
        0x005a0298      bfd5           cmpa.l (a5), a7
    < 0x005a029a      6206           bhi.b 0x5a02a2
       0x005a029c      44fc0002       move.w 0x2, ccr
       0x005a02a0      4e76           trapv
    > 0x005a02a2      defc0036       adda.w 0x36, a7
        0x005a02a6      48e7c1e0       movem.l d0-d1/d7/a0-a2, -(a7)
        0x005a02aa      45f90083fe5c   lea.l 0x83fe5c, a2
        0x005a02b0      7201           moveq 0x1, d1
        0x005a02b2      4852           pea.l (a2)
        0x005a02b4      4eb9004023c4   jsr p_Wait
        0x005a02ba      584f           addq.w 0x4, a7
        0x005a02bc      7e00           moveq 0x0, d7
        0x005a02be      206e000a       movea.l 0xa(a6), a0
    > 0x005a02c2      4a07           tst.b d7
   < 0x005a02c4      6652           bne.b 0x5a0318
      0x005a02c6      2250           movea.l (a0), a1
      0x005a02c8      b2c1           cmpa.w d1, a1
  < 0x005a02ca      674c           beq.b 0x5a0318
     0x005a02cc      554f           subq.w 0x2, a7
     0x005a02ce      2f10           move.l (a0), -(a7)
     0x005a02d0      2f2e001a       move.l 0x1a(a6), -(a7)
     0x005a02d4      2f2e0016       move.l 0x16(a6), -(a7)
     0x005a02d8      2f2e0012       move.l 0x12(a6), -(a7)
     0x005a02dc      2f2e000e       move.l 0xe(a6), -(a7)
     0x005a02e0      4ebafdb6       jsr K03_DISKLIST.k03_check_vol(pc)
     0x005a02e4      defc0014       adda.w 0x14, a7
     0x005a02e8      101f           move.b (a7)+, d0
     0x005a02ea      4880           ext.w d0
     0x005a02ec      4181           chk.w d1, d0
     0x005a02ee      1e00           move.b d0, d7
 < 0x005a02f0      6624           bne.b 0x5a0316
    0x005a02f2      4a2e0008       tst.b 0x8(a6)
 < 0x005a02f6      6710           beq.b 0x5a0308
    0x005a02f8      2250           movea.l (a0), a1
    0x005a02fa      b3e9fffc       cmpa.l -0x4(a1), a1
 < 0x005a02fe      6702           beq.b 0x5a0302
    0x005a0300      4e4d           trap 0xd
 > 0x005a0302      20a90004       move.l 0x4(a1), (a0)
 < 0x005a0306      600e           bra.b 0x5a0316
 > 0x005a0308      2250           movea.l (a0), a1
    0x005a030a      b3e9fffc       cmpa.l -0x4(a1), a1
 < 0x005a030e      6702           beq.b 0x5a0312
    0x005a0310      4e4d           trap 0xd
 > 0x005a0312      20a90008       move.l 0x8(a1), (a0)
 < 0x005a0316      60aa           bra.b 0x5a02c2
  > 0x005a0318      1d47001e       move.b d7, 0x1e(a6)
        0x005a031c      4852           pea.l (a2)
        0x005a031e      4eb90040234e   jsr p_Signal
        0x005a0324      584f           addq.w 0x4, a7
        0x005a0326      4cdf0783       movem.l (a7)+, d0-d1/d7/a0-a2
        0x005a032a      4e5e           unlk a6
        0x005a032c      4e75           rts
         ; XREFS: CALL 0x00593f66  CALL 0x00595326  CALL 0x00595386  
         ; XREFS: CALL 0x00595690  CALL 0x00595792  CALL 0x00595a42  
         ; XREFS: CALL 0x00596294  CALL 0x0059740a  CALL 0x00597b22  
         ; XREFS: CALL 0x00597d7a  
 30: K03_DISKLIST.k03_vol_list_he ();
        0x005a032e      4e56fffc       link.w a6, 0xfffc
        0x005a0332      bfd5           cmpa.l (a5), a7
    < 0x005a0334      6206           bhi.b 0x5a033c
       0x005a0336      44fc0002       move.w 0x2, ccr
       0x005a033a      4e76           trapv
    > 0x005a033c      defc0004       adda.w 0x4, a7
        0x005a0340      2d790083fe3e.  move.l 0x83fe3e, 0x8(a6)
        0x005a0348      4e5e           unlk a6
        0x005a034a      4e75           rts
         ; CALL XREF from K0_DISKMGR.k_add_subvol @ 0x5982f2
 486: K03_DISKLIST.k03_add_subvol (int32_t arg_ch, int32_t arg_223h, int32_t arg_224h, int32_t arg_225h);
        ; arg int32_t arg_ch @ a6+0xc
        ; arg int32_t arg_223h @ a7+0x223
        ; arg int32_t arg_224h @ a7+0x224
        ; arg int32_t arg_225h @ a7+0x225
        0x005a034c      4e56ffa8       link.w a6, 0xffa8
        0x005a0350      bfd5           cmpa.l (a5), a7
    < 0x005a0352      6206           bhi.b 0x5a035a
       0x005a0354      44fc0002       move.w 0x2, ccr
       0x005a0358      4e76           trapv
    > 0x005a035a      defc0048       adda.w 0x48, a7
        0x005a035e      48e7f0f8       movem.l d0-d3/a0-a4, -(a7)
        0x005a0362      47eefff4       lea.l -0xc(a6), a3
        0x005a0366      7201           moveq 0x1, d1
        0x005a0368      74ff           moveq 0xff, d2
        0x005a036a      760a           moveq 0xa, d3
        0x005a036c      594f           subq.w 0x4, a7
        0x005a036e      2f2e0116       move.l 0x116(a6), -(a7)
        0x005a0372      4ebafcb6       jsr K03_DISKLIST.k03_get_vol_ptr(pc)
        0x005a0376      584f           addq.w 0x4, a7
        0x005a0378      285f           movea.l (a7)+, a4
        0x005a037a      2d42011a       move.l d2, 0x11a(a6)
        0x005a037e      48790083fe5c   pea.l 0x83fe5c
        0x005a0384      4eb9004023c4   jsr p_Wait
        0x005a038a      584f           addq.w 0x4, a7
        0x005a038c      b8c1           cmpa.w d1, a4
    < 0x005a038e      662c           bne.b 0x5a03bc
       0x005a0390      487a9ec4       pea.l 0x59a256(pc)
       0x005a0394      48780021       pea.l 0x21
       0x005a0398      2f17           move.l (a7), -(a7)
       0x005a039a      4eb9004047ea   jsr p_wts_o
       0x005a03a0      504f           addq.w 0x8, a7
       0x005a03a2      2eae0116       move.l 0x116(a6), (a7)
       0x005a03a6      4878ffff       pea.l 0xffff
       0x005a03aa      4eb9004070e4   jsr p_wti_o
       0x005a03b0      504f           addq.w 0x8, a7
       0x005a03b2      4eb900404946   jsr p_wtln_o
   < 0x005a03b8      60000162       bra.w 0x5a051c
   > 0x005a03bc      4853           pea.l (a3)
       0x005a03be      4878011a       pea.l 0x11a
       0x005a03c2      4eb900403a92   jsr p_New
       0x005a03c8      504f           addq.w 0x8, a7
       0x005a03ca      2053           movea.l (a3), a0
       0x005a03cc      b0c1           cmpa.w d1, a0
   < 0x005a03ce      661a           bne.b 0x5a03ea
      0x005a03d0      487a9ea6       pea.l 0x59a278(pc)
      0x005a03d4      48780025       pea.l 0x25
      0x005a03d8      2f17           move.l (a7), -(a7)
      0x005a03da      4eb9004047ea   jsr p_wts_o
      0x005a03e0      defc000c       adda.w 0xc, a7
      0x005a03e4      4eb900404946   jsr p_wtln_o
   > 0x005a03ea      b1e8fffc       cmpa.l -0x4(a0), a0
   < 0x005a03ee      6702           beq.b 0x5a03f2
      0x005a03f0      4e4d           trap 0xd
   > 0x005a03f2      10ba9eaa       move.b 0x59a29e(pc), (a0)
       0x005a03f6      117a9ea70001   move.b 0x59a29f(pc), 0x1(a0)
       0x005a03fc      117a9ea20002   move.b 0x59a2a0(pc), 0x2(a0)
       0x005a0402      117a9e9d0003   move.b 0x59a2a1(pc), 0x3(a0)
       0x005a0408      b9ecfffc       cmpa.l -0x4(a4), a4
   < 0x005a040c      6702           beq.b 0x5a0410
      0x005a040e      4e4d           trap 0xd
   > 0x005a0410      216c022a0004   move.l 0x22a(a4), 0x4(a0)
       0x005a0416      43e8000a       lea.l 0xa(a0), a1
       0x005a041a      45ee0008       lea.l 0x8(a6), a2
       0x005a041e      303c010b       move.w 0x10b, d0
   > 0x005a0422      12da           move.b (a2)+, (a1)+
   < 0x005a0424      51c8fffc       dbra d0, 0x5a0422
       0x005a0428      116e01140008   move.b 0x114(a6), 0x8(a0)
       0x005a042e      2028000c       move.l 0xc(a0), d0
       0x005a0432      b082           cmp.l d2, d0
   < 0x005a0434      660c           bne.b 0x5a0442
      0x005a0436      594f           subq.w 0x4, a7
      0x005a0438      4eb900597e2c   jsr K0_DISKMGR.k_alloc_vol_num
      0x005a043e      215f000c       move.l (a7)+, 0xc(a0)
   > 0x005a0442      2d68000c011a   move.l 0xc(a0), 0x11a(a6)
       0x005a0448      487a9e59       pea.l 0x59a2a3(pc)
       0x005a044c      4878000d       pea.l 0xd
       0x005a0450      2f17           move.l (a7), -(a7)
       0x005a0452      4eb9004047ea   jsr p_wts_o
       0x005a0458      504f           addq.w 0x8, a7
       0x005a045a      2ea8000c       move.l 0xc(a0), (a7)
       0x005a045e      4878ffff       pea.l 0xffff
       0x005a0462      4eb9004070e4   jsr p_wti_o
       0x005a0468      504f           addq.w 0x8, a7
       0x005a046a      4eb900404946   jsr p_wtln_o
       0x005a0470      5d4f           subq.w 0x6, a7
       0x005a0472      1eac0222       move.b 0x222(a4), (a7)
       0x005a0476      1f6c02230001   move.b 0x223(a4), 0x1(a7)
       0x005a047c      1f6c02240002   move.b 0x224(a4), 0x2(a7)
       0x005a0482      1f6c02250003   move.b 0x225(a4), 0x3(a7)
       0x005a0488      1f2c000c       move.b 0xc(a4), -(a7)
       0x005a048c      514f           subq.w 0x8, a7
       0x005a048e      224f           movea.l a7, a1
       0x005a0490      45ec001a       lea.l 0x1a(a4), a2
       0x005a0494      7007           moveq 0x7, d0
   > 0x005a0496      12da           move.b (a2)+, (a1)+
   < 0x005a0498      51c8fffc       dbra d0, 0x5a0496
       0x005a049c      486efff8       pea.l -0x8(a6)
       0x005a04a0      486efff9       pea.l -0x7(a6)
       0x005a04a4      4ebaaab8       jsr K03_DISKLIST.get_node_type(pc)
       0x005a04a8      defc0016       adda.w 0x16, a7
       0x005a04ac      101f           move.b (a7)+, d0
       0x005a04ae      4880           ext.w d0
       0x005a04b0      4183           chk.w d3, d0
       0x005a04b2      1d40fffa       move.b d0, -0x6(a6)
       0x005a04b6      594f           subq.w 0x4, a7
       0x005a04b8      1eac0222       move.b 0x222(a4), (a7)
       0x005a04bc      1f6c02230001   move.b 0x223(a4), 0x1(a7)
       0x005a04c2      1f6c02240002   move.b 0x224(a4), 0x2(a7)
       0x005a04c8      1f6c02250003   move.b 0x225(a4), 0x3(a7)
       0x005a04ce      4880           ext.w d0
       0x005a04d0      4183           chk.w d3, d0
       0x005a04d2      1f00           move.b d0, -(a7)
       0x005a04d4      102efff8       move.b -0x8(a6), d0
       0x005a04d8      4880           ext.w d0
       0x005a04da      4181           chk.w d1, d0
       0x005a04dc      1f00           move.b d0, -(a7)
       0x005a04de      102efff9       move.b -0x7(a6), d0
       0x005a04e2      4880           ext.w d0
       0x005a04e4      4181           chk.w d1, d0
       0x005a04e6      1f00           move.b d0, -(a7)
       0x005a04e8      4227           clr.b -(a7)
       0x005a04ea      1f3c0002       move.b 0x2, -(a7)
       0x005a04ee      2f13           move.l (a3), -(a7)
       0x005a04f0      2f28000c       move.l 0xc(a0), -(a7)
       0x005a04f4      486efffc       pea.l -0x4(a6)
       0x005a04f8      4ebaac5a       jsr K03_DISKLIST.add_to_tree(pc)
       0x005a04fc      defc001a       adda.w 0x1a, a7
       0x005a0500      2253           movea.l (a3), a1
       0x005a0502      b3e9fffc       cmpa.l -0x4(a1), a1
   < 0x005a0506      6702           beq.b 0x5a050a
      0x005a0508      4e4d           trap 0xd
   > 0x005a050a      236efffc0116   move.l -0x4(a6), 0x116(a1)
       0x005a0510      b9ecfffc       cmpa.l -0x4(a4), a4
   < 0x005a0514      6702           beq.b 0x5a0518
      0x005a0516      4e4d           trap 0xd
   > 0x005a0518      2953022a       move.l (a3), 0x22a(a4)
   > 0x005a051c      48790083fe5c   pea.l 0x83fe5c
        0x005a0522      4eb90040234e   jsr p_Signal
        0x005a0528      584f           addq.w 0x4, a7
        0x005a052a      4cdf1f0f       movem.l (a7)+, d0-d3/a0-a4
        0x005a052e      4e5e           unlk a6
        0x005a0530      4e75           rts
         ; CALL XREF from K0_DISKMGR.k_next_subvol @ 0x59832a
 262: K03_DISKLIST.k03_next_subvol ();
        0x005a0532      4e56ffbe       link.w a6, 0xffbe
        0x005a0536      bfd5           cmpa.l (a5), a7
    < 0x005a0538      6206           bhi.b 0x5a0540
       0x005a053a      44fc0002       move.w 0x2, ccr
       0x005a053e      4e76           trapv
    > 0x005a0540      defc0038       adda.w 0x38, a7
        0x005a0544      48e7f1f8       movem.l d0-d3/d7/a0-a4, -(a7)
        0x005a0548      45ee0008       lea.l 0x8(a6), a2
        0x005a054c      7401           moveq 0x1, d2
        0x005a054e      76ff           moveq 0xff, d3
        0x005a0550      594f           subq.w 0x4, a7
        0x005a0552      2f2e000c       move.l 0xc(a6), -(a7)
        0x005a0556      4ebafad2       jsr K03_DISKLIST.k03_get_vol_ptr(pc)
        0x005a055a      584f           addq.w 0x4, a7
        0x005a055c      265f           movea.l (a7)+, a3
        0x005a055e      422e0010       clr.b 0x10(a6)
        0x005a0562      48790083fe5c   pea.l 0x83fe5c
        0x005a0568      4eb9004023c4   jsr p_Wait
        0x005a056e      584f           addq.w 0x4, a7
        0x005a0570      b6c2           cmpa.w d2, a3
    < 0x005a0572      662c           bne.b 0x5a05a0
       0x005a0574      487a9d3b       pea.l 0x59a2b1(pc)
       0x005a0578      48780023       pea.l 0x23
       0x005a057c      2f17           move.l (a7), -(a7)
       0x005a057e      4eb9004047ea   jsr p_wts_o
       0x005a0584      504f           addq.w 0x8, a7
       0x005a0586      2eae000c       move.l 0xc(a6), (a7)
       0x005a058a      4878ffff       pea.l 0xffff
       0x005a058e      4eb9004070e4   jsr p_wti_o
       0x005a0594      504f           addq.w 0x8, a7
       0x005a0596      4eb900404946   jsr p_wtln_o
   < 0x005a059c      60000084       bra.w 0x5a0622
   > 0x005a05a0      b7ebfffc       cmpa.l -0x4(a3), a3
   < 0x005a05a4      6702           beq.b 0x5a05a8
      0x005a05a6      4e4d           trap 0xd
   > 0x005a05a8      286b022a       movea.l 0x22a(a3), a4
       0x005a05ac      7e00           moveq 0x0, d7
       0x005a05ae      2052           movea.l (a2), a0
       0x005a05b0      20280002       move.l 0x2(a0), d0
       0x005a05b4      b083           cmp.l d3, d0
   < 0x005a05b6      673a           beq.b 0x5a05f2
      0x005a05b8      2052           movea.l (a2), a0
  > 0x005a05ba      b8c2           cmpa.w d2, a4
 < 0x005a05bc      6724           beq.b 0x5a05e2
    0x005a05be      4a07           tst.b d7
 < 0x005a05c0      6620           bne.b 0x5a05e2
    0x005a05c2      7000           moveq 0x0, d0
    0x005a05c4      b9ecfffc       cmpa.l -0x4(a4), a4
 < 0x005a05c8      6702           beq.b 0x5a05cc
    0x005a05ca      4e4d           trap 0xd
 > 0x005a05cc      222c000c       move.l 0xc(a4), d1
    0x005a05d0      b2a80002       cmp.l 0x2(a0), d1
 < 0x005a05d4      6602           bne.b 0x5a05d8
    0x005a05d6      5200           addq.b 0x1, d0
 > 0x005a05d8      1e00           move.b d0, d7
 < 0x005a05da      6604           bne.b 0x5a05e0
    0x005a05dc      286c0004       movea.l 0x4(a4), a4
 < 0x005a05e0      60d8           bra.b 0x5a05ba
 > 0x005a05e2      4a07           tst.b d7
  < 0x005a05e4      670c           beq.b 0x5a05f2
     0x005a05e6      b9ecfffc       cmpa.l -0x4(a4), a4
 < 0x005a05ea      6702           beq.b 0x5a05ee
    0x005a05ec      4e4d           trap 0xd
 > 0x005a05ee      286c0004       movea.l 0x4(a4), a4
  > 0x005a05f2      422e0010       clr.b 0x10(a6)
       0x005a05f6      b8c2           cmpa.w d2, a4
   < 0x005a05f8      6704           beq.b 0x5a05fe
      0x005a05fa      522e0010       addq.b 0x1, 0x10(a6)
   > 0x005a05fe      b8c2           cmpa.w d2, a4
   < 0x005a0600      6608           bne.b 0x5a060a
      0x005a0602      2052           movea.l (a2), a0
      0x005a0604      21430002       move.l d3, 0x2(a0)
  < 0x005a0608      6018           bra.b 0x5a0622
  > 0x005a060a      2052           movea.l (a2), a0
      0x005a060c      b9ecfffc       cmpa.l -0x4(a4), a4
  < 0x005a0610      6702           beq.b 0x5a0614
     0x005a0612      4e4d           trap 0xd
  > 0x005a0614      43ec000a       lea.l 0xa(a4), a1
      0x005a0618      303c010b       move.w 0x10b, d0
  > 0x005a061c      10d9           move.b (a1)+, (a0)+
  < 0x005a061e      51c8fffc       dbra d0, 0x5a061c
  > 0x005a0622      48790083fe5c   pea.l 0x83fe5c
        0x005a0628      4eb90040234e   jsr p_Signal
        0x005a062e      584f           addq.w 0x4, a7
        0x005a0630      4cdf1f8f       movem.l (a7)+, d0-d3/d7/a0-a4
        0x005a0634      4e5e           unlk a6
        0x005a0636      4e75           rts
         ; CALL XREF from K0_DISKMGR.k_subvol @ 0x59836c
 332: K03_DISKLIST.k03_subvol ();
        0x005a0638      4e56ffba       link.w a6, 0xffba
        0x005a063c      bfd5           cmpa.l (a5), a7
    < 0x005a063e      6206           bhi.b 0x5a0646
       0x005a0640      44fc0002       move.w 0x2, ccr
       0x005a0644      4e76           trapv
    > 0x005a0646      defc003c       adda.w 0x3c, a7
        0x005a064a      48e7e1f8       movem.l d0-d2/d7/a0-a4, -(a7)
        0x005a064e      45ee0008       lea.l 0x8(a6), a2
        0x005a0652      7401           moveq 0x1, d2
        0x005a0654      594f           subq.w 0x4, a7
        0x005a0656      2f2e000e       move.l 0xe(a6), -(a7)
        0x005a065a      4ebaf9ce       jsr K03_DISKLIST.k03_get_vol_ptr(pc)
        0x005a065e      584f           addq.w 0x4, a7
        0x005a0660      265f           movea.l (a7)+, a3
        0x005a0662      422e0012       clr.b 0x12(a6)
        0x005a0666      48790083fe5c   pea.l 0x83fe5c
        0x005a066c      4eb9004023c4   jsr p_Wait
        0x005a0672      584f           addq.w 0x4, a7
        0x005a0674      b6c2           cmpa.w d2, a3
    < 0x005a0676      662c           bne.b 0x5a06a4
       0x005a0678      487a9c5b       pea.l 0x59a2d5(pc)
       0x005a067c      48780027       pea.l 0x27
       0x005a0680      2f17           move.l (a7), -(a7)
       0x005a0682      4eb9004047ea   jsr p_wts_o
       0x005a0688      504f           addq.w 0x8, a7
       0x005a068a      2eae000e       move.l 0xe(a6), (a7)
   > 0x005a068e      4878ffff       pea.l 0xffff
      0x005a0692      4eb9004070e4   jsr p_wti_o
      0x005a0698      504f           addq.w 0x8, a7
      0x005a069a      4eb900404946   jsr p_wtln_o
  < 0x005a06a0      600000cc       bra.w 0x5a076e
  > 0x005a06a4      2052           movea.l (a2), a0
      0x005a06a6      20280002       move.l 0x2(a0), d0
      0x005a06aa      0c80ffffffff   cmpi.l 0xffffffff, d0
  < 0x005a06b0      6636           bne.b 0x5a06e8
     0x005a06b2      487a9c49       pea.l 0x59a2fd(pc)
     0x005a06b6      48780019       pea.l 0x19
     0x005a06ba      2f17           move.l (a7), -(a7)
     0x005a06bc      4eb9004047ea   jsr p_wts_o
     0x005a06c2      504f           addq.w 0x8, a7
     0x005a06c4      2eae000e       move.l 0xe(a6), (a7)
     0x005a06c8      4878ffff       pea.l 0xffff
     0x005a06cc      4eb9004070e4   jsr p_wti_o
     0x005a06d2      5c4f           addq.w 0x6, a7
     0x005a06d4      1ebc002e       move.b 0x2e, (a7)
     0x005a06d8      48780001       pea.l 0x1
     0x005a06dc      4eb9004048b4   jsr p_wtc_o
     0x005a06e2      544f           addq.w 0x2, a7
     0x005a06e4      2e80           move.l d0, (a7)
  < 0x005a06e6      60a6           bra.b 0x5a068e
   > 0x005a06e8      b7ebfffc       cmpa.l -0x4(a3), a3
   < 0x005a06ec      6702           beq.b 0x5a06f0
      0x005a06ee      4e4d           trap 0xd
   > 0x005a06f0      286b022a       movea.l 0x22a(a3), a4
       0x005a06f4      7e00           moveq 0x0, d7
       0x005a06f6      2052           movea.l (a2), a0
   > 0x005a06f8      b8c2           cmpa.w d2, a4
  < 0x005a06fa      6724           beq.b 0x5a0720
     0x005a06fc      4a07           tst.b d7
 < 0x005a06fe      6620           bne.b 0x5a0720
    0x005a0700      7000           moveq 0x0, d0
    0x005a0702      b9ecfffc       cmpa.l -0x4(a4), a4
 < 0x005a0706      6702           beq.b 0x5a070a
    0x005a0708      4e4d           trap 0xd
 > 0x005a070a      222c000c       move.l 0xc(a4), d1
    0x005a070e      b2a80002       cmp.l 0x2(a0), d1
 < 0x005a0712      6602           bne.b 0x5a0716
    0x005a0714      5200           addq.b 0x1, d0
 > 0x005a0716      1e00           move.b d0, d7
 < 0x005a0718      6604           bne.b 0x5a071e
    0x005a071a      286c0004       movea.l 0x4(a4), a4
 < 0x005a071e      60d8           bra.b 0x5a06f8
 > 0x005a0720      4887           ext.w d7
       0x005a0722      4f82           chk.w d2, d7
       0x005a0724      1d470012       move.b d7, 0x12(a6)
       0x005a0728      4a47           tst.w d7
   < 0x005a072a      6742           beq.b 0x5a076e
      0x005a072c      4a2e000c       tst.b 0xc(a6)
  < 0x005a0730      670a           beq.b 0x5a073c
     0x005a0732      102e000c       move.b 0xc(a6), d0
     0x005a0736      b002           cmp.b d2, d0
 < 0x005a0738      671c           beq.b 0x5a0756
    0x005a073a      4e4e           trap 0xe
 > 0x005a073c      2052           movea.l (a2), a0
     0x005a073e      b9ecfffc       cmpa.l -0x4(a4), a4
 < 0x005a0742      6702           beq.b 0x5a0746
    0x005a0744      4e4d           trap 0xd
 > 0x005a0746      43ec000a       lea.l 0xa(a4), a1
     0x005a074a      303c010b       move.w 0x10b, d0
 > 0x005a074e      10d9           move.b (a1)+, (a0)+
 < 0x005a0750      51c8fffc       dbra d0, 0x5a074e
 < 0x005a0754      6018           bra.b 0x5a076e
 > 0x005a0756      b9ecfffc       cmpa.l -0x4(a4), a4
 < 0x005a075a      6702           beq.b 0x5a075e
    0x005a075c      4e4d           trap 0xd
 > 0x005a075e      2052           movea.l (a2), a0
     0x005a0760      43ec000a       lea.l 0xa(a4), a1
     0x005a0764      303c010b       move.w 0x10b, d0
 > 0x005a0768      12d8           move.b (a0)+, (a1)+
 < 0x005a076a      51c8fffc       dbra d0, 0x5a0768
  > 0x005a076e      48790083fe5c   pea.l 0x83fe5c
        0x005a0774      4eb90040234e   jsr p_Signal
        0x005a077a      584f           addq.w 0x4, a7
        0x005a077c      4cdf1f87       movem.l (a7)+, d0-d2/d7/a0-a4
        0x005a0780      4e5e           unlk a6
        0x005a0782      4e75           rts
         ; CALL XREF from K0_DISKMGR.k_supervol_node @ 0x598434
 216: K03_DISKLIST.k03_supervol_no ();
        0x005a0784      4e56ffbc       link.w a6, 0xffbc
        0x005a0788      bfd5           cmpa.l (a5), a7
    < 0x005a078a      6206           bhi.b 0x5a0792
       0x005a078c      44fc0002       move.w 0x2, ccr
       0x005a0790      4e76           trapv
    > 0x005a0792      defc0040       adda.w 0x40, a7
        0x005a0796      48e7fcf8       movem.l d0-d5/a0-a4, -(a7)
        0x005a079a      47f90083fe5c   lea.l 0x83fe5c, a3
        0x005a07a0      7201           moveq 0x1, d1
        0x005a07a2      7406           moveq 0x6, d2
        0x005a07a4      7aff           moveq 0xff, d5
        0x005a07a6      4853           pea.l (a3)
        0x005a07a8      4eb9004023c4   jsr p_Wait
        0x005a07ae      584f           addq.w 0x4, a7
        0x005a07b0      1d410018       move.b d1, 0x18(a6)
        0x005a07b4      206e0010       movea.l 0x10(a6), a0
        0x005a07b8      1082           move.b d2, (a0)
        0x005a07ba      226e0008       movea.l 0x8(a6), a1
        0x005a07be      2285           move.l d5, (a1)
        0x005a07c0      202e0014       move.l 0x14(a6), d0
        0x005a07c4      b085           cmp.l d5, d0
    < 0x005a07c6      6604           bne.b 0x5a07cc
       0x005a07c8      3841           movea.w d1, a4
   < 0x005a07ca      6004           bra.b 0x5a07d0
   > 0x005a07cc      2f00           move.l d0, -(a7)
       0x005a07ce      285f           movea.l (a7)+, a4
   > 0x005a07d0      b8c1           cmpa.w d1, a4
    < 0x005a07d2      6606           bne.b 0x5a07da
   > 0x005a07d4      422e0018       clr.b 0x18(a6)
  < 0x005a07d8      6026           bra.b 0x5a0800
  > 0x005a07da      b9ecfffc       cmpa.l -0x4(a4), a4
  < 0x005a07de      6702           beq.b 0x5a07e2
     0x005a07e0      4e4d           trap 0xd
  > 0x005a07e2      4a2c0022       tst.b 0x22(a4)
  < 0x005a07e6      6702           beq.b 0x5a07ea
  < 0x005a07e8      60ea           bra.b 0x5a07d4
   > 0x005a07ea      246c0024       movea.l 0x24(a4), a2
       0x005a07ee      b5eafffc       cmpa.l -0x4(a2), a2
   < 0x005a07f2      6702           beq.b 0x5a07f6
      0x005a07f4      4e4d           trap 0xd
   > 0x005a07f6      102a0300       move.b 0x300(a2), d0
       0x005a07fa      4880           ext.w d0
       0x005a07fc      4182           chk.w d2, d0
       0x005a07fe      1080           move.b d0, (a0)
  > 0x005a0800      b8c1           cmpa.w d1, a4
    < 0x005a0802      670c           beq.b 0x5a0810
       0x005a0804      594f           subq.w 0x4, a7
       0x005a0806      2f0c           move.l a4, -(a7)
       0x005a0808      4eba9e86       jsr K03_DISKLIST.get_level(pc)
       0x005a080c      584f           addq.w 0x4, a7
       0x005a080e      229f           move.l (a7)+, (a1)
    > 0x005a0810      1010           move.b (a0), d0
        0x005a0812      0c000005       cmpi.b 0x5, d0
    < 0x005a0816      662c           bne.b 0x5a0844
       0x005a0818      b9ecfffc       cmpa.l -0x4(a4), a4
   < 0x005a081c      6702           beq.b 0x5a0820
      0x005a081e      4e4d           trap 0xd
   > 0x005a0820      206c0024       movea.l 0x24(a4), a0
       0x005a0824      b1e8fffc       cmpa.l -0x4(a0), a0
   < 0x005a0828      6702           beq.b 0x5a082c
      0x005a082a      4e4d           trap 0xd
   > 0x005a082c      206e000c       movea.l 0xc(a6), a0
       0x005a0830      282c001c       move.l 0x1c(a4), d4
       0x005a0834      263c00000100   move.l 0x100, d3
       0x005a083a      4eb900406b50   jsr fcn.00406b50
       0x005a0840      2084           move.l d4, (a0)
   < 0x005a0842      6006           bra.b 0x5a084a
   > 0x005a0844      206e000c       movea.l 0xc(a6), a0
       0x005a0848      4290           clr.l (a0)
   > 0x005a084a      4853           pea.l (a3)
        0x005a084c      4eb90040234e   jsr p_Signal
        0x005a0852      584f           addq.w 0x4, a7
        0x005a0854      4cdf1f3f       movem.l (a7)+, d0-d5/a0-a4
        0x005a0858      4e5e           unlk a6
        0x005a085a      4e75           rts
         ; XREFS(30)
 62: K03_DISKLIST.k03_lock_vol_ga ();
        0x005a085c      4e56fff4       link.w a6, 0xfff4
        0x005a0860      bfd5           cmpa.l (a5), a7
    < 0x005a0862      6206           bhi.b 0x5a086a
       0x005a0864      44fc0002       move.w 0x2, ccr
       0x005a0868      4e76           trapv
    > 0x005a086a      defc000c       adda.w 0xc, a7
        0x005a086e      48e70080       movem.l a0, -(a7)
        0x005a0872      41f90083fe5c   lea.l 0x83fe5c, a0
        0x005a0878      4a2e0008       tst.b 0x8(a6)
    < 0x005a087c      670a           beq.b 0x5a0888
       0x005a087e      4850           pea.l (a0)
       0x005a0880      4eb9004023c4   jsr p_Wait
   < 0x005a0886      6008           bra.b 0x5a0890
   > 0x005a0888      4850           pea.l (a0)
       0x005a088a      4eb90040234e   jsr p_Signal
   > 0x005a0890      584f           addq.w 0x4, a7
        0x005a0892      4cdf0100       movem.l (a7)+, a0
        0x005a0896      4e5e           unlk a6
        0x005a0898      4e75           rts
         ; CALL XREF from K0_DISKMGR.k_bank_areas @ 0x59861a
 50: K03_DISKLIST.k03_bank_areas ();
        0x005a089a      4e56fff8       link.w a6, 0xfff8
        0x005a089e      bfd5           cmpa.l (a5), a7
    < 0x005a08a0      6206           bhi.b 0x5a08a8
       0x005a08a2      44fc0002       move.w 0x2, ccr
       0x005a08a6      4e76           trapv
    > 0x005a08a8      defc0008       adda.w 0x8, a7
        0x005a08ac      48e70080       movem.l a0, -(a7)
        0x005a08b0      206e000c       movea.l 0xc(a6), a0
        0x005a08b4      20b90083fe6a   move.l 0x83fe6a, (a0)
        0x005a08ba      206e0008       movea.l 0x8(a6), a0
        0x005a08be      20b90083fe6e   move.l 0x83fe6e, (a0)
        0x005a08c4      4cdf0100       movem.l (a7)+, a0
        0x005a08c8      4e5e           unlk a6
        0x005a08ca      4e75           rts
         ; CALL XREF from K0_DISKMGR.k_dlog_init @ 0x598802
 588: K03_DISKLIST.k03_init ();
        0x005a08cc      4e56fdca       link.w a6, 0xfdca
        0x005a08d0      bfd5           cmpa.l (a5), a7
    < 0x005a08d2      6206           bhi.b 0x5a08da
       0x005a08d4      44fc0002       move.w 0x2, ccr
       0x005a08d8      4e76           trapv
    > 0x005a08da      defc0236       adda.w 0x236, a7
        0x005a08de      48e7f8f8       movem.l d0-d4/a0-a4, -(a7)
        0x005a08e2      49f80001       lea.l 0x1, a4
        0x005a08e6      7201           moveq 0x1, d1
        0x005a08e8      343c0100       move.w 0x100, d2
        0x005a08ec      363c020a       move.w 0x20a, d3
        0x005a08f0      383c00fc       move.w 0xfc, d4
        0x005a08f4      23c10083fe3e   move.l d1, 0x83fe3e
        0x005a08fa      23c10083fe42   move.l d1, 0x83fe42
        0x005a0900      48790083fe46   pea.l 0x83fe46
        0x005a0906      48780028       pea.l 0x28
        0x005a090a      4eb900403a92   jsr p_New
        0x005a0910      504f           addq.w 0x8, a7
        0x005a0912      20790083fe46   movea.l 0x83fe46, a0
        0x005a0918      b1e8fffc       cmpa.l -0x4(a0), a0
    < 0x005a091c      6702           beq.b 0x5a0920
       0x005a091e      4e4d           trap 0xd
    > 0x005a0920      2081           move.l d1, (a0)
        0x005a0922      21410004       move.l d1, 0x4(a0)
        0x005a0926      21410008       move.l d1, 0x8(a0)
        0x005a092a      217c80000000.  move.l 0x80000000, 0x1c(a0)
        0x005a0932      11410020       move.b d1, 0x20(a0)
        0x005a0936      11410021       move.b d1, 0x21(a0)
        0x005a093a      42280022       clr.b 0x22(a0)
        0x005a093e      2141000c       move.l d1, 0xc(a0)
        0x005a0942      21410010       move.l d1, 0x10(a0)
        0x005a0946      21410018       move.l d1, 0x18(a0)
        0x005a094a      21410014       move.l d1, 0x14(a0)
        0x005a094e      48680024       pea.l 0x24(a0)
        0x005a0952      48780307       pea.l 0x307
        0x005a0956      4eb900403a92   jsr p_New
        0x005a095c      504f           addq.w 0x8, a7
        0x005a095e      22680024       movea.l 0x24(a0), a1
        0x005a0962      b3e9fffc       cmpa.l -0x4(a1), a1
    < 0x005a0966      6702           beq.b 0x5a096a
       0x005a0968      4e4d           trap 0xd
    > 0x005a096a      2449           movea.l a1, a2
        0x005a096c      47fa99a8       lea.l 0x59a316(pc), a3
        0x005a0970      7004           moveq 0x4, d0
    > 0x005a0972      14db           move.b (a3)+, (a2)+
    < 0x005a0974      51c8fffc       dbra d0, 0x5a0972
        0x005a0978      45e90100       lea.l 0x100(a1), a2
        0x005a097c      47fa999d       lea.l 0x59a31b(pc), a3
        0x005a0980      7006           moveq 0x6, d0
    > 0x005a0982      14db           move.b (a3)+, (a2)+
    < 0x005a0984      51c8fffc       dbra d0, 0x5a0982
        0x005a0988      45e90200       lea.l 0x200(a1), a2
        0x005a098c      47fa9994       lea.l 0x59a322(pc), a3
        0x005a0990      7006           moveq 0x6, d0
    > 0x005a0992      14db           move.b (a3)+, (a2)+
    < 0x005a0994      51c8fffc       dbra d0, 0x5a0992
        0x005a0998      137c00060300   move.b 0x6, 0x300(a1)
        0x005a099e      13410302       move.b d1, 0x302(a1)
        0x005a09a2      13410301       move.b d1, 0x301(a1)
        0x005a09a6      13410303       move.b d1, 0x303(a1)
        0x005a09aa      13410305       move.b d1, 0x305(a1)
        0x005a09ae      13410304       move.b d1, 0x304(a1)
        0x005a09b2      13410306       move.b d1, 0x306(a1)
        0x005a09b6      23c10083fe56   move.l d1, 0x83fe56
        0x005a09bc      23c10083fe4a   move.l d1, 0x83fe4a
        0x005a09c2      23c10083fe4e   move.l d1, 0x83fe4e
        0x005a09c8      23c10083fe52   move.l d1, 0x83fe52
        0x005a09ce      42390083fe5a   clr.b 0x83fe5a
        0x005a09d4      48790083fe5c   pea.l 0x83fe5c
        0x005a09da      3f01           move.w d1, -(a7)
        0x005a09dc      3f01           move.w d1, -(a7)
        0x005a09de      4eb900402b88   jsr p_New_Semaphore
        0x005a09e4      504f           addq.w 0x8, a7
        0x005a09e6      4854           pea.l (a4)
        0x005a09e8      4227           clr.b -(a7)
        0x005a09ea      48780000       pea.l 0x0
        0x005a09ee      9ec2           suba.w d2, a7
        0x005a09f0      204f           movea.l a7, a0
        0x005a09f2      43fa9935       lea.l 0x59a329(pc), a1
        0x005a09f6      700b           moveq 0xb, d0
    > 0x005a09f8      10d9           move.b (a1)+, (a0)+
    < 0x005a09fa      51c8fffc       dbra d0, 0x5a09f8
        0x005a09fe      9ec2           suba.w d2, a7
        0x005a0a00      204f           movea.l a7, a0
        0x005a0a02      43fa9931       lea.l 0x59a335(pc), a1
        0x005a0a06      700b           moveq 0xb, d0
    > 0x005a0a08      10d9           move.b (a1)+, (a0)+
    < 0x005a0a0a      51c8fffc       dbra d0, 0x5a0a08
        0x005a0a0e      4ebae4fe       jsr K03_DISKLIST.k03_set_supervo(pc)
        0x005a0a12      dec3           adda.w d3, a7
        0x005a0a14      4854           pea.l (a4)
        0x005a0a16      1f01           move.b d1, -(a7)
        0x005a0a18      48780000       pea.l 0x0
        0x005a0a1c      9ec2           suba.w d2, a7
        0x005a0a1e      204f           movea.l a7, a0
        0x005a0a20      43fa991f       lea.l 0x59a341(pc), a1
        0x005a0a24      700c           moveq 0xc, d0
    > 0x005a0a26      10d9           move.b (a1)+, (a0)+
    < 0x005a0a28      51c8fffc       dbra d0, 0x5a0a26
        0x005a0a2c      9ec4           suba.w d4, a7
        0x005a0a2e      2f3a991e       move.l 0x59a34e(pc), -(a7)
        0x005a0a32      2f7a991e0004   move.l 0x59a352(pc), 0x4(a7)
        0x005a0a38      2f7a991c0008   move.l 0x59a356(pc), 0x8(a7)
        0x005a0a3e      1f7a991a000c   move.b 0x59a35a(pc), 0xc(a7)
        0x005a0a44      4ebae4c8       jsr K03_DISKLIST.k03_set_supervo(pc)
        0x005a0a48      dec3           adda.w d3, a7
        0x005a0a4a      4854           pea.l (a4)
        0x005a0a4c      1f3c0003       move.b 0x3, -(a7)
        0x005a0a50      48780000       pea.l 0x0
        0x005a0a54      9ec2           suba.w d2, a7
        0x005a0a56      204f           movea.l a7, a0
        0x005a0a58      43fa9901       lea.l 0x59a35b(pc), a1
        0x005a0a5c      7010           moveq 0x10, d0
    > 0x005a0a5e      10d9           move.b (a1)+, (a0)+
    < 0x005a0a60      51c8fffc       dbra d0, 0x5a0a5e
        0x005a0a64      9ec4           suba.w d4, a7
        0x005a0a66      2f3a9904       move.l 0x59a36c(pc), -(a7)
        0x005a0a6a      2f7a99040004   move.l 0x59a370(pc), 0x4(a7)
        0x005a0a70      2f7a99020008   move.l 0x59a374(pc), 0x8(a7)
        0x005a0a76      2f7a9900000c   move.l 0x59a378(pc), 0xc(a7)
        0x005a0a7c      1f7a98fe0010   move.b 0x59a37c(pc), 0x10(a7)
        0x005a0a82      4ebae48a       jsr K03_DISKLIST.k03_set_supervo(pc)
        0x005a0a86      dec3           adda.w d3, a7
        0x005a0a88      4854           pea.l (a4)
        0x005a0a8a      1f3c0002       move.b 0x2, -(a7)
        0x005a0a8e      48780000       pea.l 0x0
        0x005a0a92      9ec2           suba.w d2, a7
        0x005a0a94      204f           movea.l a7, a0
        0x005a0a96      43fa98e5       lea.l 0x59a37d(pc), a1
        0x005a0a9a      700b           moveq 0xb, d0
    > 0x005a0a9c      10d9           move.b (a1)+, (a0)+
    < 0x005a0a9e      51c8fffc       dbra d0, 0x5a0a9c
        0x005a0aa2      9ec2           suba.w d2, a7
        0x005a0aa4      204f           movea.l a7, a0
        0x005a0aa6      43fa98e1       lea.l 0x59a389(pc), a1
        0x005a0aaa      700a           moveq 0xa, d0
    > 0x005a0aac      10d9           move.b (a1)+, (a0)+
    < 0x005a0aae      51c8fffc       dbra d0, 0x5a0aac
        0x005a0ab2      4ebae45a       jsr K03_DISKLIST.k03_set_supervo(pc)
        0x005a0ab6      dec3           adda.w d3, a7
        0x005a0ab8      4854           pea.l (a4)
        0x005a0aba      1f3c0004       move.b 0x4, -(a7)
        0x005a0abe      48780000       pea.l 0x0
        0x005a0ac2      9ec4           suba.w d4, a7
        0x005a0ac4      2f3a98ce       move.l 0x59a394(pc), -(a7)
        0x005a0ac8      2f7a98ce0004   move.l 0x59a398(pc), 0x4(a7)
        0x005a0ace      2f7a98cc0008   move.l 0x59a39c(pc), 0x8(a7)
        0x005a0ad4      2f7a98ca000c   move.l 0x59a3a0(pc), 0xc(a7)
        0x005a0ada      3f7a98c80010   move.w 0x59a3a4(pc), 0x10(a7)
        0x005a0ae0      1f7a98c40012   move.b 0x59a3a6(pc), 0x12(a7)
        0x005a0ae6      9ec2           suba.w d2, a7
        0x005a0ae8      204f           movea.l a7, a0
        0x005a0aea      43fa98bb       lea.l 0x59a3a7(pc), a1
        0x005a0aee      7012           moveq 0x12, d0
    > 0x005a0af0      10d9           move.b (a1)+, (a0)+
    < 0x005a0af2      51c8fffc       dbra d0, 0x5a0af0
        0x005a0af6      4ebae416       jsr K03_DISKLIST.k03_set_supervo(pc)
        0x005a0afa      dec3           adda.w d3, a7
        0x005a0afc      23fc7fffffff.  move.l 0x7fffffff, 0x83fe6a.l
        0x005a0b06      23fc80000000.  move.l 0x80000000, 0x83fe6e.l
        0x005a0b10      4cdf1f1f       movem.l (a7)+, d0-d4/a0-a4
        0x005a0b14      4e5e           unlk a6
