            ;-- K05_LOADSAVE:
            0x005a320e      .byte 0x00
            0x005a320f      .byte 0x88
            0x005a3210      .byte 0x00
            0x005a3211      .byte 0x46
            0x005a3212      .byte 0x00
            0x005a3213      .byte 0xd2
            0x005a3214      .byte 0x00
            0x005a3215      .byte 0x51
            0x005a3216      .byte 0x00
            0x005a3217      .byte 0x80
            0x005a3218      .byte 0x00
            0x005a3219      .byte 0x80
            0x005a321a      .byte 0x00
            0x005a321b      .byte 0x3c
            0x005a321c      .byte 0x00
            0x005a321d      .byte 0x80
            0x005a321e      .byte 0x00
            0x005a321f      .byte 0x80
            0x005a3220      .byte 0x00
            0x005a3221      .byte 0x32
            0x005a3222      .byte 0x00
            0x005a3223      .byte 0x80
            0x005a3224      .byte 0x00
            0x005a3225      .byte 0x80
            0x005a3226      .byte 0x00
            0x005a3227      .byte 0x10
            0x005a3228      .byte 0x00
            0x005a3229      .byte 0x80
            0x005a322a      .byte 0x00
            0x005a322b      .byte 0x80
            0x005a322c      .byte 0x00
            0x005a322d      .byte 0xa7
            0x005a322e      .byte 0x00
            0x005a322f      .byte 0x72
            0x005a3230      .byte 0x00
            0x005a3231      .byte 0x9e
            0x005a3232      .byte 0x00
            0x005a3233      .byte 0xbf
            0x005a3234      .byte 0x00
            0x005a3235      .byte 0x80
            0x005a3236      .byte 0x00
            0x005a3237      .byte 0x80
            0x005a3238      .byte 0x00
            0x005a3239      .byte 0xa0
            0x005a323a      .byte 0x00
            0x005a323b      .byte 0x96
            0x005a323c      .byte 0x00
            0x005a323d      .byte 0x74
            0x005a323e      .byte 0x00
            0x005a323f      .byte 0x23
            0x005a3240      .byte 0x00
            0x005a3241      .byte 0xf0
            0x005a3242      .byte 0x00
            0x005a3243      .byte 0x6e
            0x005a3244      .byte 0x00
            0x005a3245      .byte 0x8c
            0x005a3246      .byte 0x00
            0x005a3247      .byte 0x6e
            0x005a3248      .byte 0x00
            0x005a3249      .byte 0x6e
            0x005a324a      .byte 0x00
            0x005a324b      .byte 0xc4
            0x005a324c      .byte 0x00
            0x005a324d      .byte 0x31
            0x005a324e      .byte 0x00
            0x005a324f      .byte 0x8c
            0x005a3250      .byte 0x00
            0x005a3251      .byte 0xa8
            0x005a3252      .byte 0x00
            0x005a3253      .byte 0x28
            0x005a3254      .byte 0x00
            0x005a3255      .byte 0xb1
            0x005a3256      .byte 0x00
            0x005a3257      .byte 0x00
            0x005a3258      .byte 0x00
            0x005a3259      .byte 0x80
            0x005a325a      .byte 0x00
            0x005a325b      .byte 0x80
            0x005a325c      .byte 0x00
            0x005a325d      .byte 0xff
            0x005a325e      .byte 0x00
            0x005a325f      .byte 0x80
            0x005a3260      .byte 0x00
            0x005a3261      .byte 0x80
            0x005a3262      .byte 0x00
            0x005a3263      .byte 0xcc
            0x005a3264      .byte 0x00
            0x005a3265      .byte 0x80
            0x005a3266      .byte 0x00
            0x005a3267      .byte 0x80
            0x005a3268      .byte 0x00
            0x005a3269      .byte 0xad
            0x005a326a      .byte 0x00
            0x005a326b      .byte 0x80
            0x005a326c      .byte 0x00
            0x005a326d      .byte 0x80
            0x005a326e      .byte 0x00
            0x005a326f      .byte 0xeb
            0x005a3270      .byte 0x00
            0x005a3271      .byte 0x80
            0x005a3272      .byte 0x00
            0x005a3273      .byte 0x80
            0x005a3274      .byte 0x00
            0x005a3275      .byte 0x10
            0x005a3276      .byte 0x00
            0x005a3277      .byte 0x80
            0x005a3278      .byte 0x00
            0x005a3279      .byte 0x80
            0x005a327a      .byte 0x00
            0x005a327b      .byte 0x80
            0x005a327c      .byte 0x00
            0x005a327d      .byte 0x80
            0x005a327e      .byte 0x00
            0x005a327f      .byte 0x80
            0x005a3280      .byte 0x00
            0x005a3281      .byte 0x51
            0x005a3282      .byte 0x00
            0x005a3283      .byte 0x5a
            0x005a3284      .byte 0x00
            0x005a3285      .byte 0xf0
            0x005a3286      .byte 0x00
            0x005a3287      .byte 0xd2
            0x005a3288      .byte 0x00
            0x005a3289      .byte 0x10
            0x005a328a      .byte 0x00
            0x005a328b      .byte 0x92
            0x005a328c      .byte 0x00
            0x005a328d      .byte 0x29
            0x005a328e      .byte 0x00
            0x005a328f      .byte 0xf0
            0x005a3290      .byte 0x00
            0x005a3291      .byte 0x6e
            0x005a3292      .byte 0x00
            0x005a3293      .byte 0x91
            0x005a3294      .byte 0x00
            0x005a3295      .byte 0x36
            0x005a3296      .byte 0x00
            0x005a3297      .byte 0x22
            0x005a3298      .byte 0x00
            0x005a3299      .byte 0xa2
            0x005a329a      .byte 0x00
            0x005a329b      .byte 0x2c
            0x005a329c      .byte 0x00
            0x005a329d      .byte 0x8e
            0x005a329e      .byte 0x00
            0x005a329f      .byte 0x83
            0x005a32a0      .byte 0x00
            0x005a32a1      .byte 0x9c
            0x005a32a2      .byte 0x00
            0x005a32a3      .byte 0x2c
            0x005a32a4      .byte 0x00
            0x005a32a5      .byte 0x70
            0x005a32a6      .byte 0x00
            0x005a32a7      .byte 0x48
            0x005a32a8      .byte 0x00
            0x005a32a9      .byte 0x3a
            0x005a32aa      .byte 0x00
            0x005a32ab      .byte 0x54
            0x005a32ac      .byte 0x00
            0x005a32ad      .byte 0xb8
            0x005a32ae      .byte 0x00
            0x005a32af      .byte 0xc6
            0x005a32b0      .byte 0x00
            0x005a32b1      .byte 0x41
            0x005a32b2      .byte 0x00
            0x005a32b3      .byte 0x64
            0x005a32b4      .byte 0x00
            0x005a32b5      .byte 0xd4
            0x005a32b6      .byte 0x00
            0x005a32b7      .byte 0x23
            0x005a32b8      .byte 0x00
            0x005a32b9      .byte 0xd4
            0x005a32ba      .byte 0x00
            0x005a32bb      .byte 0x72
            0x005a32bc      .byte 0x00
            0x005a32bd      .byte 0xd2
            0x005a32be      .byte 0x00
            0x005a32bf      .byte 0x10
            0x005a32c0      .byte 0x00
            0x005a32c1      .byte 0x92
            0x005a32c2      .byte 0x00
            0x005a32c3      .byte 0xaa
            0x005a32c4      .byte 0x00
            0x005a32c5      .byte 0xa6
            0x005a32c6      .byte 0x00
            0x005a32c7      .byte 0x10
            0x005a32c8      .byte 0x00
            0x005a32c9      .byte 0x91
            0x005a32ca      .byte 0x00
            0x005a32cb      .byte 0x36
            0x005a32cc      .byte 0x00
            0x005a32cd      .byte 0x22
            0x005a32ce      .byte 0x00
            0x005a32cf      .byte 0x6a
            0x005a32d0      .byte 0x00
            0x005a32d1      .byte 0xca
            0x005a32d2      .byte 0x00
            0x005a32d3      .byte 0xde
            0x005a32d4      .byte 0x00
            0x005a32d5      .byte 0x51
            0x005a32d6      .byte 0x00
            0x005a32d7      .byte 0x5a
            0x005a32d8      .byte 0x00
            0x005a32d9      .byte 0xf0
            0x005a32da      .byte 0x00
            0x005a32db      .byte 0x29
            0x005a32dc      .byte 0x00
            0x005a32dd      .byte 0xf0
            0x005a32de      .byte 0x00
            0x005a32df      .byte 0x6e
            0x005a32e0      .byte 0x00
            0x005a32e1      .byte 0x00
            0x005a32e2      .byte 0x00
            0x005a32e3      .byte 0x00
            0x005a32e4      .byte 0x00
            0x005a32e5      .byte 0x00
            0x005a32e6      .byte 0x00
            0x005a32e7      .byte 0x00
            0x005a32e8      .byte 0x00
            0x005a32e9      .byte 0x00
            0x005a32ea      .byte 0x07
            0x005a32eb     .string "DEFAULT" ; len=7
            0x005a32f2      .byte 0xff
            0x005a32f3      .byte 0xff
            0x005a32f4      .byte 0xff
            0x005a32f5      .byte 0xfd
            0x005a32f6      .byte 0x00
            0x005a32f7      .byte 0x00
            0x005a32f8      .byte 0x00
            0x005a32f9      .byte 0x00
            0x005a32fa      .byte 0x00
            0x005a32fb      .byte 0x00
            0x005a32fc      .byte 0x00
            0x005a32fd      .byte 0x00
            0x005a32fe      .byte 0x00
            0x005a32ff      .byte 0x00
            0x005a3300      .byte 0x00
            0x005a3301      .byte 0x00
            0x005a3302      .byte 0x00
            0x005a3303      .byte 0x00
            0x005a3304      .byte 0x00
            0x005a3305      .byte 0x00
            0x005a3306      .byte 0x00
            0x005a3307      .byte 0x00
            0x005a3308      .byte 0x00
            0x005a3309      .byte 0x00
            0x005a330a      .byte 0x00
            0x005a330b      .byte 0x00
            0x005a330c      .byte 0x3f
            0x005a330d      .byte 0x80
            0x005a330e      .byte 0x00
            0x005a330f      .byte 0x00
            0x005a3310      .byte 0x3f
            0x005a3311      .byte 0x80
            0x005a3312      .byte 0x00
            0x005a3313      .byte 0x00
            0x005a3314      .byte 0x00
            0x005a3315      .byte 0x00
            0x005a3316      .byte 0x00
            0x005a3317      .byte 0x00
            0x005a3318      .byte 0x00
            0x005a3319      .byte 0x00
            0x005a331a      .byte 0x00
            0x005a331b      .byte 0x00
            0x005a331c      .byte 0x00
            0x005a331d      .byte 0x00
            0x005a331e      .byte 0x00
            0x005a331f      .byte 0x00
            0x005a3320      .byte 0x00
            0x005a3321      .byte 0x00
            0x005a3322      .byte 0x00
            0x005a3323      .byte 0x00
            0x005a3324      .byte 0x00
            0x005a3325      .byte 0x00
            0x005a3326      .byte 0x00
            0x005a3327      .byte 0x02
            0x005a3328      .byte 0x00
            0x005a3329      .byte 0x00
            0x005a332a      .byte 0x3f
            0x005a332b      .byte 0x80
            0x005a332c      .byte 0x00
            0x005a332d      .byte 0x00
            0x005a332e      .byte 0x3f
            0x005a332f      .byte 0x80
            0x005a3330      .byte 0x00
            0x005a3331      .byte 0x00
            0x005a3332      .byte 0x00
            0x005a3333      .byte 0x00
            0x005a3334      .byte 0x00
            0x005a3335      .byte 0x00
            0x005a3336      .byte 0x00
            0x005a3337      .byte 0x00
            0x005a3338      .byte 0x00
            0x005a3339      .byte 0x00
            0x005a333a      .byte 0x3f
            0x005a333b      .byte 0x80
            0x005a333c      .byte 0x00
            0x005a333d      .byte 0x00
            0x005a333e      .byte 0x3f
            0x005a333f      .byte 0x80
            0x005a3340      .byte 0x00
            0x005a3341      .byte 0x00
            0x005a3342      .byte 0x00
            0x005a3343      .byte 0x00
            0x005a3344      .byte 0x00
            0x005a3345      .byte 0x00
            0x005a3346      .byte 0x00
            0x005a3347      .byte 0x00
            0x005a3348      .byte 0x00
            0x005a3349      .byte 0x00
            0x005a334a      .byte 0x00
            0x005a334b      .byte 0x00
            0x005a334c      .byte 0x00
            0x005a334d      .byte 0x00
            0x005a334e      .byte 0x00
            0x005a334f      .byte 0x00
            0x005a3350      .byte 0x00
            0x005a3351      .byte 0x00
            0x005a3352      .byte 0x00
            0x005a3353      .byte 0x00
            0x005a3354      .byte 0x00
            0x005a3355      .byte 0x01
            0x005a3356      .byte 0x00
            0x005a3357      .byte 0x00
            0x005a3358      .byte 0x00
            0x005a3359      .byte 0x00
            0x005a335a      .byte 0x00
            0x005a335b      .byte 0x00
            0x005a335c      .byte 0x00
            0x005a335d      .byte 0x00
            0x005a335e      .byte 0x00
            0x005a335f      .byte 0x00
            0x005a3360      .byte 0x00
            0x005a3361      .byte 0x00
            0x005a3362      .byte 0x00
            0x005a3363      .byte 0x00
            0x005a3364      .byte 0x00
            0x005a3365      .byte 0x00
            0x005a3366      .byte 0x00
            0x005a3367      .byte 0x00
            0x005a3368      .byte 0x02
            0x005a3369      .byte 0xc7
            0x005a336a      .byte 0x01
            0x005a336b      .byte 0xe5
            0x005a336c      .byte 0x03
            0x005a336d      .byte 0x00
            0x005a336e      .byte 0x01
            0x005a336f      .byte 0xe4
            0x005a3370      .byte 0x02
            0x005a3371      .byte 0xbd
            0x005a3372      .byte 0x02
            0x005a3373      .byte 0x3f
            0x005a3374      .byte 0x00
            0x005a3375      .byte 0x02
            0x005a3376      .byte 0x71
            0x005a3377      .byte 0x02
            0x005a3378      .byte 0x00
            0x005a3379      .byte 0x03
            0x005a337a      .byte 0xa9
            0x005a337b      .byte 0x89
            0x005a337c      .byte 0x00
            0x005a337d      .byte 0x04
            0x005a337e      .byte 0xe2
            0x005a337f      .byte 0x10
            0x005a3380      .byte 0x00
            0x005a3381      .byte 0x06
            0x005a3382      .byte 0x1d
            0x005a3383      .byte 0xdc
            0x005a3384      .byte 0x00
            0x005a3385      .byte 0x07
            0x005a3386      .byte 0x57
            0x005a3387      .byte 0x0e
            0x005a3388      .byte 0x00
            0x005a3389      .byte 0x08
            0x005a338a      .byte 0x90
            0x005a338b      .byte 0x42
            0x005a338c      .byte 0x10
            0x005a338d      .byte 0x4d
            0x005a338e      .byte 0xe4
            0x005a338f      .byte 0xe3
            0x005a3390      .byte 0x2a
            0x005a3391      .byte 0xf5
            0x005a3392      .byte 0x74
            0x005a3393      .byte 0xfc
            0x005a3394      .byte 0x31
            0x005a3395      .byte 0xb4
            0x005a3396      .byte 0x09
            0x005a3397      .byte 0x86
            0x005a3398      .byte 0x35
            0x005a3399      .byte 0x21
            0x005a339a      .byte 0xc9
            0x005a339b      .byte 0x34
            0x005a339c      .byte 0x00
            0x005a339d      .byte 0xea
            0x005a339e      .byte 0x3a
            0x005a339f      .byte 0xcb
            0x005a33a0      .byte 0x30
            0x005a33a1      .byte 0x42
            0x005a33a2      .byte 0x8a
            0x005a33a3      .byte 0x19
            0x005a33a4      .byte 0x00
            0x005a33a5      .byte 0x78
            0x005a33a6      .byte 0x02
            0x005a33a7      .byte 0xd8
            0x005a33a8      .byte 0x01
            0x005a33a9      .byte 0xf8
            0x005a33aa      .byte 0x0b
            0x005a33ab      .byte 0x60
            0x005a33ac      .byte 0x01
            0x005a33ad      .byte 0xf8
            0x005a33ae      .byte 0x05
            0x005a33af      .byte 0xb0
            0x005a33b0      .byte 0x07
            0x005a33b1      .byte 0xf8
            0x005a33b2      .byte 0x0b
            0x005a33b3      .byte 0x60
            0x005a33b4      .byte 0x02
            0x005a33b5      .byte 0x4f
            0x005a33b6      .byte 0x4b
            0x005a33b7      .byte 0x02
            0x005a33b8      .byte 0x4f
            0x005a33b9      .byte 0x4b
            0x005a33ba      .byte 0x03
            0x005a33bb      .byte 0x4b
            0x005a33bc      .byte 0x30
            0x005a33bd      .byte 0x2d
            0x005a33be      .byte 0x08
            0x005a33bf     .string "-Result " ; len=8
            0x005a33c7      .byte 0x02
            0x005a33c8      .byte 0x20
            0x005a33c9      .byte 0x28
            0x005a33ca      .byte 0x02
            0x005a33cb      .byte 0x41
            0x005a33cc      .byte 0x58
            0x005a33cd      .byte 0x02
            0x005a33ce      .byte 0x29
            0x005a33cf      .byte 0x20
            0x005a33d0      .byte 0x02
            0x005a33d1      .byte 0x29
            0x005a33d2      .byte 0x20
            0x005a33d3      .byte 0x02
            0x005a33d4      .byte 0x4f
            0x005a33d5      .byte 0x4b
            0x005a33d6      .byte 0x02
            0x005a33d7      .byte 0x44
            0x005a33d8      .byte 0x49
            0x005a33d9      .byte 0x02
            0x005a33da      .byte 0x44
            0x005a33db      .byte 0x49
            0x005a33dc      .byte 0x00
            0x005a33dd      .byte 0x00
            0x005a33de      .byte 0x00
            0x005a33df      .byte 0x00
            0x005a33e0      .byte 0x00
            0x005a33e1      .byte 0x00
            0x005a33e2      .byte 0x00
            0x005a33e3      .byte 0x00
            0x005a33e4      .byte 0x00
            0x005a33e5      .byte 0x00
            0x005a33e6      .byte 0x00
            0x005a33e7      .byte 0x01
            0x005a33e8      .byte 0x2e
            0x005a33e9      .byte 0x01
            0x005a33ea      .byte 0x2e
            0x005a33eb      .byte 0x02
            0x005a33ec      .byte 0x4f
            0x005a33ed      .byte 0x4b
            0x005a33ee      .byte 0x02
            0x005a33ef      .byte 0x44
            0x005a33f0      .byte 0x49
            0x005a33f1      .byte 0x10
            0x005a33f2     .string "Getting vol ptr " ; len=16
            0x005a3402      .byte 0x06
            0x005a3403     .string "Check " ; len=6
            0x005a3409      .byte 0x0d
            0x005a340a     .string " protection. " ; len=13
            0x005a3417      .byte 0x02
            0x005a3418      .byte 0x50
            0x005a3419      .byte 0x52
            0x005a341a      .byte 0x02
            0x005a341b      .byte 0x44
            0x005a341c      .byte 0x49
            0x005a341d      .byte 0x02
            0x005a341e      .byte 0x4f
            0x005a341f      .byte 0x4b
            0x005a3420      .byte 0x15
            0x005a3421     .string "After protection test" ; len=21
            0x005a3436      .byte 0x06
            0x005a3437     .string "Check " ; len=6
            0x005a343d      .byte 0x0a
            0x005a343e     .string " mounted. " ; len=10
            0x005a3448      .byte 0x02
            0x005a3449      .byte 0x4f
            0x005a344a      .byte 0x4b
            0x005a344b      .byte 0x02
            0x005a344c      .byte 0x44
            0x005a344d      .byte 0x49
            0x005a344e      .byte 0x13
            0x005a344f     .string "After mounting test" ; len=19
            0x005a3462      .byte 0x04
            0x005a3463      .byte 0x47
            0x005a3464      .byte 0x65
            0x005a3465      .byte 0x74
            0x005a3466      .byte 0x20
            0x005a3467      .byte 0x06
            0x005a3468     .string " size." ; len=6
            0x005a346e      .byte 0x08
            0x005a346f     .string "Getting " ; len=8
            0x005a3477      .byte 0x10
            0x005a3478     .string " size and aspect" ; len=16
            0x005a3488      .byte 0x10
            0x005a3489      .byte 0x68
            0x005a348a      .byte 0x10
            0x005a348b      .byte 0x68
            0x005a348c      .byte 0x20
            0x005a348d      .byte 0xd0
            0x005a348e      .byte 0x20
            0x005a348f      .byte 0xd0
            0x005a3490      .byte 0x09
            0x005a3491     .string " xy size " ; len=9
            0x005a349a      .byte 0x02
            0x005a349b      .byte 0x2c
            0x005a349c      .byte 0x20
            0x005a349d      .byte 0x08
            0x005a349e     .string " planes." ; len=8
            0x005a34a6      .byte 0x08
            0x005a34a7     .string " aspect " ; len=8
            0x005a34af      .byte 0x0c
            0x005a34b0     .string ", no resize " ; len=12
            0x005a34bc      .byte 0x05
            0x005a34bd     .string "Zero " ; len=5
            0x005a34c2      .byte 0x13
            0x005a34c3     .string " aspect changed to " ; len=19
            0x005a34d6      .byte 0x09
            0x005a34d7     .string "Wipe gap " ; len=9
            0x005a34e0      .byte 0x07
            0x005a34e1     .string ", load " ; len=7
            0x005a34e8      .byte 0x07
            0x005a34e9     .string ", save " ; len=7
            0x005a34f0      .byte 0x18
            0x005a34f1     .string "wipe difference between " ; len=24
            0x005a3509      .byte 0x05
            0x005a350a     .string " and " ; len=5
            0x005a350f      .byte 0x05
            0x005a3510     .string ", in " ; len=5
            0x005a3515      .byte 0x02
            0x005a3516      .byte 0x4f
            0x005a3517      .byte 0x4b
            0x005a3518      .byte 0x01
            0x005a3519      .byte 0x00
            0x005a351a      .byte 0x18
            0x005a351b      .byte 0x00
            0x005a351c      .byte 0x01
            0x005a351d      .byte 0x00
            0x005a351e      .byte 0x00
            0x005a351f      .byte 0x00
            0x005a3520      .byte 0x00
            0x005a3521      .byte 0x00
            0x005a3522      .byte 0x00
            0x005a3523      .byte 0x00
            0x005a3524      .byte 0x00
            0x005a3525      .byte 0x00
            0x005a3526      .byte 0x00
            0x005a3527      .byte 0x08
            0x005a3528      .byte 0x00
            0x005a3529      .byte 0x84
            0x005a352a      .byte 0x0a
            0x005a352b     .string "copy type " ; len=10
            0x005a3535      .byte 0x0a
            0x005a3536     .string ", load at " ; len=10
            0x005a3540      .byte 0x14
            0x005a3541     .string ", into brush store, " ; len=20
            0x005a3555      .byte 0x14
            0x005a3556     .string "Loading src plane(s)" ; len=20
            0x005a356a      .byte 0x10
            0x005a356b     .string "Size loaded (x) " ; len=16
            0x005a357b      .byte 0x18
            0x005a357c     .string " doesnt match file size " ; len=24
            0x005a3594      .byte 0x02
            0x005a3595      .byte 0x53
            0x005a3596      .byte 0x45
            0x005a3597      .byte 0x10
            0x005a3598     .string "Size loaded (y) " ; len=16
            0x005a35a8      .byte 0x18
            0x005a35a9     .string " doesnt match file size " ; len=24
            0x005a35c1      .byte 0x02
            0x005a35c2      .byte 0x53
            0x005a35c3      .byte 0x45
            0x005a35c4      .byte 0x18
            0x005a35c5     .string "Initial copy store area " ; len=24
            0x005a35dd      .byte 0x2a
            0x005a35de     .string "Wipe other plane. brush store pic or sten." ; len=42
            0x005a3608      .byte 0x18
            0x005a3609      .byte 0x00
            0x005a360a      .byte 0x01
            0x005a360b      .byte 0x00
            0x005a360c      .byte 0x00
            0x005a360d      .byte 0x00
            0x005a360e      .byte 0x00
            0x005a360f      .byte 0x00
            0x005a3610      .byte 0x00
            0x005a3611      .byte 0x00
            0x005a3612      .byte 0x00
            0x005a3613      .byte 0x00
            0x005a3614      .byte 0x1f
            0x005a3615     .string "Size expected after correction " ; len=31
            0x005a3634      .byte 0x19
            0x005a3635     .string "Load point safety margin " ; len=25
            0x005a364e      .byte 0x0d
            0x005a364f     .string "Will size to " ; len=13
            0x005a365c      .byte 0x37
            0x005a365d     .string "Hosepiping copy_store_area. Shouldn't have to do this !" ; len=55
            0x005a3694      .byte 0x1d
            0x005a3695     .string "Copy store area after sizing " ; len=29
            0x005a36b2      .byte 0x0b
            0x005a36b3     .string "File size (" ; len=11
            0x005a36be      .byte 0x13
            0x005a36bf     .string "), save area size (" ; len=19
            0x005a36d2      .byte 0x15
            0x005a36d3     .string ") Adjust to file size" ; len=21
            0x005a36e8      .byte 0x1b
            0x005a36e9     .string "Copy store area centred to " ; len=27
            0x005a3704      .byte 0x25
            0x005a3705     .string "Not hosepiped. copy into other store." ; len=37
            0x005a372a      .byte 0x16
            0x005a372b     .string "Basic copy from point " ; len=22
            0x005a3741      .byte 0x0a
            0x005a3742     .string ", to area " ; len=10
            0x005a374c      .byte 0x0b
            0x005a374d     .string "Adjustment " ; len=11
            0x005a3758      .byte 0x02
            0x005a3759      .byte 0x2c
            0x005a375a      .byte 0x20
            0x005a375b      .byte 0x11
            0x005a375c     .string "Copy brush store " ; len=17
            0x005a376d      .byte 0x07
            0x005a376e     .string " point " ; len=7
            0x005a3775      .byte 0x0d
            0x005a3776     .string " to s2, area " ; len=13
            0x005a3783      .byte 0x13
            0x005a3784     .string "Offset source area " ; len=19
            0x005a3797      .byte 0x08
            0x005a3798     .string "Copy s2 " ; len=8
            0x005a37a0      .byte 0x07
            0x005a37a1     .string " point " ; len=7
            0x005a37a8      .byte 0x0c
            0x005a37a9     .string " to ds area " ; len=12
            0x005a37b5      .byte 0x0d
            0x005a37b6     .string "Hosepiped ok." ; len=13
            0x005a37c3      .byte 0x0c
            0x005a37c4     .string "Saving area " ; len=12
            0x005a37d0      .byte 0x0d
            0x005a37d1     .string " image_in_s2 " ; len=13
            0x005a37de      .byte 0x02
            0x005a37df      .byte 0x2c
            0x005a37e0      .byte 0x20
            0x005a37e1      .byte 0x13
            0x005a37e2     .string "Saving dst plane(s)" ; len=19
            0x005a37f5      .byte 0x02
            0x005a37f6      .byte 0x4f
            0x005a37f7      .byte 0x4b
            0x005a37f8      .byte 0x16
            0x005a37f9     .string "Encrypting byte chunk " ; len=22
            0x005a380f      .byte 0x13
            0x005a3810     .string "Copying byte chunk " ; len=19
            0x005a3823      .byte 0x12
            0x005a3824     .string "Reading byte chunk" ; len=18
            0x005a3836      .byte 0x12
            0x005a3837     .string "Writing byte chunk" ; len=18
            0x005a3849      .byte 0x0b
            0x005a384a     .string "Panel data." ; len=11
            0x005a3855      .byte 0x12
            0x005a3856     .string "Getting panel data" ; len=18
            0x005a3868      .byte 0x1a
            0x005a3869     .string "Got panel data :- prewipe " ; len=26
            0x005a3883      .byte 0x00
            0x005a3884      .byte 0x03
            0x005a3885      .byte 0x00
            0x005a3886      .byte 0x00
            0x005a3887      .byte 0x00
            0x005a3888      .byte 0x00
            0x005a3889      .byte 0x00
            0x005a388a      .byte 0x00
            0x005a388b      .byte 0x00
            0x005a388c      .byte 0x00
            0x005a388d      .byte 0x00
            0x005a388e      .byte 0x00
            0x005a388f      .byte 0x00
            0x005a3890      .byte 0x00
            0x005a3891      .byte 0x00
            0x005a3892      .byte 0x00
            0x005a3893      .byte 0x00
            0x005a3894      .byte 0x00
            0x005a3895      .byte 0x00
            0x005a3896      .byte 0x00
            0x005a3897      .byte 0x00
            0x005a3898      .byte 0x00
            0x005a3899      .byte 0x00
            0x005a389a      .byte 0x00
            0x005a389b      .byte 0x00
            0x005a389c      .byte 0x00
            0x005a389d      .byte 0x00
            0x005a389e      .byte 0x00
            0x005a389f      .byte 0x00
            0x005a38a0      .byte 0x00
            0x005a38a1      .byte 0x00
            0x005a38a2      .byte 0x00
            0x005a38a3      .byte 0x00
            0x005a38a4     .string "\"Panel data adjusted to :- prewipe " ; len=35
            0x005a38c7      .byte 0x0f
            0x005a38c8     .string "Set panel data." ; len=15
            0x005a38d7      .byte 0x12
            0x005a38d8     .string "Setting panel data" ; len=18
            0x005a38ea      .byte 0x02
            0x005a38eb      .byte 0x4f
            0x005a38ec      .byte 0x4b
            0x005a38ed      .byte 0x02
            0x005a38ee      .byte 0x4f
            0x005a38ef      .byte 0x4b
            0x005a38f0      .byte 0x1e
            0x005a38f1     .string " copying pic crop data, scale " ; len=30
            0x005a390f      .byte 0x0b
            0x005a3910     .string "  src size " ; len=11
            0x005a391b      .byte 0x0c
            0x005a391c     .string "  dest size " ; len=12
            0x005a3928      .byte 0x12
            0x005a3929     .string "writing crop data " ; len=18
            0x005a393b      .byte 0x02
            0x005a393c      .byte 0x4f
            0x005a393d      .byte 0x4b
            0x005a393e      .byte 0x10
            0x005a393f     .string "Get cutout data." ; len=16
            0x005a394f      .byte 0x13
            0x005a3950     .string "Getting cutout data" ; len=19
            0x005a3963      .byte 0x1a
            0x005a3964     .string "Got cutout data :- origin " ; len=26
            0x005a397e      .byte 0x06
            0x005a397f     .string ", ref " ; len=6
            0x005a3985      .byte 0x22
            0x005a3986     .string "Cutout data adjusted to :- origin " ; len=34
            0x005a39a8      .byte 0x06
            0x005a39a9     .string ", ref " ; len=6
            0x005a39af      .byte 0x22
            0x005a39b0     .string "Cutout data aspected to :- origin " ; len=34
            0x005a39d2      .byte 0x06
            0x005a39d3     .string ", ref " ; len=6
            0x005a39d9      .byte 0x10
            0x005a39da     .string "Set cutout data." ; len=16
            0x005a39ea      .byte 0x13
            0x005a39eb     .string "Setting cutout data" ; len=19
            0x005a39fe      .byte 0x0a
            0x005a39ff     .string "Grid data." ; len=10
            0x005a3a09      .byte 0x0e
            0x005a3a0a     .string "Sequence data." ; len=14
            0x005a3a18      .byte 0x0a
            0x005a3a19     .string "Clip data." ; len=10
            0x005a3a23      .byte 0x0a
            0x005a3a24     .string "Font data." ; len=10
            0x005a3a2e      .byte 0x09
            0x005a3a2f     .string "Get data." ; len=9
            0x005a3a38      .byte 0x0c
            0x005a3a39     .string "Getting data" ; len=12
            0x005a3a45      .byte 0x1f
            0x005a3a46     .string "Font master data got. fontnum: " ; len=31
            0x005a3a65      .byte 0x0c
            0x005a3a66     .string ", Password \"" ; len=12
            0x005a3a72      .byte 0x0c
            0x005a3a73     .string "Getting data" ; len=12
            0x005a3a7f      .byte 0x21
            0x005a3a80     .string "Font family data got family num: " ; len=33
            0x005a3aa1      .byte 0x09
            0x005a3aa2     .string ", result " ; len=9
            0x005a3aab      .byte 0x02
            0x005a3aac     .string "AL" ; len=2
            0x005a3aae      .byte 0x30
            0x005a3aaf     .string "Changing font password to user supplied password" ; len=48
            0x005a3adf      .byte 0x09
            0x005a3ae0     .string "Set data." ; len=9
            0x005a3ae9      .byte 0x0c
            0x005a3aea     .string "Setting data" ; len=12
            0x005a3af6      .byte 0x0c
            0x005a3af7     .string "Setting data" ; len=12
            0x005a3b03      .byte 0x09
            0x005a3b04     .string "Get data." ; len=9
            0x005a3b0d      .byte 0x0c
            0x005a3b0e     .string "Getting data" ; len=12
            0x005a3b1a      .byte 0x09
            0x005a3b1b     .string "Set data." ; len=9
            0x005a3b24      .byte 0x0c
            0x005a3b25     .string "Setting data" ; len=12
            0x005a3b31      .byte 0x0a
            0x005a3b32     .string "Desk data." ; len=10
            0x005a3b3c      .byte 0x09
            0x005a3b3d     .string "Get data." ; len=9
            0x005a3b46      .byte 0x0c
            0x005a3b47     .string "Getting data" ; len=12
            0x005a3b53      .byte 0x09
            0x005a3b54     .string "Set data." ; len=9
            0x005a3b5d      .byte 0x0c
            0x005a3b5e     .string "Setting data" ; len=12
            0x005a3b6a      .byte 0x15
            0x005a3b6b     .string "No extra data to copy" ; len=21
            0x005a3b80      .byte 0x14
            0x005a3b81     .string "? unknown file type " ; len=20
            0x005a3b95      .byte 0x08
            0x005a3b96     .string " to copy" ; len=8
            0x005a3b9e      .byte 0x02
            0x005a3b9f      .byte 0x42
            0x005a3ba0      .byte 0x46
            0x005a3ba1      .byte 0x02
            0x005a3ba2      .byte 0x4f
            0x005a3ba3      .byte 0x4b
            0x005a3ba4      .byte 0x02
            0x005a3ba5      .byte 0x48
            0x005a3ba6      .byte 0x46
            0x005a3ba7      .byte 0x1b
            0x005a3ba8     .string "After NEW( read_chunk_ptr )" ; len=27
            0x005a3bc3      .byte 0x02
            0x005a3bc4      .byte 0x48
            0x005a3bc5      .byte 0x46
            0x005a3bc6      .byte 0x1c
            0x005a3bc7     .string "After NEW( write_chunk_ptr )" ; len=28
            0x005a3be3      .byte 0x0a
            0x005a3be4     .string "should be " ; len=10
            0x005a3bee      .byte 0x08
            0x005a3bef     .string " chunks." ; len=8
            0x005a3bf7      .byte 0x16
            0x005a3bf8     .string "copying complete chunk" ; len=22
            0x005a3c0e      .byte 0x15
            0x005a3c0f     .string "copying partial chunk" ; len=21
            0x005a3c24      .byte 0x1a
            0x005a3c25     .string "File ptrs changed - src : " ; len=26
            0x005a3c3f      .byte 0x08
            0x005a3c40     .string ", dst : " ; len=8
            0x005a3c48      .byte 0x09
            0x005a3c49     .string "copy file" ; len=9
            0x005a3c52      .byte 0x02
            0x005a3c53      .byte 0x4f
            0x005a3c54      .byte 0x4b
            0x005a3c55      .byte 0x12
            0x005a3c56     .string "k-copy-file. magn " ; len=18
            0x005a3c68      .byte 0x15
            0x005a3c69     .string "From gen src file ptr" ; len=21
            0x005a3c7e      .byte 0x15
            0x005a3c7f     .string "From gen dst file ptr" ; len=21
            0x005a3c94      .byte 0x0d
            0x005a3c95     .string "Get src name." ; len=13
            0x005a3ca2      .byte 0x10
            0x005a3ca3     .string "Getting src name" ; len=16
            0x005a3cb3      .byte 0x06
            0x005a3cb4     .string "source" ; len=6
            0x005a3cba      .byte 0x18
            0x005a3cbb     .string "getting source file data" ; len=24
            0x005a3cd3      .byte 0x25
            0x005a3cd4     .string "k_copy_file used for presenter stack " ; len=37
            0x005a3cf9      .byte 0x20
            0x005a3cfa     .string "copy presenter stack unnumbered " ; len=32
            0x005a3d1a      .byte 0x02
            0x005a3d1b      .byte 0x4f
            0x005a3d1c      .byte 0x4b
            0x005a3d1d      .byte 0x18
            0x005a3d1e     .string "result from copy_stack: " ; len=24
            0x005a3d36      .byte 0x00
            0x005a3d37      .byte 0x00
            0x005a3d38      .byte 0x00
            0x005a3d39      .byte 0x00
            0x005a3d3a      .byte 0x00
            0x005a3d3b      .byte 0x00
            0x005a3d3c      .byte 0x00
            0x005a3d3d      .byte 0x00
            0x005a3d3e      .byte 0x00
            0x005a3d3f      .byte 0x00
            0x005a3d40      .byte 0x02
            0x005a3d41      .byte 0x41
            0x005a3d42      .byte 0x58
            0x005a3d43      .byte 0x04
            0x005a3d44      .byte 0x64
            0x005a3d45      .byte 0x65
            0x005a3d46      .byte 0x73
            0x005a3d47      .byte 0x74
            0x005a3d48      .byte 0x16
            0x005a3d49     .string "getting dest file data" ; len=22
            0x005a3d5f      .byte 0x00
            0x005a3d60      .byte 0x00
            0x005a3d61      .byte 0x07
            0x005a3d62      .byte 0x02
            0x005a3d63      .byte 0x00
            0x005a3d64      .byte 0x08
            0x005a3d65      .byte 0x00
            0x005a3d66      .byte 0x04
            0x005a3d67      .byte 0x00
            0x005a3d68      .byte 0x00
            0x005a3d69      .byte 0x00
            0x005a3d6a      .byte 0x01
            0x005a3d6b      .byte 0x00
            0x005a3d6c      .byte 0x1f
            0x005a3d6d     .string "Correcting aspect on file type " ; len=31
            0x005a3d8c      .byte 0x14
            0x005a3d8d     .string "Not changing aspect." ; len=20
            0x005a3da1      .byte 0x0c
            0x005a3da2     .string "real_aspect " ; len=12
            0x005a3dae      .byte 0x02
            0x005a3daf      .byte 0x54
            0x005a3db0      .byte 0x53
            0x005a3db1      .byte 0x19
            0x005a3db2     .string "Checking extra data space" ; len=25
            0x005a3dcb      .byte 0x21
            0x005a3dcc     .string "NOT Comparing corrected src size " ; len=33
            0x005a3ded      .byte 0x02
            0x005a3dee      .byte 0x2c
            0x005a3def      .byte 0x20
            0x005a3df0      .byte 0x0b
            0x005a3df1     .string ", dst size " ; len=11
            0x005a3dfc      .byte 0x02
            0x005a3dfd      .byte 0x50
            0x005a3dfe      .byte 0x45
            0x005a3dff      .byte 0x0f
            0x005a3e00     .string "Checking planes" ; len=15
            0x005a3e0f      .byte 0x0b
            0x005a3e10     .string "Encrypting " ; len=11
            0x005a3e1b      .byte 0x11
            0x005a3e1c     .string "Copy extra bytes." ; len=17
            0x005a3e2d      .byte 0x12
            0x005a3e2e     .string "copying byte data " ; len=18
            0x005a3e40      .byte 0x05
            0x005a3e41     .string "Copy " ; len=5
            0x005a3e46      .byte 0x0f
            0x005a3e47     .string " plane file to " ; len=15
            0x005a3e56      .byte 0x0c
            0x005a3e57     .string " plane file." ; len=12
            0x005a3e63      .byte 0x17
            0x005a3e64     .string "transferring video data" ; len=23
            0x005a3e7b      .byte 0x0e
            0x005a3e7c     .string "Set dest name." ; len=14
            0x005a3e8a      .byte 0x0c
            0x005a3e8b     .string "Setting name" ; len=12
            0x005a3e97      .byte 0x0d
            0x005a3e98     .string "Getting owner" ; len=13
            0x005a3ea5      .byte 0x0d
            0x005a3ea6     .string "Setting owner" ; len=13
            0x005a3eb3      .byte 0x12
            0x005a3eb4     .string "Getting categories" ; len=18
            0x005a3ec6      .byte 0x12
            0x005a3ec7     .string "Setting categories" ; len=18
            0x005a3ed9      .byte 0x13
            0x005a3eda     .string "Getting description" ; len=19
            0x005a3eed      .byte 0x13
            0x005a3eee     .string "Setting description" ; len=19
            0x005a3f01      .byte 0x19
            0x005a3f02     .string "transferring header data " ; len=25
            0x005a3f1b      .byte 0x20
            0x005a3f1c     .string "Leaving k-copy-file with result " ; len=32
            0x005a3f3c      .byte 0x11
            0x005a3f3d     .string "leaving copy file" ; len=17
            0x005a3f4e      .byte 0x00
            0x005a3f4f      .byte 0x07
            0x005a3f50      .byte 0xf2
            0x005a3f51      .byte 0xff
            0x005a3f52      .byte 0x0f
            0x005a3f53      .byte 0x3c
            0x005a3f54      .byte 0x00
            0x005a3f55      .byte 0x00
            0x005a3f56      .byte 0x00
            0x005a3f57      .byte 0x00
            0x005a3f58      .byte 0x39
            0x005a3f59      .byte 0x00
            0x005a3f5a     .string "#Size from brush store into store 2." ; len=36
            0x005a3f7e      .byte 0x18
            0x005a3f7f     .string "Size into store 2. area " ; len=24
            0x005a3f97      .byte 0x06
            0x005a3f98     .string ". pos " ; len=6
            0x005a3f9e      .byte 0x0e
            0x005a3f9f     .string "Aspect change " ; len=14
            0x005a3fad      .byte 0x18
            0x005a3fae     .string "Save from store 2. area " ; len=24
            0x005a3fc6      .byte 0x02
            0x005a3fc7      .byte 0x4f
            0x005a3fc8      .byte 0x4b
            0x005a3fc9      .byte 0x04
            0x005a3fca      .byte 0x73
            0x005a3fcb      .byte 0x61
            0x005a3fcc      .byte 0x76
            0x005a3fcd      .byte 0x65
            0x005a3fce      .byte 0x0d
            0x005a3fcf     .string "k_save, type " ; len=13
            0x005a3fdc      .byte 0x06
            0x005a3fdd     .string " area " ; len=6
            0x005a3fe3      .byte 0x14
            0x005a3fe4     .string "Getting file pointer" ; len=20
            0x005a3ff8      .byte 0x09
            0x005a3ff9     .string "save file" ; len=9
            0x005a4002      .byte 0x11
            0x005a4003     .string "Getting file data" ; len=17
            0x005a4014      .byte 0x3f
            0x005a4015     .string "File size and save area size don't match. Cropping to file size" ; len=63
            0x005a4054      .byte 0x18
            0x005a4055     .string "Cropping y to file size." ; len=24
            0x005a406d      .byte 0x1a
            0x005a406e     .string "Can't crop y to save area." ; len=26
            0x005a4088      .byte 0x18
            0x005a4089     .string "Cropping x to file size." ; len=24
            0x005a40a1      .byte 0x1a
            0x005a40a2     .string "Can't crop x to save area." ; len=26
            0x005a40bc      .byte 0x11
            0x005a40bd     .string "area adjusted to " ; len=17
            0x005a40ce      .byte 0x21
            0x005a40cf     .string "k_save error - xlen not hosepiped" ; len=33
            0x005a40f0      .byte 0x0b
            0x005a40f1     .string "Direct save" ; len=11
            0x005a40fc      .byte 0x01
            0x005a40fd      .byte 0x16
            0x005a40fe     .string "Already in brush store" ; len=22
            0x005a4114      .byte 0x15
            0x005a4115     .string "Copy into brush store" ; len=21
            0x005a412a      .byte 0x05
            0x005a412b     .string "Copy " ; len=5
            0x005a4130      .byte 0x09
            0x005a4131     .string " to area " ; len=9
            0x005a413a      .byte 0x16
            0x005a413b     .string "Hosepiping multi-copy." ; len=22
            0x005a4151      .byte 0x1e
            0x005a4152     .string "Save via ds and s2 for sizing." ; len=30
            0x005a4170      .byte 0x0a
            0x005a4171     .string "Save area " ; len=10
            0x005a417b      .byte 0x07
            0x005a417c     .string "Saving " ; len=7
            0x005a4183      .byte 0x0c
            0x005a4184     .string "leaving save" ; len=12
            0x005a4190      .byte 0x02
            0x005a4191      .byte 0x4f
            0x005a4192      .byte 0x4b
            0x005a4193      .byte 0x0c
            0x005a4194     .string "Getting fid." ; len=12
            0x005a41a0      .byte 0x16
            0x005a41a1     .string "Saving to copied file." ; len=22
            0x005a41b7      .byte 0x14
            0x005a41b8     .string "fix diskstore crops " ; len=20
            0x005a41cc      .byte 0x00
            0x005a41cd      .byte 0x01
            0x005a41ce      .byte 0x00
            0x005a41cf      .byte 0x01
            0x005a41d0      .byte 0x10
            0x005a41d1     .string "calc_magn. area " ; len=16
            0x005a41e1      .byte 0x07
            0x005a41e2     .string ", mode " ; len=7
            0x005a41e9      .byte 0x07
            0x005a41ea     .string "f size " ; len=7
            0x005a41f1      .byte 0x09
            0x005a41f2     .string ", aspect " ; len=9
            0x005a41fb      .byte 0x0e
            0x005a41fc     .string ", real aspect " ; len=14
            0x005a420a      .byte 0x04
            0x005a420b      .byte 0x6d
            0x005a420c      .byte 0x61
            0x005a420d      .byte 0x67
            0x005a420e      .byte 0x20
            0x005a420f      .byte 0x00
            0x005a4210      .byte 0x0c
            0x005a4211      .byte 0x00
            0x005a4212      .byte 0x00
            0x005a4213      .byte 0x00
            0x005a4214      .byte 0x00
            0x005a4215      .byte 0x00
            0x005a4216      .byte 0x00
            0x005a4217      .byte 0x00
            0x005a4218      .byte 0x00
            0x005a4219      .byte 0x00
            0x005a421a      .byte 0x00
            0x005a421b      .byte 0x00
            0x005a421c     .string "0fit-view called with type not pic, sten, cutout." ; len=49
            0x005a424d      .byte 0x00
            0x005a424e      .byte 0x26
            0x005a424f      .byte 0x04
            0x005a4250      .byte 0x20
            0x005a4251      .byte 0x2d
            0x005a4252      .byte 0x3e
            0x005a4253      .byte 0x20
            0x005a4254      .byte 0x08
            0x005a4255      .byte 0x01
            0x005a4256      .byte 0x00
            0x005a4257      .byte 0x00
            0x005a4258      .byte 0x00
            0x005a4259      .byte 0x00
            0x005a425a      .byte 0x00
            0x005a425b      .byte 0x80
            0x005a425c      .byte 0x0a
            0x005a425d      .byte 0xf0
            0x005a425e      .byte 0x08
            0x005a425f      .byte 0x20
            0x005a4260      .byte 0x02
            0x005a4261      .byte 0x4f
            0x005a4262      .byte 0x4b
            0x005a4263      .byte 0x04
            0x005a4264      .byte 0x6c
            0x005a4265      .byte 0x6f
            0x005a4266      .byte 0x61
            0x005a4267      .byte 0x64
            0x005a4268      .byte 0x0d
            0x005a4269     .string "k_load, type " ; len=13
            0x005a4276      .byte 0x05
            0x005a4277     .string ", at " ; len=5
            0x005a427c      .byte 0x14
            0x005a427d     .string "Getting file pointer" ; len=20
            0x005a4291      .byte 0x04
            0x005a4292      .byte 0x66
            0x005a4293      .byte 0x69
            0x005a4294      .byte 0x64
            0x005a4295      .byte 0x20
            0x005a4296      .byte 0x02
            0x005a4297      .byte 0x44
            0x005a4298      .byte 0x49
            0x005a4299      .byte 0x13
            0x005a429a     .string "Getting vol pointer" ; len=19
            0x005a42ad      .byte 0x0b
            0x005a42ae     .string "browse file" ; len=11
            0x005a42b9      .byte 0x09
            0x005a42ba     .string "load file" ; len=9
            0x005a42c3      .byte 0x02
            0x005a42c4      .byte 0x4f
            0x005a42c5      .byte 0x4b
            0x005a42c6      .byte 0x04
            0x005a42c7      .byte 0x63
            0x005a42c8      .byte 0x6c
            0x005a42c9      .byte 0x69
            0x005a42ca      .byte 0x70
            0x005a42cb      .byte 0x08
            0x005a42cc     .string "Getting " ; len=8
            0x005a42d4      .byte 0x05
            0x005a42d5     .string " data" ; len=5
            0x005a42da      .byte 0x3f
            0x005a42db      .byte 0x80
            0x005a42dc      .byte 0x00
            0x005a42dd      .byte 0x00
            0x005a42de      .byte 0x3f
            0x005a42df      .byte 0x80
            0x005a42e0      .byte 0x00
            0x005a42e1      .byte 0x00
            0x005a42e2      .byte 0x0c
            0x005a42e3      .byte 0x00
            0x005a42e4      .byte 0x00
            0x005a42e5      .byte 0x00
            0x005a42e6      .byte 0x02
            0x005a42e7      .byte 0x00
            0x005a42e8      .byte 0x08
            0x005a42e9      .byte 0x00
            0x005a42ea      .byte 0x00
            0x005a42eb      .byte 0x40
            0x005a42ec      .byte 0x00
            0x005a42ed      .byte 0x00
            0x005a42ee      .byte 0x00
            0x005a42ef      .byte 0x00
            0x005a42f0      .byte 0x0e
            0x005a42f1      .byte 0x01
            0x005a42f2      .byte 0x00
            0x005a42f3      .byte 0x00
            0x005a42f4      .byte 0x0c
            0x005a42f5      .byte 0x00
            0x005a42f6      .byte 0x00
            0x005a42f7      .byte 0x00
            0x005a42f8      .byte 0x00
            0x005a42f9      .byte 0x00
            0x005a42fa      .byte 0x00
            0x005a42fb      .byte 0x00
            0x005a42fc      .byte 0x00
            0x005a42fd      .byte 0x00
            0x005a42fe      .byte 0x00
            0x005a42ff      .byte 0x00
            0x005a4300      .byte 0x1a
            0x005a4301     .string "aspect or size correction " ; len=26
            0x005a431b      .byte 0x0a
            0x005a431c     .string ", dst asp " ; len=10
            0x005a4326      .byte 0x0a
            0x005a4327     .string ", src asp " ; len=10
            0x005a4331      .byte 0x04
            0x005a4332      .byte 0x6d
            0x005a4333      .byte 0x61
            0x005a4334      .byte 0x67
            0x005a4335      .byte 0x20
            0x005a4336      .byte 0x06
            0x005a4337     .string ", ang " ; len=6
            0x005a433d      .byte 0x0a
            0x005a433e     .string ", asp mag " ; len=10
            0x005a4348      .byte 0x0a
            0x005a4349     .string ", asp ang " ; len=10
            0x005a4353      .byte 0x27
            0x005a4354     .string "correcting aspect or size while loading" ; len=39
            0x005a437b      .byte 0x02
            0x005a437c      .byte 0x54
            0x005a437d      .byte 0x42
            0x005a437e      .byte 0x0e
            0x005a437f      .byte 0x01
            0x005a4380      .byte 0x00
            0x005a4381      .byte 0x00
            0x005a4382      .byte 0x31
            0x005a4383      .byte 0x00
            0x005a4384      .byte 0x00
            0x005a4385      .byte 0x00
            0x005a4386      .byte 0x0e
            0x005a4387      .byte 0x01
            0x005a4388      .byte 0x00
            0x005a4389      .byte 0x00
            0x005a438a      .byte 0x07
            0x005a438b     .string "Loading" ; len=7
            0x005a4392      .byte 0x19
            0x005a4393     .string "k_load - size mismatch - " ; len=25
            0x005a43ac      .byte 0x0b
            0x005a43ad     .string " loaded as " ; len=11
            0x005a43b8      .byte 0x12
            0x005a43b9     .string "Load via diskstore" ; len=18
            0x005a43cb      .byte 0x34
            0x005a43cc     .string "k_load - unable to allocate disk unsized cache size " ; len=52
            0x005a4400      .byte 0x03
            0x005a4401      .byte 0x00
            0x005a4402      .byte 0x00
            0x005a4403      .byte 0x00
            0x005a4404      .byte 0x00
            0x005a4405      .byte 0x00
            0x005a4406      .byte 0x00
            0x005a4407      .byte 0x00
            0x005a4408      .byte 0x00
            0x005a4409      .byte 0x00
            0x005a440a      .byte 0x00
            0x005a440b      .byte 0x00
            0x005a440c      .byte 0x0b
            0x005a440d     .string "k1_load at " ; len=11
            0x005a4418      .byte 0x02
            0x005a4419      .byte 0x4f
            0x005a441a      .byte 0x4b
            0x005a441b      .byte 0x19
            0x005a441c     .string "k_load - using disk cache" ; len=25
            0x005a4435      .byte 0x1c
            0x005a4436     .string "Loading file into disk store" ; len=28
            0x005a4452      .byte 0x0c
            0x005a4453     .string "Loaded size " ; len=12
            0x005a445f      .byte 0x0c
            0x005a4460     .string "Size diff - " ; len=12
            0x005a446c      .byte 0x06
            0x005a446d     .string ", got " ; len=6
            0x005a4473      .byte 0x1a
            0x005a4474     .string "Changing disk aspect from " ; len=26
            0x005a448e      .byte 0x05
            0x005a448f     .string ", to " ; len=5
            0x005a4494      .byte 0x0c
            0x005a4495      .byte 0x0b
            0x005a4496     .string "Sized area " ; len=11
            0x005a44a1      .byte 0x0c
            0x005a44a2     .string "leaving load" ; len=12
            0x005a44ae      .byte 0x03
            0x005a44af      .byte 0x1f
            0x005a44b0     .string "--- K05_purge - releasing heap " ; len=31
            0x005a44cf      .byte 0x1e
            0x005a44d0     .string "PAINTBOX                      " ; len=30
            0x005a44ee      .byte 0x00
            0x005a44ef      .byte 0x00
            0x005a44f0      .byte 0x00
            0x005a44f1      .byte 0x00
            0x005a44f2      .byte 0x00
            0x005a44f3      .byte 0x00
            0x005a44f4      .byte 0x00
            0x005a44f5      .byte 0x00
            0x005a44f6      .byte 0x00
            0x005a44f7      .byte 0x00
            ; XREFS(47)
 298: K05_LOADSAVE.warn_if_fail ();
           ; var int32_t var_8h @ a7+0x8
           ; var int32_t var_ah @ a7+0xa
           0x005a44f8      4e56feda       link.w a6, 0xfeda
           0x005a44fc      bfd5           cmpa.l (a5), a7
       < 0x005a44fe      6206           bhi.b 0x5a4506
          0x005a4500      44fc0002       move.w 0x2, ccr
          0x005a4504      4e76           trapv
       > 0x005a4506      defc0124       adda.w 0x124, a7
           0x005a450a      48e7c0e0       movem.l d0-d1/a0-a2, -(a7)
           0x005a450e      41f9004047ea   lea.l p_wts_o, a0
           0x005a4514      43ee0008       lea.l 0x8(a6), a1
           0x005a4518      45f80002       lea.l 0x2, a2
           0x005a451c      720c           moveq 0xc, d1
           0x005a451e      422e010a       clr.b 0x10a(a6)
           0x005a4522      1011           move.b (a1), d0
           0x005a4524      b03aee8f       cmp.b 0x5a33b5(pc), d0
       < 0x005a4528      6608           bne.b 0x5a4532
          0x005a452a      102e0009       move.b 0x9(a6), d0
          0x005a452e      b03aee86       cmp.b 0x5a33b6(pc), d0
      > 0x005a4532      6704           beq.b 0x5a4538
          0x005a4534      522e010a       addq.b 0x1, 0x10a(a6)
      > 0x005a4538      3011           move.w (a1), d0
           0x005a453a      b07aee7c       cmp.w 0x5a33b8(pc), d0
       < 0x005a453e      670000da       beq.w 0x5a461a
          0x005a4542      554f           subq.w 0x2, a7
          0x005a4544      1f3c001f       move.b 0x1f, -(a7)
          0x005a4548      4eb900598cca   jsr K01_DEBUG.k01_debug
          0x005a454e      544f           addq.w 0x2, a7
          0x005a4550      4a1f           tst.b (a7)+
      < 0x005a4552      670000c6       beq.w 0x5a461a
         0x005a4556      487aee63       pea.l 0x5a33bb(pc)
         0x005a455a      48780003       pea.l 0x3
         0x005a455e      2f17           move.l (a7), -(a7)
         0x005a4560      4e90           jsr (a0)                    ; fcn.00000009
         0x005a4562      dec1           adda.w d1, a7
         0x005a4564      48790083fe7d   pea.l 0x83fe7d
         0x005a456a      42a7           clr.l -(a7)
         0x005a456c      1f790083fe7c.  move.b 0x83fe7c, 0x3(a7)
         0x005a4574      2f17           move.l (a7), -(a7)
         0x005a4576      4e90           jsr (a0)                    ; fcn.00000009
         0x005a4578      dec1           adda.w d1, a7
         0x005a457a      487aee43       pea.l 0x5a33bf(pc)
         0x005a457e      48780008       pea.l 0x8
         0x005a4582      2f17           move.l (a7), -(a7)
         0x005a4584      4e90           jsr (a0)                    ; fcn.00000009
         0x005a4586      dec1           adda.w d1, a7
         0x005a4588      4851           pea.l (a1)
         0x005a458a      4852           pea.l (a2)
         0x005a458c      2f17           move.l (a7), -(a7)
         0x005a458e      4e90           jsr (a0)                    ; fcn.00000009
         0x005a4590      dec1           adda.w d1, a7
         0x005a4592      487aee34       pea.l 0x5a33c8(pc)
         0x005a4596      4852           pea.l (a2)
         0x005a4598      2f17           move.l (a7), -(a7)
         0x005a459a      4e90           jsr (a0)                    ; fcn.00000009
         0x005a459c      dec1           adda.w d1, a7
         0x005a459e      1011           move.b (a1), d0
         0x005a45a0      b03aee29       cmp.b 0x5a33cb(pc), d0
     < 0x005a45a4      6608           bne.b 0x5a45ae
        0x005a45a6      102e0009       move.b 0x9(a6), d0
        0x005a45aa      b03aee20       cmp.b 0x5a33cc(pc), d0
    > 0x005a45ae      6624           bne.b 0x5a45d4
        0x005a45b0      9efc0100       suba.w 0x100, a7
        0x005a45b4      4eb900408ec0   jsr p_err_string
        0x005a45ba      486f0001       pea.l 0x1(a7)
        0x005a45be      42a7           clr.l -(a7)
        0x005a45c0      1f6f00080003   move.b 0x8(a7), 0x3(a7)
        0x005a45c6      2f17           move.l (a7), -(a7)
        0x005a45c8      4e90           jsr (a0)                    ; fcn.00000009
        0x005a45ca      defc010c       adda.w 0x10c, a7
        0x005a45ce      487aedfe       pea.l 0x5a33ce(pc)
    < 0x005a45d2      6026           bra.b 0x5a45fa
    > 0x005a45d4      9efc0100       suba.w 0x100, a7
        0x005a45d8      3f11           move.w (a1), -(a7)
        0x005a45da      4eb9005b071e   jsr K3_UTILS.k3_full_string
        0x005a45e0      544f           addq.w 0x2, a7
        0x005a45e2      486f0001       pea.l 0x1(a7)
        0x005a45e6      42a7           clr.l -(a7)
        0x005a45e8      1f6f00080003   move.b 0x8(a7), 0x3(a7)
        0x005a45ee      2f17           move.l (a7), -(a7)
        0x005a45f0      4e90           jsr (a0)                    ; fcn.00000009
        0x005a45f2      defc010c       adda.w 0x10c, a7
        0x005a45f6      487aedd9       pea.l 0x5a33d1(pc)
     > 0x005a45fa      4852           pea.l (a2)
         0x005a45fc      2f17           move.l (a7), -(a7)
         0x005a45fe      4e90           jsr (a0)                    ; fcn.00000009
         0x005a4600      dec1           adda.w d1, a7
         0x005a4602      486e000b       pea.l 0xb(a6)
         0x005a4606      42a7           clr.l -(a7)
         0x005a4608      1f6e000a0003   move.b 0xa(a6), 0x3(a7)
         0x005a460e      2f17           move.l (a7), -(a7)
         0x005a4610      4e90           jsr (a0)                    ; fcn.00000009
         0x005a4612      dec1           adda.w d1, a7
         0x005a4614      4eb900404946   jsr p_wtln_o
      > 0x005a461a      4cdf0703       movem.l (a7)+, d0-d1/a0-a2
           0x005a461e      4e5e           unlk a6
           0x005a4620      4e75           rts
            ; CALL XREFS from K05_LOADSAVE.write_file_ptrs @ 0x5a76ee, 0x5a7712
            ; CALL XREF from fcn.005aa600 @ 0x5aabac
 68: K05_LOADSAVE.fids_eq ();
           0x005a4622      4e56fff8       link.w a6, 0xfff8
           0x005a4626      bfd5           cmpa.l (a5), a7
       < 0x005a4628      6206           bhi.b 0x5a4630
          0x005a462a      44fc0002       move.w 0x2, ccr
          0x005a462e      4e76           trapv
       > 0x005a4630      defc0008       adda.w 0x8, a7
           0x005a4634      48e78000       movem.l d0, -(a7)
           0x005a4638      422e001c       clr.b 0x1c(a6)
           0x005a463c      202e0012       move.l 0x12(a6), d0
           0x005a4640      b0ae0008       cmp.l 0x8(a6), d0
       < 0x005a4644      6618           bne.b 0x5a465e
          0x005a4646      202e0016       move.l 0x16(a6), d0
          0x005a464a      b0ae000c       cmp.l 0xc(a6), d0
      < 0x005a464e      660e           bne.b 0x5a465e
         0x005a4650      302e001a       move.w 0x1a(a6), d0
         0x005a4654      b06e0010       cmp.w 0x10(a6), d0
     < 0x005a4658      6604           bne.b 0x5a465e
        0x005a465a      522e001c       addq.b 0x1, 0x1c(a6)
     > 0x005a465e      4cdf0001       movem.l (a7)+, d0
           0x005a4662      4e5e           unlk a6
           0x005a4664      4e75           rts
            ; CALL XREFS from K05_LOADSAVE.k_copy_file @ 0x5a7894, 0x5a78fa
            ; CALL XREF from K05_LOADSAVE.k_save @ 0x5a8960
            ; CALL XREF from K05_LOADSAVE.k05_crop_save @ 0x5a94c4
            ; CALL XREF from K05_LOADSAVE.k_load @ 0x5aa016
 180: K05_LOADSAVE.gen_fid ();
           ; var int32_t var_132ah @ a6-0x132a
           ; var int32_t var_1328h @ a6-0x1328
           ; var int32_t var_1326h @ a6-0x1326
           0x005a4666      4e56ffc6       link.w a6, 0xffc6
           0x005a466a      bfd5           cmpa.l (a5), a7
       < 0x005a466c      6206           bhi.b 0x5a4674
          0x005a466e      44fc0002       move.w 0x2, ccr
          0x005a4672      4e76           trapv
       > 0x005a4674      defc0032       adda.w 0x32, a7
           0x005a4678      48e7c0f8       movem.l d0-d1/a0-a4, -(a7)
           0x005a467c      7201           moveq 0x1, d1
           0x005a467e      206e000c       movea.l 0xc(a6), a0
           0x005a4682      10baed50       move.b 0x5a33d4(pc), (a0)
           0x005a4686      117aed4d0001   move.b 0x5a33d5(pc), 0x1(a0)
           0x005a468c      594f           subq.w 0x4, a7
           0x005a468e      226e0010       movea.l 0x10(a6), a1
           0x005a4692      4851           pea.l (a1)
           0x005a4694      1f01           move.b d1, -(a7)
           0x005a4696      4850           pea.l (a0)
           0x005a4698      4eb900593bb4   jsr K0_DISKMGR.k0_gen_file_ptr
           0x005a469e      defc000a       adda.w 0xa, a7
           0x005a46a2      285f           movea.l (a7)+, a4
           0x005a46a4      3641           movea.w d1, a3
           0x005a46a6      b8c1           cmpa.w d1, a4
       < 0x005a46a8      674c           beq.b 0x5a46f6
          0x005a46aa      b9ecfffc       cmpa.l -0x4(a4), a4
      < 0x005a46ae      6702           beq.b 0x5a46b2
         0x005a46b0      4e4d           trap 0xd
      > 0x005a46b2      43ee0014       lea.l 0x14(a6), a1
          0x005a46b6      45ec0008       lea.l 0x8(a4), a2
          0x005a46ba      7009           moveq 0x9, d0
      > 0x005a46bc      12da           move.b (a2)+, (a1)+
      < 0x005a46be      51c8fffc       dbra d0, 0x5a46bc
          0x005a46c2      594f           subq.w 0x4, a7
          0x005a46c4      2f2c0008       move.l 0x8(a4), -(a7)
          0x005a46c8      1f01           move.b d1, -(a7)
          0x005a46ca      4eb900593ae0   jsr K0_DISKMGR.k0_gen_vol_ptr
          0x005a46d0      5c4f           addq.w 0x6, a7
          0x005a46d2      265f           movea.l (a7)+, a3
          0x005a46d4      b6c1           cmpa.w d1, a3
      < 0x005a46d6      6712           beq.b 0x5a46ea
         0x005a46d8      226e0008       movea.l 0x8(a6), a1
         0x005a46dc      b7ebfffc       cmpa.l -0x4(a3), a3
     < 0x005a46e0      6702           beq.b 0x5a46e4
        0x005a46e2      4e4d           trap 0xd
     > 0x005a46e4      12ab000c       move.b 0xc(a3), (a1)
     < 0x005a46e8      6028           bra.b 0x5a4712
     > 0x005a46ea      10baeceb       move.b 0x5a33d7(pc), (a0)
         0x005a46ee      117aece80001   move.b 0x5a33d8(pc), 0x1(a0)
     < 0x005a46f4      601c           bra.b 0x5a4712
     > 0x005a46f6      10baece2       move.b 0x5a33da(pc), (a0)
         0x005a46fa      117aecdf0001   move.b 0x5a33db(pc), 0x1(a0)
         0x005a4700      2d7aecda0014   move.l 0x5a33dc(pc), 0x14(a6)
         0x005a4706      2d7aecd80018   move.l 0x5a33e0(pc), 0x18(a6)
         0x005a470c      3d7aecd6001c   move.w 0x5a33e4(pc), 0x1c(a6)
     > 0x005a4712      4cdf1f03       movem.l (a7)+, d0-d1/a0-a4
           0x005a4716      4e5e           unlk a6
           0x005a4718      4e75           rts
            ; CALL XREFS from K05_LOADSAVE.write_file_ptrs @ 0x5a772a, 0x5a773e
            ; CALL XREF from K05_LOADSAVE.k_load @ 0x5aa082
 314: K05_LOADSAVE.fid_str ();
           0x005a471a      4e56fdc6       link.w a6, 0xfdc6
           0x005a471e      bfd5           cmpa.l (a5), a7
       < 0x005a4720      6206           bhi.b 0x5a4728
          0x005a4722      44fc0002       move.w 0x2, ccr
          0x005a4726      4e76           trapv
       > 0x005a4728      defc003a       adda.w 0x3a, a7
           0x005a472c      48e7f8f8       movem.l d0-d4/a0-a4, -(a7)
           0x005a4730      45eefe00       lea.l -0x200(a6), a2
           0x005a4734      47eeff00       lea.l -0x100(a6), a3
           0x005a4738      49eefe01       lea.l -0x1ff(a6), a4
           0x005a473c      363c00ff       move.w 0xff, d3
           0x005a4740      780e           moveq 0xe, d4
           0x005a4742      14baeca2       move.b 0x5a33e6(pc), (a2)
           0x005a4746      2f2e0008       move.l 0x8(a6), -(a7)
           0x005a474a      4878ffff       pea.l 0xffff
           0x005a474e      4853           pea.l (a3)
           0x005a4750      3f03           move.w d3, -(a7)
           0x005a4752      4eb900406e56   jsr p_strI1
           0x005a4758      dec4           adda.w d4, a7
           0x005a475a      4240           clr.w d0
           0x005a475c      1013           move.b (a3), d0
           0x005a475e      3200           move.w d0, d1
           0x005a4760      204c           movea.l a4, a0
           0x005a4762      5301           subq.b 0x1, d1
       < 0x005a4764      650a           bcs.b 0x5a4770
          0x005a4766      43eeff01       lea.l -0xff(a6), a1
      > 0x005a476a      10d9           move.b (a1)+, (a0)+
      < 0x005a476c      51c9fffc       dbra d1, 0x5a476a
       > 0x005a4770      7201           moveq 0x1, d1
           0x005a4772      3403           move.w d3, d2
           0x005a4774      9440           sub.w d0, d2
           0x005a4776      b242           cmp.w d2, d1
       < 0x005a4778      6302           bls.b 0x5a477c
          0x005a477a      3202           move.w d2, d1
       > 0x005a477c      1480           move.b d0, (a2)
           0x005a477e      d312           add.b d1, (a2)
           0x005a4780      43faec66       lea.l 0x5a33e8(pc), a1
       > 0x005a4784      10d9           move.b (a1)+, (a0)+
       < 0x005a4786      51c9fffc       dbra d1, 0x5a4784
           0x005a478a      2f2e000c       move.l 0xc(a6), -(a7)
           0x005a478e      48780000       pea.l 0x0
           0x005a4792      4853           pea.l (a3)
           0x005a4794      3f03           move.w d3, -(a7)
           0x005a4796      4eb900406e56   jsr p_strI1
           0x005a479c      dec4           adda.w d4, a7
           0x005a479e      4240           clr.w d0
           0x005a47a0      1012           move.b (a2), d0
           0x005a47a2      204c           movea.l a4, a0
           0x005a47a4      d0c0           adda.w d0, a0
           0x005a47a6      4241           clr.w d1
           0x005a47a8      1213           move.b (a3), d1
           0x005a47aa      d200           add.b d0, d1
       < 0x005a47ac      6406           bcc.b 0x5a47b4
          0x005a47ae      4eb900406c8a   jsr p_strovr
       > 0x005a47b4      4241           clr.w d1
           0x005a47b6      1213           move.b (a3), d1
           0x005a47b8      3403           move.w d3, d2
           0x005a47ba      9440           sub.w d0, d2
           0x005a47bc      b242           cmp.w d2, d1
       < 0x005a47be      6302           bls.b 0x5a47c2
          0x005a47c0      3202           move.w d2, d1
       > 0x005a47c2      d312           add.b d1, (a2)
           0x005a47c4      5301           subq.b 0x1, d1
       < 0x005a47c6      650a           bcs.b 0x5a47d2
          0x005a47c8      43eeff01       lea.l -0xff(a6), a1
      > 0x005a47cc      10d9           move.b (a1)+, (a0)+
      < 0x005a47ce      51c9fffc       dbra d1, 0x5a47cc
       > 0x005a47d2      4240           clr.w d0
           0x005a47d4      1012           move.b (a2), d0
           0x005a47d6      204c           movea.l a4, a0
           0x005a47d8      d0c0           adda.w d0, a0
           0x005a47da      7201           moveq 0x1, d1
           0x005a47dc      3403           move.w d3, d2
           0x005a47de      9440           sub.w d0, d2
           0x005a47e0      b242           cmp.w d2, d1
       < 0x005a47e2      6302           bls.b 0x5a47e6
          0x005a47e4      3202           move.w d2, d1
       > 0x005a47e6      d312           add.b d1, (a2)
           0x005a47e8      43faec00       lea.l 0x5a33ea(pc), a1
       > 0x005a47ec      10d9           move.b (a1)+, (a0)+
       < 0x005a47ee      51c9fffc       dbra d1, 0x5a47ec
           0x005a47f2      4280           clr.l d0
           0x005a47f4      302e0010       move.w 0x10(a6), d0
           0x005a47f8      2f00           move.l d0, -(a7)
           0x005a47fa      48780000       pea.l 0x0
           0x005a47fe      4853           pea.l (a3)
           0x005a4800      3f03           move.w d3, -(a7)
           0x005a4802      4eb900406e56   jsr p_strI1
           0x005a4808      dec4           adda.w d4, a7
           0x005a480a      4240           clr.w d0
           0x005a480c      1012           move.b (a2), d0
           0x005a480e      204c           movea.l a4, a0
           0x005a4810      d0c0           adda.w d0, a0
           0x005a4812      4241           clr.w d1
           0x005a4814      1213           move.b (a3), d1
           0x005a4816      d200           add.b d0, d1
       < 0x005a4818      6406           bcc.b 0x5a4820
          0x005a481a      4eb900406c8a   jsr p_strovr
       > 0x005a4820      4241           clr.w d1
           0x005a4822      1213           move.b (a3), d1
           0x005a4824      3403           move.w d3, d2
           0x005a4826      9440           sub.w d0, d2
           0x005a4828      b242           cmp.w d2, d1
       < 0x005a482a      6302           bls.b 0x5a482e
          0x005a482c      3202           move.w d2, d1
       > 0x005a482e      d312           add.b d1, (a2)
           0x005a4830      5301           subq.b 0x1, d1
       < 0x005a4832      650a           bcs.b 0x5a483e
          0x005a4834      43eeff01       lea.l -0xff(a6), a1
      > 0x005a4838      10d9           move.b (a1)+, (a0)+
      < 0x005a483a      51c9fffc       dbra d1, 0x5a4838
       > 0x005a483e      41ee0012       lea.l 0x12(a6), a0
           0x005a4842      224a           movea.l a2, a1
           0x005a4844      703f           moveq 0x3f, d0
       > 0x005a4846      20d9           move.l (a1)+, (a0)+
       < 0x005a4848      51c8fffc       dbra d0, 0x5a4846
           0x005a484c      4cdf1f1f       movem.l (a7)+, d0-d4/a0-a4
           0x005a4850      4e5e           unlk a6
           0x005a4852      4e75           rts
            ; CALL XREFS from K05_LOADSAVE.k_copy_file @ 0x5a7a24, 0x5a7bfa
            ; CALL XREF from K05_LOADSAVE.k_save @ 0x5a89e6
            ; CALL XREF from K05_LOADSAVE.k_load @ 0x5aa1cc
 1524: K05_LOADSAVE.get_data ();
           ; var int32_t var_1594h @ a6-0x1594
           ; var int32_t var_158eh @ a6-0x158e
           ; var int32_t var_1589h @ a6-0x1589
           ; var int32_t var_1538h @ a6-0x1538
           ; var int32_t var_1532h @ a6-0x1532
           ; var int32_t var_152dh @ a6-0x152d
           ; var int32_t var_1520h @ a6-0x1520
           ; var int32_t var_14c0h @ a6-0x14c0
           ; var int32_t var_14bbh @ a6-0x14bb
           ; var int32_t var_14a2h @ a6-0x14a2
           ; var int32_t var_64h @ a6-0x64
           ; var int32_t var_1h @ a7+0x1
           ; var int32_t var_2h @ a7+0x2
           ; var int32_t var_3h @ a7+0x3
           ; var int32_t var_8h @ a7+0x8
           ; var int32_t var_1eh @ a7+0x1e
           0x005a4854      4e56fe4a       link.w a6, 0xfe4a
           0x005a4858      bfd5           cmpa.l (a5), a7
       < 0x005a485a      6206           bhi.b 0x5a4862
          0x005a485c      44fc0002       move.w 0x2, ccr
          0x005a4860      4e76           trapv
       > 0x005a4862      defc0152       adda.w 0x152, a7
           0x005a4866      48e7fff8       movem.l d0-d7/a0-a4, -(a7)
           0x005a486a      47f9004047ea   lea.l p_wts_o, a3
           0x005a4870      760c           moveq 0xc, d3
           0x005a4872      383c0102       move.w 0x102, d4
           0x005a4876      7a01           moveq 0x1, d5
           0x005a4878      554f           subq.w 0x2, a7
           0x005a487a      486eff9e       pea.l -0x62(a6)
           0x005a487e      4eb900404434   jsr fcn.00404434
           0x005a4884      584f           addq.w 0x4, a7
           0x005a4886      4a1f           tst.b (a7)+
       < 0x005a4888      670005b0       beq.w 0x5a4e3a
          0x005a488c      3d7aeb5eff9c   move.w 0x5a33ec(pc), -0x64(a6)
          0x005a4892      594f           subq.w 0x4, a7
          0x005a4894      2f2e011e       move.l 0x11e(a6), -(a7)
          0x005a4898      1f05           move.b d5, -(a7)
          0x005a489a      4eb900593ae0   jsr K0_DISKMGR.k0_gen_vol_ptr
          0x005a48a0      5c4f           addq.w 0x6, a7
          0x005a48a2      285f           movea.l (a7)+, a4
          0x005a48a4      b8c5           cmpa.w d5, a4
      < 0x005a48a6      660c           bne.b 0x5a48b4
         0x005a48a8      1d7aeb45ff9c   move.b 0x5a33ef(pc), -0x64(a6)
         0x005a48ae      1d7aeb40ff9d   move.b 0x5a33f0(pc), -0x63(a6)
      > 0x005a48b4      9ec4           suba.w d4, a7
          0x005a48b6      204f           movea.l a7, a0
          0x005a48b8      43faeb37       lea.l 0x5a33f1(pc), a1
          0x005a48bc      7010           moveq 0x10, d0
      > 0x005a48be      10d9           move.b (a1)+, (a0)+
      < 0x005a48c0      51c8fffc       dbra d0, 0x5a48be
          0x005a48c4      3f2eff9c       move.w -0x64(a6), -(a7)
          0x005a48c8      4ebafc2e       jsr K05_LOADSAVE.warn_if_fail(pc)
          0x005a48cc      dec4           adda.w d4, a7
          0x005a48ce      4a1f           tst.b (a7)+
      < 0x005a48d0      670c           beq.b 0x5a48de
         0x005a48d2      486eff9e       pea.l -0x62(a6)
         0x005a48d6      4eb900404468   jsr fcn.00404468
         0x005a48dc      584f           addq.w 0x4, a7
      > 0x005a48de      4a2e001a       tst.b 0x1a(a6)
      < 0x005a48e2      6700009c       beq.w 0x5a4980
         0x005a48e6      554f           subq.w 0x2, a7
         0x005a48e8      1f2e001c       move.b 0x1c(a6), -(a7)
         0x005a48ec      4eb900598cca   jsr K01_DEBUG.k01_debug
         0x005a48f2      544f           addq.w 0x2, a7
         0x005a48f4      4a1f           tst.b (a7)+
     < 0x005a48f6      672e           beq.b 0x5a4926
        0x005a48f8      487aeb09       pea.l 0x5a3403(pc)
        0x005a48fc      48780006       pea.l 0x6
        0x005a4900      2f17           move.l (a7), -(a7)
        0x005a4902      4e93           jsr (a3)                    ; fcn.0000000c
        0x005a4904      dec3           adda.w d3, a7
        0x005a4906      486e001f       pea.l 0x1f(a6)
        0x005a490a      42a7           clr.l -(a7)
        0x005a490c      1f6e001e0003   move.b 0x1e(a6), 0x3(a7)
        0x005a4912      2f17           move.l (a7), -(a7)
        0x005a4914      4e93           jsr (a3)                    ; fcn.0000000c
        0x005a4916      dec3           adda.w d3, a7
        0x005a4918      487aeaf0       pea.l 0x5a340a(pc)
        0x005a491c      4878000d       pea.l 0xd
        0x005a4920      2f17           move.l (a7), -(a7)
        0x005a4922      4e93           jsr (a3)                    ; fcn.0000000c
        0x005a4924      dec3           adda.w d3, a7
     > 0x005a4926      b9ecfffc       cmpa.l -0x4(a4), a4
     < 0x005a492a      6702           beq.b 0x5a492e
        0x005a492c      4e4d           trap 0xd
     > 0x005a492e      082c0024001e   btst.b 0x24, 0x1e(a4)
     < 0x005a4934      6608           bne.b 0x5a493e
        0x005a4936      3d7aeae0ff9c   move.w 0x5a3418(pc), -0x64(a6)
    < 0x005a493c      601c           bra.b 0x5a495a
    > 0x005a493e      082c0004001a   btst.b 0x4, 0x1a(a4)
    < 0x005a4944      660e           bne.b 0x5a4954
       0x005a4946      1d7aead3ff9c   move.b 0x5a341b(pc), -0x64(a6)
       0x005a494c      1d7aeaceff9d   move.b 0x5a341c(pc), -0x63(a6)
   < 0x005a4952      6006           bra.b 0x5a495a
   > 0x005a4954      3d7aeac8ff9c   move.w 0x5a341e(pc), -0x64(a6)
   > 0x005a495a      9ec4           suba.w d4, a7
         0x005a495c      204f           movea.l a7, a0
         0x005a495e      43faeac0       lea.l 0x5a3420(pc), a1
         0x005a4962      7004           moveq 0x4, d0
     > 0x005a4964      20d9           move.l (a1)+, (a0)+
     < 0x005a4966      51c8fffc       dbra d0, 0x5a4964
         0x005a496a      30d9           move.w (a1)+, (a0)+
         0x005a496c      3f2eff9c       move.w -0x64(a6), -(a7)
         0x005a4970      4ebafb86       jsr K05_LOADSAVE.warn_if_fail(pc)
         0x005a4974      dec4           adda.w d4, a7
         0x005a4976      4a1f           tst.b (a7)+
     < 0x005a4978      67000094       beq.w 0x5a4a0e
    < 0x005a497c      60000084       bra.w 0x5a4a02
    > 0x005a4980      554f           subq.w 0x2, a7
        0x005a4982      1f2e001c       move.b 0x1c(a6), -(a7)
        0x005a4986      4eb900598cca   jsr K01_DEBUG.k01_debug
        0x005a498c      544f           addq.w 0x2, a7
        0x005a498e      4a1f           tst.b (a7)+
    < 0x005a4990      672e           beq.b 0x5a49c0
       0x005a4992      487aeaa3       pea.l 0x5a3437(pc)
       0x005a4996      48780006       pea.l 0x6
       0x005a499a      2f17           move.l (a7), -(a7)
       0x005a499c      4e93           jsr (a3)                    ; fcn.0000000c
       0x005a499e      dec3           adda.w d3, a7
       0x005a49a0      486e001f       pea.l 0x1f(a6)
       0x005a49a4      42a7           clr.l -(a7)
       0x005a49a6      1f6e001e0003   move.b 0x1e(a6), 0x3(a7)
       0x005a49ac      2f17           move.l (a7), -(a7)
       0x005a49ae      4e93           jsr (a3)                    ; fcn.0000000c
       0x005a49b0      dec3           adda.w d3, a7
       0x005a49b2      487aea8a       pea.l 0x5a343e(pc)
       0x005a49b6      4878000a       pea.l 0xa
       0x005a49ba      2f17           move.l (a7), -(a7)
       0x005a49bc      4e93           jsr (a3)                    ; fcn.0000000c
       0x005a49be      dec3           adda.w d3, a7
    > 0x005a49c0      b9ecfffc       cmpa.l -0x4(a4), a4
    < 0x005a49c4      6702           beq.b 0x5a49c8
       0x005a49c6      4e4d           trap 0xd
    > 0x005a49c8      082c0004001a   btst.b 0x4, 0x1a(a4)
    < 0x005a49ce      670e           beq.b 0x5a49de
       0x005a49d0      1d7aea77ff9c   move.b 0x5a3449(pc), -0x64(a6)
       0x005a49d6      1d7aea72ff9d   move.b 0x5a344a(pc), -0x63(a6)
   < 0x005a49dc      6006           bra.b 0x5a49e4
   > 0x005a49de      3d7aea6cff9c   move.w 0x5a344c(pc), -0x64(a6)
   > 0x005a49e4      9ec4           suba.w d4, a7
        0x005a49e6      204f           movea.l a7, a0
        0x005a49e8      43faea64       lea.l 0x5a344e(pc), a1
        0x005a49ec      7004           moveq 0x4, d0
    > 0x005a49ee      20d9           move.l (a1)+, (a0)+
    < 0x005a49f0      51c8fffc       dbra d0, 0x5a49ee
        0x005a49f4      3f2eff9c       move.w -0x64(a6), -(a7)
        0x005a49f8      4ebafafe       jsr K05_LOADSAVE.warn_if_fail(pc)
        0x005a49fc      dec4           adda.w d4, a7
        0x005a49fe      4a1f           tst.b (a7)+
    < 0x005a4a00      670c           beq.b 0x5a4a0e
    > 0x005a4a02      486eff9e       pea.l -0x62(a6)
        0x005a4a06      4eb900404468   jsr fcn.00404468
        0x005a4a0c      584f           addq.w 0x4, a7
     > 0x005a4a0e      554f           subq.w 0x2, a7
          0x005a4a10      1f2e001c       move.b 0x1c(a6), -(a7)
          0x005a4a14      4eb900598cca   jsr K01_DEBUG.k01_debug
          0x005a4a1a      544f           addq.w 0x2, a7
          0x005a4a1c      4a1f           tst.b (a7)+
      < 0x005a4a1e      6734           beq.b 0x5a4a54
         0x005a4a20      487aea41       pea.l 0x5a3463(pc)
         0x005a4a24      48780004       pea.l 0x4
         0x005a4a28      2f17           move.l (a7), -(a7)
         0x005a4a2a      4e93           jsr (a3)                    ; fcn.0000000c
         0x005a4a2c      dec3           adda.w d3, a7
         0x005a4a2e      486e001f       pea.l 0x1f(a6)
         0x005a4a32      42a7           clr.l -(a7)
         0x005a4a34      1f6e001e0003   move.b 0x1e(a6), 0x3(a7)
         0x005a4a3a      2f17           move.l (a7), -(a7)
         0x005a4a3c      4e93           jsr (a3)                    ; fcn.0000000c
         0x005a4a3e      dec3           adda.w d3, a7
         0x005a4a40      487aea26       pea.l 0x5a3468(pc)
         0x005a4a44      48780006       pea.l 0x6
         0x005a4a48      2f17           move.l (a7), -(a7)
         0x005a4a4a      4e93           jsr (a3)                    ; fcn.0000000c
         0x005a4a4c      dec3           adda.w d3, a7
         0x005a4a4e      4eb900404946   jsr p_wtln_o
      > 0x005a4a54      4a2e000c       tst.b 0xc(a6)
      < 0x005a4a58      6710           beq.b 0x5a4a6a
         0x005a4a5a      554f           subq.w 0x2, a7
         0x005a4a5c      1f3c0012       move.b 0x12, -(a7)
         0x005a4a60      b9ecfffc       cmpa.l -0x4(a4), a4
     < 0x005a4a64      6702           beq.b 0x5a4a68
        0x005a4a66      4e4d           trap 0xd
    > 0x005a4a68      600e           bra.b 0x5a4a78
     > 0x005a4a6a      554f           subq.w 0x2, a7
         0x005a4a6c      1f3c0011       move.b 0x11, -(a7)
         0x005a4a70      b9ecfffc       cmpa.l -0x4(a4), a4
     < 0x005a4a74      6702           beq.b 0x5a4a78
        0x005a4a76      4e4d           trap 0xd
    > 0x005a4a78      102c000c       move.b 0xc(a4), d0
          0x005a4a7c      4880           ext.w d0
          0x005a4a7e      41bc0007       chk.w 0x7, d0
          0x005a4a82      1f00           move.b d0, -(a7)
          0x005a4a84      4227           clr.b -(a7)
          0x005a4a86      486e011e       pea.l 0x11e(a6)
          0x005a4a8a      41eeffec       lea.l -0x14(a6), a0
          0x005a4a8e      2f08           move.l a0, -(a7)
          0x005a4a90      48780011       pea.l 0x11
          0x005a4a94      4eb9005abd82   jsr K1_AFS_ONLY.k1_data
          0x005a4a9a      defc0012       adda.w 0x12, a7
          0x005a4a9e      3d5fff9c       move.w (a7)+, -0x64(a6)
          0x005a4aa2      9ec4           suba.w d4, a7
          0x005a4aa4      7007           moveq 0x7, d0
          0x005a4aa6      41ef0001       lea.l 0x1(a7), a0
          0x005a4aaa      43fae9c3       lea.l 0x5a346f(pc), a1
      > 0x005a4aae      10d9           move.b (a1)+, (a0)+
      < 0x005a4ab0      51c8fffc       dbra d0, 0x5a4aae
          0x005a4ab4      4240           clr.w d0
          0x005a4ab6      102e001e       move.b 0x1e(a6), d0
          0x005a4aba      5000           addq.b 0x8, d0
      < 0x005a4abc      6406           bcc.b 0x5a4ac4
         0x005a4abe      4eb900406c8a   jsr p_strovr
      > 0x005a4ac4      4240           clr.w d0
          0x005a4ac6      102e001e       move.b 0x1e(a6), d0
          0x005a4aca      323c00ff       move.w 0xff, d1
          0x005a4ace      5141           subq.w 0x8, d1
          0x005a4ad0      b041           cmp.w d1, d0
      < 0x005a4ad2      6302           bls.b 0x5a4ad6
         0x005a4ad4      3001           move.w d1, d0
      > 0x005a4ad6      1ebc0008       move.b 0x8, (a7)
          0x005a4ada      d117           add.b d0, (a7)
          0x005a4adc      5300           subq.b 0x1, d0
      < 0x005a4ade      650a           bcs.b 0x5a4aea
         0x005a4ae0      43ee001f       lea.l 0x1f(a6), a1
     > 0x005a4ae4      10d9           move.b (a1)+, (a0)+
     < 0x005a4ae6      51c8fffc       dbra d0, 0x5a4ae4
      > 0x005a4aea      4240           clr.w d0
          0x005a4aec      1017           move.b (a7), d0
          0x005a4aee      41ef0001       lea.l 0x1(a7), a0
          0x005a4af2      d0c0           adda.w d0, a0
          0x005a4af4      7210           moveq 0x10, d1
          0x005a4af6      d200           add.b d0, d1
      < 0x005a4af8      6406           bcc.b 0x5a4b00
         0x005a4afa      4eb900406c8a   jsr p_strovr
      > 0x005a4b00      7210           moveq 0x10, d1
          0x005a4b02      343c00ff       move.w 0xff, d2
          0x005a4b06      9440           sub.w d0, d2
          0x005a4b08      b242           cmp.w d2, d1
      < 0x005a4b0a      6302           bls.b 0x5a4b0e
         0x005a4b0c      3202           move.w d2, d1
      > 0x005a4b0e      d317           add.b d1, (a7)
          0x005a4b10      43fae966       lea.l 0x5a3478(pc), a1
      > 0x005a4b14      10d9           move.b (a1)+, (a0)+
      < 0x005a4b16      51c9fffc       dbra d1, 0x5a4b14
          0x005a4b1a      3f2eff9c       move.w -0x64(a6), -(a7)
          0x005a4b1e      4ebaf9d8       jsr K05_LOADSAVE.warn_if_fail(pc)
          0x005a4b22      dec4           adda.w d4, a7
          0x005a4b24      4a1f           tst.b (a7)+
      < 0x005a4b26      670c           beq.b 0x5a4b34
         0x005a4b28      486eff9e       pea.l -0x62(a6)
         0x005a4b2c      4eb900404468   jsr fcn.00404468
         0x005a4b32      584f           addq.w 0x4, a7
      > 0x005a4b34      206e0012       movea.l 0x12(a6), a0
          0x005a4b38      2248           movea.l a0, a1
          0x005a4b3a      45eeffec       lea.l -0x14(a6), a2
          0x005a4b3e      7009           moveq 0x9, d0
      > 0x005a4b40      12da           move.b (a2)+, (a1)+
      < 0x005a4b42      51c8fffc       dbra d0, 0x5a4b40
          0x005a4b46      226e0016       movea.l 0x16(a6), a1
          0x005a4b4a      102efffa       move.b -0x6(a6), d0
          0x005a4b4e      4880           ext.w d0
          0x005a4b50      41bc0056       chk.w 0x56, d0
          0x005a4b54      1280           move.b d0, (a1)
          0x005a4b56      226e000e       movea.l 0xe(a6), a1
          0x005a4b5a      12aefff6       move.b -0xa(a6), (a1)
          0x005a4b5e      136efff70001   move.b -0x9(a6), 0x1(a1)
          0x005a4b64      136efff80002   move.b -0x8(a6), 0x2(a1)
          0x005a4b6a      136efff90003   move.b -0x7(a6), 0x3(a1)
          0x005a4b70      554f           subq.w 0x2, a7
          0x005a4b72      4eb9004755c2   jsr CONFIG.cfg_gender
          0x005a4b78      101f           move.b (a7)+, d0
          0x005a4b7a      0c00000a       cmpi.b 0xa, d0
      < 0x005a4b7e      665c           bne.b 0x5a4bdc
         0x005a4b80      554f           subq.w 0x2, a7
         0x005a4b82      4eb900475be2   jsr CONFIG.cfg_aspect
         0x005a4b88      4a5f           tst.w (a7)+
     < 0x005a4b8a      6650           bne.b 0x5a4bdc
        0x005a4b8c      3011           move.w (a1), d0
        0x005a4b8e      0c401040       cmpi.w 0x1040, d0
    < 0x005a4b92      6622           bne.b 0x5a4bb6
       0x005a4b94      32290002       move.w 0x2(a1), d1
       0x005a4b98      0c411040       cmpi.w 0x1040, d1
   < 0x005a4b9c      6618           bne.b 0x5a4bb6
      0x005a4b9e      12bae8e8       move.b 0x5a3488(pc), (a1)
      0x005a4ba2      137ae8e50001   move.b 0x5a3489(pc), 0x1(a1)
      0x005a4ba8      137ae8e00002   move.b 0x5a348a(pc), 0x2(a1)
      0x005a4bae      137ae8db0003   move.b 0x5a348b(pc), 0x3(a1)
  < 0x005a4bb4      6026           bra.b 0x5a4bdc
  > 0x005a4bb6      0c402080       cmpi.w 0x2080, d0
   < 0x005a4bba      6620           bne.b 0x5a4bdc
      0x005a4bbc      32290002       move.w 0x2(a1), d1
      0x005a4bc0      0c412080       cmpi.w 0x2080, d1
  < 0x005a4bc4      6616           bne.b 0x5a4bdc
     0x005a4bc6      12bae8c4       move.b 0x5a348c(pc), (a1)
     0x005a4bca      137ae8c10001   move.b 0x5a348d(pc), 0x1(a1)
     0x005a4bd0      137ae8bc0002   move.b 0x5a348e(pc), 0x2(a1)
     0x005a4bd6      137ae8b70003   move.b 0x5a348f(pc), 0x3(a1)
  > 0x005a4bdc      246e0008       movea.l 0x8(a6), a2
          0x005a4be0      102efffc       move.b -0x4(a6), d0
          0x005a4be4      4880           ext.w d0
          0x005a4be6      4185           chk.w d5, d0
          0x005a4be8      1480           move.b d0, (a2)
          0x005a4bea      4a00           tst.b d0
      < 0x005a4bec      6700009c       beq.w 0x5a4c8a
         0x005a4bf0      4a2e001a       tst.b 0x1a(a6)
     < 0x005a4bf4      660a           bne.b 0x5a4c00
        0x005a4bf6      4a390083ff7c   tst.b 0x83ff7c
    < 0x005a4bfc      6700008c       beq.w 0x5a4c8a
    > 0x005a4c00      7c48           moveq 0x48, d6
        0x005a4c02      4a2e001a       tst.b 0x1a(a6)
    < 0x005a4c06      6704           beq.b 0x5a4c0c
       0x005a4c08      7e01           moveq 0x1, d7
   < 0x005a4c0a      6040           bra.b 0x5a4c4c
   > 0x005a4c0c      7e00           moveq 0x0, d7
       0x005a4c0e      3210           move.w (a0), d1
       0x005a4c10      48c1           ext.l d1
       0x005a4c12      23c10083ffa8   move.l d1, 0x83ffa8
       0x005a4c18      32280002       move.w 0x2(a0), d1
       0x005a4c1c      48c1           ext.l d1
       0x005a4c1e      23c10083ffac   move.l d1, 0x83ffac
       0x005a4c24      42b90083ffce   clr.l 0x83ffce
       0x005a4c2a      42b90083ffd2   clr.l 0x83ffd2
       0x005a4c30      7248           moveq 0x48, d1
       0x005a4c32      4481           neg.l d1
       0x005a4c34      0481ffff8000   subi.l 0xffff8000, d1
       0x005a4c3a      0c810000ffff   cmpi.l 0xffff, d1
   < 0x005a4c40      6302           bls.b 0x5a4c44
      0x005a4c42      4e4f           trap 0xf
   > 0x005a4c44      0681ffff8000   addi.l 0xffff8000, d1
       0x005a4c4a      3c01           move.w d1, d6
   > 0x005a4c4c      554f           subq.w 0x2, a7
        0x005a4c4e      1f3c0018       move.b 0x18, -(a7)
        0x005a4c52      b9ecfffc       cmpa.l -0x4(a4), a4
    < 0x005a4c56      6702           beq.b 0x5a4c5a
       0x005a4c58      4e4d           trap 0xd
    > 0x005a4c5a      122c000c       move.b 0xc(a4), d1
        0x005a4c5e      4881           ext.w d1
        0x005a4c60      43bc0007       chk.w 0x7, d1
        0x005a4c64      1f01           move.b d1, -(a7)
        0x005a4c66      4887           ext.w d7
        0x005a4c68      4f85           chk.w d5, d7
        0x005a4c6a      1f07           move.b d7, -(a7)
        0x005a4c6c      486e011e       pea.l 0x11e(a6)
        0x005a4c70      45f90083ff96   lea.l 0x83ff96, a2
        0x005a4c76      2f0a           move.l a2, -(a7)
        0x005a4c78      48c6           ext.l d6
        0x005a4c7a      2f06           move.l d6, -(a7)
        0x005a4c7c      4eb9005abd82   jsr K1_AFS_ONLY.k1_data
        0x005a4c82      defc0012       adda.w 0x12, a7
        0x005a4c86      3d5fff9c       move.w (a7)+, -0x64(a6)
    > 0x005a4c8a      554f           subq.w 0x2, a7
          0x005a4c8c      1f2e001c       move.b 0x1c(a6), -(a7)
          0x005a4c90      4eb900598cca   jsr K01_DEBUG.k01_debug
          0x005a4c96      544f           addq.w 0x2, a7
          0x005a4c98      4a1f           tst.b (a7)+
      < 0x005a4c9a      670000f2       beq.w 0x5a4d8e
         0x005a4c9e      9efc0104       suba.w 0x104, a7
         0x005a4ca2      1e90           move.b (a0), (a7)
         0x005a4ca4      1f6800010001   move.b 0x1(a0), 0x1(a7)
         0x005a4caa      1f6800020002   move.b 0x2(a0), 0x2(a7)
         0x005a4cb0      1f6800030003   move.b 0x3(a0), 0x3(a7)
         0x005a4cb6      48780000       pea.l 0x0
         0x005a4cba      4eb90044dd86   jsr SYSTEM_STRING.point_str
         0x005a4cc0      504f           addq.w 0x8, a7
         0x005a4cc2      486e001f       pea.l 0x1f(a6)
         0x005a4cc6      42a7           clr.l -(a7)
         0x005a4cc8      1f6e001e0003   move.b 0x1e(a6), 0x3(a7)
         0x005a4cce      2f17           move.l (a7), -(a7)
         0x005a4cd0      4e93           jsr (a3)                    ; fcn.0000000c
         0x005a4cd2      dec3           adda.w d3, a7
         0x005a4cd4      487ae7bb       pea.l 0x5a3491(pc)
         0x005a4cd8      48780009       pea.l 0x9
         0x005a4cdc      2f17           move.l (a7), -(a7)
         0x005a4cde      4e93           jsr (a3)                    ; fcn.0000000c
         0x005a4ce0      dec3           adda.w d3, a7
         0x005a4ce2      486f0001       pea.l 0x1(a7)
         0x005a4ce6      42a7           clr.l -(a7)
         0x005a4ce8      1f6f00080003   move.b 0x8(a7), 0x3(a7)
         0x005a4cee      2f17           move.l (a7), -(a7)
         0x005a4cf0      4e93           jsr (a3)                    ; fcn.0000000c
         0x005a4cf2      defc010c       adda.w 0x10c, a7
         0x005a4cf6      487ae7a3       pea.l 0x5a349b(pc)
         0x005a4cfa      48780002       pea.l 0x2
         0x005a4cfe      2f17           move.l (a7), -(a7)
         0x005a4d00      4e93           jsr (a3)                    ; fcn.0000000c
         0x005a4d02      dec3           adda.w d3, a7
         0x005a4d04      4281           clr.l d1
         0x005a4d06      32280004       move.w 0x4(a0), d1
         0x005a4d0a      2f01           move.l d1, -(a7)
         0x005a4d0c      48780000       pea.l 0x0
         0x005a4d10      4eb9004070e4   jsr p_wti_o
         0x005a4d16      504f           addq.w 0x8, a7
         0x005a4d18      487ae784       pea.l 0x5a349e(pc)
         0x005a4d1c      48780008       pea.l 0x8
         0x005a4d20      2f17           move.l (a7), -(a7)
         0x005a4d22      4e93           jsr (a3)                    ; fcn.0000000c
         0x005a4d24      9efc00f8       suba.w 0xf8, a7
         0x005a4d28      1e91           move.b (a1), (a7)
         0x005a4d2a      1f6900010001   move.b 0x1(a1), 0x1(a7)
         0x005a4d30      1f6900020002   move.b 0x2(a1), 0x2(a7)
         0x005a4d36      1f6900030003   move.b 0x3(a1), 0x3(a7)
         0x005a4d3c      48780000       pea.l 0x0
         0x005a4d40      4eb90044dd86   jsr SYSTEM_STRING.point_str
         0x005a4d46      504f           addq.w 0x8, a7
         0x005a4d48      487ae75d       pea.l 0x5a34a7(pc)
         0x005a4d4c      48780008       pea.l 0x8
         0x005a4d50      2f17           move.l (a7), -(a7)
         0x005a4d52      4e93           jsr (a3)                    ; fcn.0000000c
         0x005a4d54      dec3           adda.w d3, a7
         0x005a4d56      486f0001       pea.l 0x1(a7)
         0x005a4d5a      42a7           clr.l -(a7)
         0x005a4d5c      1f6f00080003   move.b 0x8(a7), 0x3(a7)
         0x005a4d62      2f17           move.l (a7), -(a7)
         0x005a4d64      4e93           jsr (a3)                    ; fcn.0000000c
         0x005a4d66      defc010c       adda.w 0x10c, a7
         0x005a4d6a      487ae744       pea.l 0x5a34b0(pc)
         0x005a4d6e      4878000c       pea.l 0xc
         0x005a4d72      2f17           move.l (a7), -(a7)
         0x005a4d74      4e93           jsr (a3)                    ; fcn.0000000c
         0x005a4d76      defc000a       adda.w 0xa, a7
         0x005a4d7a      1e80           move.b d0, (a7)
         0x005a4d7c      48780005       pea.l 0x5
         0x005a4d80      4eb90040718c   jsr p_wtb_o
         0x005a4d86      5c4f           addq.w 0x6, a7
         0x005a4d88      4eb900404946   jsr p_wtln_o
      > 0x005a4d8e      4a51           tst.w (a1)
      < 0x005a4d90      6708           beq.b 0x5a4d9a
         0x005a4d92      4a690002       tst.w 0x2(a1)
     < 0x005a4d96      660000a2       bne.w 0x5a4e3a
     > 0x005a4d9a      594f           subq.w 0x4, a7
         0x005a4d9c      4eb900633bb2   jsr HANDCOM.get_pixel_aspec
         0x005a4da2      1297           move.b (a7), (a1)
         0x005a4da4      136f00010001   move.b 0x1(a7), 0x1(a1)
         0x005a4daa      136f00020002   move.b 0x2(a7), 0x2(a1)
         0x005a4db0      136f00030003   move.b 0x3(a7), 0x3(a1)
         0x005a4db6      584f           addq.w 0x4, a7
         0x005a4db8      33510002       move.w (a1), 0x2(a1)
         0x005a4dbc      554f           subq.w 0x2, a7
         0x005a4dbe      1f2e001c       move.b 0x1c(a6), -(a7)
         0x005a4dc2      4eb900598cca   jsr K01_DEBUG.k01_debug
         0x005a4dc8      544f           addq.w 0x2, a7
         0x005a4dca      4a1f           tst.b (a7)+
     < 0x005a4dcc      676c           beq.b 0x5a4e3a
        0x005a4dce      9efc0104       suba.w 0x104, a7
        0x005a4dd2      1e91           move.b (a1), (a7)
        0x005a4dd4      1f6900010001   move.b 0x1(a1), 0x1(a7)
        0x005a4dda      1f6900020002   move.b 0x2(a1), 0x2(a7)
        0x005a4de0      1f6900030003   move.b 0x3(a1), 0x3(a7)
        0x005a4de6      48780000       pea.l 0x0
        0x005a4dea      4eb90044dd86   jsr SYSTEM_STRING.point_str
        0x005a4df0      504f           addq.w 0x8, a7
        0x005a4df2      487ae6c9       pea.l 0x5a34bd(pc)
        0x005a4df6      48780005       pea.l 0x5
        0x005a4dfa      2f17           move.l (a7), -(a7)
        0x005a4dfc      4e93           jsr (a3)                    ; fcn.0000000c
        0x005a4dfe      dec3           adda.w d3, a7
        0x005a4e00      486e001f       pea.l 0x1f(a6)
        0x005a4e04      42a7           clr.l -(a7)
        0x005a4e06      1f6e001e0003   move.b 0x1e(a6), 0x3(a7)
        0x005a4e0c      2f17           move.l (a7), -(a7)
        0x005a4e0e      4e93           jsr (a3)                    ; fcn.0000000c
        0x005a4e10      dec3           adda.w d3, a7
        0x005a4e12      487ae6af       pea.l 0x5a34c3(pc)
        0x005a4e16      48780013       pea.l 0x13
        0x005a4e1a      2f17           move.l (a7), -(a7)
        0x005a4e1c      4e93           jsr (a3)                    ; fcn.0000000c
        0x005a4e1e      dec3           adda.w d3, a7
        0x005a4e20      486f0001       pea.l 0x1(a7)
        0x005a4e24      42a7           clr.l -(a7)
        0x005a4e26      1f6f00080003   move.b 0x8(a7), 0x3(a7)
        0x005a4e2c      2f17           move.l (a7), -(a7)
        0x005a4e2e      4e93           jsr (a3)                    ; fcn.0000000c
        0x005a4e30      defc010c       adda.w 0x10c, a7
        0x005a4e34      4eb900404946   jsr p_wtln_o
     > 0x005a4e3a      3d6eff9c0128   move.w -0x64(a6), 0x128(a6)
           0x005a4e40      4cdf1fff       movem.l (a7)+, d0-d7/a0-a4
           0x005a4e44      4e5e           unlk a6
           0x005a4e46      4e75           rts
            ; CALL XREF from K05_LOADSAVE.transfer_planes @ 0x5a540a
 320: K05_LOADSAVE.wipe_gap ();
           ; var int32_t var_8h @ a7+0x8
           ; var int32_t var_108h @ a7+0x108
           ; var int32_t var_208h @ a7+0x208
           0x005a4e48      4e56fd7a       link.w a6, 0xfd7a
           0x005a4e4c      bfd5           cmpa.l (a5), a7
       < 0x005a4e4e      6206           bhi.b 0x5a4e56
          0x005a4e50      44fc0002       move.w 0x2, ccr
          0x005a4e54      4e76           trapv
       > 0x005a4e56      defc027e       adda.w 0x27e, a7
           0x005a4e5a      48e7c0f8       movem.l d0-d1/a0-a4, -(a7)
           0x005a4e5e      41f9004047ea   lea.l p_wts_o, a0
           0x005a4e64      43eefff8       lea.l -0x8(a6), a1
           0x005a4e68      45eefffc       lea.l -0x4(a6), a2
           0x005a4e6c      47ee0008       lea.l 0x8(a6), a3
           0x005a4e70      49ee000c       lea.l 0xc(a6), a4
           0x005a4e74      720c           moveq 0xc, d1
           0x005a4e76      2293           move.l (a3), (a1)
           0x005a4e78      24ae0010       move.l 0x10(a6), (a2)
           0x005a4e7c      554f           subq.w 0x2, a7
           0x005a4e7e      1f3c0012       move.b 0x12, -(a7)
           0x005a4e82      4eb900598cca   jsr K01_DEBUG.k01_debug
           0x005a4e88      544f           addq.w 0x2, a7
           0x005a4e8a      4a1f           tst.b (a7)+
       < 0x005a4e8c      670000c0       beq.w 0x5a4f4e
          0x005a4e90      3013           move.w (a3), d0
          0x005a4e92      b051           cmp.w (a1), d0
      < 0x005a4e94      661c           bne.b 0x5a4eb2
         0x005a4e96      302e000a       move.w 0xa(a6), d0
         0x005a4e9a      b06efffa       cmp.w -0x6(a6), d0
     < 0x005a4e9e      6612           bne.b 0x5a4eb2
        0x005a4ea0      3014           move.w (a4), d0
        0x005a4ea2      b052           cmp.w (a2), d0
    < 0x005a4ea4      660c           bne.b 0x5a4eb2
       0x005a4ea6      302e000e       move.w 0xe(a6), d0
       0x005a4eaa      b06efffe       cmp.w -0x2(a6), d0
   < 0x005a4eae      6700009e       beq.w 0x5a4f4e
   > 0x005a4eb2      9efc0052       suba.w 0x52, a7
         0x005a4eb6      1f2e0014       move.b 0x14(a6), -(a7)
         0x005a4eba      4eb90044e562   jsr SYSTEM_STRING.store_str
         0x005a4ec0      9efc00fe       suba.w 0xfe, a7
         0x005a4ec4      2f14           move.l (a4), -(a7)
         0x005a4ec6      2f13           move.l (a3), -(a7)
         0x005a4ec8      48780000       pea.l 0x0
         0x005a4ecc      4eb90044d9f2   jsr SYSTEM_STRING.area_str
         0x005a4ed2      9efc00f4       suba.w 0xf4, a7
         0x005a4ed6      2f12           move.l (a2), -(a7)
         0x005a4ed8      2f11           move.l (a1), -(a7)
         0x005a4eda      48780000       pea.l 0x0
         0x005a4ede      4eb90044d9f2   jsr SYSTEM_STRING.area_str
         0x005a4ee4      dec1           adda.w d1, a7
         0x005a4ee6      487ae5ef       pea.l 0x5a34d7(pc)
         0x005a4eea      48780009       pea.l 0x9
         0x005a4eee      2f17           move.l (a7), -(a7)
         0x005a4ef0      4e90           jsr (a0)                    ; fcn.00000009
         0x005a4ef2      dec1           adda.w d1, a7
         0x005a4ef4      486f0201       pea.l 0x201(a7)
         0x005a4ef8      42a7           clr.l -(a7)
         0x005a4efa      1f6f02080003   move.b 0x208(a7), 0x3(a7)
         0x005a4f00      2f17           move.l (a7), -(a7)
         0x005a4f02      4e90           jsr (a0)                    ; fcn.00000009
         0x005a4f04      dec1           adda.w d1, a7
         0x005a4f06      487ae5d9       pea.l 0x5a34e1(pc)
         0x005a4f0a      48780007       pea.l 0x7
         0x005a4f0e      2f17           move.l (a7), -(a7)
         0x005a4f10      4e90           jsr (a0)                    ; fcn.00000009
         0x005a4f12      dec1           adda.w d1, a7
         0x005a4f14      486f0101       pea.l 0x101(a7)
         0x005a4f18      42a7           clr.l -(a7)
         0x005a4f1a      1f6f01080003   move.b 0x108(a7), 0x3(a7)
         0x005a4f20      2f17           move.l (a7), -(a7)
         0x005a4f22      4e90           jsr (a0)                    ; fcn.00000009
         0x005a4f24      dec1           adda.w d1, a7
         0x005a4f26      487ae5c1       pea.l 0x5a34e9(pc)
         0x005a4f2a      48780007       pea.l 0x7
         0x005a4f2e      2f17           move.l (a7), -(a7)
         0x005a4f30      4e90           jsr (a0)                    ; fcn.00000009
         0x005a4f32      dec1           adda.w d1, a7
         0x005a4f34      486f0001       pea.l 0x1(a7)
         0x005a4f38      42a7           clr.l -(a7)
         0x005a4f3a      1f6f00080003   move.b 0x8(a7), 0x3(a7)
         0x005a4f40      2f17           move.l (a7), -(a7)
         0x005a4f42      4e90           jsr (a0)                    ; fcn.00000009
         0x005a4f44      defc025e       adda.w 0x25e, a7
         0x005a4f48      4eb900404946   jsr p_wtln_o
   > 0x005a4f4e      1f2e0014       move.b 0x14(a6), -(a7)
           0x005a4f52      2f12           move.l (a2), -(a7)
           0x005a4f54      2f11           move.l (a1), -(a7)
           0x005a4f56      4eb9005223fc   jsr BRUSHCOM.str_write_area
           0x005a4f5c      5c4f           addq.w 0x6, a7
           0x005a4f5e      2e92           move.l (a2), (a7)
           0x005a4f60      2f11           move.l (a1), -(a7)
           0x005a4f62      2f14           move.l (a4), -(a7)
           0x005a4f64      2f13           move.l (a3), -(a7)
           0x005a4f66      3f3ae2ee       move.w 0x5a3256(pc), -(a7)
           0x005a4f6a      2f3ae30a       move.l 0x5a3276(pc), -(a7)
           0x005a4f6e      3f3ae304       move.w 0x5a3274(pc), -(a7)
           0x005a4f72      1f2e0014       move.b 0x14(a6), -(a7)
           0x005a4f76      4eb900525e26   jsr BRUSH1COM.br_tidy_wipe
           0x005a4f7c      defc001a       adda.w 0x1a, a7
           0x005a4f80      4cdf1f03       movem.l (a7)+, d0-d1/a0-a4
           0x005a4f84      4e5e           unlk a6
           0x005a4f86      4e75           rts
            ; CALL XREFS from K05_LOADSAVE.transfer_planes @ 0x5a5de8, 0x5a5edc, 0x5a5f60
 278: K05_LOADSAVE.wipe_difference ();
           ; var int32_t var_8h @ a7+0x8
           ; var int32_t var_5ah @ a7+0x5a
           ; var int32_t var_15ah @ a7+0x15a
           0x005a4f88      4e56fd8a       link.w a6, 0xfd8a
           0x005a4f8c      bfd5           cmpa.l (a5), a7
       < 0x005a4f8e      6206           bhi.b 0x5a4f96
          0x005a4f90      44fc0002       move.w 0x2, ccr
          0x005a4f94      4e76           trapv
       > 0x005a4f96      defc0276       adda.w 0x276, a7
           0x005a4f9a      48e780f0       movem.l d0/a0-a3, -(a7)
           0x005a4f9e      41f9004047ea   lea.l p_wts_o, a0
           0x005a4fa4      43ee0014       lea.l 0x14(a6), a1
           0x005a4fa8      45ee0010       lea.l 0x10(a6), a2
           0x005a4fac      47ee0018       lea.l 0x18(a6), a3
           0x005a4fb0      700c           moveq 0xc, d0
           0x005a4fb2      554f           subq.w 0x2, a7
           0x005a4fb4      1f3c0012       move.b 0x12, -(a7)
           0x005a4fb8      4eb900598cca   jsr K01_DEBUG.k01_debug
           0x005a4fbe      544f           addq.w 0x2, a7
           0x005a4fc0      4a1f           tst.b (a7)+
       < 0x005a4fc2      670000a0       beq.w 0x5a5064
          0x005a4fc6      9efc0100       suba.w 0x100, a7
          0x005a4fca      2f11           move.l (a1), -(a7)
          0x005a4fcc      2f12           move.l (a2), -(a7)
          0x005a4fce      48780000       pea.l 0x0
          0x005a4fd2      4eb90044d9f2   jsr SYSTEM_STRING.area_str
          0x005a4fd8      9efc00f4       suba.w 0xf4, a7
          0x005a4fdc      2f2e000c       move.l 0xc(a6), -(a7)
          0x005a4fe0      2f2e0008       move.l 0x8(a6), -(a7)
          0x005a4fe4      48780000       pea.l 0x0
          0x005a4fe8      4eb90044d9f2   jsr SYSTEM_STRING.area_str
          0x005a4fee      9efc0046       suba.w 0x46, a7
          0x005a4ff2      1f13           move.b (a3), -(a7)
          0x005a4ff4      4eb90044e562   jsr SYSTEM_STRING.store_str
          0x005a4ffa      544f           addq.w 0x2, a7
          0x005a4ffc      487ae4f3       pea.l 0x5a34f1(pc)
          0x005a5000      48780018       pea.l 0x18
          0x005a5004      2f17           move.l (a7), -(a7)
          0x005a5006      4e90           jsr (a0)                    ; fcn.00000009
          0x005a5008      dec0           adda.w d0, a7
          0x005a500a      486f0153       pea.l 0x153(a7)
          0x005a500e      42a7           clr.l -(a7)
          0x005a5010      1f6f015a0003   move.b 0x15a(a7), 0x3(a7)
          0x005a5016      2f17           move.l (a7), -(a7)
          0x005a5018      4e90           jsr (a0)                    ; fcn.00000009
          0x005a501a      dec0           adda.w d0, a7
          0x005a501c      487ae4ec       pea.l 0x5a350a(pc)
          0x005a5020      48780005       pea.l 0x5
          0x005a5024      2f17           move.l (a7), -(a7)
          0x005a5026      4e90           jsr (a0)                    ; fcn.00000009
          0x005a5028      dec0           adda.w d0, a7
          0x005a502a      486f0053       pea.l 0x53(a7)
          0x005a502e      42a7           clr.l -(a7)
          0x005a5030      1f6f005a0003   move.b 0x5a(a7), 0x3(a7)
          0x005a5036      2f17           move.l (a7), -(a7)
          0x005a5038      4e90           jsr (a0)                    ; fcn.00000009
          0x005a503a      dec0           adda.w d0, a7
          0x005a503c      487ae4d2       pea.l 0x5a3510(pc)
          0x005a5040      48780005       pea.l 0x5
          0x005a5044      2f17           move.l (a7), -(a7)
          0x005a5046      4e90           jsr (a0)                    ; fcn.00000009
          0x005a5048      dec0           adda.w d0, a7
          0x005a504a      486f0001       pea.l 0x1(a7)
          0x005a504e      42a7           clr.l -(a7)
          0x005a5050      1f6f00080003   move.b 0x8(a7), 0x3(a7)
          0x005a5056      2f17           move.l (a7), -(a7)
          0x005a5058      4e90           jsr (a0)                    ; fcn.00000009
          0x005a505a      defc025e       adda.w 0x25e, a7
          0x005a505e      4eb900404946   jsr p_wtln_o
       > 0x005a5064      1f13           move.b (a3), -(a7)
           0x005a5066      2f11           move.l (a1), -(a7)
           0x005a5068      2f12           move.l (a2), -(a7)
           0x005a506a      4eb9005223fc   jsr BRUSHCOM.str_write_area
           0x005a5070      5c4f           addq.w 0x6, a7
           0x005a5072      2e91           move.l (a1), (a7)
           0x005a5074      2f12           move.l (a2), -(a7)
           0x005a5076      2f2e000c       move.l 0xc(a6), -(a7)
           0x005a507a      2f2e0008       move.l 0x8(a6), -(a7)
           0x005a507e      3f3ae1d6       move.w 0x5a3256(pc), -(a7)
           0x005a5082      2f3ae1f2       move.l 0x5a3276(pc), -(a7)
           0x005a5086      3f3ae1ec       move.w 0x5a3274(pc), -(a7)
           0x005a508a      1f13           move.b (a3), -(a7)
           0x005a508c      4eb900525e26   jsr BRUSH1COM.br_tidy_wipe
           0x005a5092      defc001a       adda.w 0x1a, a7
           0x005a5096      4cdf0f01       movem.l (a7)+, d0/a0-a3
           0x005a509a      4e5e           unlk a6
           0x005a509c      4e75           rts
            ; CALL XREF from K05_LOADSAVE.k_copy_file @ 0x5a8170
 4158: K05_LOADSAVE.transfer_planes ();
           ; var int32_t var_1db0h @ a6-0x1db0
           ; var int32_t var_1d72h @ a6-0x1d72
           ; var int32_t var_1d6dh @ a6-0x1d6d
           ; var int32_t var_1c2eh @ a6-0x1c2e
           ; var int32_t var_1baah @ a6-0x1baa
           ; var int32_t var_80h @ a6-0x80
           ; var int32_t var_7ch @ a6-0x7c
           ; var int32_t var_78h @ a6-0x78
           ; var int32_t var_74h @ a6-0x74
           ; var int32_t var_70h @ a6-0x70
           ; var int32_t var_6eh @ a6-0x6e
           ; var int32_t var_6ch @ a6-0x6c
           ; var int32_t var_66h @ a6-0x66
           ; var int32_t var_64h @ a6-0x64
           ; var int32_t var_60h @ a6-0x60
           ; var int32_t var_58h @ a6-0x58
           ; var int32_t var_1h @ a7+0x1
           ; var int32_t var_2h @ a7+0x2
           ; var int32_t var_3h @ a7+0x3
           ; var int32_t var_8h @ a7+0x8
           ; var int32_t var_108h @ a7+0x108
           ; var int32_t var_208h @ a7+0x208
           0x005a509e      4e56fc12       link.w a6, 0xfc12
           0x005a50a2      bfd5           cmpa.l (a5), a7
       < 0x005a50a4      6206           bhi.b 0x5a50ac
          0x005a50a6      44fc0002       move.w 0x2, ccr
          0x005a50aa      4e76           trapv
       > 0x005a50ac      defc0346       adda.w 0x346, a7
           0x005a50b0      48e7fff8       movem.l d0-d7/a0-a4, -(a7)
           0x005a50b4      47f80000       lea.l 0x0, a3
           0x005a50b8      49f900598cca   lea.l K01_DEBUG.k01_debug, a4
           0x005a50be      3d7ae456ff9a   move.w 0x5a3516(pc), -0x66(a6)
           0x005a50c4      1f3ae452       move.b 0x5a3518(pc), -(a7)
           0x005a50c8      4eb90063278a   jsr CACHECOM.clear_cache
           0x005a50ce      486effac       pea.l -0x54(a6)
           0x005a50d2      4eb900404434   jsr fcn.00404434
           0x005a50d8      584f           addq.w 0x4, a7
           0x005a50da      4a1f           tst.b (a7)+
       < 0x005a50dc      67000ff0       beq.w 0x5a60ce
          0x005a50e0      7e04           moveq 0x4, d7
          0x005a50e2      206e0016       movea.l 0x16(a6), a0
          0x005a50e6      30280004       move.w 0x4(a0), d0
          0x005a50ea      0c400001       cmpi.w 0x1, d0
      < 0x005a50ee      661c           bne.b 0x5a510c
         0x005a50f0      226e001e       movea.l 0x1e(a6), a1
         0x005a50f4      1211           move.b (a1), d1
         0x005a50f6      4881           ext.w d1
         0x005a50f8      43fae420       lea.l 0x5a351a(pc), a1
         0x005a50fc      3401           move.w d1, d2
         0x005a50fe      e64a           lsr.w 0x3, d2
         0x005a5100      03312000       btst.l d1, (a1, d2.w)
     < 0x005a5104      6704           beq.b 0x5a510a
        0x005a5106      7e01           moveq 0x1, d7
    < 0x005a5108      6002           bra.b 0x5a510c
    > 0x005a510a      7e00           moveq 0x0, d7
    > 0x005a510c      422eff5a       clr.b -0xa6(a6)
          0x005a5110      122e0024       move.b 0x24(a6), d1
          0x005a5114      b22e0022       cmp.b 0x22(a6), d1
      < 0x005a5118      6704           beq.b 0x5a511e
         0x005a511a      7c01           moveq 0x1, d6
     < 0x005a511c      6034           bra.b 0x5a5152
     > 0x005a511e      226e001e       movea.l 0x1e(a6), a1
         0x005a5122      246e001a       movea.l 0x1a(a6), a2
         0x005a5126      1411           move.b (a1), d2
         0x005a5128      b412           cmp.b (a2), d2
     < 0x005a512a      6704           beq.b 0x5a5130
  > 0x005a512c      7c02           moveq 0x2, d6
 < 0x005a512e      6022           bra.b 0x5a5152
 > 0x005a5130      4a2e0010       tst.b 0x10(a6)
 < 0x005a5134      6702           beq.b 0x5a5138
 < 0x005a5136      60f4           bra.b 0x5a512c
  > 0x005a5138      226e0012       movea.l 0x12(a6), a1
      0x005a513c      3410           move.w (a0), d2
      0x005a513e      b451           cmp.w (a1), d2
  < 0x005a5140      6702           beq.b 0x5a5144
  < 0x005a5142      60e8           bra.b 0x5a512c
   > 0x005a5144      34280002       move.w 0x2(a0), d2
       0x005a5148      b4690002       cmp.w 0x2(a1), d2
   < 0x005a514c      6702           beq.b 0x5a5150
   < 0x005a514e      60dc           bra.b 0x5a512c
    > 0x005a5150      7c03           moveq 0x3, d6
 > 0x005a5152      2d7ae3d2ff9c   move.l 0x5a3526(pc), -0x64(a6)
          0x005a5158      342eff9c       move.w -0x64(a6), d2
          0x005a515c      48c2           ext.l d2
          0x005a515e      e182           asl.l 0x8, d2
          0x005a5160      e182           asl.l 0x8, d2
          0x005a5162      2d42ff68       move.l d2, -0x98(a6)
          0x005a5166      342eff9e       move.w -0x62(a6), d2
          0x005a516a      48c2           ext.l d2
          0x005a516c      e182           asl.l 0x8, d2
          0x005a516e      e182           asl.l 0x8, d2
          0x005a5170      2d42ff6c       move.l d2, -0x94(a6)
          0x005a5174      422eff58       clr.b -0xa8(a6)
          0x005a5178      554f           subq.w 0x2, a7
          0x005a517a      1f3c0012       move.b 0x12, -(a7)
          0x005a517e      4e94           jsr (a4)                    ; fcn.0000000d
          0x005a5180      544f           addq.w 0x2, a7
          0x005a5182      4a1f           tst.b (a7)+
      < 0x005a5184      670000a8       beq.w 0x5a522e
         0x005a5188      9efc0100       suba.w 0x100, a7
         0x005a518c      2f2eff9c       move.l -0x64(a6), -(a7)
         0x005a5190      4853           pea.l (a3)
         0x005a5192      4eb90044dd86   jsr SYSTEM_STRING.point_str
         0x005a5198      9efc00f8       suba.w 0xf8, a7
         0x005a519c      4887           ext.w d7
         0x005a519e      4fbc0004       chk.w 0x4, d7
         0x005a51a2      1f07           move.b d7, -(a7)
         0x005a51a4      4eb90044e658   jsr SYSTEM_STRING.plane_str
         0x005a51aa      544f           addq.w 0x2, a7
         0x005a51ac      487ae37d       pea.l 0x5a352b(pc)
         0x005a51b0      4878000a       pea.l 0xa
         0x005a51b4      2f17           move.l (a7), -(a7)
         0x005a51b6      4eb9004047ea   jsr p_wts_o
         0x005a51bc      defc000c       adda.w 0xc, a7
         0x005a51c0      4886           ext.w d6
         0x005a51c2      48c6           ext.l d6
         0x005a51c4      2f06           move.l d6, -(a7)
         0x005a51c6      4853           pea.l (a3)
         0x005a51c8      4eb9004070e4   jsr p_wti_o
         0x005a51ce      504f           addq.w 0x8, a7
         0x005a51d0      487ae364       pea.l 0x5a3536(pc)
         0x005a51d4      4878000a       pea.l 0xa
         0x005a51d8      2f17           move.l (a7), -(a7)
         0x005a51da      4eb9004047ea   jsr p_wts_o
         0x005a51e0      defc000c       adda.w 0xc, a7
         0x005a51e4      486f0101       pea.l 0x101(a7)
         0x005a51e8      42a7           clr.l -(a7)
         0x005a51ea      1f6f01080003   move.b 0x108(a7), 0x3(a7)
         0x005a51f0      2f17           move.l (a7), -(a7)
         0x005a51f2      4eb9004047ea   jsr p_wts_o
         0x005a51f8      defc000c       adda.w 0xc, a7
         0x005a51fc      487ae343       pea.l 0x5a3541(pc)
         0x005a5200      48780014       pea.l 0x14
         0x005a5204      2f17           move.l (a7), -(a7)
         0x005a5206      4eb9004047ea   jsr p_wts_o
         0x005a520c      defc000c       adda.w 0xc, a7
         0x005a5210      486f0001       pea.l 0x1(a7)
         0x005a5214      42a7           clr.l -(a7)
         0x005a5216      1f6f00080003   move.b 0x8(a7), 0x3(a7)
         0x005a521c      2f17           move.l (a7), -(a7)
         0x005a521e      4eb9004047ea   jsr p_wts_o
         0x005a5224      defc020c       adda.w 0x20c, a7
         0x005a5228      4eb900404946   jsr p_wtln_o
      > 0x005a522e      4886           ext.w d6
          0x005a5230      4dbc0003       chk.w 0x3, d6
          0x005a5234      554f           subq.w 0x2, a7
          0x005a5236      1f01           move.b d1, -(a7)
          0x005a5238      226e002a       movea.l 0x2a(a6), a1
          0x005a523c      4851           pea.l (a1)
          0x005a523e      2f2eff6c       move.l -0x94(a6), -(a7)
          0x005a5242      2f2eff68       move.l -0x98(a6), -(a7)
          0x005a5246      122eff58       move.b -0xa8(a6), d1
          0x005a524a      4881           ext.w d1
          0x005a524c      43bc0001       chk.w 0x1, d1
          0x005a5250      1f01           move.b d1, -(a7)
          0x005a5252      2f2eff5c       move.l -0xa4(a6), -(a7)
          0x005a5256      3f2eff5a       move.w -0xa6(a6), -(a7)
          0x005a525a      486effa8       pea.l -0x58(a6)
          0x005a525e      4227           clr.b -(a7)
          0x005a5260      4887           ext.w d7
          0x005a5262      4fbc0004       chk.w 0x4, d7
          0x005a5266      1f07           move.b d7, -(a7)
          0x005a5268      1f06           move.b d6, -(a7)
          0x005a526a      4eb9005ac13e   jsr K1_AFS_ONLY.k1_load
          0x005a5270      defc0020       adda.w 0x20, a7
          0x005a5274      3d57ff9a       move.w (a7), -0x66(a6)
          0x005a5278      9efc0100       suba.w 0x100, a7
          0x005a527c      224f           movea.l a7, a1
          0x005a527e      45fae2d5       lea.l 0x5a3555(pc), a2
          0x005a5282      7214           moveq 0x14, d1
      > 0x005a5284      12da           move.b (a2)+, (a1)+
      < 0x005a5286      51c9fffc       dbra d1, 0x5a5284
          0x005a528a      3f2eff9a       move.w -0x66(a6), -(a7)
          0x005a528e      4ebaf268       jsr K05_LOADSAVE.warn_if_fail(pc)
          0x005a5292      defc0102       adda.w 0x102, a7
          0x005a5296      4a1f           tst.b (a7)+
      < 0x005a5298      670c           beq.b 0x5a52a6
         0x005a529a      486effac       pea.l -0x54(a6)
         0x005a529e      4eb900404468   jsr fcn.00404468
         0x005a52a4      584f           addq.w 0x4, a7
      > 0x005a52a6      422eff98       clr.b -0x68(a6)
          0x005a52aa      3210           move.w (a0), d1
          0x005a52ac      b26effa8       cmp.w -0x58(a6), d1
      < 0x005a52b0      6766           beq.b 0x5a5318
         0x005a52b2      487ae2b7       pea.l 0x5a356b(pc)
         0x005a52b6      48780010       pea.l 0x10
         0x005a52ba      2f17           move.l (a7), -(a7)
         0x005a52bc      4eb9004047ea   jsr p_wts_o
         0x005a52c2      defc000c       adda.w 0xc, a7
         0x005a52c6      342effa8       move.w -0x58(a6), d2
         0x005a52ca      48c2           ext.l d2
         0x005a52cc      2f02           move.l d2, -(a7)
         0x005a52ce      4853           pea.l (a3)
         0x005a52d0      4eb9004070e4   jsr p_wti_o
         0x005a52d6      504f           addq.w 0x8, a7
         0x005a52d8      487ae2a2       pea.l 0x5a357c(pc)
         0x005a52dc      48780018       pea.l 0x18
         0x005a52e0      2f17           move.l (a7), -(a7)
         0x005a52e2      4eb9004047ea   jsr p_wts_o
         0x005a52e8      defc000c       adda.w 0xc, a7
         0x005a52ec      48c1           ext.l d1
         0x005a52ee      2f01           move.l d1, -(a7)
         0x005a52f0      4853           pea.l (a3)
         0x005a52f2      4eb9004070e4   jsr p_wti_o
         0x005a52f8      504f           addq.w 0x8, a7
         0x005a52fa      4eb900404946   jsr p_wtln_o
         0x005a5300      1d7ae293ff9a   move.b 0x5a3595(pc), -0x66(a6)
         0x005a5306      1d7ae28eff9b   move.b 0x5a3596(pc), -0x65(a6)
         0x005a530c      486effac       pea.l -0x54(a6)
         0x005a5310      4eb900404468   jsr fcn.00404468
         0x005a5316      584f           addq.w 0x4, a7
      > 0x005a5318      34280002       move.w 0x2(a0), d2
          0x005a531c      b46effaa       cmp.w -0x56(a6), d2
      < 0x005a5320      6760           beq.b 0x5a5382
         0x005a5322      487ae274       pea.l 0x5a3598(pc)
         0x005a5326      48780010       pea.l 0x10
         0x005a532a      2f17           move.l (a7), -(a7)
         0x005a532c      4eb9004047ea   jsr p_wts_o
         0x005a5332      defc000c       adda.w 0xc, a7
         0x005a5336      362effaa       move.w -0x56(a6), d3
         0x005a533a      48c3           ext.l d3
         0x005a533c      2f03           move.l d3, -(a7)
         0x005a533e      4853           pea.l (a3)
         0x005a5340      4eb9004070e4   jsr p_wti_o
         0x005a5346      504f           addq.w 0x8, a7
         0x005a5348      487ae25f       pea.l 0x5a35a9(pc)
         0x005a534c      48780018       pea.l 0x18
         0x005a5350      2f17           move.l (a7), -(a7)
         0x005a5352      4eb9004047ea   jsr p_wts_o
         0x005a5358      defc000c       adda.w 0xc, a7
         0x005a535c      48c2           ext.l d2
         0x005a535e      2f02           move.l d2, -(a7)
         0x005a5360      4853           pea.l (a3)
         0x005a5362      4eb9004070e4   jsr p_wti_o
         0x005a5368      504f           addq.w 0x8, a7
         0x005a536a      4eb900404946   jsr p_wtln_o
         0x005a5370      3d7ae250ff9a   move.w 0x5a35c2(pc), -0x66(a6)
         0x005a5376      486effac       pea.l -0x54(a6)
         0x005a537a      4eb900404468   jsr fcn.00404468
         0x005a5380      584f           addq.w 0x4, a7
      > 0x005a5382      2d6eff9cff90   move.l -0x64(a6), -0x70(a6)
          0x005a5388      2d6effa8ff94   move.l -0x58(a6), -0x6c(a6)
          0x005a538e      554f           subq.w 0x2, a7
          0x005a5390      1f3c0012       move.b 0x12, -(a7)
          0x005a5394      4e94           jsr (a4)                    ; fcn.0000000d
          0x005a5396      544f           addq.w 0x2, a7
          0x005a5398      4a1f           tst.b (a7)+
      < 0x005a539a      674a           beq.b 0x5a53e6
         0x005a539c      9efc0100       suba.w 0x100, a7
         0x005a53a0      2f2eff94       move.l -0x6c(a6), -(a7)
         0x005a53a4      2f2eff90       move.l -0x70(a6), -(a7)
         0x005a53a8      4853           pea.l (a3)
         0x005a53aa      4eb90044d9f2   jsr SYSTEM_STRING.area_str
         0x005a53b0      defc000c       adda.w 0xc, a7
         0x005a53b4      487ae20f       pea.l 0x5a35c5(pc)
         0x005a53b8      48780018       pea.l 0x18
         0x005a53bc      2f17           move.l (a7), -(a7)
         0x005a53be      4eb9004047ea   jsr p_wts_o
         0x005a53c4      defc000c       adda.w 0xc, a7
         0x005a53c8      486f0001       pea.l 0x1(a7)
         0x005a53cc      42a7           clr.l -(a7)
         0x005a53ce      1f6f00080003   move.b 0x8(a7), 0x3(a7)
         0x005a53d4      2f17           move.l (a7), -(a7)
         0x005a53d6      4eb9004047ea   jsr p_wts_o
         0x005a53dc      defc010c       adda.w 0x10c, a7
         0x005a53e0      4eb900404946   jsr p_wtln_o
      > 0x005a53e6      206e0012       movea.l 0x12(a6), a0
          0x005a53ea      4227           clr.b -(a7)
          0x005a53ec      594f           subq.w 0x4, a7
          0x005a53ee      1e90           move.b (a0), (a7)
          0x005a53f0      1f6800010001   move.b 0x1(a0), 0x1(a7)
          0x005a53f6      1f6800020002   move.b 0x2(a0), 0x2(a7)
          0x005a53fc      1f6800030003   move.b 0x3(a0), 0x3(a7)
          0x005a5402      2f2eff94       move.l -0x6c(a6), -(a7)
          0x005a5406      2f2eff90       move.l -0x70(a6), -(a7)
          0x005a540a      4ebafa3c       jsr K05_LOADSAVE.wipe_gap(pc)
          0x005a540e      defc000e       adda.w 0xe, a7
          0x005a5412      0c400001       cmpi.w 0x1, d0
      < 0x005a5416      667c           bne.b 0x5a5494
         0x005a5418      30280004       move.w 0x4(a0), d0
         0x005a541c      0c400002       cmpi.w 0x2, d0
     < 0x005a5420      6672           bne.b 0x5a5494
        0x005a5422      554f           subq.w 0x2, a7
        0x005a5424      1f3c0012       move.b 0x12, -(a7)
        0x005a5428      4e94           jsr (a4)                    ; fcn.0000000d
        0x005a542a      544f           addq.w 0x2, a7
        0x005a542c      4a1f           tst.b (a7)+
    < 0x005a542e      671a           beq.b 0x5a544a
       0x005a5430      487ae1ac       pea.l 0x5a35de(pc)
       0x005a5434      4878002a       pea.l 0x2a
       0x005a5438      2f17           move.l (a7), -(a7)
       0x005a543a      4eb9004047ea   jsr p_wts_o
       0x005a5440      defc000c       adda.w 0xc, a7
       0x005a5444      4eb900404946   jsr p_wtln_o
    > 0x005a544a      3f3ade0a       move.w 0x5a3256(pc), -(a7)
        0x005a544e      2f3ade26       move.l 0x5a3276(pc), -(a7)
        0x005a5452      3f3ade20       move.w 0x5a3274(pc), -(a7)
        0x005a5456      4eb900520fe8   jsr BRUSHCOM.set_br_key_colo
        0x005a545c      504f           addq.w 0x8, a7
        0x005a545e      226e001e       movea.l 0x1e(a6), a1
        0x005a5462      1011           move.b (a1), d0
        0x005a5464      4880           ext.w d0
        0x005a5466      43fae1a0       lea.l 0x5a3608(pc), a1
        0x005a546a      3600           move.w d0, d3
        0x005a546c      e64b           lsr.w 0x3, d3
        0x005a546e      01313000       btst.l d0, (a1, d3.w)
    < 0x005a5472      6706           beq.b 0x5a547a
       0x005a5474      4227           clr.b -(a7)
       0x005a5476      4227           clr.b -(a7)
   < 0x005a5478      6006           bra.b 0x5a5480
   > 0x005a547a      4227           clr.b -(a7)
       0x005a547c      1f3c0001       move.b 0x1, -(a7)
   > 0x005a5480      2f2eff94       move.l -0x6c(a6), -(a7)
        0x005a5484      2f2eff90       move.l -0x70(a6), -(a7)
        0x005a5488      4eb9005213b4   jsr BRUSHCOM.br_wipe
        0x005a548e      defc000c       adda.w 0xc, a7
        0x005a5492      7e04           moveq 0x4, d7
     > 0x005a5494      4a2e0010       tst.b 0x10(a6)
      < 0x005a5498      670003ae       beq.w 0x5a5848
         0x005a549c      48c1           ext.l d1
         0x005a549e      2801           move.l d1, d4
         0x005a54a0      4eb900408686   jsr fcn.00408686
         0x005a54a6      262e0008       move.l 0x8(a6), d3
         0x005a54aa      4eb900407e92   jsr fcn.00407e92
         0x005a54b0      4eb900408224   jsr fcn.00408224
         0x005a54b6      0484ffff8000   subi.l 0xffff8000, d4
         0x005a54bc      0c840000ffff   cmpi.l 0xffff, d4
     < 0x005a54c2      6302           bls.b 0x5a54c6
        0x005a54c4      4e4f           trap 0xf
     > 0x005a54c6      0684ffff8000   addi.l 0xffff8000, d4
         0x005a54cc      3d44ffa0       move.w d4, -0x60(a6)
         0x005a54d0      48c2           ext.l d2
         0x005a54d2      2802           move.l d2, d4
         0x005a54d4      4eb900408686   jsr fcn.00408686
         0x005a54da      262e000c       move.l 0xc(a6), d3
         0x005a54de      4eb900407e92   jsr fcn.00407e92
         0x005a54e4      4eb900408224   jsr fcn.00408224
         0x005a54ea      0484ffff8000   subi.l 0xffff8000, d4
         0x005a54f0      0c840000ffff   cmpi.l 0xffff, d4
     < 0x005a54f6      6302           bls.b 0x5a54fa
        0x005a54f8      4e4f           trap 0xf
     > 0x005a54fa      0684ffff8000   addi.l 0xffff8000, d4
         0x005a5500      3d44ffa2       move.w d4, -0x5e(a6)
         0x005a5504      3f04           move.w d4, -(a7)
         0x005a5506      554f           subq.w 0x2, a7
         0x005a5508      1f3c0012       move.b 0x12, -(a7)
         0x005a550c      4e94           jsr (a4)                    ; fcn.0000000d
         0x005a550e      544f           addq.w 0x2, a7
         0x005a5510      4a1f           tst.b (a7)+
     < 0x005a5512      6744           beq.b 0x5a5558
        0x005a5514      9efc0100       suba.w 0x100, a7
        0x005a5518      2f2effa0       move.l -0x60(a6), -(a7)
        0x005a551c      4853           pea.l (a3)
        0x005a551e      4eb90044dd86   jsr SYSTEM_STRING.point_str
        0x005a5524      504f           addq.w 0x8, a7
        0x005a5526      487ae0ed       pea.l 0x5a3615(pc)
        0x005a552a      4878001f       pea.l 0x1f
        0x005a552e      2f17           move.l (a7), -(a7)
        0x005a5530      4eb9004047ea   jsr p_wts_o
        0x005a5536      defc000c       adda.w 0xc, a7
        0x005a553a      486f0001       pea.l 0x1(a7)
        0x005a553e      42a7           clr.l -(a7)
        0x005a5540      1f6f00080003   move.b 0x8(a7), 0x3(a7)
        0x005a5546      2f17           move.l (a7), -(a7)
        0x005a5548      4eb9004047ea   jsr p_wts_o
        0x005a554e      defc010c       adda.w 0x10c, a7
        0x005a5552      4eb900404946   jsr p_wtln_o
     > 0x005a5558      3010           move.w (a0), d0
         0x005a555a      48c0           ext.l d0
         0x005a555c      362effa0       move.w -0x60(a6), d3
         0x005a5560      48c3           ext.l d3
         0x005a5562      4483           neg.l d3
         0x005a5564      d680           add.l d0, d3
         0x005a5566      2803           move.l d3, d4
         0x005a5568      7602           moveq 0x2, d3
         0x005a556a      4eb900406b50   jsr fcn.00406b50
         0x005a5570      3d44ff9c       move.w d4, -0x64(a6)
         0x005a5574      30280002       move.w 0x2(a0), d0
         0x005a5578      48c0           ext.l d0
         0x005a557a      361f           move.w (a7)+, d3
         0x005a557c      48c3           ext.l d3
         0x005a557e      4483           neg.l d3
         0x005a5580      d680           add.l d0, d3
         0x005a5582      2803           move.l d3, d4
         0x005a5584      7602           moveq 0x2, d3
         0x005a5586      4eb900406b50   jsr fcn.00406b50
         0x005a558c      3d44ff9e       move.w d4, -0x62(a6)
         0x005a5590      554f           subq.w 0x2, a7
         0x005a5592      1f3c0012       move.b 0x12, -(a7)
         0x005a5596      4e94           jsr (a4)                    ; fcn.0000000d
         0x005a5598      544f           addq.w 0x2, a7
         0x005a559a      4a1f           tst.b (a7)+
     < 0x005a559c      6744           beq.b 0x5a55e2
        0x005a559e      9efc0100       suba.w 0x100, a7
        0x005a55a2      2f2eff9c       move.l -0x64(a6), -(a7)
        0x005a55a6      4853           pea.l (a3)
        0x005a55a8      4eb90044dd86   jsr SYSTEM_STRING.point_str
        0x005a55ae      504f           addq.w 0x8, a7
        0x005a55b0      487ae083       pea.l 0x5a3635(pc)
        0x005a55b4      48780019       pea.l 0x19
        0x005a55b8      2f17           move.l (a7), -(a7)
        0x005a55ba      4eb9004047ea   jsr p_wts_o
        0x005a55c0      defc000c       adda.w 0xc, a7
        0x005a55c4      486f0001       pea.l 0x1(a7)
        0x005a55c8      42a7           clr.l -(a7)
        0x005a55ca      1f6f00080003   move.b 0x8(a7), 0x3(a7)
        0x005a55d0      2f17           move.l (a7), -(a7)
        0x005a55d2      4eb9004047ea   jsr p_wts_o
        0x005a55d8      defc010c       adda.w 0x10c, a7
        0x005a55dc      4eb900404946   jsr p_wtln_o
     > 0x005a55e2      4a6eff9c       tst.w -0x64(a6)
     < 0x005a55e6      6c04           bge.b 0x5a55ec
        0x005a55e8      426eff9c       clr.w -0x64(a6)
     > 0x005a55ec      4a6eff9e       tst.w -0x62(a6)
     < 0x005a55f0      6c04           bge.b 0x5a55f6
        0x005a55f2      426eff9e       clr.w -0x62(a6)
     > 0x005a55f6      302eff9c       move.w -0x64(a6), d0
         0x005a55fa      48c0           ext.l d0
         0x005a55fc      5080           addq.l 0x8, d0
         0x005a55fe      0480ffff8000   subi.l 0xffff8000, d0
         0x005a5604      0c800000ffff   cmpi.l 0xffff, d0
     < 0x005a560a      6302           bls.b 0x5a560e
        0x005a560c      4e4f           trap 0xf
     > 0x005a560e      0680ffff8000   addi.l 0xffff8000, d0
         0x005a5614      3d40ff9c       move.w d0, -0x64(a6)
         0x005a5618      302eff9e       move.w -0x62(a6), d0
         0x005a561c      48c0           ext.l d0
         0x005a561e      068000000084   addi.l 0x84, d0
         0x005a5624      0480ffff8000   subi.l 0xffff8000, d0
         0x005a562a      0c800000ffff   cmpi.l 0xffff, d0
     < 0x005a5630      6302           bls.b 0x5a5634
        0x005a5632      4e4f           trap 0xf
     > 0x005a5634      0680ffff8000   addi.l 0xffff8000, d0
         0x005a563a      3d40ff9e       move.w d0, -0x62(a6)
         0x005a563e      302eff9c       move.w -0x64(a6), d0
         0x005a5642      48c0           ext.l d0
         0x005a5644      5e80           addq.l 0x7, d0
         0x005a5646      2800           move.l d0, d4
         0x005a5648      7608           moveq 0x8, d3
         0x005a564a      4eb900406b50   jsr fcn.00406b50
         0x005a5650      e784           asl.l 0x3, d4
         0x005a5652      0484ffff8000   subi.l 0xffff8000, d4
         0x005a5658      0c840000ffff   cmpi.l 0xffff, d4
     < 0x005a565e      6302           bls.b 0x5a5662
        0x005a5660      4e4f           trap 0xf
     > 0x005a5662      0684ffff8000   addi.l 0xffff8000, d4
         0x005a5668      3d44ff9c       move.w d4, -0x64(a6)
         0x005a566c      302eff9e       move.w -0x62(a6), d0
         0x005a5670      48c0           ext.l d0
         0x005a5672      5680           addq.l 0x3, d0
         0x005a5674      2800           move.l d0, d4
         0x005a5676      7604           moveq 0x4, d3
         0x005a5678      4eb900406b50   jsr fcn.00406b50
         0x005a567e      e584           asl.l 0x2, d4
         0x005a5680      0484ffff8000   subi.l 0xffff8000, d4
         0x005a5686      0c840000ffff   cmpi.l 0xffff, d4
     < 0x005a568c      6302           bls.b 0x5a5690
        0x005a568e      4e4f           trap 0xf
     > 0x005a5690      0684ffff8000   addi.l 0xffff8000, d4
         0x005a5696      3d44ff9e       move.w d4, -0x62(a6)
         0x005a569a      554f           subq.w 0x2, a7
         0x005a569c      1f3c0012       move.b 0x12, -(a7)
         0x005a56a0      4e94           jsr (a4)                    ; fcn.0000000d
         0x005a56a2      544f           addq.w 0x2, a7
         0x005a56a4      4a1f           tst.b (a7)+
     < 0x005a56a6      6744           beq.b 0x5a56ec
        0x005a56a8      9efc0100       suba.w 0x100, a7
        0x005a56ac      2f2eff9c       move.l -0x64(a6), -(a7)
        0x005a56b0      4853           pea.l (a3)
        0x005a56b2      4eb90044dd86   jsr SYSTEM_STRING.point_str
        0x005a56b8      504f           addq.w 0x8, a7
        0x005a56ba      487adf93       pea.l 0x5a364f(pc)
        0x005a56be      4878000d       pea.l 0xd
        0x005a56c2      2f17           move.l (a7), -(a7)
        0x005a56c4      4eb9004047ea   jsr p_wts_o
        0x005a56ca      defc000c       adda.w 0xc, a7
        0x005a56ce      486f0001       pea.l 0x1(a7)
        0x005a56d2      42a7           clr.l -(a7)
        0x005a56d4      1f6f00080003   move.b 0x8(a7), 0x3(a7)
        0x005a56da      2f17           move.l (a7), -(a7)
        0x005a56dc      4eb9004047ea   jsr p_wts_o
        0x005a56e2      defc010c       adda.w 0x10c, a7
        0x005a56e6      4eb900404946   jsr p_wtln_o
     > 0x005a56ec      302eff9c       move.w -0x64(a6), d0
         0x005a56f0      48c0           ext.l d0
         0x005a56f2      e180           asl.l 0x8, d0
         0x005a56f4      e180           asl.l 0x8, d0
         0x005a56f6      2d40ff68       move.l d0, -0x98(a6)
         0x005a56fa      48c4           ext.l d4
         0x005a56fc      e184           asl.l 0x8, d4
         0x005a56fe      e184           asl.l 0x8, d4
         0x005a5700      2d44ff6c       move.l d4, -0x94(a6)
         0x005a5704      2d6effa0ff8c   move.l -0x60(a6), -0x74(a6)
         0x005a570a      2d6eff9cff88   move.l -0x64(a6), -0x78(a6)
         0x005a5710      1f3c0003       move.b 0x3, -(a7)
         0x005a5714      2f2eff8c       move.l -0x74(a6), -(a7)
         0x005a5718      2f2eff88       move.l -0x78(a6), -(a7)
         0x005a571c      4eb9005223fc   jsr BRUSHCOM.str_write_area
         0x005a5722      defc000a       adda.w 0xa, a7
         0x005a5726      42aeff60       clr.l -0xa0(a6)
         0x005a572a      42aeff64       clr.l -0x9c(a6)
         0x005a572e      3f3cffff       move.w 0xffff, -(a7)
         0x005a5732      4227           clr.b -(a7)
         0x005a5734      2f2eff94       move.l -0x6c(a6), -(a7)
         0x005a5738      2f2eff90       move.l -0x70(a6), -(a7)
         0x005a573c      2f2eff64       move.l -0x9c(a6), -(a7)
         0x005a5740      2f2eff60       move.l -0xa0(a6), -(a7)
         0x005a5744      1f3c0003       move.b 0x3, -(a7)
         0x005a5748      4887           ext.w d7
         0x005a574a      4fbc0004       chk.w 0x4, d7
         0x005a574e      1f07           move.b d7, -(a7)
         0x005a5750      2f2eff6c       move.l -0x94(a6), -(a7)
         0x005a5754      2f2eff68       move.l -0x98(a6), -(a7)
         0x005a5758      7801           moveq 0x1, d4
         0x005a575a      4eb900408686   jsr fcn.00408686
         0x005a5760      2f04           move.l d4, -(a7)
         0x005a5762      7800           moveq 0x0, d4
         0x005a5764      4eb900408686   jsr fcn.00408686
         0x005a576a      2f04           move.l d4, -(a7)
         0x005a576c      2f2e000c       move.l 0xc(a6), -(a7)
         0x005a5770      2f2e0008       move.l 0x8(a6), -(a7)
         0x005a5774      4227           clr.b -(a7)
         0x005a5776      4227           clr.b -(a7)
         0x005a5778      486eff88       pea.l -0x78(a6)
         0x005a577c      486eff99       pea.l -0x67(a6)
         0x005a5780      4eb900526aa8   jsr BRUSH2COM.br_size_2d
         0x005a5786      defc003c       adda.w 0x3c, a7
         0x005a578a      2d6eff88ff90   move.l -0x78(a6), -0x70(a6)
         0x005a5790      2d6eff8cff94   move.l -0x74(a6), -0x6c(a6)
         0x005a5796      1d7c0001ff98   move.b 0x1, -0x68(a6)
         0x005a579c      302eff94       move.w -0x6c(a6), d0
         0x005a57a0      48c0           ext.l d0
         0x005a57a2      81fc0008       divs.w 0x8, d0
         0x005a57a6      2600           move.l d0, d3
         0x005a57a8      4843           swap d3
         0x005a57aa      4a43           tst.w d3
     < 0x005a57ac      6c02           bge.b 0x5a57b0
        0x005a57ae      5043           addq.w 0x8, d3
     > 0x005a57b0      4a43           tst.w d3
     < 0x005a57b2      673c           beq.b 0x5a57f0
        0x005a57b4      487adea7       pea.l 0x5a365d(pc)
        0x005a57b8      48780037       pea.l 0x37
        0x005a57bc      2f17           move.l (a7), -(a7)
        0x005a57be      4eb9004047ea   jsr p_wts_o
        0x005a57c4      defc000c       adda.w 0xc, a7
        0x005a57c8      4eb900404946   jsr p_wtln_o
        0x005a57ce      3600           move.w d0, d3
        0x005a57d0      e743           asl.w 0x3, d3
        0x005a57d2      48c3           ext.l d3
        0x005a57d4      5083           addq.l 0x8, d3
        0x005a57d6      0483ffff8000   subi.l 0xffff8000, d3
        0x005a57dc      0c830000ffff   cmpi.l 0xffff, d3
    < 0x005a57e2      6302           bls.b 0x5a57e6
       0x005a57e4      4e4f           trap 0xf
    > 0x005a57e6      0683ffff8000   addi.l 0xffff8000, d3
        0x005a57ec      3d43ff94       move.w d3, -0x6c(a6)
     > 0x005a57f0      554f           subq.w 0x2, a7
         0x005a57f2      1f3c0012       move.b 0x12, -(a7)
         0x005a57f6      4e94           jsr (a4)                    ; fcn.0000000d
         0x005a57f8      544f           addq.w 0x2, a7
         0x005a57fa      4a1f           tst.b (a7)+
     < 0x005a57fc      674a           beq.b 0x5a5848
        0x005a57fe      9efc0100       suba.w 0x100, a7
        0x005a5802      2f2eff94       move.l -0x6c(a6), -(a7)
        0x005a5806      2f2eff90       move.l -0x70(a6), -(a7)
        0x005a580a      4853           pea.l (a3)
        0x005a580c      4eb90044d9f2   jsr SYSTEM_STRING.area_str
        0x005a5812      defc000c       adda.w 0xc, a7
        0x005a5816      487ade7d       pea.l 0x5a3695(pc)
        0x005a581a      4878001d       pea.l 0x1d
        0x005a581e      2f17           move.l (a7), -(a7)
        0x005a5820      4eb9004047ea   jsr p_wts_o
        0x005a5826      defc000c       adda.w 0xc, a7
        0x005a582a      486f0001       pea.l 0x1(a7)
        0x005a582e      42a7           clr.l -(a7)
        0x005a5830      1f6f00080003   move.b 0x8(a7), 0x3(a7)
        0x005a5836      2f17           move.l (a7), -(a7)
        0x005a5838      4eb9004047ea   jsr p_wts_o
        0x005a583e      defc010c       adda.w 0x10c, a7
        0x005a5842      4eb900404946   jsr p_wtln_o
     > 0x005a5848      2d6eff90ff78   move.l -0x70(a6), -0x88(a6)
          0x005a584e      2d6eff94ff7c   move.l -0x6c(a6), -0x84(a6)
          0x005a5854      3010           move.w (a0), d0
          0x005a5856      b06eff94       cmp.w -0x6c(a6), d0
      < 0x005a585a      660c           bne.b 0x5a5868
         0x005a585c      32280002       move.w 0x2(a0), d1
         0x005a5860      b26eff96       cmp.w -0x6a(a6), d1
     < 0x005a5864      6700013c       beq.w 0x5a59a2
     > 0x005a5868      554f           subq.w 0x2, a7
         0x005a586a      1f3c0012       move.b 0x12, -(a7)
         0x005a586e      4e94           jsr (a4)                    ; fcn.0000000d
         0x005a5870      544f           addq.w 0x2, a7
         0x005a5872      4a1f           tst.b (a7)+
     < 0x005a5874      670000a6       beq.w 0x5a591c
        0x005a5878      9efc0104       suba.w 0x104, a7
        0x005a587c      1e90           move.b (a0), (a7)
        0x005a587e      1f6800010001   move.b 0x1(a0), 0x1(a7)
        0x005a5884      1f6800020002   move.b 0x2(a0), 0x2(a7)
        0x005a588a      1f6800030003   move.b 0x3(a0), 0x3(a7)
        0x005a5890      4853           pea.l (a3)
        0x005a5892      4eb90044dd86   jsr SYSTEM_STRING.point_str
        0x005a5898      9efc00f8       suba.w 0xf8, a7
        0x005a589c      2f2eff94       move.l -0x6c(a6), -(a7)
        0x005a58a0      4853           pea.l (a3)
        0x005a58a2      4eb90044dd86   jsr SYSTEM_STRING.point_str
        0x005a58a8      504f           addq.w 0x8, a7
        0x005a58aa      487ade07       pea.l 0x5a36b3(pc)
        0x005a58ae      4878000b       pea.l 0xb
        0x005a58b2      2f17           move.l (a7), -(a7)
        0x005a58b4      4eb9004047ea   jsr p_wts_o
        0x005a58ba      defc000c       adda.w 0xc, a7
        0x005a58be      486f0101       pea.l 0x101(a7)
        0x005a58c2      42a7           clr.l -(a7)
        0x005a58c4      1f6f01080003   move.b 0x108(a7), 0x3(a7)
        0x005a58ca      2f17           move.l (a7), -(a7)
        0x005a58cc      4eb9004047ea   jsr p_wts_o
        0x005a58d2      defc000c       adda.w 0xc, a7
        0x005a58d6      487adde7       pea.l 0x5a36bf(pc)
        0x005a58da      48780013       pea.l 0x13
        0x005a58de      2f17           move.l (a7), -(a7)
        0x005a58e0      4eb9004047ea   jsr p_wts_o
        0x005a58e6      defc000c       adda.w 0xc, a7
        0x005a58ea      486f0001       pea.l 0x1(a7)
        0x005a58ee      42a7           clr.l -(a7)
        0x005a58f0      1f6f00080003   move.b 0x8(a7), 0x3(a7)
        0x005a58f6      2f17           move.l (a7), -(a7)
        0x005a58f8      4eb9004047ea   jsr p_wts_o
        0x005a58fe      defc020c       adda.w 0x20c, a7
        0x005a5902      487addcf       pea.l 0x5a36d3(pc)
        0x005a5906      48780015       pea.l 0x15
        0x005a590a      2f17           move.l (a7), -(a7)
        0x005a590c      4eb9004047ea   jsr p_wts_o
        0x005a5912      defc000c       adda.w 0xc, a7
        0x005a5916      4eb900404946   jsr p_wtln_o
     > 0x005a591c      322eff96       move.w -0x6a(a6), d1
         0x005a5920      b2680002       cmp.w 0x2(a0), d1
     < 0x005a5924      673c           beq.b 0x5a5962
        0x005a5926      48c1           ext.l d1
        0x005a5928      34280002       move.w 0x2(a0), d2
        0x005a592c      48c2           ext.l d2
        0x005a592e      2601           move.l d1, d3
        0x005a5930      9682           sub.l d2, d3
        0x005a5932      2803           move.l d3, d4
        0x005a5934      7602           moveq 0x2, d3
        0x005a5936      4eb900406b50   jsr fcn.00406b50
        0x005a593c      362eff92       move.w -0x6e(a6), d3
        0x005a5940      48c3           ext.l d3
        0x005a5942      d883           add.l d3, d4
        0x005a5944      0484ffff8000   subi.l 0xffff8000, d4
        0x005a594a      0c840000ffff   cmpi.l 0xffff, d4
    < 0x005a5950      6302           bls.b 0x5a5954
       0x005a5952      4e4f           trap 0xf
    > 0x005a5954      0684ffff8000   addi.l 0xffff8000, d4
        0x005a595a      3d44ff92       move.w d4, -0x6e(a6)
        0x005a595e      3d42ff96       move.w d2, -0x6a(a6)
     > 0x005a5962      b06eff94       cmp.w -0x6c(a6), d0
     < 0x005a5966      673a           beq.b 0x5a59a2
        0x005a5968      322eff94       move.w -0x6c(a6), d1
        0x005a596c      48c1           ext.l d1
        0x005a596e      48c0           ext.l d0
        0x005a5970      9280           sub.l d0, d1
        0x005a5972      2801           move.l d1, d4
        0x005a5974      7602           moveq 0x2, d3
        0x005a5976      4eb900406b50   jsr fcn.00406b50
        0x005a597c      322eff90       move.w -0x70(a6), d1
        0x005a5980      48c1           ext.l d1
        0x005a5982      d881           add.l d1, d4
        0x005a5984      0484ffff8000   subi.l 0xffff8000, d4
        0x005a598a      0c840000ffff   cmpi.l 0xffff, d4
    < 0x005a5990      6302           bls.b 0x5a5994
       0x005a5992      4e4f           trap 0xf
    > 0x005a5994      0684ffff8000   addi.l 0xffff8000, d4
        0x005a599a      3d44ff90       move.w d4, -0x70(a6)
        0x005a599e      3d40ff94       move.w d0, -0x6c(a6)
     > 0x005a59a2      554f           subq.w 0x2, a7
          0x005a59a4      1f3c0012       move.b 0x12, -(a7)
          0x005a59a8      4e94           jsr (a4)                    ; fcn.0000000d
          0x005a59aa      544f           addq.w 0x2, a7
          0x005a59ac      4a1f           tst.b (a7)+
      < 0x005a59ae      674a           beq.b 0x5a59fa
         0x005a59b0      9efc0100       suba.w 0x100, a7
         0x005a59b4      2f2eff94       move.l -0x6c(a6), -(a7)
         0x005a59b8      2f2eff90       move.l -0x70(a6), -(a7)
         0x005a59bc      4853           pea.l (a3)
         0x005a59be      4eb90044d9f2   jsr SYSTEM_STRING.area_str
         0x005a59c4      defc000c       adda.w 0xc, a7
         0x005a59c8      487add1f       pea.l 0x5a36e9(pc)
         0x005a59cc      4878001b       pea.l 0x1b
         0x005a59d0      2f17           move.l (a7), -(a7)
         0x005a59d2      4eb9004047ea   jsr p_wts_o
         0x005a59d8      defc000c       adda.w 0xc, a7
         0x005a59dc      486f0001       pea.l 0x1(a7)
         0x005a59e0      42a7           clr.l -(a7)
         0x005a59e2      1f6f00080003   move.b 0x8(a7), 0x3(a7)
         0x005a59e8      2f17           move.l (a7), -(a7)
         0x005a59ea      4eb9004047ea   jsr p_wts_o
         0x005a59f0      defc010c       adda.w 0x10c, a7
         0x005a59f4      4eb900404946   jsr p_wtln_o
      > 0x005a59fa      302eff90       move.w -0x70(a6), d0
          0x005a59fe      48c0           ext.l d0
          0x005a5a00      81fc0008       divs.w 0x8, d0
          0x005a5a04      4840           swap d0
          0x005a5a06      4a40           tst.w d0
      < 0x005a5a08      6c02           bge.b 0x5a5a0c
         0x005a5a0a      5040           addq.w 0x8, d0
      > 0x005a5a0c      4a40           tst.w d0
      < 0x005a5a0e      6700050a       beq.w 0x5a5f1a
         0x005a5a12      554f           subq.w 0x2, a7
         0x005a5a14      1f3c0012       move.b 0x12, -(a7)
         0x005a5a18      4e94           jsr (a4)                    ; fcn.0000000d
         0x005a5a1a      544f           addq.w 0x2, a7
         0x005a5a1c      4a1f           tst.b (a7)+
     < 0x005a5a1e      671a           beq.b 0x5a5a3a
        0x005a5a20      487adce3       pea.l 0x5a3705(pc)
        0x005a5a24      48780025       pea.l 0x25
        0x005a5a28      2f17           move.l (a7), -(a7)
        0x005a5a2a      4eb9004047ea   jsr p_wts_o
        0x005a5a30      defc000c       adda.w 0xc, a7
        0x005a5a34      4eb900404946   jsr p_wtln_o
     > 0x005a5a3a      3d6eff90ffa4   move.w -0x70(a6), -0x5c(a6)
         0x005a5a40      3d6eff92ffa6   move.w -0x6e(a6), -0x5a(a6)
         0x005a5a46      2d6eff90ff80   move.l -0x70(a6), -0x80(a6)
         0x005a5a4c      2d6eff94ff84   move.l -0x6c(a6), -0x7c(a6)
         0x005a5a52      3d7c0008ff80   move.w 0x8, -0x80(a6)
         0x005a5a58      3d7c0084ff82   move.w 0x84, -0x7e(a6)
         0x005a5a5e      554f           subq.w 0x2, a7
         0x005a5a60      1f3c0012       move.b 0x12, -(a7)
         0x005a5a64      4e94           jsr (a4)                    ; fcn.0000000d
         0x005a5a66      544f           addq.w 0x2, a7
         0x005a5a68      4a1f           tst.b (a7)+
     < 0x005a5a6a      67000088       beq.w 0x5a5af4
        0x005a5a6e      9efc0100       suba.w 0x100, a7
        0x005a5a72      2f2effa4       move.l -0x5c(a6), -(a7)
        0x005a5a76      4853           pea.l (a3)
        0x005a5a78      4eb90044dd86   jsr SYSTEM_STRING.point_str
        0x005a5a7e      9efc00f8       suba.w 0xf8, a7
        0x005a5a82      2f2eff84       move.l -0x7c(a6), -(a7)
        0x005a5a86      2f2eff80       move.l -0x80(a6), -(a7)
        0x005a5a8a      4853           pea.l (a3)
        0x005a5a8c      4eb90044d9f2   jsr SYSTEM_STRING.area_str
        0x005a5a92      defc000c       adda.w 0xc, a7
        0x005a5a96      487adc93       pea.l 0x5a372b(pc)
        0x005a5a9a      48780016       pea.l 0x16
        0x005a5a9e      2f17           move.l (a7), -(a7)
        0x005a5aa0      4eb9004047ea   jsr p_wts_o
        0x005a5aa6      defc000c       adda.w 0xc, a7
        0x005a5aaa      486f0101       pea.l 0x101(a7)
        0x005a5aae      42a7           clr.l -(a7)
        0x005a5ab0      1f6f01080003   move.b 0x108(a7), 0x3(a7)
        0x005a5ab6      2f17           move.l (a7), -(a7)
        0x005a5ab8      4eb9004047ea   jsr p_wts_o
        0x005a5abe      defc000c       adda.w 0xc, a7
        0x005a5ac2      487adc7e       pea.l 0x5a3742(pc)
        0x005a5ac6      4878000a       pea.l 0xa
        0x005a5aca      2f17           move.l (a7), -(a7)
        0x005a5acc      4eb9004047ea   jsr p_wts_o
        0x005a5ad2      defc000c       adda.w 0xc, a7
        0x005a5ad6      486f0001       pea.l 0x1(a7)
        0x005a5ada      42a7           clr.l -(a7)
        0x005a5adc      1f6f00080003   move.b 0x8(a7), 0x3(a7)
        0x005a5ae2      2f17           move.l (a7), -(a7)
        0x005a5ae4      4eb9004047ea   jsr p_wts_o
        0x005a5aea      defc020c       adda.w 0x20c, a7
        0x005a5aee      4eb900404946   jsr p_wtln_o
     > 0x005a5af4      4a2eff98       tst.b -0x68(a6)
     < 0x005a5af8      660002fa       bne.w 0x5a5df4
        0x005a5afc      302effa4       move.w -0x5c(a6), d0
        0x005a5b00      48c0           ext.l d0
        0x005a5b02      81fc0008       divs.w 0x8, d0
        0x005a5b06      4840           swap d0
        0x005a5b08      4a40           tst.w d0
    < 0x005a5b0a      6c02           bge.b 0x5a5b0e
       0x005a5b0c      5040           addq.w 0x8, d0
    > 0x005a5b0e      48c0           ext.l d0
        0x005a5b10      2a00           move.l d0, d5
        0x005a5b12      2d7c00000008.  move.l 0x8, -0xa(a6)
        0x005a5b1a      9baefff6       sub.l d5, -0xa(a6)
        0x005a5b1e      554f           subq.w 0x2, a7
        0x005a5b20      1f3c0012       move.b 0x12, -(a7)
        0x005a5b24      4e94           jsr (a4)                    ; fcn.0000000d
        0x005a5b26      544f           addq.w 0x2, a7
        0x005a5b28      4a1f           tst.b (a7)+
    < 0x005a5b2a      6744           beq.b 0x5a5b70
       0x005a5b2c      487adc1f       pea.l 0x5a374d(pc)
       0x005a5b30      4878000b       pea.l 0xb
       0x005a5b34      2f17           move.l (a7), -(a7)
       0x005a5b36      4eb9004047ea   jsr p_wts_o
       0x005a5b3c      504f           addq.w 0x8, a7
       0x005a5b3e      2eaefff6       move.l -0xa(a6), (a7)
       0x005a5b42      4853           pea.l (a3)
       0x005a5b44      4eb9004070e4   jsr p_wti_o
       0x005a5b4a      504f           addq.w 0x8, a7
       0x005a5b4c      487adc0b       pea.l 0x5a3759(pc)
       0x005a5b50      48780002       pea.l 0x2
       0x005a5b54      2f17           move.l (a7), -(a7)
       0x005a5b56      4eb9004047ea   jsr p_wts_o
       0x005a5b5c      504f           addq.w 0x8, a7
       0x005a5b5e      2e85           move.l d5, (a7)
       0x005a5b60      4853           pea.l (a3)
       0x005a5b62      4eb9004070e4   jsr p_wti_o
       0x005a5b68      504f           addq.w 0x8, a7
       0x005a5b6a      4eb900404946   jsr p_wtln_o
    > 0x005a5b70      302eff80       move.w -0x80(a6), d0
        0x005a5b74      48c0           ext.l d0
        0x005a5b76      9085           sub.l d5, d0
        0x005a5b78      0480ffff8000   subi.l 0xffff8000, d0
        0x005a5b7e      0c800000ffff   cmpi.l 0xffff, d0
    < 0x005a5b84      6302           bls.b 0x5a5b88
       0x005a5b86      4e4f           trap 0xf
    > 0x005a5b88      0680ffff8000   addi.l 0xffff8000, d0
        0x005a5b8e      3d40ff80       move.w d0, -0x80(a6)
        0x005a5b92      302eff84       move.w -0x7c(a6), d0
        0x005a5b96      48c0           ext.l d0
        0x005a5b98      d085           add.l d5, d0
        0x005a5b9a      0480ffff8000   subi.l 0xffff8000, d0
        0x005a5ba0      0c800000ffff   cmpi.l 0xffff, d0
    < 0x005a5ba6      6302           bls.b 0x5a5baa
       0x005a5ba8      4e4f           trap 0xf
    > 0x005a5baa      0680ffff8000   addi.l 0xffff8000, d0
        0x005a5bb0      3d40ff84       move.w d0, -0x7c(a6)
        0x005a5bb4      302effa4       move.w -0x5c(a6), d0
        0x005a5bb8      48c0           ext.l d0
        0x005a5bba      9085           sub.l d5, d0
        0x005a5bbc      0480ffff8000   subi.l 0xffff8000, d0
        0x005a5bc2      0c800000ffff   cmpi.l 0xffff, d0
    < 0x005a5bc8      6302           bls.b 0x5a5bcc
       0x005a5bca      4e4f           trap 0xf
    > 0x005a5bcc      0680ffff8000   addi.l 0xffff8000, d0
        0x005a5bd2      3d40ffa4       move.w d0, -0x5c(a6)
        0x005a5bd6      554f           subq.w 0x2, a7
        0x005a5bd8      1f3c0012       move.b 0x12, -(a7)
        0x005a5bdc      4e94           jsr (a4)                    ; fcn.0000000d
        0x005a5bde      544f           addq.w 0x2, a7
        0x005a5be0      4a1f           tst.b (a7)+
    < 0x005a5be2      670000c6       beq.w 0x5a5caa
       0x005a5be6      9efc0100       suba.w 0x100, a7
       0x005a5bea      4887           ext.w d7
       0x005a5bec      4fbc0004       chk.w 0x4, d7
       0x005a5bf0      1f07           move.b d7, -(a7)
       0x005a5bf2      4eb90044e658   jsr SYSTEM_STRING.plane_str
       0x005a5bf8      9efc00fe       suba.w 0xfe, a7
       0x005a5bfc      2f2effa4       move.l -0x5c(a6), -(a7)
       0x005a5c00      4853           pea.l (a3)
       0x005a5c02      4eb90044dd86   jsr SYSTEM_STRING.point_str
       0x005a5c08      9efc00f8       suba.w 0xf8, a7
       0x005a5c0c      2f2eff84       move.l -0x7c(a6), -(a7)
       0x005a5c10      2f2eff80       move.l -0x80(a6), -(a7)
       0x005a5c14      4853           pea.l (a3)
       0x005a5c16      4eb90044d9f2   jsr SYSTEM_STRING.area_str
       0x005a5c1c      defc000c       adda.w 0xc, a7
       0x005a5c20      487adb3a       pea.l 0x5a375c(pc)
       0x005a5c24      48780011       pea.l 0x11
       0x005a5c28      2f17           move.l (a7), -(a7)
       0x005a5c2a      4eb9004047ea   jsr p_wts_o
       0x005a5c30      defc000c       adda.w 0xc, a7
       0x005a5c34      486f0201       pea.l 0x201(a7)
       0x005a5c38      42a7           clr.l -(a7)
       0x005a5c3a      1f6f02080003   move.b 0x208(a7), 0x3(a7)
       0x005a5c40      2f17           move.l (a7), -(a7)
       0x005a5c42      4eb9004047ea   jsr p_wts_o
       0x005a5c48      defc000c       adda.w 0xc, a7
       0x005a5c4c      487adb20       pea.l 0x5a376e(pc)
       0x005a5c50      48780007       pea.l 0x7
       0x005a5c54      2f17           move.l (a7), -(a7)
       0x005a5c56      4eb9004047ea   jsr p_wts_o
       0x005a5c5c      defc000c       adda.w 0xc, a7
       0x005a5c60      486f0101       pea.l 0x101(a7)
       0x005a5c64      42a7           clr.l -(a7)
       0x005a5c66      1f6f01080003   move.b 0x108(a7), 0x3(a7)
       0x005a5c6c      2f17           move.l (a7), -(a7)
       0x005a5c6e      4eb9004047ea   jsr p_wts_o
       0x005a5c74      defc000c       adda.w 0xc, a7
       0x005a5c78      487adafc       pea.l 0x5a3776(pc)
       0x005a5c7c      4878000d       pea.l 0xd
       0x005a5c80      2f17           move.l (a7), -(a7)
       0x005a5c82      4eb9004047ea   jsr p_wts_o
       0x005a5c88      defc000c       adda.w 0xc, a7
       0x005a5c8c      486f0001       pea.l 0x1(a7)
       0x005a5c90      42a7           clr.l -(a7)
       0x005a5c92      1f6f00080003   move.b 0x8(a7), 0x3(a7)
       0x005a5c98      2f17           move.l (a7), -(a7)
       0x005a5c9a      4eb9004047ea   jsr p_wts_o
       0x005a5ca0      defc030c       adda.w 0x30c, a7
       0x005a5ca4      4eb900404946   jsr p_wtln_o
    > 0x005a5caa      4227           clr.b -(a7)
        0x005a5cac      1f3c0003       move.b 0x3, -(a7)
        0x005a5cb0      4887           ext.w d7
        0x005a5cb2      4fbc0004       chk.w 0x4, d7
        0x005a5cb6      1f07           move.b d7, -(a7)
        0x005a5cb8      2f2effa4       move.l -0x5c(a6), -(a7)
        0x005a5cbc      2f2eff84       move.l -0x7c(a6), -(a7)
        0x005a5cc0      2f2eff80       move.l -0x80(a6), -(a7)
        0x005a5cc4      4eb900522722   jsr BRUSHCOM.str_any_str_cop
        0x005a5cca      defc0012       adda.w 0x12, a7
        0x005a5cce      1d7c0001ff98   move.b 0x1, -0x68(a6)
        0x005a5cd4      302eff80       move.w -0x80(a6), d0
        0x005a5cd8      48c0           ext.l d0
        0x005a5cda      d085           add.l d5, d0
        0x005a5cdc      0480ffff8000   subi.l 0xffff8000, d0
        0x005a5ce2      0c800000ffff   cmpi.l 0xffff, d0
    < 0x005a5ce8      6302           bls.b 0x5a5cec
       0x005a5cea      4e4f           trap 0xf
    > 0x005a5cec      0680ffff8000   addi.l 0xffff8000, d0
        0x005a5cf2      3d40ff80       move.w d0, -0x80(a6)
        0x005a5cf6      302eff84       move.w -0x7c(a6), d0
        0x005a5cfa      48c0           ext.l d0
        0x005a5cfc      9085           sub.l d5, d0
        0x005a5cfe      0480ffff8000   subi.l 0xffff8000, d0
        0x005a5d04      0c800000ffff   cmpi.l 0xffff, d0
    < 0x005a5d0a      6302           bls.b 0x5a5d0e
       0x005a5d0c      4e4f           trap 0xf
    > 0x005a5d0e      0680ffff8000   addi.l 0xffff8000, d0
        0x005a5d14      3d40ff84       move.w d0, -0x7c(a6)
        0x005a5d18      302eff78       move.w -0x88(a6), d0
        0x005a5d1c      48c0           ext.l d0
        0x005a5d1e      322eff90       move.w -0x70(a6), d1
        0x005a5d22      48c1           ext.l d1
        0x005a5d24      4481           neg.l d1
        0x005a5d26      d280           add.l d0, d1
        0x005a5d28      302eff80       move.w -0x80(a6), d0
        0x005a5d2c      48c0           ext.l d0
        0x005a5d2e      d280           add.l d0, d1
        0x005a5d30      0481ffff8000   subi.l 0xffff8000, d1
        0x005a5d36      0c810000ffff   cmpi.l 0xffff, d1
    < 0x005a5d3c      6302           bls.b 0x5a5d40
       0x005a5d3e      4e4f           trap 0xf
    > 0x005a5d40      0681ffff8000   addi.l 0xffff8000, d1
        0x005a5d46      3d41ff78       move.w d1, -0x88(a6)
        0x005a5d4a      302eff7a       move.w -0x86(a6), d0
        0x005a5d4e      48c0           ext.l d0
        0x005a5d50      322eff92       move.w -0x6e(a6), d1
        0x005a5d54      48c1           ext.l d1
        0x005a5d56      4481           neg.l d1
        0x005a5d58      d280           add.l d0, d1
        0x005a5d5a      302eff82       move.w -0x7e(a6), d0
        0x005a5d5e      48c0           ext.l d0
        0x005a5d60      d280           add.l d0, d1
        0x005a5d62      0481ffff8000   subi.l 0xffff8000, d1
        0x005a5d68      0c810000ffff   cmpi.l 0xffff, d1
    < 0x005a5d6e      6302           bls.b 0x5a5d72
       0x005a5d70      4e4f           trap 0xf
    > 0x005a5d72      0681ffff8000   addi.l 0xffff8000, d1
        0x005a5d78      3d41ff7a       move.w d1, -0x86(a6)
        0x005a5d7c      554f           subq.w 0x2, a7
        0x005a5d7e      1f3c0012       move.b 0x12, -(a7)
        0x005a5d82      4e94           jsr (a4)                    ; fcn.0000000d
        0x005a5d84      544f           addq.w 0x2, a7
        0x005a5d86      4a1f           tst.b (a7)+
    < 0x005a5d88      674a           beq.b 0x5a5dd4
       0x005a5d8a      9efc0100       suba.w 0x100, a7
       0x005a5d8e      2f2eff7c       move.l -0x84(a6), -(a7)
       0x005a5d92      2f2eff78       move.l -0x88(a6), -(a7)
       0x005a5d96      4853           pea.l (a3)
       0x005a5d98      4eb90044d9f2   jsr SYSTEM_STRING.area_str
       0x005a5d9e      defc000c       adda.w 0xc, a7
       0x005a5da2      487ad9e0       pea.l 0x5a3784(pc)
       0x005a5da6      48780013       pea.l 0x13
       0x005a5daa      2f17           move.l (a7), -(a7)
       0x005a5dac      4eb9004047ea   jsr p_wts_o
       0x005a5db2      defc000c       adda.w 0xc, a7
       0x005a5db6      486f0001       pea.l 0x1(a7)
       0x005a5dba      42a7           clr.l -(a7)
       0x005a5dbc      1f6f00080003   move.b 0x8(a7), 0x3(a7)
       0x005a5dc2      2f17           move.l (a7), -(a7)
       0x005a5dc4      4eb9004047ea   jsr p_wts_o
       0x005a5dca      defc010c       adda.w 0x10c, a7
       0x005a5dce      4eb900404946   jsr p_wtln_o
    > 0x005a5dd4      1f3c0003       move.b 0x3, -(a7)
        0x005a5dd8      2f2eff84       move.l -0x7c(a6), -(a7)
        0x005a5ddc      2f2eff80       move.l -0x80(a6), -(a7)
        0x005a5de0      2f2eff7c       move.l -0x84(a6), -(a7)
        0x005a5de4      2f2eff78       move.l -0x88(a6), -(a7)
        0x005a5de8      4ebaf19e       jsr K05_LOADSAVE.wipe_difference(pc)
        0x005a5dec      defc0012       adda.w 0x12, a7
    < 0x005a5df0      6000011a       bra.w 0x5a5f0c
    > 0x005a5df4      554f           subq.w 0x2, a7
        0x005a5df6      1f3c0012       move.b 0x12, -(a7)
        0x005a5dfa      4e94           jsr (a4)                    ; fcn.0000000d
        0x005a5dfc      544f           addq.w 0x2, a7
        0x005a5dfe      4a1f           tst.b (a7)+
    < 0x005a5e00      670000c6       beq.w 0x5a5ec8
       0x005a5e04      9efc0100       suba.w 0x100, a7
       0x005a5e08      4887           ext.w d7
       0x005a5e0a      4fbc0004       chk.w 0x4, d7
       0x005a5e0e      1f07           move.b d7, -(a7)
       0x005a5e10      4eb90044e658   jsr SYSTEM_STRING.plane_str
       0x005a5e16      9efc00fe       suba.w 0xfe, a7
       0x005a5e1a      2f2effa4       move.l -0x5c(a6), -(a7)
       0x005a5e1e      4853           pea.l (a3)
       0x005a5e20      4eb90044dd86   jsr SYSTEM_STRING.point_str
       0x005a5e26      9efc00f8       suba.w 0xf8, a7
       0x005a5e2a      2f2eff84       move.l -0x7c(a6), -(a7)
       0x005a5e2e      2f2eff80       move.l -0x80(a6), -(a7)
       0x005a5e32      4853           pea.l (a3)
       0x005a5e34      4eb90044d9f2   jsr SYSTEM_STRING.area_str
       0x005a5e3a      defc000c       adda.w 0xc, a7
       0x005a5e3e      487ad958       pea.l 0x5a3798(pc)
       0x005a5e42      48780008       pea.l 0x8
       0x005a5e46      2f17           move.l (a7), -(a7)
       0x005a5e48      4eb9004047ea   jsr p_wts_o
       0x005a5e4e      defc000c       adda.w 0xc, a7
       0x005a5e52      486f0201       pea.l 0x201(a7)
       0x005a5e56      42a7           clr.l -(a7)
       0x005a5e58      1f6f02080003   move.b 0x208(a7), 0x3(a7)
       0x005a5e5e      2f17           move.l (a7), -(a7)
       0x005a5e60      4eb9004047ea   jsr p_wts_o
       0x005a5e66      defc000c       adda.w 0xc, a7
       0x005a5e6a      487ad935       pea.l 0x5a37a1(pc)
       0x005a5e6e      48780007       pea.l 0x7
       0x005a5e72      2f17           move.l (a7), -(a7)
       0x005a5e74      4eb9004047ea   jsr p_wts_o
       0x005a5e7a      defc000c       adda.w 0xc, a7
       0x005a5e7e      486f0101       pea.l 0x101(a7)
       0x005a5e82      42a7           clr.l -(a7)
       0x005a5e84      1f6f01080003   move.b 0x108(a7), 0x3(a7)
       0x005a5e8a      2f17           move.l (a7), -(a7)
       0x005a5e8c      4eb9004047ea   jsr p_wts_o
       0x005a5e92      defc000c       adda.w 0xc, a7
       0x005a5e96      487ad911       pea.l 0x5a37a9(pc)
       0x005a5e9a      4878000c       pea.l 0xc
       0x005a5e9e      2f17           move.l (a7), -(a7)
       0x005a5ea0      4eb9004047ea   jsr p_wts_o
       0x005a5ea6      defc000c       adda.w 0xc, a7
       0x005a5eaa      486f0001       pea.l 0x1(a7)
       0x005a5eae      42a7           clr.l -(a7)
       0x005a5eb0      1f6f00080003   move.b 0x8(a7), 0x3(a7)
       0x005a5eb6      2f17           move.l (a7), -(a7)
       0x005a5eb8      4eb9004047ea   jsr p_wts_o
       0x005a5ebe      defc030c       adda.w 0x30c, a7
       0x005a5ec2      4eb900404946   jsr p_wtln_o
    > 0x005a5ec8      1f3c0003       move.b 0x3, -(a7)
        0x005a5ecc      2f2eff84       move.l -0x7c(a6), -(a7)
        0x005a5ed0      2f2eff80       move.l -0x80(a6), -(a7)
        0x005a5ed4      2f2eff7c       move.l -0x84(a6), -(a7)
        0x005a5ed8      2f2eff78       move.l -0x88(a6), -(a7)
        0x005a5edc      4ebaf0aa       jsr K05_LOADSAVE.wipe_difference(pc)
        0x005a5ee0      defc0010       adda.w 0x10, a7
        0x005a5ee4      1ebc0003       move.b 0x3, (a7)
        0x005a5ee8      4227           clr.b -(a7)
        0x005a5eea      4887           ext.w d7
        0x005a5eec      4fbc0004       chk.w 0x4, d7
        0x005a5ef0      1f07           move.b d7, -(a7)
        0x005a5ef2      2f2effa4       move.l -0x5c(a6), -(a7)
        0x005a5ef6      2f2eff84       move.l -0x7c(a6), -(a7)
        0x005a5efa      2f2eff80       move.l -0x80(a6), -(a7)
        0x005a5efe      4eb900522722   jsr BRUSHCOM.str_any_str_cop
        0x005a5f04      defc0012       adda.w 0x12, a7
        0x005a5f08      422eff98       clr.b -0x68(a6)
    > 0x005a5f0c      2d6eff80ff90   move.l -0x80(a6), -0x70(a6)
         0x005a5f12      2d6eff84ff94   move.l -0x7c(a6), -0x6c(a6)
     < 0x005a5f18      604e           bra.b 0x5a5f68
     > 0x005a5f1a      554f           subq.w 0x2, a7
         0x005a5f1c      1f3c0012       move.b 0x12, -(a7)
         0x005a5f20      4e94           jsr (a4)                    ; fcn.0000000d
         0x005a5f22      544f           addq.w 0x2, a7
         0x005a5f24      4a1f           tst.b (a7)+
     < 0x005a5f26      671a           beq.b 0x5a5f42
        0x005a5f28      487ad88c       pea.l 0x5a37b6(pc)
        0x005a5f2c      4878000d       pea.l 0xd
        0x005a5f30      2f17           move.l (a7), -(a7)
        0x005a5f32      4eb9004047ea   jsr p_wts_o
        0x005a5f38      defc000c       adda.w 0xc, a7
        0x005a5f3c      4eb900404946   jsr p_wtln_o
     > 0x005a5f42      4a2eff98       tst.b -0x68(a6)
     < 0x005a5f46      6706           beq.b 0x5a5f4e
        0x005a5f48      1f3c0003       move.b 0x3, -(a7)
    < 0x005a5f4c      6002           bra.b 0x5a5f50
    > 0x005a5f4e      4227           clr.b -(a7)
    > 0x005a5f50      2f2eff94       move.l -0x6c(a6), -(a7)
         0x005a5f54      2f2eff90       move.l -0x70(a6), -(a7)
         0x005a5f58      2f2eff7c       move.l -0x84(a6), -(a7)
         0x005a5f5c      2f2eff78       move.l -0x88(a6), -(a7)
         0x005a5f60      4ebaf026       jsr K05_LOADSAVE.wipe_difference(pc)
         0x005a5f64      defc0012       adda.w 0x12, a7
     > 0x005a5f68      422eff5a       clr.b -0xa6(a6)
          0x005a5f6c      422eff58       clr.b -0xa8(a6)
          0x005a5f70      554f           subq.w 0x2, a7
          0x005a5f72      1f3c0012       move.b 0x12, -(a7)
          0x005a5f76      4e94           jsr (a4)                    ; fcn.0000000d
          0x005a5f78      544f           addq.w 0x2, a7
          0x005a5f7a      4a1f           tst.b (a7)+
      < 0x005a5f7c      670000ac       beq.w 0x5a602a
         0x005a5f80      9efc0100       suba.w 0x100, a7
         0x005a5f84      2f2eff94       move.l -0x6c(a6), -(a7)
         0x005a5f88      2f2eff90       move.l -0x70(a6), -(a7)
         0x005a5f8c      4853           pea.l (a3)
         0x005a5f8e      4eb90044d9f2   jsr SYSTEM_STRING.area_str
         0x005a5f94      9efc00f4       suba.w 0xf4, a7
         0x005a5f98      4887           ext.w d7
         0x005a5f9a      4fbc0004       chk.w 0x4, d7
         0x005a5f9e      1f07           move.b d7, -(a7)
         0x005a5fa0      4eb90044e658   jsr SYSTEM_STRING.plane_str
         0x005a5fa6      544f           addq.w 0x2, a7
         0x005a5fa8      487ad81a       pea.l 0x5a37c4(pc)
         0x005a5fac      4878000c       pea.l 0xc
         0x005a5fb0      2f17           move.l (a7), -(a7)
         0x005a5fb2      4eb9004047ea   jsr p_wts_o
         0x005a5fb8      defc000c       adda.w 0xc, a7
         0x005a5fbc      486f0101       pea.l 0x101(a7)
         0x005a5fc0      42a7           clr.l -(a7)
         0x005a5fc2      1f6f01080003   move.b 0x108(a7), 0x3(a7)
         0x005a5fc8      2f17           move.l (a7), -(a7)
         0x005a5fca      4eb9004047ea   jsr p_wts_o
         0x005a5fd0      defc000c       adda.w 0xc, a7
         0x005a5fd4      487ad7fb       pea.l 0x5a37d1(pc)
         0x005a5fd8      4878000d       pea.l 0xd
         0x005a5fdc      2f17           move.l (a7), -(a7)
         0x005a5fde      4eb9004047ea   jsr p_wts_o
         0x005a5fe4      defc000a       adda.w 0xa, a7
         0x005a5fe8      1eaeff98       move.b -0x68(a6), (a7)
         0x005a5fec      48780005       pea.l 0x5
         0x005a5ff0      4eb90040718c   jsr p_wtb_o
         0x005a5ff6      5c4f           addq.w 0x6, a7
         0x005a5ff8      487ad7e5       pea.l 0x5a37df(pc)
         0x005a5ffc      48780002       pea.l 0x2
         0x005a6000      2f17           move.l (a7), -(a7)
         0x005a6002      4eb9004047ea   jsr p_wts_o
         0x005a6008      defc000c       adda.w 0xc, a7
         0x005a600c      486f0001       pea.l 0x1(a7)
         0x005a6010      42a7           clr.l -(a7)
         0x005a6012      1f6f00080003   move.b 0x8(a7), 0x3(a7)
         0x005a6018      2f17           move.l (a7), -(a7)
         0x005a601a      4eb9004047ea   jsr p_wts_o
         0x005a6020      defc020c       adda.w 0x20c, a7
         0x005a6024      4eb900404946   jsr p_wtln_o
      > 0x005a602a      4a2eff98       tst.b -0x68(a6)
      < 0x005a602e      672e           beq.b 0x5a605e
         0x005a6030      554f           subq.w 0x2, a7
         0x005a6032      1f2e0022       move.b 0x22(a6), -(a7)
         0x005a6036      206e0026       movea.l 0x26(a6), a0
         0x005a603a      4850           pea.l (a0)
         0x005a603c      2f2eff94       move.l -0x6c(a6), -(a7)
         0x005a6040      2f2eff90       move.l -0x70(a6), -(a7)
         0x005a6044      102eff58       move.b -0xa8(a6), d0
         0x005a6048      4880           ext.w d0
         0x005a604a      41bc0001       chk.w 0x1, d0
         0x005a604e      1f00           move.b d0, -(a7)
         0x005a6050      2f2eff5c       move.l -0xa4(a6), -(a7)
         0x005a6054      3f2eff5a       move.w -0xa6(a6), -(a7)
         0x005a6058      1f3c0003       move.b 0x3, -(a7)
     < 0x005a605c      602a           bra.b 0x5a6088
     > 0x005a605e      554f           subq.w 0x2, a7
         0x005a6060      1f2e0022       move.b 0x22(a6), -(a7)
         0x005a6064      206e0026       movea.l 0x26(a6), a0
         0x005a6068      4850           pea.l (a0)
         0x005a606a      2f2eff94       move.l -0x6c(a6), -(a7)
         0x005a606e      2f2eff90       move.l -0x70(a6), -(a7)
         0x005a6072      102eff58       move.b -0xa8(a6), d0
         0x005a6076      4880           ext.w d0
         0x005a6078      41bc0001       chk.w 0x1, d0
         0x005a607c      1f00           move.b d0, -(a7)
         0x005a607e      2f2eff5c       move.l -0xa4(a6), -(a7)
         0x005a6082      3f2eff5a       move.w -0xa6(a6), -(a7)
         0x005a6086      4227           clr.b -(a7)
     > 0x005a6088      4887           ext.w d7
          0x005a608a      4fbc0004       chk.w 0x4, d7
          0x005a608e      1f07           move.b d7, -(a7)
          0x005a6090      1f06           move.b d6, -(a7)
          0x005a6092      4eb9005ac02a   jsr K1_AFS_ONLY.k1_save
          0x005a6098      defc001c       adda.w 0x1c, a7
          0x005a609c      3d5fff9a       move.w (a7)+, -0x66(a6)
          0x005a60a0      9efc0102       suba.w 0x102, a7
          0x005a60a4      204f           movea.l a7, a0
          0x005a60a6      43fad739       lea.l 0x5a37e1(pc), a1
          0x005a60aa      7013           moveq 0x13, d0
      > 0x005a60ac      10d9           move.b (a1)+, (a0)+
      < 0x005a60ae      51c8fffc       dbra d0, 0x5a60ac
          0x005a60b2      3f2eff9a       move.w -0x66(a6), -(a7)
          0x005a60b6      4ebae440       jsr K05_LOADSAVE.warn_if_fail(pc)
          0x005a60ba      defc0102       adda.w 0x102, a7
          0x005a60be      4a1f           tst.b (a7)+
      < 0x005a60c0      670c           beq.b 0x5a60ce
         0x005a60c2      486effac       pea.l -0x54(a6)
         0x005a60c6      4eb900404468   jsr fcn.00404468
         0x005a60cc      584f           addq.w 0x4, a7
      > 0x005a60ce      3d6eff9a002e   move.w -0x66(a6), 0x2e(a6)
           0x005a60d4      4cdf1fff       movem.l (a7)+, d0-d7/a0-a4
           0x005a60d8      4e5e           unlk a6
           0x005a60da      4e75           rts
            ; CALL XREFS from K05_LOADSAVE.copy_file_byte_ @ 0x5a75da, 0x5a7646
 338: K05_LOADSAVE.copy_chunk ();
           0x005a60dc      4e56fe80       link.w a6, 0xfe80
           0x005a60e0      bfd5           cmpa.l (a5), a7
       < 0x005a60e2      6206           bhi.b 0x5a60ea
          0x005a60e4      44fc0002       move.w 0x2, ccr
          0x005a60e8      4e76           trapv
       > 0x005a60ea      defc012c       adda.w 0x12c, a7
           0x005a60ee      48e798f8       movem.l d0/d3-d4/a0-a4, -(a7)
           0x005a60f2      45eeffb4       lea.l -0x4c(a6), a2
           0x005a60f6      47eeffb6       lea.l -0x4a(a6), a3
           0x005a60fa      49ee000c       lea.l 0xc(a6), a4
           0x005a60fe      34bad6f6       move.w 0x5a37f6(pc), (a2)
           0x005a6102      554f           subq.w 0x2, a7
           0x005a6104      4853           pea.l (a3)
           0x005a6106      4eb900404434   jsr fcn.00404434
           0x005a610c      584f           addq.w 0x4, a7
           0x005a610e      4a1f           tst.b (a7)+
       < 0x005a6110      67000110       beq.w 0x5a6222
          0x005a6114      4a2e0008       tst.b 0x8(a6)
      < 0x005a6118      670a           beq.b 0x5a6124
         0x005a611a      487ad6dd       pea.l 0x5a37f9(pc)
         0x005a611e      48780016       pea.l 0x16
     < 0x005a6122      6008           bra.b 0x5a612c
     > 0x005a6124      487ad6ea       pea.l 0x5a3810(pc)
         0x005a6128      48780013       pea.l 0x13
     > 0x005a612c      2f17           move.l (a7), -(a7)
          0x005a612e      4eb9004047ea   jsr p_wts_o
          0x005a6134      504f           addq.w 0x8, a7
          0x005a6136      2eae0010       move.l 0x10(a6), (a7)
          0x005a613a      48780000       pea.l 0x0
          0x005a613e      4eb9004070e4   jsr p_wti_o
          0x005a6144      504f           addq.w 0x8, a7
          0x005a6146      4eb900404946   jsr p_wtln_o
          0x005a614c      282e0010       move.l 0x10(a6), d4
          0x005a6150      263c0000a000   move.l 0xa000, d3
          0x005a6156      4eb900406a74   jsr fcn.00406a74
          0x005a615c      554f           subq.w 0x2, a7
          0x005a615e      1f2e001e       move.b 0x1e(a6), -(a7)
          0x005a6162      206e0024       movea.l 0x24(a6), a0
          0x005a6166      4850           pea.l (a0)
          0x005a6168      2f04           move.l d4, -(a7)
          0x005a616a      2f2e0018       move.l 0x18(a6), -(a7)
          0x005a616e      2f14           move.l (a4), -(a7)
          0x005a6170      4eb9005ac0b8   jsr K1_AFS_ONLY.k1_read_mem_fil
          0x005a6176      defc0012       adda.w 0x12, a7
          0x005a617a      3497           move.w (a7), (a2)
          0x005a617c      9efc0100       suba.w 0x100, a7
          0x005a6180      204f           movea.l a7, a0
          0x005a6182      43fad69f       lea.l 0x5a3823(pc), a1
          0x005a6186      7012           moveq 0x12, d0
      > 0x005a6188      10d9           move.b (a1)+, (a0)+
      < 0x005a618a      51c8fffc       dbra d0, 0x5a6188
          0x005a618e      3f12           move.w (a2), -(a7)
          0x005a6190      4ebae366       jsr K05_LOADSAVE.warn_if_fail(pc)
          0x005a6194      defc0102       adda.w 0x102, a7
          0x005a6198      4a1f           tst.b (a7)+
      < 0x005a619a      670a           beq.b 0x5a61a6
         0x005a619c      4853           pea.l (a3)
         0x005a619e      4eb900404468   jsr fcn.00404468
         0x005a61a4      584f           addq.w 0x4, a7
      > 0x005a61a6      4a2e0008       tst.b 0x8(a6)
      < 0x005a61aa      6714           beq.b 0x5a61c0
         0x005a61ac      2f2e0018       move.l 0x18(a6), -(a7)
         0x005a61b0      2f2e0014       move.l 0x14(a6), -(a7)
         0x005a61b4      2f14           move.l (a4), -(a7)
         0x005a61b6      4eb9004689ec   jsr S10_FONT_DUMMY.s_font_encrypt
         0x005a61bc      defc000c       adda.w 0xc, a7
      > 0x005a61c0      554f           subq.w 0x2, a7
          0x005a61c2      1f2e001c       move.b 0x1c(a6), -(a7)
          0x005a61c6      206e0020       movea.l 0x20(a6), a0
          0x005a61ca      4850           pea.l (a0)
          0x005a61cc      2f04           move.l d4, -(a7)
          0x005a61ce      2f2e0014       move.l 0x14(a6), -(a7)
          0x005a61d2      2f14           move.l (a4), -(a7)
          0x005a61d4      1f2e000a       move.b 0xa(a6), -(a7)
          0x005a61d8      4eb9005abfa0   jsr K1_AFS_ONLY.k1_write_mem_fi
          0x005a61de      defc0014       adda.w 0x14, a7
          0x005a61e2      3497           move.w (a7), (a2)
          0x005a61e4      9efc00fc       suba.w 0xfc, a7
          0x005a61e8      2f3ad64c       move.l 0x5a3836(pc), -(a7)
          0x005a61ec      2f7ad64c0004   move.l 0x5a383a(pc), 0x4(a7)
          0x005a61f2      2f7ad64a0008   move.l 0x5a383e(pc), 0x8(a7)
          0x005a61f8      2f7ad648000c   move.l 0x5a3842(pc), 0xc(a7)
          0x005a61fe      3f7ad6460010   move.w 0x5a3846(pc), 0x10(a7)
          0x005a6204      1f7ad6420012   move.b 0x5a3848(pc), 0x12(a7)
          0x005a620a      3f12           move.w (a2), -(a7)
          0x005a620c      4ebae2ea       jsr K05_LOADSAVE.warn_if_fail(pc)
          0x005a6210      defc0102       adda.w 0x102, a7
          0x005a6214      4a1f           tst.b (a7)+
      < 0x005a6216      670a           beq.b 0x5a6222
         0x005a6218      4853           pea.l (a3)
         0x005a621a      4eb900404468   jsr fcn.00404468
         0x005a6220      584f           addq.w 0x4, a7
      > 0x005a6222      3d520028       move.w (a2), 0x28(a6)
           0x005a6226      4cdf1f19       movem.l (a7)+, d0/d3-d4/a0-a4
           0x005a622a      4e5e           unlk a6
           0x005a622c      4e75           rts
 414: K05_LOADSAVE.copy_panel_data ();
           0x005a622e      4e56fed0       link.w a6, 0xfed0
           0x005a6232      bfd5           cmpa.l (a5), a7
       < 0x005a6234      6206           bhi.b 0x5a623c
          0x005a6236      44fc0002       move.w 0x2, ccr
          0x005a623a      4e76           trapv
       > 0x005a623c      defc0130       adda.w 0x130, a7
           0x005a6240      48e7fcf0       movem.l d0-d5/a0-a3, -(a7)
           0x005a6244      45ec0192       lea.l 0x192(a4), a2
           0x005a6248      47f900598cca   lea.l K01_DEBUG.k01_debug, a3
           0x005a624e      740f           moveq 0xf, d2
           0x005a6250      760c           moveq 0xc, d3
           0x005a6252      7809           moveq 0x9, d4
           0x005a6254      7a12           moveq 0x12, d5
           0x005a6256      554f           subq.w 0x2, a7
           0x005a6258      1f02           move.b d2, -(a7)
           0x005a625a      4e93           jsr (a3)                    ; fcn.0000000c
           0x005a625c      544f           addq.w 0x2, a7
           0x005a625e      4a1f           tst.b (a7)+
       < 0x005a6260      6718           beq.b 0x5a627a
          0x005a6262      487ad5e6       pea.l 0x5a384a(pc)
          0x005a6266      4878000b       pea.l 0xb
          0x005a626a      2f17           move.l (a7), -(a7)
          0x005a626c      4eb9004047ea   jsr p_wts_o
          0x005a6272      dec3           adda.w d3, a7
          0x005a6274      4eb900404946   jsr p_wtln_o
       > 0x005a627a      554f           subq.w 0x2, a7
           0x005a627c      1f04           move.b d4, -(a7)
           0x005a627e      1f2c040a       move.b 0x40a(a4), -(a7)
           0x005a6282      4227           clr.b -(a7)
           0x005a6284      206c0410       movea.l 0x410(a4), a0
           0x005a6288      4850           pea.l (a0)
           0x005a628a      204c           movea.l a4, a0
           0x005a628c      2f08           move.l a0, -(a7)
           0x005a628e      4878fff8       pea.l 0xfff8
           0x005a6292      4eb9005abd82   jsr K1_AFS_ONLY.k1_data
           0x005a6298      dec5           adda.w d5, a7
           0x005a629a      3497           move.w (a7), (a2)
           0x005a629c      9efc0100       suba.w 0x100, a7
           0x005a62a0      204f           movea.l a7, a0
           0x005a62a2      43fad5b1       lea.l 0x5a3855(pc), a1
           0x005a62a6      7012           moveq 0x12, d0
       > 0x005a62a8      10d9           move.b (a1)+, (a0)+
       < 0x005a62aa      51c8fffc       dbra d0, 0x5a62a8
           0x005a62ae      3f12           move.w (a2), -(a7)
           0x005a62b0      4ebae246       jsr K05_LOADSAVE.warn_if_fail(pc)
           0x005a62b4      defc0102       adda.w 0x102, a7
           0x005a62b8      4a1f           tst.b (a7)+
       < 0x005a62ba      670e           beq.b 0x5a62ca
          0x005a62bc      4254           clr.w (a4)
          0x005a62be      426c0002       clr.w 0x2(a4)
          0x005a62c2      426c0004       clr.w 0x4(a4)
          0x005a62c6      426c0006       clr.w 0x6(a4)
       > 0x005a62ca      554f           subq.w 0x2, a7
           0x005a62cc      1f02           move.b d2, -(a7)
           0x005a62ce      4e93           jsr (a3)                    ; fcn.0000000c
           0x005a62d0      544f           addq.w 0x2, a7
           0x005a62d2      4a1f           tst.b (a7)+
       < 0x005a62d4      672a           beq.b 0x5a6300
          0x005a62d6      487ad591       pea.l 0x5a3869(pc)
          0x005a62da      4878001a       pea.l 0x1a
          0x005a62de      2f17           move.l (a7), -(a7)
          0x005a62e0      4eb9004047ea   jsr p_wts_o
          0x005a62e6      dec3           adda.w d3, a7
          0x005a62e8      3014           move.w (a4), d0
          0x005a62ea      48c0           ext.l d0
          0x005a62ec      2f00           move.l d0, -(a7)
          0x005a62ee      48780000       pea.l 0x0
          0x005a62f2      4eb9004070e4   jsr p_wti_o
          0x005a62f8      504f           addq.w 0x8, a7
          0x005a62fa      4eb900404946   jsr p_wtln_o
       > 0x005a6300      3014           move.w (a4), d0
           0x005a6302      41fad580       lea.l 0x5a3884(pc), a0
           0x005a6306      3200           move.w d0, d1
           0x005a6308      e649           lsr.w 0x3, d1
           0x005a630a      0c410020       cmpi.w 0x20, d1
       < 0x005a630e      6d04           blt.b 0x5a6314
          0x005a6310      7200           moveq 0x0, d1
      < 0x005a6312      6004           bra.b 0x5a6318
      > 0x005a6314      01301000       btst.l d0, (a0, d1.w)
      < 0x005a6318      6602           bne.b 0x5a631c
          0x005a631a      4254           clr.w (a4)
       > 0x005a631c      554f           subq.w 0x2, a7
           0x005a631e      1f02           move.b d2, -(a7)
           0x005a6320      4e93           jsr (a3)                    ; fcn.0000000c
           0x005a6322      544f           addq.w 0x2, a7
           0x005a6324      4a1f           tst.b (a7)+
       < 0x005a6326      672a           beq.b 0x5a6352
          0x005a6328      487ad57b       pea.l 0x5a38a5(pc)
          0x005a632c      48780022       pea.l 0x22
          0x005a6330      2f17           move.l (a7), -(a7)
          0x005a6332      4eb9004047ea   jsr p_wts_o
          0x005a6338      dec3           adda.w d3, a7
          0x005a633a      3014           move.w (a4), d0
          0x005a633c      48c0           ext.l d0
          0x005a633e      2f00           move.l d0, -(a7)
          0x005a6340      48780000       pea.l 0x0
          0x005a6344      4eb9004070e4   jsr p_wti_o
          0x005a634a      504f           addq.w 0x8, a7
          0x005a634c      4eb900404946   jsr p_wtln_o
       > 0x005a6352      554f           subq.w 0x2, a7
           0x005a6354      1f02           move.b d2, -(a7)
           0x005a6356      4e93           jsr (a3)                    ; fcn.0000000c
           0x005a6358      544f           addq.w 0x2, a7
           0x005a635a      4a1f           tst.b (a7)+
       < 0x005a635c      6718           beq.b 0x5a6376
          0x005a635e      487ad568       pea.l 0x5a38c8(pc)
          0x005a6362      4878000f       pea.l 0xf
          0x005a6366      2f17           move.l (a7), -(a7)
          0x005a6368      4eb9004047ea   jsr p_wts_o
          0x005a636e      dec3           adda.w d3, a7
          0x005a6370      4eb900404946   jsr p_wtln_o
       > 0x005a6376      554f           subq.w 0x2, a7
           0x005a6378      1f04           move.b d4, -(a7)
           0x005a637a      1f2c0408       move.b 0x408(a4), -(a7)
           0x005a637e      1f3c0001       move.b 0x1, -(a7)
           0x005a6382      206c040c       movea.l 0x40c(a4), a0
           0x005a6386      4850           pea.l (a0)
           0x005a6388      204c           movea.l a4, a0
           0x005a638a      2f08           move.l a0, -(a7)
           0x005a638c      48780008       pea.l 0x8
           0x005a6390      4eb9005abd82   jsr K1_AFS_ONLY.k1_data
           0x005a6396      dec5           adda.w d5, a7
           0x005a6398      3497           move.w (a7), (a2)
           0x005a639a      9efc0100       suba.w 0x100, a7
           0x005a639e      204f           movea.l a7, a0
           0x005a63a0      43fad535       lea.l 0x5a38d7(pc), a1
           0x005a63a4      7012           moveq 0x12, d0
       > 0x005a63a6      10d9           move.b (a1)+, (a0)+
       < 0x005a63a8      51c8fffc       dbra d0, 0x5a63a6
           0x005a63ac      3f12           move.w (a2), -(a7)
           0x005a63ae      4ebae148       jsr K05_LOADSAVE.warn_if_fail(pc)
           0x005a63b2      defc0102       adda.w 0x102, a7
           0x005a63b6      4a1f           tst.b (a7)+
       < 0x005a63b8      670a           beq.b 0x5a63c4
          0x005a63ba      14bad52f       move.b 0x5a38eb(pc), (a2)
          0x005a63be      197ad52c0193   move.b 0x5a38ec(pc), 0x193(a4)
       > 0x005a63c4      4cdf0f3f       movem.l (a7)+, d0-d5/a0-a3
           0x005a63c8      4e5e           unlk a6
           0x005a63ca      4e75           rts
 758: K05_LOADSAVE.copy_crop_data ();
           ; var int32_t var_8h @ a7+0x8
           ; var int32_t var_108h @ a7+0x108
           ; var int32_t var_208h @ a7+0x208
           0x005a63cc      4e56fcaa       link.w a6, 0xfcaa
           0x005a63d0      bfd5           cmpa.l (a5), a7
       < 0x005a63d2      6206           bhi.b 0x5a63da
          0x005a63d4      44fc0002       move.w 0x2, ccr
          0x005a63d8      4e76           trapv
       > 0x005a63da      defc0342       adda.w 0x342, a7
           0x005a63de      48e7fff0       movem.l d0-d7/a0-a3, -(a7)
           0x005a63e2      43f9004047ea   lea.l p_wts_o, a1
           0x005a63e8      45eeffec       lea.l -0x14(a6), a2
           0x005a63ec      47eeffee       lea.l -0x12(a6), a3
           0x005a63f0      2a3cffff8000   move.l 0xffff8000, d5
           0x005a63f6      7c0c           moveq 0xc, d6
           0x005a63f8      2e3c0000ffff   move.l 0xffff, d7
           0x005a63fe      554f           subq.w 0x2, a7
           0x005a6400      1f3c001a       move.b 0x1a, -(a7)
           0x005a6404      1f2c040a       move.b 0x40a(a4), -(a7)
           0x005a6408      4227           clr.b -(a7)
           0x005a640a      206c0410       movea.l 0x410(a4), a0
           0x005a640e      4850           pea.l (a0)
           0x005a6410      204b           movea.l a3, a0
           0x005a6412      2f08           move.l a0, -(a7)
           0x005a6414      4878ffee       pea.l 0xffee
           0x005a6418      4eb9005abd82   jsr K1_AFS_ONLY.k1_data
           0x005a641e      defc0012       adda.w 0x12, a7
           0x005a6422      349f           move.w (a7)+, (a2)
           0x005a6424      3012           move.w (a2), d0
           0x005a6426      b07ad4c6       cmp.w 0x5a38ee(pc), d0
       < 0x005a642a      6600028e       bne.w 0x5a66ba
          0x005a642e      102c0408       move.b 0x408(a4), d0
          0x005a6432      0c000001       cmpi.b 0x1, d0
      < 0x005a6436      66000282       bne.w 0x5a66ba
         0x005a643a      3213           move.w (a3), d1
         0x005a643c      0c410002       cmpi.w 0x2, d1
     < 0x005a6440      66000278       bne.w 0x5a66ba
        0x005a6444      554f           subq.w 0x2, a7
        0x005a6446      1f3c000f       move.b 0xf, -(a7)
        0x005a644a      4eb900598cca   jsr K01_DEBUG.k01_debug
        0x005a6450      544f           addq.w 0x2, a7
        0x005a6452      4a1f           tst.b (a7)+
    < 0x005a6454      670000aa       beq.w 0x5a6500
       0x005a6458      9efc0100       suba.w 0x100, a7
       0x005a645c      2f2c03ee       move.l 0x3ee(a4), -(a7)
       0x005a6460      2f2c03ea       move.l 0x3ea(a4), -(a7)
       0x005a6464      48780003       pea.l 0x3
       0x005a6468      48780003       pea.l 0x3
       0x005a646c      4eb90044e33c   jsr SYSTEM_STRING.rpoint_str
       0x005a6472      9efc00f0       suba.w 0xf0, a7
       0x005a6476      2f2c03fc       move.l 0x3fc(a4), -(a7)
       0x005a647a      48780002       pea.l 0x2
       0x005a647e      4eb90044dd86   jsr SYSTEM_STRING.point_str
       0x005a6484      9efc00f8       suba.w 0xf8, a7
       0x005a6488      2f2c03f2       move.l 0x3f2(a4), -(a7)
       0x005a648c      48780002       pea.l 0x2
       0x005a6490      4eb90044dd86   jsr SYSTEM_STRING.point_str
       0x005a6496      504f           addq.w 0x8, a7
       0x005a6498      487ad457       pea.l 0x5a38f1(pc)
       0x005a649c      4878001e       pea.l 0x1e
       0x005a64a0      2f17           move.l (a7), -(a7)
       0x005a64a2      4e91           jsr (a1)                    ; fcn.0000000a
       0x005a64a4      dec6           adda.w d6, a7
       0x005a64a6      486f0201       pea.l 0x201(a7)
       0x005a64aa      42a7           clr.l -(a7)
       0x005a64ac      1f6f02080003   move.b 0x208(a7), 0x3(a7)
       0x005a64b2      2f17           move.l (a7), -(a7)
       0x005a64b4      4e91           jsr (a1)                    ; fcn.0000000a
       0x005a64b6      dec6           adda.w d6, a7
       0x005a64b8      487ad456       pea.l 0x5a3910(pc)
       0x005a64bc      4878000b       pea.l 0xb
       0x005a64c0      2f17           move.l (a7), -(a7)
       0x005a64c2      4e91           jsr (a1)                    ; fcn.0000000a
       0x005a64c4      dec6           adda.w d6, a7
       0x005a64c6      486f0101       pea.l 0x101(a7)
       0x005a64ca      42a7           clr.l -(a7)
       0x005a64cc      1f6f01080003   move.b 0x108(a7), 0x3(a7)
       0x005a64d2      2f17           move.l (a7), -(a7)
       0x005a64d4      4e91           jsr (a1)                    ; fcn.0000000a
       0x005a64d6      dec6           adda.w d6, a7
       0x005a64d8      487ad442       pea.l 0x5a391c(pc)
       0x005a64dc      4878000c       pea.l 0xc
       0x005a64e0      2f17           move.l (a7), -(a7)
       0x005a64e2      4e91           jsr (a1)                    ; fcn.0000000a
       0x005a64e4      dec6           adda.w d6, a7
       0x005a64e6      486f0001       pea.l 0x1(a7)
       0x005a64ea      42a7           clr.l -(a7)
       0x005a64ec      1f6f00080003   move.b 0x8(a7), 0x3(a7)
       0x005a64f2      2f17           move.l (a7), -(a7)
       0x005a64f4      4e91           jsr (a1)                    ; fcn.0000000a
       0x005a64f6      defc030c       adda.w 0x30c, a7
       0x005a64fa      4eb900404946   jsr p_wtln_o
    > 0x005a6500      382c03fc       move.w 0x3fc(a4), d4
        0x005a6504      48c4           ext.l d4
        0x005a6506      4eb900408686   jsr fcn.00408686
        0x005a650c      2f04           move.l d4, -(a7)
        0x005a650e      7802           moveq 0x2, d4
        0x005a6510      4eb900408686   jsr fcn.00408686
        0x005a6516      2f04           move.l d4, -(a7)
        0x005a6518      2604           move.l d4, d3
        0x005a651a      282f0004       move.l 0x4(a7), d4
        0x005a651e      4eb900407ff8   jsr fcn.00407ff8
        0x005a6524      2f04           move.l d4, -(a7)
        0x005a6526      382c03f2       move.w 0x3f2(a4), d4
        0x005a652a      48c4           ext.l d4
        0x005a652c      4eb900408686   jsr fcn.00408686
        0x005a6532      222f0004       move.l 0x4(a7), d1
        0x005a6536      2601           move.l d1, d3
        0x005a6538      4eb900407ff8   jsr fcn.00407ff8
        0x005a653e      2f04           move.l d4, -(a7)
        0x005a6540      382efff0       move.w -0x10(a6), d4
        0x005a6544      48c4           ext.l d4
        0x005a6546      4eb900408686   jsr fcn.00408686
        0x005a654c      242f0004       move.l 0x4(a7), d2
        0x005a6550      2602           move.l d2, d3
        0x005a6552      4eb900407b44   jsr fcn.00407b44
        0x005a6558      262c03ea       move.l 0x3ea(a4), d3
        0x005a655c      4eb900407e92   jsr fcn.00407e92
        0x005a6562      2617           move.l (a7), d3
        0x005a6564      4eb900407ba8   jsr fcn.00407ba8
        0x005a656a      4eb900408224   jsr fcn.00408224
        0x005a6570      9885           sub.l d5, d4
        0x005a6572      b887           cmp.l d7, d4
    < 0x005a6574      6302           bls.b 0x5a6578
       0x005a6576      4e4f           trap 0xf
    > 0x005a6578      d885           add.l d5, d4
        0x005a657a      3d44fff0       move.w d4, -0x10(a6)
        0x005a657e      382c03fe       move.w 0x3fe(a4), d4
        0x005a6582      48c4           ext.l d4
        0x005a6584      4eb900408686   jsr fcn.00408686
        0x005a658a      2601           move.l d1, d3
        0x005a658c      4eb900407ff8   jsr fcn.00407ff8
        0x005a6592      2f04           move.l d4, -(a7)
        0x005a6594      382c03f4       move.w 0x3f4(a4), d4
        0x005a6598      48c4           ext.l d4
        0x005a659a      4eb900408686   jsr fcn.00408686
        0x005a65a0      2601           move.l d1, d3
        0x005a65a2      4eb900407ff8   jsr fcn.00407ff8
        0x005a65a8      2f04           move.l d4, -(a7)
        0x005a65aa      382efff2       move.w -0xe(a6), d4
        0x005a65ae      48c4           ext.l d4
        0x005a65b0      4eb900408686   jsr fcn.00408686
        0x005a65b6      222f0004       move.l 0x4(a7), d1
        0x005a65ba      2601           move.l d1, d3
        0x005a65bc      4eb900407b44   jsr fcn.00407b44
        0x005a65c2      262c03ee       move.l 0x3ee(a4), d3
        0x005a65c6      4eb900407e92   jsr fcn.00407e92
        0x005a65cc      2617           move.l (a7), d3
        0x005a65ce      4eb900407ba8   jsr fcn.00407ba8
        0x005a65d4      4eb900408224   jsr fcn.00408224
        0x005a65da      9885           sub.l d5, d4
        0x005a65dc      b887           cmp.l d7, d4
    < 0x005a65de      6302           bls.b 0x5a65e2
       0x005a65e0      4e4f           trap 0xf
    > 0x005a65e2      d885           add.l d5, d4
        0x005a65e4      3d44fff2       move.w d4, -0xe(a6)
        0x005a65e8      382efff4       move.w -0xc(a6), d4
        0x005a65ec      48c4           ext.l d4
        0x005a65ee      4eb900408686   jsr fcn.00408686
        0x005a65f4      2602           move.l d2, d3
        0x005a65f6      4eb900407b44   jsr fcn.00407b44
        0x005a65fc      262c03ea       move.l 0x3ea(a4), d3
        0x005a6600      4eb900407e92   jsr fcn.00407e92
        0x005a6606      262f0008       move.l 0x8(a7), d3
        0x005a660a      4eb900407ba8   jsr fcn.00407ba8
        0x005a6610      4eb900408224   jsr fcn.00408224
        0x005a6616      9885           sub.l d5, d4
        0x005a6618      b887           cmp.l d7, d4
    < 0x005a661a      6302           bls.b 0x5a661e
       0x005a661c      4e4f           trap 0xf
    > 0x005a661e      d885           add.l d5, d4
        0x005a6620      3d44fff4       move.w d4, -0xc(a6)
        0x005a6624      382efff6       move.w -0xa(a6), d4
        0x005a6628      48c4           ext.l d4
        0x005a662a      4eb900408686   jsr fcn.00408686
        0x005a6630      2601           move.l d1, d3
        0x005a6632      4eb900407b44   jsr fcn.00407b44
        0x005a6638      262c03ee       move.l 0x3ee(a4), d3
        0x005a663c      4eb900407e92   jsr fcn.00407e92
        0x005a6642      2617           move.l (a7), d3
        0x005a6644      4eb900407ba8   jsr fcn.00407ba8
        0x005a664a      defc0018       adda.w 0x18, a7
        0x005a664e      4eb900408224   jsr fcn.00408224
        0x005a6654      9885           sub.l d5, d4
        0x005a6656      b887           cmp.l d7, d4
    < 0x005a6658      6302           bls.b 0x5a665c
       0x005a665a      4e4f           trap 0xf
    > 0x005a665c      d885           add.l d5, d4
        0x005a665e      3d44fff6       move.w d4, -0xa(a6)
        0x005a6662      554f           subq.w 0x2, a7
        0x005a6664      1f3c001a       move.b 0x1a, -(a7)
        0x005a6668      1f00           move.b d0, -(a7)
        0x005a666a      1f3c0001       move.b 0x1, -(a7)
        0x005a666e      206c040c       movea.l 0x40c(a4), a0
        0x005a6672      4850           pea.l (a0)
        0x005a6674      204b           movea.l a3, a0
        0x005a6676      2f08           move.l a0, -(a7)
        0x005a6678      48780012       pea.l 0x12
        0x005a667c      4eb9005abd82   jsr K1_AFS_ONLY.k1_data
        0x005a6682      defc0012       adda.w 0x12, a7
        0x005a6686      3497           move.w (a7), (a2)
        0x005a6688      9efc00fc       suba.w 0xfc, a7
        0x005a668c      2f3ad29a       move.l 0x5a3928(pc), -(a7)
        0x005a6690      2f7ad29a0004   move.l 0x5a392c(pc), 0x4(a7)
        0x005a6696      2f7ad2980008   move.l 0x5a3930(pc), 0x8(a7)
        0x005a669c      2f7ad296000c   move.l 0x5a3934(pc), 0xc(a7)
        0x005a66a2      3f7ad2940010   move.w 0x5a3938(pc), 0x10(a7)
        0x005a66a8      1f7ad2900012   move.b 0x5a393a(pc), 0x12(a7)
        0x005a66ae      3f12           move.w (a2), -(a7)
        0x005a66b0      4ebade46       jsr K05_LOADSAVE.warn_if_fail(pc)
        0x005a66b4      defc0102       adda.w 0x102, a7
        0x005a66b8      4a1f           tst.b (a7)+
     > 0x005a66ba      4cdf0fff       movem.l (a7)+, d0-d7/a0-a3
           0x005a66be      4e5e           unlk a6
           0x005a66c0      4e75           rts
            ; CALL XREF from K05_LOADSAVE.k_copy_file @ 0x5a84a8
 112: K05_LOADSAVE.transfer_header ();
           ; var int32_t var_388eh @ a6-0x388e
           ; var int32_t var_8h @ a7+0x8
           0x005a66c2      4e56f9d8       link.w a6, 0xf9d8
           0x005a66c6      bfd5           cmpa.l (a5), a7
       < 0x005a66c8      6206           bhi.b 0x5a66d0
          0x005a66ca      44fc0002       move.w 0x2, ccr
          0x005a66ce      4e76           trapv
       > 0x005a66d0      defc0246       adda.w 0x246, a7
           0x005a66d4      48e7fff8       movem.l d0-d7/a0-a4, -(a7)
           0x005a66d8      45f9004047ea   lea.l p_wts_o, a2
           0x005a66de      47eefdb0       lea.l -0x250(a6), a3
           0x005a66e2      7a0c           moveq 0xc, d5
           0x005a66e4      36bad256       move.w 0x5a393c(pc), (a3)
           0x005a66e8      554f           subq.w 0x2, a7
           0x005a66ea      486efdb2       pea.l -0x24e(a6)
           0x005a66ee      4eb900404434   jsr fcn.00404434
           0x005a66f4      584f           addq.w 0x4, a7
           0x005a66f6      4a1f           tst.b (a7)+
       < 0x005a66f8      67000d3c       beq.w 0x5a7436              ; loc.005a73e4+0x52
          0x005a66fc      102e0024       move.b 0x24(a6), d0
          0x005a6700      0c00002f       cmpi.b 0x2f, d0
      < 0x005a6704      6c12           bge.b 0x5a6718
         0x005a6706      0c000023       cmpi.b 0x23, d0
     < 0x005a670a      6d76           blt.b 0x5a6782
        0x005a670c      0c000023       cmpi.b 0x23, d0
    < 0x005a6710      6700060a       beq.w 0x5a6d1c
   < 0x005a6714      60000cce       bra.w loc.005a73e4
   > 0x005a6718      4880           ext.w d0
       0x005a671a      3200           move.w d0, d1
       0x005a671c      0441002f       subi.w 0x2f, d1
       0x005a6720      0c410027       cmpi.w 0x27, d1
   < 0x005a6724      62000cbe       bhi.w loc.005a73e4
      0x005a6728      d241           add.w d1, d1
      0x005a672a      323b1006       move.w 0x5a6732(pc, d1.w), d1
      0x005a672e      4efb1002       jmp 0x5a6732(pc, d1.w)
       0x005a6732      0c8a0cb2       
       0x005a6733      8a0cb20c       
       0x005a6734      0cb20cb20c8a.  cmpi.l 0xcb20c8a, -0x4e(a2, d0.l)
       0x005a673c      0cb20c8a05ea.  cmpi.l 0xc8a05ea, -0x4e(a2, d0.l)
       0x005a6744      0cb20cb20cb2.  cmpi.l 0xcb20cb2, -0x4e(a2, d0.l)
       0x005a674c      0cb20cb20c8a.  cmpi.l 0xcb20c8a, -0x76(a2, d0.l)
       0x005a6754      0cb20cb20cb2.  cmpi.l 0xcb20cb2, -0x4e(a2, d0.l)
       0x005a675c      0cb20cb20cb2.  cmpi.l 0xcb20cb2, -0x4e(a2, d0.l)
       0x005a6764      0cb20cb20c8a.  cmpi.l 0xcb20c8a, -0x76(a2, d0.l)
       0x005a676c      05ea0cb2       bset.b d2, 0xcb2(a2)
       0x005a6770      0b58           bchg.b d5, (a0)+
       0x005a6772      0b58           bchg.b d5, (a0)+
       0x005a6774      0c8a05ea       
       0x005a6775      8a05           or.b d5, d5
       0x005a6777      ea05           asr.b 0x5, d5
       0x005a6779      ea0c           lsr.b 0x5, d4
       0x005a677b      b20cb20c       
       0x005a677c      0cb20cb205ea.  cmpi.l 0xcb205ea, -0x80(a2, d4.l)
        0x005a6784      3200           move.w d0, d1
        0x005a6786      5541           subq.w 0x2, d1
        0x005a6788      0c410010       cmpi.w 0x10, d1
    < 0x005a678c      62000c56       bhi.w loc.005a73e4
       0x005a6790      d241           add.w d1, d1
       0x005a6792      323b1006       move.w 0x5a679a(pc, d1.w), d1
       0x005a6796      4efb1002       jmp 0x5a679a(pc, d1.w)
       0x005a679a      00220022       ori.b 0x22, -(a2)
       0x005a679e      00480048       
       0x005a679f      4800           nbcd.b d0
       0x005a67a1      4805           nbcd.b d5
       0x005a67a3      820c220c       
       0x005a67a4      0c220c22       cmpi.b 0x22, -(a2)
       0x005a67a8      0582           bclr.b d2, d2
       0x005a67aa      0582           bclr.b d2, d2
       0x005a67ac      0c4a0c4a       
       0x005a67ad      4a0c4a0c       
       0x005a67ae      0c4a0c22       
       0x005a67af      4a0c220c       
       0x005a67b0      0c220c22       cmpi.b 0x22, -(a2)
       0x005a67b4      00480048       
       0x005a67b5      4800           nbcd.b d0
       0x005a67b7      480c220c220c   link.l a4, 0x220c220c
       0x005a67bd      00000266       ori.b 0x66, d0
       0x005a67c1      1c12           move.b (a2), d6
       0x005a67c3      2e00           move.l d0, d7
       0x005a67c5      280c           move.l a4, d4
       0x005a67c7      0100           btst.l d0, d0
       0x005a67c9      0166           bchg.b d0, -(a6)
       0x005a67cb      1212           move.b (a2), d1
       0x005a67cd      2e00           move.l d0, d7
       0x005a67cf      260c           move.l a4, d3
       0x005a67d1      0100           btst.l d0, d0
       0x005a67d3      0166           bchg.b d0, -(a6)
       0x005a67d5      0849eefc       
       0x005a67d6      49eefc1e       lea.l -0x3e2(a6), a4
       0x005a67da      4ebafbf0       jsr K05_LOADSAVE.copy_crop_data(pc)
   < 0x005a67de      60000c56       bra.w 0x5a7436              ; loc.005a73e4+0x52
      0x005a67e2      554f           subq.w 0x2, a7
      0x005a67e4      1f3c000f       move.b 0xf, -(a7)
      0x005a67e8      4eb900598cca   jsr K01_DEBUG.k01_debug
      0x005a67ee      544f           addq.w 0x2, a7
      0x005a67f0      4a1f           tst.b (a7)+
  < 0x005a67f2      6714           beq.b 0x5a6808
     0x005a67f4      487ad149       pea.l 0x5a393f(pc)
     0x005a67f8      48780010       pea.l 0x10
     0x005a67fc      2f17           move.l (a7), -(a7)
     0x005a67fe      4e92           jsr (a2)                    ; fcn.00000009+0x2
     0x005a6800      dec5           adda.w d5, a7
     0x005a6802      4eb900404946   jsr p_wtln_o
  > 0x005a6808      554f           subq.w 0x2, a7
      0x005a680a      1f3c0006       move.b 0x6, -(a7)
      0x005a680e      1f2e0028       move.b 0x28(a6), -(a7)
      0x005a6812      4227           clr.b -(a7)
      0x005a6814      206e002e       movea.l 0x2e(a6), a0
      0x005a6818      4850           pea.l (a0)
      0x005a681a      41eefc1e       lea.l -0x3e2(a6), a0
      0x005a681e      2f08           move.l a0, -(a7)
      0x005a6820      48780012       pea.l 0x12
      0x005a6824      4eb9005abd82   jsr K1_AFS_ONLY.k1_data
      0x005a682a      defc0012       adda.w 0x12, a7
      0x005a682e      3697           move.w (a7), (a3)
      0x005a6830      5d4f           subq.w 0x6, a7
      0x005a6832      4eb9006339f2   jsr HANDCOM.get_picture_are
      0x005a6838      2d5ffda8       move.l (a7)+, -0x258(a6)
      0x005a683c      2d57fdac       move.l (a7), -0x254(a6)
      0x005a6840      9efc00fe       suba.w 0xfe, a7
      0x005a6844      204f           movea.l a7, a0
      0x005a6846      43fad107       lea.l 0x5a394f(pc), a1
      0x005a684a      7213           moveq 0x13, d1
  > 0x005a684c      10d9           move.b (a1)+, (a0)+
  < 0x005a684e      51c9fffc       dbra d1, 0x5a684c
      0x005a6852      3f13           move.w (a3), -(a7)
      0x005a6854      4ebadca2       jsr K05_LOADSAVE.warn_if_fail(pc)
      0x005a6858      defc0102       adda.w 0x102, a7
      0x005a685c      4a1f           tst.b (a7)+
  < 0x005a685e      670000a2       beq.w 0x5a6902
     0x005a6862      322e001a       move.w 0x1a(a6), d1
     0x005a6866      48c1           ext.l d1
     0x005a6868      83fc0002       divs.w 0x2, d1
     0x005a686c      3d41fc22       move.w d1, -0x3de(a6)
     0x005a6870      322e001c       move.w 0x1c(a6), d1
     0x005a6874      48c1           ext.l d1
     0x005a6876      83fc0002       divs.w 0x2, d1
     0x005a687a      3d41fc24       move.w d1, -0x3dc(a6)
     0x005a687e      322efdac       move.w -0x254(a6), d1
     0x005a6882      48c1           ext.l d1
     0x005a6884      83fc0002       divs.w 0x2, d1
     0x005a6888      342efda8       move.w -0x258(a6), d2
     0x005a688c      48c2           ext.l d2
     0x005a688e      48c1           ext.l d1
     0x005a6890      d282           add.l d2, d1
     0x005a6892      342efc22       move.w -0x3de(a6), d2
     0x005a6896      48c2           ext.l d2
     0x005a6898      4482           neg.l d2
     0x005a689a      d481           add.l d1, d2
     0x005a689c      0482ffff8000   subi.l 0xffff8000, d2
     0x005a68a2      0c820000ffff   cmpi.l 0xffff, d2
  < 0x005a68a8      6302           bls.b 0x5a68ac
     0x005a68aa      4e4f           trap 0xf
  > 0x005a68ac      0682ffff8000   addi.l 0xffff8000, d2
     0x005a68b2      3d42fc1e       move.w d2, -0x3e2(a6)
     0x005a68b6      322efdae       move.w -0x252(a6), d1
     0x005a68ba      48c1           ext.l d1
     0x005a68bc      83fc0002       divs.w 0x2, d1
     0x005a68c0      342efdaa       move.w -0x256(a6), d2
     0x005a68c4      48c2           ext.l d2
     0x005a68c6      48c1           ext.l d1
     0x005a68c8      d282           add.l d2, d1
     0x005a68ca      342efc24       move.w -0x3dc(a6), d2
     0x005a68ce      48c2           ext.l d2
     0x005a68d0      4482           neg.l d2
     0x005a68d2      d481           add.l d1, d2
     0x005a68d4      0482ffff8000   subi.l 0xffff8000, d2
     0x005a68da      0c820000ffff   cmpi.l 0xffff, d2
  < 0x005a68e0      6302           bls.b 0x5a68e4
     0x005a68e2      4e4f           trap 0xf
  > 0x005a68e4      0682ffff8000   addi.l 0xffff8000, d2
     0x005a68ea      3d42fc20       move.w d2, -0x3e0(a6)
     0x005a68ee      426efc26       clr.w -0x3da(a6)
     0x005a68f2      426efc28       clr.w -0x3d8(a6)
     0x005a68f6      426efc2a       clr.w -0x3d6(a6)
     0x005a68fa      426efc2c       clr.w -0x3d4(a6)
     0x005a68fe      426efc2e       clr.w -0x3d2(a6)
  > 0x005a6902      554f           subq.w 0x2, a7
      0x005a6904      1f3c000f       move.b 0xf, -(a7)
      0x005a6908      4eb900598cca   jsr K01_DEBUG.k01_debug
      0x005a690e      544f           addq.w 0x2, a7
      0x005a6910      4a1f           tst.b (a7)+
  < 0x005a6912      676e           beq.b 0x5a6982
     0x005a6914      9efc0100       suba.w 0x100, a7
     0x005a6918      2f2efc1e       move.l -0x3e2(a6), -(a7)
     0x005a691c      48780000       pea.l 0x0
     0x005a6920      4eb90044dd86   jsr SYSTEM_STRING.point_str
     0x005a6926      9efc00f8       suba.w 0xf8, a7
     0x005a692a      2f2efc22       move.l -0x3de(a6), -(a7)
     0x005a692e      48780000       pea.l 0x0
     0x005a6932      4eb90044dd86   jsr SYSTEM_STRING.point_str
     0x005a6938      504f           addq.w 0x8, a7
     0x005a693a      487ad028       pea.l 0x5a3964(pc)
     0x005a693e      4878001a       pea.l 0x1a
     0x005a6942      2f17           move.l (a7), -(a7)
     0x005a6944      4e92           jsr (a2)                    ; fcn.00000009+0x2
     0x005a6946      dec5           adda.w d5, a7
     0x005a6948      486f0101       pea.l 0x101(a7)
     0x005a694c      42a7           clr.l -(a7)
     0x005a694e      1f6f01080003   move.b 0x108(a7), 0x3(a7)
     0x005a6954      2f17           move.l (a7), -(a7)
     0x005a6956      4e92           jsr (a2)                    ; fcn.00000009+0x2
     0x005a6958      dec5           adda.w d5, a7
     0x005a695a      487ad023       pea.l 0x5a397f(pc)
     0x005a695e      48780006       pea.l 0x6
     0x005a6962      2f17           move.l (a7), -(a7)
     0x005a6964      4e92           jsr (a2)                    ; fcn.00000009+0x2
     0x005a6966      dec5           adda.w d5, a7
     0x005a6968      486f0001       pea.l 0x1(a7)
     0x005a696c      42a7           clr.l -(a7)
     0x005a696e      1f6f00080003   move.b 0x8(a7), 0x3(a7)
     0x005a6974      2f17           move.l (a7), -(a7)
     0x005a6976      4e92           jsr (a2)                    ; fcn.00000009+0x2
     0x005a6978      defc020c       adda.w 0x20c, a7
     0x005a697c      4eb900404946   jsr p_wtln_o
  > 0x005a6982      4a6efc22       tst.w -0x3de(a6)
  < 0x005a6986      6d0a           blt.b 0x5a6992
     0x005a6988      322efc22       move.w -0x3de(a6), d1
     0x005a698c      b26e001a       cmp.w 0x1a(a6), d1
  < 0x005a6990      6f0e           ble.b 0x5a69a0
  > 0x005a6992      322e001a       move.w 0x1a(a6), d1
      0x005a6996      48c1           ext.l d1
      0x005a6998      83fc0002       divs.w 0x2, d1
      0x005a699c      3d41fc22       move.w d1, -0x3de(a6)
  > 0x005a69a0      4a6efc24       tst.w -0x3dc(a6)
  < 0x005a69a4      6d0a           blt.b 0x5a69b0
     0x005a69a6      322efc24       move.w -0x3dc(a6), d1
     0x005a69aa      b26e001c       cmp.w 0x1c(a6), d1
  < 0x005a69ae      6f0e           ble.b 0x5a69be
  > 0x005a69b0      322e001c       move.w 0x1c(a6), d1
      0x005a69b4      48c1           ext.l d1
      0x005a69b6      83fc0002       divs.w 0x2, d1
      0x005a69ba      3d41fc24       move.w d1, -0x3dc(a6)
  > 0x005a69be      322efc1e       move.w -0x3e2(a6), d1
      0x005a69c2      b26efda8       cmp.w -0x258(a6), d1
  < 0x005a69c6      6d14           blt.b 0x5a69dc
     0x005a69c8      342efda8       move.w -0x258(a6), d2
     0x005a69cc      48c2           ext.l d2
     0x005a69ce      362efdac       move.w -0x254(a6), d3
     0x005a69d2      48c3           ext.l d3
     0x005a69d4      d682           add.l d2, d3
     0x005a69d6      48c1           ext.l d1
     0x005a69d8      b283           cmp.l d3, d1
  < 0x005a69da      6f42           ble.b 0x5a6a1e
  > 0x005a69dc      48c1           ext.l d1
      0x005a69de      0c810000ffff   cmpi.l 0xffff, d1
  < 0x005a69e4      6738           beq.b 0x5a6a1e
     0x005a69e6      322efdac       move.w -0x254(a6), d1
     0x005a69ea      48c1           ext.l d1
     0x005a69ec      83fc0002       divs.w 0x2, d1
     0x005a69f0      342efda8       move.w -0x258(a6), d2
     0x005a69f4      48c2           ext.l d2
     0x005a69f6      48c1           ext.l d1
     0x005a69f8      d282           add.l d2, d1
     0x005a69fa      342efc22       move.w -0x3de(a6), d2
     0x005a69fe      48c2           ext.l d2
     0x005a6a00      4482           neg.l d2
     0x005a6a02      d481           add.l d1, d2
     0x005a6a04      0482ffff8000   subi.l 0xffff8000, d2
     0x005a6a0a      0c820000ffff   cmpi.l 0xffff, d2
  < 0x005a6a10      6302           bls.b 0x5a6a14
     0x005a6a12      4e4f           trap 0xf
  > 0x005a6a14      0682ffff8000   addi.l 0xffff8000, d2
     0x005a6a1a      3d42fc1e       move.w d2, -0x3e2(a6)
  > 0x005a6a1e      322efc20       move.w -0x3e0(a6), d1
      0x005a6a22      b26efdaa       cmp.w -0x256(a6), d1
  < 0x005a6a26      6d14           blt.b 0x5a6a3c
     0x005a6a28      342efdaa       move.w -0x256(a6), d2
     0x005a6a2c      48c2           ext.l d2
     0x005a6a2e      362efdae       move.w -0x252(a6), d3
     0x005a6a32      48c3           ext.l d3
     0x005a6a34      d682           add.l d2, d3
     0x005a6a36      48c1           ext.l d1
     0x005a6a38      b283           cmp.l d3, d1
  < 0x005a6a3a      6f42           ble.b 0x5a6a7e
  > 0x005a6a3c      48c1           ext.l d1
      0x005a6a3e      0c810000ffff   cmpi.l 0xffff, d1
  < 0x005a6a44      6738           beq.b 0x5a6a7e
     0x005a6a46      322efdae       move.w -0x252(a6), d1
     0x005a6a4a      48c1           ext.l d1
     0x005a6a4c      83fc0002       divs.w 0x2, d1
     0x005a6a50      342efdaa       move.w -0x256(a6), d2
     0x005a6a54      48c2           ext.l d2
     0x005a6a56      48c1           ext.l d1
     0x005a6a58      d282           add.l d2, d1
     0x005a6a5a      342efc24       move.w -0x3dc(a6), d2
     0x005a6a5e      48c2           ext.l d2
     0x005a6a60      4482           neg.l d2
     0x005a6a62      d481           add.l d1, d2
     0x005a6a64      0482ffff8000   subi.l 0xffff8000, d2
     0x005a6a6a      0c820000ffff   cmpi.l 0xffff, d2
  < 0x005a6a70      6302           bls.b 0x5a6a74
     0x005a6a72      4e4f           trap 0xf
  > 0x005a6a74      0682ffff8000   addi.l 0xffff8000, d2
     0x005a6a7a      3d42fc20       move.w d2, -0x3e0(a6)
  > 0x005a6a7e      554f           subq.w 0x2, a7
      0x005a6a80      1f3c000f       move.b 0xf, -(a7)
      0x005a6a84      4eb900598cca   jsr K01_DEBUG.k01_debug
      0x005a6a8a      544f           addq.w 0x2, a7
      0x005a6a8c      4a1f           tst.b (a7)+
  < 0x005a6a8e      676e           beq.b 0x5a6afe
     0x005a6a90      9efc0100       suba.w 0x100, a7
     0x005a6a94      2f2efc1e       move.l -0x3e2(a6), -(a7)
     0x005a6a98      48780000       pea.l 0x0
     0x005a6a9c      4eb90044dd86   jsr SYSTEM_STRING.point_str
     0x005a6aa2      9efc00f8       suba.w 0xf8, a7
     0x005a6aa6      2f2efc22       move.l -0x3de(a6), -(a7)
     0x005a6aaa      48780000       pea.l 0x0
     0x005a6aae      4eb90044dd86   jsr SYSTEM_STRING.point_str
     0x005a6ab4      504f           addq.w 0x8, a7
     0x005a6ab6      487acece       pea.l 0x5a3986(pc)
     0x005a6aba      48780022       pea.l 0x22
     0x005a6abe      2f17           move.l (a7), -(a7)
     0x005a6ac0      4e92           jsr (a2)                    ; fcn.00000009+0x2
     0x005a6ac2      dec5           adda.w d5, a7
     0x005a6ac4      486f0101       pea.l 0x101(a7)
     0x005a6ac8      42a7           clr.l -(a7)
     0x005a6aca      1f6f01080003   move.b 0x108(a7), 0x3(a7)
     0x005a6ad0      2f17           move.l (a7), -(a7)
     0x005a6ad2      4e92           jsr (a2)                    ; fcn.00000009+0x2
     0x005a6ad4      dec5           adda.w d5, a7
     0x005a6ad6      487aced1       pea.l 0x5a39a9(pc)
     0x005a6ada      48780006       pea.l 0x6
     0x005a6ade      2f17           move.l (a7), -(a7)
     0x005a6ae0      4e92           jsr (a2)                    ; fcn.00000009+0x2
     0x005a6ae2      dec5           adda.w d5, a7
     0x005a6ae4      486f0001       pea.l 0x1(a7)
     0x005a6ae8      42a7           clr.l -(a7)
     0x005a6aea      1f6f00080003   move.b 0x8(a7), 0x3(a7)
     0x005a6af0      2f17           move.l (a7), -(a7)
     0x005a6af2      4e92           jsr (a2)                    ; fcn.00000009+0x2
     0x005a6af4      defc020c       adda.w 0x20c, a7
     0x005a6af8      4eb900404946   jsr p_wtln_o
  > 0x005a6afe      382efc1e       move.w -0x3e2(a6), d4
      0x005a6b02      48c4           ext.l d4
      0x005a6b04      4eb900408686   jsr fcn.00408686
      0x005a6b0a      262e0008       move.l 0x8(a6), d3
      0x005a6b0e      4eb900407e92   jsr fcn.00407e92
      0x005a6b14      4eb900408224   jsr fcn.00408224
      0x005a6b1a      0484ffff8000   subi.l 0xffff8000, d4
      0x005a6b20      0c840000ffff   cmpi.l 0xffff, d4
  < 0x005a6b26      6302           bls.b 0x5a6b2a
     0x005a6b28      4e4f           trap 0xf
  > 0x005a6b2a      0684ffff8000   addi.l 0xffff8000, d4
      0x005a6b30      3d44fc1e       move.w d4, -0x3e2(a6)
      0x005a6b34      322efc20       move.w -0x3e0(a6), d1
      0x005a6b38      48c1           ext.l d1
      0x005a6b3a      048100000080   subi.l 0x80, d1
      0x005a6b40      0481ffff8000   subi.l 0xffff8000, d1
      0x005a6b46      0c810000ffff   cmpi.l 0xffff, d1
  < 0x005a6b4c      6302           bls.b 0x5a6b50
     0x005a6b4e      4e4f           trap 0xf
  > 0x005a6b50      0681ffff8000   addi.l 0xffff8000, d1
      0x005a6b56      3d41fc20       move.w d1, -0x3e0(a6)
      0x005a6b5a      48c1           ext.l d1
      0x005a6b5c      2801           move.l d1, d4
      0x005a6b5e      4eb900408686   jsr fcn.00408686
      0x005a6b64      262e000c       move.l 0xc(a6), d3
      0x005a6b68      4eb900407e92   jsr fcn.00407e92
      0x005a6b6e      4eb900408224   jsr fcn.00408224
      0x005a6b74      0484ffff8000   subi.l 0xffff8000, d4
      0x005a6b7a      0c840000ffff   cmpi.l 0xffff, d4
  < 0x005a6b80      6302           bls.b 0x5a6b84
     0x005a6b82      4e4f           trap 0xf
  > 0x005a6b84      0684ffff8000   addi.l 0xffff8000, d4
      0x005a6b8a      3d44fc20       move.w d4, -0x3e0(a6)
      0x005a6b8e      48c4           ext.l d4
      0x005a6b90      068400000080   addi.l 0x80, d4
      0x005a6b96      0484ffff8000   subi.l 0xffff8000, d4
      0x005a6b9c      0c840000ffff   cmpi.l 0xffff, d4
  < 0x005a6ba2      6302           bls.b 0x5a6ba6
     0x005a6ba4      4e4f           trap 0xf
  > 0x005a6ba6      0684ffff8000   addi.l 0xffff8000, d4
      0x005a6bac      3d44fc20       move.w d4, -0x3e0(a6)
      0x005a6bb0      382efc22       move.w -0x3de(a6), d4
      0x005a6bb4      48c4           ext.l d4
      0x005a6bb6      4eb900408686   jsr fcn.00408686
      0x005a6bbc      262e0008       move.l 0x8(a6), d3
      0x005a6bc0      4eb900407e92   jsr fcn.00407e92
      0x005a6bc6      4eb900408224   jsr fcn.00408224
      0x005a6bcc      0484ffff8000   subi.l 0xffff8000, d4
      0x005a6bd2      0c840000ffff   cmpi.l 0xffff, d4
  < 0x005a6bd8      6302           bls.b 0x5a6bdc
     0x005a6bda      4e4f           trap 0xf
  > 0x005a6bdc      0684ffff8000   addi.l 0xffff8000, d4
      0x005a6be2      3d44fc22       move.w d4, -0x3de(a6)
      0x005a6be6      382efc24       move.w -0x3dc(a6), d4
      0x005a6bea      48c4           ext.l d4
      0x005a6bec      4eb900408686   jsr fcn.00408686
      0x005a6bf2      262e000c       move.l 0xc(a6), d3
      0x005a6bf6      4eb900407e92   jsr fcn.00407e92
      0x005a6bfc      4eb900408224   jsr fcn.00408224
      0x005a6c02      0484ffff8000   subi.l 0xffff8000, d4
      0x005a6c08      0c840000ffff   cmpi.l 0xffff, d4
  < 0x005a6c0e      6302           bls.b 0x5a6c12
     0x005a6c10      4e4f           trap 0xf
  > 0x005a6c12      0684ffff8000   addi.l 0xffff8000, d4
      0x005a6c18      3d44fc24       move.w d4, -0x3dc(a6)
      0x005a6c1c      554f           subq.w 0x2, a7
      0x005a6c1e      1f3c000f       move.b 0xf, -(a7)
      0x005a6c22      4eb900598cca   jsr K01_DEBUG.k01_debug
      0x005a6c28      544f           addq.w 0x2, a7
      0x005a6c2a      4a1f           tst.b (a7)+
  < 0x005a6c2c      676e           beq.b 0x5a6c9c
     0x005a6c2e      9efc0100       suba.w 0x100, a7
     0x005a6c32      2f2efc1e       move.l -0x3e2(a6), -(a7)
     0x005a6c36      48780000       pea.l 0x0
     0x005a6c3a      4eb90044dd86   jsr SYSTEM_STRING.point_str
     0x005a6c40      9efc00f8       suba.w 0xf8, a7
     0x005a6c44      2f2efc22       move.l -0x3de(a6), -(a7)
     0x005a6c48      48780000       pea.l 0x0
     0x005a6c4c      4eb90044dd86   jsr SYSTEM_STRING.point_str
     0x005a6c52      504f           addq.w 0x8, a7
     0x005a6c54      487acd5a       pea.l 0x5a39b0(pc)
     0x005a6c58      48780022       pea.l 0x22
     0x005a6c5c      2f17           move.l (a7), -(a7)
     0x005a6c5e      4e92           jsr (a2)                    ; fcn.00000009+0x2
     0x005a6c60      dec5           adda.w d5, a7
     0x005a6c62      486f0101       pea.l 0x101(a7)
     0x005a6c66      42a7           clr.l -(a7)
     0x005a6c68      1f6f01080003   move.b 0x108(a7), 0x3(a7)
     0x005a6c6e      2f17           move.l (a7), -(a7)
     0x005a6c70      4e92           jsr (a2)                    ; fcn.00000009+0x2
     0x005a6c72      dec5           adda.w d5, a7
     0x005a6c74      487acd5d       pea.l 0x5a39d3(pc)
     0x005a6c78      48780006       pea.l 0x6
     0x005a6c7c      2f17           move.l (a7), -(a7)
     0x005a6c7e      4e92           jsr (a2)                    ; fcn.00000009+0x2
     0x005a6c80      dec5           adda.w d5, a7
     0x005a6c82      486f0001       pea.l 0x1(a7)
     0x005a6c86      42a7           clr.l -(a7)
     0x005a6c88      1f6f00080003   move.b 0x8(a7), 0x3(a7)
     0x005a6c8e      2f17           move.l (a7), -(a7)
     0x005a6c90      4e92           jsr (a2)                    ; fcn.00000009+0x2
     0x005a6c92      defc020c       adda.w 0x20c, a7
     0x005a6c96      4eb900404946   jsr p_wtln_o
  > 0x005a6c9c      554f           subq.w 0x2, a7
      0x005a6c9e      1f3c000f       move.b 0xf, -(a7)
      0x005a6ca2      4eb900598cca   jsr K01_DEBUG.k01_debug
      0x005a6ca8      544f           addq.w 0x2, a7
      0x005a6caa      4a1f           tst.b (a7)+
  < 0x005a6cac      6714           beq.b 0x5a6cc2
     0x005a6cae      487acd2a       pea.l 0x5a39da(pc)
     0x005a6cb2      48780010       pea.l 0x10
     0x005a6cb6      2f17           move.l (a7), -(a7)
     0x005a6cb8      4e92           jsr (a2)                    ; fcn.00000009+0x2
     0x005a6cba      dec5           adda.w d5, a7
     0x005a6cbc      4eb900404946   jsr p_wtln_o
  > 0x005a6cc2      554f           subq.w 0x2, a7
      0x005a6cc4      1f3c0006       move.b 0x6, -(a7)
      0x005a6cc8      1f2e0026       move.b 0x26(a6), -(a7)
      0x005a6ccc      1f3c0001       move.b 0x1, -(a7)
      0x005a6cd0      206e002a       movea.l 0x2a(a6), a0
      0x005a6cd4      4850           pea.l (a0)
      0x005a6cd6      41eefc1e       lea.l -0x3e2(a6), a0
      0x005a6cda      2f08           move.l a0, -(a7)
      0x005a6cdc      48780012       pea.l 0x12
      0x005a6ce0      4eb9005abd82   jsr K1_AFS_ONLY.k1_data
      0x005a6ce6      defc0012       adda.w 0x12, a7
      0x005a6cea      3697           move.w (a7), (a3)
      0x005a6cec      9efc0100       suba.w 0x100, a7
      0x005a6cf0      204f           movea.l a7, a0
      0x005a6cf2      43faccf6       lea.l 0x5a39ea(pc), a1
      0x005a6cf6      7204           moveq 0x4, d1
  > 0x005a6cf8      20d9           move.l (a1)+, (a0)+
  < 0x005a6cfa      51c9fffc       dbra d1, 0x5a6cf8
      0x005a6cfe      3f13           move.w (a3), -(a7)
      0x005a6d00      4ebad7f6       jsr K05_LOADSAVE.warn_if_fail(pc)
      0x005a6d04      defc0102       adda.w 0x102, a7
      0x005a6d08      4a1f           tst.b (a7)+
  < 0x005a6d0a      670c           beq.b 0x5a6d18              ; loc.005a73e4-0x6cc
 > 0x005a6d0c      486efdb2       pea.l -0x24e(a6)
    0x005a6d10      4eb900404468   jsr fcn.00404468
    0x005a6d16      584f           addq.w 0x4, a7
 > 0x005a6d18      6000071c       bra.w 0x5a7436
   > 0x005a6d1c      0c00004c       cmpi.b 0x4c, d0
   < 0x005a6d20      6c10           bge.b 0x5a6d32
      0x005a6d22      0c000036       cmpi.b 0x36, d0
  < 0x005a6d26      6d34           blt.b 0x5a6d5c
     0x005a6d28      0c000036       cmpi.b 0x36, d0
  < 0x005a6d2c      67000118       beq.w 0x5a6e46
     0x005a6d30      4e4e           trap 0xe
  > 0x005a6d32      0c000052       cmpi.b 0x52, d0
  < 0x005a6d36      6d12           blt.b 0x5a6d4a
     0x005a6d38      0c000052       cmpi.b 0x52, d0
  < 0x005a6d3c      67000108       beq.w 0x5a6e46
     0x005a6d40      0c000056       cmpi.b 0x56, d0
  < 0x005a6d44      6700009a       beq.w 0x5a6de0
     0x005a6d48      4e4e           trap 0xe
  > 0x005a6d4a      0c00004c       cmpi.b 0x4c, d0
  < 0x005a6d4e      670000c4       beq.w 0x5a6e14
     0x005a6d52      0c000051       cmpi.b 0x51, d0
  < 0x005a6d56      67000088       beq.w 0x5a6de0
     0x005a6d5a      4e4e           trap 0xe
  > 0x005a6d5c      0c000023       cmpi.b 0x23, d0
  < 0x005a6d60      6d0a           blt.b 0x5a6d6c
     0x005a6d62      0c000023       cmpi.b 0x23, d0
  < 0x005a6d66      670000de       beq.w 0x5a6e46
     0x005a6d6a      4e4e           trap 0xe
  > 0x005a6d6c      4880           ext.w d0
      0x005a6d6e      3200           move.w d0, d1
      0x005a6d70      5d41           subq.w 0x6, d1
      0x005a6d72      0c410004       cmpi.w 0x4, d1
  < 0x005a6d76      6302           bls.b 0x5a6d7a
     0x005a6d78      4e4e           trap 0xe
  > 0x005a6d7a      d241           add.w d1, d1
      0x005a6d7c      323b1006       move.w 0x5a6d84(pc, d1.w), d1
      0x005a6d80      4efb1002       jmp 0x5a6d84(pc, d1.w)
      0x005a6d84      000afff4       
      0x005a6d85      0afff4ff       
      0x005a6d86      fff4           invalid
      0x005a6d88      fff4           invalid
      0x005a6d8a      005c00c2       ori.w 0xc2, (a4)+
      0x005a6d8e      554f           subq.w 0x2, a7
      0x005a6d90      1f3c000f       move.b 0xf, -(a7)
      0x005a6d94      4eb900598cca   jsr K01_DEBUG.k01_debug
      0x005a6d9a      544f           addq.w 0x2, a7
      0x005a6d9c      4a1f           tst.b (a7)+
  < 0x005a6d9e      6714           beq.b 0x5a6db4
     0x005a6da0      487acc5d       pea.l 0x5a39ff(pc)
     0x005a6da4      4878000a       pea.l 0xa
     0x005a6da8      2f17           move.l (a7), -(a7)
     0x005a6daa      4e92           jsr (a2)                    ; fcn.00000009+0x2
     0x005a6dac      dec5           adda.w d5, a7
     0x005a6dae      4eb900404946   jsr p_wtln_o
  > 0x005a6db4      7e07           moveq 0x7, d7
      0x005a6db6      122e0028       move.b 0x28(a6), d1
      0x005a6dba      0c010001       cmpi.b 0x1, d1
  < 0x005a6dbe      6614           bne.b 0x5a6dd4
     0x005a6dc0      122e0026       move.b 0x26(a6), d1
     0x005a6dc4      0c010001       cmpi.b 0x1, d1
  < 0x005a6dc8      660a           bne.b 0x5a6dd4
     0x005a6dca      2d7c000000e4.  move.l 0xe4, -0x260(a6)
  < 0x005a6dd2      6008           bra.b 0x5a6ddc
  > 0x005a6dd4      2d7c00000013.  move.l 0x13, -0x260(a6)
  < 0x005a6ddc      600000bc       bra.w 0x5a6e9a
  > 0x005a6de0      554f           subq.w 0x2, a7
     0x005a6de2      1f3c000f       move.b 0xf, -(a7)
     0x005a6de6      4eb900598cca   jsr K01_DEBUG.k01_debug
     0x005a6dec      544f           addq.w 0x2, a7
     0x005a6dee      4a1f           tst.b (a7)+
  < 0x005a6df0      6714           beq.b 0x5a6e06
     0x005a6df2      487acc16       pea.l 0x5a3a0a(pc)
     0x005a6df6      4878000e       pea.l 0xe
     0x005a6dfa      2f17           move.l (a7), -(a7)
     0x005a6dfc      4e92           jsr (a2)                    ; fcn.00000009+0x2
     0x005a6dfe      dec5           adda.w d5, a7
     0x005a6e00      4eb900404946   jsr p_wtln_o
  > 0x005a6e06      7e08           moveq 0x8, d7
     0x005a6e08      2d7c00000004.  move.l 0x4, -0x260(a6)
  < 0x005a6e10      60000088       bra.w 0x5a6e9a
  > 0x005a6e14      554f           subq.w 0x2, a7
      0x005a6e16      1f3c000f       move.b 0xf, -(a7)
      0x005a6e1a      4eb900598cca   jsr K01_DEBUG.k01_debug
      0x005a6e20      544f           addq.w 0x2, a7
      0x005a6e22      4a1f           tst.b (a7)+
  < 0x005a6e24      6714           beq.b 0x5a6e3a
     0x005a6e26      487acbf1       pea.l 0x5a3a19(pc)
     0x005a6e2a      4878000a       pea.l 0xa
     0x005a6e2e      2f17           move.l (a7), -(a7)
     0x005a6e30      4e92           jsr (a2)                    ; fcn.00000009+0x2
     0x005a6e32      dec5           adda.w d5, a7
     0x005a6e34      4eb900404946   jsr p_wtln_o
  > 0x005a6e3a      7e0f           moveq 0xf, d7
      0x005a6e3c      2d7c00000020.  move.l 0x20, -0x260(a6)
  < 0x005a6e44      6054           bra.b 0x5a6e9a
  > 0x005a6e46      554f           subq.w 0x2, a7
     0x005a6e48      1f3c000f       move.b 0xf, -(a7)
     0x005a6e4c      4eb900598cca   jsr K01_DEBUG.k01_debug
     0x005a6e52      544f           addq.w 0x2, a7
     0x005a6e54      4a1f           tst.b (a7)+
  < 0x005a6e56      6714           beq.b 0x5a6e6c
     0x005a6e58      487acbca       pea.l 0x5a3a24(pc)
     0x005a6e5c      4878000a       pea.l 0xa
     0x005a6e60      2f17           move.l (a7), -(a7)
     0x005a6e62      4e92           jsr (a2)                    ; fcn.00000009+0x2
     0x005a6e64      dec5           adda.w d5, a7
     0x005a6e66      4eb900404946   jsr p_wtln_o
  > 0x005a6e6c      7c01           moveq 0x1, d6
  > 0x005a6e6e      2206           move.l d6, d1
     0x005a6e70      5381           subq.l 0x1, d1
     0x005a6e72      0c8100000011   cmpi.l 0x11, d1
  < 0x005a6e78      6302           bls.b 0x5a6e7c
     0x005a6e7a      4e4f           trap 0xf
  > 0x005a6e7c      41eefc1e       lea.l -0x3e2(a6), a0
     0x005a6e80      11bc002d1804   move.b 0x2d, 0x4(a0, d1.l)
     0x005a6e86      5286           addq.l 0x1, d6
     0x005a6e88      0c8600000012   cmpi.l 0x12, d6
  < 0x005a6e8e      6fde           ble.b 0x5a6e6e
     0x005a6e90      7e05           moveq 0x5, d7
     0x005a6e92      2d7c00000016.  move.l 0x16, -0x260(a6)
     ; CODE XREFS from K05_LOADSAVE @ +0x3c02, +0x3c36
  > 0x005a6e9a      554f           subq.w 0x2, a7
       0x005a6e9c      1f3c000f       move.b 0xf, -(a7)
       0x005a6ea0      4eb900598cca   jsr K01_DEBUG.k01_debug
       0x005a6ea6      544f           addq.w 0x2, a7
       0x005a6ea8      4a1f           tst.b (a7)+
   < 0x005a6eaa      6714           beq.b 0x5a6ec0
      0x005a6eac      487acb81       pea.l 0x5a3a2f(pc)
      0x005a6eb0      48780009       pea.l 0x9
      0x005a6eb4      2f17           move.l (a7), -(a7)
      0x005a6eb6      4e92           jsr (a2)                    ; fcn.00000009+0x2
      0x005a6eb8      dec5           adda.w d5, a7
      0x005a6eba      4eb900404946   jsr p_wtln_o
   > 0x005a6ec0      554f           subq.w 0x2, a7
       0x005a6ec2      4887           ext.w d7
       0x005a6ec4      4fbc001e       chk.w 0x1e, d7
       0x005a6ec8      1f07           move.b d7, -(a7)
       0x005a6eca      1f2e0028       move.b 0x28(a6), -(a7)
       0x005a6ece      4227           clr.b -(a7)
       0x005a6ed0      206e002e       movea.l 0x2e(a6), a0
       0x005a6ed4      4850           pea.l (a0)
       0x005a6ed6      41eefc1e       lea.l -0x3e2(a6), a0
       0x005a6eda      2f08           move.l a0, -(a7)
       0x005a6edc      2f2efda0       move.l -0x260(a6), -(a7)
       0x005a6ee0      4eb9005abd82   jsr K1_AFS_ONLY.k1_data
       0x005a6ee6      defc0012       adda.w 0x12, a7
       0x005a6eea      3697           move.w (a7), (a3)
       0x005a6eec      9efc00fc       suba.w 0xfc, a7
       0x005a6ef0      2f3acb46       move.l 0x5a3a38(pc), -(a7)
       0x005a6ef4      2f7acb460004   move.l 0x5a3a3c(pc), 0x4(a7)
       0x005a6efa      2f7acb440008   move.l 0x5a3a40(pc), 0x8(a7)
       0x005a6f00      1f7acb42000c   move.b 0x5a3a44(pc), 0xc(a7)
       0x005a6f06      3f13           move.w (a3), -(a7)
       0x005a6f08      4ebad5ee       jsr K05_LOADSAVE.warn_if_fail(pc)
       0x005a6f0c      defc0102       adda.w 0x102, a7
       0x005a6f10      4a1f           tst.b (a7)+
   < 0x005a6f12      670c           beq.b 0x5a6f20
      0x005a6f14      486efdb2       pea.l -0x24e(a6)
      0x005a6f18      4eb900404468   jsr fcn.00404468
      0x005a6f1e      584f           addq.w 0x4, a7
   > 0x005a6f20      0c070005       cmpi.b 0x5, d7
   < 0x005a6f24      6600015a       bne.w 0x5a7080
      0x005a6f28      554f           subq.w 0x2, a7
      0x005a6f2a      1f3c000f       move.b 0xf, -(a7)
      0x005a6f2e      4eb900598cca   jsr K01_DEBUG.k01_debug
      0x005a6f34      544f           addq.w 0x2, a7
      0x005a6f36      4a1f           tst.b (a7)+
  < 0x005a6f38      6752           beq.b 0x5a6f8c
     0x005a6f3a      487acb0a       pea.l 0x5a3a46(pc)
     0x005a6f3e      4878001f       pea.l 0x1f
     0x005a6f42      2f17           move.l (a7), -(a7)
     0x005a6f44      4e92           jsr (a2)                    ; fcn.00000009+0x2
     0x005a6f46      504f           addq.w 0x8, a7
     0x005a6f48      2eaefc1e       move.l -0x3e2(a6), (a7)
     0x005a6f4c      48780000       pea.l 0x0
     0x005a6f50      4eb9004070e4   jsr p_wti_o
     0x005a6f56      504f           addq.w 0x8, a7
     0x005a6f58      487acb0c       pea.l 0x5a3a66(pc)
     0x005a6f5c      4878000c       pea.l 0xc
     0x005a6f60      2f17           move.l (a7), -(a7)
     0x005a6f62      4e92           jsr (a2)                    ; fcn.00000009+0x2
     0x005a6f64      dec5           adda.w d5, a7
     0x005a6f66      486efc22       pea.l -0x3de(a6)
     0x005a6f6a      48780012       pea.l 0x12
     0x005a6f6e      2f17           move.l (a7), -(a7)
     0x005a6f70      4e92           jsr (a2)                    ; fcn.00000009+0x2
     0x005a6f72      defc000a       adda.w 0xa, a7
     0x005a6f76      1ebc0022       move.b 0x22, (a7)
     0x005a6f7a      48780001       pea.l 0x1
     0x005a6f7e      4eb9004048b4   jsr p_wtc_o
     0x005a6f84      5c4f           addq.w 0x6, a7
     0x005a6f86      4eb900404946   jsr p_wtln_o
  > 0x005a6f8c      2d7cffffffff.  move.l 0xffffffff, -0x4(a6)
      0x005a6f94      554f           subq.w 0x2, a7
      0x005a6f96      1f3c001e       move.b 0x1e, -(a7)
      0x005a6f9a      1f2e0028       move.b 0x28(a6), -(a7)
      0x005a6f9e      4227           clr.b -(a7)
      0x005a6fa0      206e002e       movea.l 0x2e(a6), a0
      0x005a6fa4      4850           pea.l (a0)
      0x005a6fa6      41eefffc       lea.l -0x4(a6), a0
      0x005a6faa      2f08           move.l a0, -(a7)
      0x005a6fac      48780004       pea.l 0x4
      0x005a6fb0      4eb9005abd82   jsr K1_AFS_ONLY.k1_data
      0x005a6fb6      defc0012       adda.w 0x12, a7
      0x005a6fba      3697           move.w (a7), (a3)
      0x005a6fbc      9efc00fc       suba.w 0xfc, a7
      0x005a6fc0      2f3acab0       move.l 0x5a3a72(pc), -(a7)
      0x005a6fc4      2f7acab00004   move.l 0x5a3a76(pc), 0x4(a7)
      0x005a6fca      2f7acaae0008   move.l 0x5a3a7a(pc), 0x8(a7)
      0x005a6fd0      1f7acaac000c   move.b 0x5a3a7e(pc), 0xc(a7)
      0x005a6fd6      3f13           move.w (a3), -(a7)
      0x005a6fd8      4ebad51e       jsr K05_LOADSAVE.warn_if_fail(pc)
      0x005a6fdc      defc0102       adda.w 0x102, a7
      0x005a6fe0      4a1f           tst.b (a7)+
      0x005a6fe2      554f           subq.w 0x2, a7
      0x005a6fe4      1f3c000f       move.b 0xf, -(a7)
      0x005a6fe8      4eb900598cca   jsr K01_DEBUG.k01_debug
      0x005a6fee      544f           addq.w 0x2, a7
      0x005a6ff0      4a1f           tst.b (a7)+
  < 0x005a6ff2      673e           beq.b 0x5a7032
     0x005a6ff4      487aca8a       pea.l 0x5a3a80(pc)
     0x005a6ff8      48780021       pea.l 0x21
     0x005a6ffc      2f17           move.l (a7), -(a7)
     0x005a6ffe      4e92           jsr (a2)                    ; fcn.00000009+0x2
     0x005a7000      504f           addq.w 0x8, a7
     0x005a7002      2eaefffc       move.l -0x4(a6), (a7)
     0x005a7006      48780000       pea.l 0x0
     0x005a700a      4eb9004070e4   jsr p_wti_o
     0x005a7010      504f           addq.w 0x8, a7
     0x005a7012      487aca8e       pea.l 0x5a3aa2(pc)
     0x005a7016      48780009       pea.l 0x9
     0x005a701a      2f17           move.l (a7), -(a7)
     0x005a701c      4e92           jsr (a2)                    ; fcn.00000009+0x2
     0x005a701e      dec5           adda.w d5, a7
     0x005a7020      4853           pea.l (a3)
     0x005a7022      48780002       pea.l 0x2
     0x005a7026      2f17           move.l (a7), -(a7)
     0x005a7028      4e92           jsr (a2)                    ; fcn.00000009+0x2
     0x005a702a      dec5           adda.w d5, a7
     0x005a702c      4eb900404946   jsr p_wtln_o
  > 0x005a7032      554f           subq.w 0x2, a7
      0x005a7034      486efc22       pea.l -0x3de(a6)
      0x005a7038      2f2efc1e       move.l -0x3e2(a6), -(a7)
      0x005a703c      2f2efffc       move.l -0x4(a6), -(a7)
      0x005a7040      4eb900466550   jsr S8_SECURITY.font_password_c
      0x005a7046      dec5           adda.w d5, a7
      0x005a7048      3217           move.w (a7), d1
      0x005a704a      b27aca60       cmp.w 0x5a3aac(pc), d1
  < 0x005a704e      6704           beq.b 0x5a7054
     0x005a7050      544f           addq.w 0x2, a7
  < 0x005a7052      602c           bra.b 0x5a7080
  > 0x005a7054      554f           subq.w 0x2, a7
      0x005a7056      1f3c000f       move.b 0xf, -(a7)
      0x005a705a      4eb900598cca   jsr K01_DEBUG.k01_debug
      0x005a7060      544f           addq.w 0x2, a7
      0x005a7062      4a1f           tst.b (a7)+
  < 0x005a7064      6604           bne.b 0x5a706a
     0x005a7066      544f           addq.w 0x2, a7
  < 0x005a7068      6016           bra.b 0x5a7080
  > 0x005a706a      487aca43       pea.l 0x5a3aaf(pc)
      0x005a706e      48780030       pea.l 0x30
      0x005a7072      2f17           move.l (a7), -(a7)
      0x005a7074      4e92           jsr (a2)                    ; fcn.00000009+0x2
      0x005a7076      dec5           adda.w d5, a7
      0x005a7078      4eb900404946   jsr p_wtln_o
      0x005a707e      544f           addq.w 0x2, a7
      ; CODE XREFS from K05_LOADSAVE @ +0x3e44, +0x3e5a
  > 0x005a7080      554f           subq.w 0x2, a7
       0x005a7082      1f3c000f       move.b 0xf, -(a7)
       0x005a7086      4eb900598cca   jsr K01_DEBUG.k01_debug
       0x005a708c      544f           addq.w 0x2, a7
       0x005a708e      4a1f           tst.b (a7)+
   < 0x005a7090      6714           beq.b 0x5a70a6
      0x005a7092      487aca4c       pea.l 0x5a3ae0(pc)
      0x005a7096      48780009       pea.l 0x9
      0x005a709a      2f17           move.l (a7), -(a7)
      0x005a709c      4e92           jsr (a2)                    ; fcn.00000009+0x2
      0x005a709e      dec5           adda.w d5, a7
      0x005a70a0      4eb900404946   jsr p_wtln_o
   > 0x005a70a6      554f           subq.w 0x2, a7
       0x005a70a8      4887           ext.w d7
       0x005a70aa      4fbc001e       chk.w 0x1e, d7
       0x005a70ae      1f07           move.b d7, -(a7)
       0x005a70b0      1f2e0026       move.b 0x26(a6), -(a7)
       0x005a70b4      1f3c0001       move.b 0x1, -(a7)
       0x005a70b8      206e002a       movea.l 0x2a(a6), a0
       0x005a70bc      4850           pea.l (a0)
       0x005a70be      41eefc1e       lea.l -0x3e2(a6), a0
       0x005a70c2      2f08           move.l a0, -(a7)
       0x005a70c4      2f2efda0       move.l -0x260(a6), -(a7)
       0x005a70c8      4eb9005abd82   jsr K1_AFS_ONLY.k1_data
       0x005a70ce      defc0012       adda.w 0x12, a7
       0x005a70d2      3697           move.w (a7), (a3)
       0x005a70d4      9efc0100       suba.w 0x100, a7
       0x005a70d8      204f           movea.l a7, a0
       0x005a70da      43faca0d       lea.l 0x5a3ae9(pc), a1
       0x005a70de      720c           moveq 0xc, d1
   > 0x005a70e0      10d9           move.b (a1)+, (a0)+
   < 0x005a70e2      51c9fffc       dbra d1, 0x5a70e0
       0x005a70e6      3f13           move.w (a3), -(a7)
       0x005a70e8      4ebad40e       jsr K05_LOADSAVE.warn_if_fail(pc)
       0x005a70ec      defc0102       adda.w 0x102, a7
       0x005a70f0      4a1f           tst.b (a7)+
   < 0x005a70f2      670c           beq.b 0x5a7100
      0x005a70f4      486efdb2       pea.l -0x24e(a6)
      0x005a70f8      4eb900404468   jsr fcn.00404468
      0x005a70fe      584f           addq.w 0x4, a7
   > 0x005a7100      0c070005       cmpi.b 0x5, d7
   < 0x005a7104      666a           bne.b 0x5a7170
      0x005a7106      222efffc       move.l -0x4(a6), d1
      0x005a710a      0c81ffffffff   cmpi.l 0xffffffff, d1
  < 0x005a7110      675e           beq.b 0x5a7170
     0x005a7112      554f           subq.w 0x2, a7
     0x005a7114      1f3c001e       move.b 0x1e, -(a7)
     0x005a7118      1f2e0026       move.b 0x26(a6), -(a7)
     0x005a711c      1f3c0001       move.b 0x1, -(a7)
     0x005a7120      206e002a       movea.l 0x2a(a6), a0
     0x005a7124      4850           pea.l (a0)
     0x005a7126      41eefffc       lea.l -0x4(a6), a0
     0x005a712a      2f08           move.l a0, -(a7)
     0x005a712c      48780004       pea.l 0x4
     0x005a7130      4eb9005abd82   jsr K1_AFS_ONLY.k1_data
     0x005a7136      defc0012       adda.w 0x12, a7
     0x005a713a      3697           move.w (a7), (a3)
     0x005a713c      9efc00fc       suba.w 0xfc, a7
     0x005a7140      2f3ac9b4       move.l 0x5a3af6(pc), -(a7)
     0x005a7144      2f7ac9b40004   move.l 0x5a3afa(pc), 0x4(a7)
     0x005a714a      2f7ac9b20008   move.l 0x5a3afe(pc), 0x8(a7)
     0x005a7150      1f7ac9b0000c   move.b 0x5a3b02(pc), 0xc(a7)
     0x005a7156      3f13           move.w (a3), -(a7)
     0x005a7158      4ebad39e       jsr K05_LOADSAVE.warn_if_fail(pc)
     0x005a715c      defc0102       adda.w 0x102, a7
     0x005a7160      4a1f           tst.b (a7)+
  < 0x005a7162      670c           beq.b 0x5a7170
     0x005a7164      486efdb2       pea.l -0x24e(a6)
     0x005a7168      4eb900404468   jsr fcn.00404468
     0x005a716e      584f           addq.w 0x4, a7
  > 0x005a7170      122e0024       move.b 0x24(a6), d1
       0x005a7174      0c010036       cmpi.b 0x36, d1
   < 0x005a7178      6600010c       bne.w 0x5a7286
      0x005a717c      7e10           moveq 0x10, d7
      0x005a717e      2d7c00000004.  move.l 0x4, -0x260(a6)
      0x005a7186      554f           subq.w 0x2, a7
      0x005a7188      1f3c000f       move.b 0xf, -(a7)
      0x005a718c      4eb900598cca   jsr K01_DEBUG.k01_debug
      0x005a7192      544f           addq.w 0x2, a7
      0x005a7194      4a1f           tst.b (a7)+
  < 0x005a7196      6714           beq.b 0x5a71ac
     0x005a7198      487ac96a       pea.l 0x5a3b04(pc)
     0x005a719c      48780009       pea.l 0x9
     0x005a71a0      2f17           move.l (a7), -(a7)
     0x005a71a2      4e92           jsr (a2)                    ; fcn.00000009+0x2
     0x005a71a4      dec5           adda.w d5, a7
     0x005a71a6      4eb900404946   jsr p_wtln_o
  > 0x005a71ac      4887           ext.w d7
      0x005a71ae      4fbc001e       chk.w 0x1e, d7
      0x005a71b2      554f           subq.w 0x2, a7
      0x005a71b4      1f07           move.b d7, -(a7)
      0x005a71b6      1f2e0028       move.b 0x28(a6), -(a7)
      0x005a71ba      4227           clr.b -(a7)
      0x005a71bc      206e002e       movea.l 0x2e(a6), a0
      0x005a71c0      4850           pea.l (a0)
      0x005a71c2      41eefc1e       lea.l -0x3e2(a6), a0
      0x005a71c6      2f08           move.l a0, -(a7)
      0x005a71c8      48780004       pea.l 0x4
      0x005a71cc      4eb9005abd82   jsr K1_AFS_ONLY.k1_data
      0x005a71d2      defc0012       adda.w 0x12, a7
      0x005a71d6      3697           move.w (a7), (a3)
      0x005a71d8      9efc0100       suba.w 0x100, a7
      0x005a71dc      204f           movea.l a7, a0
      0x005a71de      43fac92d       lea.l 0x5a3b0d(pc), a1
      0x005a71e2      720c           moveq 0xc, d1
  > 0x005a71e4      10d9           move.b (a1)+, (a0)+
  < 0x005a71e6      51c9fffc       dbra d1, 0x5a71e4
      0x005a71ea      3f13           move.w (a3), -(a7)
      0x005a71ec      4ebad30a       jsr K05_LOADSAVE.warn_if_fail(pc)
      0x005a71f0      defc0102       adda.w 0x102, a7
      0x005a71f4      4a1f           tst.b (a7)+
  < 0x005a71f6      670c           beq.b 0x5a7204
     0x005a71f8      486efdb2       pea.l -0x24e(a6)
     0x005a71fc      4eb900404468   jsr fcn.00404468
     0x005a7202      584f           addq.w 0x4, a7
  > 0x005a7204      554f           subq.w 0x2, a7
      0x005a7206      1f3c000f       move.b 0xf, -(a7)
      0x005a720a      4eb900598cca   jsr K01_DEBUG.k01_debug
      0x005a7210      544f           addq.w 0x2, a7
      0x005a7212      4a1f           tst.b (a7)+
  < 0x005a7214      6714           beq.b 0x5a722a
     0x005a7216      487ac903       pea.l 0x5a3b1b(pc)
     0x005a721a      48780009       pea.l 0x9
     0x005a721e      2f17           move.l (a7), -(a7)
     0x005a7220      4e92           jsr (a2)                    ; fcn.00000009+0x2
     0x005a7222      dec5           adda.w d5, a7
     0x005a7224      4eb900404946   jsr p_wtln_o
  > 0x005a722a      554f           subq.w 0x2, a7
      0x005a722c      1f07           move.b d7, -(a7)
      0x005a722e      1f2e0026       move.b 0x26(a6), -(a7)
      0x005a7232      1f3c0001       move.b 0x1, -(a7)
      0x005a7236      206e002a       movea.l 0x2a(a6), a0
      0x005a723a      4850           pea.l (a0)
      0x005a723c      41eefc1e       lea.l -0x3e2(a6), a0
      0x005a7240      2f08           move.l a0, -(a7)
      0x005a7242      48780004       pea.l 0x4
      0x005a7246      4eb9005abd82   jsr K1_AFS_ONLY.k1_data
      0x005a724c      defc0012       adda.w 0x12, a7
      0x005a7250      3697           move.w (a7), (a3)
      0x005a7252      9efc00fc       suba.w 0xfc, a7
      0x005a7256      2f3ac8cc       move.l 0x5a3b24(pc), -(a7)
      0x005a725a      2f7ac8cc0004   move.l 0x5a3b28(pc), 0x4(a7)
      0x005a7260      2f7ac8ca0008   move.l 0x5a3b2c(pc), 0x8(a7)
      0x005a7266      1f7ac8c8000c   move.b 0x5a3b30(pc), 0xc(a7)
      0x005a726c      3f13           move.w (a3), -(a7)
      0x005a726e      4ebad288       jsr K05_LOADSAVE.warn_if_fail(pc)
      0x005a7272      defc0102       adda.w 0x102, a7
      0x005a7276      4a1f           tst.b (a7)+
  < 0x005a7278      670c           beq.b 0x5a7286
     0x005a727a      486efdb2       pea.l -0x24e(a6)
     0x005a727e      4eb900404468   jsr fcn.00404468
     0x005a7284      584f           addq.w 0x4, a7
  > 0x005a7286      600001ae       bra.w 0x5a7436              ; loc.005a73e4+0x52
       0x005a728a      554f           subq.w 0x2, a7
       0x005a728c      1f3c000f       move.b 0xf, -(a7)
       0x005a7290      4eb900598cca   jsr K01_DEBUG.k01_debug
       0x005a7296      544f           addq.w 0x2, a7
       0x005a7298      4a1f           tst.b (a7)+
   < 0x005a729a      6714           beq.b 0x5a72b0
      0x005a729c      487ac894       pea.l 0x5a3b32(pc)
      0x005a72a0      4878000a       pea.l 0xa
      0x005a72a4      2f17           move.l (a7), -(a7)
      0x005a72a6      4e92           jsr (a2)                    ; fcn.00000009+0x2
      0x005a72a8      dec5           adda.w d5, a7
      0x005a72aa      4eb900404946   jsr p_wtln_o
   > 0x005a72b0      7e19           moveq 0x19, d7
       0x005a72b2      2d7c000000ff.  move.l 0xff, -0x260(a6)
       0x005a72ba      554f           subq.w 0x2, a7
       0x005a72bc      1f3c000f       move.b 0xf, -(a7)
       0x005a72c0      4eb900598cca   jsr K01_DEBUG.k01_debug
       0x005a72c6      544f           addq.w 0x2, a7
       0x005a72c8      4a1f           tst.b (a7)+
   < 0x005a72ca      6714           beq.b 0x5a72e0
      0x005a72cc      487ac86f       pea.l 0x5a3b3d(pc)
      0x005a72d0      48780009       pea.l 0x9
      0x005a72d4      2f17           move.l (a7), -(a7)
      0x005a72d6      4e92           jsr (a2)                    ; fcn.00000009+0x2
      0x005a72d8      dec5           adda.w d5, a7
      0x005a72da      4eb900404946   jsr p_wtln_o
   > 0x005a72e0      4887           ext.w d7
       0x005a72e2      4fbc001e       chk.w 0x1e, d7
       0x005a72e6      554f           subq.w 0x2, a7
       0x005a72e8      1f07           move.b d7, -(a7)
       0x005a72ea      1f2e0028       move.b 0x28(a6), -(a7)
       0x005a72ee      4227           clr.b -(a7)
       0x005a72f0      206e002e       movea.l 0x2e(a6), a0
       0x005a72f4      4850           pea.l (a0)
       0x005a72f6      41eefdfc       lea.l -0x204(a6), a0
       0x005a72fa      2f08           move.l a0, -(a7)
       0x005a72fc      486efda0       pea.l -0x260(a6)
       0x005a7300      4eb9005abe94   jsr K1_AFS_ONLY.k1_data_len
       0x005a7306      defc0012       adda.w 0x12, a7
       0x005a730a      3697           move.w (a7), (a3)
       0x005a730c      9efc00fc       suba.w 0xfc, a7
       0x005a7310      2f3ac834       move.l 0x5a3b46(pc), -(a7)
       0x005a7314      2f7ac8340004   move.l 0x5a3b4a(pc), 0x4(a7)
       0x005a731a      2f7ac8320008   move.l 0x5a3b4e(pc), 0x8(a7)
       0x005a7320      1f7ac830000c   move.b 0x5a3b52(pc), 0xc(a7)
       0x005a7326      3f13           move.w (a3), -(a7)
       0x005a7328      4ebad1ce       jsr K05_LOADSAVE.warn_if_fail(pc)
       0x005a732c      defc0102       adda.w 0x102, a7
       0x005a7330      4a1f           tst.b (a7)+
   < 0x005a7332      670c           beq.b 0x5a7340
      0x005a7334      486efdb2       pea.l -0x24e(a6)
      0x005a7338      4eb900404468   jsr fcn.00404468
      0x005a733e      584f           addq.w 0x4, a7
   > 0x005a7340      554f           subq.w 0x2, a7
       0x005a7342      1f3c000f       move.b 0xf, -(a7)
       0x005a7346      4eb900598cca   jsr K01_DEBUG.k01_debug
       0x005a734c      544f           addq.w 0x2, a7
       0x005a734e      4a1f           tst.b (a7)+
   < 0x005a7350      6714           beq.b 0x5a7366
      0x005a7352      487ac800       pea.l 0x5a3b54(pc)
      0x005a7356      48780009       pea.l 0x9
      0x005a735a      2f17           move.l (a7), -(a7)
      0x005a735c      4e92           jsr (a2)                    ; fcn.00000009+0x2
      0x005a735e      dec5           adda.w d5, a7
      0x005a7360      4eb900404946   jsr p_wtln_o
   > 0x005a7366      554f           subq.w 0x2, a7
       0x005a7368      1f07           move.b d7, -(a7)
       0x005a736a      1f2e0026       move.b 0x26(a6), -(a7)
       0x005a736e      1f3c0001       move.b 0x1, -(a7)
       0x005a7372      206e002a       movea.l 0x2a(a6), a0
       0x005a7376      4850           pea.l (a0)
       0x005a7378      41eefdfc       lea.l -0x204(a6), a0
       0x005a737c      2f08           move.l a0, -(a7)
       0x005a737e      486efda0       pea.l -0x260(a6)
       0x005a7382      4eb9005abe94   jsr K1_AFS_ONLY.k1_data_len
       0x005a7388      defc0012       adda.w 0x12, a7
       0x005a738c      3697           move.w (a7), (a3)
       0x005a738e      9efc0100       suba.w 0x100, a7
       0x005a7392      204f           movea.l a7, a0
       0x005a7394      43fac7c7       lea.l 0x5a3b5d(pc), a1
       0x005a7398      720c           moveq 0xc, d1
   > 0x005a739a      10d9           move.b (a1)+, (a0)+
   < 0x005a739c      51c9fffc       dbra d1, 0x5a739a
       0x005a73a0      3f13           move.w (a3), -(a7)
       0x005a73a2      4ebad154       jsr K05_LOADSAVE.warn_if_fail(pc)
       0x005a73a6      defc0102       adda.w 0x102, a7
       0x005a73aa      4a1f           tst.b (a7)+
   < 0x005a73ac      670c           beq.b 0x5a73ba
      0x005a73ae      486efdb2       pea.l -0x24e(a6)
      0x005a73b2      4eb900404468   jsr fcn.00404468
      0x005a73b8      584f           addq.w 0x4, a7
  > 0x005a73ba      607a           bra.b 0x5a7436              ; loc.005a73e4+0x52
      0x005a73bc      554f           subq.w 0x2, a7
      0x005a73be      1f3c000f       move.b 0xf, -(a7)
      0x005a73c2      4eb900598cca   jsr K01_DEBUG.k01_debug
      0x005a73c8      544f           addq.w 0x2, a7
      0x005a73ca      4a1f           tst.b (a7)+
  < 0x005a73cc      6714           beq.b 0x5a73e2
     0x005a73ce      487ac79b       pea.l 0x5a3b6b(pc)
     0x005a73d2      48780015       pea.l 0x15
     0x005a73d6      2f17           move.l (a7), -(a7)
     0x005a73d8      4e92           jsr (a2)                    ; fcn.00000009+0x2
     0x005a73da      dec5           adda.w d5, a7
     0x005a73dc      4eb900404946   jsr p_wtln_o
  > 0x005a73e2      6052           bra.b 0x5a7436              ; loc.005a73e4+0x52
      ; CODE XREF from K05_LOADSAVE.transfer_header @ 0x5a6714
 110: loc.005a73e4 (int32_t arg_8h);
     ; var int32_t var_388eh @ a6-0x388e
     ; arg int32_t arg_8h @ a7+0x8
 > 0x005a73e4      9efc0100       suba.w 0x100, a7
        0x005a73e8      1f00           move.b d0, -(a7)
        0x005a73ea      4eb9005afcd0   jsr K2_TYPES.k3_ftype_str
        0x005a73f0      544f           addq.w 0x2, a7
        0x005a73f2      487ac78d       pea.l 0x5a3b81(pc)
        0x005a73f6      48780014       pea.l 0x14
        0x005a73fa      2f17           move.l (a7), -(a7)
        0x005a73fc      4e92           jsr (a2)                    ; fcn.00000009+0x2
        0x005a73fe      dec5           adda.w d5, a7
        0x005a7400      486f0001       pea.l 0x1(a7)
        0x005a7404      42a7           clr.l -(a7)
        0x005a7406      1f6f00080003   move.b 0x8(a7), 0x3(a7)
        0x005a740c      2f17           move.l (a7), -(a7)
        0x005a740e      4e92           jsr (a2)                    ; fcn.00000009+0x2
        0x005a7410      defc010c       adda.w 0x10c, a7
        0x005a7414      487ac780       pea.l 0x5a3b96(pc)
        0x005a7418      48780008       pea.l 0x8
        0x005a741c      2f17           move.l (a7), -(a7)
        0x005a741e      4e92           jsr (a2)                    ; fcn.00000009+0x2
        0x005a7420      dec5           adda.w d5, a7
        0x005a7422      4eb900404946   jsr p_wtln_o
        0x005a7428      16bac775       move.b 0x5a3b9f(pc), (a3)
        0x005a742c      1d7ac772fdb1   move.b 0x5a3ba0(pc), -0x24f(a6)
 < 0x005a7432      6000f8d8       bra.w 0x5a6d0c
        ; CODE XREF from K05_LOADSAVE @ +0x4078
 > 0x005a7436      3d530032       move.w (a3), 0x32(a6)
           0x005a743a      4cdf1fff       movem.l (a7)+, d0-d7/a0-a4
           0x005a743e      4e5e           unlk a6
           0x005a7440      4e75           rts
            ; CALL XREF from K05_LOADSAVE.k_copy_file @ 0x5a802c
 628: K05_LOADSAVE.copy_file_byte_ ();
           ; var int32_t var_3902h @ a6-0x3902
           0x005a7442      4e56fe5c       link.w a6, 0xfe5c
           0x005a7446      bfd5           cmpa.l (a5), a7
       < 0x005a7448      6206           bhi.b 0x5a7450
          0x005a744a      44fc0002       move.w 0x2, ccr
          0x005a744e      4e76           trapv
       > 0x005a7450      defc0148       adda.w 0x148, a7
           0x005a7454      48e7fff8       movem.l d0-d7/a0-a4, -(a7)
           0x005a7458      47eefffe       lea.l -0x2(a6), a3
           0x005a745c      49eeffa8       lea.l -0x58(a6), a4
           0x005a7460      223c0000a000   move.l 0xa000, d1
           0x005a7466      7401           moveq 0x1, d2
           0x005a7468      3a3c0102       move.w 0x102, d5
           0x005a746c      7c0c           moveq 0xc, d6
           0x005a746e      36bac732       move.w 0x5a3ba2(pc), (a3)
           0x005a7472      2d42ffa4       move.l d2, -0x5c(a6)
           0x005a7476      2882           move.l d2, (a4)
           0x005a7478      554f           subq.w 0x2, a7
           0x005a747a      486effb4       pea.l -0x4c(a6)
           0x005a747e      4eb900404434   jsr fcn.00404434
           0x005a7484      584f           addq.w 0x4, a7
           0x005a7486      4a1f           tst.b (a7)+
       < 0x005a7488      670001f2       beq.w 0x5a767c
          0x005a748c      486effa4       pea.l -0x5c(a6)
          0x005a7490      2f01           move.l d1, -(a7)
          0x005a7492      4eb900403a92   jsr p_New
          0x005a7498      504f           addq.w 0x8, a7
          0x005a749a      206effa4       movea.l -0x5c(a6), a0
          0x005a749e      b0c2           cmpa.w d2, a0
      < 0x005a74a0      660a           bne.b 0x5a74ac
         0x005a74a2      16bac701       move.b 0x5a3ba5(pc), (a3)
         0x005a74a6      1d7ac6feffff   move.b 0x5a3ba6(pc), -0x1(a6)
      > 0x005a74ac      9ec5           suba.w d5, a7
          0x005a74ae      224f           movea.l a7, a1
          0x005a74b0      45fac6f5       lea.l 0x5a3ba7(pc), a2
          0x005a74b4      701b           moveq 0x1b, d0
      > 0x005a74b6      12da           move.b (a2)+, (a1)+
      < 0x005a74b8      51c8fffc       dbra d0, 0x5a74b6
          0x005a74bc      3f13           move.w (a3), -(a7)
          0x005a74be      4ebad038       jsr K05_LOADSAVE.warn_if_fail(pc)
          0x005a74c2      dec5           adda.w d5, a7
          0x005a74c4      4a1f           tst.b (a7)+
      < 0x005a74c6      670c           beq.b 0x5a74d4
         0x005a74c8      486effb4       pea.l -0x4c(a6)
         0x005a74cc      4eb900404468   jsr fcn.00404468
         0x005a74d2      584f           addq.w 0x4, a7
      > 0x005a74d4      4a2e0008       tst.b 0x8(a6)
      < 0x005a74d8      6742           beq.b 0x5a751c
         0x005a74da      4854           pea.l (a4)
         0x005a74dc      2f01           move.l d1, -(a7)
         0x005a74de      4eb900403a92   jsr p_New
         0x005a74e4      504f           addq.w 0x8, a7
         0x005a74e6      2254           movea.l (a4), a1
         0x005a74e8      b2c2           cmpa.w d2, a1
     < 0x005a74ea      6604           bne.b 0x5a74f0
        0x005a74ec      36bac6d6       move.w 0x5a3bc4(pc), (a3)
     > 0x005a74f0      9ec5           suba.w d5, a7
         0x005a74f2      224f           movea.l a7, a1
         0x005a74f4      45fac6d0       lea.l 0x5a3bc6(pc), a2
         0x005a74f8      7006           moveq 0x6, d0
     > 0x005a74fa      22da           move.l (a2)+, (a1)+
     < 0x005a74fc      51c8fffc       dbra d0, 0x5a74fa
         0x005a7500      12da           move.b (a2)+, (a1)+
         0x005a7502      3f13           move.w (a3), -(a7)
         0x005a7504      4ebacff2       jsr K05_LOADSAVE.warn_if_fail(pc)
         0x005a7508      dec5           adda.w d5, a7
         0x005a750a      4a1f           tst.b (a7)+
     < 0x005a750c      6710           beq.b 0x5a751e
        0x005a750e      486effb4       pea.l -0x4c(a6)
        0x005a7512      4eb900404468   jsr fcn.00404468
        0x005a7518      584f           addq.w 0x4, a7
    < 0x005a751a      6002           bra.b 0x5a751e
    > 0x005a751c      2888           move.l a0, (a4)
    > 0x005a751e      554f           subq.w 0x2, a7
          0x005a7520      1f3c000f       move.b 0xf, -(a7)
          0x005a7524      4eb900598cca   jsr K01_DEBUG.k01_debug
          0x005a752a      544f           addq.w 0x2, a7
          0x005a752c      4a1f           tst.b (a7)+
      < 0x005a752e      675e           beq.b 0x5a758e
         0x005a7530      487ac6b2       pea.l 0x5a3be4(pc)
         0x005a7534      4878000a       pea.l 0xa
         0x005a7538      2f17           move.l (a7), -(a7)
         0x005a753a      4eb9004047ea   jsr p_wts_o
         0x005a7540      dec6           adda.w d6, a7
         0x005a7542      282e000a       move.l 0xa(a6), d4
         0x005a7546      4eb900408686   jsr fcn.00408686
         0x005a754c      594f           subq.w 0x4, a7
         0x005a754e      2f04           move.l d4, -(a7)
         0x005a7550      2801           move.l d1, d4
         0x005a7552      4eb900408686   jsr fcn.00408686
         0x005a7558      2604           move.l d4, d3
         0x005a755a      2817           move.l (a7), d4
         0x005a755c      4eb900407ff8   jsr fcn.00407ff8
         0x005a7562      584f           addq.w 0x4, a7
         0x005a7564      2e84           move.l d4, (a7)
         0x005a7566      48780004       pea.l 0x4
         0x005a756a      48780003       pea.l 0x3
         0x005a756e      4eb900439f72   jsr P17_FRDWRT.p_wtf2_o
         0x005a7574      dec6           adda.w d6, a7
         0x005a7576      487ac677       pea.l 0x5a3bef(pc)
         0x005a757a      48780008       pea.l 0x8
         0x005a757e      2f17           move.l (a7), -(a7)
         0x005a7580      4eb9004047ea   jsr p_wts_o
         0x005a7586      dec6           adda.w d6, a7
         0x005a7588      4eb900404946   jsr p_wtln_o
      > 0x005a758e      282e000a       move.l 0xa(a6), d4
          0x005a7592      2601           move.l d1, d3
          0x005a7594      4eb900406b50   jsr fcn.00406b50
          0x005a759a      5384           subq.l 0x1, d4
          0x005a759c      2f04           move.l d4, -(a7)
          0x005a759e      7e00           moveq 0x0, d7
      > 0x005a75a0      be97           cmp.l (a7), d7
     < 0x005a75a2      6e6e           bgt.b 0x5a7612
        0x005a75a4      282e000a       move.l 0xa(a6), d4
        0x005a75a8      2601           move.l d1, d3
        0x005a75aa      4eb900406b50   jsr fcn.00406b50
        0x005a75b0      554f           subq.w 0x2, a7
        0x005a75b2      486e001c       pea.l 0x1c(a6)
        0x005a75b6      486e0012       pea.l 0x12(a6)
        0x005a75ba      1f2e0010       move.b 0x10(a6), -(a7)
        0x005a75be      1f2e000e       move.b 0xe(a6), -(a7)
        0x005a75c2      2f2effa4       move.l -0x5c(a6), -(a7)
        0x005a75c6      2f14           move.l (a4), -(a7)
        0x005a75c8      2f07           move.l d7, -(a7)
        0x005a75ca      2f01           move.l d1, -(a7)
        0x005a75cc      4227           clr.b -(a7)
        0x005a75ce      5384           subq.l 0x1, d4
        0x005a75d0      be84           cmp.l d4, d7
    < 0x005a75d2      6602           bne.b 0x5a75d6
       0x005a75d4      5217           addq.b 0x1, (a7)
    > 0x005a75d6      1f2e0008       move.b 0x8(a6), -(a7)
        0x005a75da      4ebaeb00       jsr K05_LOADSAVE.copy_chunk(pc)
        0x005a75de      defc0020       adda.w 0x20, a7
        0x005a75e2      3697           move.w (a7), (a3)
        0x005a75e4      9efc0100       suba.w 0x100, a7
        0x005a75e8      204f           movea.l a7, a0
        0x005a75ea      43fac60b       lea.l 0x5a3bf7(pc), a1
        0x005a75ee      7016           moveq 0x16, d0
    > 0x005a75f0      10d9           move.b (a1)+, (a0)+
    < 0x005a75f2      51c8fffc       dbra d0, 0x5a75f0
        0x005a75f6      3f13           move.w (a3), -(a7)
        0x005a75f8      4ebacefe       jsr K05_LOADSAVE.warn_if_fail(pc)
        0x005a75fc      dec5           adda.w d5, a7
        0x005a75fe      4a1f           tst.b (a7)+
    < 0x005a7600      670c           beq.b 0x5a760e
       0x005a7602      486effb4       pea.l -0x4c(a6)
       0x005a7606      4eb900404468   jsr fcn.00404468
       0x005a760c      584f           addq.w 0x4, a7
    > 0x005a760e      5287           addq.l 0x1, d7
     < 0x005a7610      688e           bvc.b 0x5a75a0
     > 0x005a7612      584f           addq.w 0x4, a7
          0x005a7614      282e000a       move.l 0xa(a6), d4
          0x005a7618      2601           move.l d1, d3
          0x005a761a      4eb900406b50   jsr fcn.00406b50
          0x005a7620      4a83           tst.l d3
      < 0x005a7622      6758           beq.b 0x5a767c
         0x005a7624      554f           subq.w 0x2, a7
         0x005a7626      486e001c       pea.l 0x1c(a6)
         0x005a762a      486e0012       pea.l 0x12(a6)
         0x005a762e      1f2e0010       move.b 0x10(a6), -(a7)
         0x005a7632      1f2e000e       move.b 0xe(a6), -(a7)
         0x005a7636      2f2effa4       move.l -0x5c(a6), -(a7)
         0x005a763a      2f14           move.l (a4), -(a7)
         0x005a763c      2f04           move.l d4, -(a7)
         0x005a763e      2f03           move.l d3, -(a7)
         0x005a7640      1f02           move.b d2, -(a7)
         0x005a7642      1f2e0008       move.b 0x8(a6), -(a7)
         0x005a7646      4ebaea94       jsr K05_LOADSAVE.copy_chunk(pc)
         0x005a764a      defc0020       adda.w 0x20, a7
         0x005a764e      3697           move.w (a7), (a3)
         0x005a7650      9efc0100       suba.w 0x100, a7
         0x005a7654      204f           movea.l a7, a0
         0x005a7656      43fac5b6       lea.l 0x5a3c0e(pc), a1
         0x005a765a      7004           moveq 0x4, d0
     > 0x005a765c      20d9           move.l (a1)+, (a0)+
     < 0x005a765e      51c8fffc       dbra d0, 0x5a765c
         0x005a7662      30d9           move.w (a1)+, (a0)+
         0x005a7664      3f13           move.w (a3), -(a7)
         0x005a7666      4ebace90       jsr K05_LOADSAVE.warn_if_fail(pc)
         0x005a766a      dec5           adda.w d5, a7
         0x005a766c      4a1f           tst.b (a7)+
     < 0x005a766e      670c           beq.b 0x5a767c
        0x005a7670      486effb4       pea.l -0x4c(a6)
        0x005a7674      4eb900404468   jsr fcn.00404468
        0x005a767a      584f           addq.w 0x4, a7
     > 0x005a767c      3d530026       move.w (a3), 0x26(a6)
           0x005a7680      206effa4       movea.l -0x5c(a6), a0
           0x005a7684      b0c2           cmpa.w d2, a0
       < 0x005a7686      670e           beq.b 0x5a7696
          0x005a7688      486effa4       pea.l -0x5c(a6)
          0x005a768c      2f01           move.l d1, -(a7)
          0x005a768e      4eb900403b98   jsr p_Dispos
          0x005a7694      504f           addq.w 0x8, a7
       > 0x005a7696      4a2e0008       tst.b 0x8(a6)
       < 0x005a769a      6712           beq.b 0x5a76ae
          0x005a769c      2054           movea.l (a4), a0
          0x005a769e      b0c2           cmpa.w d2, a0
      < 0x005a76a0      670c           beq.b 0x5a76ae
         0x005a76a2      4854           pea.l (a4)
         0x005a76a4      2f01           move.l d1, -(a7)
         0x005a76a6      4eb900403b98   jsr p_Dispos
         0x005a76ac      504f           addq.w 0x8, a7
      > 0x005a76ae      4cdf1fff       movem.l (a7)+, d0-d7/a0-a4
           0x005a76b2      4e5e           unlk a6
           0x005a76b4      4e75           rts
            ; CALL XREFS from K05_LOADSAVE.k_copy_file @ 0x5a7c4e, 0x5a807c, 0x5a825a
 224: K05_LOADSAVE.write_file_ptrs ();
           ; var int32_t var_8h @ a7+0x8
           ; var int32_t var_108h @ a7+0x108
           0x005a76b6      4e56fde4       link.w a6, 0xfde4
           0x005a76ba      bfd5           cmpa.l (a5), a7
       < 0x005a76bc      6206           bhi.b 0x5a76c4
          0x005a76be      44fc0002       move.w 0x2, ccr
          0x005a76c2      4e76           trapv
       > 0x005a76c4      defc021c       adda.w 0x21c, a7
           0x005a76c8      48e7c080       movem.l d0-d1/a0, -(a7)
           0x005a76cc      41f9004047ea   lea.l p_wts_o, a0
           0x005a76d2      700c           moveq 0xc, d0
           0x005a76d4      7214           moveq 0x14, d1
           0x005a76d6      554f           subq.w 0x2, a7
           0x005a76d8      2f2c0006       move.l 0x6(a4), -(a7)
           0x005a76dc      2f2c0002       move.l 0x2(a4), -(a7)
           0x005a76e0      3f14           move.w (a4), -(a7)
           0x005a76e2      2f2c001a       move.l 0x1a(a4), -(a7)
           0x005a76e6      2f2c0016       move.l 0x16(a4), -(a7)
           0x005a76ea      3f2c0014       move.w 0x14(a4), -(a7)
           0x005a76ee      4ebacf32       jsr K05_LOADSAVE.fids_eq(pc)
           0x005a76f2      dec1           adda.w d1, a7
           0x005a76f4      4a1f           tst.b (a7)+
       < 0x005a76f6      6724           beq.b 0x5a771c
          0x005a76f8      554f           subq.w 0x2, a7
          0x005a76fa      2f2c0010       move.l 0x10(a4), -(a7)
          0x005a76fe      2f2c000c       move.l 0xc(a4), -(a7)
          0x005a7702      3f2c000a       move.w 0xa(a4), -(a7)
          0x005a7706      2f2c0024       move.l 0x24(a4), -(a7)
          0x005a770a      2f2c0020       move.l 0x20(a4), -(a7)
          0x005a770e      3f2c001e       move.w 0x1e(a4), -(a7)
          0x005a7712      4ebacf0e       jsr K05_LOADSAVE.fids_eq(pc)
          0x005a7716      dec1           adda.w d1, a7
          0x005a7718      4a1f           tst.b (a7)+
      < 0x005a771a      6672           bne.b 0x5a778e
      > 0x005a771c      9efc0100       suba.w 0x100, a7
          0x005a7720      2f2c0006       move.l 0x6(a4), -(a7)
          0x005a7724      2f2c0002       move.l 0x2(a4), -(a7)
          0x005a7728      3f14           move.w (a4), -(a7)
          0x005a772a      4ebacfee       jsr K05_LOADSAVE.fid_str(pc)
          0x005a772e      9efc00f6       suba.w 0xf6, a7
          0x005a7732      2f2c0010       move.l 0x10(a4), -(a7)
          0x005a7736      2f2c000c       move.l 0xc(a4), -(a7)
          0x005a773a      3f2c000a       move.w 0xa(a4), -(a7)
          0x005a773e      4ebacfda       jsr K05_LOADSAVE.fid_str(pc)
          0x005a7742      defc000a       adda.w 0xa, a7
          0x005a7746      487ac4dd       pea.l 0x5a3c25(pc)
          0x005a774a      4878001a       pea.l 0x1a
          0x005a774e      2f17           move.l (a7), -(a7)
          0x005a7750      4e90           jsr (a0)                    ; fcn.00000009
          0x005a7752      dec0           adda.w d0, a7
          0x005a7754      486f0101       pea.l 0x101(a7)
          0x005a7758      42a7           clr.l -(a7)
          0x005a775a      1f6f01080003   move.b 0x108(a7), 0x3(a7)
          0x005a7760      2f17           move.l (a7), -(a7)
          0x005a7762      4e90           jsr (a0)                    ; fcn.00000009
          0x005a7764      dec0           adda.w d0, a7
          0x005a7766      487ac4d8       pea.l 0x5a3c40(pc)
          0x005a776a      48780008       pea.l 0x8
          0x005a776e      2f17           move.l (a7), -(a7)
          0x005a7770      4e90           jsr (a0)                    ; fcn.00000009
          0x005a7772      dec0           adda.w d0, a7
          0x005a7774      486f0001       pea.l 0x1(a7)
          0x005a7778      42a7           clr.l -(a7)
          0x005a777a      1f6f00080003   move.b 0x8(a7), 0x3(a7)
          0x005a7780      2f17           move.l (a7), -(a7)
          0x005a7782      4e90           jsr (a0)                    ; fcn.00000009
          0x005a7784      defc020c       adda.w 0x20c, a7
          0x005a7788      4eb900404946   jsr p_wtln_o
      > 0x005a778e      4cdf0103       movem.l (a7)+, d0-d1/a0
           0x005a7792      4e5e           unlk a6
           0x005a7794      4e75           rts
 60: K05_LOADSAVE.report ();
           0x005a7796      4e56fef0       link.w a6, 0xfef0
           0x005a779a      bfd5           cmpa.l (a5), a7
       < 0x005a779c      6206           bhi.b 0x5a77a4
          0x005a779e      44fc0002       move.w 0x2, ccr
          0x005a77a2      4e76           trapv
       > 0x005a77a4      defc0110       adda.w 0x110, a7
           0x005a77a8      48e780c0       movem.l d0/a0-a1, -(a7)
           0x005a77ac      206e0008       movea.l 0x8(a6), a0
           0x005a77b0      9efc0100       suba.w 0x100, a7
           0x005a77b4      224f           movea.l a7, a1
           0x005a77b6      303c00ff       move.w 0xff, d0
       > 0x005a77ba      12d8           move.b (a0)+, (a1)+
       < 0x005a77bc      51c8fffc       dbra d0, 0x5a77ba
           0x005a77c0      4eb90048e764   jsr MENUINITCOM.report_countdow
           0x005a77c6      defc0100       adda.w 0x100, a7
           0x005a77ca      4cdf0301       movem.l (a7)+, d0/a0-a1
           0x005a77ce      4e5e           unlk a6
           0x005a77d0      4e75           rts
            ; CALL XREF from MENUFPUTILSCOM.install_fonts @ 0x4fb1c0
            ; CALL XREF from K04_FILEROPS.k_number @ 0x5a175a
            ; CALL XREF from K7_HANDLERS.create_and_copy @ 0x5b5520
            ; CALL XREF from K91_LIBOPS.create_and_copy @ 0x64d684
 3458: K05_LOADSAVE.k_copy_file ();
           ; var int32_t var_47deh @ a6-0x47de
           ; var int32_t var_47dch @ a6-0x47dc
           ; var int32_t var_47dah @ a6-0x47da
           ; var int32_t var_413eh @ a6-0x413e
           ; var int32_t var_4139h @ a6-0x4139
           ; var int32_t var_4078h @ a6-0x4078
           ; var int32_t var_4073h @ a6-0x4073
           ; var int32_t var_3e76h @ a6-0x3e76
           ; var int32_t var_3e71h @ a6-0x3e71
           ; var int32_t var_3df2h @ a6-0x3df2
           ; var int32_t var_3dedh @ a6-0x3ded
           ; var int32_t var_3bb6h @ a6-0x3bb6
           ; var int32_t var_3bb1h @ a6-0x3bb1
           ; var int32_t var_206h @ a6-0x206
           ; var int32_t var_202h @ a6-0x202
           ; var int32_t var_1feh @ a6-0x1fe
           ; var int32_t var_1fch @ a6-0x1fc
           ; var int32_t var_1f8h @ a6-0x1f8
           ; var int32_t var_1f4h @ a6-0x1f4
           ; var int32_t var_1dch @ a6-0x1dc
           ; var int32_t var_1h @ a7+0x1
           ; var int32_t var_2h @ a7+0x2
           ; var int32_t var_3h @ a7+0x3
           ; var int32_t var_8h @ a7+0x8
           0x005a77d2      4e56fc9c       link.w a6, 0xfc9c
           0x005a77d6      bfd5           cmpa.l (a5), a7
       < 0x005a77d8      6206           bhi.b 0x5a77e0
          0x005a77da      44fc0002       move.w 0x2, ccr
          0x005a77de      4e76           trapv
       > 0x005a77e0      defc015e       adda.w 0x15e, a7
           0x005a77e4      48e7fff8       movem.l d0-d7/a0-a4, -(a7)
           0x005a77e8      7a0c           moveq 0xc, d5
           0x005a77ea      23fac45c0083.  move.l 0x5a3c48(pc), 0x83fe7c.l
           0x005a77f2      23fac4580083.  move.l 0x5a3c4c(pc), 0x83fe80.l
           0x005a77fa      33fac4540083.  move.w 0x5a3c50(pc), 0x83fe84.l
           0x005a7802      1d7ac44ffe24   move.b 0x5a3c53(pc), -0x1dc(a6)
           0x005a7808      1d7ac44afe25   move.b 0x5a3c54(pc), -0x1db(a6)
           0x005a780e      554f           subq.w 0x2, a7
           0x005a7810      1f3c000f       move.b 0xf, -(a7)
           0x005a7814      4eb900598cca   jsr K01_DEBUG.k01_debug
           0x005a781a      544f           addq.w 0x2, a7
           0x005a781c      4a1f           tst.b (a7)+
       < 0x005a781e      674e           beq.b 0x5a786e
          0x005a7820      9efc0100       suba.w 0x100, a7
          0x005a7824      2f2e000c       move.l 0xc(a6), -(a7)
          0x005a7828      2f2e0008       move.l 0x8(a6), -(a7)
          0x005a782c      48780000       pea.l 0x0
          0x005a7830      48780004       pea.l 0x4
          0x005a7834      4eb90044e33c   jsr SYSTEM_STRING.rpoint_str
          0x005a783a      defc0010       adda.w 0x10, a7
          0x005a783e      487ac416       pea.l 0x5a3c56(pc)
          0x005a7842      48780012       pea.l 0x12
          0x005a7846      2f17           move.l (a7), -(a7)
          0x005a7848      4eb9004047ea   jsr p_wts_o
          0x005a784e      dec5           adda.w d5, a7
          0x005a7850      486f0001       pea.l 0x1(a7)
          0x005a7854      42a7           clr.l -(a7)
          0x005a7856      1f6f00080003   move.b 0x8(a7), 0x3(a7)
          0x005a785c      2f17           move.l (a7), -(a7)
          0x005a785e      4eb9004047ea   jsr p_wts_o
          0x005a7864      defc010c       adda.w 0x10c, a7
          0x005a7868      4eb900404946   jsr p_wtln_o
       > 0x005a786e      554f           subq.w 0x2, a7
           0x005a7870      486efea2       pea.l -0x15e(a6)
           0x005a7874      4eb900404434   jsr fcn.00404434
           0x005a787a      584f           addq.w 0x4, a7
           0x005a787c      4a1f           tst.b (a7)+
       < 0x005a787e      67000c62       beq.w 0x5a84e2
          0x005a7882      9efc000a       suba.w 0xa, a7
          0x005a7886      206e0016       movea.l 0x16(a6), a0
          0x005a788a      4850           pea.l (a0)
          0x005a788c      486efe24       pea.l -0x1dc(a6)
          0x005a7890      486efe22       pea.l -0x1de(a6)
          0x005a7894      4ebacdd0       jsr K05_LOADSAVE.gen_fid(pc)
          0x005a7898      dec5           adda.w d5, a7
          0x005a789a      2d5ffdfa       move.l (a7)+, -0x206(a6)
          0x005a789e      2d5ffdfe       move.l (a7)+, -0x202(a6)
          0x005a78a2      3d57fe02       move.w (a7), -0x1fe(a6)
          0x005a78a6      9efc0100       suba.w 0x100, a7
          0x005a78aa      204f           movea.l a7, a0
          0x005a78ac      43fac3ba       lea.l 0x5a3c68(pc), a1
          0x005a78b0      7004           moveq 0x4, d0
      > 0x005a78b2      20d9           move.l (a1)+, (a0)+
      < 0x005a78b4      51c8fffc       dbra d0, 0x5a78b2
          0x005a78b8      30d9           move.w (a1)+, (a0)+
          0x005a78ba      3f2efe24       move.w -0x1dc(a6), -(a7)
          0x005a78be      4ebacc38       jsr K05_LOADSAVE.warn_if_fail(pc)
          0x005a78c2      defc0102       adda.w 0x102, a7
          0x005a78c6      4a1f           tst.b (a7)+
      < 0x005a78c8      670c           beq.b 0x5a78d6
         0x005a78ca      486efea2       pea.l -0x15e(a6)
         0x005a78ce      4eb900404468   jsr fcn.00404468
         0x005a78d4      584f           addq.w 0x4, a7
      > 0x005a78d6      2d6efdfafe0e   move.l -0x206(a6), -0x1f2(a6)
          0x005a78dc      2d6efdfefe12   move.l -0x202(a6), -0x1ee(a6)
          0x005a78e2      3d6efe02fe16   move.w -0x1fe(a6), -0x1ea(a6)
          0x005a78e8      206e0012       movea.l 0x12(a6), a0
          0x005a78ec      9efc000a       suba.w 0xa, a7
          0x005a78f0      4850           pea.l (a0)
          0x005a78f2      486efe24       pea.l -0x1dc(a6)
          0x005a78f6      486efe23       pea.l -0x1dd(a6)
          0x005a78fa      4ebacd6a       jsr K05_LOADSAVE.gen_fid(pc)
          0x005a78fe      dec5           adda.w d5, a7
          0x005a7900      2d5ffe04       move.l (a7)+, -0x1fc(a6)
          0x005a7904      2d5ffe08       move.l (a7)+, -0x1f8(a6)
          0x005a7908      3d57fe0c       move.w (a7), -0x1f4(a6)
          0x005a790c      9efc0100       suba.w 0x100, a7
          0x005a7910      224f           movea.l a7, a1
          0x005a7912      45fac36a       lea.l 0x5a3c7e(pc), a2
          0x005a7916      7004           moveq 0x4, d0
      > 0x005a7918      22da           move.l (a2)+, (a1)+
      < 0x005a791a      51c8fffc       dbra d0, 0x5a7918
          0x005a791e      32da           move.w (a2)+, (a1)+
          0x005a7920      3f2efe24       move.w -0x1dc(a6), -(a7)
          0x005a7924      4ebacbd2       jsr K05_LOADSAVE.warn_if_fail(pc)
          0x005a7928      defc0102       adda.w 0x102, a7
          0x005a792c      4a1f           tst.b (a7)+
      < 0x005a792e      670c           beq.b 0x5a793c
         0x005a7930      486efea2       pea.l -0x15e(a6)
         0x005a7934      4eb900404468   jsr fcn.00404468
         0x005a793a      584f           addq.w 0x4, a7
      > 0x005a793c      2d6efe04fe18   move.l -0x1fc(a6), -0x1e8(a6)
          0x005a7942      2d6efe08fe1c   move.l -0x1f8(a6), -0x1e4(a6)
          0x005a7948      3d6efe0cfe20   move.w -0x1f4(a6), -0x1e0(a6)
          0x005a794e      4a2e0010       tst.b 0x10(a6)
      < 0x005a7952      66000098       bne.w 0x5a79ec
         0x005a7956      554f           subq.w 0x2, a7
         0x005a7958      1f3c000f       move.b 0xf, -(a7)
         0x005a795c      4eb900598cca   jsr K01_DEBUG.k01_debug
         0x005a7962      544f           addq.w 0x2, a7
         0x005a7964      4a1f           tst.b (a7)+
     < 0x005a7966      6718           beq.b 0x5a7980
        0x005a7968      487ac32b       pea.l 0x5a3c95(pc)
        0x005a796c      4878000d       pea.l 0xd
        0x005a7970      2f17           move.l (a7), -(a7)
        0x005a7972      4eb9004047ea   jsr p_wts_o
        0x005a7978      dec5           adda.w d5, a7
        0x005a797a      4eb900404946   jsr p_wtln_o
     > 0x005a7980      554f           subq.w 0x2, a7
         0x005a7982      1f3c0002       move.b 0x2, -(a7)
         0x005a7986      102efe22       move.b -0x1de(a6), d0
         0x005a798a      4880           ext.w d0
         0x005a798c      41bc0007       chk.w 0x7, d0
         0x005a7990      1f00           move.b d0, -(a7)
         0x005a7992      4227           clr.b -(a7)
         0x005a7994      486efdfa       pea.l -0x206(a6)
         0x005a7998      43eefe4e       lea.l -0x1b2(a6), a1
         0x005a799c      2f09           move.l a1, -(a7)
         0x005a799e      48780054       pea.l 0x54
         0x005a79a2      4eb9005abd82   jsr K1_AFS_ONLY.k1_data
         0x005a79a8      defc0012       adda.w 0x12, a7
         0x005a79ac      3d57fe24       move.w (a7), -0x1dc(a6)
         0x005a79b0      9efc00fc       suba.w 0xfc, a7
         0x005a79b4      2f3ac2ec       move.l 0x5a3ca2(pc), -(a7)
         0x005a79b8      2f7ac2ec0004   move.l 0x5a3ca6(pc), 0x4(a7)
         0x005a79be      2f7ac2ea0008   move.l 0x5a3caa(pc), 0x8(a7)
         0x005a79c4      2f7ac2e8000c   move.l 0x5a3cae(pc), 0xc(a7)
         0x005a79ca      1f7ac2e60010   move.b 0x5a3cb2(pc), 0x10(a7)
         0x005a79d0      3f2efe24       move.w -0x1dc(a6), -(a7)
         0x005a79d4      4ebacb22       jsr K05_LOADSAVE.warn_if_fail(pc)
         0x005a79d8      defc0102       adda.w 0x102, a7
         0x005a79dc      4a1f           tst.b (a7)+
     < 0x005a79de      670c           beq.b 0x5a79ec
        0x005a79e0      486efea2       pea.l -0x15e(a6)
        0x005a79e4      4eb900404468   jsr fcn.00404468
        0x005a79ea      584f           addq.w 0x4, a7
     > 0x005a79ec      554f           subq.w 0x2, a7
          0x005a79ee      2f2efe00       move.l -0x200(a6), -(a7)
          0x005a79f2      2f2efdfc       move.l -0x204(a6), -(a7)
          0x005a79f6      3f2efdfa       move.w -0x206(a6), -(a7)
          0x005a79fa      9efc0100       suba.w 0x100, a7
          0x005a79fe      224f           movea.l a7, a1
          0x005a7a00      45fac2b1       lea.l 0x5a3cb3(pc), a2
          0x005a7a04      7006           moveq 0x6, d0
      > 0x005a7a06      12da           move.b (a2)+, (a1)+
      < 0x005a7a08      51c8fffc       dbra d0, 0x5a7a06
          0x005a7a0c      1f3c000f       move.b 0xf, -(a7)
          0x005a7a10      4227           clr.b -(a7)
          0x005a7a12      486efe4c       pea.l -0x1b4(a6)
          0x005a7a16      486efe28       pea.l -0x1d8(a6)
          0x005a7a1a      486efe3c       pea.l -0x1c4(a6)
          0x005a7a1e      4227           clr.b -(a7)
          0x005a7a20      486efe4b       pea.l -0x1b5(a6)
          0x005a7a24      4ebace2e       jsr K05_LOADSAVE.get_data(pc)
          0x005a7a28      defc0120       adda.w 0x120, a7
          0x005a7a2c      3d57fe24       move.w (a7), -0x1dc(a6)
          0x005a7a30      9efc0100       suba.w 0x100, a7
          0x005a7a34      224f           movea.l a7, a1
          0x005a7a36      45fac282       lea.l 0x5a3cba(pc), a2
          0x005a7a3a      7005           moveq 0x5, d0
      > 0x005a7a3c      22da           move.l (a2)+, (a1)+
      < 0x005a7a3e      51c8fffc       dbra d0, 0x5a7a3c
          0x005a7a42      12da           move.b (a2)+, (a1)+
          0x005a7a44      3f2efe24       move.w -0x1dc(a6), -(a7)
          0x005a7a48      4ebacaae       jsr K05_LOADSAVE.warn_if_fail(pc)
          0x005a7a4c      defc0102       adda.w 0x102, a7
          0x005a7a50      4a1f           tst.b (a7)+
      < 0x005a7a52      670c           beq.b 0x5a7a60
         0x005a7a54      486efea2       pea.l -0x15e(a6)
         0x005a7a58      4eb900404468   jsr fcn.00404468
         0x005a7a5e      584f           addq.w 0x4, a7
      > 0x005a7a60      102efe4c       move.b -0x1b4(a6), d0
          0x005a7a64      0c000033       cmpi.b 0x33, d0
      < 0x005a7a68      66000156       bne.w 0x5a7bc0
         0x005a7a6c      487ac266       pea.l 0x5a3cd4(pc)
         0x005a7a70      48780025       pea.l 0x25
         0x005a7a74      2f17           move.l (a7), -(a7)
         0x005a7a76      4eb9004047ea   jsr p_wts_o
         0x005a7a7c      dec5           adda.w d5, a7
         0x005a7a7e      4eb900404946   jsr p_wtln_o
         0x005a7a84      4eb900401620   jsr p_walkback
         0x005a7a8a      554f           subq.w 0x2, a7
         0x005a7a8c      1f3c000f       move.b 0xf, -(a7)
         0x005a7a90      4eb900598cca   jsr K01_DEBUG.k01_debug
         0x005a7a96      544f           addq.w 0x2, a7
         0x005a7a98      4a1f           tst.b (a7)+
     < 0x005a7a9a      6718           beq.b 0x5a7ab4
        0x005a7a9c      487ac25c       pea.l 0x5a3cfa(pc)
        0x005a7aa0      48780020       pea.l 0x20
        0x005a7aa4      2f17           move.l (a7), -(a7)
        0x005a7aa6      4eb9004047ea   jsr p_wts_o
        0x005a7aac      dec5           adda.w d5, a7
        0x005a7aae      4eb900404946   jsr p_wtln_o
     > 0x005a7ab4      2e2efe04       move.l -0x1fc(a6), d7
         0x005a7ab8      2d7ab826fe04   move.l 0x5a32e0(pc), -0x1fc(a6)
         0x005a7abe      2d7ab824fe08   move.l 0x5a32e4(pc), -0x1f8(a6)
         0x005a7ac4      3d7ab822fe0c   move.w 0x5a32e8(pc), -0x1f4(a6)
         0x005a7aca      3d7cfffffe26   move.w 0xffff, -0x1da(a6)
         0x005a7ad0      554f           subq.w 0x2, a7
         0x005a7ad2      2f2efe00       move.l -0x200(a6), -(a7)
         0x005a7ad6      2f2efdfc       move.l -0x204(a6), -(a7)
         0x005a7ada      3f2efdfa       move.w -0x206(a6), -(a7)
         0x005a7ade      2f07           move.l d7, -(a7)
         0x005a7ae0      486efe26       pea.l -0x1da(a6)
         0x005a7ae4      3f3cffff       move.w 0xffff, -(a7)
         0x005a7ae8      3f3cffff       move.w 0xffff, -(a7)
         0x005a7aec      486efe04       pea.l -0x1fc(a6)
         0x005a7af0      486efdfa       pea.l -0x206(a6)
         0x005a7af4      487afca0       pea.l K05_LOADSAVE.report(pc)
         0x005a7af8      4eb9006b62d8   jsr USER.copy_stack
         0x005a7afe      defc0022       adda.w 0x22, a7
         0x005a7b02      4a1f           tst.b (a7)+
     < 0x005a7b04      6740           beq.b 0x5a7b46
        0x005a7b06      1d7ac213fe24   move.b 0x5a3d1b(pc), -0x1dc(a6)
        0x005a7b0c      1d7ac20efe25   move.b 0x5a3d1c(pc), -0x1db(a6)
        0x005a7b12      594f           subq.w 0x4, a7
        0x005a7b14      1e90           move.b (a0), (a7)
        0x005a7b16      1f6800010001   move.b 0x1(a0), 0x1(a7)
        0x005a7b1c      1f6800020002   move.b 0x2(a0), 0x2(a7)
        0x005a7b22      1f6800030003   move.b 0x3(a0), 0x3(a7)
        0x005a7b28      265f           movea.l (a7)+, a3
        0x005a7b2a      b7ebfffc       cmpa.l -0x4(a3), a3
    < 0x005a7b2e      6702           beq.b 0x5a7b32
       0x005a7b30      4e4d           trap 0xd
    > 0x005a7b32      43eb0008       lea.l 0x8(a3), a1
        0x005a7b36      45eefe04       lea.l -0x1fc(a6), a2
        0x005a7b3a      7009           moveq 0x9, d0
    > 0x005a7b3c      12da           move.b (a2)+, (a1)+
    < 0x005a7b3e      51c8fffc       dbra d0, 0x5a7b3c
    < 0x005a7b42      6000099e       bra.w 0x5a84e2
    > 0x005a7b46      9efc0100       suba.w 0x100, a7
        0x005a7b4a      4eb900408ec0   jsr p_err_string
        0x005a7b50      487ac1cc       pea.l 0x5a3d1e(pc)
        0x005a7b54      48780018       pea.l 0x18
        0x005a7b58      2f17           move.l (a7), -(a7)
        0x005a7b5a      4eb9004047ea   jsr p_wts_o
        0x005a7b60      dec5           adda.w d5, a7
        0x005a7b62      486f0001       pea.l 0x1(a7)
        0x005a7b66      42a7           clr.l -(a7)
        0x005a7b68      1f6f00080003   move.b 0x8(a7), 0x3(a7)
        0x005a7b6e      2f17           move.l (a7), -(a7)
        0x005a7b70      4eb9004047ea   jsr p_wts_o
        0x005a7b76      defc010c       adda.w 0x10c, a7
        0x005a7b7a      4eb900404946   jsr p_wtln_o
        0x005a7b80      594f           subq.w 0x4, a7
        0x005a7b82      1e90           move.b (a0), (a7)
        0x005a7b84      1f6800010001   move.b 0x1(a0), 0x1(a7)
        0x005a7b8a      1f6800020002   move.b 0x2(a0), 0x2(a7)
        0x005a7b90      1f6800030003   move.b 0x3(a0), 0x3(a7)
        0x005a7b96      265f           movea.l (a7)+, a3
        0x005a7b98      b7ebfffc       cmpa.l -0x4(a3), a3
    < 0x005a7b9c      6702           beq.b 0x5a7ba0
       0x005a7b9e      4e4d           trap 0xd
    > 0x005a7ba0      43eb0008       lea.l 0x8(a3), a1
        0x005a7ba4      45fac190       lea.l 0x5a3d36(pc), a2
        0x005a7ba8      7009           moveq 0x9, d0
    > 0x005a7baa      12da           move.b (a2)+, (a1)+
    < 0x005a7bac      51c8fffc       dbra d0, 0x5a7baa
        0x005a7bb0      1d7ac18ffe24   move.b 0x5a3d41(pc), -0x1dc(a6)
        0x005a7bb6      1d7ac18afe25   move.b 0x5a3d42(pc), -0x1db(a6)
    < 0x005a7bbc      60000924       bra.w 0x5a84e2
    > 0x005a7bc0      554f           subq.w 0x2, a7
        0x005a7bc2      2f2efe0a       move.l -0x1f6(a6), -(a7)
        0x005a7bc6      2f2efe06       move.l -0x1fa(a6), -(a7)
        0x005a7bca      3f2efe04       move.w -0x1fc(a6), -(a7)
        0x005a7bce      9efc0100       suba.w 0x100, a7
        0x005a7bd2      204f           movea.l a7, a0
        0x005a7bd4      43fac16d       lea.l 0x5a3d43(pc), a1
        0x005a7bd8      7004           moveq 0x4, d0
    > 0x005a7bda      10d9           move.b (a1)+, (a0)+
    < 0x005a7bdc      51c8fffc       dbra d0, 0x5a7bda
        0x005a7be0      1f3c000f       move.b 0xf, -(a7)
        0x005a7be4      1f3c0001       move.b 0x1, -(a7)
        0x005a7be8      486efe4d       pea.l -0x1b3(a6)
        0x005a7bec      486efe32       pea.l -0x1ce(a6)
        0x005a7bf0      486efe40       pea.l -0x1c0(a6)
        0x005a7bf4      4227           clr.b -(a7)
        0x005a7bf6      486efe4b       pea.l -0x1b5(a6)
        0x005a7bfa      4ebacc58       jsr K05_LOADSAVE.get_data(pc)
        0x005a7bfe      defc0120       adda.w 0x120, a7
        0x005a7c02      3d57fe24       move.w (a7), -0x1dc(a6)
        0x005a7c06      9efc0100       suba.w 0x100, a7
        0x005a7c0a      204f           movea.l a7, a0
        0x005a7c0c      43fac13a       lea.l 0x5a3d48(pc), a1
        0x005a7c10      7004           moveq 0x4, d0
    > 0x005a7c12      20d9           move.l (a1)+, (a0)+
    < 0x005a7c14      51c8fffc       dbra d0, 0x5a7c12
        0x005a7c18      30d9           move.w (a1)+, (a0)+
        0x005a7c1a      10d9           move.b (a1)+, (a0)+
        0x005a7c1c      3f2efe24       move.w -0x1dc(a6), -(a7)
        0x005a7c20      4ebac8d6       jsr K05_LOADSAVE.warn_if_fail(pc)
        0x005a7c24      defc0102       adda.w 0x102, a7
        0x005a7c28      4a1f           tst.b (a7)+
    < 0x005a7c2a      670c           beq.b 0x5a7c38
       0x005a7c2c      486efea2       pea.l -0x15e(a6)
       0x005a7c30      4eb900404468   jsr fcn.00404468
       0x005a7c36      584f           addq.w 0x4, a7
    > 0x005a7c38      554f           subq.w 0x2, a7
        0x005a7c3a      1f3c000f       move.b 0xf, -(a7)
        0x005a7c3e      4eb900598cca   jsr K01_DEBUG.k01_debug
        0x005a7c44      544f           addq.w 0x2, a7
        0x005a7c46      4a1f           tst.b (a7)+
    < 0x005a7c48      6708           beq.b 0x5a7c52
       0x005a7c4a      49eefdfa       lea.l -0x206(a6), a4
       0x005a7c4e      4ebafa66       jsr K05_LOADSAVE.write_file_ptrs(pc)
    > 0x005a7c52      382efe40       move.w -0x1c0(a6), d4
        0x005a7c56      48c4           ext.l d4
        0x005a7c58      4eb900408686   jsr fcn.00408686
        0x005a7c5e      2f04           move.l d4, -(a7)
        0x005a7c60      382efe3c       move.w -0x1c4(a6), d4
        0x005a7c64      48c4           ext.l d4
        0x005a7c66      4eb900408686   jsr fcn.00408686
        0x005a7c6c      2604           move.l d4, d3
        0x005a7c6e      2817           move.l (a7), d4
        0x005a7c70      4eb900407ff8   jsr fcn.00407ff8
        0x005a7c76      584f           addq.w 0x4, a7
        0x005a7c78      2d44feec       move.l d4, -0x114(a6)
        0x005a7c7c      382efe42       move.w -0x1be(a6), d4
        0x005a7c80      48c4           ext.l d4
        0x005a7c82      4eb900408686   jsr fcn.00408686
        0x005a7c88      2f04           move.l d4, -(a7)
        0x005a7c8a      382efe3e       move.w -0x1c2(a6), d4
        0x005a7c8e      48c4           ext.l d4
        0x005a7c90      4eb900408686   jsr fcn.00408686
        0x005a7c96      2604           move.l d4, d3
        0x005a7c98      2817           move.l (a7), d4
        0x005a7c9a      4eb900407ff8   jsr fcn.00407ff8
        0x005a7ca0      584f           addq.w 0x4, a7
        0x005a7ca2      2d44fef0       move.l d4, -0x110(a6)
        0x005a7ca6      282efeec       move.l -0x114(a6), d4
        0x005a7caa      262e0008       move.l 0x8(a6), d3
        0x005a7cae      4eb900407e92   jsr fcn.00407e92
        0x005a7cb4      2d44feec       move.l d4, -0x114(a6)
        0x005a7cb8      282efef0       move.l -0x110(a6), d4
        0x005a7cbc      262e000c       move.l 0xc(a6), d3
        0x005a7cc0      4eb900407e92   jsr fcn.00407e92
        0x005a7cc6      2d44fef0       move.l d4, -0x110(a6)
        0x005a7cca      2f04           move.l d4, -(a7)
        0x005a7ccc      102efe4c       move.b -0x1b4(a6), d0
        0x005a7cd0      4880           ext.w d0
        0x005a7cd2      41fac08c       lea.l 0x5a3d60(pc), a0
        0x005a7cd6      3200           move.w d0, d1
        0x005a7cd8      e649           lsr.w 0x3, d1
        0x005a7cda      01301000       btst.l d0, (a0, d1.w)
    < 0x005a7cde      6606           bne.b 0x5a7ce6
       0x005a7ce0      4a2efe4b       tst.b -0x1b5(a6)
   < 0x005a7ce4      6704           beq.b 0x5a7cea
   > 0x005a7ce6      7c00           moveq 0x0, d6
   < 0x005a7ce8      6026           bra.b 0x5a7d10
   > 0x005a7cea      7c00           moveq 0x0, d6
       0x005a7cec      282efeec       move.l -0x114(a6), d4
       0x005a7cf0      263c3f800000   move.l 0x3f800000, d3
       0x005a7cf6      4eb900407dd4   jsr fcn.00407dd4
   < 0x005a7cfc      6610           bne.b 0x5a7d0e
      0x005a7cfe      2817           move.l (a7), d4
      0x005a7d00      263c3f800000   move.l 0x3f800000, d3
      0x005a7d06      4eb900407dd4   jsr fcn.00407dd4
  < 0x005a7d0c      6702           beq.b 0x5a7d10
  > 0x005a7d0e      5206           addq.b 0x1, d6
  > 0x005a7d10      4a06           tst.b d6
    < 0x005a7d12      6768           beq.b 0x5a7d7c
       0x005a7d14      554f           subq.w 0x2, a7
       0x005a7d16      1f3c001f       move.b 0x1f, -(a7)
       0x005a7d1a      4eb900598cca   jsr K01_DEBUG.k01_debug
       0x005a7d20      544f           addq.w 0x2, a7
       0x005a7d22      4a1f           tst.b (a7)+
   < 0x005a7d24      6612           bne.b 0x5a7d38
      0x005a7d26      554f           subq.w 0x2, a7
      0x005a7d28      1f3c000f       move.b 0xf, -(a7)
      0x005a7d2c      4eb900598cca   jsr K01_DEBUG.k01_debug
      0x005a7d32      544f           addq.w 0x2, a7
      0x005a7d34      4a1f           tst.b (a7)+
  < 0x005a7d36      677e           beq.b 0x5a7db6
  > 0x005a7d38      9efc0100       suba.w 0x100, a7
      0x005a7d3c      41bc0056       chk.w 0x56, d0
      0x005a7d40      1f00           move.b d0, -(a7)
      0x005a7d42      4eb9005afcd0   jsr K2_TYPES.k3_ftype_str
      0x005a7d48      544f           addq.w 0x2, a7
      0x005a7d4a      487ac021       pea.l 0x5a3d6d(pc)
      0x005a7d4e      4878001f       pea.l 0x1f
      0x005a7d52      2f17           move.l (a7), -(a7)
      0x005a7d54      4eb9004047ea   jsr p_wts_o
      0x005a7d5a      dec5           adda.w d5, a7
      0x005a7d5c      486f0001       pea.l 0x1(a7)
      0x005a7d60      42a7           clr.l -(a7)
      0x005a7d62      1f6f00080003   move.b 0x8(a7), 0x3(a7)
      0x005a7d68      2f17           move.l (a7), -(a7)
      0x005a7d6a      4eb9004047ea   jsr p_wts_o
      0x005a7d70      defc010c       adda.w 0x10c, a7
      0x005a7d74      4eb900404946   jsr p_wtln_o
  < 0x005a7d7a      603a           bra.b 0x5a7db6
  > 0x005a7d7c      554f           subq.w 0x2, a7
      0x005a7d7e      1f3c000f       move.b 0xf, -(a7)
      0x005a7d82      4eb900598cca   jsr K01_DEBUG.k01_debug
      0x005a7d88      544f           addq.w 0x2, a7
      0x005a7d8a      4a1f           tst.b (a7)+
  < 0x005a7d8c      6718           beq.b 0x5a7da6
     0x005a7d8e      487abffd       pea.l 0x5a3d8d(pc)
     0x005a7d92      48780014       pea.l 0x14
     0x005a7d96      2f17           move.l (a7), -(a7)
     0x005a7d98      4eb9004047ea   jsr p_wts_o
     0x005a7d9e      dec5           adda.w d5, a7
     0x005a7da0      4eb900404946   jsr p_wtln_o
  > 0x005a7da6      2d7c3f800000.  move.l 0x3f800000, -0x114(a6)
      0x005a7dae      2d7c3f800000.  move.l 0x3f800000, -0x110(a6)
  > 0x005a7db6      554f           subq.w 0x2, a7
        0x005a7db8      1f3c000f       move.b 0xf, -(a7)
        0x005a7dbc      4eb900598cca   jsr K01_DEBUG.k01_debug
        0x005a7dc2      544f           addq.w 0x2, a7
        0x005a7dc4      4a1f           tst.b (a7)+
    < 0x005a7dc6      674e           beq.b 0x5a7e16
       0x005a7dc8      9efc0100       suba.w 0x100, a7
       0x005a7dcc      2f2efef0       move.l -0x110(a6), -(a7)
       0x005a7dd0      2f2efeec       move.l -0x114(a6), -(a7)
       0x005a7dd4      48780000       pea.l 0x0
       0x005a7dd8      48780004       pea.l 0x4
       0x005a7ddc      4eb90044e33c   jsr SYSTEM_STRING.rpoint_str
       0x005a7de2      defc0010       adda.w 0x10, a7
       0x005a7de6      487abfba       pea.l 0x5a3da2(pc)
       0x005a7dea      4878000c       pea.l 0xc
       0x005a7dee      2f17           move.l (a7), -(a7)
       0x005a7df0      4eb9004047ea   jsr p_wts_o
       0x005a7df6      dec5           adda.w d5, a7
       0x005a7df8      486f0001       pea.l 0x1(a7)
       0x005a7dfc      42a7           clr.l -(a7)
       0x005a7dfe      1f6f00080003   move.b 0x8(a7), 0x3(a7)
       0x005a7e04      2f17           move.l (a7), -(a7)
       0x005a7e06      4eb9004047ea   jsr p_wts_o
       0x005a7e0c      defc010c       adda.w 0x10c, a7
       0x005a7e10      4eb900404946   jsr p_wtln_o
    > 0x005a7e16      222efe2e       move.l -0x1d2(a6), d1
        0x005a7e1a      b2aefe38       cmp.l -0x1c8(a6), d1
    < 0x005a7e1e      630c           bls.b 0x5a7e2c
       0x005a7e20      1d7abf8dfe24   move.b 0x5a3daf(pc), -0x1dc(a6)
       0x005a7e26      1d7abf88fe25   move.b 0x5a3db0(pc), -0x1db(a6)
    > 0x005a7e2c      9efc0102       suba.w 0x102, a7
        0x005a7e30      204f           movea.l a7, a0
        0x005a7e32      43fabf7d       lea.l 0x5a3db1(pc), a1
        0x005a7e36      7419           moveq 0x19, d2
    > 0x005a7e38      10d9           move.b (a1)+, (a0)+
    < 0x005a7e3a      51cafffc       dbra d2, 0x5a7e38
        0x005a7e3e      3f2efe24       move.w -0x1dc(a6), -(a7)
        0x005a7e42      4ebac6b4       jsr K05_LOADSAVE.warn_if_fail(pc)
        0x005a7e46      defc0102       adda.w 0x102, a7
        0x005a7e4a      4a1f           tst.b (a7)+
    < 0x005a7e4c      670c           beq.b 0x5a7e5a
       0x005a7e4e      486efea2       pea.l -0x15e(a6)
       0x005a7e52      4eb900404468   jsr fcn.00404468
       0x005a7e58      584f           addq.w 0x4, a7
    > 0x005a7e5a      554f           subq.w 0x2, a7
        0x005a7e5c      1f3c000f       move.b 0xf, -(a7)
        0x005a7e60      4eb900598cca   jsr K01_DEBUG.k01_debug
        0x005a7e66      544f           addq.w 0x2, a7
        0x005a7e68      4a1f           tst.b (a7)+
    < 0x005a7e6a      670000be       beq.w 0x5a7f2a
       0x005a7e6e      9efc0100       suba.w 0x100, a7
       0x005a7e72      2f2efe32       move.l -0x1ce(a6), -(a7)
       0x005a7e76      48780000       pea.l 0x0
       0x005a7e7a      4eb90044dd86   jsr SYSTEM_STRING.point_str
       0x005a7e80      504f           addq.w 0x8, a7
       0x005a7e82      487abf48       pea.l 0x5a3dcc(pc)
       0x005a7e86      48780021       pea.l 0x21
       0x005a7e8a      2f17           move.l (a7), -(a7)
       0x005a7e8c      4eb9004047ea   jsr p_wts_o
       0x005a7e92      dec5           adda.w d5, a7
       0x005a7e94      382efe28       move.w -0x1d8(a6), d4
       0x005a7e98      48c4           ext.l d4
       0x005a7e9a      4eb900408686   jsr fcn.00408686
       0x005a7ea0      594f           subq.w 0x4, a7
       0x005a7ea2      262efeec       move.l -0x114(a6), d3
       0x005a7ea6      4eb900407e92   jsr fcn.00407e92
       0x005a7eac      2e84           move.l d4, (a7)
       0x005a7eae      48780008       pea.l 0x8
       0x005a7eb2      48780004       pea.l 0x4
       0x005a7eb6      4eb900439f72   jsr P17_FRDWRT.p_wtf2_o
       0x005a7ebc      dec5           adda.w d5, a7
       0x005a7ebe      487abf2e       pea.l 0x5a3dee(pc)
       0x005a7ec2      48780002       pea.l 0x2
       0x005a7ec6      2f17           move.l (a7), -(a7)
       0x005a7ec8      4eb9004047ea   jsr p_wts_o
       0x005a7ece      dec5           adda.w d5, a7
       0x005a7ed0      382efe2a       move.w -0x1d6(a6), d4
       0x005a7ed4      48c4           ext.l d4
       0x005a7ed6      4eb900408686   jsr fcn.00408686
       0x005a7edc      594f           subq.w 0x4, a7
       0x005a7ede      262efef0       move.l -0x110(a6), d3
       0x005a7ee2      4eb900407e92   jsr fcn.00407e92
       0x005a7ee8      2e84           move.l d4, (a7)
       0x005a7eea      48780008       pea.l 0x8
       0x005a7eee      48780004       pea.l 0x4
       0x005a7ef2      4eb900439f72   jsr P17_FRDWRT.p_wtf2_o
       0x005a7ef8      dec5           adda.w d5, a7
       0x005a7efa      487abef5       pea.l 0x5a3df1(pc)
       0x005a7efe      4878000b       pea.l 0xb
       0x005a7f02      2f17           move.l (a7), -(a7)
       0x005a7f04      4eb9004047ea   jsr p_wts_o
       0x005a7f0a      dec5           adda.w d5, a7
       0x005a7f0c      486f0001       pea.l 0x1(a7)
       0x005a7f10      42a7           clr.l -(a7)
       0x005a7f12      1f6f00080003   move.b 0x8(a7), 0x3(a7)
       0x005a7f18      2f17           move.l (a7), -(a7)
       0x005a7f1a      4eb9004047ea   jsr p_wts_o
       0x005a7f20      defc010c       adda.w 0x10c, a7
       0x005a7f24      4eb900404946   jsr p_wtln_o
    > 0x005a7f2a      342efe2c       move.w -0x1d4(a6), d2
        0x005a7f2e      b46efe36       cmp.w -0x1ca(a6), d2
    < 0x005a7f32      630c           bls.b 0x5a7f40
       0x005a7f34      1d7abec7fe24   move.b 0x5a3dfd(pc), -0x1dc(a6)
       0x005a7f3a      1d7abec2fe25   move.b 0x5a3dfe(pc), -0x1db(a6)
    > 0x005a7f40      9efc0102       suba.w 0x102, a7
        0x005a7f44      204f           movea.l a7, a0
        0x005a7f46      43fabeb7       lea.l 0x5a3dff(pc), a1
        0x005a7f4a      740f           moveq 0xf, d2
    > 0x005a7f4c      10d9           move.b (a1)+, (a0)+
    < 0x005a7f4e      51cafffc       dbra d2, 0x5a7f4c
        0x005a7f52      3f2efe24       move.w -0x1dc(a6), -(a7)
        0x005a7f56      4ebac5a0       jsr K05_LOADSAVE.warn_if_fail(pc)
        0x005a7f5a      defc0102       adda.w 0x102, a7
        0x005a7f5e      4a1f           tst.b (a7)+
    < 0x005a7f60      670c           beq.b 0x5a7f6e
       0x005a7f62      486efea2       pea.l -0x15e(a6)
       0x005a7f66      4eb900404468   jsr fcn.00404468
       0x005a7f6c      584f           addq.w 0x4, a7
    > 0x005a7f6e      7e00           moveq 0x0, d7
        0x005a7f70      0c000023       cmpi.b 0x23, d0
    < 0x005a7f74      660c           bne.b 0x5a7f82
       0x005a7f76      102efe4d       move.b -0x1b3(a6), d0
       0x005a7f7a      0c000036       cmpi.b 0x36, d0
   < 0x005a7f7e      6602           bne.b 0x5a7f82
      0x005a7f80      5207           addq.b 0x1, d7
   > 0x005a7f82      554f           subq.w 0x2, a7
        0x005a7f84      1f3c000f       move.b 0xf, -(a7)
        0x005a7f88      4eb900598cca   jsr K01_DEBUG.k01_debug
        0x005a7f8e      544f           addq.w 0x2, a7
        0x005a7f90      4a1f           tst.b (a7)+
    < 0x005a7f92      672c           beq.b 0x5a7fc0
       0x005a7f94      4a07           tst.b d7
   < 0x005a7f96      6728           beq.b 0x5a7fc0
      0x005a7f98      487abe76       pea.l 0x5a3e10(pc)
      0x005a7f9c      4878000b       pea.l 0xb
      0x005a7fa0      2f17           move.l (a7), -(a7)
      0x005a7fa2      4eb9004047ea   jsr p_wts_o
      0x005a7fa8      defc000a       adda.w 0xa, a7
      0x005a7fac      1e87           move.b d7, (a7)
      0x005a7fae      48780005       pea.l 0x5
      0x005a7fb2      4eb90040718c   jsr p_wtb_o
      0x005a7fb8      5c4f           addq.w 0x6, a7
      0x005a7fba      4eb900404946   jsr p_wtln_o
   > 0x005a7fc0      4a81           tst.l d1
    < 0x005a7fc2      670000bc       beq.w 0x5a8080
       0x005a7fc6      554f           subq.w 0x2, a7
       0x005a7fc8      1f3c000f       move.b 0xf, -(a7)
       0x005a7fcc      4eb900598cca   jsr K01_DEBUG.k01_debug
       0x005a7fd2      544f           addq.w 0x2, a7
       0x005a7fd4      4a1f           tst.b (a7)+
   < 0x005a7fd6      6718           beq.b 0x5a7ff0
      0x005a7fd8      487abe42       pea.l 0x5a3e1c(pc)
      0x005a7fdc      48780011       pea.l 0x11
      0x005a7fe0      2f17           move.l (a7), -(a7)
      0x005a7fe2      4eb9004047ea   jsr p_wts_o
      0x005a7fe8      dec5           adda.w d5, a7
      0x005a7fea      4eb900404946   jsr p_wtln_o
   > 0x005a7ff0      554f           subq.w 0x2, a7
       0x005a7ff2      2f2efe00       move.l -0x200(a6), -(a7)
       0x005a7ff6      2f2efdfc       move.l -0x204(a6), -(a7)
       0x005a7ffa      3f2efdfa       move.w -0x206(a6), -(a7)
       0x005a7ffe      2f2efe0a       move.l -0x1f6(a6), -(a7)
       0x005a8002      2f2efe06       move.l -0x1fa(a6), -(a7)
       0x005a8006      3f2efe04       move.w -0x1fc(a6), -(a7)
       0x005a800a      102efe22       move.b -0x1de(a6), d0
       0x005a800e      4880           ext.w d0
       0x005a8010      41bc0007       chk.w 0x7, d0
       0x005a8014      1f00           move.b d0, -(a7)
       0x005a8016      102efe23       move.b -0x1dd(a6), d0
       0x005a801a      4880           ext.w d0
       0x005a801c      41bc0007       chk.w 0x7, d0
       0x005a8020      1f00           move.b d0, -(a7)
       0x005a8022      2f01           move.l d1, -(a7)
       0x005a8024      4887           ext.w d7
       0x005a8026      4fbc0001       chk.w 0x1, d7
       0x005a802a      1f07           move.b d7, -(a7)
       0x005a802c      4ebaf414       jsr K05_LOADSAVE.copy_file_byte_(pc)
       0x005a8030      defc001e       adda.w 0x1e, a7
       0x005a8034      3d57fe24       move.w (a7), -0x1dc(a6)
       0x005a8038      9efc0100       suba.w 0x100, a7
       0x005a803c      204f           movea.l a7, a0
       0x005a803e      43fabded       lea.l 0x5a3e2d(pc), a1
       0x005a8042      7012           moveq 0x12, d0
   > 0x005a8044      10d9           move.b (a1)+, (a0)+
   < 0x005a8046      51c8fffc       dbra d0, 0x5a8044
       0x005a804a      3f2efe24       move.w -0x1dc(a6), -(a7)
       0x005a804e      4ebac4a8       jsr K05_LOADSAVE.warn_if_fail(pc)
       0x005a8052      defc0102       adda.w 0x102, a7
       0x005a8056      4a1f           tst.b (a7)+
   < 0x005a8058      670c           beq.b 0x5a8066
      0x005a805a      486efea2       pea.l -0x15e(a6)
      0x005a805e      4eb900404468   jsr fcn.00404468
      0x005a8064      584f           addq.w 0x4, a7
   > 0x005a8066      554f           subq.w 0x2, a7
       0x005a8068      1f3c000f       move.b 0xf, -(a7)
       0x005a806c      4eb900598cca   jsr K01_DEBUG.k01_debug
       0x005a8072      544f           addq.w 0x2, a7
       0x005a8074      4a1f           tst.b (a7)+
   < 0x005a8076      6708           beq.b 0x5a8080
      0x005a8078      49eefdfa       lea.l -0x206(a6), a4
      0x005a807c      4ebaf638       jsr K05_LOADSAVE.write_file_ptrs(pc)
   > 0x005a8080      584f           addq.w 0x4, a7
        0x005a8082      7e00           moveq 0x0, d7
        0x005a8084      554f           subq.w 0x2, a7
        0x005a8086      1f3c000f       move.b 0xf, -(a7)
        0x005a808a      4eb900598cca   jsr K01_DEBUG.k01_debug
        0x005a8090      544f           addq.w 0x2, a7
        0x005a8092      4a1f           tst.b (a7)+
    < 0x005a8094      6764           beq.b 0x5a80fa
       0x005a8096      487abda9       pea.l 0x5a3e41(pc)
       0x005a809a      48780005       pea.l 0x5
       0x005a809e      2f17           move.l (a7), -(a7)
       0x005a80a0      4eb9004047ea   jsr p_wts_o
       0x005a80a6      dec5           adda.w d5, a7
       0x005a80a8      4280           clr.l d0
       0x005a80aa      302efe2c       move.w -0x1d4(a6), d0
       0x005a80ae      2f00           move.l d0, -(a7)
       0x005a80b0      48780000       pea.l 0x0
       0x005a80b4      4eb9004070e4   jsr p_wti_o
       0x005a80ba      504f           addq.w 0x8, a7
       0x005a80bc      487abd89       pea.l 0x5a3e47(pc)
       0x005a80c0      4878000f       pea.l 0xf
       0x005a80c4      2f17           move.l (a7), -(a7)
       0x005a80c6      4eb9004047ea   jsr p_wts_o
       0x005a80cc      dec5           adda.w d5, a7
       0x005a80ce      4280           clr.l d0
       0x005a80d0      302efe36       move.w -0x1ca(a6), d0
       0x005a80d4      2f00           move.l d0, -(a7)
       0x005a80d6      48780000       pea.l 0x0
       0x005a80da      4eb9004070e4   jsr p_wti_o
       0x005a80e0      504f           addq.w 0x8, a7
       0x005a80e2      487abd73       pea.l 0x5a3e57(pc)
       0x005a80e6      4878000c       pea.l 0xc
       0x005a80ea      2f17           move.l (a7), -(a7)
       0x005a80ec      4eb9004047ea   jsr p_wts_o
       0x005a80f2      dec5           adda.w d5, a7
       0x005a80f4      4eb900404946   jsr p_wtln_o
    > 0x005a80fa      302efe2c       move.w -0x1d4(a6), d0
        0x005a80fe      0c400001       cmpi.w 0x1, d0
    < 0x005a8102      660c           bne.b 0x5a8110
       0x005a8104      322efe36       move.w -0x1ca(a6), d1
       0x005a8108      0c410001       cmpi.w 0x1, d1
   < 0x005a810c      6602           bne.b 0x5a8110
  < 0x005a810e      6018           bra.b 0x5a8128
  > 0x005a8110      0c400001       cmpi.w 0x1, d0
   < 0x005a8114      660c           bne.b 0x5a8122
      0x005a8116      322efe36       move.w -0x1ca(a6), d1
      0x005a811a      0c410002       cmpi.w 0x2, d1
  < 0x005a811e      6602           bne.b 0x5a8122
 < 0x005a8120      6006           bra.b 0x5a8128
 > 0x005a8122      0c400002       cmpi.w 0x2, d0
  < 0x005a8126      6602           bne.b 0x5a812a
 > 0x005a8128      7e01           moveq 0x1, d7
    > 0x005a812a      4a07           tst.b d7
    < 0x005a812c      677c           beq.b 0x5a81aa
       0x005a812e      554f           subq.w 0x2, a7
       0x005a8130      486efdfa       pea.l -0x206(a6)
       0x005a8134      486efe04       pea.l -0x1fc(a6)
       0x005a8138      102efe22       move.b -0x1de(a6), d0
       0x005a813c      4880           ext.w d0
       0x005a813e      41bc0007       chk.w 0x7, d0
       0x005a8142      1f00           move.b d0, -(a7)
       0x005a8144      102efe23       move.b -0x1dd(a6), d0
       0x005a8148      4880           ext.w d0
       0x005a814a      41bc0007       chk.w 0x7, d0
       0x005a814e      1f00           move.b d0, -(a7)
       0x005a8150      486efe4c       pea.l -0x1b4(a6)
       0x005a8154      486efe4d       pea.l -0x1b3(a6)
       0x005a8158      486efe28       pea.l -0x1d8(a6)
       0x005a815c      486efe32       pea.l -0x1ce(a6)
       0x005a8160      4886           ext.w d6
       0x005a8162      4dbc0001       chk.w 0x1, d6
       0x005a8166      1f06           move.b d6, -(a7)
       0x005a8168      2f2efef0       move.l -0x110(a6), -(a7)
       0x005a816c      2f2efeec       move.l -0x114(a6), -(a7)
       0x005a8170      4ebacf2c       jsr K05_LOADSAVE.transfer_planes(pc)
       0x005a8174      defc0026       adda.w 0x26, a7
       0x005a8178      3d57fe24       move.w (a7), -0x1dc(a6)
       0x005a817c      9efc0100       suba.w 0x100, a7
       0x005a8180      204f           movea.l a7, a0
       0x005a8182      43fabcdf       lea.l 0x5a3e63(pc), a1
       0x005a8186      7017           moveq 0x17, d0
   > 0x005a8188      10d9           move.b (a1)+, (a0)+
   < 0x005a818a      51c8fffc       dbra d0, 0x5a8188
       0x005a818e      3f2efe24       move.w -0x1dc(a6), -(a7)
       0x005a8192      4ebac364       jsr K05_LOADSAVE.warn_if_fail(pc)
       0x005a8196      defc0102       adda.w 0x102, a7
       0x005a819a      4a1f           tst.b (a7)+
   < 0x005a819c      670c           beq.b 0x5a81aa
      0x005a819e      486efea2       pea.l -0x15e(a6)
      0x005a81a2      4eb900404468   jsr fcn.00404468
      0x005a81a8      584f           addq.w 0x4, a7
   > 0x005a81aa      4a2e0010       tst.b 0x10(a6)
    < 0x005a81ae      660002aa       bne.w 0x5a845a
       0x005a81b2      554f           subq.w 0x2, a7
       0x005a81b4      1f3c000f       move.b 0xf, -(a7)
       0x005a81b8      4eb900598cca   jsr K01_DEBUG.k01_debug
       0x005a81be      544f           addq.w 0x2, a7
       0x005a81c0      4a1f           tst.b (a7)+
   < 0x005a81c2      6718           beq.b 0x5a81dc
      0x005a81c4      487abcb6       pea.l 0x5a3e7c(pc)
      0x005a81c8      4878000e       pea.l 0xe
      0x005a81cc      2f17           move.l (a7), -(a7)
      0x005a81ce      4eb9004047ea   jsr p_wts_o
      0x005a81d4      dec5           adda.w d5, a7
      0x005a81d6      4eb900404946   jsr p_wtln_o
   > 0x005a81dc      554f           subq.w 0x2, a7
       0x005a81de      1f3c0002       move.b 0x2, -(a7)
       0x005a81e2      102efe23       move.b -0x1dd(a6), d0
       0x005a81e6      4880           ext.w d0
       0x005a81e8      41bc0007       chk.w 0x7, d0
       0x005a81ec      1f00           move.b d0, -(a7)
       0x005a81ee      1f3c0001       move.b 0x1, -(a7)
       0x005a81f2      486efe04       pea.l -0x1fc(a6)
       0x005a81f6      41eefe4e       lea.l -0x1b2(a6), a0
       0x005a81fa      2f08           move.l a0, -(a7)
       0x005a81fc      48780054       pea.l 0x54
       0x005a8200      4eb9005abd82   jsr K1_AFS_ONLY.k1_data
       0x005a8206      defc0012       adda.w 0x12, a7
       0x005a820a      3d57fe24       move.w (a7), -0x1dc(a6)
       0x005a820e      9efc00fc       suba.w 0xfc, a7
       0x005a8212      2f3abc76       move.l 0x5a3e8a(pc), -(a7)
       0x005a8216      2f7abc760004   move.l 0x5a3e8e(pc), 0x4(a7)
       0x005a821c      2f7abc740008   move.l 0x5a3e92(pc), 0x8(a7)
       0x005a8222      1f7abc72000c   move.b 0x5a3e96(pc), 0xc(a7)
       0x005a8228      3f2efe24       move.w -0x1dc(a6), -(a7)
       0x005a822c      4ebac2ca       jsr K05_LOADSAVE.warn_if_fail(pc)
       0x005a8230      defc0102       adda.w 0x102, a7
       0x005a8234      4a1f           tst.b (a7)+
   < 0x005a8236      670c           beq.b 0x5a8244
      0x005a8238      486efea2       pea.l -0x15e(a6)
      0x005a823c      4eb900404468   jsr fcn.00404468
      0x005a8242      584f           addq.w 0x4, a7
   > 0x005a8244      554f           subq.w 0x2, a7
       0x005a8246      1f3c000f       move.b 0xf, -(a7)
       0x005a824a      4eb900598cca   jsr K01_DEBUG.k01_debug
       0x005a8250      544f           addq.w 0x2, a7
       0x005a8252      4a1f           tst.b (a7)+
   < 0x005a8254      6708           beq.b 0x5a825e
      0x005a8256      49eefdfa       lea.l -0x206(a6), a4
      0x005a825a      4ebaf45a       jsr K05_LOADSAVE.write_file_ptrs(pc)
   > 0x005a825e      102efe22       move.b -0x1de(a6), d0
       0x005a8262      4880           ext.w d0
       0x005a8264      41bc0007       chk.w 0x7, d0
       0x005a8268      554f           subq.w 0x2, a7
       0x005a826a      1f3c0001       move.b 0x1, -(a7)
       0x005a826e      1f00           move.b d0, -(a7)
       0x005a8270      4227           clr.b -(a7)
       0x005a8272      486efdfa       pea.l -0x206(a6)
       0x005a8276      486efef4       pea.l -0x10c(a6)
       0x005a827a      4eb9005abf20   jsr K1_AFS_ONLY.k1_str_data
       0x005a8280      defc000e       adda.w 0xe, a7
       0x005a8284      3d57fe24       move.w (a7), -0x1dc(a6)
       0x005a8288      9efc0100       suba.w 0x100, a7
       0x005a828c      204f           movea.l a7, a0
       0x005a828e      43fabc07       lea.l 0x5a3e97(pc), a1
       0x005a8292      720d           moveq 0xd, d1
   > 0x005a8294      10d9           move.b (a1)+, (a0)+
   < 0x005a8296      51c9fffc       dbra d1, 0x5a8294
       0x005a829a      3f2efe24       move.w -0x1dc(a6), -(a7)
       0x005a829e      4ebac258       jsr K05_LOADSAVE.warn_if_fail(pc)
       0x005a82a2      defc0102       adda.w 0x102, a7
       0x005a82a6      4a1f           tst.b (a7)+
   < 0x005a82a8      664c           bne.b 0x5a82f6
      0x005a82aa      554f           subq.w 0x2, a7
      0x005a82ac      1f3c0001       move.b 0x1, -(a7)
      0x005a82b0      122efe23       move.b -0x1dd(a6), d1
      0x005a82b4      4881           ext.w d1
      0x005a82b6      43bc0007       chk.w 0x7, d1
      0x005a82ba      1f01           move.b d1, -(a7)
      0x005a82bc      1f3c0001       move.b 0x1, -(a7)
      0x005a82c0      486efe04       pea.l -0x1fc(a6)
      0x005a82c4      486efef4       pea.l -0x10c(a6)
      0x005a82c8      4eb9005abf20   jsr K1_AFS_ONLY.k1_str_data
      0x005a82ce      defc000e       adda.w 0xe, a7
      0x005a82d2      3d57fe24       move.w (a7), -0x1dc(a6)
      0x005a82d6      9efc0100       suba.w 0x100, a7
      0x005a82da      204f           movea.l a7, a0
      0x005a82dc      43fabbc7       lea.l 0x5a3ea5(pc), a1
      0x005a82e0      720d           moveq 0xd, d1
  > 0x005a82e2      10d9           move.b (a1)+, (a0)+
  < 0x005a82e4      51c9fffc       dbra d1, 0x5a82e2
      0x005a82e8      3f2efe24       move.w -0x1dc(a6), -(a7)
      0x005a82ec      4ebac20a       jsr K05_LOADSAVE.warn_if_fail(pc)
      0x005a82f0      defc0102       adda.w 0x102, a7
      0x005a82f4      4a1f           tst.b (a7)+
   > 0x005a82f6      554f           subq.w 0x2, a7
       0x005a82f8      1f3c0002       move.b 0x2, -(a7)
       0x005a82fc      1f00           move.b d0, -(a7)
       0x005a82fe      4227           clr.b -(a7)
       0x005a8300      486efdfa       pea.l -0x206(a6)
       0x005a8304      486efef4       pea.l -0x10c(a6)
       0x005a8308      4eb9005abf20   jsr K1_AFS_ONLY.k1_str_data
       0x005a830e      defc000e       adda.w 0xe, a7
       0x005a8312      3d57fe24       move.w (a7), -0x1dc(a6)
       0x005a8316      9efc0100       suba.w 0x100, a7
       0x005a831a      204f           movea.l a7, a0
       0x005a831c      43fabb95       lea.l 0x5a3eb3(pc), a1
       0x005a8320      7212           moveq 0x12, d1
   > 0x005a8322      10d9           move.b (a1)+, (a0)+
   < 0x005a8324      51c9fffc       dbra d1, 0x5a8322
       0x005a8328      3f2efe24       move.w -0x1dc(a6), -(a7)
       0x005a832c      4ebac1ca       jsr K05_LOADSAVE.warn_if_fail(pc)
       0x005a8330      defc0102       adda.w 0x102, a7
       0x005a8334      4a1f           tst.b (a7)+
   < 0x005a8336      6660           bne.b 0x5a8398
      0x005a8338      554f           subq.w 0x2, a7
      0x005a833a      1f3c0002       move.b 0x2, -(a7)
      0x005a833e      122efe23       move.b -0x1dd(a6), d1
      0x005a8342      4881           ext.w d1
      0x005a8344      43bc0007       chk.w 0x7, d1
      0x005a8348      1f01           move.b d1, -(a7)
      0x005a834a      1f3c0001       move.b 0x1, -(a7)
      0x005a834e      486efe04       pea.l -0x1fc(a6)
      0x005a8352      486efef4       pea.l -0x10c(a6)
      0x005a8356      4eb9005abf20   jsr K1_AFS_ONLY.k1_str_data
      0x005a835c      defc000e       adda.w 0xe, a7
      0x005a8360      3d57fe24       move.w (a7), -0x1dc(a6)
      0x005a8364      9efc00fc       suba.w 0xfc, a7
      0x005a8368      2f3abb5c       move.l 0x5a3ec6(pc), -(a7)
      0x005a836c      2f7abb5c0004   move.l 0x5a3eca(pc), 0x4(a7)
      0x005a8372      2f7abb5a0008   move.l 0x5a3ece(pc), 0x8(a7)
      0x005a8378      2f7abb58000c   move.l 0x5a3ed2(pc), 0xc(a7)
      0x005a837e      3f7abb560010   move.w 0x5a3ed6(pc), 0x10(a7)
      0x005a8384      1f7abb520012   move.b 0x5a3ed8(pc), 0x12(a7)
      0x005a838a      3f2efe24       move.w -0x1dc(a6), -(a7)
      0x005a838e      4ebac168       jsr K05_LOADSAVE.warn_if_fail(pc)
      0x005a8392      defc0102       adda.w 0x102, a7
      0x005a8396      4a1f           tst.b (a7)+
   > 0x005a8398      486efff4       pea.l -0xc(a6)
       0x005a839c      48780400       pea.l 0x400
       0x005a83a0      4eb900403a92   jsr p_New
       0x005a83a6      504f           addq.w 0x8, a7
       0x005a83a8      206efff4       movea.l -0xc(a6), a0
       0x005a83ac      b1e8fffc       cmpa.l -0x4(a0), a0
   < 0x005a83b0      6702           beq.b 0x5a83b4
      0x005a83b2      4e4d           trap 0xd
   > 0x005a83b4      554f           subq.w 0x2, a7
       0x005a83b6      1f3c0013       move.b 0x13, -(a7)
       0x005a83ba      1f00           move.b d0, -(a7)
       0x005a83bc      4227           clr.b -(a7)
       0x005a83be      486efdfa       pea.l -0x206(a6)
       0x005a83c2      2248           movea.l a0, a1
       0x005a83c4      2f09           move.l a1, -(a7)
       0x005a83c6      48780400       pea.l 0x400
       0x005a83ca      4eb9005abd82   jsr K1_AFS_ONLY.k1_data
       0x005a83d0      defc0012       adda.w 0x12, a7
       0x005a83d4      3d57fe24       move.w (a7), -0x1dc(a6)
       0x005a83d8      9efc0100       suba.w 0x100, a7
       0x005a83dc      224f           movea.l a7, a1
       0x005a83de      45fabaf9       lea.l 0x5a3ed9(pc), a2
       0x005a83e2      7013           moveq 0x13, d0
   > 0x005a83e4      12da           move.b (a2)+, (a1)+
   < 0x005a83e6      51c8fffc       dbra d0, 0x5a83e4
       0x005a83ea      3f2efe24       move.w -0x1dc(a6), -(a7)
       0x005a83ee      4ebac108       jsr K05_LOADSAVE.warn_if_fail(pc)
       0x005a83f2      defc0102       adda.w 0x102, a7
       0x005a83f6      4a1f           tst.b (a7)+
   < 0x005a83f8      6650           bne.b 0x5a844a
      0x005a83fa      554f           subq.w 0x2, a7
      0x005a83fc      1f3c0013       move.b 0x13, -(a7)
      0x005a8400      102efe23       move.b -0x1dd(a6), d0
      0x005a8404      4880           ext.w d0
      0x005a8406      41bc0007       chk.w 0x7, d0
      0x005a840a      1f00           move.b d0, -(a7)
      0x005a840c      1f3c0001       move.b 0x1, -(a7)
      0x005a8410      486efe04       pea.l -0x1fc(a6)
      0x005a8414      2248           movea.l a0, a1
      0x005a8416      2f09           move.l a1, -(a7)
      0x005a8418      48780400       pea.l 0x400
      0x005a841c      4eb9005abd82   jsr K1_AFS_ONLY.k1_data
      0x005a8422      defc0012       adda.w 0x12, a7
      0x005a8426      3d57fe24       move.w (a7), -0x1dc(a6)
      0x005a842a      9efc0100       suba.w 0x100, a7
      0x005a842e      224f           movea.l a7, a1
      0x005a8430      45fababb       lea.l 0x5a3eed(pc), a2
      0x005a8434      7013           moveq 0x13, d0
  > 0x005a8436      12da           move.b (a2)+, (a1)+
  < 0x005a8438      51c8fffc       dbra d0, 0x5a8436
      0x005a843c      3f2efe24       move.w -0x1dc(a6), -(a7)
      0x005a8440      4ebac0b6       jsr K05_LOADSAVE.warn_if_fail(pc)
      0x005a8444      defc0102       adda.w 0x102, a7
      0x005a8448      4a1f           tst.b (a7)+
   > 0x005a844a      486efff4       pea.l -0xc(a6)
       0x005a844e      48780400       pea.l 0x400
       0x005a8452      4eb900403b98   jsr p_Dispos
       0x005a8458      504f           addq.w 0x8, a7
    > 0x005a845a      554f           subq.w 0x2, a7
        0x005a845c      486efdfa       pea.l -0x206(a6)
        0x005a8460      486efe04       pea.l -0x1fc(a6)
        0x005a8464      102efe22       move.b -0x1de(a6), d0
        0x005a8468      4880           ext.w d0
        0x005a846a      41bc0007       chk.w 0x7, d0
        0x005a846e      1f00           move.b d0, -(a7)
        0x005a8470      102efe23       move.b -0x1dd(a6), d0
        0x005a8474      4880           ext.w d0
        0x005a8476      41bc0007       chk.w 0x7, d0
        0x005a847a      1f00           move.b d0, -(a7)
        0x005a847c      102efe4c       move.b -0x1b4(a6), d0
        0x005a8480      4880           ext.w d0
        0x005a8482      41bc0056       chk.w 0x56, d0
        0x005a8486      1f00           move.b d0, -(a7)
        0x005a8488      2f2efe2e       move.l -0x1d2(a6), -(a7)
        0x005a848c      2f2efe2a       move.l -0x1d6(a6), -(a7)
        0x005a8490      3f2efe28       move.w -0x1d8(a6), -(a7)
        0x005a8494      2f2efe38       move.l -0x1c8(a6), -(a7)
        0x005a8498      2f2efe34       move.l -0x1cc(a6), -(a7)
        0x005a849c      3f2efe32       move.w -0x1ce(a6), -(a7)
        0x005a84a0      2f2efef0       move.l -0x110(a6), -(a7)
        0x005a84a4      2f2efeec       move.l -0x114(a6), -(a7)
        0x005a84a8      4ebae218       jsr K05_LOADSAVE.transfer_header(pc)
        0x005a84ac      defc002a       adda.w 0x2a, a7
        0x005a84b0      3d57fe24       move.w (a7), -0x1dc(a6)
        0x005a84b4      9efc0100       suba.w 0x100, a7
        0x005a84b8      204f           movea.l a7, a0
        0x005a84ba      43faba45       lea.l 0x5a3f01(pc), a1
        0x005a84be      7019           moveq 0x19, d0
    > 0x005a84c0      10d9           move.b (a1)+, (a0)+
    < 0x005a84c2      51c8fffc       dbra d0, 0x5a84c0
        0x005a84c6      3f2efe24       move.w -0x1dc(a6), -(a7)
        0x005a84ca      4ebac02c       jsr K05_LOADSAVE.warn_if_fail(pc)
        0x005a84ce      defc0102       adda.w 0x102, a7
        0x005a84d2      4a1f           tst.b (a7)+
    < 0x005a84d4      670c           beq.b 0x5a84e2
       0x005a84d6      486efea2       pea.l -0x15e(a6)
       0x005a84da      4eb900404468   jsr fcn.00404468
       0x005a84e0      584f           addq.w 0x4, a7
    > 0x005a84e2      554f           subq.w 0x2, a7
           0x005a84e4      1f3c000f       move.b 0xf, -(a7)
           0x005a84e8      4eb900598cca   jsr K01_DEBUG.k01_debug
           0x005a84ee      544f           addq.w 0x2, a7
           0x005a84f0      4a1f           tst.b (a7)+
       < 0x005a84f2      672a           beq.b 0x5a851e
          0x005a84f4      487aba26       pea.l 0x5a3f1c(pc)
          0x005a84f8      48780020       pea.l 0x20
          0x005a84fc      2f17           move.l (a7), -(a7)
          0x005a84fe      4eb9004047ea   jsr p_wts_o
          0x005a8504      dec5           adda.w d5, a7
          0x005a8506      486efe24       pea.l -0x1dc(a6)
          0x005a850a      48780002       pea.l 0x2
          0x005a850e      2f17           move.l (a7), -(a7)
          0x005a8510      4eb9004047ea   jsr p_wts_o
          0x005a8516      dec5           adda.w d5, a7
          0x005a8518      4eb900404946   jsr p_wtln_o
       > 0x005a851e      3d6efe24001a   move.w -0x1dc(a6), 0x1a(a6)
           0x005a8524      23faba160083.  move.l 0x5a3f3c(pc), 0x83fe7c.l
           0x005a852c      23faba120083.  move.l 0x5a3f40(pc), 0x83fe80.l
           0x005a8534      23faba0e0083.  move.l 0x5a3f44(pc), 0x83fe84.l
           0x005a853c      23faba0a0083.  move.l 0x5a3f48(pc), 0x83fe88.l
           0x005a8544      33faba060083.  move.w 0x5a3f4c(pc), 0x83fe8c.l
           0x005a854c      4cdf1fff       movem.l (a7)+, d0-d7/a0-a4
           0x005a8550      4e5e           unlk a6
           0x005a8552      4e75           rts
            ; CALL XREF from K05_LOADSAVE.k_save @ 0x5a8a6a
 154: K05_LOADSAVE.get_aspect_corr ();
           0x005a8554      4e56ffd4       link.w a6, 0xffd4
           0x005a8558      bfd5           cmpa.l (a5), a7
       < 0x005a855a      6206           bhi.b 0x5a8562
          0x005a855c      44fc0002       move.w 0x2, ccr
          0x005a8560      4e76           trapv
       > 0x005a8562      defc002c       adda.w 0x2c, a7
           0x005a8566      48e7d8e0       movem.l d0-d1/d3-d4/a0-a2, -(a7)
           0x005a856a      43f900408686   lea.l fcn.00408686, a1
           0x005a8570      45ee0014       lea.l 0x14(a6), a2
           0x005a8574      102e0012       move.b 0x12(a6), d0
           0x005a8578      4880           ext.w d0
           0x005a857a      41fab9d2       lea.l 0x5a3f4e(pc), a0
           0x005a857e      3200           move.w d0, d1
           0x005a8580      e649           lsr.w 0x3, d1
           0x005a8582      01301000       btst.l d0, (a0, d1.w)
       < 0x005a8586      6704           beq.b 0x5a858c
      > 0x005a8588      4212           clr.b (a2)
     < 0x005a858a      605a           bra.b 0x5a85e6
     > 0x005a858c      4a2e0010       tst.b 0x10(a6)
     < 0x005a8590      6702           beq.b 0x5a8594
     < 0x005a8592      60f4           bra.b 0x5a8588
      > 0x005a8594      4212           clr.b (a2)
          0x005a8596      382e0008       move.w 0x8(a6), d4
          0x005a859a      48c4           ext.l d4
          0x005a859c      4e91           jsr (a1)                    ; fcn.0000000a
          0x005a859e      2f04           move.l d4, -(a7)
          0x005a85a0      382e000a       move.w 0xa(a6), d4
          0x005a85a4      48c4           ext.l d4
          0x005a85a6      4e91           jsr (a1)                    ; fcn.0000000a
          0x005a85a8      2604           move.l d4, d3
          0x005a85aa      2817           move.l (a7), d4
          0x005a85ac      4eb900407ff8   jsr fcn.00407ff8
          0x005a85b2      2e84           move.l d4, (a7)
          0x005a85b4      382e000c       move.w 0xc(a6), d4
          0x005a85b8      48c4           ext.l d4
          0x005a85ba      4e91           jsr (a1)                    ; fcn.0000000a
          0x005a85bc      2f04           move.l d4, -(a7)
          0x005a85be      382e000e       move.w 0xe(a6), d4
          0x005a85c2      48c4           ext.l d4
          0x005a85c4      4e91           jsr (a1)                    ; fcn.0000000a
          0x005a85c6      2604           move.l d4, d3
          0x005a85c8      2817           move.l (a7), d4
          0x005a85ca      4eb900407ff8   jsr fcn.00407ff8
          0x005a85d0      584f           addq.w 0x4, a7
          0x005a85d2      2604           move.l d4, d3
          0x005a85d4      2817           move.l (a7), d4
          0x005a85d6      4eb900407dd4   jsr fcn.00407dd4
      < 0x005a85dc      6604           bne.b 0x5a85e2
         0x005a85de      584f           addq.w 0x4, a7
     < 0x005a85e0      6004           bra.b 0x5a85e6
     > 0x005a85e2      5212           addq.b 0x1, (a2)
         0x005a85e4      584f           addq.w 0x4, a7
     > 0x005a85e6      4cdf071b       movem.l (a7)+, d0-d1/d3-d4/a0-a2
           0x005a85ea      4e5e           unlk a6
           0x005a85ec      4e75           rts
 612: K05_LOADSAVE.prepare_save_vi ();
           ; var int32_t var_8h @ a7+0x8
           ; var int32_t var_108h @ a7+0x108
           0x005a85ee      4e56fd9e       link.w a6, 0xfd9e
           0x005a85f2      bfd5           cmpa.l (a5), a7
       < 0x005a85f4      6206           bhi.b 0x5a85fc
          0x005a85f6      44fc0002       move.w 0x2, ccr
          0x005a85fa      4e76           trapv
       > 0x005a85fc      defc0240       adda.w 0x240, a7
           0x005a8600      48e7fef8       movem.l d0-d6/a0-a4, -(a7)
           0x005a8604      47f9004047ea   lea.l p_wts_o, a3
           0x005a860a      49f900408686   lea.l fcn.00408686, a4
           0x005a8610      720c           moveq 0xc, d1
           0x005a8612      7414           moveq 0x14, d2
           0x005a8614      7a0a           moveq 0xa, d5
           0x005a8616      7c03           moveq 0x3, d6
           0x005a8618      42aeffde       clr.l -0x22(a6)
           0x005a861c      42aeffe2       clr.l -0x1e(a6)
           0x005a8620      42aeffee       clr.l -0x12(a6)
           0x005a8624      2d7c00800000.  move.l 0x800000, -0xe(a6)
           0x005a862c      554f           subq.w 0x2, a7
           0x005a862e      1f02           move.b d2, -(a7)
           0x005a8630      4eb900598cca   jsr K01_DEBUG.k01_debug
           0x005a8636      544f           addq.w 0x2, a7
           0x005a8638      4a1f           tst.b (a7)+
       < 0x005a863a      67000094       beq.w 0x5a86d0
          0x005a863e      487ab91b       pea.l 0x5a3f5b(pc)
          0x005a8642      48780023       pea.l 0x23
          0x005a8646      2f17           move.l (a7), -(a7)
          0x005a8648      4e93           jsr (a3)                    ; fcn.0000000c
          0x005a864a      dec1           adda.w d1, a7
          0x005a864c      4eb900404946   jsr p_wtln_o
          0x005a8652      9efc0100       suba.w 0x100, a7
          0x005a8656      206e0014       movea.l 0x14(a6), a0
          0x005a865a      514f           subq.w 0x8, a7
          0x005a865c      224f           movea.l a7, a1
          0x005a865e      7007           moveq 0x7, d0
      > 0x005a8660      12d8           move.b (a0)+, (a1)+
      < 0x005a8662      51c8fffc       dbra d0, 0x5a8660
          0x005a8666      48780000       pea.l 0x0
          0x005a866a      4eb90044d9f2   jsr SYSTEM_STRING.area_str
          0x005a8670      9efc00f4       suba.w 0xf4, a7
          0x005a8674      2f2efff2       move.l -0xe(a6), -(a7)
          0x005a8678      2f2effee       move.l -0x12(a6), -(a7)
          0x005a867c      1f3c0001       move.b 0x1, -(a7)
          0x005a8680      4eb90044e0e4   jsr SYSTEM_STRING.hpoint_str
          0x005a8686      dec5           adda.w d5, a7
          0x005a8688      487ab8f5       pea.l 0x5a3f7f(pc)
          0x005a868c      48780018       pea.l 0x18
          0x005a8690      2f17           move.l (a7), -(a7)
          0x005a8692      4e93           jsr (a3)                    ; fcn.0000000c
          0x005a8694      dec1           adda.w d1, a7
          0x005a8696      486f0101       pea.l 0x101(a7)
          0x005a869a      42a7           clr.l -(a7)
          0x005a869c      1f6f01080003   move.b 0x108(a7), 0x3(a7)
          0x005a86a2      2f17           move.l (a7), -(a7)
          0x005a86a4      4e93           jsr (a3)                    ; fcn.0000000c
          0x005a86a6      dec1           adda.w d1, a7
          0x005a86a8      487ab8ee       pea.l 0x5a3f98(pc)
          0x005a86ac      48780006       pea.l 0x6
          0x005a86b0      2f17           move.l (a7), -(a7)
          0x005a86b2      4e93           jsr (a3)                    ; fcn.0000000c
          0x005a86b4      dec1           adda.w d1, a7
          0x005a86b6      486f0001       pea.l 0x1(a7)
          0x005a86ba      42a7           clr.l -(a7)
          0x005a86bc      1f6f00080003   move.b 0x8(a7), 0x3(a7)
          0x005a86c2      2f17           move.l (a7), -(a7)
          0x005a86c4      4e93           jsr (a3)                    ; fcn.0000000c
          0x005a86c6      defc020c       adda.w 0x20c, a7
          0x005a86ca      4eb900404946   jsr p_wtln_o
       > 0x005a86d0      382e0008       move.w 0x8(a6), d4
           0x005a86d4      48c4           ext.l d4
           0x005a86d6      4e94           jsr (a4)                    ; fcn.0000000d
           0x005a86d8      2f04           move.l d4, -(a7)
           0x005a86da      382e000c       move.w 0xc(a6), d4
           0x005a86de      48c4           ext.l d4
           0x005a86e0      4e94           jsr (a4)                    ; fcn.0000000d
           0x005a86e2      2604           move.l d4, d3
           0x005a86e4      2817           move.l (a7), d4
           0x005a86e6      4eb900407ff8   jsr fcn.00407ff8
           0x005a86ec      584f           addq.w 0x4, a7
           0x005a86ee      2d44ffe6       move.l d4, -0x1a(a6)
           0x005a86f2      382e000a       move.w 0xa(a6), d4
           0x005a86f6      48c4           ext.l d4
           0x005a86f8      4e94           jsr (a4)                    ; fcn.0000000d
           0x005a86fa      2f04           move.l d4, -(a7)
           0x005a86fc      382e000e       move.w 0xe(a6), d4
           0x005a8700      48c4           ext.l d4
           0x005a8702      4e94           jsr (a4)                    ; fcn.0000000d
           0x005a8704      2604           move.l d4, d3
           0x005a8706      2817           move.l (a7), d4
           0x005a8708      4eb900407ff8   jsr fcn.00407ff8
           0x005a870e      584f           addq.w 0x4, a7
           0x005a8710      2d44ffea       move.l d4, -0x16(a6)
           0x005a8714      554f           subq.w 0x2, a7
           0x005a8716      1f02           move.b d2, -(a7)
           0x005a8718      4eb900598cca   jsr K01_DEBUG.k01_debug
           0x005a871e      544f           addq.w 0x2, a7
           0x005a8720      4a1f           tst.b (a7)+
       < 0x005a8722      6746           beq.b 0x5a876a
          0x005a8724      9efc0100       suba.w 0x100, a7
          0x005a8728      2f2effea       move.l -0x16(a6), -(a7)
          0x005a872c      2f2effe6       move.l -0x1a(a6), -(a7)
          0x005a8730      48780008       pea.l 0x8
          0x005a8734      48780004       pea.l 0x4
          0x005a8738      4eb90044e33c   jsr SYSTEM_STRING.rpoint_str
          0x005a873e      defc0010       adda.w 0x10, a7
          0x005a8742      487ab85b       pea.l 0x5a3f9f(pc)
          0x005a8746      4878000e       pea.l 0xe
          0x005a874a      2f17           move.l (a7), -(a7)
          0x005a874c      4e93           jsr (a3)                    ; fcn.0000000c
          0x005a874e      dec1           adda.w d1, a7
          0x005a8750      486f0001       pea.l 0x1(a7)
          0x005a8754      42a7           clr.l -(a7)
          0x005a8756      1f6f00080003   move.b 0x8(a7), 0x3(a7)
          0x005a875c      2f17           move.l (a7), -(a7)
          0x005a875e      4e93           jsr (a3)                    ; fcn.0000000c
          0x005a8760      defc010c       adda.w 0x10c, a7
          0x005a8764      4eb900404946   jsr p_wtln_o
       > 0x005a876a      514f           subq.w 0x8, a7
           0x005a876c      1f05           move.b d5, -(a7)
           0x005a876e      4eb9006336ea   jsr HANDCOM.get_area
           0x005a8774      544f           addq.w 0x2, a7
           0x005a8776      2d5ffff6       move.l (a7)+, -0xa(a6)
           0x005a877a      2d5ffffa       move.l (a7)+, -0x6(a6)
           0x005a877e      1f06           move.b d6, -(a7)
           0x005a8780      2f2efffa       move.l -0x6(a6), -(a7)
           0x005a8784      2f2efff6       move.l -0xa(a6), -(a7)
           0x005a8788      4eb9005223fc   jsr BRUSHCOM.str_write_area
           0x005a878e      dec5           adda.w d5, a7
           0x005a8790      206e0014       movea.l 0x14(a6), a0
           0x005a8794      3f3cffff       move.w 0xffff, -(a7)
           0x005a8798      4227           clr.b -(a7)
           0x005a879a      514f           subq.w 0x8, a7
           0x005a879c      224f           movea.l a7, a1
           0x005a879e      2448           movea.l a0, a2
           0x005a87a0      7007           moveq 0x7, d0
       > 0x005a87a2      12da           move.b (a2)+, (a1)+
       < 0x005a87a4      51c8fffc       dbra d0, 0x5a87a2
           0x005a87a8      2f2effe2       move.l -0x1e(a6), -(a7)
           0x005a87ac      2f2effde       move.l -0x22(a6), -(a7)
           0x005a87b0      1f06           move.b d6, -(a7)
           0x005a87b2      1f2e0012       move.b 0x12(a6), -(a7)
           0x005a87b6      2f2efff2       move.l -0xe(a6), -(a7)
           0x005a87ba      2f2effee       move.l -0x12(a6), -(a7)
           0x005a87be      7801           moveq 0x1, d4
           0x005a87c0      4e94           jsr (a4)                    ; fcn.0000000d
           0x005a87c2      2f04           move.l d4, -(a7)
           0x005a87c4      7800           moveq 0x0, d4
           0x005a87c6      4e94           jsr (a4)                    ; fcn.0000000d
           0x005a87c8      2f04           move.l d4, -(a7)
           0x005a87ca      2f2effea       move.l -0x16(a6), -(a7)
           0x005a87ce      2f2effe6       move.l -0x1a(a6), -(a7)
           0x005a87d2      4227           clr.b -(a7)
           0x005a87d4      4227           clr.b -(a7)
           0x005a87d6      486efff6       pea.l -0xa(a6)
           0x005a87da      486efffe       pea.l -0x2(a6)
           0x005a87de      4eb900526aa8   jsr BRUSH2COM.br_size_2d
           0x005a87e4      defc003c       adda.w 0x3c, a7
           0x005a87e8      2248           movea.l a0, a1
           0x005a87ea      45eefff6       lea.l -0xa(a6), a2
           0x005a87ee      7007           moveq 0x7, d0
       > 0x005a87f0      12da           move.b (a2)+, (a1)+
       < 0x005a87f2      51c8fffc       dbra d0, 0x5a87f0
           0x005a87f6      554f           subq.w 0x2, a7
           0x005a87f8      1f02           move.b d2, -(a7)
           0x005a87fa      4eb900598cca   jsr K01_DEBUG.k01_debug
           0x005a8800      544f           addq.w 0x2, a7
           0x005a8802      4a1f           tst.b (a7)+
       < 0x005a8804      6744           beq.b 0x5a884a
          0x005a8806      9efc0108       suba.w 0x108, a7
          0x005a880a      224f           movea.l a7, a1
          0x005a880c      2448           movea.l a0, a2
          0x005a880e      7007           moveq 0x7, d0
      > 0x005a8810      12da           move.b (a2)+, (a1)+
      < 0x005a8812      51c8fffc       dbra d0, 0x5a8810
          0x005a8816      48780000       pea.l 0x0
          0x005a881a      4eb90044d9f2   jsr SYSTEM_STRING.area_str
          0x005a8820      dec1           adda.w d1, a7
          0x005a8822      487ab78a       pea.l 0x5a3fae(pc)
          0x005a8826      48780018       pea.l 0x18
          0x005a882a      2f17           move.l (a7), -(a7)
          0x005a882c      4e93           jsr (a3)                    ; fcn.0000000c
          0x005a882e      dec1           adda.w d1, a7
          0x005a8830      486f0001       pea.l 0x1(a7)
          0x005a8834      42a7           clr.l -(a7)
          0x005a8836      1f6f00080003   move.b 0x8(a7), 0x3(a7)
          0x005a883c      2f17           move.l (a7), -(a7)
          0x005a883e      4e93           jsr (a3)                    ; fcn.0000000c
          0x005a8840      defc010c       adda.w 0x10c, a7
          0x005a8844      4eb900404946   jsr p_wtln_o
       > 0x005a884a      4cdf1f7f       movem.l (a7)+, d0-d6/a0-a4
           0x005a884e      4e5e           unlk a6
           0x005a8850      4e75           rts
            ; CALL XREF from CYPHERFONT.font_copy @ 0x680606
 46: K05_LOADSAVE.k_set_char_save ();
           0x005a8852      4e56fffc       link.w a6, 0xfffc
           0x005a8856      bfd5           cmpa.l (a5), a7
       < 0x005a8858      6206           bhi.b 0x5a8860
          0x005a885a      44fc0002       move.w 0x2, ccr
          0x005a885e      4e76           trapv
       > 0x005a8860      defc0004       adda.w 0x4, a7
           0x005a8864      23ee00080083.  move.l 0x8(a6), 0x83fe72.l
           0x005a886c      23ee000c0083.  move.l 0xc(a6), 0x83fe76.l
           0x005a8874      33ee00100083.  move.w 0x10(a6), 0x83fe7a.l
           0x005a887c      4e5e           unlk a6
           0x005a887e      4e75           rts
            ; XREFS: CALL 0x004c04fe  CALL 0x005b4dda  CALL 0x0064f8e8  
            ; XREFS: CALL 0x00665bc8  CALL 0x006661de  CALL 0x00666c4a  
            ; XREFS: CALL 0x006671cc  CALL 0x00671ebe  CALL 0x00672d20  
            ; XREFS: CALL 0x00680628  
 536: K05_LOADSAVE.k_save (int32_t arg_1h);
           ; var int32_t var_48e6h @ a6-0x48e6
           ; var int32_t var_48e1h @ a6-0x48e1
           ; var int32_t var_79h @ a6-0x79
           ; var int32_t var_78h @ a6-0x78
           ; arg int32_t arg_1h @ a6+0x1
           ; var int32_t var_8h @ a7+0x8
           0x005a8880      4e56fd36       link.w a6, 0xfd36
           0x005a8884      bfd5           cmpa.l (a5), a7
       < 0x005a8886      6206           bhi.b 0x5a888e
          0x005a8888      44fc0002       move.w 0x2, ccr
          0x005a888c      4e76           trapv
       > 0x005a888e      defc0246       adda.w 0x246, a7
           0x005a8892      48e7fff8       movem.l d0-d7/a0-a4, -(a7)
           0x005a8896      45f9004047ea   lea.l p_wts_o, a2
           0x005a889c      47f900404946   lea.l p_wtln_o, a3
           0x005a88a2      49ee0012       lea.l 0x12(a6), a4
           0x005a88a6      1d7ab71fff87   move.b 0x5a3fc7(pc), -0x79(a6)
           0x005a88ac      1d7ab71aff88   move.b 0x5a3fc8(pc), -0x78(a6)
           0x005a88b2      41f90083fe7c   lea.l 0x83fe7c, a0
           0x005a88b8      43fab70f       lea.l 0x5a3fc9(pc), a1
           0x005a88bc      7004           moveq 0x4, d0
       > 0x005a88be      10d9           move.b (a1)+, (a0)+
       < 0x005a88c0      51c8fffc       dbra d0, 0x5a88be
           0x005a88c4      554f           subq.w 0x2, a7
           0x005a88c6      1f3c0014       move.b 0x14, -(a7)
           0x005a88ca      4eb900598cca   jsr K01_DEBUG.k01_debug
           0x005a88d0      544f           addq.w 0x2, a7
           0x005a88d2      4a1f           tst.b (a7)+
       < 0x005a88d4      6764           beq.b 0x5a893a
          0x005a88d6      9efc0100       suba.w 0x100, a7
          0x005a88da      2f14           move.l (a4), -(a7)
          0x005a88dc      2f2e000e       move.l 0xe(a6), -(a7)
          0x005a88e0      48780000       pea.l 0x0
          0x005a88e4      4eb90044d9f2   jsr SYSTEM_STRING.area_str
          0x005a88ea      defc000c       adda.w 0xc, a7
          0x005a88ee      487ab6df       pea.l 0x5a3fcf(pc)
          0x005a88f2      4878000d       pea.l 0xd
          0x005a88f6      2f17           move.l (a7), -(a7)
          0x005a88f8      4e92           jsr (a2)                    ; fcn.00000009+0x2
          0x005a88fa      defc000c       adda.w 0xc, a7
          0x005a88fe      102e000c       move.b 0xc(a6), d0
          0x005a8902      4880           ext.w d0
          0x005a8904      48c0           ext.l d0
          0x005a8906      2f00           move.l d0, -(a7)
          0x005a8908      48780000       pea.l 0x0
          0x005a890c      4eb9004070e4   jsr p_wti_o
          0x005a8912      504f           addq.w 0x8, a7
          0x005a8914      487ab6c7       pea.l 0x5a3fdd(pc)
          0x005a8918      48780006       pea.l 0x6
          0x005a891c      2f17           move.l (a7), -(a7)
          0x005a891e      4e92           jsr (a2)                    ; fcn.00000009+0x2
          0x005a8920      defc000c       adda.w 0xc, a7
          0x005a8924      486f0001       pea.l 0x1(a7)
          0x005a8928      42a7           clr.l -(a7)
          0x005a892a      1f6f00080003   move.b 0x8(a7), 0x3(a7)
          0x005a8930      2f17           move.l (a7), -(a7)
          0x005a8932      4e92           jsr (a2)                    ; fcn.00000009+0x2
          0x005a8934      defc010c       adda.w 0x10c, a7
          0x005a8938      4e93           jsr (a3)                    ; fcn.0000000c
       > 0x005a893a      554f           subq.w 0x2, a7
           0x005a893c      486eff8a       pea.l -0x76(a6)
           0x005a8940      4eb900404434   jsr fcn.00404434
           0x005a8946      584f           addq.w 0x4, a7
           0x005a8948      4a1f           tst.b (a7)+
       < 0x005a894a      670006c2       beq.w 0x5a900e
          0x005a894e      9efc000a       suba.w 0xa, a7
          0x005a8952      206e0016       movea.l 0x16(a6), a0
          0x005a8956      4850           pea.l (a0)
          0x005a8958      486eff87       pea.l -0x79(a6)
          0x005a895c      486eff86       pea.l -0x7a(a6)
          0x005a8960      4ebabd04       jsr K05_LOADSAVE.gen_fid(pc)
          0x005a8964      defc000c       adda.w 0xc, a7
          0x005a8968      2d5fff7c       move.l (a7)+, -0x84(a6)
          0x005a896c      2d5fff80       move.l (a7)+, -0x80(a6)
          0x005a8970      3d57ff84       move.w (a7), -0x7c(a6)
          0x005a8974      9efc0100       suba.w 0x100, a7
          0x005a8978      204f           movea.l a7, a0
          0x005a897a      43fab667       lea.l 0x5a3fe3(pc), a1
          0x005a897e      7014           moveq 0x14, d0
      > 0x005a8980      10d9           move.b (a1)+, (a0)+
      < 0x005a8982      51c8fffc       dbra d0, 0x5a8980
          0x005a8986      554f           subq.w 0x2, a7
          0x005a8988      1eaeff87       move.b -0x79(a6), (a7)
          0x005a898c      1f6eff880001   move.b -0x78(a6), 0x1(a7)
          0x005a8992      4ebabb64       jsr K05_LOADSAVE.warn_if_fail(pc)
          0x005a8996      defc0102       adda.w 0x102, a7
          0x005a899a      4a1f           tst.b (a7)+
      < 0x005a899c      670c           beq.b 0x5a89aa
         0x005a899e      486eff8a       pea.l -0x76(a6)
         0x005a89a2      4eb900404468   jsr fcn.00404468
         0x005a89a8      584f           addq.w 0x4, a7
      > 0x005a89aa      554f           subq.w 0x2, a7
          0x005a89ac      2f2eff82       move.l -0x7e(a6), -(a7)
          0x005a89b0      2f2eff7e       move.l -0x82(a6), -(a7)
          0x005a89b4      3f2eff7c       move.w -0x84(a6), -(a7)
          0x005a89b8      9efc00fc       suba.w 0xfc, a7
          0x005a89bc      2f3ab63a       move.l 0x5a3ff8(pc), -(a7)
          0x005a89c0      2f7ab63a0004   move.l 0x5a3ffc(pc), 0x4(a7)
          0x005a89c6      3f7ab6380008   move.w 0x5a4000(pc), 0x8(a7)
          0x005a89cc      1f3c0014       move.b 0x14, -(a7)
          0x005a89d0      1f3c0001       move.b 0x1, -(a7)
          0x005a89d4      486efff0       pea.l -0x10(a6)
          0x005a89d8      486effe4       pea.l -0x1c(a6)
          0x005a89dc      486effe0       pea.l -0x20(a6)
          0x005a89e0      4227           clr.b -(a7)
          0x005a89e2      486effef       pea.l -0x11(a6)
          0x005a89e6      4ebabe6c       jsr K05_LOADSAVE.get_data(pc)
          0x005a89ea      defc0120       adda.w 0x120, a7
          0x005a89ee      1d57ff87       move.b (a7), -0x79(a6)
          0x005a89f2      1d6f0001ff88   move.b 0x1(a7), -0x78(a6)
          0x005a89f8      9efc00fc       suba.w 0xfc, a7
          0x005a89fc      2f3ab604       move.l 0x5a4002(pc), -(a7)
          0x005a8a00      2f7ab6040004   move.l 0x5a4006(pc), 0x4(a7)
          0x005a8a06      2f7ab6020008   move.l 0x5a400a(pc), 0x8(a7)
          0x005a8a0c      2f7ab600000c   move.l 0x5a400e(pc), 0xc(a7)
          0x005a8a12      3f7ab5fe0010   move.w 0x5a4012(pc), 0x10(a7)
          0x005a8a18      554f           subq.w 0x2, a7
          0x005a8a1a      1eaeff87       move.b -0x79(a6), (a7)
          0x005a8a1e      1f6eff880001   move.b -0x78(a6), 0x1(a7)
          0x005a8a24      4ebabad2       jsr K05_LOADSAVE.warn_if_fail(pc)
          0x005a8a28      defc0102       adda.w 0x102, a7
          0x005a8a2c      4a1f           tst.b (a7)+
      < 0x005a8a2e      670c           beq.b 0x5a8a3c
         0x005a8a30      486eff8a       pea.l -0x76(a6)
         0x005a8a34      4eb900404468   jsr fcn.00404468
         0x005a8a3a      584f           addq.w 0x4, a7
      > 0x005a8a3c      594f           subq.w 0x4, a7
          0x005a8a3e      4eb900633bb2   jsr HANDCOM.get_pixel_aspec
          0x005a8a44      2d57ffdc       move.l (a7), -0x24(a6)
          0x005a8a48      544f           addq.w 0x2, a7
          0x005a8a4a      102efff0       move.b -0x10(a6), d0
          0x005a8a4e      4880           ext.w d0
          0x005a8a50      41bc0056       chk.w 0x56, d0
          0x005a8a54      1f00           move.b d0, -(a7)
          0x005a8a56      102effef       move.b -0x11(a6), d0
          0x005a8a5a      4880           ext.w d0
          0x005a8a5c      41bc0001       chk.w 0x1, d0
          0x005a8a60      1f00           move.b d0, -(a7)
          0x005a8a62      2f2effdc       move.l -0x24(a6), -(a7)
          0x005a8a66      2f2effe0       move.l -0x20(a6), -(a7)
          0x005a8a6a      4ebafae8       jsr K05_LOADSAVE.get_aspect_corr(pc)
          0x005a8a6e      defc000c       adda.w 0xc, a7
          0x005a8a72      101f           move.b (a7)+, d0
          0x005a8a74      4880           ext.w d0
          0x005a8a76      41bc0001       chk.w 0x1, d0
          0x005a8a7a      1a00           move.b d0, d5
          0x005a8a7c      422effd6       clr.b -0x2a(a6)
          0x005a8a80      102e000c       move.b 0xc(a6), d0
          0x005a8a84      4880           ext.w d0
          0x005a8a86      0c400003       cmpi.w 0x3, d0
      < 0x005a8a8a      6302           bls.b 0x5a8a8e
         0x005a8a8c      4e4e           trap 0xe
      > 0x005a8a8e      d040           add.w d0, d0
          0x005a8a90      303b0006       move.w 0x5a8a98(pc, d0.w), d0
          0x005a8a94      4efb0002       jmp 0x5a8a98(pc, d0.w)
           0x005a8a98      00080010       
           0x005a8a99      08001000       
           0x005a8a9a      0010000c       ori.b 0xc, (a0)
           0x005a8a9e      00107e00       ori.b 0x0, (a0)
       < 0x005a8aa2      601c           bra.b 0x5a8ac0
          0x005a8aa4      7e01           moveq 0x1, d7
      < 0x005a8aa6      6018           bra.b 0x5a8ac0
         0x005a8aa8      7e00           moveq 0x0, d7
         0x005a8aaa      1d7c0001ffd6   move.b 0x1, -0x2a(a6)
         0x005a8ab0      3d790083fe78.  move.w 0x83fe78, -0x28(a6)
         0x005a8ab8      3d790083fe7a.  move.w 0x83fe7a, -0x26(a6)
      > 0x005a8ac0      4a07           tst.b d7
       < 0x005a8ac2      6600016a       bne.w 0x5a8c2e
          0x005a8ac6      4a2effd6       tst.b -0x2a(a6)
      < 0x005a8aca      66000112       bne.w 0x5a8bde
         0x005a8ace      302effe4       move.w -0x1c(a6), d0
         0x005a8ad2      b054           cmp.w (a4), d0
     < 0x005a8ad4      660c           bne.b 0x5a8ae2
        0x005a8ad6      322effe6       move.w -0x1a(a6), d1
        0x005a8ada      b26e0014       cmp.w 0x14(a6), d1
    < 0x005a8ade      670000fe       beq.w 0x5a8bde
    > 0x005a8ae2      487ab531       pea.l 0x5a4015(pc)
        0x005a8ae6      4878003f       pea.l 0x3f
        0x005a8aea      2f17           move.l (a7), -(a7)
        0x005a8aec      4e92           jsr (a2)                    ; fcn.00000009+0x2
        0x005a8aee      defc000c       adda.w 0xc, a7
        0x005a8af2      4e93           jsr (a3)                    ; fcn.0000000c
        0x005a8af4      322e0014       move.w 0x14(a6), d1
        0x005a8af8      b26effe6       cmp.w -0x1a(a6), d1
    < 0x005a8afc      6f4e           ble.b 0x5a8b4c
       0x005a8afe      487ab555       pea.l 0x5a4055(pc)
       0x005a8b02      48780018       pea.l 0x18
       0x005a8b06      2f17           move.l (a7), -(a7)
       0x005a8b08      4e92           jsr (a2)                    ; fcn.00000009+0x2
       0x005a8b0a      defc000c       adda.w 0xc, a7
       0x005a8b0e      4e93           jsr (a3)                    ; fcn.0000000c
       0x005a8b10      48c1           ext.l d1
       0x005a8b12      342effe6       move.w -0x1a(a6), d2
       0x005a8b16      48c2           ext.l d2
       0x005a8b18      2601           move.l d1, d3
       0x005a8b1a      9682           sub.l d2, d3
       0x005a8b1c      2803           move.l d3, d4
       0x005a8b1e      7602           moveq 0x2, d3
       0x005a8b20      4eb900406b50   jsr fcn.00406b50
       0x005a8b26      362e0010       move.w 0x10(a6), d3
       0x005a8b2a      48c3           ext.l d3
       0x005a8b2c      d883           add.l d3, d4
       0x005a8b2e      0484ffff8000   subi.l 0xffff8000, d4
       0x005a8b34      0c840000ffff   cmpi.l 0xffff, d4
   < 0x005a8b3a      6302           bls.b 0x5a8b3e
      0x005a8b3c      4e4f           trap 0xf
   > 0x005a8b3e      0684ffff8000   addi.l 0xffff8000, d4
       0x005a8b44      3d440010       move.w d4, 0x10(a6)
       0x005a8b48      3d420014       move.w d2, 0x14(a6)
    > 0x005a8b4c      322e0014       move.w 0x14(a6), d1
        0x005a8b50      b26effe6       cmp.w -0x1a(a6), d1
    < 0x005a8b54      6c1c           bge.b 0x5a8b72
       0x005a8b56      487ab516       pea.l 0x5a406e(pc)
       0x005a8b5a      4878001a       pea.l 0x1a
       0x005a8b5e      2f17           move.l (a7), -(a7)
       0x005a8b60      4e92           jsr (a2)                    ; fcn.00000009+0x2
       0x005a8b62      defc000c       adda.w 0xc, a7
       0x005a8b66      4e93           jsr (a3)                    ; fcn.0000000c
       0x005a8b68      4227           clr.b -(a7)
       0x005a8b6a      4eb90040452a   jsr p_Assert
       0x005a8b70      544f           addq.w 0x2, a7
    > 0x005a8b72      b054           cmp.w (a4), d0
    < 0x005a8b74      6c48           bge.b 0x5a8bbe
       0x005a8b76      487ab511       pea.l 0x5a4089(pc)
       0x005a8b7a      48780018       pea.l 0x18
       0x005a8b7e      2f17           move.l (a7), -(a7)
       0x005a8b80      4e92           jsr (a2)                    ; fcn.00000009+0x2
       0x005a8b82      defc000c       adda.w 0xc, a7
       0x005a8b86      4e93           jsr (a3)                    ; fcn.0000000c
       0x005a8b88      3214           move.w (a4), d1
       0x005a8b8a      48c1           ext.l d1
       0x005a8b8c      48c0           ext.l d0
       0x005a8b8e      9280           sub.l d0, d1
       0x005a8b90      2801           move.l d1, d4
       0x005a8b92      7602           moveq 0x2, d3
       0x005a8b94      4eb900406b50   jsr fcn.00406b50
       0x005a8b9a      322e000e       move.w 0xe(a6), d1
       0x005a8b9e      48c1           ext.l d1
       0x005a8ba0      d881           add.l d1, d4
       0x005a8ba2      0484ffff8000   subi.l 0xffff8000, d4
       0x005a8ba8      0c840000ffff   cmpi.l 0xffff, d4
   < 0x005a8bae      6302           bls.b 0x5a8bb2
      0x005a8bb0      4e4f           trap 0xf
   > 0x005a8bb2      0684ffff8000   addi.l 0xffff8000, d4
       0x005a8bb8      3d44000e       move.w d4, 0xe(a6)
       0x005a8bbc      3880           move.w d0, (a4)
    > 0x005a8bbe      b054           cmp.w (a4), d0
    < 0x005a8bc0      6f1c           ble.b 0x5a8bde
       0x005a8bc2      487ab4de       pea.l 0x5a40a2(pc)
       0x005a8bc6      4878001a       pea.l 0x1a
       0x005a8bca      2f17           move.l (a7), -(a7)
       0x005a8bcc      4e92           jsr (a2)                    ; fcn.00000009+0x2
       0x005a8bce      defc000c       adda.w 0xc, a7
       0x005a8bd2      4e93           jsr (a3)                    ; fcn.0000000c
       0x005a8bd4      4227           clr.b -(a7)
       0x005a8bd6      4eb90040452a   jsr p_Assert
       0x005a8bdc      544f           addq.w 0x2, a7
    > 0x005a8bde      554f           subq.w 0x2, a7
          0x005a8be0      1f3c0014       move.b 0x14, -(a7)
          0x005a8be4      4eb900598cca   jsr K01_DEBUG.k01_debug
          0x005a8bea      544f           addq.w 0x2, a7
          0x005a8bec      4a1f           tst.b (a7)+
      < 0x005a8bee      673e           beq.b 0x5a8c2e
         0x005a8bf0      9efc0100       suba.w 0x100, a7
         0x005a8bf4      2f14           move.l (a4), -(a7)
         0x005a8bf6      2f2e000e       move.l 0xe(a6), -(a7)
         0x005a8bfa      48780000       pea.l 0x0
         0x005a8bfe      4eb90044d9f2   jsr SYSTEM_STRING.area_str
         0x005a8c04      defc000c       adda.w 0xc, a7
         0x005a8c08      487ab4b3       pea.l 0x5a40bd(pc)
         0x005a8c0c      48780011       pea.l 0x11
         0x005a8c10      2f17           move.l (a7), -(a7)
         0x005a8c12      4e92           jsr (a2)                    ; fcn.00000009+0x2
         0x005a8c14      defc000c       adda.w 0xc, a7
         0x005a8c18      486f0001       pea.l 0x1(a7)
         0x005a8c1c      42a7           clr.l -(a7)
         0x005a8c1e      1f6f00080003   move.b 0x8(a7), 0x3(a7)
         0x005a8c24      2f17           move.l (a7), -(a7)
         0x005a8c26      4e92           jsr (a2)                    ; fcn.00000009+0x2
         0x005a8c28      defc010c       adda.w 0x10c, a7
         0x005a8c2c      4e93           jsr (a3)                    ; fcn.0000000c
      > 0x005a8c2e      3014           move.w (a4), d0
           0x005a8c30      02400007       andi.w 0x7, d0
       < 0x005a8c34      6712           beq.b 0x5a8c48
          0x005a8c36      487ab497       pea.l 0x5a40cf(pc)
          0x005a8c3a      48780021       pea.l 0x21
          0x005a8c3e      2f17           move.l (a7), -(a7)
          0x005a8c40      4e92           jsr (a2)                    ; fcn.00000009+0x2
          0x005a8c42      defc000c       adda.w 0xc, a7
          0x005a8c46      4e93           jsr (a3)                    ; fcn.0000000c
       > 0x005a8c48      4a05           tst.b d5
       < 0x005a8c4a      6638           bne.b 0x5a8c84
          0x005a8c4c      322e000e       move.w 0xe(a6), d1
          0x005a8c50      02410007       andi.w 0x7, d1
      < 0x005a8c54      662e           bne.b 0x5a8c84
         0x005a8c56      4a40           tst.w d0
     < 0x005a8c58      662a           bne.b 0x5a8c84
        0x005a8c5a      554f           subq.w 0x2, a7
        0x005a8c5c      1f3c0014       move.b 0x14, -(a7)
        0x005a8c60      4eb900598cca   jsr K01_DEBUG.k01_debug
        0x005a8c66      544f           addq.w 0x2, a7
        0x005a8c68      4a1f           tst.b (a7)+
    < 0x005a8c6a      670002e4       beq.w 0x5a8f50
       0x005a8c6e      487ab481       pea.l 0x5a40f1(pc)
       0x005a8c72      4878000b       pea.l 0xb
       0x005a8c76      2f17           move.l (a7), -(a7)
       0x005a8c78      4e92           jsr (a2)                    ; fcn.00000009+0x2
       0x005a8c7a      defc000c       adda.w 0xc, a7
       0x005a8c7e      4e93           jsr (a3)                    ; fcn.0000000c
   < 0x005a8c80      600002ce       bra.w 0x5a8f50
   > 0x005a8c84      1f3ab476       move.b 0x5a40fc(pc), -(a7)
         0x005a8c88      4eb90063278a   jsr CACHECOM.clear_cache
         0x005a8c8e      544f           addq.w 0x2, a7
         0x005a8c90      4a2e000a       tst.b 0xa(a6)
     < 0x005a8c94      662a           bne.b 0x5a8cc0
        0x005a8c96      554f           subq.w 0x2, a7
        0x005a8c98      1f3c0014       move.b 0x14, -(a7)
        0x005a8c9c      4eb900598cca   jsr K01_DEBUG.k01_debug
        0x005a8ca2      544f           addq.w 0x2, a7
        0x005a8ca4      4a1f           tst.b (a7)+
    < 0x005a8ca6      6700023c       beq.w 0x5a8ee4
       0x005a8caa      487ab452       pea.l 0x5a40fe(pc)
       0x005a8cae      48780016       pea.l 0x16
       0x005a8cb2      2f17           move.l (a7), -(a7)
       0x005a8cb4      4e92           jsr (a2)                    ; fcn.00000009+0x2
       0x005a8cb6      defc000c       adda.w 0xc, a7
       0x005a8cba      4e93           jsr (a3)                    ; fcn.0000000c
   < 0x005a8cbc      60000226       bra.w 0x5a8ee4
   > 0x005a8cc0      554f           subq.w 0x2, a7
       0x005a8cc2      1f3c0014       move.b 0x14, -(a7)
       0x005a8cc6      4eb900598cca   jsr K01_DEBUG.k01_debug
       0x005a8ccc      544f           addq.w 0x2, a7
       0x005a8cce      4a1f           tst.b (a7)+
   < 0x005a8cd0      6712           beq.b 0x5a8ce4
      0x005a8cd2      487ab441       pea.l 0x5a4115(pc)
      0x005a8cd6      48780015       pea.l 0x15
      0x005a8cda      2f17           move.l (a7), -(a7)
      0x005a8cdc      4e92           jsr (a2)                    ; fcn.00000009+0x2
      0x005a8cde      defc000c       adda.w 0xc, a7
      0x005a8ce2      4e93           jsr (a3)                    ; fcn.0000000c
   > 0x005a8ce4      3d6e000efff4   move.w 0xe(a6), -0xc(a6)
       0x005a8cea      3d6e0010fff6   move.w 0x10(a6), -0xa(a6)
       0x005a8cf0      426efff8       clr.w -0x8(a6)
       0x005a8cf4      3d7c0080fffa   move.w 0x80, -0x6(a6)
       0x005a8cfa      3d54fffc       move.w (a4), -0x4(a6)
       0x005a8cfe      3d6e0014fffe   move.w 0x14(a6), -0x2(a6)
       0x005a8d04      554f           subq.w 0x2, a7
       0x005a8d06      1f3c0014       move.b 0x14, -(a7)
       0x005a8d0a      4eb900598cca   jsr K01_DEBUG.k01_debug
       0x005a8d10      544f           addq.w 0x2, a7
       0x005a8d12      4a1f           tst.b (a7)+
   < 0x005a8d14      6776           beq.b 0x5a8d8c
      0x005a8d16      9efc0100       suba.w 0x100, a7
      0x005a8d1a      2f2efff4       move.l -0xc(a6), -(a7)
      0x005a8d1e      48780000       pea.l 0x0
      0x005a8d22      4eb90044dd86   jsr SYSTEM_STRING.point_str
      0x005a8d28      9efc00f8       suba.w 0xf8, a7
      0x005a8d2c      2f2efffc       move.l -0x4(a6), -(a7)
      0x005a8d30      2f2efff8       move.l -0x8(a6), -(a7)
      0x005a8d34      48780000       pea.l 0x0
      0x005a8d38      4eb90044d9f2   jsr SYSTEM_STRING.area_str
      0x005a8d3e      defc000c       adda.w 0xc, a7
      0x005a8d42      487ab3e7       pea.l 0x5a412b(pc)
      0x005a8d46      48780005       pea.l 0x5
      0x005a8d4a      2f17           move.l (a7), -(a7)
      0x005a8d4c      4e92           jsr (a2)                    ; fcn.00000009+0x2
      0x005a8d4e      defc000c       adda.w 0xc, a7
      0x005a8d52      486f0101       pea.l 0x101(a7)
      0x005a8d56      42a7           clr.l -(a7)
      0x005a8d58      1f6f01080003   move.b 0x108(a7), 0x3(a7)
      0x005a8d5e      2f17           move.l (a7), -(a7)
      0x005a8d60      4e92           jsr (a2)                    ; fcn.00000009+0x2
      0x005a8d62      defc000c       adda.w 0xc, a7
      0x005a8d66      487ab3c9       pea.l 0x5a4131(pc)
      0x005a8d6a      48780009       pea.l 0x9
      0x005a8d6e      2f17           move.l (a7), -(a7)
      0x005a8d70      4e92           jsr (a2)                    ; fcn.00000009+0x2
      0x005a8d72      defc000c       adda.w 0xc, a7
      0x005a8d76      486f0001       pea.l 0x1(a7)
      0x005a8d7a      42a7           clr.l -(a7)
      0x005a8d7c      1f6f00080003   move.b 0x8(a7), 0x3(a7)
      0x005a8d82      2f17           move.l (a7), -(a7)
      0x005a8d84      4e92           jsr (a2)                    ; fcn.00000009+0x2
      0x005a8d86      defc020c       adda.w 0x20c, a7
      0x005a8d8a      4e93           jsr (a3)                    ; fcn.0000000c
   > 0x005a8d8c      302efff4       move.w -0xc(a6), d0
       0x005a8d90      02400007       andi.w 0x7, d0
   < 0x005a8d94      6608           bne.b 0x5a8d9e
      0x005a8d96      1f2e000a       move.b 0xa(a6), -(a7)
  < 0x005a8d9a      6000011e       bra.w 0x5a8eba
  > 0x005a8d9e      554f           subq.w 0x2, a7
      0x005a8da0      1f3c0014       move.b 0x14, -(a7)
      0x005a8da4      4eb900598cca   jsr K01_DEBUG.k01_debug
      0x005a8daa      544f           addq.w 0x2, a7
      0x005a8dac      4a1f           tst.b (a7)+
  < 0x005a8dae      6712           beq.b 0x5a8dc2
     0x005a8db0      487ab389       pea.l 0x5a413b(pc)
     0x005a8db4      48780016       pea.l 0x16
     0x005a8db8      2f17           move.l (a7), -(a7)
     0x005a8dba      4e92           jsr (a2)                    ; fcn.00000009+0x2
     0x005a8dbc      defc000c       adda.w 0xc, a7
     0x005a8dc0      4e93           jsr (a3)                    ; fcn.0000000c
  > 0x005a8dc2      3c00           move.w d0, d6
      0x005a8dc4      322efff4       move.w -0xc(a6), d1
      0x005a8dc8      48c1           ext.l d1
      0x005a8dca      48c6           ext.l d6
      0x005a8dcc      9286           sub.l d6, d1
      0x005a8dce      0481ffff8000   subi.l 0xffff8000, d1
      0x005a8dd4      0c810000ffff   cmpi.l 0xffff, d1
  < 0x005a8dda      6302           bls.b 0x5a8dde
     0x005a8ddc      4e4f           trap 0xf
  > 0x005a8dde      0681ffff8000   addi.l 0xffff8000, d1
      0x005a8de4      3d41fff4       move.w d1, -0xc(a6)
      0x005a8de8      322efffc       move.w -0x4(a6), d1
      0x005a8dec      48c1           ext.l d1
      0x005a8dee      d286           add.l d6, d1
      0x005a8df0      0481ffff8000   subi.l 0xffff8000, d1
      0x005a8df6      0c810000ffff   cmpi.l 0xffff, d1
  < 0x005a8dfc      6302           bls.b 0x5a8e00
     0x005a8dfe      4e4f           trap 0xf
  > 0x005a8e00      0681ffff8000   addi.l 0xffff8000, d1
      0x005a8e06      3d41fffc       move.w d1, -0x4(a6)
      0x005a8e0a      1f2e000a       move.b 0xa(a6), -(a7)
      0x005a8e0e      4227           clr.b -(a7)
      0x005a8e10      1f2e0008       move.b 0x8(a6), -(a7)
      0x005a8e14      2f2efff4       move.l -0xc(a6), -(a7)
      0x005a8e18      2f2efffc       move.l -0x4(a6), -(a7)
      0x005a8e1c      2f2efff8       move.l -0x8(a6), -(a7)
      0x005a8e20      4eb900522722   jsr BRUSHCOM.str_any_str_cop
      0x005a8e26      defc0012       adda.w 0x12, a7
      0x005a8e2a      426efff4       clr.w -0xc(a6)
      0x005a8e2e      3d7c0080fff6   move.w 0x80, -0xa(a6)
      0x005a8e34      322efff8       move.w -0x8(a6), d1
      0x005a8e38      48c1           ext.l d1
      0x005a8e3a      9286           sub.l d6, d1
      0x005a8e3c      0481ffff8000   subi.l 0xffff8000, d1
      0x005a8e42      0c810000ffff   cmpi.l 0xffff, d1
  < 0x005a8e48      6302           bls.b 0x5a8e4c
     0x005a8e4a      4e4f           trap 0xf
  > 0x005a8e4c      0681ffff8000   addi.l 0xffff8000, d1
      0x005a8e52      3d41fff8       move.w d1, -0x8(a6)
      0x005a8e56      4227           clr.b -(a7)
      0x005a8e58      1f3c0003       move.b 0x3, -(a7)
      0x005a8e5c      1f2e0008       move.b 0x8(a6), -(a7)
      0x005a8e60      2f2efff4       move.l -0xc(a6), -(a7)
      0x005a8e64      2f2efffc       move.l -0x4(a6), -(a7)
      0x005a8e68      2f2efff8       move.l -0x8(a6), -(a7)
      0x005a8e6c      4eb900522722   jsr BRUSHCOM.str_any_str_cop
      0x005a8e72      defc0012       adda.w 0x12, a7
      0x005a8e76      48c1           ext.l d1
      0x005a8e78      d286           add.l d6, d1
      0x005a8e7a      0481ffff8000   subi.l 0xffff8000, d1
      0x005a8e80      0c810000ffff   cmpi.l 0xffff, d1
  < 0x005a8e86      6302           bls.b 0x5a8e8a
     0x005a8e88      4e4f           trap 0xf
  > 0x005a8e8a      0681ffff8000   addi.l 0xffff8000, d1
      0x005a8e90      3d41fff8       move.w d1, -0x8(a6)
      0x005a8e94      322efffc       move.w -0x4(a6), d1
      0x005a8e98      48c1           ext.l d1
      0x005a8e9a      9286           sub.l d6, d1
      0x005a8e9c      0481ffff8000   subi.l 0xffff8000, d1
      0x005a8ea2      0c810000ffff   cmpi.l 0xffff, d1
  < 0x005a8ea8      6302           bls.b 0x5a8eac
     0x005a8eaa      4e4f           trap 0xf
  > 0x005a8eac      0681ffff8000   addi.l 0xffff8000, d1
      0x005a8eb2      3d41fffc       move.w d1, -0x4(a6)
      0x005a8eb6      1f3c0003       move.b 0x3, -(a7)
  > 0x005a8eba      4227           clr.b -(a7)
       0x005a8ebc      1f2e0008       move.b 0x8(a6), -(a7)
       0x005a8ec0      2f2efff4       move.l -0xc(a6), -(a7)
       0x005a8ec4      2f2efffc       move.l -0x4(a6), -(a7)
       0x005a8ec8      2f2efff8       move.l -0x8(a6), -(a7)
       0x005a8ecc      4eb900522722   jsr BRUSHCOM.str_any_str_cop
       0x005a8ed2      defc0012       adda.w 0x12, a7
       0x005a8ed6      426e000e       clr.w 0xe(a6)
       0x005a8eda      3d7c00800010   move.w 0x80, 0x10(a6)
       0x005a8ee0      422e000a       clr.b 0xa(a6)
   > 0x005a8ee4      4a05           tst.b d5
     < 0x005a8ee6      6768           beq.b 0x5a8f50
        0x005a8ee8      554f           subq.w 0x2, a7
        0x005a8eea      1f3c0014       move.b 0x14, -(a7)
        0x005a8eee      4eb900598cca   jsr K01_DEBUG.k01_debug
        0x005a8ef4      544f           addq.w 0x2, a7
        0x005a8ef6      4a1f           tst.b (a7)+
    < 0x005a8ef8      6712           beq.b 0x5a8f0c
       0x005a8efa      487ab256       pea.l 0x5a4152(pc)
       0x005a8efe      4878001e       pea.l 0x1e
       0x005a8f02      2f17           move.l (a7), -(a7)
       0x005a8f04      4e92           jsr (a2)                    ; fcn.00000009+0x2
       0x005a8f06      defc000c       adda.w 0xc, a7
       0x005a8f0a      4e93           jsr (a3)                    ; fcn.0000000c
    > 0x005a8f0c      3014           move.w (a4), d0
        0x005a8f0e      48c0           ext.l d0
        0x005a8f10      5080           addq.l 0x8, d0
        0x005a8f12      0480ffff8000   subi.l 0xffff8000, d0
        0x005a8f18      0c800000ffff   cmpi.l 0xffff, d0
    < 0x005a8f1e      6302           bls.b 0x5a8f22
       0x005a8f20      4e4f           trap 0xf
    > 0x005a8f22      0680ffff8000   addi.l 0xffff8000, d0
        0x005a8f28      3880           move.w d0, (a4)
        0x005a8f2a      486e000e       pea.l 0xe(a6)
        0x005a8f2e      1f2e0008       move.b 0x8(a6), -(a7)
        0x005a8f32      4887           ext.w d7
        0x005a8f34      4fbc0001       chk.w 0x1, d7
        0x005a8f38      1f07           move.b d7, -(a7)
        0x005a8f3a      2f2effdc       move.l -0x24(a6), -(a7)
        0x005a8f3e      2f2effe0       move.l -0x20(a6), -(a7)
        0x005a8f42      4ebaf6aa       jsr K05_LOADSAVE.prepare_save_vi(pc)
        0x005a8f46      defc0010       adda.w 0x10, a7
        0x005a8f4a      1d7c0003000a   move.b 0x3, 0xa(a6)
   > 0x005a8f50      554f           subq.w 0x2, a7
           0x005a8f52      1f3c0014       move.b 0x14, -(a7)
           0x005a8f56      4eb900598cca   jsr K01_DEBUG.k01_debug
           0x005a8f5c      544f           addq.w 0x2, a7
           0x005a8f5e      4a1f           tst.b (a7)+
       < 0x005a8f60      673e           beq.b 0x5a8fa0
          0x005a8f62      9efc0100       suba.w 0x100, a7
          0x005a8f66      2f14           move.l (a4), -(a7)
          0x005a8f68      2f2e000e       move.l 0xe(a6), -(a7)
          0x005a8f6c      48780000       pea.l 0x0
          0x005a8f70      4eb90044d9f2   jsr SYSTEM_STRING.area_str
          0x005a8f76      defc000c       adda.w 0xc, a7
          0x005a8f7a      487ab1f5       pea.l 0x5a4171(pc)
          0x005a8f7e      4878000a       pea.l 0xa
          0x005a8f82      2f17           move.l (a7), -(a7)
          0x005a8f84      4e92           jsr (a2)                    ; fcn.00000009+0x2
          0x005a8f86      defc000c       adda.w 0xc, a7
          0x005a8f8a      486f0001       pea.l 0x1(a7)
          0x005a8f8e      42a7           clr.l -(a7)
          0x005a8f90      1f6f00080003   move.b 0x8(a7), 0x3(a7)
          0x005a8f96      2f17           move.l (a7), -(a7)
          0x005a8f98      4e92           jsr (a2)                    ; fcn.00000009+0x2
          0x005a8f9a      defc010c       adda.w 0x10c, a7
          0x005a8f9e      4e93           jsr (a3)                    ; fcn.0000000c
       > 0x005a8fa0      554f           subq.w 0x2, a7
           0x005a8fa2      102eff86       move.b -0x7a(a6), d0
           0x005a8fa6      4880           ext.w d0
           0x005a8fa8      41bc0007       chk.w 0x7, d0
           0x005a8fac      1f00           move.b d0, -(a7)
           0x005a8fae      486eff7c       pea.l -0x84(a6)
           0x005a8fb2      2f14           move.l (a4), -(a7)
           0x005a8fb4      2f2e000e       move.l 0xe(a6), -(a7)
           0x005a8fb8      4887           ext.w d7
           0x005a8fba      4fbc0001       chk.w 0x1, d7
           0x005a8fbe      1f07           move.b d7, -(a7)
           0x005a8fc0      2f2effd8       move.l -0x28(a6), -(a7)
           0x005a8fc4      3f2effd6       move.w -0x2a(a6), -(a7)
           0x005a8fc8      1f2e000a       move.b 0xa(a6), -(a7)
           0x005a8fcc      1f2e0008       move.b 0x8(a6), -(a7)
           0x005a8fd0      4227           clr.b -(a7)
           0x005a8fd2      4eb9005ac02a   jsr K1_AFS_ONLY.k1_save
           0x005a8fd8      defc001c       adda.w 0x1c, a7
           0x005a8fdc      1d57ff87       move.b (a7), -0x79(a6)
           0x005a8fe0      1d6f0001ff88   move.b 0x1(a7), -0x78(a6)
           0x005a8fe6      9efc0100       suba.w 0x100, a7
           0x005a8fea      204f           movea.l a7, a0
           0x005a8fec      43fab18d       lea.l 0x5a417b(pc), a1
           0x005a8ff0      7007           moveq 0x7, d0
       > 0x005a8ff2      10d9           move.b (a1)+, (a0)+
       < 0x005a8ff4      51c8fffc       dbra d0, 0x5a8ff2
           0x005a8ff8      554f           subq.w 0x2, a7
           0x005a8ffa      1eaeff87       move.b -0x79(a6), (a7)
           0x005a8ffe      1f6eff880001   move.b -0x78(a6), 0x1(a7)
           0x005a9004      4ebab4f2       jsr K05_LOADSAVE.warn_if_fail(pc)
           0x005a9008      defc0102       adda.w 0x102, a7
           0x005a900c      4a1f           tst.b (a7)+
        > 0x005a900e      1d6eff87001a   move.b -0x79(a6), 0x1a(a6)
            0x005a9014      1d6eff88001b   move.b -0x78(a6), 0x1b(a6)
            0x005a901a      41f90083fe7c   lea.l 0x83fe7c, a0
            0x005a9020      43fab161       lea.l 0x5a4183(pc), a1
            0x005a9024      700c           moveq 0xc, d0
        > 0x005a9026      10d9           move.b (a1)+, (a0)+
        < 0x005a9028      51c8fffc       dbra d0, 0x5a9026
            0x005a902c      4cdf1fff       movem.l (a7)+, d0-d7/a0-a4
            0x005a9030      4e5e           unlk a6
            0x005a9032      4e75           rts
            ; CALL XREFS from K91_LIBOPS.fetch_pic_sten_ @ 0x64d8ee, 0x64d9be
            ; CALL XREF from K91_LIBOPS.k91_rework @ 0x64eb74
            ; CALL XREF from K91_LIBOPS @ +0x2494
 30: K05_LOADSAVE.k05_set_resolut ();
           0x005a9034      4e56fffc       link.w a6, 0xfffc
           0x005a9038      bfd5           cmpa.l (a5), a7
       < 0x005a903a      6206           bhi.b 0x5a9042
          0x005a903c      44fc0002       move.w 0x2, ccr
          0x005a9040      4e76           trapv
       > 0x005a9042      defc0004       adda.w 0x4, a7
           0x005a9046      13ee00080083.  move.b 0x8(a6), 0x83ff7c.l
           0x005a904e      4e5e           unlk a6
           0x005a9050      4e75           rts
            ; CALL XREF from K91_LIBOPS.fetch_pic_sten_ @ 0x64d9cc
            ; CALL XREF from K91_LIBOPS.k91_set_in_grid @ 0x650b24
 1062: K05_LOADSAVE.k_pos_in_grid (int32_t arg_ah);
           ; arg int32_t arg_ah @ a6+0xa
           0x005a9052      4e56ff94       link.w a6, 0xff94
           0x005a9056      bfd5           cmpa.l (a5), a7
       < 0x005a9058      6206           bhi.b 0x5a9060
          0x005a905a      44fc0002       move.w 0x2, ccr
          0x005a905e      4e76           trapv
       > 0x005a9060      defc0052       adda.w 0x52, a7
           0x005a9064      48e7fff8       movem.l d0-d7/a0-a4, -(a7)
           0x005a9068      41eeffe6       lea.l -0x1a(a6), a0
           0x005a906c      43eeffea       lea.l -0x16(a6), a1
           0x005a9070      45f90083ff7d   lea.l 0x83ff7d, a2
           0x005a9076      47eefff2       lea.l -0xe(a6), a3
           0x005a907a      49eeffee       lea.l -0x12(a6), a4
           0x005a907e      2a3cffff8000   move.l 0xffff8000, d5
           0x005a9084      2c3c0000ffff   move.l 0xffff, d6
           0x005a908a      1f3c0005       move.b 0x5, -(a7)
           0x005a908e      4eb900522436   jsr BRUSHCOM.set_write_en
           0x005a9094      5d4f           subq.w 0x6, a7
           0x005a9096      4eb90050050a   jsr MENUGRIDCOM.crnt_grid_area
           0x005a909c      209f           move.l (a7)+, (a0)
           0x005a909e      229f           move.l (a7)+, (a1)
           0x005a90a0      302effe8       move.w -0x18(a6), d0
           0x005a90a4      48c0           ext.l d0
           0x005a90a6      068000000080   addi.l 0x80, d0
           0x005a90ac      9085           sub.l d5, d0
           0x005a90ae      b086           cmp.l d6, d0
       < 0x005a90b0      6302           bls.b 0x5a90b4
          0x005a90b2      4e4f           trap 0xf
       > 0x005a90b4      d085           add.l d5, d0
           0x005a90b6      3d40ffe8       move.w d0, -0x18(a6)
           0x005a90ba      3d790083ff7e.  move.w 0x83ff7e, -0x6(a6)
           0x005a90c2      3d790083ff80.  move.w 0x83ff80, -0x4(a6)
           0x005a90ca      1012           move.b (a2), d0
           0x005a90cc      0c000001       cmpi.b 0x1, d0
       < 0x005a90d0      660a           bne.b 0x5a90dc
          0x005a90d2      2f3aa18a       move.l 0x5a325e(pc), -(a7)
          0x005a90d6      3f3aa184       move.w 0x5a325c(pc), -(a7)
      < 0x005a90da      6008           bra.b 0x5a90e4
      > 0x005a90dc      2f3aa198       move.l 0x5a3276(pc), -(a7)
          0x005a90e0      3f3aa192       move.w 0x5a3274(pc), -(a7)
      > 0x005a90e4      4eb900520fa4   jsr BRUSHCOM.set_br_colour
           0x005a90ea      5c4f           addq.w 0x6, a7
           0x005a90ec      4a6e0008       tst.w 0x8(a6)
       < 0x005a90f0      6c0000e8       bge.w 0x5a91da
          0x005a90f4      302e0008       move.w 0x8(a6), d0
          0x005a90f8      48c0           ext.l d0
          0x005a90fa      81fc0008       divs.w 0x8, d0
          0x005a90fe      3e00           move.w d0, d7
          0x005a9100      48c7           ext.l d7
          0x005a9102      2007           move.l d7, d0
          0x005a9104      e780           asl.l 0x3, d0
          0x005a9106      322efffa       move.w -0x6(a6), d1
          0x005a910a      48c1           ext.l d1
          0x005a910c      9280           sub.l d0, d1
          0x005a910e      9285           sub.l d5, d1
          0x005a9110      b286           cmp.l d6, d1
      < 0x005a9112      6302           bls.b 0x5a9116
         0x005a9114      4e4f           trap 0xf
      > 0x005a9116      d285           add.l d5, d1
          0x005a9118      3d41fffa       move.w d1, -0x6(a6)
          0x005a911c      7808           moveq 0x8, d4
          0x005a911e      2607           move.l d7, d3
          0x005a9120      4eb900406a74   jsr fcn.00406a74
          0x005a9126      322e0008       move.w 0x8(a6), d1
          0x005a912a      48c1           ext.l d1
          0x005a912c      4484           neg.l d4
          0x005a912e      d881           add.l d1, d4
          0x005a9130      9885           sub.l d5, d4
          0x005a9132      b886           cmp.l d6, d4
      < 0x005a9134      6302           bls.b 0x5a9138
         0x005a9136      4e4f           trap 0xf
      > 0x005a9138      d885           add.l d5, d4
          0x005a913a      3d440008       move.w d4, 0x8(a6)
          0x005a913e      3210           move.w (a0), d1
          0x005a9140      48c1           ext.l d1
          0x005a9142      48c4           ext.l d4
          0x005a9144      d284           add.l d4, d1
          0x005a9146      9285           sub.l d5, d1
          0x005a9148      b286           cmp.l d6, d1
      < 0x005a914a      6302           bls.b 0x5a914e
         0x005a914c      4e4f           trap 0xf
      > 0x005a914e      d285           add.l d5, d1
          0x005a9150      3081           move.w d1, (a0)
          0x005a9152      3211           move.w (a1), d1
          0x005a9154      48c1           ext.l d1
          0x005a9156      4484           neg.l d4
          0x005a9158      d881           add.l d1, d4
          0x005a915a      9885           sub.l d5, d4
          0x005a915c      b886           cmp.l d6, d4
      < 0x005a915e      6302           bls.b 0x5a9162
         0x005a9160      4e4f           trap 0xf
      > 0x005a9162      d885           add.l d5, d4
          0x005a9164      3284           move.w d4, (a1)
          0x005a9166      32390083ff82   move.w 0x83ff82, d1
          0x005a916c      48c1           ext.l d1
          0x005a916e      2401           move.l d1, d2
          0x005a9170      d480           add.l d0, d2
          0x005a9172      48c4           ext.l d4
          0x005a9174      b484           cmp.l d4, d2
      < 0x005a9176      6c000114       bge.w 0x5a928c
         0x005a917a      2890           move.l (a0), (a4)
         0x005a917c      2691           move.l (a1), (a3)
         0x005a917e      3410           move.w (a0), d2
         0x005a9180      48c2           ext.l d2
         0x005a9182      d481           add.l d1, d2
         0x005a9184      d480           add.l d0, d2
         0x005a9186      9485           sub.l d5, d2
         0x005a9188      b486           cmp.l d6, d2
     < 0x005a918a      6302           bls.b 0x5a918e
        0x005a918c      4e4f           trap 0xf
     > 0x005a918e      d485           add.l d5, d2
         0x005a9190      3882           move.w d2, (a4)
         0x005a9192      2404           move.l d4, d2
         0x005a9194      9481           sub.l d1, d2
         0x005a9196      9480           sub.l d0, d2
         0x005a9198      9485           sub.l d5, d2
         0x005a919a      b486           cmp.l d6, d2
     < 0x005a919c      6302           bls.b 0x5a91a0
        0x005a919e      4e4f           trap 0xf
     > 0x005a91a0      d485           add.l d5, d2
         0x005a91a2      3682           move.w d2, (a3)
         0x005a91a4      1f3c0003       move.b 0x3, -(a7)
         0x005a91a8      1412           move.b (a2), d2
         0x005a91aa      4882           ext.w d2
         0x005a91ac      45bc0004       chk.w 0x4, d2
         0x005a91b0      1f02           move.b d2, -(a7)
         0x005a91b2      2f13           move.l (a3), -(a7)
         0x005a91b4      2f14           move.l (a4), -(a7)
         0x005a91b6      4eb9005213b4   jsr BRUSHCOM.br_wipe
         0x005a91bc      defc000c       adda.w 0xc, a7
         0x005a91c0      34390083ff82   move.w 0x83ff82, d2
         0x005a91c6      48c2           ext.l d2
         0x005a91c8      d480           add.l d0, d2
         0x005a91ca      9485           sub.l d5, d2
         0x005a91cc      b486           cmp.l d6, d2
     < 0x005a91ce      6302           bls.b 0x5a91d2
        0x005a91d0      4e4f           trap 0xf
     > 0x005a91d2      d485           add.l d5, d2
         0x005a91d4      3282           move.w d2, (a1)
     < 0x005a91d6      600000b4       bra.w 0x5a928c
     > 0x005a91da      4a6e0008       tst.w 0x8(a6)
     < 0x005a91de      6f0000ac       ble.w 0x5a928c
        0x005a91e2      2890           move.l (a0), (a4)
        0x005a91e4      2691           move.l (a1), (a3)
        0x005a91e6      36ae0008       move.w 0x8(a6), (a3)
        0x005a91ea      1f3c0003       move.b 0x3, -(a7)
        0x005a91ee      1012           move.b (a2), d0
        0x005a91f0      4880           ext.w d0
        0x005a91f2      41bc0004       chk.w 0x4, d0
        0x005a91f6      1f00           move.b d0, -(a7)
        0x005a91f8      2f13           move.l (a3), -(a7)
        0x005a91fa      2f14           move.l (a4), -(a7)
        0x005a91fc      4eb9005213b4   jsr BRUSHCOM.br_wipe
        0x005a9202      defc000c       adda.w 0xc, a7
        0x005a9206      3010           move.w (a0), d0
        0x005a9208      48c0           ext.l d0
        0x005a920a      322e0008       move.w 0x8(a6), d1
        0x005a920e      48c1           ext.l d1
        0x005a9210      d081           add.l d1, d0
        0x005a9212      9085           sub.l d5, d0
        0x005a9214      b086           cmp.l d6, d0
    < 0x005a9216      6302           bls.b 0x5a921a
       0x005a9218      4e4f           trap 0xf
    > 0x005a921a      d085           add.l d5, d0
        0x005a921c      3080           move.w d0, (a0)
        0x005a921e      3011           move.w (a1), d0
        0x005a9220      48c0           ext.l d0
        0x005a9222      4481           neg.l d1
        0x005a9224      d280           add.l d0, d1
        0x005a9226      9285           sub.l d5, d1
        0x005a9228      b286           cmp.l d6, d1
    < 0x005a922a      6302           bls.b 0x5a922e
       0x005a922c      4e4f           trap 0xf
    > 0x005a922e      d285           add.l d5, d1
        0x005a9230      3281           move.w d1, (a1)
        0x005a9232      b2790083ff82   cmp.w 0x83ff82, d1
    < 0x005a9238      6f52           ble.b 0x5a928c
       0x005a923a      2890           move.l (a0), (a4)
       0x005a923c      2691           move.l (a1), (a3)
       0x005a923e      3010           move.w (a0), d0
       0x005a9240      48c0           ext.l d0
       0x005a9242      34390083ff82   move.w 0x83ff82, d2
       0x005a9248      48c2           ext.l d2
       0x005a924a      d082           add.l d2, d0
       0x005a924c      9085           sub.l d5, d0
       0x005a924e      b086           cmp.l d6, d0
   < 0x005a9250      6302           bls.b 0x5a9254
      0x005a9252      4e4f           trap 0xf
   > 0x005a9254      d085           add.l d5, d0
       0x005a9256      3880           move.w d0, (a4)
       0x005a9258      48c1           ext.l d1
       0x005a925a      4482           neg.l d2
       0x005a925c      d481           add.l d1, d2
       0x005a925e      9485           sub.l d5, d2
       0x005a9260      b486           cmp.l d6, d2
   < 0x005a9262      6302           bls.b 0x5a9266
      0x005a9264      4e4f           trap 0xf
   > 0x005a9266      d485           add.l d5, d2
       0x005a9268      3682           move.w d2, (a3)
       0x005a926a      1f3c0003       move.b 0x3, -(a7)
       0x005a926e      1012           move.b (a2), d0
       0x005a9270      4880           ext.w d0
       0x005a9272      41bc0004       chk.w 0x4, d0
       0x005a9276      1f00           move.b d0, -(a7)
       0x005a9278      2f13           move.l (a3), -(a7)
       0x005a927a      2f14           move.l (a4), -(a7)
       0x005a927c      4eb9005213b4   jsr BRUSHCOM.br_wipe
       0x005a9282      defc000c       adda.w 0xc, a7
       0x005a9286      32b90083ff82   move.w 0x83ff82, (a1)
    > 0x005a928c      4a6e000a       tst.w 0xa(a6)
       < 0x005a9290      6c00009e       bge.w 0x5a9330
          0x005a9294      302efffc       move.w -0x4(a6), d0
          0x005a9298      48c0           ext.l d0
          0x005a929a      322e000a       move.w 0xa(a6), d1
          0x005a929e      48c1           ext.l d1
          0x005a92a0      9081           sub.l d1, d0
          0x005a92a2      9085           sub.l d5, d0
          0x005a92a4      b086           cmp.l d6, d0
      < 0x005a92a6      6302           bls.b 0x5a92aa
         0x005a92a8      4e4f           trap 0xf
      > 0x005a92aa      d085           add.l d5, d0
          0x005a92ac      3d40fffc       move.w d0, -0x4(a6)
          0x005a92b0      30390083ff84   move.w 0x83ff84, d0
          0x005a92b6      48c0           ext.l d0
          0x005a92b8      2400           move.l d0, d2
          0x005a92ba      d481           add.l d1, d2
          0x005a92bc      362effec       move.w -0x14(a6), d3
          0x005a92c0      48c3           ext.l d3
          0x005a92c2      b483           cmp.l d3, d2
      < 0x005a92c4      6c00012e       bge.w 0x5a93f4
         0x005a92c8      2890           move.l (a0), (a4)
         0x005a92ca      2691           move.l (a1), (a3)
         0x005a92cc      342effe8       move.w -0x18(a6), d2
         0x005a92d0      48c2           ext.l d2
         0x005a92d2      d480           add.l d0, d2
         0x005a92d4      d481           add.l d1, d2
         0x005a92d6      9485           sub.l d5, d2
         0x005a92d8      b486           cmp.l d6, d2
     < 0x005a92da      6302           bls.b 0x5a92de
        0x005a92dc      4e4f           trap 0xf
     > 0x005a92de      d485           add.l d5, d2
         0x005a92e0      3d42fff0       move.w d2, -0x10(a6)
         0x005a92e4      2403           move.l d3, d2
         0x005a92e6      9480           sub.l d0, d2
         0x005a92e8      9481           sub.l d1, d2
         0x005a92ea      9485           sub.l d5, d2
         0x005a92ec      b486           cmp.l d6, d2
     < 0x005a92ee      6302           bls.b 0x5a92f2
        0x005a92f0      4e4f           trap 0xf
     > 0x005a92f2      d485           add.l d5, d2
         0x005a92f4      3d42fff4       move.w d2, -0xc(a6)
         0x005a92f8      1f3c0003       move.b 0x3, -(a7)
         0x005a92fc      1412           move.b (a2), d2
         0x005a92fe      4882           ext.w d2
         0x005a9300      45bc0004       chk.w 0x4, d2
         0x005a9304      1f02           move.b d2, -(a7)
         0x005a9306      2f13           move.l (a3), -(a7)
         0x005a9308      2f14           move.l (a4), -(a7)
         0x005a930a      4eb9005213b4   jsr BRUSHCOM.br_wipe
         0x005a9310      defc000c       adda.w 0xc, a7
         0x005a9314      34390083ff84   move.w 0x83ff84, d2
         0x005a931a      48c2           ext.l d2
         0x005a931c      d481           add.l d1, d2
         0x005a931e      9485           sub.l d5, d2
         0x005a9320      b486           cmp.l d6, d2
     < 0x005a9322      6302           bls.b 0x5a9326
        0x005a9324      4e4f           trap 0xf
     > 0x005a9326      d485           add.l d5, d2
         0x005a9328      3d42ffec       move.w d2, -0x14(a6)
     < 0x005a932c      600000c6       bra.w 0x5a93f4
     > 0x005a9330      4a6e000a       tst.w 0xa(a6)
     < 0x005a9334      6f0000be       ble.w 0x5a93f4
        0x005a9338      2890           move.l (a0), (a4)
        0x005a933a      2691           move.l (a1), (a3)
        0x005a933c      3d6e000afff4   move.w 0xa(a6), -0xc(a6)
        0x005a9342      1f3c0003       move.b 0x3, -(a7)
        0x005a9346      1012           move.b (a2), d0
        0x005a9348      4880           ext.w d0
        0x005a934a      41bc0004       chk.w 0x4, d0
        0x005a934e      1f00           move.b d0, -(a7)
        0x005a9350      2f13           move.l (a3), -(a7)
        0x005a9352      2f14           move.l (a4), -(a7)
        0x005a9354      4eb9005213b4   jsr BRUSHCOM.br_wipe
        0x005a935a      defc000c       adda.w 0xc, a7
        0x005a935e      302effe8       move.w -0x18(a6), d0
        0x005a9362      48c0           ext.l d0
        0x005a9364      322e000a       move.w 0xa(a6), d1
        0x005a9368      48c1           ext.l d1
        0x005a936a      d081           add.l d1, d0
        0x005a936c      9085           sub.l d5, d0
        0x005a936e      b086           cmp.l d6, d0
    < 0x005a9370      6302           bls.b 0x5a9374
       0x005a9372      4e4f           trap 0xf
    > 0x005a9374      d085           add.l d5, d0
        0x005a9376      3d40ffe8       move.w d0, -0x18(a6)
        0x005a937a      302effec       move.w -0x14(a6), d0
        0x005a937e      48c0           ext.l d0
        0x005a9380      4481           neg.l d1
        0x005a9382      d280           add.l d0, d1
        0x005a9384      9285           sub.l d5, d1
        0x005a9386      b286           cmp.l d6, d1
    < 0x005a9388      6302           bls.b 0x5a938c
       0x005a938a      4e4f           trap 0xf
    > 0x005a938c      d285           add.l d5, d1
        0x005a938e      3d41ffec       move.w d1, -0x14(a6)
        0x005a9392      b2790083ff84   cmp.w 0x83ff84, d1
    < 0x005a9398      6f5a           ble.b 0x5a93f4
       0x005a939a      2890           move.l (a0), (a4)
       0x005a939c      2691           move.l (a1), (a3)
       0x005a939e      302effe8       move.w -0x18(a6), d0
       0x005a93a2      48c0           ext.l d0
       0x005a93a4      34390083ff84   move.w 0x83ff84, d2
       0x005a93aa      48c2           ext.l d2
       0x005a93ac      d082           add.l d2, d0
       0x005a93ae      9085           sub.l d5, d0
       0x005a93b0      b086           cmp.l d6, d0
   < 0x005a93b2      6302           bls.b 0x5a93b6
      0x005a93b4      4e4f           trap 0xf
   > 0x005a93b6      d085           add.l d5, d0
       0x005a93b8      3d40fff0       move.w d0, -0x10(a6)
       0x005a93bc      48c1           ext.l d1
       0x005a93be      4482           neg.l d2
       0x005a93c0      d481           add.l d1, d2
       0x005a93c2      9485           sub.l d5, d2
       0x005a93c4      b486           cmp.l d6, d2
   < 0x005a93c6      6302           bls.b 0x5a93ca
      0x005a93c8      4e4f           trap 0xf
   > 0x005a93ca      d485           add.l d5, d2
       0x005a93cc      3d42fff4       move.w d2, -0xc(a6)
       0x005a93d0      1f3c0003       move.b 0x3, -(a7)
       0x005a93d4      1012           move.b (a2), d0
       0x005a93d6      4880           ext.w d0
       0x005a93d8      41bc0004       chk.w 0x4, d0
       0x005a93dc      1f00           move.b d0, -(a7)
       0x005a93de      2f13           move.l (a3), -(a7)
       0x005a93e0      2f14           move.l (a4), -(a7)
       0x005a93e2      4eb9005213b4   jsr BRUSHCOM.br_wipe
       0x005a93e8      defc000c       adda.w 0xc, a7
       0x005a93ec      3d790083ff84.  move.w 0x83ff84, -0x14(a6)
    > 0x005a93f4      4a51           tst.w (a1)
       < 0x005a93f6      6f78           ble.b 0x5a9470
          0x005a93f8      4a6effec       tst.w -0x14(a6)
      < 0x005a93fc      6f72           ble.b 0x5a9470
         0x005a93fe      4227           clr.b -(a7)
         0x005a9400      1f3c0003       move.b 0x3, -(a7)
         0x005a9404      1012           move.b (a2), d0
         0x005a9406      4880           ext.w d0
         0x005a9408      41bc0004       chk.w 0x4, d0
         0x005a940c      1f00           move.b d0, -(a7)
         0x005a940e      2f2efffa       move.l -0x6(a6), -(a7)
         0x005a9412      2f11           move.l (a1), -(a7)
         0x005a9414      2f10           move.l (a0), -(a7)
         0x005a9416      4eb900522722   jsr BRUSHCOM.str_any_str_cop
         0x005a941c      defc000a       adda.w 0xa, a7
         0x005a9420      4eb90050050a   jsr MENUGRIDCOM.crnt_grid_area
         0x005a9426      209f           move.l (a7)+, (a0)
         0x005a9428      229f           move.l (a7)+, (a1)
         0x005a942a      302effe8       move.w -0x18(a6), d0
         0x005a942e      48c0           ext.l d0
         0x005a9430      068000000080   addi.l 0x80, d0
         0x005a9436      9085           sub.l d5, d0
         0x005a9438      b086           cmp.l d6, d0
     < 0x005a943a      6302           bls.b 0x5a943e
        0x005a943c      4e4f           trap 0xf
     > 0x005a943e      d085           add.l d5, d0
         0x005a9440      3d40ffe8       move.w d0, -0x18(a6)
         0x005a9444      3d50fffa       move.w (a0), -0x6(a6)
         0x005a9448      3d40fffc       move.w d0, -0x4(a6)
         0x005a944c      1f3c0003       move.b 0x3, -(a7)
         0x005a9450      1f3c0002       move.b 0x2, -(a7)
         0x005a9454      1012           move.b (a2), d0
         0x005a9456      4880           ext.w d0
         0x005a9458      41bc0004       chk.w 0x4, d0
         0x005a945c      1f00           move.b d0, -(a7)
         0x005a945e      2f2efffa       move.l -0x6(a6), -(a7)
         0x005a9462      2f11           move.l (a1), -(a7)
         0x005a9464      2f10           move.l (a0), -(a7)
         0x005a9466      4eb900522722   jsr BRUSHCOM.str_any_str_cop
         0x005a946c      defc0012       adda.w 0x12, a7
      > 0x005a9470      4cdf1fff       movem.l (a7)+, d0-d7/a0-a4
           0x005a9474      4e5e           unlk a6
           0x005a9476      4e75           rts
            ; CALL XREF from K96_LIB2OPS.k96_crop_on_sav @ 0x667d5a
 292: K05_LOADSAVE.k05_crop_save ();
           0x005a9478      4e56fe80       link.w a6, 0xfe80
           0x005a947c      bfd5           cmpa.l (a5), a7
       < 0x005a947e      6206           bhi.b 0x5a9486
          0x005a9480      44fc0002       move.w 0x2, ccr
          0x005a9484      4e76           trapv
       > 0x005a9486      defc0120       adda.w 0x120, a7
           0x005a948a      48e780f8       movem.l d0/a0-a4, -(a7)
           0x005a948e      45eeffab       lea.l -0x55(a6), a2
           0x005a9492      47eeffac       lea.l -0x54(a6), a3
           0x005a9496      49eeffae       lea.l -0x52(a6), a4
           0x005a949a      14baacf5       move.b 0x5a4191(pc), (a2)
           0x005a949e      16baacf2       move.b 0x5a4192(pc), (a3)
           0x005a94a2      554f           subq.w 0x2, a7
           0x005a94a4      4854           pea.l (a4)
           0x005a94a6      4eb900404434   jsr fcn.00404434
           0x005a94ac      584f           addq.w 0x4, a7
           0x005a94ae      4a1f           tst.b (a7)+
       < 0x005a94b0      670000da       beq.w 0x5a958c
          0x005a94b4      9efc000a       suba.w 0xa, a7
          0x005a94b8      206e0014       movea.l 0x14(a6), a0
          0x005a94bc      4850           pea.l (a0)
          0x005a94be      4852           pea.l (a2)
          0x005a94c0      486effaa       pea.l -0x56(a6)
          0x005a94c4      4ebab1a0       jsr K05_LOADSAVE.gen_fid(pc)
          0x005a94c8      defc000c       adda.w 0xc, a7
          0x005a94cc      2d5fffa0       move.l (a7)+, -0x60(a6)
          0x005a94d0      2d5fffa4       move.l (a7)+, -0x5c(a6)
          0x005a94d4      3d57ffa8       move.w (a7), -0x58(a6)
          0x005a94d8      9efc0100       suba.w 0x100, a7
          0x005a94dc      204f           movea.l a7, a0
          0x005a94de      43faacb3       lea.l 0x5a4193(pc), a1
          0x005a94e2      700c           moveq 0xc, d0
      > 0x005a94e4      10d9           move.b (a1)+, (a0)+
      < 0x005a94e6      51c8fffc       dbra d0, 0x5a94e4
          0x005a94ea      554f           subq.w 0x2, a7
          0x005a94ec      1e92           move.b (a2), (a7)
          0x005a94ee      1f530001       move.b (a3), 0x1(a7)
          0x005a94f2      4ebab004       jsr K05_LOADSAVE.warn_if_fail(pc)
          0x005a94f6      defc0102       adda.w 0x102, a7
          0x005a94fa      4a1f           tst.b (a7)+
      < 0x005a94fc      670a           beq.b 0x5a9508
         0x005a94fe      4854           pea.l (a4)
         0x005a9500      4eb900404468   jsr fcn.00404468
         0x005a9506      584f           addq.w 0x4, a7
      > 0x005a9508      422efffa       clr.b -0x6(a6)
          0x005a950c      422efff8       clr.b -0x8(a6)
          0x005a9510      554f           subq.w 0x2, a7
          0x005a9512      102effaa       move.b -0x56(a6), d0
          0x005a9516      4880           ext.w d0
          0x005a9518      41bc0007       chk.w 0x7, d0
          0x005a951c      1f00           move.b d0, -(a7)
          0x005a951e      486effa0       pea.l -0x60(a6)
          0x005a9522      2f2e0010       move.l 0x10(a6), -(a7)
          0x005a9526      2f2e000c       move.l 0xc(a6), -(a7)
          0x005a952a      102efff8       move.b -0x8(a6), d0
          0x005a952e      4880           ext.w d0
          0x005a9530      41bc0001       chk.w 0x1, d0
          0x005a9534      1f00           move.b d0, -(a7)
          0x005a9536      2f2efffc       move.l -0x4(a6), -(a7)
          0x005a953a      3f2efffa       move.w -0x6(a6), -(a7)
          0x005a953e      1f2e000a       move.b 0xa(a6), -(a7)
          0x005a9542      1f2e0008       move.b 0x8(a6), -(a7)
          0x005a9546      4227           clr.b -(a7)
          0x005a9548      4eb9005ac02a   jsr K1_AFS_ONLY.k1_save
          0x005a954e      defc001c       adda.w 0x1c, a7
          0x005a9552      1497           move.b (a7), (a2)
          0x005a9554      16af0001       move.b 0x1(a7), (a3)
          0x005a9558      9efc0100       suba.w 0x100, a7
          0x005a955c      204f           movea.l a7, a0
          0x005a955e      43faac40       lea.l 0x5a41a0(pc), a1
          0x005a9562      7004           moveq 0x4, d0
      > 0x005a9564      20d9           move.l (a1)+, (a0)+
      < 0x005a9566      51c8fffc       dbra d0, 0x5a9564
          0x005a956a      30d9           move.w (a1)+, (a0)+
          0x005a956c      10d9           move.b (a1)+, (a0)+
          0x005a956e      554f           subq.w 0x2, a7
          0x005a9570      1e92           move.b (a2), (a7)
          0x005a9572      1f530001       move.b (a3), 0x1(a7)
          0x005a9576      4ebaaf80       jsr K05_LOADSAVE.warn_if_fail(pc)
          0x005a957a      defc0102       adda.w 0x102, a7
          0x005a957e      4a1f           tst.b (a7)+
      < 0x005a9580      670a           beq.b 0x5a958c
         0x005a9582      4854           pea.l (a4)
         0x005a9584      4eb900404468   jsr fcn.00404468
         0x005a958a      584f           addq.w 0x4, a7
      > 0x005a958c      1d520018       move.b (a2), 0x18(a6)
           0x005a9590      1d530019       move.b (a3), 0x19(a6)
           0x005a9594      4cdf1f01       movem.l (a7)+, d0/a0-a4
           0x005a9598      4e5e           unlk a6
           0x005a959a      4e75           rts
            ; CALL XREFS from fcn.005aa600 @ 0x5aa996, 0x5aacf4
 288: K05_LOADSAVE.fix_diskstore_c ();
           ; var int32_t var_8h @ a7+0x8
           0x005a959c      4e56fed4       link.w a6, 0xfed4
           0x005a95a0      bfd5           cmpa.l (a5), a7
       < 0x005a95a2      6206           bhi.b 0x5a95aa
          0x005a95a4      44fc0002       move.w 0x2, ccr
          0x005a95a8      4e76           trapv
       > 0x005a95aa      defc0124       adda.w 0x124, a7
           0x005a95ae      48e7d880       movem.l d0-d1/d3-d4/a0, -(a7)
           0x005a95b2      41ee0008       lea.l 0x8(a6), a0
           0x005a95b6      223cffff8000   move.l 0xffff8000, d1
           0x005a95bc      3010           move.w (a0), d0
           0x005a95be      02400007       andi.w 0x7, d0
       < 0x005a95c2      660c           bne.b 0x5a95d0
          0x005a95c4      302e000a       move.w 0xa(a6), d0
          0x005a95c8      02400003       andi.w 0x3, d0
      < 0x005a95cc      670000e6       beq.w 0x5a96b4
      > 0x005a95d0      282e000c       move.l 0xc(a6), d4
          0x005a95d4      263c00010000   move.l 0x10000, d3
          0x005a95da      4eb900406b50   jsr fcn.00406b50
          0x005a95e0      3d44fff8       move.w d4, -0x8(a6)
          0x005a95e4      282e0010       move.l 0x10(a6), d4
          0x005a95e8      263c00010000   move.l 0x10000, d3
          0x005a95ee      4eb900406b50   jsr fcn.00406b50
          0x005a95f4      3d44fffa       move.w d4, -0x6(a6)
          0x005a95f8      3010           move.w (a0), d0
          0x005a95fa      48c0           ext.l d0
          0x005a95fc      5e80           addq.l 0x7, d0
          0x005a95fe      02800000fff8   andi.l 0xfff8, d0
          0x005a9604      9081           sub.l d1, d0
          0x005a9606      0c800000ffff   cmpi.l 0xffff, d0
      < 0x005a960c      6302           bls.b 0x5a9610
         0x005a960e      4e4f           trap 0xf
      > 0x005a9610      d081           add.l d1, d0
          0x005a9612      3d40fffc       move.w d0, -0x4(a6)
          0x005a9616      302e000a       move.w 0xa(a6), d0
          0x005a961a      48c0           ext.l d0
          0x005a961c      5680           addq.l 0x3, d0
          0x005a961e      02800000fffc   andi.l 0xfffc, d0
          0x005a9624      9081           sub.l d1, d0
          0x005a9626      0c800000ffff   cmpi.l 0xffff, d0
      < 0x005a962c      6302           bls.b 0x5a9630
         0x005a962e      4e4f           trap 0xf
      > 0x005a9630      d081           add.l d1, d0
          0x005a9632      3d40fffe       move.w d0, -0x2(a6)
          0x005a9636      3f3a9c1e       move.w 0x5a3256(pc), -(a7)
          0x005a963a      2f3a9c3a       move.l 0x5a3276(pc), -(a7)
          0x005a963e      3f3a9c34       move.w 0x5a3274(pc), -(a7)
          0x005a9642      4eb900520fe8   jsr BRUSHCOM.set_br_key_colo
          0x005a9648      5c4f           addq.w 0x6, a7
          0x005a964a      4217           clr.b (a7)
          0x005a964c      1f3c0004       move.b 0x4, -(a7)
          0x005a9650      2f2efffc       move.l -0x4(a6), -(a7)
          0x005a9654      2f2efff8       move.l -0x8(a6), -(a7)
          0x005a9658      4eb9005213b4   jsr BRUSHCOM.br_wipe
          0x005a965e      504f           addq.w 0x8, a7
          0x005a9660      1ebc001f       move.b 0x1f, (a7)
          0x005a9664      4eb900598cca   jsr K01_DEBUG.k01_debug
          0x005a966a      544f           addq.w 0x2, a7
          0x005a966c      4a1f           tst.b (a7)+
      < 0x005a966e      6744           beq.b 0x5a96b4
         0x005a9670      9efc0100       suba.w 0x100, a7
         0x005a9674      2f10           move.l (a0), -(a7)
         0x005a9676      48780004       pea.l 0x4
         0x005a967a      4eb90044dd86   jsr SYSTEM_STRING.point_str
         0x005a9680      504f           addq.w 0x8, a7
         0x005a9682      487aab34       pea.l 0x5a41b8(pc)
         0x005a9686      48780014       pea.l 0x14
         0x005a968a      2f17           move.l (a7), -(a7)
         0x005a968c      4eb9004047ea   jsr p_wts_o
         0x005a9692      defc000c       adda.w 0xc, a7
         0x005a9696      486f0001       pea.l 0x1(a7)
         0x005a969a      42a7           clr.l -(a7)
         0x005a969c      1f6f00080003   move.b 0x8(a7), 0x3(a7)
         0x005a96a2      2f17           move.l (a7), -(a7)
         0x005a96a4      4eb9004047ea   jsr p_wts_o
         0x005a96aa      defc010c       adda.w 0x10c, a7
         0x005a96ae      4eb900404946   jsr p_wtln_o
      > 0x005a96b4      4cdf011b       movem.l (a7)+, d0-d1/d3-d4/a0
           0x005a96b8      4e5e           unlk a6
           0x005a96ba      4e75           rts
 134: K05_LOADSAVE.get_sq_size ();
           0x005a96bc      4e56ffd6       link.w a6, 0xffd6
           0x005a96c0      bfd5           cmpa.l (a5), a7
       < 0x005a96c2      6206           bhi.b 0x5a96ca
          0x005a96c4      44fc0002       move.w 0x2, ccr
          0x005a96c8      4e76           trapv
       > 0x005a96ca      defc002a       adda.w 0x2a, a7
           0x005a96ce      48e798c0       movem.l d0/d3-d4/a0-a1, -(a7)
           0x005a96d2      206e000c       movea.l 0xc(a6), a0
           0x005a96d6      226e0008       movea.l 0x8(a6), a1
           0x005a96da      1f2e0010       move.b 0x10(a6), -(a7)
           0x005a96de      4850           pea.l (a0)
           0x005a96e0      4851           pea.l (a1)
           0x005a96e2      4eb900633c6e   jsr HANDCOM.get_std_size
           0x005a96e8      defc000a       adda.w 0xa, a7
           0x005a96ec      10baaade       move.b 0x5a41cc(pc), (a0)
           0x005a96f0      117aaadb0001   move.b 0x5a41cd(pc), 0x1(a0)
           0x005a96f6      117aaad60002   move.b 0x5a41ce(pc), 0x2(a0)
           0x005a96fc      117aaad10003   move.b 0x5a41cf(pc), 0x3(a0)
           0x005a9702      4a2e0010       tst.b 0x10(a6)
       < 0x005a9706      6706           beq.b 0x5a970e
          0x005a9708      32bc01e6       move.w 0x1e6, (a1)
      < 0x005a970c      6004           bra.b 0x5a9712
      > 0x005a970e      32bc0240       move.w 0x240, (a1)
      > 0x005a9712      3011           move.w (a1), d0
           0x005a9714      48c0           ext.l d0
           0x005a9716      e580           asl.l 0x2, d0
           0x005a9718      2800           move.l d0, d4
           0x005a971a      7603           moveq 0x3, d3
           0x005a971c      4eb900406b50   jsr fcn.00406b50
           0x005a9722      0484ffff8000   subi.l 0xffff8000, d4
           0x005a9728      0c840000ffff   cmpi.l 0xffff, d4
       < 0x005a972e      6302           bls.b 0x5a9732
          0x005a9730      4e4f           trap 0xf
       > 0x005a9732      0684ffff8000   addi.l 0xffff8000, d4
           0x005a9738      3284           move.w d4, (a1)
           0x005a973a      4cdf0319       movem.l (a7)+, d0/d3-d4/a0-a1
           0x005a973e      4e5e           unlk a6
           0x005a9740      4e75           rts
 58: K05_LOADSAVE.same_point ();
           0x005a9742      4e56fff8       link.w a6, 0xfff8
           0x005a9746      bfd5           cmpa.l (a5), a7
       < 0x005a9748      6206           bhi.b 0x5a9750
          0x005a974a      44fc0002       move.w 0x2, ccr
          0x005a974e      4e76           trapv
       > 0x005a9750      defc0008       adda.w 0x8, a7
           0x005a9754      48e78000       movem.l d0, -(a7)
           0x005a9758      422e0010       clr.b 0x10(a6)
           0x005a975c      302e000c       move.w 0xc(a6), d0
           0x005a9760      b06e0008       cmp.w 0x8(a6), d0
       < 0x005a9764      660e           bne.b 0x5a9774
          0x005a9766      302e000e       move.w 0xe(a6), d0
          0x005a976a      b06e000a       cmp.w 0xa(a6), d0
      < 0x005a976e      6604           bne.b 0x5a9774
         0x005a9770      522e0010       addq.b 0x1, 0x10(a6)
      > 0x005a9774      4cdf0001       movem.l (a7)+, d0
           0x005a9778      4e5e           unlk a6
           0x005a977a      4e75           rts
            ; CALL XREF from K05_LOADSAVE.k_load @ 0x5aa330
 772: K05_LOADSAVE.calc_magn ();
           ; var int32_t var_8h @ a7+0x8
           ; var int32_t var_108h @ a7+0x108
           ; var int32_t var_208h @ a7+0x208
           0x005a977c      4e56fc8e       link.w a6, 0xfc8e
           0x005a9780      bfd5           cmpa.l (a5), a7
       < 0x005a9782      6206           bhi.b 0x5a978a
          0x005a9784      44fc0002       move.w 0x2, ccr
          0x005a9788      4e76           trapv
       > 0x005a978a      defc035c       adda.w 0x35c, a7
           0x005a978e      48e7fff8       movem.l d0-d7/a0-a4, -(a7)
           0x005a9792      45f900408686   lea.l fcn.00408686, a2
           0x005a9798      47f9004047ea   lea.l p_wts_o, a3
           0x005a979e      49f80000       lea.l 0x0, a4
           0x005a97a2      7a0c           moveq 0xc, d5
           0x005a97a4      7c15           moveq 0x15, d6
           0x005a97a6      554f           subq.w 0x2, a7
           0x005a97a8      1f06           move.b d6, -(a7)
           0x005a97aa      4eb900598cca   jsr K01_DEBUG.k01_debug
           0x005a97b0      544f           addq.w 0x2, a7
           0x005a97b2      4a1f           tst.b (a7)+
       < 0x005a97b4      6760           beq.b 0x5a9816
          0x005a97b6      9efc0100       suba.w 0x100, a7
          0x005a97ba      2f2e0014       move.l 0x14(a6), -(a7)
          0x005a97be      2f2e0010       move.l 0x10(a6), -(a7)
          0x005a97c2      4854           pea.l (a4)
          0x005a97c4      4eb90044d9f2   jsr SYSTEM_STRING.area_str
          0x005a97ca      dec5           adda.w d5, a7
          0x005a97cc      487aaa03       pea.l 0x5a41d1(pc)
          0x005a97d0      48780010       pea.l 0x10
          0x005a97d4      2f17           move.l (a7), -(a7)
          0x005a97d6      4e93           jsr (a3)                    ; fcn.0000000c
          0x005a97d8      dec5           adda.w d5, a7
          0x005a97da      486f0001       pea.l 0x1(a7)
          0x005a97de      42a7           clr.l -(a7)
          0x005a97e0      1f6f00080003   move.b 0x8(a7), 0x3(a7)
          0x005a97e6      2f17           move.l (a7), -(a7)
          0x005a97e8      4e93           jsr (a3)                    ; fcn.0000000c
          0x005a97ea      defc010c       adda.w 0x10c, a7
          0x005a97ee      487aa9f2       pea.l 0x5a41e2(pc)
          0x005a97f2      48780007       pea.l 0x7
          0x005a97f6      2f17           move.l (a7), -(a7)
          0x005a97f8      4e93           jsr (a3)                    ; fcn.0000000c
          0x005a97fa      dec5           adda.w d5, a7
          0x005a97fc      102e001a       move.b 0x1a(a6), d0
          0x005a9800      4880           ext.w d0
          0x005a9802      48c0           ext.l d0
          0x005a9804      2f00           move.l d0, -(a7)
          0x005a9806      4854           pea.l (a4)
          0x005a9808      4eb9004070e4   jsr p_wti_o
          0x005a980e      504f           addq.w 0x8, a7
          0x005a9810      4eb900404946   jsr p_wtln_o
       > 0x005a9816      594f           subq.w 0x4, a7
           0x005a9818      4eb900633bb2   jsr HANDCOM.get_pixel_aspec
           0x005a981e      2d5ffff2       move.l (a7)+, -0xe(a6)
           0x005a9822      382efff2       move.w -0xe(a6), d4
           0x005a9826      48c4           ext.l d4
           0x005a9828      4e92           jsr (a2)                    ; fcn.00000009+0x2
           0x005a982a      2f04           move.l d4, -(a7)
           0x005a982c      382e001c       move.w 0x1c(a6), d4
           0x005a9830      48c4           ext.l d4
           0x005a9832      2f04           move.l d4, -(a7)
           0x005a9834      4e92           jsr (a2)                    ; fcn.00000009+0x2
           0x005a9836      2604           move.l d4, d3
           0x005a9838      282f0004       move.l 0x4(a7), d4
           0x005a983c      4eb900407ff8   jsr fcn.00407ff8
           0x005a9842      2d44fff6       move.l d4, -0xa(a6)
           0x005a9846      382efff4       move.w -0xc(a6), d4
           0x005a984a      48c4           ext.l d4
           0x005a984c      4e92           jsr (a2)                    ; fcn.00000009+0x2
           0x005a984e      2f04           move.l d4, -(a7)
           0x005a9850      382e001e       move.w 0x1e(a6), d4
           0x005a9854      48c4           ext.l d4
           0x005a9856      2f04           move.l d4, -(a7)
           0x005a9858      4e92           jsr (a2)                    ; fcn.00000009+0x2
           0x005a985a      2604           move.l d4, d3
           0x005a985c      282f0004       move.l 0x4(a7), d4
           0x005a9860      4eb900407ff8   jsr fcn.00407ff8
           0x005a9866      2d44fffa       move.l d4, -0x6(a6)
           0x005a986a      2f04           move.l d4, -(a7)
           0x005a986c      554f           subq.w 0x2, a7
           0x005a986e      1f06           move.b d6, -(a7)
           0x005a9870      4eb900598cca   jsr K01_DEBUG.k01_debug
           0x005a9876      544f           addq.w 0x2, a7
           0x005a9878      4a1f           tst.b (a7)+
       < 0x005a987a      670000a6       beq.w 0x5a9922
          0x005a987e      9efc0100       suba.w 0x100, a7
          0x005a9882      2f2e0020       move.l 0x20(a6), -(a7)
          0x005a9886      4854           pea.l (a4)
          0x005a9888      4eb90044dd86   jsr SYSTEM_STRING.point_str
          0x005a988e      9efc00f8       suba.w 0xf8, a7
          0x005a9892      2f2e001c       move.l 0x1c(a6), -(a7)
          0x005a9896      4854           pea.l (a4)
          0x005a9898      4eb90044dd86   jsr SYSTEM_STRING.point_str
          0x005a989e      9efc00f8       suba.w 0xf8, a7
          0x005a98a2      2f2efffa       move.l -0x6(a6), -(a7)
          0x005a98a6      2f2efff6       move.l -0xa(a6), -(a7)
          0x005a98aa      4854           pea.l (a4)
          0x005a98ac      48780004       pea.l 0x4
          0x005a98b0      4eb90044e33c   jsr SYSTEM_STRING.rpoint_str
          0x005a98b6      defc0010       adda.w 0x10, a7
          0x005a98ba      487aa92e       pea.l 0x5a41ea(pc)
          0x005a98be      48780007       pea.l 0x7
          0x005a98c2      2f17           move.l (a7), -(a7)
          0x005a98c4      4e93           jsr (a3)                    ; fcn.0000000c
          0x005a98c6      dec5           adda.w d5, a7
          0x005a98c8      486f0201       pea.l 0x201(a7)
          0x005a98cc      42a7           clr.l -(a7)
          0x005a98ce      1f6f02080003   move.b 0x208(a7), 0x3(a7)
          0x005a98d4      2f17           move.l (a7), -(a7)
          0x005a98d6      4e93           jsr (a3)                    ; fcn.0000000c
          0x005a98d8      dec5           adda.w d5, a7
          0x005a98da      487aa916       pea.l 0x5a41f2(pc)
          0x005a98de      48780009       pea.l 0x9
          0x005a98e2      2f17           move.l (a7), -(a7)
          0x005a98e4      4e93           jsr (a3)                    ; fcn.0000000c
          0x005a98e6      dec5           adda.w d5, a7
          0x005a98e8      486f0101       pea.l 0x101(a7)
          0x005a98ec      42a7           clr.l -(a7)
          0x005a98ee      1f6f01080003   move.b 0x108(a7), 0x3(a7)
          0x005a98f4      2f17           move.l (a7), -(a7)
          0x005a98f6      4e93           jsr (a3)                    ; fcn.0000000c
          0x005a98f8      dec5           adda.w d5, a7
          0x005a98fa      487aa900       pea.l 0x5a41fc(pc)
          0x005a98fe      4878000e       pea.l 0xe
          0x005a9902      2f17           move.l (a7), -(a7)
          0x005a9904      4e93           jsr (a3)                    ; fcn.0000000c
          0x005a9906      dec5           adda.w d5, a7
          0x005a9908      486f0001       pea.l 0x1(a7)
          0x005a990c      42a7           clr.l -(a7)
          0x005a990e      1f6f00080003   move.b 0x8(a7), 0x3(a7)
          0x005a9914      2f17           move.l (a7), -(a7)
          0x005a9916      4e93           jsr (a3)                    ; fcn.0000000c
          0x005a9918      defc030c       adda.w 0x30c, a7
          0x005a991c      4eb900404946   jsr p_wtln_o
       > 0x005a9922      102e001a       move.b 0x1a(a6), d0
           0x005a9926      0c000004       cmpi.b 0x4, d0
       < 0x005a992a      670000e6       beq.w 0x5a9a12
          0x005a992e      122e0018       move.b 0x18(a6), d1
          0x005a9932      0c01002f       cmpi.b 0x2f, d1
      < 0x005a9936      6670           bne.b 0x5a99a8
         0x005a9938      206e000c       movea.l 0xc(a6), a0
         0x005a993c      382e0022       move.w 0x22(a6), d4
         0x005a9940      48c4           ext.l d4
         0x005a9942      4e92           jsr (a2)                    ; fcn.00000009+0x2
         0x005a9944      262efff6       move.l -0xa(a6), d3
         0x005a9948      4eb900407e92   jsr fcn.00407e92
         0x005a994e      4eb900408224   jsr fcn.00408224
         0x005a9954      4e92           jsr (a2)                    ; fcn.00000009+0x2
         0x005a9956      2f04           move.l d4, -(a7)
         0x005a9958      382e0014       move.w 0x14(a6), d4
         0x005a995c      48c4           ext.l d4
         0x005a995e      4e92           jsr (a2)                    ; fcn.00000009+0x2
         0x005a9960      2617           move.l (a7), d3
         0x005a9962      4eb900407ff8   jsr fcn.00407ff8
         0x005a9968      584f           addq.w 0x4, a7
         0x005a996a      2084           move.l d4, (a0)
         0x005a996c      382e0020       move.w 0x20(a6), d4
         0x005a9970      48c4           ext.l d4
         0x005a9972      4e92           jsr (a2)                    ; fcn.00000009+0x2
         0x005a9974      2617           move.l (a7), d3
         0x005a9976      4eb900407e92   jsr fcn.00407e92
         0x005a997c      4eb900408224   jsr fcn.00408224
         0x005a9982      4e92           jsr (a2)                    ; fcn.00000009+0x2
         0x005a9984      2f04           move.l d4, -(a7)
         0x005a9986      382e0016       move.w 0x16(a6), d4
         0x005a998a      48c4           ext.l d4
         0x005a998c      4e92           jsr (a2)                    ; fcn.00000009+0x2
         0x005a998e      2617           move.l (a7), d3
         0x005a9990      4eb900407ff8   jsr fcn.00407ff8
         0x005a9996      584f           addq.w 0x4, a7
         0x005a9998      21440004       move.l d4, 0x4(a0)
         0x005a999c      206e0008       movea.l 0x8(a6), a0
         0x005a99a0      20bc42b40000   move.l 0x42b40000, (a0)
     < 0x005a99a6      606a           bra.b 0x5a9a12
     > 0x005a99a8      206e000c       movea.l 0xc(a6), a0
         0x005a99ac      382e0020       move.w 0x20(a6), d4
         0x005a99b0      48c4           ext.l d4
         0x005a99b2      4e92           jsr (a2)                    ; fcn.00000009+0x2
         0x005a99b4      262efff6       move.l -0xa(a6), d3
         0x005a99b8      4eb900407e92   jsr fcn.00407e92
         0x005a99be      4eb900408224   jsr fcn.00408224
         0x005a99c4      4e92           jsr (a2)                    ; fcn.00000009+0x2
         0x005a99c6      2f04           move.l d4, -(a7)
         0x005a99c8      382e0014       move.w 0x14(a6), d4
         0x005a99cc      48c4           ext.l d4
         0x005a99ce      4e92           jsr (a2)                    ; fcn.00000009+0x2
         0x005a99d0      2617           move.l (a7), d3
         0x005a99d2      4eb900407ff8   jsr fcn.00407ff8
         0x005a99d8      584f           addq.w 0x4, a7
         0x005a99da      2084           move.l d4, (a0)
         0x005a99dc      382e0022       move.w 0x22(a6), d4
         0x005a99e0      48c4           ext.l d4
         0x005a99e2      4e92           jsr (a2)                    ; fcn.00000009+0x2
         0x005a99e4      2617           move.l (a7), d3
         0x005a99e6      4eb900407e92   jsr fcn.00407e92
         0x005a99ec      4eb900408224   jsr fcn.00408224
         0x005a99f2      4e92           jsr (a2)                    ; fcn.00000009+0x2
         0x005a99f4      2f04           move.l d4, -(a7)
         0x005a99f6      382e0016       move.w 0x16(a6), d4
         0x005a99fa      48c4           ext.l d4
         0x005a99fc      4e92           jsr (a2)                    ; fcn.00000009+0x2
         0x005a99fe      2617           move.l (a7), d3
         0x005a9a00      4eb900407ff8   jsr fcn.00407ff8
         0x005a9a06      584f           addq.w 0x4, a7
         0x005a9a08      21440004       move.l d4, 0x4(a0)
         0x005a9a0c      206e0008       movea.l 0x8(a6), a0
         0x005a9a10      4290           clr.l (a0)
     > 0x005a9a12      554f           subq.w 0x2, a7
           0x005a9a14      1f06           move.b d6, -(a7)
           0x005a9a16      4eb900598cca   jsr K01_DEBUG.k01_debug
           0x005a9a1c      544f           addq.w 0x2, a7
           0x005a9a1e      4a1f           tst.b (a7)+
       < 0x005a9a20      6746           beq.b 0x5a9a68
          0x005a9a22      9efc0100       suba.w 0x100, a7
          0x005a9a26      206e000c       movea.l 0xc(a6), a0
          0x005a9a2a      514f           subq.w 0x8, a7
          0x005a9a2c      224f           movea.l a7, a1
          0x005a9a2e      7207           moveq 0x7, d1
      > 0x005a9a30      12d8           move.b (a0)+, (a1)+
      < 0x005a9a32      51c9fffc       dbra d1, 0x5a9a30
          0x005a9a36      4854           pea.l (a4)
          0x005a9a38      48780004       pea.l 0x4
          0x005a9a3c      4eb90044e33c   jsr SYSTEM_STRING.rpoint_str
          0x005a9a42      defc0010       adda.w 0x10, a7
          0x005a9a46      487aa7c3       pea.l 0x5a420b(pc)
          0x005a9a4a      48780004       pea.l 0x4
          0x005a9a4e      2f17           move.l (a7), -(a7)
          0x005a9a50      4e93           jsr (a3)                    ; fcn.0000000c
          0x005a9a52      dec5           adda.w d5, a7
          0x005a9a54      486f0001       pea.l 0x1(a7)
          0x005a9a58      42a7           clr.l -(a7)
          0x005a9a5a      1f6f00080003   move.b 0x8(a7), 0x3(a7)
          0x005a9a60      2f17           move.l (a7), -(a7)
          0x005a9a62      4e93           jsr (a3)                    ; fcn.0000000c
          0x005a9a64      defc010c       adda.w 0x10c, a7
       > 0x005a9a68      4880           ext.w d0
           0x005a9a6a      3200           move.w d0, d1
           0x005a9a6c      5341           subq.w 0x1, d1
           0x005a9a6e      0c410004       cmpi.w 0x4, d1
       < 0x005a9a72      6302           bls.b 0x5a9a76
          0x005a9a74      4e4e           trap 0xe
       > 0x005a9a76      d241           add.w d1, d1
           0x005a9a78      323b1006       move.w 0x5a9a80(pc, d1.w), d1
           0x005a9a7c      4efb1002       jmp 0x5a9a80(pc, d1.w)
            0x005a9a80      0024000a       ori.b 0xa, -(a4)
            0x005a9a84      0190           bclr.b d0, (a0)
            0x005a9a86      0190           bclr.b d0, (a0)
            0x005a9a88      003e206e       
            0x005a9a89      3e20           move.w -(a0), d7
        < 0x005a9a8b      6e000c28       bgt.w 0x5aa6b5              ; fcn.005aa600+0xb5
           0x005a9a8f      1026           move.b -(a6), d0
           0x005a9a91      2800           move.l d0, d4
           0x005a9a93      044eb900       
           0x005a9a94      4eb900407dd4   jsr fcn.00407dd4
       < 0x005a9a9a      6c04           bge.b 0x5a9aa0
          0x005a9a9c      20a80004       move.l 0x4(a0), (a0)
      > 0x005a9aa0      6000016e       bra.w 0x5a9c10
          0x005a9aa4      206e000c       movea.l 0xc(a6), a0
          0x005a9aa8      2810           move.l (a0), d4
          0x005a9aaa      26280004       move.l 0x4(a0), d3
          0x005a9aae      4eb900407dd4   jsr fcn.00407dd4
      < 0x005a9ab4      6f04           ble.b 0x5a9aba
         0x005a9ab6      20a80004       move.l 0x4(a0), (a0)
     > 0x005a9aba      60000154       bra.w 0x5a9c10
         0x005a9abe      206e000c       movea.l 0xc(a6), a0
         0x005a9ac2      2810           move.l (a0), d4
         0x005a9ac4      26280004       move.l 0x4(a0), d3
         0x005a9ac8      4eb900407dd4   jsr fcn.00407dd4
     < 0x005a9ace      6f04           ble.b 0x5a9ad4
        0x005a9ad0      20a80004       move.l 0x4(a0), (a0)
     > 0x005a9ad4      122e0018       move.b 0x18(a6), d1
         0x005a9ad8      0c010004       cmpi.b 0x4, d1
     < 0x005a9adc      6600010e       bne.w 0x5a9bec
        0x005a9ae0      7e00           moveq 0x0, d7
    < 0x005a9ae2      663a           bne.b 0x5a9b1e
       0x005a9ae4      4227           clr.b -(a7)
       0x005a9ae6      486effee       pea.l -0x12(a6)
       0x005a9aea      486effea       pea.l -0x16(a6)
       0x005a9aee      4eb900633c6e   jsr HANDCOM.get_std_size
       0x005a9af4      584f           addq.w 0x4, a7
       0x005a9af6      2eae001c       move.l 0x1c(a6), (a7)
       0x005a9afa      2f2effee       move.l -0x12(a6), -(a7)
       0x005a9afe      4ebafc42       jsr K05_LOADSAVE.same_point(pc)
       0x005a9b02      504f           addq.w 0x8, a7
       0x005a9b04      4a1f           tst.b (a7)+
   < 0x005a9b06      6716           beq.b 0x5a9b1e
      0x005a9b08      554f           subq.w 0x2, a7
      0x005a9b0a      2f2e0020       move.l 0x20(a6), -(a7)
      0x005a9b0e      2f2effea       move.l -0x16(a6), -(a7)
      0x005a9b12      4ebafc2e       jsr K05_LOADSAVE.same_point(pc)
      0x005a9b16      504f           addq.w 0x8, a7
      0x005a9b18      4a1f           tst.b (a7)+
  < 0x005a9b1a      6702           beq.b 0x5a9b1e
     0x005a9b1c      7e01           moveq 0x1, d7
  > 0x005a9b1e      4a07           tst.b d7
    < 0x005a9b20      663c           bne.b 0x5a9b5e
       0x005a9b22      1f3c0001       move.b 0x1, -(a7)
       0x005a9b26      486effee       pea.l -0x12(a6)
       0x005a9b2a      486effea       pea.l -0x16(a6)
       0x005a9b2e      4eb900633c6e   jsr HANDCOM.get_std_size
       0x005a9b34      584f           addq.w 0x4, a7
       0x005a9b36      2eae001c       move.l 0x1c(a6), (a7)
       0x005a9b3a      2f2effee       move.l -0x12(a6), -(a7)
       0x005a9b3e      4ebafc02       jsr K05_LOADSAVE.same_point(pc)
       0x005a9b42      504f           addq.w 0x8, a7
       0x005a9b44      4a1f           tst.b (a7)+
   < 0x005a9b46      6716           beq.b 0x5a9b5e
      0x005a9b48      554f           subq.w 0x2, a7
      0x005a9b4a      2f2e0020       move.l 0x20(a6), -(a7)
      0x005a9b4e      2f2effea       move.l -0x16(a6), -(a7)
      0x005a9b52      4ebafbee       jsr K05_LOADSAVE.same_point(pc)
      0x005a9b56      504f           addq.w 0x8, a7
      0x005a9b58      4a1f           tst.b (a7)+
  < 0x005a9b5a      6702           beq.b 0x5a9b5e
     0x005a9b5c      7e01           moveq 0x1, d7
  > 0x005a9b5e      4a07           tst.b d7
    < 0x005a9b60      6634           bne.b 0x5a9b96
       0x005a9b62      4227           clr.b -(a7)
       0x005a9b64      486effee       pea.l -0x12(a6)
       0x005a9b68      486effea       pea.l -0x16(a6)
       0x005a9b6c      4ebafb4e       jsr K05_LOADSAVE.get_sq_size(pc)
       0x005a9b70      defc000a       adda.w 0xa, a7
       0x005a9b74      242f000c       move.l 0xc(a7), d2
       0x005a9b78      262f0004       move.l 0x4(a7), d3
       0x005a9b7c      b483           cmp.l d3, d2
   < 0x005a9b7e      6616           bne.b 0x5a9b96
      0x005a9b80      554f           subq.w 0x2, a7
      0x005a9b82      2f2e0020       move.l 0x20(a6), -(a7)
      0x005a9b86      2f2effea       move.l -0x16(a6), -(a7)
      0x005a9b8a      4ebafbb6       jsr K05_LOADSAVE.same_point(pc)
      0x005a9b8e      504f           addq.w 0x8, a7
      0x005a9b90      4a1f           tst.b (a7)+
  < 0x005a9b92      6702           beq.b 0x5a9b96
     0x005a9b94      7e01           moveq 0x1, d7
  > 0x005a9b96      4a07           tst.b d7
    < 0x005a9b98      6636           bne.b 0x5a9bd0
       0x005a9b9a      1f3c0001       move.b 0x1, -(a7)
       0x005a9b9e      486effee       pea.l -0x12(a6)
       0x005a9ba2      486effea       pea.l -0x16(a6)
       0x005a9ba6      4ebafb14       jsr K05_LOADSAVE.get_sq_size(pc)
       0x005a9baa      defc000a       adda.w 0xa, a7
       0x005a9bae      242f000c       move.l 0xc(a7), d2
       0x005a9bb2      262f0004       move.l 0x4(a7), d3
       0x005a9bb6      b483           cmp.l d3, d2
   < 0x005a9bb8      6616           bne.b 0x5a9bd0
      0x005a9bba      554f           subq.w 0x2, a7
      0x005a9bbc      2f2e0020       move.l 0x20(a6), -(a7)
      0x005a9bc0      2f2effea       move.l -0x16(a6), -(a7)
      0x005a9bc4      4ebafb7c       jsr K05_LOADSAVE.same_point(pc)
      0x005a9bc8      504f           addq.w 0x8, a7
      0x005a9bca      4a1f           tst.b (a7)+
  < 0x005a9bcc      6702           beq.b 0x5a9bd0
     0x005a9bce      7e01           moveq 0x1, d7
  > 0x005a9bd0      4a07           tst.b d7
    < 0x005a9bd2      663c           bne.b 0x5a9c10
       0x005a9bd4      2810           move.l (a0), d4
       0x005a9bd6      263c3f800000   move.l 0x3f800000, d3
       0x005a9bdc      4eb900407dd4   jsr fcn.00407dd4
   < 0x005a9be2      6f2c           ble.b 0x5a9c10
      0x005a9be4      20bc3f800000   move.l 0x3f800000, (a0)
  < 0x005a9bea      6024           bra.b 0x5a9c10
  > 0x005a9bec      4881           ext.w d1
      0x005a9bee      41faa620       lea.l 0x5a4210(pc), a0
      0x005a9bf2      3401           move.w d1, d2
      0x005a9bf4      e64a           lsr.w 0x3, d2
      0x005a9bf6      03302000       btst.l d1, (a0, d2.w)
  < 0x005a9bfa      6614           bne.b 0x5a9c10
     0x005a9bfc      487aa61f       pea.l 0x5a421d(pc)
     0x005a9c00      48780030       pea.l 0x30
     0x005a9c04      2f17           move.l (a7), -(a7)
     0x005a9c06      4e93           jsr (a3)                    ; fcn.0000000c
     0x005a9c08      dec5           adda.w d5, a7
     0x005a9c0a      4eb900404946   jsr p_wtln_o
  > 0x005a9c10      013aa63c       btst.l d0, 0x5a424e(pc)
       < 0x005a9c14      6708           beq.b 0x5a9c1e
          0x005a9c16      206e000c       movea.l 0xc(a6), a0
          0x005a9c1a      21500004       move.l (a0), 0x4(a0)
       > 0x005a9c1e      defc0010       adda.w 0x10, a7
           0x005a9c22      1e86           move.b d6, (a7)
           0x005a9c24      4eb900598cca   jsr K01_DEBUG.k01_debug
           0x005a9c2a      544f           addq.w 0x2, a7
           0x005a9c2c      4a1f           tst.b (a7)+
       < 0x005a9c2e      674c           beq.b 0x5a9c7c
          0x005a9c30      9efc0100       suba.w 0x100, a7
          0x005a9c34      206e000c       movea.l 0xc(a6), a0
          0x005a9c38      514f           subq.w 0x8, a7
          0x005a9c3a      224f           movea.l a7, a1
          0x005a9c3c      7007           moveq 0x7, d0
      > 0x005a9c3e      12d8           move.b (a0)+, (a1)+
      < 0x005a9c40      51c8fffc       dbra d0, 0x5a9c3e
          0x005a9c44      4854           pea.l (a4)
          0x005a9c46      48780004       pea.l 0x4
          0x005a9c4a      4eb90044e33c   jsr SYSTEM_STRING.rpoint_str
          0x005a9c50      defc0010       adda.w 0x10, a7
          0x005a9c54      487aa5fa       pea.l 0x5a4250(pc)
          0x005a9c58      48780004       pea.l 0x4
          0x005a9c5c      2f17           move.l (a7), -(a7)
          0x005a9c5e      4e93           jsr (a3)                    ; fcn.0000000c
          0x005a9c60      dec5           adda.w d5, a7
          0x005a9c62      486f0001       pea.l 0x1(a7)
          0x005a9c66      42a7           clr.l -(a7)
          0x005a9c68      1f6f00080003   move.b 0x8(a7), 0x3(a7)
          0x005a9c6e      2f17           move.l (a7), -(a7)
          0x005a9c70      4e93           jsr (a3)                    ; fcn.0000000c
          0x005a9c72      defc010c       adda.w 0x10c, a7
          0x005a9c76      4eb900404946   jsr p_wtln_o
       > 0x005a9c7c      4cdf1fff       movem.l (a7)+, d0-d7/a0-a4
           0x005a9c80      4e5e           unlk a6
           0x005a9c82      4e75           rts
           ; CALL XREF from fcn.005aa600 @ 0x5aae08
 92: K05_LOADSAVE.fix_sizing ();
          0x005a9c84      4e56fde2       link.w a6, 0xfde2
          0x005a9c88      bfd5           cmpa.l (a5), a7
      < 0x005a9c8a      6206           bhi.b 0x5a9c92
         0x005a9c8c      44fc0002       move.w 0x2, ccr
         0x005a9c90      4e76           trapv
      > 0x005a9c92      defc001e       adda.w 0x1e, a7
          0x005a9c96      48e780c0       movem.l d0/a0-a1, -(a7)
          0x005a9c9a      302e000c       move.w 0xc(a6), d0
          0x005a9c9e      48c0           ext.l d0
          0x005a9ca0      2f00           move.l d0, -(a7)
          0x005a9ca2      2f2e0008       move.l 0x8(a6), -(a7)
          0x005a9ca6      486efe00       pea.l -0x200(a6)
          0x005a9caa      3f3c00ff       move.w 0xff, -(a7)
          0x005a9cae      4eb900406e56   jsr p_strI1
          0x005a9cb4      defc000e       adda.w 0xe, a7
          0x005a9cb8      41eeff00       lea.l -0x100(a6), a0
          0x005a9cbc      43eefe00       lea.l -0x200(a6), a1
          0x005a9cc0      703f           moveq 0x3f, d0
      > 0x005a9cc2      20d9           move.l (a1)+, (a0)+
      < 0x005a9cc4      51c8fffc       dbra d0, 0x5a9cc2
          0x005a9cc8      41ee0014       lea.l 0x14(a6), a0
          0x005a9ccc      43eeff00       lea.l -0x100(a6), a1
          0x005a9cd0      703f           moveq 0x3f, d0
      > 0x005a9cd2      20d9           move.l (a1)+, (a0)+
      < 0x005a9cd4      51c8fffc       dbra d0, 0x5a9cd2
          0x005a9cd8      4cdf0301       movem.l (a7)+, d0/a0-a1
          0x005a9cdc      4e5e           unlk a6
          0x005a9cde      4e75           rts
           ; CALL XREF from fcn.005aa600 @ 0x5aa7ea
 198: K05_LOADSAVE.calc_params ();
          0x005a9ce0      4e56ffd0       link.w a6, 0xffd0
          0x005a9ce4      bfd5           cmpa.l (a5), a7
      < 0x005a9ce6      6206           bhi.b 0x5a9cee
         0x005a9ce8      44fc0002       move.w 0x2, ccr
         0x005a9cec      4e76           trapv
      > 0x005a9cee      defc0030       adda.w 0x30, a7
          0x005a9cf2      48e7f8c0       movem.l d0-d4/a0-a1, -(a7)
          0x005a9cf6      7401           moveq 0x1, d2
          0x005a9cf8      206e000c       movea.l 0xc(a6), a0
          0x005a9cfc      4250           clr.w (a0)
          0x005a9cfe      42680002       clr.w 0x2(a0)
          0x005a9d02      102e001c       move.b 0x1c(a6), d0
          0x005a9d06      0c000005       cmpi.b 0x5, d0
      < 0x005a9d0a      6608           bne.b 0x5a9d14
         0x005a9d0c      226e0010       movea.l 0x10(a6), a1
         0x005a9d10      1282           move.b d2, (a1)
     < 0x005a9d12      6006           bra.b 0x5a9d1a
     > 0x005a9d14      226e0010       movea.l 0x10(a6), a1
         0x005a9d18      4211           clr.b (a1)
     > 0x005a9d1a      4880           ext.w d0
          0x005a9d1c      43faa536       lea.l 0x5a4254(pc), a1
          0x005a9d20      3200           move.w d0, d1
          0x005a9d22      e649           lsr.w 0x3, d1
          0x005a9d24      01311000       btst.l d0, (a1, d1.w)
      < 0x005a9d28      672a           beq.b 0x5a9d54
         0x005a9d2a      10ae001e       move.b 0x1e(a6), (a0)
         0x005a9d2e      116e001f0001   move.b 0x1f(a6), 0x1(a0)
         0x005a9d34      116e00200002   move.b 0x20(a6), 0x2(a0)
         0x005a9d3a      116e00210003   move.b 0x21(a6), 0x3(a0)
         0x005a9d40      226e0014       movea.l 0x14(a6), a1
         0x005a9d44      1282           move.b d2, (a1)
         0x005a9d46      336e00220002   move.w 0x22(a6), 0x2(a1)
         0x005a9d4c      336e00240004   move.w 0x24(a6), 0x4(a1)
     < 0x005a9d52      6006           bra.b 0x5a9d5a
     > 0x005a9d54      206e0014       movea.l 0x14(a6), a0
         0x005a9d58      4210           clr.b (a0)
     > 0x005a9d5a      0c000004       cmpi.b 0x4, d0
      < 0x005a9d5e      6634           bne.b 0x5a9d94
         0x005a9d60      206e0008       movea.l 0x8(a6), a0
         0x005a9d64      302e0018       move.w 0x18(a6), d0
         0x005a9d68      48c0           ext.l d0
         0x005a9d6a      e180           asl.l 0x8, d0
         0x005a9d6c      e180           asl.l 0x8, d0
         0x005a9d6e      2800           move.l d0, d4
         0x005a9d70      7602           moveq 0x2, d3
         0x005a9d72      4eb900406b50   jsr fcn.00406b50
         0x005a9d78      2084           move.l d4, (a0)
         0x005a9d7a      302e001a       move.w 0x1a(a6), d0
         0x005a9d7e      48c0           ext.l d0
         0x005a9d80      e180           asl.l 0x8, d0
         0x005a9d82      e180           asl.l 0x8, d0
         0x005a9d84      2800           move.l d0, d4
         0x005a9d86      7602           moveq 0x2, d3
         0x005a9d88      4eb900406b50   jsr fcn.00406b50
         0x005a9d8e      21440004       move.l d4, 0x4(a0)
     < 0x005a9d92      600a           bra.b 0x5a9d9e
     > 0x005a9d94      206e0008       movea.l 0x8(a6), a0
         0x005a9d98      4290           clr.l (a0)
         0x005a9d9a      42a80004       clr.l 0x4(a0)
     > 0x005a9d9e      4cdf031f       movem.l (a7)+, d0-d4/a0-a1
          0x005a9da2      4e5e           unlk a6
          0x005a9da4      4e75           rts
           ; CALL XREF from fcn.005aa600 @ 0x5aa8b4
 406: K05_LOADSAVE.transfer_via_ra ();
          0x005a9da6      4e56ffa2       link.w a6, 0xffa2
          0x005a9daa      bfd5           cmpa.l (a5), a7
      < 0x005a9dac      6206           bhi.b 0x5a9db4
         0x005a9dae      44fc0002       move.w 0x2, ccr
         0x005a9db2      4e76           trapv
      > 0x005a9db4      defc004e       adda.w 0x4e, a7
          0x005a9db8      48e7fff0       movem.l d0-d7/a0-a3, -(a7)
          0x005a9dbc      45eefffa       lea.l -0x6(a6), a2
          0x005a9dc0      47eefffe       lea.l -0x2(a6), a3
          0x005a9dc4      1f3c0001       move.b 0x1, -(a7)
          0x005a9dc8      3f3c0004       move.w 0x4, -(a7)
          0x005a9dcc      4eb900456ede   jsr PAD.flag_on_abort
          0x005a9dd2      584f           addq.w 0x4, a7
          0x005a9dd4      4852           pea.l (a2)
          0x005a9dd6      48787532       pea.l 0x7532
          0x005a9dda      4eb900403a92   jsr p_New
          0x005a9de0      5c4f           addq.w 0x6, a7
          0x005a9de2      1ebc0002       move.b 0x2, (a7)
          0x005a9de6      2f3aa474       move.l 0x5a425c(pc), -(a7)
          0x005a9dea      2f3aa46c       move.l 0x5a4258(pc), -(a7)
          0x005a9dee      4eb9005223fc   jsr BRUSHCOM.str_write_area
          0x005a9df4      504f           addq.w 0x8, a7
          0x005a9df6      1ebc0001       move.b 0x1, (a7)
          0x005a9dfa      1f3c0002       move.b 0x2, -(a7)
          0x005a9dfe      4227           clr.b -(a7)
          0x005a9e00      2f2e000c       move.l 0xc(a6), -(a7)
          0x005a9e04      2f2e0008       move.l 0x8(a6), -(a7)
          0x005a9e08      4eb9005217d8   jsr BRUSHCOM.br_transfer
          0x005a9e0e      defc000e       adda.w 0xe, a7
          0x005a9e12      7a00           moveq 0x0, d5
          0x005a9e14      4213           clr.b (a3)
          0x005a9e16      206e0014       movea.l 0x14(a6), a0
          0x005a9e1a      302e0010       move.w 0x10(a6), d0
          0x005a9e1e      c1fc0004       muls.w 0x4, d0
          0x005a9e22      7201           moveq 0x1, d1
      > 0x005a9e24      b26e000e       cmp.w 0xe(a6), d1
     < 0x005a9e28      620000e6       bhi.w 0x5a9f10
        0x005a9e2c      3d41fff0       move.w d1, -0x10(a6)
        0x005a9e30      4a13           tst.b (a3)
    < 0x005a9e32      660000d6       bne.w 0x5a9f0a
       0x005a9e36      554f           subq.w 0x2, a7
       0x005a9e38      4850           pea.l (a0)
       0x005a9e3a      2f05           move.l d5, -(a7)
       0x005a9e3c      2f12           move.l (a2), -(a7)
       0x005a9e3e      2f00           move.l d0, -(a7)
       0x005a9e40      4eb9005a2dba   jsr K04_FILEROPS.k_read_mem_file
       0x005a9e46      defc0010       adda.w 0x10, a7
       0x005a9e4a      19570191       move.b (a7), 0x191(a4)
       0x005a9e4e      196f00010192   move.b 0x1(a7), 0x192(a4)
       0x005a9e54      544f           addq.w 0x2, a7
       0x005a9e56      da80           add.l d0, d5
       0x005a9e58      7e00           moveq 0x0, d7
   > 0x005a9e5a      02870000ffff   andi.l 0xffff, d7
      0x005a9e60      0c8700003a98   cmpi.l 0x3a98, d7
  < 0x005a9e66      6302           bls.b 0x5a9e6a
     0x005a9e68      4e4f           trap 0xf
  > 0x005a9e6a      2407           move.l d7, d2
      0x005a9e6c      e382           asl.l 0x1, d2
      0x005a9e6e      2252           movea.l (a2), a1
      0x005a9e70      b3e9fffc       cmpa.l -0x4(a1), a1
  < 0x005a9e74      6702           beq.b 0x5a9e78
     0x005a9e76      4e4d           trap 0xd
  > 0x005a9e78      34312800       move.w (a1, d2.l), d2
      0x005a9e7c      0c42ffff       cmpi.w 0xffff, d2
  < 0x005a9e80      6302           bls.b 0x5a9e84
     0x005a9e82      4e4f           trap 0xf
  > 0x005a9e84      33c2fff50000   move.w d2, 0xfff50000
      0x005a9e8a      2407           move.l d7, d2
      0x005a9e8c      5482           addq.l 0x2, d2
      0x005a9e8e      0c8200003a98   cmpi.l 0x3a98, d2
  < 0x005a9e94      6302           bls.b 0x5a9e98
     0x005a9e96      4e4f           trap 0xf
  > 0x005a9e98      e382           asl.l 0x1, d2
      0x005a9e9a      34312800       move.w (a1, d2.l), d2
      0x005a9e9e      024200ff       andi.w 0xff, d2
      0x005a9ea2      2607           move.l d7, d3
      0x005a9ea4      5283           addq.l 0x1, d3
      0x005a9ea6      0c8300003a98   cmpi.l 0x3a98, d3
  < 0x005a9eac      6302           bls.b 0x5a9eb0
     0x005a9eae      4e4f           trap 0xf
  > 0x005a9eb0      e383           asl.l 0x1, d3
      0x005a9eb2      38313800       move.w (a1, d3.l), d4
      0x005a9eb6      48c4           ext.l d4
      0x005a9eb8      02840000ff00   andi.l 0xff00, d4
      0x005a9ebe      48c2           ext.l d2
      0x005a9ec0      d882           add.l d2, d4
      0x005a9ec2      0c840000ffff   cmpi.l 0xffff, d4
  < 0x005a9ec8      6302           bls.b 0x5a9ecc
     0x005a9eca      4e4f           trap 0xf
  > 0x005a9ecc      3c04           move.w d4, d6
      0x005a9ece      33c6fff50000   move.w d6, 0xfff50000
      0x005a9ed4      2407           move.l d7, d2
      0x005a9ed6      5882           addq.l 0x4, d2
      0x005a9ed8      0c820000ffff   cmpi.l 0xffff, d2
  < 0x005a9ede      6302           bls.b 0x5a9ee2
     0x005a9ee0      4e4f           trap 0xf
  > 0x005a9ee2      3e02           move.w d2, d7
      0x005a9ee4      342e000c       move.w 0xc(a6), d2
      0x005a9ee8      c5fc0002       muls.w 0x2, d2
      0x005a9eec      02870000ffff   andi.l 0xffff, d7
      0x005a9ef2      be82           cmp.l d2, d7
   < 0x005a9ef4      6600ff64       bne.w 0x5a9e5a
       0x005a9ef8      554f           subq.w 0x2, a7
       0x005a9efa      4eb900402f52   jsr p_Flagged
       0x005a9f00      141f           move.b (a7)+, d2
       0x005a9f02      4882           ext.w d2
       0x005a9f04      45bc0001       chk.w 0x1, d2
       0x005a9f08      1682           move.b d2, (a3)
    > 0x005a9f0a      5241           addq.w 0x1, d1
     < 0x005a9f0c      6400ff16       bcc.w 0x5a9e24
     > 0x005a9f10      4a13           tst.b (a3)
      < 0x005a9f12      6706           beq.b 0x5a9f1a
         0x005a9f14      4eb90051fa24   jsr BRUSHCOM.br_abort
      > 0x005a9f1a      4227           clr.b -(a7)
          0x005a9f1c      4267           clr.w -(a7)
          0x005a9f1e      4eb900456ede   jsr PAD.flag_on_abort
          0x005a9f24      584f           addq.w 0x4, a7
          0x005a9f26      4852           pea.l (a2)
          0x005a9f28      48787532       pea.l 0x7532
          0x005a9f2c      4eb900403b98   jsr p_Dispos
          0x005a9f32      504f           addq.w 0x8, a7
          0x005a9f34      4cdf0fff       movem.l (a7)+, d0-d7/a0-a3
          0x005a9f38      4e5e           unlk a6
          0x005a9f3a      4e75           rts
           ; XREFS: CALL 0x004c0d24  CALL 0x004c235c  CALL 0x005b5096  
           ; XREFS: CALL 0x00638aa4  CALL 0x00664b6a  CALL 0x006736c8  
           ; XREFS: CALL 0x00676200  CALL 0x007a4c5e  
 1258: K05_LOADSAVE.k_load (int32_t arg_1h, int32_t arg_4h);
          ; var int32_t var_6944h @ a6-0x6944
          ; var int32_t var_693fh @ a6-0x693f
          ; var int32_t var_649dh @ a6-0x649d
          ; var int32_t var_6498h @ a6-0x6498
          ; var int32_t var_6012h @ a6-0x6012
          ; var int32_t var_6010h @ a6-0x6010
          ; var int32_t var_5e90h @ a6-0x5e90
          ; var int32_t var_5e8eh @ a6-0x5e8e
          ; var int32_t var_5e89h @ a6-0x5e89
          ; var int32_t var_5e84h @ a6-0x5e84
          ; var int32_t var_5e42h @ a6-0x5e42
          ; var int32_t var_5e3dh @ a6-0x5e3d
          ; var int32_t var_5d00h @ a6-0x5d00
          ; var int32_t var_5cfbh @ a6-0x5cfb
          ; var int32_t var_248h @ a6-0x248
          ; var int32_t var_125h @ a6-0x125
          ; var int32_t var_124h @ a6-0x124
          ; arg int32_t arg_1h @ a6+0x1
          ; arg int32_t arg_4h @ a6+0x4
          ; var int32_t var_8h @ a7+0x8
          ; var int32_t var_108h @ a7+0x108
          0x005a9f3c      4e56fafe       link.w a6, 0xfafe
          0x005a9f40      bfd5           cmpa.l (a5), a7
      < 0x005a9f42      6206           bhi.b 0x5a9f4a
         0x005a9f44      44fc0002       move.w 0x2, ccr
         0x005a9f48      4e76           trapv
      > 0x005a9f4a      defc024c       adda.w 0x24c, a7
          0x005a9f4e      48e7fff8       movem.l d0-d7/a0-a4, -(a7)
          0x005a9f52      47f9004047ea   lea.l p_wts_o, a3
          0x005a9f58      7a0c           moveq 0xc, d5
          0x005a9f5a      1d7aa305fedb   move.b 0x5a4261(pc), -0x125(a6)
          0x005a9f60      1d7aa300fedc   move.b 0x5a4262(pc), -0x124(a6)
          0x005a9f66      41f90083fe7c   lea.l 0x83fe7c, a0
          0x005a9f6c      43faa2f5       lea.l 0x5a4263(pc), a1
          0x005a9f70      7004           moveq 0x4, d0
      > 0x005a9f72      10d9           move.b (a1)+, (a0)+
      < 0x005a9f74      51c8fffc       dbra d0, 0x5a9f72
          0x005a9f78      554f           subq.w 0x2, a7
          0x005a9f7a      1f3c0015       move.b 0x15, -(a7)
          0x005a9f7e      4eb900598cca   jsr K01_DEBUG.k01_debug
          0x005a9f84      544f           addq.w 0x2, a7
          0x005a9f86      4a1f           tst.b (a7)+
      < 0x005a9f88      6766           beq.b 0x5a9ff0
         0x005a9f8a      9efc0100       suba.w 0x100, a7
         0x005a9f8e      2f2e0026       move.l 0x26(a6), -(a7)
         0x005a9f92      2f2e0022       move.l 0x22(a6), -(a7)
         0x005a9f96      1f3c0001       move.b 0x1, -(a7)
         0x005a9f9a      4eb90044e0e4   jsr SYSTEM_STRING.hpoint_str
         0x005a9fa0      defc000a       adda.w 0xa, a7
         0x005a9fa4      487aa2c3       pea.l 0x5a4269(pc)
         0x005a9fa8      4878000d       pea.l 0xd
         0x005a9fac      2f17           move.l (a7), -(a7)
         0x005a9fae      4e93           jsr (a3)                    ; fcn.0000000c
         0x005a9fb0      dec5           adda.w d5, a7
         0x005a9fb2      102e0018       move.b 0x18(a6), d0
         0x005a9fb6      4880           ext.w d0
         0x005a9fb8      48c0           ext.l d0
         0x005a9fba      2f00           move.l d0, -(a7)
         0x005a9fbc      48780000       pea.l 0x0
         0x005a9fc0      4eb9004070e4   jsr p_wti_o
         0x005a9fc6      504f           addq.w 0x8, a7
         0x005a9fc8      487aa2ad       pea.l 0x5a4277(pc)
         0x005a9fcc      48780005       pea.l 0x5
         0x005a9fd0      2f17           move.l (a7), -(a7)
         0x005a9fd2      4e93           jsr (a3)                    ; fcn.0000000c
         0x005a9fd4      dec5           adda.w d5, a7
         0x005a9fd6      486f0001       pea.l 0x1(a7)
         0x005a9fda      42a7           clr.l -(a7)
         0x005a9fdc      1f6f00080003   move.b 0x8(a7), 0x3(a7)
         0x005a9fe2      2f17           move.l (a7), -(a7)
         0x005a9fe4      4e93           jsr (a3)                    ; fcn.0000000c
         0x005a9fe6      defc010c       adda.w 0x10c, a7
         0x005a9fea      4eb900404946   jsr p_wtln_o
      > 0x005a9ff0      554f           subq.w 0x2, a7
          0x005a9ff2      486efd4a       pea.l -0x2b6(a6)
          0x005a9ff6      4eb900404434   jsr fcn.00404434
          0x005a9ffc      584f           addq.w 0x4, a7
          0x005a9ffe      4a1f           tst.b (a7)+
      < 0x005aa000      670012a4       beq.w 0x5ab2a6              ; fcn.005aa600+0xca6
         0x005aa004      9efc000a       suba.w 0xa, a7
         0x005aa008      206e002a       movea.l 0x2a(a6), a0
         0x005aa00c      4850           pea.l (a0)
         0x005aa00e      486efedb       pea.l -0x125(a6)
         0x005aa012      486efd9e       pea.l -0x262(a6)
         0x005aa016      4ebaa64e       jsr K05_LOADSAVE.gen_fid(pc)
         0x005aa01a      dec5           adda.w d5, a7
         0x005aa01c      2d5ffd94       move.l (a7)+, -0x26c(a6)
         0x005aa020      2d5ffd98       move.l (a7)+, -0x268(a6)
         0x005aa024      3d57fd9c       move.w (a7), -0x264(a6)
         0x005aa028      9efc0100       suba.w 0x100, a7
         0x005aa02c      204f           movea.l a7, a0
         0x005aa02e      43faa24c       lea.l 0x5a427c(pc), a1
         0x005aa032      7004           moveq 0x4, d0
     > 0x005aa034      20d9           move.l (a1)+, (a0)+
     < 0x005aa036      51c8fffc       dbra d0, 0x5aa034
         0x005aa03a      10d9           move.b (a1)+, (a0)+
         0x005aa03c      554f           subq.w 0x2, a7
         0x005aa03e      1eaefedb       move.b -0x125(a6), (a7)
         0x005aa042      1f6efedc0001   move.b -0x124(a6), 0x1(a7)
         0x005aa048      4ebaa4ae       jsr K05_LOADSAVE.warn_if_fail(pc)
         0x005aa04c      defc0102       adda.w 0x102, a7
         0x005aa050      4a1f           tst.b (a7)+
     < 0x005aa052      670c           beq.b 0x5aa060
        0x005aa054      486efd4a       pea.l -0x2b6(a6)
        0x005aa058      4eb900404468   jsr fcn.00404468
        0x005aa05e      584f           addq.w 0x4, a7
     > 0x005aa060      554f           subq.w 0x2, a7
         0x005aa062      1f3c0015       move.b 0x15, -(a7)
         0x005aa066      4eb900598cca   jsr K01_DEBUG.k01_debug
         0x005aa06c      544f           addq.w 0x2, a7
         0x005aa06e      4a1f           tst.b (a7)+
     < 0x005aa070      6740           beq.b 0x5aa0b2
        0x005aa072      9efc0100       suba.w 0x100, a7
        0x005aa076      2f2efd9a       move.l -0x266(a6), -(a7)
        0x005aa07a      2f2efd96       move.l -0x26a(a6), -(a7)
        0x005aa07e      3f2efd94       move.w -0x26c(a6), -(a7)
        0x005aa082      4ebaa696       jsr K05_LOADSAVE.fid_str(pc)
        0x005aa086      defc000a       adda.w 0xa, a7
        0x005aa08a      487aa206       pea.l 0x5a4292(pc)
        0x005aa08e      48780004       pea.l 0x4
        0x005aa092      2f17           move.l (a7), -(a7)
        0x005aa094      4e93           jsr (a3)                    ; fcn.0000000c
        0x005aa096      dec5           adda.w d5, a7
        0x005aa098      486f0001       pea.l 0x1(a7)
        0x005aa09c      42a7           clr.l -(a7)
        0x005aa09e      1f6f00080003   move.b 0x8(a7), 0x3(a7)
        0x005aa0a4      2f17           move.l (a7), -(a7)
        0x005aa0a6      4e93           jsr (a3)                    ; fcn.0000000c
        0x005aa0a8      defc010c       adda.w 0x10c, a7
        0x005aa0ac      4eb900404946   jsr p_wtln_o
     > 0x005aa0b2      594f           subq.w 0x4, a7
         0x005aa0b4      2f2efd94       move.l -0x26c(a6), -(a7)
         0x005aa0b8      1f3c0001       move.b 0x1, -(a7)
         0x005aa0bc      4eb900593ae0   jsr K0_DISKMGR.k0_gen_vol_ptr
         0x005aa0c2      5c4f           addq.w 0x6, a7
         0x005aa0c4      2d5ffda0       move.l (a7)+, -0x260(a6)
         0x005aa0c8      206efda0       movea.l -0x260(a6), a0
         0x005aa0cc      b0fc0001       cmpa.w 0x1, a0
     < 0x005aa0d0      660c           bne.b 0x5aa0de
        0x005aa0d2      1d7aa1c3fedb   move.b 0x5a4297(pc), -0x125(a6)
        0x005aa0d8      1d7aa1befedc   move.b 0x5a4298(pc), -0x124(a6)
     > 0x005aa0de      9efc0102       suba.w 0x102, a7
         0x005aa0e2      204f           movea.l a7, a0
         0x005aa0e4      43faa1b3       lea.l 0x5a4299(pc), a1
         0x005aa0e8      7013           moveq 0x13, d0
     > 0x005aa0ea      10d9           move.b (a1)+, (a0)+
     < 0x005aa0ec      51c8fffc       dbra d0, 0x5aa0ea
         0x005aa0f0      554f           subq.w 0x2, a7
         0x005aa0f2      1eaefedb       move.b -0x125(a6), (a7)
         0x005aa0f6      1f6efedc0001   move.b -0x124(a6), 0x1(a7)
         0x005aa0fc      4ebaa3fa       jsr K05_LOADSAVE.warn_if_fail(pc)
         0x005aa100      defc0102       adda.w 0x102, a7
         0x005aa104      4a1f           tst.b (a7)+
     < 0x005aa106      670c           beq.b 0x5aa114
        0x005aa108      486efd4a       pea.l -0x2b6(a6)
        0x005aa10c      4eb900404468   jsr fcn.00404468
        0x005aa112      584f           addq.w 0x4, a7
     > 0x005aa114      102e0018       move.b 0x18(a6), d0
         0x005aa118      0c000005       cmpi.b 0x5, d0
     < 0x005aa11c      6612           bne.b 0x5aa130
        0x005aa11e      41eefdd2       lea.l -0x22e(a6), a0
        0x005aa122      43faa189       lea.l 0x5a42ad(pc), a1
        0x005aa126      720b           moveq 0xb, d1
    > 0x005aa128      10d9           move.b (a1)+, (a0)+
    < 0x005aa12a      51c9fffc       dbra d1, 0x5aa128
    < 0x005aa12e      6010           bra.b 0x5aa140
    > 0x005aa130      41eefdd2       lea.l -0x22e(a6), a0
        0x005aa134      43faa183       lea.l 0x5a42b9(pc), a1
        0x005aa138      7209           moveq 0x9, d1
    > 0x005aa13a      10d9           move.b (a1)+, (a0)+
    < 0x005aa13c      51c9fffc       dbra d1, 0x5aa13a
    > 0x005aa140      0c000007       cmpi.b 0x7, d0
     < 0x005aa144      6646           bne.b 0x5aa18c
        0x005aa146      1d7aa17cfedb   move.b 0x5a42c4(pc), -0x125(a6)
        0x005aa14c      1d7aa177fedc   move.b 0x5a42c5(pc), -0x124(a6)
        0x005aa152      2d7aa172fdd2   move.l 0x5a42c6(pc), -0x22e(a6)
        0x005aa158      1d7aa170fdd6   move.b 0x5a42ca(pc), -0x22a(a6)
        0x005aa15e      594f           subq.w 0x4, a7
        0x005aa160      4eb900633a9e   jsr HANDCOM.get_pic_size
        0x005aa166      2d5ffdb8       move.l (a7)+, -0x248(a6)
        0x005aa16a      3d7c0001fdbc   move.w 0x1, -0x244(a6)
        0x005aa170      42aefdbe       clr.l -0x242(a6)
        0x005aa174      1d7c0029fed2   move.b 0x29, -0x12e(a6)
        0x005aa17a      594f           subq.w 0x4, a7
        0x005aa17c      4eb900633bb2   jsr HANDCOM.get_pixel_aspec
        0x005aa182      2d5ffda4       move.l (a7)+, -0x25c(a6)
        0x005aa186      422efdb6       clr.b -0x24a(a6)
    < 0x005aa18a      6054           bra.b 0x5aa1e0
    > 0x005aa18c      554f           subq.w 0x2, a7
        0x005aa18e      2f2efd9a       move.l -0x266(a6), -(a7)
        0x005aa192      2f2efd96       move.l -0x26a(a6), -(a7)
        0x005aa196      3f2efd94       move.w -0x26c(a6), -(a7)
        0x005aa19a      9efc0100       suba.w 0x100, a7
        0x005aa19e      204f           movea.l a7, a0
        0x005aa1a0      43eefdd2       lea.l -0x22e(a6), a1
        0x005aa1a4      723f           moveq 0x3f, d1
    > 0x005aa1a6      20d9           move.l (a1)+, (a0)+
    < 0x005aa1a8      51c9fffc       dbra d1, 0x5aa1a6
        0x005aa1ac      1f3c0015       move.b 0x15, -(a7)
        0x005aa1b0      4227           clr.b -(a7)
        0x005aa1b2      486efed2       pea.l -0x12e(a6)
        0x005aa1b6      486efdb8       pea.l -0x248(a6)
        0x005aa1ba      486efda4       pea.l -0x25c(a6)
        0x005aa1be      4227           clr.b -(a7)
        0x005aa1c0      0c000005       cmpi.b 0x5, d0
    < 0x005aa1c4      6602           bne.b 0x5aa1c8
       0x005aa1c6      5217           addq.b 0x1, (a7)
    > 0x005aa1c8      486efdb6       pea.l -0x24a(a6)
        0x005aa1cc      4ebaa686       jsr K05_LOADSAVE.get_data(pc)
        0x005aa1d0      defc0120       adda.w 0x120, a7
        0x005aa1d4      1d57fedb       move.b (a7), -0x125(a6)
        0x005aa1d8      1d6f0001fedc   move.b 0x1(a7), -0x124(a6)
        0x005aa1de      544f           addq.w 0x2, a7
    > 0x005aa1e0      9efc0102       suba.w 0x102, a7
         0x005aa1e4      7007           moveq 0x7, d0
         0x005aa1e6      41ef0001       lea.l 0x1(a7), a0
         0x005aa1ea      43faa0e0       lea.l 0x5a42cc(pc), a1
     > 0x005aa1ee      10d9           move.b (a1)+, (a0)+
     < 0x005aa1f0      51c8fffc       dbra d0, 0x5aa1ee
         0x005aa1f4      4240           clr.w d0
         0x005aa1f6      102efdd2       move.b -0x22e(a6), d0
         0x005aa1fa      5000           addq.b 0x8, d0
     < 0x005aa1fc      6406           bcc.b 0x5aa204
        0x005aa1fe      4eb900406c8a   jsr p_strovr
     > 0x005aa204      4240           clr.w d0
         0x005aa206      102efdd2       move.b -0x22e(a6), d0
         0x005aa20a      323c00ff       move.w 0xff, d1
         0x005aa20e      5141           subq.w 0x8, d1
         0x005aa210      b041           cmp.w d1, d0
     < 0x005aa212      6302           bls.b 0x5aa216
        0x005aa214      3001           move.w d1, d0
     > 0x005aa216      1ebc0008       move.b 0x8, (a7)
         0x005aa21a      d117           add.b d0, (a7)
         0x005aa21c      5300           subq.b 0x1, d0
     < 0x005aa21e      650a           bcs.b 0x5aa22a
        0x005aa220      43eefdd3       lea.l -0x22d(a6), a1
    > 0x005aa224      10d9           move.b (a1)+, (a0)+
    < 0x005aa226      51c8fffc       dbra d0, 0x5aa224
     > 0x005aa22a      4240           clr.w d0
         0x005aa22c      1017           move.b (a7), d0
         0x005aa22e      41ef0001       lea.l 0x1(a7), a0
         0x005aa232      d0c0           adda.w d0, a0
         0x005aa234      7205           moveq 0x5, d1
         0x005aa236      d200           add.b d0, d1
     < 0x005aa238      6406           bcc.b 0x5aa240
        0x005aa23a      4eb900406c8a   jsr p_strovr
     > 0x005aa240      7205           moveq 0x5, d1
         0x005aa242      343c00ff       move.w 0xff, d2
         0x005aa246      9440           sub.w d0, d2
         0x005aa248      b242           cmp.w d2, d1
     < 0x005aa24a      6302           bls.b 0x5aa24e
        0x005aa24c      3202           move.w d2, d1
     > 0x005aa24e      d317           add.b d1, (a7)
         0x005aa250      43faa083       lea.l 0x5a42d5(pc), a1
     > 0x005aa254      10d9           move.b (a1)+, (a0)+
     < 0x005aa256      51c9fffc       dbra d1, 0x5aa254
         0x005aa25a      554f           subq.w 0x2, a7
         0x005aa25c      1eaefedb       move.b -0x125(a6), (a7)
         0x005aa260      1f6efedc0001   move.b -0x124(a6), 0x1(a7)
         0x005aa266      4ebaa290       jsr K05_LOADSAVE.warn_if_fail(pc)
         0x005aa26a      defc0102       adda.w 0x102, a7
         0x005aa26e      4a1f           tst.b (a7)+
     < 0x005aa270      670c           beq.b 0x5aa27e
        0x005aa272      486efd4a       pea.l -0x2b6(a6)
        0x005aa276      4eb900404468   jsr fcn.00404468
        0x005aa27c      584f           addq.w 0x4, a7
     > 0x005aa27e      206e0008       movea.l 0x8(a6), a0
         0x005aa282      10280010       move.b 0x10(a0), d0
         0x005aa286      0c000001       cmpi.b 0x1, d0
     < 0x005aa28a      665c           bne.b 0x5aa2e8
        0x005aa28c      1f2e0016       move.b 0x16(a6), -(a7)
        0x005aa290      2f2e0010       move.l 0x10(a6), -(a7)
        0x005aa294      2f2e000c       move.l 0xc(a6), -(a7)
        0x005aa298      4eb9005223fc   jsr BRUSHCOM.str_write_area
        0x005aa29e      defc000a       adda.w 0xa, a7
        0x005aa2a2      30280018       move.w 0x18(a0), d0
        0x005aa2a6      02800000ffff   andi.l 0xffff, d0
        0x005aa2ac      0c80000000ff   cmpi.l 0xff, d0
    < 0x005aa2b2      6302           bls.b 0x5aa2b6
       0x005aa2b4      4e4f           trap 0xf
    > 0x005aa2b6      3f00           move.w d0, -(a7)
        0x005aa2b8      5d4f           subq.w 0x6, a7
        0x005aa2ba      224f           movea.l a7, a1
        0x005aa2bc      45e80012       lea.l 0x12(a0), a2
        0x005aa2c0      7005           moveq 0x5, d0
    > 0x005aa2c2      12da           move.b (a2)+, (a1)+
    < 0x005aa2c4      51c8fffc       dbra d0, 0x5aa2c2
        0x005aa2c8      4eb900520fe8   jsr BRUSHCOM.set_br_key_colo
        0x005aa2ce      5c4f           addq.w 0x6, a7
        0x005aa2d0      1eae0016       move.b 0x16(a6), (a7)
        0x005aa2d4      1f2e0014       move.b 0x14(a6), -(a7)
        0x005aa2d8      2f2e0010       move.l 0x10(a6), -(a7)
        0x005aa2dc      2f2e000c       move.l 0xc(a6), -(a7)
        0x005aa2e0      4eb9005213b4   jsr BRUSHCOM.br_wipe
        0x005aa2e6      dec5           adda.w d5, a7
     > 0x005aa2e8      2d7a9ff0fee2   move.l 0x5a42da(pc), -0x11e(a6)
         0x005aa2ee      2d7a9feefee6   move.l 0x5a42de(pc), -0x11a(a6)
         0x005aa2f4      42aefeea       clr.l -0x116(a6)
         0x005aa2f8      1028001b       move.b 0x1b(a0), d0
         0x005aa2fc      0c000001       cmpi.b 0x1, d0
     < 0x005aa300      6636           bne.b 0x5aa338
        0x005aa302      4a28001c       tst.b 0x1c(a0)
    < 0x005aa306      6730           beq.b 0x5aa338
       0x005aa308      2f2efdb8       move.l -0x248(a6), -(a7)
       0x005aa30c      2f2efda4       move.l -0x25c(a6), -(a7)
       0x005aa310      1f28001c       move.b 0x1c(a0), -(a7)
       0x005aa314      102efed2       move.b -0x12e(a6), d0
       0x005aa318      4880           ext.w d0
       0x005aa31a      41bc0056       chk.w 0x56, d0
       0x005aa31e      1f00           move.b d0, -(a7)
       0x005aa320      2f2e0010       move.l 0x10(a6), -(a7)
       0x005aa324      2f2e000c       move.l 0xc(a6), -(a7)
       0x005aa328      486efee2       pea.l -0x11e(a6)
       0x005aa32c      486efeea       pea.l -0x116(a6)
       0x005aa330      4ebaf44a       jsr K05_LOADSAVE.calc_magn(pc)
       0x005aa334      defc001c       adda.w 0x1c, a7
    > 0x005aa338      594f           subq.w 0x4, a7
         0x005aa33a      4eb900633bb2   jsr HANDCOM.get_pixel_aspec
         0x005aa340      2d5ffda8       move.l (a7)+, -0x258(a6)
         0x005aa344      1028001b       move.b 0x1b(a0), d0
         0x005aa348      4880           ext.w d0
         0x005aa34a      013a9f96       btst.l d0, 0x5a42e2(pc)
     < 0x005aa34e      6774           beq.b 0x5aa3c4
    > 0x005aa350      28280026       move.l 0x26(a0), d4
       0x005aa354      7600           moveq 0x0, d3
       0x005aa356      4eb900407dd4   jsr fcn.00407dd4
   < 0x005aa35c      6c16           bge.b 0x5aa374
      0x005aa35e      28280026       move.l 0x26(a0), d4
      0x005aa362      263c43b40000   move.l 0x43b40000, d3
      0x005aa368      4eb900407ba8   jsr fcn.00407ba8
      0x005aa36e      21440026       move.l d4, 0x26(a0)
   < 0x005aa372      60dc           bra.b 0x5aa350
   > 0x005aa374      28280026       move.l 0x26(a0), d4
       0x005aa378      263c43b40000   move.l 0x43b40000, d3
       0x005aa37e      4eb900407dd4   jsr fcn.00407dd4
   < 0x005aa384      6d16           blt.b 0x5aa39c
      0x005aa386      28280026       move.l 0x26(a0), d4
      0x005aa38a      263c43b40000   move.l 0x43b40000, d3
      0x005aa390      4eb900407b44   jsr fcn.00407b44
      0x005aa396      21440026       move.l d4, 0x26(a0)
   < 0x005aa39a      60d8           bra.b 0x5aa374
   > 0x005aa39c      283c00000168   move.l 0x168, d4
        0x005aa3a2      4eb900408686   jsr fcn.00408686
        0x005aa3a8      2604           move.l d4, d3
        0x005aa3aa      283c40c90fdb   move.l 0x40c90fdb, d4
        0x005aa3b0      4eb900407ff8   jsr fcn.00407ff8
        0x005aa3b6      26280026       move.l 0x26(a0), d3
        0x005aa3ba      4eb900407e92   jsr fcn.00407e92
        0x005aa3c0      2d44fede       move.l d4, -0x122(a6)
     > 0x005aa3c4      206e0008       movea.l 0x8(a6), a0
         0x005aa3c8      4a28001b       tst.b 0x1b(a0)
     < 0x005aa3cc      6606           bne.b 0x5aa3d4
  > 0x005aa3ce      7e00           moveq 0x0, d7
 < 0x005aa3d0      6000022e       bra.w fcn.005aa600
 > 0x005aa3d4      102efed2       move.b -0x12e(a6), d0
     0x005aa3d8      4880           ext.w d0
     0x005aa3da      43fa9f08       lea.l 0x5a42e4(pc), a1
     0x005aa3de      3200           move.w d0, d1
     0x005aa3e0      e649           lsr.w 0x3, d1
     0x005aa3e2      01311000       btst.l d0, (a1, d1.w)
 < 0x005aa3e6      6702           beq.b 0x5aa3ea
 < 0x005aa3e8      60e4           bra.b 0x5aa3ce
  > 0x005aa3ea      102e0018       move.b 0x18(a6), d0
      0x005aa3ee      4880           ext.w d0
      0x005aa3f0      43fa9efe       lea.l 0x5a42f0(pc), a1
      0x005aa3f4      3200           move.w d0, d1
      0x005aa3f6      e649           lsr.w 0x3, d1
      0x005aa3f8      01311000       btst.l d0, (a1, d1.w)
  < 0x005aa3fc      6702           beq.b 0x5aa400
  < 0x005aa3fe      60ce           bra.b 0x5aa3ce
   > 0x005aa400      4a2efdb6       tst.b -0x24a(a6)
   < 0x005aa404      6766           beq.b 0x5aa46c
      0x005aa406      4a28001a       tst.b 0x1a(a0)
  < 0x005aa40a      6760           beq.b 0x5aa46c
     0x005aa40c      1028001b       move.b 0x1b(a0), d0
     0x005aa410      4880           ext.w d0
     0x005aa412      5340           subq.w 0x1, d0
     0x005aa414      0c400002       cmpi.w 0x2, d0
 < 0x005aa418      6302           bls.b 0x5aa41c
    0x005aa41a      4e4e           trap 0xe
 > 0x005aa41c      d040           add.w d0, d0
     0x005aa41e      303b0006       move.w 0x5aa426(pc, d0.w), d0
     0x005aa422      4efb0002       jmp 0x5aa426(pc, d0.w)
      0x005aa426      00060008       ori.b 0x8, d6
      0x005aa42a      000860a0       
      0x005aa42b      0860a07e       
   < 0x005aa42c      60a0           bra.b 0x5aa3ce              ; K05_LOADSAVE.k_load+0x492
       0x005aa42e      7e00           moveq 0x0, d7
       0x005aa430      2828001e       move.l 0x1e(a0), d4
       0x005aa434      263c3f800000   move.l 0x3f800000, d3
       0x005aa43a      4eb900407dd4   jsr fcn.00407dd4
   < 0x005aa440      6620           bne.b 0x5aa462
      0x005aa442      28280022       move.l 0x22(a0), d4
      0x005aa446      263c3f800000   move.l 0x3f800000, d3
      0x005aa44c      4eb900407dd4   jsr fcn.00407dd4
  < 0x005aa452      660e           bne.b 0x5aa462
     0x005aa454      28280026       move.l 0x26(a0), d4
     0x005aa458      7600           moveq 0x0, d3
     0x005aa45a      4eb900407dd4   jsr fcn.00407dd4
  < 0x005aa460      6702           beq.b 0x5aa464
  > 0x005aa462      5207           addq.b 0x1, d7
  < 0x005aa464      6000019a       bra.w fcn.005aa600
  < 0x005aa468      60000196       bra.w fcn.005aa600
  > 0x005aa46c      1028001b       move.b 0x1b(a0), d0
       0x005aa470      4880           ext.w d0
       0x005aa472      5340           subq.w 0x1, d0
       0x005aa474      0c400002       cmpi.w 0x2, d0
   < 0x005aa478      6302           bls.b 0x5aa47c
      0x005aa47a      4e4e           trap 0xe
   > 0x005aa47c      d040           add.w d0, d0
       0x005aa47e      303b0006       move.w 0x5aa486(pc, d0.w), d0
       0x005aa482      4efb0002       jmp 0x5aa486(pc, d0.w)
       0x005aa486      00e60006       
       0x005aa487      e600           asr.b 0x3, d0
       0x005aa489      0600ac7e       addi.b 0x7e, d0
       0x005aa48d      002828001e26   ori.b 0x0, 0x1e26(a0)
       0x005aa493      3c3f8000       
       0x005aa494      3f800000       move.w d0, (a7, d0.w)
       0x005aa498      4eb900407dd4   jsr fcn.00407dd4
   < 0x005aa49e      6706           beq.b 0x5aa4a6
      0x005aa4a0      594f           subq.w 0x4, a7
  < 0x005aa4a2      60000086       bra.w 0x5aa52a
  > 0x005aa4a6      28280022       move.l 0x22(a0), d4
      0x005aa4aa      263c3f800000   move.l 0x3f800000, d3
      0x005aa4b0      4eb900407dd4   jsr fcn.00407dd4
  < 0x005aa4b6      6704           beq.b 0x5aa4bc
     0x005aa4b8      594f           subq.w 0x4, a7
  < 0x005aa4ba      606e           bra.b 0x5aa52a
  > 0x005aa4bc      28280026       move.l 0x26(a0), d4
      0x005aa4c0      7600           moveq 0x0, d3
      0x005aa4c2      4eb900407dd4   jsr fcn.00407dd4
  < 0x005aa4c8      6704           beq.b 0x5aa4ce
     0x005aa4ca      594f           subq.w 0x4, a7
  < 0x005aa4cc      605c           bra.b 0x5aa52a
  > 0x005aa4ce      382efda8       move.w -0x258(a6), d4
      0x005aa4d2      48c4           ext.l d4
      0x005aa4d4      4eb900408686   jsr fcn.00408686
      0x005aa4da      2f04           move.l d4, -(a7)
      0x005aa4dc      382efdaa       move.w -0x256(a6), d4
      0x005aa4e0      48c4           ext.l d4
      0x005aa4e2      4eb900408686   jsr fcn.00408686
      0x005aa4e8      2604           move.l d4, d3
      0x005aa4ea      2817           move.l (a7), d4
      0x005aa4ec      4eb900407ff8   jsr fcn.00407ff8
      0x005aa4f2      2e84           move.l d4, (a7)
      0x005aa4f4      382efda4       move.w -0x25c(a6), d4
      0x005aa4f8      48c4           ext.l d4
      0x005aa4fa      4eb900408686   jsr fcn.00408686
      0x005aa500      2f04           move.l d4, -(a7)
      0x005aa502      382efda6       move.w -0x25a(a6), d4
      0x005aa506      48c4           ext.l d4
      0x005aa508      4eb900408686   jsr fcn.00408686
      0x005aa50e      2604           move.l d4, d3
      0x005aa510      2817           move.l (a7), d4
      0x005aa512      4eb900407ff8   jsr fcn.00407ff8
      0x005aa518      584f           addq.w 0x4, a7
      0x005aa51a      2604           move.l d4, d3
      0x005aa51c      2817           move.l (a7), d4
      0x005aa51e      4eb900407dd4   jsr fcn.00407dd4
  < 0x005aa524      6604           bne.b 0x5aa52a
     0x005aa526      584f           addq.w 0x4, a7
  < 0x005aa528      6004           bra.b 0x5aa52e
  > 0x005aa52a      5207           addq.b 0x1, d7
       0x005aa52c      584f           addq.w 0x4, a7
  < 0x005aa52e      600000d0       bra.w fcn.005aa600
      0x005aa532      7e00           moveq 0x0, d7
      0x005aa534      2828001e       move.l 0x1e(a0), d4
      0x005aa538      263c3f800000   move.l 0x3f800000, d3
      0x005aa53e      4eb900407dd4   jsr fcn.00407dd4
  < 0x005aa544      6620           bne.b 0x5aa566
     0x005aa546      28280022       move.l 0x22(a0), d4
     0x005aa54a      263c3f800000   move.l 0x3f800000, d3
     0x005aa550      4eb900407dd4   jsr fcn.00407dd4
  < 0x005aa556      660e           bne.b 0x5aa566
     0x005aa558      28280026       move.l 0x26(a0), d4
     0x005aa55c      7600           moveq 0x0, d3
     0x005aa55e      4eb900407dd4   jsr fcn.00407dd4
  < 0x005aa564      6702           beq.b 0x5aa568
  > 0x005aa566      5207           addq.b 0x1, d7
  < 0x005aa568      60000096       bra.w fcn.005aa600
     0x005aa56c      7e00           moveq 0x0, d7
     0x005aa56e      382efda8       move.w -0x258(a6), d4
     0x005aa572      48c4           ext.l d4
     0x005aa574      4eb900408686   jsr fcn.00408686
     0x005aa57a      2f04           move.l d4, -(a7)
     0x005aa57c      382efdaa       move.w -0x256(a6), d4
     0x005aa580      48c4           ext.l d4
     0x005aa582      4eb900408686   jsr fcn.00408686
     0x005aa588      2604           move.l d4, d3
     0x005aa58a      2817           move.l (a7), d4
     0x005aa58c      4eb900407ff8   jsr fcn.00407ff8
     0x005aa592      2e84           move.l d4, (a7)
     0x005aa594      382efda4       move.w -0x25c(a6), d4
     0x005aa598      48c4           ext.l d4
     0x005aa59a      4eb900408686   jsr fcn.00408686
     0x005aa5a0      2f04           move.l d4, -(a7)
     0x005aa5a2      382efda6       move.w -0x25a(a6), d4
     0x005aa5a6      48c4           ext.l d4
     0x005aa5a8      4eb900408686   jsr fcn.00408686
     0x005aa5ae      2604           move.l d4, d3
     0x005aa5b0      2817           move.l (a7), d4
     0x005aa5b2      4eb900407ff8   jsr fcn.00407ff8
     0x005aa5b8      584f           addq.w 0x4, a7
     0x005aa5ba      2604           move.l d4, d3
     0x005aa5bc      2817           move.l (a7), d4
     0x005aa5be      4eb900407dd4   jsr fcn.00407dd4
  < 0x005aa5c4      6636           bne.b 0x5aa5fc
     0x005aa5c6      282efee2       move.l -0x11e(a6), d4
     0x005aa5ca      263c3f800000   move.l 0x3f800000, d3
     0x005aa5d0      4eb900407dd4   jsr fcn.00407dd4
  < 0x005aa5d6      6624           bne.b 0x5aa5fc
     0x005aa5d8      282efee6       move.l -0x11a(a6), d4
     0x005aa5dc      263c3f800000   move.l 0x3f800000, d3
     0x005aa5e2      4eb900407dd4   jsr fcn.00407dd4
  < 0x005aa5e8      6612           bne.b 0x5aa5fc
     0x005aa5ea      282efeea       move.l -0x116(a6), d4
     0x005aa5ee      7600           moveq 0x0, d3
     0x005aa5f0      4eb900407dd4   jsr fcn.00407dd4
  < 0x005aa5f6      6604           bne.b 0x5aa5fc
     0x005aa5f8      584f           addq.w 0x4, a7
  < 0x005aa5fa      6004           bra.b fcn.005aa600
  > 0x005aa5fc      5207           addq.b 0x1, d7
     0x005aa5fe      584f           addq.w 0x4, a7
     ; CODE XREF from K05_LOADSAVE.k_load @ 0x5aa3d0
 3276: fcn.005aa600 (int32_t arg_1h, int32_t arg_4h, int32_t arg_8h, int32_t arg_108h);
    ; var int32_t var_6944h @ a6-0x6944
    ; var int32_t var_693fh @ a6-0x693f
    ; var int32_t var_649dh @ a6-0x649d
    ; var int32_t var_6498h @ a6-0x6498
    ; var int32_t var_248h @ a6-0x248
    ; var int32_t var_125h @ a6-0x125
    ; var int32_t var_124h @ a6-0x124
    ; arg int32_t arg_1h @ a6+0x1
    ; arg int32_t arg_4h @ a6+0x4
    ; arg int32_t arg_8h @ a7+0x8
    ; arg int32_t arg_108h @ a7+0x108
 > 0x005aa600      102efed2       move.b -0x12e(a6), d0
         0x005aa604      4880           ext.w d0
         0x005aa606      41fa9cec       lea.l 0x5a42f4(pc), a0
         0x005aa60a      3200           move.w d0, d1
         0x005aa60c      e649           lsr.w 0x3, d1
         0x005aa60e      01301000       btst.l d0, (a0, d1.w)
     < 0x005aa612      6722           beq.b 0x5aa636
        0x005aa614      554f           subq.w 0x2, a7
        0x005aa616      4eb9004755c2   jsr CONFIG.cfg_gender
        0x005aa61c      101f           move.b (a7)+, d0
        0x005aa61e      0c000009       cmpi.b 0x9, d0
    < 0x005aa622      6612           bne.b 0x5aa636
       0x005aa624      302efda4       move.w -0x25c(a6), d0
       0x005aa628      b06efda8       cmp.w -0x258(a6), d0
   < 0x005aa62c      6708           beq.b 0x5aa636
      0x005aa62e      4a2efdb6       tst.b -0x24a(a6)
  < 0x005aa632      6602           bne.b 0x5aa636
     0x005aa634      7e01           moveq 0x1, d7
  > 0x005aa636      554f           subq.w 0x2, a7
         0x005aa638      1f3c0015       move.b 0x15, -(a7)
         0x005aa63c      4eb900598cca   jsr K01_DEBUG.k01_debug
         0x005aa642      544f           addq.w 0x2, a7
         0x005aa644      4a1f           tst.b (a7)+
     < 0x005aa646      67000158       beq.w 0x5aa7a0
        0x005aa64a      9efc0100       suba.w 0x100, a7
        0x005aa64e      2f2efda8       move.l -0x258(a6), -(a7)
        0x005aa652      48780000       pea.l 0x0
        0x005aa656      4eb90044dd86   jsr SYSTEM_STRING.point_str
        0x005aa65c      9efc00f8       suba.w 0xf8, a7
        0x005aa660      2f2efda4       move.l -0x25c(a6), -(a7)
        0x005aa664      48780000       pea.l 0x0
        0x005aa668      4eb90044dd86   jsr SYSTEM_STRING.point_str
        0x005aa66e      504f           addq.w 0x8, a7
        0x005aa670      487a9c8f       pea.l 0x5a4301(pc)
        0x005aa674      4878001a       pea.l 0x1a
        0x005aa678      2f17           move.l (a7), -(a7)
        0x005aa67a      4e93           jsr (a3)                    ; fcn.0000000c
        0x005aa67c      defc000a       adda.w 0xa, a7
        0x005aa680      1e87           move.b d7, (a7)
        0x005aa682      48780005       pea.l 0x5
        0x005aa686      4eb90040718c   jsr p_wtb_o
        0x005aa68c      5c4f           addq.w 0x6, a7
        0x005aa68e      487a9c8c       pea.l 0x5a431c(pc)
        0x005aa692      4878000a       pea.l 0xa
        0x005aa696      2f17           move.l (a7), -(a7)
        0x005aa698      4e93           jsr (a3)                    ; fcn.0000000c
        0x005aa69a      dec5           adda.w d5, a7
        0x005aa69c      486f0101       pea.l 0x101(a7)
        0x005aa6a0      42a7           clr.l -(a7)
        0x005aa6a2      1f6f01080003   move.b 0x108(a7), 0x3(a7)
        0x005aa6a8      2f17           move.l (a7), -(a7)
        0x005aa6aa      4e93           jsr (a3)                    ; fcn.0000000c
        0x005aa6ac      dec5           adda.w d5, a7
        0x005aa6ae      487a9c77       pea.l 0x5a4327(pc)
        0x005aa6b2      4878000a       pea.l 0xa
         0x005aa6b6      2f17           move.l (a7), -(a7)
         0x005aa6b8      4e93           jsr (a3)                    ; fcn.0000000c
         0x005aa6ba      dec5           adda.w d5, a7
         0x005aa6bc      486f0001       pea.l 0x1(a7)
         0x005aa6c0      42a7           clr.l -(a7)
         0x005aa6c2      1f6f00080003   move.b 0x8(a7), 0x3(a7)
         0x005aa6c8      2f17           move.l (a7), -(a7)
         0x005aa6ca      4e93           jsr (a3)                    ; fcn.0000000c
         0x005aa6cc      defc020c       adda.w 0x20c, a7
         0x005aa6d0      4eb900404946   jsr p_wtln_o
         0x005aa6d6      206e0008       movea.l 0x8(a6), a0
         0x005aa6da      9efc0108       suba.w 0x108, a7
         0x005aa6de      224f           movea.l a7, a1
         0x005aa6e0      45e8001e       lea.l 0x1e(a0), a2
         0x005aa6e4      7007           moveq 0x7, d0
     > 0x005aa6e6      12da           move.b (a2)+, (a1)+
     < 0x005aa6e8      51c8fffc       dbra d0, 0x5aa6e6
         0x005aa6ec      48780000       pea.l 0x0
         0x005aa6f0      48780005       pea.l 0x5
         0x005aa6f4      4eb90044e33c   jsr SYSTEM_STRING.rpoint_str
         0x005aa6fa      9efc00f0       suba.w 0xf0, a7
         0x005aa6fe      2f2efee6       move.l -0x11a(a6), -(a7)
         0x005aa702      2f2efee2       move.l -0x11e(a6), -(a7)
         0x005aa706      48780000       pea.l 0x0
         0x005aa70a      48780005       pea.l 0x5
         0x005aa70e      4eb90044e33c   jsr SYSTEM_STRING.rpoint_str
         0x005aa714      defc0010       adda.w 0x10, a7
         0x005aa718      487a9c18       pea.l 0x5a4332(pc)
         0x005aa71c      48780004       pea.l 0x4
         0x005aa720      2f17           move.l (a7), -(a7)
         0x005aa722      4e93           jsr (a3)                    ; fcn.0000000c
         0x005aa724      dec5           adda.w d5, a7
         0x005aa726      486f0101       pea.l 0x101(a7)
         0x005aa72a      42a7           clr.l -(a7)
         0x005aa72c      1f6f01080003   move.b 0x108(a7), 0x3(a7)
         0x005aa732      2f17           move.l (a7), -(a7)
         0x005aa734      4e93           jsr (a3)                    ; fcn.0000000c
         0x005aa736      dec5           adda.w d5, a7
         0x005aa738      487a9bfd       pea.l 0x5a4337(pc)
         0x005aa73c      48780006       pea.l 0x6
         0x005aa740      2f17           move.l (a7), -(a7)
         0x005aa742      4e93           jsr (a3)                    ; fcn.0000000c
         0x005aa744      504f           addq.w 0x8, a7
         0x005aa746      2ea80026       move.l 0x26(a0), (a7)
         0x005aa74a      48780000       pea.l 0x0
         0x005aa74e      48780005       pea.l 0x5
         0x005aa752      4eb900439f72   jsr P17_FRDWRT.p_wtf2_o
         0x005aa758      dec5           adda.w d5, a7
         0x005aa75a      487a9be2       pea.l 0x5a433e(pc)
         0x005aa75e      4878000a       pea.l 0xa
         0x005aa762      2f17           move.l (a7), -(a7)
         0x005aa764      4e93           jsr (a3)                    ; fcn.0000000c
         0x005aa766      dec5           adda.w d5, a7
         0x005aa768      486f0001       pea.l 0x1(a7)
         0x005aa76c      42a7           clr.l -(a7)
         0x005aa76e      1f6f00080003   move.b 0x8(a7), 0x3(a7)
         0x005aa774      2f17           move.l (a7), -(a7)
         0x005aa776      4e93           jsr (a3)                    ; fcn.0000000c
         0x005aa778      defc020c       adda.w 0x20c, a7
         0x005aa77c      487a9bcb       pea.l 0x5a4349(pc)
         0x005aa780      4878000a       pea.l 0xa
         0x005aa784      2f17           move.l (a7), -(a7)
         0x005aa786      4e93           jsr (a3)                    ; fcn.0000000c
         0x005aa788      504f           addq.w 0x8, a7
         0x005aa78a      2eaefeea       move.l -0x116(a6), (a7)
         0x005aa78e      48780000       pea.l 0x0
         0x005aa792      48780005       pea.l 0x5
         0x005aa796      4eb900439f72   jsr P17_FRDWRT.p_wtf2_o
         0x005aa79c      dec5           adda.w d5, a7
     < 0x005aa79e      6024           bra.b 0x5aa7c4
     > 0x005aa7a0      4a07           tst.b d7
     < 0x005aa7a2      6726           beq.b 0x5aa7ca
        0x005aa7a4      554f           subq.w 0x2, a7
        0x005aa7a6      1f3c001f       move.b 0x1f, -(a7)
        0x005aa7aa      4eb900598cca   jsr K01_DEBUG.k01_debug
        0x005aa7b0      544f           addq.w 0x2, a7
        0x005aa7b2      4a1f           tst.b (a7)+
    < 0x005aa7b4      6714           beq.b 0x5aa7ca
       0x005aa7b6      487a9b9c       pea.l 0x5a4354(pc)
       0x005aa7ba      48780027       pea.l 0x27
       0x005aa7be      2f17           move.l (a7), -(a7)
       0x005aa7c0      4e93           jsr (a3)                    ; fcn.0000000c
       0x005aa7c2      dec5           adda.w d5, a7
       ; CODE XREF from fcn.005aa600 @ 0x5aa79e
    > 0x005aa7c4      4eb900404946   jsr p_wtln_o
    > 0x005aa7ca      2f2e001e       move.l 0x1e(a6), -(a7)
          0x005aa7ce      2f2e001a       move.l 0x1a(a6), -(a7)
          0x005aa7d2      3f2e0018       move.w 0x18(a6), -(a7)
          0x005aa7d6      2f2efdb8       move.l -0x248(a6), -(a7)
          0x005aa7da      486efed4       pea.l -0x12c(a6)
          0x005aa7de      486efeda       pea.l -0x126(a6)
          0x005aa7e2      486efdc6       pea.l -0x23a(a6)
          0x005aa7e6      486efdca       pea.l -0x236(a6)
          0x005aa7ea      4ebaf4f4       jsr K05_LOADSAVE.calc_params(pc)
          0x005aa7ee      defc001e       adda.w 0x1e, a7
          0x005aa7f2      102e0016       move.b 0x16(a6), d0
          0x005aa7f6      0c000003       cmpi.b 0x3, d0
      < 0x005aa7fa      6626           bne.b 0x5aa822
         0x005aa7fc      302efdb8       move.w -0x248(a6), d0
         0x005aa800      0c401000       cmpi.w 0x1000, d0
     < 0x005aa804      6e0c           bgt.b 0x5aa812
        0x005aa806      302efdba       move.w -0x246(a6), d0
        0x005aa80a      0c400ae0       cmpi.w 0xae0, d0
    < 0x005aa80e      6f0000b0       ble.w 0x5aa8c0
    > 0x005aa812      1d7a9b68fedb   move.b 0x5a437c(pc), -0x125(a6)
        0x005aa818      1d7a9b63fedc   move.b 0x5a437d(pc), -0x124(a6)
    < 0x005aa81e      6000009c       bra.w 0x5aa8bc
    > 0x005aa822      302efdb8       move.w -0x248(a6), d0
        0x005aa826      0c400b48       cmpi.w 0xb48, d0
    < 0x005aa82a      6e0c           bgt.b 0x5aa838
       0x005aa82c      322efdba       move.w -0x246(a6), d1
       0x005aa830      0c410824       cmpi.w 0x824, d1
   < 0x005aa834      6f00008a       ble.w 0x5aa8c0
   > 0x005aa838      206e0008       movea.l 0x8(a6), a0
       0x005aa83c      48c0           ext.l d0
       0x005aa83e      2200           move.l d0, d1
       0x005aa840      83fc0004       divs.w 0x4, d1
       0x005aa844      c3fc0002       muls.w 0x2, d1
       0x005aa848      3141000c       move.w d1, 0xc(a0)
       0x005aa84c      322efdba       move.w -0x246(a6), d1
       0x005aa850      48c1           ext.l d1
       0x005aa852      83fc0002       divs.w 0x2, d1
       0x005aa856      3141000e       move.w d1, 0xe(a0)
       0x005aa85a      3228000c       move.w 0xc(a0), d1
       0x005aa85e      48c1           ext.l d1
       0x005aa860      4481           neg.l d1
       0x005aa862      068100000af0   addi.l 0xaf0, d1
       0x005aa868      2801           move.l d1, d4
       0x005aa86a      7602           moveq 0x2, d3
       0x005aa86c      4eb900406b50   jsr fcn.00406b50
       0x005aa872      31440008       move.w d4, 0x8(a0)
       0x005aa876      3228000e       move.w 0xe(a0), d1
       0x005aa87a      48c1           ext.l d1
       0x005aa87c      4481           neg.l d1
       0x005aa87e      068100000820   addi.l 0x820, d1
       0x005aa884      2801           move.l d1, d4
       0x005aa886      7602           moveq 0x2, d3
       0x005aa888      4eb900406b50   jsr fcn.00406b50
       0x005aa88e      06440080       addi.w 0x80, d4
       0x005aa892      3144000a       move.w d4, 0xa(a0)
       0x005aa896      226e002a       movea.l 0x2a(a6), a1
       0x005aa89a      4851           pea.l (a1)
       0x005aa89c      2f2efdb8       move.l -0x248(a6), -(a7)
       0x005aa8a0      514f           subq.w 0x8, a7
       0x005aa8a2      224f           movea.l a7, a1
       0x005aa8a4      41e80008       lea.l 0x8(a0), a0
       0x005aa8a8      7207           moveq 0x7, d1
   > 0x005aa8aa      12d8           move.b (a0)+, (a1)+
   < 0x005aa8ac      51c9fffc       dbra d1, 0x5aa8aa
       0x005aa8b0      49eefd4a       lea.l -0x2b6(a6), a4
       0x005aa8b4      4ebaf4f0       jsr K05_LOADSAVE.transfer_via_ra(pc)
       0x005aa8b8      defc0010       adda.w 0x10, a7
       ; CODE XREF from fcn.005aa600 @ 0x5aa81e
   < 0x005aa8bc      600009e8       bra.w 0x5ab2a6
   > 0x005aa8c0      2c2e0022       move.l 0x22(a6), d6
         0x005aa8c4      102e0018       move.b 0x18(a6), d0
         0x005aa8c8      0c000004       cmpi.b 0x4, d0
     < 0x005aa8cc      6604           bne.b 0x5aa8d2
        0x005aa8ce      9caefdca       sub.l -0x236(a6), d6
     > 0x005aa8d2      4a2efdb6       tst.b -0x24a(a6)
     < 0x005aa8d6      670a           beq.b 0x5aa8e2
        0x005aa8d8      4a07           tst.b d7
    < 0x005aa8da      6606           bne.b 0x5aa8e2
       0x005aa8dc      0286fff80000   andi.l 0xfff80000, d6
    > 0x005aa8e2      422efdb4       clr.b -0x24c(a6)
         0x005aa8e6      4a2e0016       tst.b 0x16(a6)
     < 0x005aa8ea      6744           beq.b 0x5aa930
        0x005aa8ec      102e0018       move.b 0x18(a6), d0
        0x005aa8f0      4880           ext.w d0
        0x005aa8f2      41fa9a8a       lea.l 0x5a437e(pc), a0
        0x005aa8f6      3200           move.w d0, d1
        0x005aa8f8      e649           lsr.w 0x3, d1
        0x005aa8fa      01301000       btst.l d0, (a0, d1.w)
    < 0x005aa8fe      6630           bne.b 0x5aa930
       0x005aa900      1007           move.b d7, d0
       0x005aa902      4400           neg.b d0
       0x005aa904      5200           addq.b 0x1, d0
   < 0x005aa906      672c           beq.b 0x5aa934
      0x005aa908      102e0018       move.b 0x18(a6), d0
      0x005aa90c      4880           ext.w d0
      0x005aa90e      41fa9a72       lea.l 0x5a4382(pc), a0
      0x005aa912      3200           move.w d0, d1
      0x005aa914      e649           lsr.w 0x3, d1
      0x005aa916      01301000       btst.l d0, (a0, d1.w)
  < 0x005aa91a      6718           beq.b 0x5aa934
     0x005aa91c      2006           move.l d6, d0
     0x005aa91e      02800007ffff   andi.l 0x7ffff, d0
 < 0x005aa924      660e           bne.b 0x5aa934
    0x005aa926      302efdb8       move.w -0x248(a6), d0
    0x005aa92a      02400007       andi.w 0x7, d0
 < 0x005aa92e      6604           bne.b 0x5aa934
 > 0x005aa930      522efdb4       addq.b 0x1, -0x24c(a6)
 > 0x005aa934      4a2efdb4       tst.b -0x24c(a6)
     < 0x005aa938      67000214       beq.w 0x5aab4e
        0x005aa93c      202e0022       move.l 0x22(a6), d0
        0x005aa940      90aefdca       sub.l -0x236(a6), d0
        0x005aa944      0280fff80000   andi.l 0xfff80000, d0
        0x005aa94a      2d400022       move.l d0, 0x22(a6)
        0x005aa94e      202e0026       move.l 0x26(a6), d0
        0x005aa952      90aefdce       sub.l -0x232(a6), d0
        0x005aa956      2d400026       move.l d0, 0x26(a6)
        0x005aa95a      1f2e0016       move.b 0x16(a6), -(a7)
        0x005aa95e      2f2e0010       move.l 0x10(a6), -(a7)
        0x005aa962      2f2e000c       move.l 0xc(a6), -(a7)
        0x005aa966      4eb9005223fc   jsr BRUSHCOM.str_write_area
        0x005aa96c      defc000a       adda.w 0xa, a7
        0x005aa970      4a2e0016       tst.b 0x16(a6)
    < 0x005aa974      6626           bne.b 0x5aa99c
       0x005aa976      102e0018       move.b 0x18(a6), d0
       0x005aa97a      4880           ext.w d0
       0x005aa97c      41fa9a08       lea.l 0x5a4386(pc), a0
       0x005aa980      3200           move.w d0, d1
       0x005aa982      e649           lsr.w 0x3, d1
       0x005aa984      01301000       btst.l d0, (a0, d1.w)
   < 0x005aa988      6612           bne.b 0x5aa99c
      0x005aa98a      2f2e0026       move.l 0x26(a6), -(a7)
      0x005aa98e      2f2e0022       move.l 0x22(a6), -(a7)
      0x005aa992      2f2efdb8       move.l -0x248(a6), -(a7)
      0x005aa996      4ebaec04       jsr K05_LOADSAVE.fix_diskstore_c(pc)
      0x005aa99a      dec5           adda.w d5, a7
   > 0x005aa99c      554f           subq.w 0x2, a7
        0x005aa99e      102efd9e       move.b -0x262(a6), d0
        0x005aa9a2      4880           ext.w d0
        0x005aa9a4      41bc0007       chk.w 0x7, d0
        0x005aa9a8      1f00           move.b d0, -(a7)
        0x005aa9aa      486efd94       pea.l -0x26c(a6)
        0x005aa9ae      2f2e0026       move.l 0x26(a6), -(a7)
        0x005aa9b2      2f2e0022       move.l 0x22(a6), -(a7)
        0x005aa9b6      102efeda       move.b -0x126(a6), d0
        0x005aa9ba      4880           ext.w d0
        0x005aa9bc      41bc0001       chk.w 0x1, d0
        0x005aa9c0      1f00           move.b d0, -(a7)
        0x005aa9c2      2f2efed6       move.l -0x12a(a6), -(a7)
        0x005aa9c6      3f2efed4       move.w -0x12c(a6), -(a7)
        0x005aa9ca      486efdc6       pea.l -0x23a(a6)
        0x005aa9ce      1f2e0016       move.b 0x16(a6), -(a7)
        0x005aa9d2      1f2e0014       move.b 0x14(a6), -(a7)
        0x005aa9d6      4227           clr.b -(a7)
        0x005aa9d8      4eb9005ac13e   jsr K1_AFS_ONLY.k1_load
        0x005aa9de      defc0020       adda.w 0x20, a7
        0x005aa9e2      1d57fedb       move.b (a7), -0x125(a6)
        0x005aa9e6      1d6f0001fedc   move.b 0x1(a7), -0x124(a6)
        0x005aa9ec      544f           addq.w 0x2, a7
        0x005aa9ee      206e0008       movea.l 0x8(a6), a0
        0x005aa9f2      282e0022       move.l 0x22(a6), d4
        0x005aa9f6      263c00010000   move.l 0x10000, d3
        0x005aa9fc      4eb900406b50   jsr fcn.00406b50
        0x005aaa02      31440008       move.w d4, 0x8(a0)
        0x005aaa06      282e0026       move.l 0x26(a6), d4
        0x005aaa0a      263c00010000   move.l 0x10000, d3
        0x005aaa10      4eb900406b50   jsr fcn.00406b50
        0x005aaa16      3144000a       move.w d4, 0xa(a0)
        0x005aaa1a      316efdb8000c   move.w -0x248(a6), 0xc(a0)
        0x005aaa20      316efdba000e   move.w -0x246(a6), 0xe(a0)
        0x005aaa26      9efc00fe       suba.w 0xfe, a7
        0x005aaa2a      2f3a995e       move.l 0x5a438a(pc), -(a7)
        0x005aaa2e      2f7a995e0004   move.l 0x5a438e(pc), 0x4(a7)
        0x005aaa34      554f           subq.w 0x2, a7
        0x005aaa36      1eaefedb       move.b -0x125(a6), (a7)
        0x005aaa3a      1f6efedc0001   move.b -0x124(a6), 0x1(a7)
        0x005aaa40      4eba9ab6       jsr K05_LOADSAVE.warn_if_fail(pc)
        0x005aaa44      defc0102       adda.w 0x102, a7
        0x005aaa48      4a1f           tst.b (a7)+
        0x005aaa4a      4a6efdb8       tst.w -0x248(a6)
    < 0x005aaa4e      6700008c       beq.w 0x5aaadc
       0x005aaa52      4a6efdba       tst.w -0x246(a6)
   < 0x005aaa56      67000084       beq.w 0x5aaadc
      0x005aaa5a      302efdc6       move.w -0x23a(a6), d0
      0x005aaa5e      b06efdb8       cmp.w -0x248(a6), d0
  < 0x005aaa62      660a           bne.b 0x5aaa6e
     0x005aaa64      302efdc8       move.w -0x238(a6), d0
     0x005aaa68      b06efdba       cmp.w -0x246(a6), d0
 < 0x005aaa6c      676e           beq.b 0x5aaadc
 > 0x005aaa6e      9efc0100       suba.w 0x100, a7
     0x005aaa72      2f2efdb8       move.l -0x248(a6), -(a7)
     0x005aaa76      48780000       pea.l 0x0
     0x005aaa7a      4eb90044dd86   jsr SYSTEM_STRING.point_str
     0x005aaa80      9efc00f8       suba.w 0xf8, a7
     0x005aaa84      2f2efdc6       move.l -0x23a(a6), -(a7)
     0x005aaa88      48780000       pea.l 0x0
     0x005aaa8c      4eb90044dd86   jsr SYSTEM_STRING.point_str
     0x005aaa92      504f           addq.w 0x8, a7
     0x005aaa94      487a98fd       pea.l 0x5a4393(pc)
     0x005aaa98      48780019       pea.l 0x19
     0x005aaa9c      2f17           move.l (a7), -(a7)
     0x005aaa9e      4e93           jsr (a3)                    ; fcn.0000000c
     0x005aaaa0      dec5           adda.w d5, a7
     0x005aaaa2      486f0101       pea.l 0x101(a7)
     0x005aaaa6      42a7           clr.l -(a7)
     0x005aaaa8      1f6f01080003   move.b 0x108(a7), 0x3(a7)
     0x005aaaae      2f17           move.l (a7), -(a7)
     0x005aaab0      4e93           jsr (a3)                    ; fcn.0000000c
     0x005aaab2      dec5           adda.w d5, a7
     0x005aaab4      487a98f7       pea.l 0x5a43ad(pc)
     0x005aaab8      4878000b       pea.l 0xb
     0x005aaabc      2f17           move.l (a7), -(a7)
     0x005aaabe      4e93           jsr (a3)                    ; fcn.0000000c
     0x005aaac0      dec5           adda.w d5, a7
     0x005aaac2      486f0001       pea.l 0x1(a7)
     0x005aaac6      42a7           clr.l -(a7)
     0x005aaac8      1f6f00080003   move.b 0x8(a7), 0x3(a7)
     0x005aaace      2f17           move.l (a7), -(a7)
     0x005aaad0      4e93           jsr (a3)                    ; fcn.0000000c
     0x005aaad2      defc020c       adda.w 0x20c, a7
     0x005aaad6      4eb900404946   jsr p_wtln_o
 > 0x005aaadc      1028001b       move.b 0x1b(a0), d0
        0x005aaae0      0c000003       cmpi.b 0x3, d0
    < 0x005aaae4      6612           bne.b 0x5aaaf8
       0x005aaae6      20bc3f800000   move.l 0x3f800000, (a0)
       0x005aaaec      217c3f800000.  move.l 0x3f800000, 0x4(a0)
   < 0x005aaaf4      60000752       bra.w 0x5ab248
   > 0x005aaaf8      382efda8       move.w -0x258(a6), d4
       0x005aaafc      48c4           ext.l d4
       0x005aaafe      4eb900408686   jsr fcn.00408686
       0x005aab04      2f04           move.l d4, -(a7)
       0x005aab06      382efda4       move.w -0x25c(a6), d4
       0x005aab0a      48c4           ext.l d4
       0x005aab0c      4eb900408686   jsr fcn.00408686
       0x005aab12      2604           move.l d4, d3
       0x005aab14      2817           move.l (a7), d4
       0x005aab16      4eb900407ff8   jsr fcn.00407ff8
       0x005aab1c      584f           addq.w 0x4, a7
       0x005aab1e      2084           move.l d4, (a0)
       0x005aab20      382efdaa       move.w -0x256(a6), d4
       0x005aab24      48c4           ext.l d4
       0x005aab26      4eb900408686   jsr fcn.00408686
       0x005aab2c      2f04           move.l d4, -(a7)
       0x005aab2e      382efda6       move.w -0x25a(a6), d4
       0x005aab32      48c4           ext.l d4
       0x005aab34      4eb900408686   jsr fcn.00408686
       0x005aab3a      2604           move.l d4, d3
       0x005aab3c      2817           move.l (a7), d4
       0x005aab3e      4eb900407ff8   jsr fcn.00407ff8
       0x005aab44      584f           addq.w 0x4, a7
       0x005aab46      21440004       move.l d4, 0x4(a0)
   < 0x005aab4a      600006fc       bra.w 0x5ab248
   > 0x005aab4e      554f           subq.w 0x2, a7
       0x005aab50      1f3c0015       move.b 0x15, -(a7)
       0x005aab54      4eb900598cca   jsr K01_DEBUG.k01_debug
       0x005aab5a      544f           addq.w 0x2, a7
       0x005aab5c      4a1f           tst.b (a7)+
   < 0x005aab5e      6714           beq.b 0x5aab74
      0x005aab60      487a9857       pea.l 0x5a43b9(pc)
      0x005aab64      48780012       pea.l 0x12
      0x005aab68      2f17           move.l (a7), -(a7)
      0x005aab6a      4e93           jsr (a3)                    ; fcn.0000000c
      0x005aab6c      dec5           adda.w d5, a7
      0x005aab6e      4eb900404946   jsr p_wtln_o
   > 0x005aab74      554f           subq.w 0x2, a7
       0x005aab76      2f390083ff92   move.l 0x83ff92, -(a7)
       0x005aab7c      486efeee       pea.l -0x112(a6)
       0x005aab80      4eb9006328e4   jsr CACHECOM.cache_loaded
       0x005aab86      504f           addq.w 0x8, a7
       0x005aab88      4a1f           tst.b (a7)+
   < 0x005aab8a      673a           beq.b 0x5aabc6
      0x005aab8c      554f           subq.w 0x2, a7
      0x005aab8e      2f390083ff8c   move.l 0x83ff8c, -(a7)
      0x005aab94      2f390083ff88   move.l 0x83ff88, -(a7)
      0x005aab9a      3f390083ff86   move.w 0x83ff86, -(a7)
      0x005aaba0      2f2efd9a       move.l -0x266(a6), -(a7)
      0x005aaba4      2f2efd96       move.l -0x26a(a6), -(a7)
      0x005aaba8      3f2efd94       move.w -0x26c(a6), -(a7)
      0x005aabac      4eba9a74       jsr K05_LOADSAVE.fids_eq(pc)
      0x005aabb0      defc0014       adda.w 0x14, a7
      0x005aabb4      4a1f           tst.b (a7)+
  < 0x005aabb6      670e           beq.b 0x5aabc6
     0x005aabb8      10390083ff90   move.b 0x83ff90, d0
     0x005aabbe      b02e0018       cmp.b 0x18(a6), d0
 < 0x005aabc2      6700021a       beq.w 0x5aadde
 > 0x005aabc6      302efdb8       move.w -0x248(a6), d0
      0x005aabca      48c0           ext.l d0
      0x005aabcc      5e80           addq.l 0x7, d0
      0x005aabce      02800000fff8   andi.l 0xfff8, d0
      0x005aabd4      0480ffff8000   subi.l 0xffff8000, d0
      0x005aabda      0c800000ffff   cmpi.l 0xffff, d0
  < 0x005aabe0      6302           bls.b 0x5aabe4
     0x005aabe2      4e4f           trap 0xf
  > 0x005aabe4      0680ffff8000   addi.l 0xffff8000, d0
      0x005aabea      3d40fef2       move.w d0, -0x10e(a6)
      0x005aabee      302efdba       move.w -0x246(a6), d0
      0x005aabf2      48c0           ext.l d0
      0x005aabf4      5680           addq.l 0x3, d0
      0x005aabf6      02800000fffc   andi.l 0xfffc, d0
      0x005aabfc      0480ffff8000   subi.l 0xffff8000, d0
      0x005aac02      0c800000ffff   cmpi.l 0xffff, d0
  < 0x005aac08      6302           bls.b 0x5aac0c
     0x005aac0a      4e4f           trap 0xf
  > 0x005aac0c      0680ffff8000   addi.l 0xffff8000, d0
      0x005aac12      3d40fef4       move.w d0, -0x10c(a6)
      0x005aac16      554f           subq.w 0x2, a7
      0x005aac18      4227           clr.b -(a7)
      0x005aac1a      48790083ff92   pea.l 0x83ff92
      0x005aac20      486efeee       pea.l -0x112(a6)
      0x005aac24      4eb900632858   jsr CACHECOM.new_cache_rec
      0x005aac2a      defc000a       adda.w 0xa, a7
      0x005aac2e      4a1f           tst.b (a7)+
  < 0x005aac30      6722           beq.b 0x5aac54
     0x005aac32      23eefd940083.  move.l -0x26c(a6), 0x83ff86.l
     0x005aac3a      23eefd980083.  move.l -0x268(a6), 0x83ff8a.l
     0x005aac42      33eefd9c0083.  move.w -0x264(a6), 0x83ff8e.l
     0x005aac4a      13ee00180083.  move.b 0x18(a6), 0x83ff90.l
 < 0x005aac52      6078           bra.b 0x5aaccc
 > 0x005aac54      487a9776       pea.l 0x5a43cc(pc)
     0x005aac58      48780034       pea.l 0x34
     0x005aac5c      2f17           move.l (a7), -(a7)
     0x005aac5e      4e93           jsr (a3)                    ; fcn.0000000c
     0x005aac60      dec5           adda.w d5, a7
     0x005aac62      302efef2       move.w -0x10e(a6), d0
     0x005aac66      48c0           ext.l d0
     0x005aac68      2f00           move.l d0, -(a7)
     0x005aac6a      4878000c       pea.l 0xc
     0x005aac6e      4eb9004070e4   jsr p_wti_o
     0x005aac74      504f           addq.w 0x8, a7
     0x005aac76      302efef4       move.w -0x10c(a6), d0
     0x005aac7a      48c0           ext.l d0
     0x005aac7c      2f00           move.l d0, -(a7)
     0x005aac7e      4878000c       pea.l 0xc
     0x005aac82      4eb9004070e4   jsr p_wti_o
     0x005aac88      504f           addq.w 0x8, a7
     0x005aac8a      4eb900404946   jsr p_wtln_o
     0x005aac90      1f3a976e       move.b 0x5a4400(pc), -(a7)
     0x005aac94      4eb90063278a   jsr CACHECOM.clear_cache
     0x005aac9a      544f           addq.w 0x2, a7
     0x005aac9c      48790083ff92   pea.l 0x83ff92
     0x005aaca2      4eb900632826   jsr CACHECOM.remove_cache_re
     0x005aaca8      584f           addq.w 0x4, a7
     0x005aacaa      23fa97560083.  move.l 0x5a4402(pc), 0x83ff86.l
     0x005aacb2      23fa97520083.  move.l 0x5a4406(pc), 0x83ff8a.l
     0x005aacba      33fa974e0083.  move.w 0x5a440a(pc), 0x83ff8e.l
     0x005aacc2      426efeee       clr.w -0x112(a6)
     0x005aacc6      3d7c0080fef0   move.w 0x80, -0x110(a6)
     ; CODE XREF from fcn.005aa600 @ 0x5aac52
 > 0x005aaccc      302efeee       move.w -0x112(a6), d0
      0x005aacd0      48c0           ext.l d0
      0x005aacd2      e180           asl.l 0x8, d0
      0x005aacd4      e180           asl.l 0x8, d0
      0x005aacd6      2d40fef6       move.l d0, -0x10a(a6)
      0x005aacda      302efef0       move.w -0x110(a6), d0
      0x005aacde      48c0           ext.l d0
      0x005aace0      e180           asl.l 0x8, d0
      0x005aace2      e180           asl.l 0x8, d0
      0x005aace4      2d40fefa       move.l d0, -0x106(a6)
      0x005aace8      2f2efefa       move.l -0x106(a6), -(a7)
      0x005aacec      2f2efef6       move.l -0x10a(a6), -(a7)
      0x005aacf0      2f2efdb8       move.l -0x248(a6), -(a7)
      0x005aacf4      4ebae8a6       jsr K05_LOADSAVE.fix_diskstore_c(pc)
      0x005aacf8      504f           addq.w 0x8, a7
      0x005aacfa      1ebc0015       move.b 0x15, (a7)
      0x005aacfe      4eb900598cca   jsr K01_DEBUG.k01_debug
      0x005aad04      544f           addq.w 0x2, a7
      0x005aad06      4a1f           tst.b (a7)+
  < 0x005aad08      6742           beq.b 0x5aad4c
     0x005aad0a      9efc0100       suba.w 0x100, a7
     0x005aad0e      2f2efefa       move.l -0x106(a6), -(a7)
     0x005aad12      2f2efef6       move.l -0x10a(a6), -(a7)
     0x005aad16      1f3c0001       move.b 0x1, -(a7)
     0x005aad1a      4eb90044e0e4   jsr SYSTEM_STRING.hpoint_str
     0x005aad20      defc000a       adda.w 0xa, a7
     0x005aad24      487a96e7       pea.l 0x5a440d(pc)
     0x005aad28      4878000b       pea.l 0xb
     0x005aad2c      2f17           move.l (a7), -(a7)
     0x005aad2e      4e93           jsr (a3)                    ; fcn.0000000c
     0x005aad30      dec5           adda.w d5, a7
     0x005aad32      486f0001       pea.l 0x1(a7)
     0x005aad36      42a7           clr.l -(a7)
     0x005aad38      1f6f00080003   move.b 0x8(a7), 0x3(a7)
     0x005aad3e      2f17           move.l (a7), -(a7)
     0x005aad40      4e93           jsr (a3)                    ; fcn.0000000c
     0x005aad42      defc010c       adda.w 0x10c, a7
     0x005aad46      4eb900404946   jsr p_wtln_o
  > 0x005aad4c      102e0018       move.b 0x18(a6), d0
      0x005aad50      0c000007       cmpi.b 0x7, d0
  < 0x005aad54      6636           bne.b 0x5aad8c
     0x005aad56      1d7a96c1fedb   move.b 0x5a4419(pc), -0x125(a6)
     0x005aad5c      1d7a96bcfedc   move.b 0x5a441a(pc), -0x124(a6)
     0x005aad62      2f2efd9a       move.l -0x266(a6), -(a7)
     0x005aad66      2f2efd96       move.l -0x26a(a6), -(a7)
     0x005aad6a      3f2efd94       move.w -0x26c(a6), -(a7)
     0x005aad6e      4227           clr.b -(a7)
     0x005aad70      2f2efef2       move.l -0x10e(a6), -(a7)
     0x005aad74      2f2efeee       move.l -0x112(a6), -(a7)
     0x005aad78      4eb900708252   jsr DENNIS_DUMMY.load_mid_clip_f
     0x005aad7e      defc0014       adda.w 0x14, a7
     0x005aad82      2d6efdb8fdc6   move.l -0x248(a6), -0x23a(a6)
 < 0x005aad88      60000098       bra.w 0x5aae22
 > 0x005aad8c      554f           subq.w 0x2, a7
     0x005aad8e      102efd9e       move.b -0x262(a6), d0
     0x005aad92      4880           ext.w d0
     0x005aad94      41bc0007       chk.w 0x7, d0
     0x005aad98      1f00           move.b d0, -(a7)
     0x005aad9a      486efd94       pea.l -0x26c(a6)
     0x005aad9e      2f2efefa       move.l -0x106(a6), -(a7)
     0x005aada2      2f2efef6       move.l -0x10a(a6), -(a7)
     0x005aada6      102efeda       move.b -0x126(a6), d0
     0x005aadaa      4880           ext.w d0
     0x005aadac      41bc0001       chk.w 0x1, d0
     0x005aadb0      1f00           move.b d0, -(a7)
     0x005aadb2      2f2efed6       move.l -0x12a(a6), -(a7)
     0x005aadb6      3f2efed4       move.w -0x12c(a6), -(a7)
     0x005aadba      486efdc6       pea.l -0x23a(a6)
     0x005aadbe      4227           clr.b -(a7)
     0x005aadc0      1f2e0014       move.b 0x14(a6), -(a7)
     0x005aadc4      4227           clr.b -(a7)
     0x005aadc6      4eb9005ac13e   jsr K1_AFS_ONLY.k1_load
     0x005aadcc      defc0020       adda.w 0x20, a7
     0x005aadd0      1d57fedb       move.b (a7), -0x125(a6)
     0x005aadd4      1d6f0001fedc   move.b 0x1(a7), -0x124(a6)
     0x005aadda      544f           addq.w 0x2, a7
 < 0x005aaddc      6044           bra.b 0x5aae22
 > 0x005aadde      2d6efdb8fdc6   move.l -0x248(a6), -0x23a(a6)
     0x005aade4      487a9636       pea.l 0x5a441c(pc)
     0x005aade8      48780019       pea.l 0x19
     0x005aadec      2f17           move.l (a7), -(a7)
     0x005aadee      4e93           jsr (a3)                    ; fcn.0000000c
     0x005aadf0      dec5           adda.w d5, a7
     0x005aadf2      4eb900404946   jsr p_wtln_o
     0x005aadf8      9efc0100       suba.w 0x100, a7
     0x005aadfc      2f2efef2       move.l -0x10e(a6), -(a7)
     0x005aae00      2f2efeee       move.l -0x112(a6), -(a7)
     0x005aae04      48780000       pea.l 0x0
     0x005aae08      4ebaee7a       jsr K05_LOADSAVE.fix_sizing(pc)
     0x005aae0c      dec5           adda.w d5, a7
     0x005aae0e      41eefeff       lea.l -0x101(a6), a0
     0x005aae12      224f           movea.l a7, a1
     0x005aae14      303c00ff       move.w 0xff, d0
 > 0x005aae18      10d9           move.b (a1)+, (a0)+
 < 0x005aae1a      51c8fffc       dbra d0, 0x5aae18
     0x005aae1e      defc0100       adda.w 0x100, a7
     ; CODE XREFS from fcn.005aa600 @ 0x5aad88, 0x5aaddc
  > 0x005aae22      9efc0102       suba.w 0x102, a7
       0x005aae26      204f           movea.l a7, a0
       0x005aae28      43fa960b       lea.l 0x5a4435(pc), a1
       0x005aae2c      701c           moveq 0x1c, d0
   > 0x005aae2e      10d9           move.b (a1)+, (a0)+
   < 0x005aae30      51c8fffc       dbra d0, 0x5aae2e
       0x005aae34      554f           subq.w 0x2, a7
       0x005aae36      1eaefedb       move.b -0x125(a6), (a7)
       0x005aae3a      1f6efedc0001   move.b -0x124(a6), 0x1(a7)
       0x005aae40      4eba96b6       jsr K05_LOADSAVE.warn_if_fail(pc)
       0x005aae44      defc0102       adda.w 0x102, a7
       0x005aae48      4a1f           tst.b (a7)+
   < 0x005aae4a      6712           beq.b 0x5aae5e
      0x005aae4c      48790083ff92   pea.l 0x83ff92
      0x005aae52      4eb900632826   jsr CACHECOM.remove_cache_re
      0x005aae58      584f           addq.w 0x4, a7
  < 0x005aae5a      600003ec       bra.w 0x5ab248
  > 0x005aae5e      554f           subq.w 0x2, a7
      0x005aae60      1f3c0015       move.b 0x15, -(a7)
      0x005aae64      4eb900598cca   jsr K01_DEBUG.k01_debug
      0x005aae6a      544f           addq.w 0x2, a7
      0x005aae6c      4a1f           tst.b (a7)+
  < 0x005aae6e      673c           beq.b 0x5aaeac
     0x005aae70      9efc0100       suba.w 0x100, a7
     0x005aae74      2f2efdc6       move.l -0x23a(a6), -(a7)
     0x005aae78      48780000       pea.l 0x0
     0x005aae7c      4eb90044dd86   jsr SYSTEM_STRING.point_str
     0x005aae82      504f           addq.w 0x8, a7
     0x005aae84      487a95cd       pea.l 0x5a4453(pc)
     0x005aae88      4878000c       pea.l 0xc
     0x005aae8c      2f17           move.l (a7), -(a7)
     0x005aae8e      4e93           jsr (a3)                    ; fcn.0000000c
     0x005aae90      dec5           adda.w d5, a7
     0x005aae92      486f0001       pea.l 0x1(a7)
     0x005aae96      42a7           clr.l -(a7)
     0x005aae98      1f6f00080003   move.b 0x8(a7), 0x3(a7)
     0x005aae9e      2f17           move.l (a7), -(a7)
     0x005aaea0      4e93           jsr (a3)                    ; fcn.0000000c
     0x005aaea2      defc010c       adda.w 0x10c, a7
     0x005aaea6      4eb900404946   jsr p_wtln_o
  > 0x005aaeac      4a6efdb8       tst.w -0x248(a6)
  < 0x005aaeb0      67000192       beq.w 0x5ab044
     0x005aaeb4      4a6efdba       tst.w -0x246(a6)
 < 0x005aaeb8      6700018a       beq.w 0x5ab044
    0x005aaebc      302efdc6       move.w -0x23a(a6), d0
    0x005aaec0      b06efdb8       cmp.w -0x248(a6), d0
 < 0x005aaec4      660c           bne.b 0x5aaed2
    0x005aaec6      322efdc8       move.w -0x238(a6), d1
    0x005aaeca      b26efdba       cmp.w -0x246(a6), d1
 < 0x005aaece      67000174       beq.w 0x5ab044
 > 0x005aaed2      9efc0100       suba.w 0x100, a7
    0x005aaed6      2f2efdb8       move.l -0x248(a6), -(a7)
    0x005aaeda      48780000       pea.l 0x0
    0x005aaede      4eb90044dd86   jsr SYSTEM_STRING.point_str
    0x005aaee4      9efc00f8       suba.w 0xf8, a7
    0x005aaee8      2f2efdc6       move.l -0x23a(a6), -(a7)
    0x005aaeec      48780000       pea.l 0x0
    0x005aaef0      4eb90044dd86   jsr SYSTEM_STRING.point_str
    0x005aaef6      504f           addq.w 0x8, a7
    0x005aaef8      487a9566       pea.l 0x5a4460(pc)
    0x005aaefc      4878000c       pea.l 0xc
    0x005aaf00      2f17           move.l (a7), -(a7)
    0x005aaf02      4e93           jsr (a3)                    ; fcn.0000000c
    0x005aaf04      dec5           adda.w d5, a7
    0x005aaf06      486f0101       pea.l 0x101(a7)
    0x005aaf0a      42a7           clr.l -(a7)
    0x005aaf0c      1f6f01080003   move.b 0x108(a7), 0x3(a7)
    0x005aaf12      2f17           move.l (a7), -(a7)
    0x005aaf14      4e93           jsr (a3)                    ; fcn.0000000c
    0x005aaf16      dec5           adda.w d5, a7
    0x005aaf18      487a9553       pea.l 0x5a446d(pc)
    0x005aaf1c      48780006       pea.l 0x6
    0x005aaf20      2f17           move.l (a7), -(a7)
    0x005aaf22      4e93           jsr (a3)                    ; fcn.0000000c
    0x005aaf24      dec5           adda.w d5, a7
    0x005aaf26      486f0001       pea.l 0x1(a7)
    0x005aaf2a      42a7           clr.l -(a7)
    0x005aaf2c      1f6f00080003   move.b 0x8(a7), 0x3(a7)
    0x005aaf32      2f17           move.l (a7), -(a7)
    0x005aaf34      4e93           jsr (a3)                    ; fcn.0000000c
    0x005aaf36      defc020c       adda.w 0x20c, a7
    0x005aaf3a      4eb900404946   jsr p_wtln_o
    0x005aaf40      9efc0100       suba.w 0x100, a7
    0x005aaf44      2f2efda4       move.l -0x25c(a6), -(a7)
    0x005aaf48      48780000       pea.l 0x0
    0x005aaf4c      4eb90044dd86   jsr SYSTEM_STRING.point_str
    0x005aaf52      504f           addq.w 0x8, a7
    0x005aaf54      487a951e       pea.l 0x5a4474(pc)
    0x005aaf58      4878001a       pea.l 0x1a
    0x005aaf5c      2f17           move.l (a7), -(a7)
    0x005aaf5e      4e93           jsr (a3)                    ; fcn.0000000c
    0x005aaf60      dec5           adda.w d5, a7
    0x005aaf62      486f0001       pea.l 0x1(a7)
    0x005aaf66      42a7           clr.l -(a7)
    0x005aaf68      1f6f00080003   move.b 0x8(a7), 0x3(a7)
    0x005aaf6e      2f17           move.l (a7), -(a7)
    0x005aaf70      4e93           jsr (a3)                    ; fcn.0000000c
    0x005aaf72      defc010c       adda.w 0x10c, a7
    0x005aaf76      3200           move.w d0, d1
    0x005aaf78      c3eefda4       muls.w -0x25c(a6), d1
    0x005aaf7c      2801           move.l d1, d4
    0x005aaf7e      4eb900408686   jsr fcn.00408686
    0x005aaf84      2f04           move.l d4, -(a7)
    0x005aaf86      382efdb8       move.w -0x248(a6), d4
    0x005aaf8a      48c4           ext.l d4
    0x005aaf8c      4eb900408686   jsr fcn.00408686
    0x005aaf92      2604           move.l d4, d3
    0x005aaf94      2817           move.l (a7), d4
    0x005aaf96      4eb900407ff8   jsr fcn.00407ff8
    0x005aaf9c      584f           addq.w 0x4, a7
    0x005aaf9e      4eb900408224   jsr fcn.00408224
    0x005aafa4      0484ffff8000   subi.l 0xffff8000, d4
    0x005aafaa      0c840000ffff   cmpi.l 0xffff, d4
 < 0x005aafb0      6302           bls.b 0x5aafb4
    0x005aafb2      4e4f           trap 0xf
 > 0x005aafb4      0684ffff8000   addi.l 0xffff8000, d4
    0x005aafba      3d44fda4       move.w d4, -0x25c(a6)
    0x005aafbe      322efdc8       move.w -0x238(a6), d1
    0x005aafc2      c3eefda6       muls.w -0x25a(a6), d1
    0x005aafc6      2801           move.l d1, d4
    0x005aafc8      4eb900408686   jsr fcn.00408686
    0x005aafce      2f04           move.l d4, -(a7)
    0x005aafd0      382efdba       move.w -0x246(a6), d4
    0x005aafd4      48c4           ext.l d4
    0x005aafd6      4eb900408686   jsr fcn.00408686
    0x005aafdc      2604           move.l d4, d3
    0x005aafde      2817           move.l (a7), d4
    0x005aafe0      4eb900407ff8   jsr fcn.00407ff8
    0x005aafe6      584f           addq.w 0x4, a7
    0x005aafe8      4eb900408224   jsr fcn.00408224
    0x005aafee      0484ffff8000   subi.l 0xffff8000, d4
    0x005aaff4      0c840000ffff   cmpi.l 0xffff, d4
 < 0x005aaffa      6302           bls.b 0x5aaffe
    0x005aaffc      4e4f           trap 0xf
 > 0x005aaffe      0684ffff8000   addi.l 0xffff8000, d4
    0x005ab004      3d44fda6       move.w d4, -0x25a(a6)
    0x005ab008      9efc0100       suba.w 0x100, a7
    0x005ab00c      2f2efda4       move.l -0x25c(a6), -(a7)
    0x005ab010      48780000       pea.l 0x0
    0x005ab014      4eb90044dd86   jsr SYSTEM_STRING.point_str
    0x005ab01a      504f           addq.w 0x8, a7
    0x005ab01c      487a9471       pea.l 0x5a448f(pc)
    0x005ab020      48780005       pea.l 0x5
    0x005ab024      2f17           move.l (a7), -(a7)
    0x005ab026      4e93           jsr (a3)                    ; fcn.0000000c
    0x005ab028      dec5           adda.w d5, a7
    0x005ab02a      486f0001       pea.l 0x1(a7)
    0x005ab02e      42a7           clr.l -(a7)
    0x005ab030      1f6f00080003   move.b 0x8(a7), 0x3(a7)
    0x005ab036      2f17           move.l (a7), -(a7)
    0x005ab038      4e93           jsr (a3)                    ; fcn.0000000c
    0x005ab03a      defc010c       adda.w 0x10c, a7
    0x005ab03e      4eb900404946   jsr p_wtln_o
 > 0x005ab044      206e0008       movea.l 0x8(a6), a0
      0x005ab048      1028001b       move.b 0x1b(a0), d0
      0x005ab04c      0c000003       cmpi.b 0x3, d0
  < 0x005ab050      6610           bne.b 0x5ab062
     0x005ab052      20bc3f800000   move.l 0x3f800000, (a0)
     0x005ab058      217c3f800000.  move.l 0x3f800000, 0x4(a0)
 < 0x005ab060      6052           bra.b 0x5ab0b4
 > 0x005ab062      382efda8       move.w -0x258(a6), d4
     0x005ab066      48c4           ext.l d4
     0x005ab068      4eb900408686   jsr fcn.00408686
     0x005ab06e      2f04           move.l d4, -(a7)
     0x005ab070      382efda4       move.w -0x25c(a6), d4
     0x005ab074      48c4           ext.l d4
     0x005ab076      4eb900408686   jsr fcn.00408686
     0x005ab07c      2604           move.l d4, d3
     0x005ab07e      2817           move.l (a7), d4
     0x005ab080      4eb900407ff8   jsr fcn.00407ff8
     0x005ab086      584f           addq.w 0x4, a7
     0x005ab088      2084           move.l d4, (a0)
     0x005ab08a      382efdaa       move.w -0x256(a6), d4
     0x005ab08e      48c4           ext.l d4
     0x005ab090      4eb900408686   jsr fcn.00408686
     0x005ab096      2f04           move.l d4, -(a7)
     0x005ab098      382efda6       move.w -0x25a(a6), d4
     0x005ab09c      48c4           ext.l d4
     0x005ab09e      4eb900408686   jsr fcn.00408686
     0x005ab0a4      2604           move.l d4, d3
     0x005ab0a6      2817           move.l (a7), d4
     0x005ab0a8      4eb900407ff8   jsr fcn.00407ff8
     0x005ab0ae      584f           addq.w 0x4, a7
     0x005ab0b0      21440004       move.l d4, 0x4(a0)
     ; CODE XREF from fcn.005aa600 @ 0x5ab060
 > 0x005ab0b4      102e0018       move.b 0x18(a6), d0
      0x005ab0b8      0c000006       cmpi.b 0x6, d0
  < 0x005ab0bc      661c           bne.b 0x5ab0da
     0x005ab0be      13ee00140083.  move.b 0x14(a6), 0x83ff7d.l
     0x005ab0c6      23eefeee0083.  move.l -0x112(a6), 0x83ff7e.l
     0x005ab0ce      23eefef20083.  move.l -0x10e(a6), 0x83ff82.l
 < 0x005ab0d6      6000011e       bra.w 0x5ab1f6
 > 0x005ab0da      43e80008       lea.l 0x8(a0), a1
     0x005ab0de      45ee000c       lea.l 0xc(a6), a2
     0x005ab0e2      7007           moveq 0x7, d0
 > 0x005ab0e4      12da           move.b (a2)+, (a1)+
 < 0x005ab0e6      51c8fffc       dbra d0, 0x5ab0e4
     0x005ab0ea      2d50fdac       move.l (a0), -0x254(a6)
     0x005ab0ee      2d680004fdb0   move.l 0x4(a0), -0x250(a6)
     0x005ab0f4      1028001b       move.b 0x1b(a0), d0
     0x005ab0f8      4880           ext.w d0
     0x005ab0fa      013a9398       btst.l d0, 0x5a4494(pc)
 < 0x005ab0fe      67000084       beq.w 0x5ab184
    0x005ab102      282efdac       move.l -0x254(a6), d4
    0x005ab106      2628001e       move.l 0x1e(a0), d3
    0x005ab10a      4eb900407e92   jsr fcn.00407e92
    0x005ab110      2d44fdac       move.l d4, -0x254(a6)
    0x005ab114      282efdb0       move.l -0x250(a6), d4
    0x005ab118      26280022       move.l 0x22(a0), d3
    0x005ab11c      4eb900407e92   jsr fcn.00407e92
    0x005ab122      2d44fdb0       move.l d4, -0x250(a6)
    0x005ab126      3028002a       move.w 0x2a(a0), d0
    0x005ab12a      48c0           ext.l d0
    0x005ab12c      e180           asl.l 0x8, d0
    0x005ab12e      e180           asl.l 0x8, d0
    0x005ab130      d1ae0022       add.l d0, 0x22(a6)
    0x005ab134      3028002c       move.w 0x2c(a0), d0
    0x005ab138      48c0           ext.l d0
    0x005ab13a      e180           asl.l 0x8, d0
    0x005ab13c      e180           asl.l 0x8, d0
    0x005ab13e      d1ae0026       add.l d0, 0x26(a6)
    0x005ab142      3f3cffff       move.w 0xffff, -(a7)
    0x005ab146      4227           clr.b -(a7)
    0x005ab148      2f2efef2       move.l -0x10e(a6), -(a7)
    0x005ab14c      2f2efeee       move.l -0x112(a6), -(a7)
    0x005ab150      2f2efdce       move.l -0x232(a6), -(a7)
    0x005ab154      2f2efdca       move.l -0x236(a6), -(a7)
    0x005ab158      1f2e0016       move.b 0x16(a6), -(a7)
    0x005ab15c      1f2e0014       move.b 0x14(a6), -(a7)
    0x005ab160      2f2e0026       move.l 0x26(a6), -(a7)
    0x005ab164      2f2e0022       move.l 0x22(a6), -(a7)
    0x005ab168      2f3c3f800000   move.l 0x3f800000, -(a7)
    0x005ab16e      2f2efede       move.l -0x122(a6), -(a7)
    0x005ab172      2f2efdb0       move.l -0x250(a6), -(a7)
    0x005ab176      2f2efdac       move.l -0x254(a6), -(a7)
    0x005ab17a      1f28001c       move.b 0x1c(a0), -(a7)
    0x005ab17e      1f28001d       move.b 0x1d(a0), -(a7)
 < 0x005ab182      6060           bra.b 0x5ab1e4
 > 0x005ab184      282efdac       move.l -0x254(a6), d4
     0x005ab188      262efee2       move.l -0x11e(a6), d3
     0x005ab18c      4eb900407e92   jsr fcn.00407e92
     0x005ab192      2d44fdac       move.l d4, -0x254(a6)
     0x005ab196      282efdb0       move.l -0x250(a6), d4
     0x005ab19a      262efee6       move.l -0x11a(a6), d3
     0x005ab19e      4eb900407e92   jsr fcn.00407e92
     0x005ab1a4      2d44fdb0       move.l d4, -0x250(a6)
     0x005ab1a8      3f3cffff       move.w 0xffff, -(a7)
     0x005ab1ac      4227           clr.b -(a7)
     0x005ab1ae      2f2efef2       move.l -0x10e(a6), -(a7)
     0x005ab1b2      2f2efeee       move.l -0x112(a6), -(a7)
     0x005ab1b6      2f2efdce       move.l -0x232(a6), -(a7)
     0x005ab1ba      2f2efdca       move.l -0x236(a6), -(a7)
     0x005ab1be      1f2e0016       move.b 0x16(a6), -(a7)
     0x005ab1c2      1f2e0014       move.b 0x14(a6), -(a7)
     0x005ab1c6      2f2e0026       move.l 0x26(a6), -(a7)
     0x005ab1ca      2f2e0022       move.l 0x22(a6), -(a7)
     0x005ab1ce      2f3c3f800000   move.l 0x3f800000, -(a7)
     0x005ab1d4      2f2efeea       move.l -0x116(a6), -(a7)
     0x005ab1d8      2f2efdb0       move.l -0x250(a6), -(a7)
     0x005ab1dc      2f2efdac       move.l -0x254(a6), -(a7)
     0x005ab1e0      4227           clr.b -(a7)
     0x005ab1e2      4227           clr.b -(a7)
     ; CODE XREF from fcn.005aa600 @ 0x5ab182
 > 0x005ab1e4      48680008       pea.l 0x8(a0)
     0x005ab1e8      486efefe       pea.l -0x102(a6)
     0x005ab1ec      4eb900526aa8   jsr BRUSH2COM.br_size_2d
     0x005ab1f2      defc003c       adda.w 0x3c, a7
     ; CODE XREF from fcn.005aa600 @ 0x5ab0d6
 > 0x005ab1f6      554f           subq.w 0x2, a7
      0x005ab1f8      1f3c0015       move.b 0x15, -(a7)
      0x005ab1fc      4eb900598cca   jsr K01_DEBUG.k01_debug
      0x005ab202      544f           addq.w 0x2, a7
      0x005ab204      4a1f           tst.b (a7)+
  < 0x005ab206      6740           beq.b 0x5ab248
     0x005ab208      9efc0100       suba.w 0x100, a7
     0x005ab20c      2f2e0010       move.l 0x10(a6), -(a7)
     0x005ab210      2f2e000c       move.l 0xc(a6), -(a7)
     0x005ab214      48780000       pea.l 0x0
     0x005ab218      4eb90044d9f2   jsr SYSTEM_STRING.area_str
     0x005ab21e      dec5           adda.w d5, a7
     0x005ab220      487a9274       pea.l 0x5a4496(pc)
     0x005ab224      4878000b       pea.l 0xb
     0x005ab228      2f17           move.l (a7), -(a7)
     0x005ab22a      4e93           jsr (a3)                    ; fcn.0000000c
     0x005ab22c      dec5           adda.w d5, a7
     0x005ab22e      486f0001       pea.l 0x1(a7)
     0x005ab232      42a7           clr.l -(a7)
     0x005ab234      1f6f00080003   move.b 0x8(a7), 0x3(a7)
     0x005ab23a      2f17           move.l (a7), -(a7)
     0x005ab23c      4e93           jsr (a3)                    ; fcn.0000000c
     0x005ab23e      defc010c       adda.w 0x10c, a7
     0x005ab242      4eb900404946   jsr p_wtln_o
     ; CODE XREFS from fcn.005aa600 @ 0x5aaaf4, 0x5aab4a, 0x5aae5a
  > 0x005ab248      206e0008       movea.l 0x8(a6), a0
         0x005ab24c      10280010       move.b 0x10(a0), d0
         0x005ab250      0c000002       cmpi.b 0x2, d0
     < 0x005ab254      6650           bne.b 0x5ab2a6
        0x005ab256      2f2e0010       move.l 0x10(a6), -(a7)
        0x005ab25a      2f2e000c       move.l 0xc(a6), -(a7)
        0x005ab25e      514f           subq.w 0x8, a7
        0x005ab260      224f           movea.l a7, a1
        0x005ab262      45e80008       lea.l 0x8(a0), a2
        0x005ab266      7007           moveq 0x7, d0
    > 0x005ab268      12da           move.b (a2)+, (a1)+
    < 0x005ab26a      51c8fffc       dbra d0, 0x5ab268
        0x005ab26e      30280018       move.w 0x18(a0), d0
        0x005ab272      02800000ffff   andi.l 0xffff, d0
        0x005ab278      0c80000000ff   cmpi.l 0xff, d0
    < 0x005ab27e      6302           bls.b 0x5ab282
       0x005ab280      4e4f           trap 0xf
    > 0x005ab282      3f00           move.w d0, -(a7)
        0x005ab284      5d4f           subq.w 0x6, a7
        0x005ab286      224f           movea.l a7, a1
        0x005ab288      45e80012       lea.l 0x12(a0), a2
        0x005ab28c      7005           moveq 0x5, d0
    > 0x005ab28e      12da           move.b (a2)+, (a1)+
    < 0x005ab290      51c8fffc       dbra d0, 0x5ab28e
        0x005ab294      1f2e0016       move.b 0x16(a6), -(a7)
        0x005ab298      1f2e0014       move.b 0x14(a6), -(a7)
        0x005ab29c      4eb900525e76   jsr BRUSH1COM.br_tidy_any_wip
        0x005ab2a2      defc001c       adda.w 0x1c, a7
        ; CODE XREF from fcn.005aa600 @ 0x5aa8bc
     > 0x005ab2a6      1d6efedb002e   move.b -0x125(a6), 0x2e(a6)
           0x005ab2ac      1d6efedc002f   move.b -0x124(a6), 0x2f(a6)
           0x005ab2b2      41f90083fe7c   lea.l 0x83fe7c, a0
           0x005ab2b8      43fa91e7       lea.l 0x5a44a1(pc), a1
           0x005ab2bc      700c           moveq 0xc, d0
       > 0x005ab2be      10d9           move.b (a1)+, (a0)+
       < 0x005ab2c0      51c8fffc       dbra d0, 0x5ab2be
           0x005ab2c4      4cdf1fff       movem.l (a7)+, d0-d7/a0-a4
           0x005ab2c8      4e5e           unlk a6
           0x005ab2ca      4e75           rts
 116: K05_LOADSAVE.k05_purge ();
           0x005ab2cc      4e56ffe2       link.w a6, 0xffe2
           0x005ab2d0      bfd5           cmpa.l (a5), a7
       < 0x005ab2d2      6206           bhi.b 0x5ab2da
          0x005ab2d4      44fc0002       move.w 0x2, ccr
          0x005ab2d8      4e76           trapv
       > 0x005ab2da      defc001c       adda.w 0x1c, a7
           0x005ab2de      48e78180       movem.l d0/d7/a0, -(a7)
           0x005ab2e2      41f90083ff92   lea.l 0x83ff92, a0
           0x005ab2e8      7e00           moveq 0x0, d7
           0x005ab2ea      48780001       pea.l 0x1
           0x005ab2ee      2010           move.l (a0), d0
           0x005ab2f0      b09f           cmp.l (a7)+, d0
       < 0x005ab2f2      6702           beq.b 0x5ab2f6
          0x005ab2f4      5207           addq.b 0x1, d7
       > 0x005ab2f6      4850           pea.l (a0)
           0x005ab2f8      4eb900632826   jsr CACHECOM.remove_cache_re
           0x005ab2fe      544f           addq.w 0x2, a7
           0x005ab300      1eba91ac       move.b 0x5a44ae(pc), (a7)
           0x005ab304      4eb90063278a   jsr CACHECOM.clear_cache
           0x005ab30a      544f           addq.w 0x2, a7
           0x005ab30c      487a91a2       pea.l 0x5a44b0(pc)
           0x005ab310      4878001f       pea.l 0x1f
           0x005ab314      2f17           move.l (a7), -(a7)
           0x005ab316      4eb9004047ea   jsr p_wts_o
           0x005ab31c      defc000a       adda.w 0xa, a7
           0x005ab320      1e87           move.b d7, (a7)
           0x005ab322      48780005       pea.l 0x5
           0x005ab326      4eb90040718c   jsr p_wtb_o
           0x005ab32c      5c4f           addq.w 0x6, a7
           0x005ab32e      4eb900404946   jsr p_wtln_o
           0x005ab334      1d470008       move.b d7, 0x8(a6)
           0x005ab338      4cdf0181       movem.l (a7)+, d0/d7/a0
           0x005ab33c      4e5e           unlk a6
           0x005ab33e      4e75           rts
 36: K05_LOADSAVE.k_lose_cache_re ();
           0x005ab340      4e56fff8       link.w a6, 0xfff8
           0x005ab344      bfd5           cmpa.l (a5), a7
       < 0x005ab346      6206           bhi.b 0x5ab34e
          0x005ab348      44fc0002       move.w 0x2, ccr
          0x005ab34c      4e76           trapv
       > 0x005ab34e      defc0008       adda.w 0x8, a7
           0x005ab352      48790083ff92   pea.l 0x83ff92
           0x005ab358      4eb900632826   jsr CACHECOM.remove_cache_re
           0x005ab35e      584f           addq.w 0x4, a7
           0x005ab360      4e5e           unlk a6
           0x005ab362      4e75           rts
            ; CALL XREF from K91_LIBOPS.fetch_pic_sten_ @ 0x64d95a
            ; CALL XREF from K91_LIBOPS.k91_rework @ 0x64ebcc
            ; CALL XREF from K96_LIB2OPS.save_sized_tile @ 0x664d4a
 48: K05_LOADSAVE.k05_dtpb_tag_da ();
           0x005ab364      4e56fff0       link.w a6, 0xfff0
           0x005ab368      bfd5           cmpa.l (a5), a7
       < 0x005ab36a      6206           bhi.b 0x5ab372
          0x005ab36c      44fc0002       move.w 0x2, ccr
          0x005ab370      4e76           trapv
       > 0x005ab372      defc0010       adda.w 0x10, a7
           0x005ab376      48e780c0       movem.l d0/a0-a1, -(a7)
           0x005ab37a      41ee0008       lea.l 0x8(a6), a0
           0x005ab37e      43f90083ff96   lea.l 0x83ff96, a1
           0x005ab384      7011           moveq 0x11, d0
       > 0x005ab386      20d9           move.l (a1)+, (a0)+
       < 0x005ab388      51c8fffc       dbra d0, 0x5ab386
           0x005ab38c      4cdf0301       movem.l (a7)+, d0/a0-a1
           0x005ab390      4e5e           unlk a6
           0x005ab392      4e75           rts
            ; CALL XREFS from MENUARTISTCOM.hit_scaling @ 0x4e0d94, 0x4e0ea6
            ; CALL XREFS from MENUGRIDCOM.hit_update_scal @ 0x5007ba, 0x5007c4, 0x5007e4
 64: K05_LOADSAVE.k05_dtpb_set_ta ();
           0x005ab394      4e56fdb4       link.w a6, 0xfdb4
           0x005ab398      bfd5           cmpa.l (a5), a7
       < 0x005ab39a      6206           bhi.b 0x5ab3a2
          0x005ab39c      44fc0002       move.w 0x2, ccr
          0x005ab3a0      4e76           trapv
       > 0x005ab3a2      defc0138       adda.w 0x138, a7
           0x005ab3a6      48e7fff8       movem.l d0-d7/a0-a4, -(a7)
           0x005ab3aa      45f90083ff96   lea.l 0x83ff96, a2
           0x005ab3b0      47f90083ff98   lea.l 0x83ff98, a3
           0x005ab3b6      49eefeee       lea.l -0x112(a6), a4
           0x005ab3ba      7a03           moveq 0x3, d5
           0x005ab3bc      7e01           moveq 0x1, d7
           0x005ab3be      102e0008       move.b 0x8(a6), d0
           0x005ab3c2      4880           ext.w d0
           0x005ab3c4      b045           cmp.w d5, d0
       < 0x005ab3c6      6302           bls.b 0x5ab3ca
          0x005ab3c8      4e4e           trap 0xe
       > 0x005ab3ca      d040           add.w d0, d0
           0x005ab3cc      303b0006       move.w 0x5ab3d4(pc, d0.w), d0
           0x005ab3d0      4efb0002       jmp 0x5ab3d4(pc, d0.w)
            0x005ab3d4      00080064       
            0x005ab3d5      08006400       
            0x005ab3d6      006400f6       ori.w 0xf6, -(a4)
            0x005ab3da      0154           bchg.b d0, (a4)
            0x005ab3dc      554f           subq.w 0x2, a7
            0x005ab3de      1f3c0012       move.b 0x12, -(a7)
            0x005ab3e2      486efef4       pea.l -0x10c(a6)
            0x005ab3e6      4eb900474ff8   jsr CONFIG.get_menu_config
            0x005ab3ec      5c4f           addq.w 0x6, a7
            0x005ab3ee      4a1f           tst.b (a7)+
        < 0x005ab3f0      670c           beq.b 0x5ab3fe
           0x005ab3f2      102efef5       move.b -0x10b(a6), d0
           0x005ab3f6      4880           ext.w d0
           0x005ab3f8      4185           chk.w d5, d0
           0x005ab3fa      1c00           move.b d0, d6
       < 0x005ab3fc      6002           bra.b 0x5ab400
       > 0x005ab3fe      7c00           moveq 0x0, d6
       > 0x005ab400      4886           ext.w d6
            0x005ab402      3006           move.w d6, d0
            0x005ab404      b045           cmp.w d5, d0
        < 0x005ab406      6302           bls.b 0x5ab40a
           0x005ab408      4e4e           trap 0xe
        > 0x005ab40a      d040           add.w d0, d0
            0x005ab40c      303b0006       move.w 0x5ab414(pc, d0.w), d0
            0x005ab410      4efb0002       jmp 0x5ab414(pc, d0.w)
            0x005ab414      00080008       
            0x005ab415      08000800       
            0x005ab416      00080014       
            0x005ab417      08001400       
            0x005ab418      0014000e       ori.b 0xe, (a4)
            0x005ab41c      34bc0001       move.w 0x1, (a2)
        < 0x005ab420      6008           bra.b 0x5ab42a
           0x005ab422      34bc0002       move.w 0x2, (a2)
       < 0x005ab426      6002           bra.b 0x5ab42a
          0x005ab428      3485           move.w d5, (a2)
       > 0x005ab42a      1f3c0001       move.b 0x1, -(a7)
            0x005ab42e      4ebaff64       jsr K05_LOADSAVE.k05_dtpb_set_ta(pc)
            0x005ab432      544f           addq.w 0x2, a7
        < 0x005ab434      60000126       bra.w 0x5ab55c
           0x005ab438      554f           subq.w 0x2, a7
           0x005ab43a      1f3c0013       move.b 0x13, -(a7)
           0x005ab43e      486efef0       pea.l -0x110(a6)
           0x005ab442      4eb900474ff8   jsr CONFIG.get_menu_config
           0x005ab448      5c4f           addq.w 0x6, a7
           0x005ab44a      4a1f           tst.b (a7)+
       < 0x005ab44c      6608           bne.b 0x5ab456
          0x005ab44e      3d7c03e8fef0   move.w 0x3e8, -0x110(a6)
      < 0x005ab454      6012           bra.b 0x5ab468
      > 0x005ab456      554f           subq.w 0x2, a7
          0x005ab458      1f3c001d       move.b 0x1d, -(a7)
          0x005ab45c      4854           pea.l (a4)
          0x005ab45e      4eb900474ff8   jsr CONFIG.get_menu_config
          0x005ab464      5c4f           addq.w 0x6, a7
          0x005ab466      4a1f           tst.b (a7)+
      > 0x005ab468      4a94           tst.l (a4)
       < 0x005ab46a      6606           bne.b 0x5ab472
          0x005ab46c      28bc000003e8   move.l 0x3e8, (a4)
       > 0x005ab472      2694           move.l (a4), (a3)
           0x005ab474      3012           move.w (a2), d0
           0x005ab476      0c400002       cmpi.w 0x2, d0
       < 0x005ab47a      6630           bne.b 0x5ab4ac
          0x005ab47c      2813           move.l (a3), d4
          0x005ab47e      4eb900408650   jsr fcn.00408650
          0x005ab484      263c41cb3333   move.l 0x41cb3333, d3
          0x005ab48a      4eb900407e92   jsr fcn.00407e92
          0x005ab490      263c3c23d70a   move.l 0x3c23d70a, d3
          0x005ab496      4eb900407e92   jsr fcn.00407e92
          0x005ab49c      4eb900408224   jsr fcn.00408224
          0x005ab4a2      760a           moveq 0xa, d3
          0x005ab4a4      4eb900406a74   jsr fcn.00406a74
          0x005ab4aa      2684           move.l d4, (a3)
       > 0x005ab4ac      23fc0000000a.  move.l 0xa, 0x83ff9c.l
           0x005ab4b6      23d30083ffa0   move.l (a3), 0x83ffa0
           0x005ab4bc      23f90083ff9c.  move.l 0x83ff9c, 0x83ffa4.l
       < 0x005ab4c6      60000094       bra.w 0x5ab55c
          0x005ab4ca      514f           subq.w 0x8, a7
          0x005ab4cc      4eb90050050a   jsr MENUGRIDCOM.crnt_grid_area
          0x005ab4d2      2d5ffef8       move.l (a7)+, -0x108(a6)
          0x005ab4d6      2d5ffefc       move.l (a7)+, -0x104(a6)
          0x005ab4da      7000           moveq 0x0, d0
          0x005ab4dc      322efefc       move.w -0x104(a6), d1
          0x005ab4e0      48c1           ext.l d1
          0x005ab4e2      b2b90083ffa8   cmp.l 0x83ffa8, d1
      < 0x005ab4e8      660e           bne.b 0x5ab4f8
         0x005ab4ea      342efefe       move.w -0x102(a6), d2
         0x005ab4ee      48c2           ext.l d2
         0x005ab4f0      b4b90083ffac   cmp.l 0x83ffac, d2
     < 0x005ab4f6      6702           beq.b 0x5ab4fa
     > 0x005ab4f8      5200           addq.b 0x1, d0
     > 0x005ab4fa      1e00           move.b d0, d7
          0x005ab4fc      23c10083ffa8   move.l d1, 0x83ffa8
          0x005ab502      302efefe       move.w -0x102(a6), d0
          0x005ab506      48c0           ext.l d0
          0x005ab508      23c00083ffac   move.l d0, 0x83ffac
          0x005ab50e      302efef8       move.w -0x108(a6), d0
          0x005ab512      48c0           ext.l d0
          0x005ab514      23c00083ffce   move.l d0, 0x83ffce
          0x005ab51a      302efefa       move.w -0x106(a6), d0
          0x005ab51e      48c0           ext.l d0
          0x005ab520      23c00083ffd2   move.l d0, 0x83ffd2
      < 0x005ab526      6034           bra.b 0x5ab55c
         0x005ab528      7864           moveq 0x64, d4
         0x005ab52a      4eb900408686   jsr fcn.00408686
         0x005ab530      594f           subq.w 0x4, a7
         0x005ab532      3f3c0057       move.w 0x57, -(a7)
         0x005ab536      4eb90048d992   jsr MENU2COM.get_numeric_val
         0x005ab53c      544f           addq.w 0x2, a7
         0x005ab53e      261f           move.l (a7)+, d3
         0x005ab540      4eb900407e92   jsr fcn.00407e92
         0x005ab546      4eb900408224   jsr fcn.00408224
         0x005ab54c      23c40083ffd6   move.l d4, 0x83ffd6
         0x005ab552      23fc00000064.  move.l 0x64, 0x83ffda.l
      > 0x005ab55c      4a07           tst.b d7
        < 0x005ab55e      6764           beq.b 0x5ab5c4
           0x005ab560      9efc0100       suba.w 0x100, a7
           0x005ab564      4eb9006d2226   jsr MAVIS_PAINT.get_version_num
           0x005ab56a      41eeff00       lea.l -0x100(a6), a0
           0x005ab56e      703f           moveq 0x3f, d0
       > 0x005ab570      20df           move.l (a7)+, (a0)+
       < 0x005ab572      51c8fffc       dbra d0, 0x5ab570
           0x005ab576      41f90083ffb0   lea.l 0x83ffb0, a0
           0x005ab57c      43fa8f52       lea.l 0x5a44d0(pc), a1
           0x005ab580      7006           moveq 0x6, d0
       > 0x005ab582      20d9           move.l (a1)+, (a0)+
       < 0x005ab584      51c8fffc       dbra d0, 0x5ab582
           0x005ab588      30d9           move.w (a1)+, (a0)+
           0x005ab58a      4280           clr.l d0
           0x005ab58c      102eff00       move.b -0x100(a6), d0
           0x005ab590      3f00           move.w d0, -(a7)
           0x005ab592      7e01           moveq 0x1, d7
       > 0x005ab594      be57           cmp.w (a7), d7
      < 0x005ab596      6e2a           bgt.b 0x5ab5c2
         0x005ab598      48c7           ext.l d7
         0x005ab59a      2007           move.l d7, d0
         0x005ab59c      068000000009   addi.l 0x9, d0
         0x005ab5a2      5380           subq.l 0x1, d0
         0x005ab5a4      0c800000001d   cmpi.l 0x1d, d0
     < 0x005ab5aa      6302           bls.b 0x5ab5ae
        0x005ab5ac      4e4f           trap 0xf
     > 0x005ab5ae      204a           movea.l a2, a0
         0x005ab5b0      4fbc00ff       chk.w 0xff, d7
         0x005ab5b4      43eefeec       lea.l -0x114(a6), a1
         0x005ab5b8      11b17014081a   move.b 0x14(a1, d7.w), 0x1a(a0, d0.l)
         0x005ab5be      5247           addq.w 0x1, d7
      < 0x005ab5c0      68d2           bvc.b 0x5ab594
      > 0x005ab5c2      544f           addq.w 0x2, a7
        > 0x005ab5c4      4cdf1fff       movem.l (a7)+, d0-d7/a0-a4
            0x005ab5c8      4e5e           unlk a6
            0x005ab5ca      4e75           rts
            ; CALL XREF from K0_DISKMGR.k_init @ 0x59889e
 90: K05_LOADSAVE.k05_init ();
           0x005ab5cc      4e56fff0       link.w a6, 0xfff0
           0x005ab5d0      bfd5           cmpa.l (a5), a7
       < 0x005ab5d2      6206           bhi.b 0x5ab5da
          0x005ab5d4      44fc0002       move.w 0x2, ccr
          0x005ab5d8      4e76           trapv
       > 0x005ab5da      defc000c       adda.w 0xc, a7
           0x005ab5de      23fa8f0e0083.  move.l 0x5a44ee(pc), 0x83ff86.l
           0x005ab5e6      23fa8f0a0083.  move.l 0x5a44f2(pc), 0x83ff8a.l
           0x005ab5ee      33fa8f060083.  move.w 0x5a44f6(pc), 0x83ff8e.l
           0x005ab5f6      42390083ff90   clr.b 0x83ff90
           0x005ab5fc      48780001       pea.l 0x1
           0x005ab600      23df0083ff92   move.l (a7)+, 0x83ff92
           0x005ab606      486d0010       pea.l 0x10(a5)
           0x005ab60a      487afcc0       pea.l K05_LOADSAVE.k05_purge(pc)
           0x005ab60e      4eb900403e52   jsr p_purge_proc
           0x005ab614      504f           addq.w 0x8, a7
           0x005ab616      42390083ff7c   clr.b 0x83ff7c
           0x005ab61c      42390083ff7d   clr.b 0x83ff7d
           0x005ab622      4e5e           unlk a6
