            ;-- K0_DISKMGR:
            0x005927c0      .byte 0x00
            0x005927c1      .byte 0x00
            0x005927c2      .byte 0x00
            0x005927c3      .byte 0x00
            0x005927c4      .byte 0x00
            0x005927c5      .byte 0x00
            0x005927c6      .byte 0x00
            0x005927c7      .byte 0x00
            0x005927c8      .byte 0x00
            0x005927c9      .byte 0x00
            0x005927ca      .byte 0x07
            0x005927cb     .string "DEFAULT" ; len=7
            0x005927d2      .byte 0xff
            0x005927d3      .byte 0xff
            0x005927d4      .byte 0xff
            0x005927d5      .byte 0xfd
            0x005927d6      .byte 0x00
            0x005927d7      .byte 0x00
            0x005927d8      .byte 0x00
            0x005927d9      .byte 0x00
            0x005927da      .byte 0x00
            0x005927db      .byte 0x00
            0x005927dc      .byte 0x00
            0x005927dd      .byte 0x00
            0x005927de      .byte 0x00
            0x005927df      .byte 0x00
            0x005927e0      .byte 0x00
            0x005927e1      .byte 0x00
            0x005927e2      .byte 0x00
            0x005927e3      .byte 0x00
            0x005927e4      .byte 0x00
            0x005927e5      .byte 0x00
            0x005927e6      .byte 0x00
            0x005927e7      .byte 0x00
            0x005927e8      .byte 0x00
            0x005927e9      .byte 0x00
            0x005927ea      .byte 0x00
            0x005927eb      .byte 0x00
            0x005927ec      .byte 0x3f
            0x005927ed      .byte 0x80
            0x005927ee      .byte 0x00
            0x005927ef      .byte 0x00
            0x005927f0      .byte 0x3f
            0x005927f1      .byte 0x80
            0x005927f2      .byte 0x00
            0x005927f3      .byte 0x00
            0x005927f4      .byte 0x00
            0x005927f5      .byte 0x00
            0x005927f6      .byte 0x00
            0x005927f7      .byte 0x00
            0x005927f8      .byte 0x00
            0x005927f9      .byte 0x00
            0x005927fa      .byte 0x00
            0x005927fb      .byte 0x00
            0x005927fc      .byte 0x00
            0x005927fd      .byte 0x00
            0x005927fe      .byte 0x00
            0x005927ff      .byte 0x00
            0x00592800      .byte 0x00
            0x00592801      .byte 0x00
            0x00592802      .byte 0x00
            0x00592803      .byte 0x00
            0x00592804      .byte 0x00
            0x00592805      .byte 0x00
            0x00592806      .byte 0x00
            0x00592807      .byte 0x02
            0x00592808      .byte 0x00
            0x00592809      .byte 0x00
            0x0059280a      .byte 0x3f
            0x0059280b      .byte 0x80
            0x0059280c      .byte 0x00
            0x0059280d      .byte 0x00
            0x0059280e      .byte 0x3f
            0x0059280f      .byte 0x80
            0x00592810      .byte 0x00
            0x00592811      .byte 0x00
            0x00592812      .byte 0x00
            0x00592813      .byte 0x00
            0x00592814      .byte 0x00
            0x00592815      .byte 0x00
            0x00592816      .byte 0x00
            0x00592817      .byte 0x00
            0x00592818      .byte 0x00
            0x00592819      .byte 0x00
            0x0059281a      .byte 0x3f
            0x0059281b      .byte 0x80
            0x0059281c      .byte 0x00
            0x0059281d      .byte 0x00
            0x0059281e      .byte 0x3f
            0x0059281f      .byte 0x80
            0x00592820      .byte 0x00
            0x00592821      .byte 0x00
            0x00592822      .byte 0x00
            0x00592823      .byte 0x00
            0x00592824      .byte 0x00
            0x00592825      .byte 0x00
            0x00592826      .byte 0x00
            0x00592827      .byte 0x00
            0x00592828      .byte 0x00
            0x00592829      .byte 0x00
            0x0059282a      .byte 0x00
            0x0059282b      .byte 0x00
            0x0059282c      .byte 0x00
            0x0059282d      .byte 0x00
            0x0059282e      .byte 0x00
            0x0059282f      .byte 0x00
            0x00592830      .byte 0x00
            0x00592831      .byte 0x00
            0x00592832      .byte 0x00
            0x00592833      .byte 0x00
            0x00592834      .byte 0x00
            0x00592835      .byte 0x01
            0x00592836      .byte 0x00
            0x00592837      .byte 0x00
            0x00592838      .byte 0x00
            0x00592839      .byte 0x00
            0x0059283a      .byte 0x00
            0x0059283b      .byte 0x00
            0x0059283c      .byte 0x00
            0x0059283d      .byte 0x00
            0x0059283e      .byte 0x00
            0x0059283f      .byte 0x00
            0x00592840      .byte 0x00
            0x00592841      .byte 0x00
            0x00592842      .byte 0x00
            0x00592843      .byte 0x00
            0x00592844      .byte 0x00
            0x00592845      .byte 0x00
            0x00592846      .byte 0x00
            0x00592847      .byte 0x00
            0x00592848      .byte 0x01
            0x00592849      .byte 0x2e
            0x0059284a      .byte 0x01
            0x0059284b      .byte 0x2e
            0x0059284c      .byte 0x11
            0x0059284d     .string "Pointer was odd: " ; len=17
            0x0059285e      .byte 0x03
            0x0059285f      .byte 0x41
            0x00592860      .byte 0x74
            0x00592861      .byte 0x20
            0x00592862      .byte 0x07
            0x00592863     .string " found " ; len=7
            0x0059286a      .byte 0x16
            0x0059286b     .string "Volume pointer is NIL." ; len=22
            0x00592881      .byte 0x38
            0x00592882     .string "Volume pointer is not valid, ie. not generated by NEW()." ; len=56
            0x005928ba      .byte 0x04
            0x005928bb     .string "K0-V" ; len=4
            0x005928bf      .byte 0x2b
            0x005928c0     .string "In k0-diskmgr wrong level volume pointer ( " ; len=43
            0x005928eb      .byte 0x09
            0x005928ec     .string " ) found." ; len=9
            0x005928f5      .byte 0x42
            0x005928f6     .string "File pointer is not valid, ie. neither NIL nor generated by NEW()." ; len=66
            0x00592938      .byte 0x14
            0x00592939     .string "File pointer is NIL." ; len=20
            0x0059294d      .byte 0x36
            0x0059294e     .string "File pointer is not valid, ie. not generated by NEW()." ; len=54
            0x00592984      .byte 0x46
            0x00592985     .string "All file pointers should be initialized to NIL before their first use." ; len=70
            0x005929cb      .byte 0x04
            0x005929cc     .string "K0-F" ; len=4
            0x005929d0      .byte 0x29
            0x005929d1     .string "In k0-diskmgr wrong level file pointer ( " ; len=41
            0x005929fa      .byte 0x09
            0x005929fb     .string " ) found." ; len=9
            0x00592a04      .byte 0x02
            0x00592a05     .string "DI" ; len=2
            0x00592a07      .byte 0x32
            0x00592a08     .string "Reference to file that has been flagged not valid." ; len=50
            0x00592a3a      .byte 0x02
            0x00592a3b      .byte 0x44
            0x00592a3c      .byte 0x49
            0x00592a3d      .byte 0x16
            0x00592a3e     .string "Search pointer is NIL." ; len=22
            0x00592a54      .byte 0x38
            0x00592a55     .string "Search pointer is not valid, ie. not generated by NEW()." ; len=56
            0x00592a8d      .byte 0x39
            0x00592a8e     .string "Search pointers should be allocated using k-start-search." ; len=57
            0x00592ac7      .byte 0x04
            0x00592ac8     .string "K0-S" ; len=4
            0x00592acc      .byte 0x2b
            0x00592acd     .string "In k0-diskmgr wrong level search pointer ( " ; len=43
            0x00592af8      .byte 0x09
            0x00592af9     .string " ) found." ; len=9
            0x00592b02      .byte 0x02
            0x00592b03      .byte 0x4f
            0x00592b04      .byte 0x4b
            0x00592b05      .byte 0x02
            0x00592b06      .byte 0x4f
            0x00592b07      .byte 0x4b
            0x00592b08      .byte 0x03
            0x00592b09      .byte 0x4b
            0x00592b0a      .byte 0x30
            0x00592b0b      .byte 0x2d
            0x00592b0c      .byte 0x08
            0x00592b0d     .string "-Result " ; len=8
            0x00592b15      .byte 0x27
            0x00592b16     .string "Heap Full allocating file record in k0." ; len=39
            0x00592b3d      .byte 0x04
            0x00592b3e      .byte 0x4b
            0x00592b3f      .byte 0x30
            0x00592b40      .byte 0x2d
            0x00592b41      .byte 0x46
            0x00592b42      .byte 0xff
            0x00592b43      .byte 0xff
            0x00592b44      .byte 0xff
            0x00592b45      .byte 0xff
            0x00592b46      .byte 0xff
            0x00592b47      .byte 0xff
            0x00592b48      .byte 0xff
            0x00592b49      .byte 0xff
            0x00592b4a      .byte 0x00
            0x00592b4b      .byte 0x00
            0x00592b4c      .byte 0x18
            0x00592b4d     .string "Removing file from list." ; len=24
            0x00592b65      .byte 0x10
            0x00592b66     .string "Search for file." ; len=16
            0x00592b76      .byte 0x16
            0x00592b77     .string "Remove file from list." ; len=22
            0x00592b8d      .byte 0x13
            0x00592b8e     .string "First or only file." ; len=19
            0x00592ba1      .byte 0x04
            0x00592ba2      .byte 0x49
            0x00592ba3      .byte 0x76
            0x00592ba4      .byte 0x4b
            0x00592ba5      .byte 0x46
            0x00592ba6      .byte 0x0a
            0x00592ba7     .string "k0-dec-ref" ; len=10
            0x00592bb1      .byte 0x02
            0x00592bb2      .byte 0x4f
            0x00592bb3      .byte 0x4b
            0x00592bb4      .byte 0x11
            0x00592bb5     .string "ref count is now " ; len=17
            0x00592bc6      .byte 0x0a
            0x00592bc7     .string " for file " ; len=10
            0x00592bd1      .byte 0x04
            0x00592bd2      .byte 0x20
            0x00592bd3      .byte 0x61
            0x00592bd4      .byte 0x74
            0x00592bd5      .byte 0x20
            0x00592bd6      .byte 0x1c
            0x00592bd7     .string "ref count is now negative ( " ; len=28
            0x00592bf3      .byte 0x0c
            0x00592bf4     .string " ) for file " ; len=12
            0x00592c00      .byte 0x04
            0x00592c01      .byte 0x20
            0x00592c02      .byte 0x61
            0x00592c03      .byte 0x74
            0x00592c04      .byte 0x20
            0x00592c05      .byte 0x0d
            0x00592c06     .string "k0-purge-ref." ; len=13
            0x00592c13      .byte 0x18
            0x00592c14     .string "Really losing reference." ; len=24
            0x00592c2c      .byte 0x37
            0x00592c2d     .string "In k0-purge-ref, k1-lose-ref didn't leave file-ptr nil." ; len=55
            0x00592c64      .byte 0x0a
            0x00592c65     .string "Filer was " ; len=10
            0x00592c6f      .byte 0x02
            0x00592c70      .byte 0x4f
            0x00592c71      .byte 0x4b
            0x00592c72      .byte 0x02
            0x00592c73     .string "DI" ; len=2
            0x00592c75      .byte 0x2e
            0x00592c76     .string "File is marked for deletion, try to delete it." ; len=46
            0x00592ca4      .byte 0x02
            0x00592ca5      .byte 0x50
            0x00592ca6      .byte 0x52
            0x00592ca7      .byte 0x02
            0x00592ca8      .byte 0x4f
            0x00592ca9      .byte 0x4b
            0x00592caa      .byte 0x13
            0x00592cab     .string "checking protection" ; len=19
            0x00592cbe      .byte 0x0a
            0x00592cbf     .string "deindexing" ; len=10
            0x00592cc9      .byte 0x0d
            0x00592cca      .byte 0x44
            0x00592ccb     .string "eleting file7In k0-purge-ref, k1-lose-ref didn't leave file-ptr nil." ; len=68
            0x00592d0f      .byte 0x0a
            0x00592d10     .string "Filer was " ; len=10
            0x00592d1a      .byte 0x0b
            0x00592d1b     .string "k0-lose-ref" ; len=11
            0x00592d26      .byte 0x02
            0x00592d27      .byte 0x4f
            0x00592d28      .byte 0x4b
            0x00592d29      .byte 0x02
            0x00592d2a      .byte 0x4f
            0x00592d2b      .byte 0x4b
            0x00592d2c      .byte 0x0b
            0x00592d2d     .string "k0-inc-ref " ; len=11
            0x00592d38      .byte 0x02
            0x00592d39      .byte 0x2c
            0x00592d3a      .byte 0x20
            0x00592d3b      .byte 0x06
            0x00592d3c     .string ", fid " ; len=6
            0x00592d42      .byte 0x0e
            0x00592d43     .string "ref count now " ; len=14
            0x00592d51      .byte 0x08
            0x00592d52     .string "vol ptr " ; len=8
            0x00592d5a      .byte 0x02
            0x00592d5b      .byte 0x44
            0x00592d5c      .byte 0x49
            0x00592d5d      .byte 0x19
            0x00592d5e     .string "Checking against temp_fp " ; len=25
            0x00592d77      .byte 0x04
            0x00592d78      .byte 0x66
            0x00592d79      .byte 0x69
            0x00592d7a      .byte 0x64
            0x00592d7b      .byte 0x20
            0x00592d7c      .byte 0x0d
            0x00592d7d     .string "temp vol ptr " ; len=13
            0x00592d8a      .byte 0x2e
            0x00592d8b     .string "++++ Adding to list file that's already there." ; len=46
            0x00592db9      .byte 0x1b
            0x00592dba     .string "Same filer, different file." ; len=27
            0x00592dd5      .byte 0x10
            0x00592dd6     .string "Different filer." ; len=16
            0x00592de6      .byte 0x23
            0x00592de7     .string "++++ Replacing duplicate reference." ; len=35
            0x00592e0a      .byte 0x0a
            0x00592e0b     .string "k-copy-ref" ; len=10
            0x00592e15      .byte 0x02
            0x00592e16      .byte 0x4f
            0x00592e17      .byte 0x4b
            0x00592e18      .byte 0x02
            0x00592e19      .byte 0x4f
            0x00592e1a      .byte 0x4b
            0x00592e1b      .byte 0x02
            0x00592e1c      .byte 0x4f
            0x00592e1d      .byte 0x4b
            0x00592e1e      .byte 0x11
            0x00592e1f     .string "ref count is now " ; len=17
            0x00592e30      .byte 0x11
            0x00592e31     .string " for source file " ; len=17
            0x00592e42      .byte 0x04
            0x00592e43      .byte 0x20
            0x00592e44      .byte 0x61
            0x00592e45      .byte 0x74
            0x00592e46      .byte 0x20
            0x00592e47      .byte 0x0a
            0x00592e48     .string "k-lose-ref" ; len=10
            0x00592e52      .byte 0x02
            0x00592e53      .byte 0x4f
            0x00592e54      .byte 0x4b
            0x00592e55      .byte 0x00
            0x00592e56      .byte 0x1c
            0x00592e57      .byte 0x00
            0x00592e58      .byte 0x00
            0x00592e59      .byte 0x00
            0x00592e5a      .byte 0x00
            0x00592e5b      .byte 0x00
            0x00592e5c      .byte 0x00
            0x00592e5d      .byte 0x00
            0x00592e5e      .byte 0x00
            0x00592e5f      .byte 0x00
            0x00592e60      .byte 0x00
            0x00592e61      .byte 0x00
            0x00592e62      .byte 0x14
            0x00592e63     .string "picture number table" ; len=20
            0x00592e77      .byte 0x12
            0x00592e78     .string "stack number table" ; len=18
            0x00592e8a      .byte 0x02
            0x00592e8b      .byte 0x42
            0x00592e8c      .byte 0x46
            0x00592e8d      .byte 0x08
            0x00592e8e     .string "Region: " ; len=8
            0x00592e96      .byte 0x02
            0x00592e97     .string "OK" ; len=2
            0x00592e99      .byte 0x25
            0x00592e9a     .string "!!! Got exch num for fixed disk. vol " ; len=37
            0x00592ebf      .byte 0x06
            0x00592ec0     .string ", num " ; len=6
            0x00592ec6      .byte 0x02
            0x00592ec7      .byte 0x4e
            0x00592ec8      .byte 0x44
            0x00592ec9      .byte 0x02
            0x00592eca      .byte 0x4e
            0x00592ecb      .byte 0x44
            0x00592ecc      .byte 0x02
            0x00592ecd      .byte 0x4e
            0x00592ece      .byte 0x44
            0x00592ecf      .byte 0x0d
            0x00592ed0     .string "Exchangeable " ; len=13
            0x00592edd      .byte 0x0b
            0x00592ede     .string "exch_range " ; len=11
            0x00592ee9      .byte 0x0d
            0x00592eea     .string "Range result " ; len=13
            0x00592ef7      .byte 0x09
            0x00592ef8     .string " for vol " ; len=9
            0x00592f01      .byte 0x0e
            0x00592f02     .string "k-create-file " ; len=14
            0x00592f10      .byte 0x06
            0x00592f11     .string " Size " ; len=6
            0x00592f17      .byte 0x0c
            0x00592f18     .string "with number " ; len=12
            0x00592f24      .byte 0x02
            0x00592f25      .byte 0x4f
            0x00592f26      .byte 0x4b
            0x00592f27      .byte 0x12
            0x00592f28     .string "  override aspect " ; len=18
            0x00592f3a      .byte 0x00
            0x00592f3b      .byte 0x00
            0x00592f3c      .byte 0xf0
            0x00592f3d      .byte 0xff
            0x00592f3e      .byte 0x07
            0x00592f3f      .byte 0x3c
            0x00592f40      .byte 0x00
            0x00592f41      .byte 0x00
            0x00592f42      .byte 0x00
            0x00592f43      .byte 0x00
            0x00592f44      .byte 0x00
            0x00592f45      .byte 0x00
            0x00592f46      .byte 0x00
            0x00592f47      .byte 0x00
            0x00592f48      .byte 0x40
            0x00592f49      .byte 0x00
            0x00592f4a      .byte 0x00
            0x00592f4b      .byte 0x00
            0x00592f4c      .byte 0x00
            0x00592f4d      .byte 0x00
            0x00592f4e      .byte 0x07
            0x00592f4f     .string "Aspect " ; len=7
            0x00592f56      .byte 0x02
            0x00592f57      .byte 0x48
            0x00592f58      .byte 0x46
            0x00592f59      .byte 0x02
            0x00592f5a      .byte 0x4f
            0x00592f5b      .byte 0x4b
            0x00592f5c      .byte 0x02
            0x00592f5d      .byte 0x4e
            0x00592f5e      .byte 0x44
            0x00592f5f      .byte 0x19
            0x00592f60     .string "  choose disk result was " ; len=25
            0x00592f79      .byte 0x02
            0x00592f7a      .byte 0x4f
            0x00592f7b      .byte 0x4b
            0x00592f7c      .byte 0x06
            0x00592f7d     .string ". vol " ; len=6
            0x00592f83      .byte 0x02
            0x00592f84      .byte 0x4e
            0x00592f85      .byte 0x44
            0x00592f86      .byte 0x02
            0x00592f87      .byte 0x4f
            0x00592f88      .byte 0x4b
            0x00592f89      .byte 0x02
            0x00592f8a      .byte 0x50
            0x00592f8b      .byte 0x52
            0x00592f8c      .byte 0x02
            0x00592f8d      .byte 0x4f
            0x00592f8e      .byte 0x4b
            0x00592f8f      .byte 0x18
            0x00592f90     .string "  protection result was " ; len=24
            0x00592fa8      .byte 0x02
            0x00592fa9      .byte 0x4f
            0x00592faa      .byte 0x4b
            0x00592fab      .byte 0x1a
            0x00592fac     .string "  number check result was " ; len=26
            0x00592fc6      .byte 0x02
            0x00592fc7      .byte 0x4f
            0x00592fc8      .byte 0x4b
            0x00592fc9      .byte 0x17
            0x00592fca     .string "  k1-create result was " ; len=23
            0x00592fe1      .byte 0x02
            0x00592fe2      .byte 0x4f
            0x00592fe3      .byte 0x4b
            0x00592fe4      .byte 0x00
            0x00592fe5      .byte 0x00
            0x00592fe6      .byte 0x00
            0x00592fe7      .byte 0x00
            0x00592fe8      .byte 0x20
            0x00592fe9      .byte 0x00
            0x00592fea      .byte 0x00
            0x00592feb      .byte 0x00
            0x00592fec      .byte 0x02
            0x00592fed      .byte 0x4f
            0x00592fee      .byte 0x4b
            0x00592fef      .byte 0x02
            0x00592ff0      .byte 0x4f
            0x00592ff1      .byte 0x4b
            0x00592ff2      .byte 0x02
            0x00592ff3      .byte 0x4f
            0x00592ff4      .byte 0x4b
            0x00592ff5      .byte 0x02
            0x00592ff6      .byte 0x4f
            0x00592ff7      .byte 0x4b
            0x00592ff8      .byte 0x02
            0x00592ff9      .byte 0x4f
            0x00592ffa      .byte 0x4b
            0x00592ffb      .byte 0x02
            0x00592ffc      .byte 0x4f
            0x00592ffd      .byte 0x4b
            0x00592ffe      .byte 0x02
            0x00592fff      .byte 0x4f
            0x00593000      .byte 0x4b
            0x00593001      .byte 0x02
            0x00593002      .byte 0x4f
            0x00593003      .byte 0x4b
            0x00593004      .byte 0x02
            0x00593005      .byte 0x4f
            0x00593006      .byte 0x4b
            0x00593007      .byte 0x02
            0x00593008      .byte 0x4f
            0x00593009      .byte 0x4b
            0x0059300a      .byte 0x02
            0x0059300b      .byte 0x4e
            0x0059300c      .byte 0x53
            0x0059300d      .byte 0x18
            0x0059300e     .string "k-create-file ref count " ; len=24
            0x00593026      .byte 0x0e
            0x00593027     .string "k-create-file " ; len=14
            0x00593035      .byte 0x07
            0x00593036     .string ", Size " ; len=7
            0x0059303d      .byte 0x0c
            0x0059303e     .string "with number " ; len=12
            0x0059304a      .byte 0x02
            0x0059304b      .byte 0x4f
            0x0059304c      .byte 0x4b
            0x0059304d      .byte 0x12
            0x0059304e     .string "  override aspect " ; len=18
            0x00593060      .byte 0x00
            0x00593061      .byte 0x00
            0x00593062      .byte 0xf0
            0x00593063      .byte 0xff
            0x00593064      .byte 0x07
            0x00593065      .byte 0x3c
            0x00593066      .byte 0x00
            0x00593067      .byte 0x00
            0x00593068      .byte 0x00
            0x00593069      .byte 0x00
            0x0059306a      .byte 0x00
            0x0059306b      .byte 0x00
            0x0059306c      .byte 0x00
            0x0059306d      .byte 0x00
            0x0059306e      .byte 0x40
            0x0059306f      .byte 0x00
            0x00593070      .byte 0x00
            0x00593071      .byte 0x00
            0x00593072      .byte 0x00
            0x00593073      .byte 0x00
            0x00593074      .byte 0x07
            0x00593075     .string "Aspect " ; len=7
            0x0059307c      .byte 0x02
            0x0059307d      .byte 0x48
            0x0059307e      .byte 0x46
            0x0059307f      .byte 0x02
            0x00593080      .byte 0x50
            0x00593081      .byte 0x52
            0x00593082      .byte 0x02
            0x00593083      .byte 0x4f
            0x00593084      .byte 0x4b
            0x00593085      .byte 0x18
            0x00593086     .string "  protection result was " ; len=24
            0x0059309e      .byte 0x02
            0x0059309f      .byte 0x4f
            0x005930a0      .byte 0x4b
            0x005930a1      .byte 0x1a
            0x005930a2     .string "  number check result was " ; len=26
            0x005930bc      .byte 0x02
            0x005930bd      .byte 0x4f
            0x005930be      .byte 0x4b
            0x005930bf      .byte 0x02
            0x005930c0      .byte 0x4f
            0x005930c1      .byte 0x4b
            0x005930c2      .byte 0x04
            0x005930c3      .byte 0x20
            0x005930c4      .byte 0x6f
            0x005930c5      .byte 0x6e
            0x005930c6      .byte 0x20
            0x005930c7      .byte 0x02
            0x005930c8      .byte 0x4e
            0x005930c9      .byte 0x53
            0x005930ca      .byte 0x02
            0x005930cb      .byte 0x4f
            0x005930cc      .byte 0x4b
            0x005930cd      .byte 0x17
            0x005930ce     .string "  k1-create result was " ; len=23
            0x005930e5      .byte 0x02
            0x005930e6      .byte 0x4f
            0x005930e7      .byte 0x4b
            0x005930e8      .byte 0x00
            0x005930e9      .byte 0x00
            0x005930ea      .byte 0x00
            0x005930eb      .byte 0x00
            0x005930ec      .byte 0x20
            0x005930ed      .byte 0x00
            0x005930ee      .byte 0x00
            0x005930ef      .byte 0x00
            0x005930f0      .byte 0x02
            0x005930f1      .byte 0x4f
            0x005930f2      .byte 0x4b
            0x005930f3      .byte 0x02
            0x005930f4      .byte 0x4f
            0x005930f5      .byte 0x4b
            0x005930f6      .byte 0x02
            0x005930f7      .byte 0x4f
            0x005930f8      .byte 0x4b
            0x005930f9      .byte 0x02
            0x005930fa      .byte 0x4e
            0x005930fb      .byte 0x53
            0x005930fc      .byte 0x18
            0x005930fd     .string "k-create-file ref count " ; len=24
            0x00593115      .byte 0x0b
            0x00593116     .string "lose-search" ; len=11
            0x00593121      .byte 0x0c
            0x00593122     .string "Losing entry" ; len=12
            0x0059312e      .byte 0x02
            0x0059312f      .byte 0x4f
            0x00593130      .byte 0x4b
            0x00593131      .byte 0x02
            0x00593132      .byte 0x4f
            0x00593133      .byte 0x4b
            0x00593134      .byte 0x07
            0x00593135     .string "result " ; len=7
            0x0059313c      .byte 0x0f
            0x0059313d     .string " losing search." ; len=15
            0x0059314c      .byte 0x04
            0x0059314d      .byte 0x49
            0x0059314e      .byte 0x76
            0x0059314f      .byte 0x4b
            0x00593150      .byte 0x53
            0x00593151      .byte 0x13
            0x00593152     .string "Leaving lose-search" ; len=19
            0x00593165      .byte 0x13
            0x00593166     .string "k-start-search for " ; len=19
            0x00593179      .byte 0x02
            0x0059317a     .string "OK" ; len=2
            0x0059317c      .byte 0x2a
            0x0059317d     .string "k-start-search called with non-nil search." ; len=42
            0x005931a7      .byte 0x14
            0x005931a8     .string "disposing of search." ; len=20
            0x005931bc      .byte 0x1b
            0x005931bd     .string "Heap full in k_start_search" ; len=27
            0x005931d8      .byte 0x02
            0x005931d9      .byte 0x48
            0x005931da      .byte 0x46
            0x005931db      .byte 0x02
            0x005931dc      .byte 0x4f
            0x005931dd      .byte 0x4b
            0x005931de      .byte 0x04
            0x005931df      .byte 0x4b
            0x005931e0      .byte 0x30
            0x005931e1      .byte 0x2d
            0x005931e2      .byte 0x53
            0x005931e3      .byte 0x02
            0x005931e4      .byte 0x4f
            0x005931e5      .byte 0x4b
            0x005931e6      .byte 0x02
            0x005931e7      .byte 0x4f
            0x005931e8      .byte 0x4b
            0x005931e9      .byte 0x02
            0x005931ea      .byte 0x4e
            0x005931eb      .byte 0x44
            0x005931ec      .byte 0x02
            0x005931ed     .string "OK" ; len=2
            0x005931ef      .byte 0x33
            0x005931f0     .string "  In k-start-search result after k03_check_vol was " ; len=51
            0x00593223      .byte 0x02
            0x00593224      .byte 0x4f
            0x00593225      .byte 0x4b
            0x00593226      .byte 0x02
            0x00593227      .byte 0x4f
            0x00593228      .byte 0x4b
            0x00593229      .byte 0x02
            0x0059322a     .string "DI" ; len=2
            0x0059322c      .byte 0x34
            0x0059322d     .string "  In k-start-search result after mounting check was " ; len=52
            0x00593261      .byte 0x02
            0x00593262      .byte 0x4f
            0x00593263      .byte 0x4b
            0x00593264      .byte 0x02
            0x00593265      .byte 0x4f
            0x00593266      .byte 0x4b
            0x00593267      .byte 0x02
            0x00593268      .byte 0x4e
            0x00593269      .byte 0x44
            0x0059326a      .byte 0x02
            0x0059326b      .byte 0x4f
            0x0059326c      .byte 0x4b
            0x0059326d      .byte 0x02
            0x0059326e      .byte 0x4e
            0x0059326f      .byte 0x44
            0x00593270      .byte 0x02
            0x00593271      .byte 0x4f
            0x00593272      .byte 0x4b
            0x00593273      .byte 0x04
            0x00593274      .byte 0x49
            0x00593275      .byte 0x76
            0x00593276      .byte 0x4b
            0x00593277      .byte 0x53
            0x00593278      .byte 0x17
            0x00593279     .string "k-find-next-file after " ; len=23
            0x00593290      .byte 0x02
            0x00593291      .byte 0x4f
            0x00593292      .byte 0x4b
            0x00593293      .byte 0x02
            0x00593294     .string "DI" ; len=2
            0x00593296      .byte 0x29
            0x00593297     .string "File disk dismounted. Resetting newmatch." ; len=41
            0x005932c0      .byte 0x02
            0x005932c1      .byte 0x48
            0x005932c2      .byte 0x46
            0x005932c3      .byte 0x00
            0x005932c4      .byte 0xff
            0x005932c5      .byte 0xff
            0x005932c6      .byte 0xff
            0x005932c7      .byte 0xff
            0x005932c8      .byte 0xff
            0x005932c9      .byte 0xff
            0x005932ca      .byte 0xff
            0x005932cb      .byte 0xff
            0x005932cc      .byte 0x00
            0x005932cd      .byte 0x00
            0x005932ce      .byte 0x02
            0x005932cf      .byte 0x44
            0x005932d0      .byte 0x49
            0x005932d1      .byte 0x02
            0x005932d2      .byte 0x44
            0x005932d3      .byte 0x49
            0x005932d4      .byte 0x07
            0x005932d5     .string "  file " ; len=7
            0x005932dc      .byte 0x09
            0x005932dd     .string ", result " ; len=9
            0x005932e6      .byte 0x15
            0x005932e7     .string ". Now check mounting." ; len=21
            0x005932fc      .byte 0x02
            0x005932fd      .byte 0x4f
            0x005932fe      .byte 0x4b
            0x005932ff      .byte 0x02
            0x00593300      .byte 0x4f
            0x00593301      .byte 0x4b
            0x00593302      .byte 0x02
            0x00593303      .byte 0x44
            0x00593304      .byte 0x49
            0x00593305      .byte 0x10
            0x00593306     .string "Mounting result " ; len=16
            0x00593316      .byte 0x02
            0x00593317      .byte 0x4f
            0x00593318      .byte 0x4b
            0x00593319      .byte 0x1b
            0x0059331a     .string "Find matching search entry." ; len=27
            0x00593335      .byte 0x12
            0x00593336     .string "Step search entry." ; len=18
            0x00593348      .byte 0x02
            0x00593349     .string "ED" ; len=2
            0x0059334b      .byte 0x26
            0x0059334c     .string "Finding suitable search entry. result " ; len=38
            0x00593372      .byte 0x02
            0x00593373      .byte 0x4f
            0x00593374      .byte 0x4b
            0x00593375      .byte 0x19
            0x00593376     .string "  About to search volume " ; len=25
            0x0059338f      .byte 0x0b
            0x00593390     .string ", newmatch " ; len=11
            0x0059339b      .byte 0x0b
            0x0059339c     .string ", forwards " ; len=11
            0x005933a7      .byte 0x2b
            0x005933a8     .string "  In k-find-next k-mounting-int result was " ; len=43
            0x005933d3      .byte 0x02
            0x005933d4      .byte 0x45
            0x005933d5      .byte 0x44
            0x005933d6      .byte 0x1f
            0x005933d7     .string "  fid after first k1-find-next " ; len=31
            0x005933f6      .byte 0x09
            0x005933f7     .string ", result " ; len=9
            0x00593400      .byte 0x02
            0x00593401      .byte 0x45
            0x00593402      .byte 0x44
            0x00593403      .byte 0x02
            0x00593404      .byte 0x4e
            0x00593405      .byte 0x46
            0x00593406      .byte 0x02
            0x00593407      .byte 0x4f
            0x00593408      .byte 0x4b
            0x00593409      .byte 0x02
            0x0059340a     .string "ND" ; len=2
            0x0059340c      .byte 0x28
            0x0059340d     .string "  In k-find-next choose-disk result was " ; len=40
            0x00593435      .byte 0x02
            0x00593436      .byte 0x4f
            0x00593437      .byte 0x4b
            0x00593438      .byte 0x02
            0x00593439      .byte 0x4e
            0x0059343a      .byte 0x44
            0x0059343b      .byte 0x02
            0x0059343c      .byte 0x4f
            0x0059343d      .byte 0x4b
            0x0059343e      .byte 0x12
            0x0059343f     .string "Step search entry." ; len=18
            0x00593451      .byte 0x0c
            0x00593452     .string "Entry found." ; len=12
            0x0059345e      .byte 0x11
            0x0059345f     .string "Start a new disk." ; len=17
            0x00593470      .byte 0x02
            0x00593471      .byte 0x4f
            0x00593472      .byte 0x4b
            0x00593473      .byte 0x02
            0x00593474     .string "DI" ; len=2
            0x00593476      .byte 0x31
            0x00593477     .string "  In k-find-next result after mounting check was " ; len=49
            0x005934a8      .byte 0x02
            0x005934a9     .string "OK" ; len=2
            0x005934ab      .byte 0x2f
            0x005934ac     .string "  In k-find-next result after start-search was " ; len=47
            0x005934db      .byte 0x02
            0x005934dc      .byte 0x4f
            0x005934dd      .byte 0x4b
            0x005934de      .byte 0xff
            0x005934df      .byte 0xff
            0x005934e0      .byte 0xff
            0x005934e1      .byte 0xff
            0x005934e2      .byte 0xff
            0x005934e3      .byte 0xff
            0x005934e4      .byte 0xff
            0x005934e5      .byte 0xff
            0x005934e6      .byte 0x00
            0x005934e7      .byte 0x00
            0x005934e8      .byte 0x02
            0x005934e9      .byte 0x4f
            0x005934ea      .byte 0x4b
            0x005934eb      .byte 0x02
            0x005934ec      .byte 0x4f
            0x005934ed      .byte 0x4b
            0x005934ee      .byte 0x02
            0x005934ef      .byte 0x44
            0x005934f0      .byte 0x49
            0x005934f1      .byte 0x02
            0x005934f2      .byte 0x4f
            0x005934f3      .byte 0x4b
            0x005934f4      .byte 0x12
            0x005934f5     .string "  Search NEW disk " ; len=18
            0x00593507      .byte 0x0b
            0x00593508     .string ", newmatch " ; len=11
            0x00593513      .byte 0x0b
            0x00593514     .string ", forwards " ; len=11
            0x0059351f      .byte 0x1b
            0x00593520     .string "  k1-find-next-file result " ; len=27
            0x0059353b      .byte 0x0b
            0x0059353c     .string ", file-ptr " ; len=11
            0x00593547      .byte 0x25
            0x00593548     .string "  In k-find-next mounting result was " ; len=37
            0x0059356d      .byte 0x02
            0x0059356e      .byte 0x4f
            0x0059356f      .byte 0x4b
            0x00593570      .byte 0x02
            0x00593571      .byte 0x4e
            0x00593572      .byte 0x44
            0x00593573      .byte 0x02
            0x00593574      .byte 0x4e
            0x00593575      .byte 0x44
            0x00593576      .byte 0x02
            0x00593577      .byte 0x4e
            0x00593578      .byte 0x46
            0x00593579      .byte 0x02
            0x0059357a      .byte 0x4f
            0x0059357b      .byte 0x4b
            0x0059357c      .byte 0x02
            0x0059357d      .byte 0x4f
            0x0059357e      .byte 0x4b
            0x0059357f      .byte 0x1b
            0x00593580     .string "k-find-next-file ref count " ; len=27
            0x0059359b      .byte 0x04
            0x0059359c      .byte 0x66
            0x0059359d      .byte 0x69
            0x0059359e      .byte 0x64
            0x0059359f      .byte 0x20
            0x005935a0      .byte 0x02
            0x005935a1      .byte 0x4f
            0x005935a2      .byte 0x4b
            0x005935a3      .byte 0x02
            0x005935a4     .string "OK" ; len=2
            0x005935a6      .byte 0x21
            0x005935a7     .string "leaving k-find-next-file. result " ; len=33
            0x005935c8      .byte 0x07
            0x005935c9     .string ", file " ; len=7
            0x005935d0      .byte 0x0c
            0x005935d1     .string "k-end-search" ; len=12
            0x005935dd      .byte 0x02
            0x005935de      .byte 0x4f
            0x005935df      .byte 0x4b
            0x005935e0      .byte 0x0b
            0x005935e1     .string "k-find-file" ; len=11
            0x005935ec      .byte 0x02
            0x005935ed      .byte 0x4f
            0x005935ee      .byte 0x4b
            0x005935ef      .byte 0x02
            0x005935f0      .byte 0x48
            0x005935f1      .byte 0x46
            0x005935f2      .byte 0x02
            0x005935f3      .byte 0x4f
            0x005935f4      .byte 0x4b
            0x005935f5      .byte 0x02
            0x005935f6      .byte 0x4f
            0x005935f7      .byte 0x4b
            0x005935f8      .byte 0x02
            0x005935f9      .byte 0x4e
            0x005935fa      .byte 0x44
            0x005935fb      .byte 0x02
            0x005935fc      .byte 0x4f
            0x005935fd      .byte 0x4b
            0x005935fe      .byte 0x13
            0x005935ff     .string "choose-disk result " ; len=19
            0x00593612      .byte 0x02
            0x00593613      .byte 0x4f
            0x00593614      .byte 0x4b
            0x00593615      .byte 0x02
            0x00593616      .byte 0x4f
            0x00593617      .byte 0x4b
            0x00593618      .byte 0x02
            0x00593619      .byte 0x44
            0x0059361a      .byte 0x49
            0x0059361b      .byte 0x16
            0x0059361c     .string "k-mounting-int result " ; len=22
            0x00593632      .byte 0x02
            0x00593633      .byte 0x4f
            0x00593634      .byte 0x4b
            0x00593635      .byte 0x14
            0x00593636     .string "k1-find-file result " ; len=20
            0x0059364a      .byte 0x02
            0x0059364b      .byte 0x4f
            0x0059364c      .byte 0x4b
            0x0059364d      .byte 0x02
            0x0059364e      .byte 0x4f
            0x0059364f      .byte 0x4b
            0x00593650      .byte 0x12
            0x00593651     .string "result after loop " ; len=18
            0x00593663      .byte 0x02
            0x00593664      .byte 0x4f
            0x00593665      .byte 0x4b
            0x00593666      .byte 0x02
            0x00593667      .byte 0x4e
            0x00593668      .byte 0x46
            0x00593669      .byte 0x16
            0x0059366a     .string "k-find-file ref count " ; len=22
            0x00593680      .byte 0x06
            0x00593681     .string "delete" ; len=6
            0x00593687      .byte 0x0d
            0x00593688     .string "k-delete-file" ; len=13
            0x00593695      .byte 0x02
            0x00593696      .byte 0x4f
            0x00593697      .byte 0x4b
            0x00593698      .byte 0x02
            0x00593699      .byte 0x44
            0x0059369a      .byte 0x49
            0x0059369b      .byte 0x14
            0x0059369c     .string "Getting file pointer" ; len=20
            0x005936b0      .byte 0x02
            0x005936b1      .byte 0x44
            0x005936b2      .byte 0x49
            0x005936b3      .byte 0x0d
            0x005936b4     .string "Ref count is " ; len=13
            0x005936c1      .byte 0x02
            0x005936c2      .byte 0x4f
            0x005936c3      .byte 0x4b
            0x005936c4      .byte 0x0e
            0x005936c5     .string "Can't delete, " ; len=14
            0x005936d3      .byte 0x2d
            0x005936d4     .string " references outstanding. Marking for deletion" ; len=45
            0x00593701      .byte 0x02
            0x00593702      .byte 0x50
            0x00593703      .byte 0x52
            0x00593704      .byte 0x02
            0x00593705      .byte 0x4f
            0x00593706      .byte 0x4b
            0x00593707      .byte 0x13
            0x00593708     .string "checking protection" ; len=19
            0x0059371b      .byte 0x0a
            0x0059371c     .string "deindexing" ; len=10
            0x00593726      .byte 0x0d
            0x00593727     .string "Deleting file" ; len=13
            0x00593734      .byte 0x18
            0x00593735     .string "k-delete-file returning " ; len=24
            0x0059374d      .byte 0x0e
            0x0059374e     .string "leaving delete" ; len=14
            0x0059375c      .byte 0x02
            0x0059375d      .byte 0x4f
            0x0059375e      .byte 0x4b
            0x0059375f      .byte 0x13
            0x00593760     .string "k8-dismount failed." ; len=19
            0x00593773      .byte 0x02
            0x00593774      .byte 0x44
            0x00593775      .byte 0x45
            0x00593776      .byte 0x02
            0x00593777      .byte 0x4f
            0x00593778      .byte 0x4b
            0x00593779      .byte 0x15
            0x0059377a     .string "k-directory. variant " ; len=21
            0x0059378f      .byte 0x02
            0x00593790      .byte 0x4f
            0x00593791      .byte 0x4b
            0x00593792      .byte 0x02
            0x00593793      .byte 0x4e
            0x00593794      .byte 0x44
            0x00593795      .byte 0x19
            0x00593796     .string "  choose disk result was " ; len=25
            0x005937af      .byte 0x02
            0x005937b0      .byte 0x4f
            0x005937b1      .byte 0x4b
            0x005937b2      .byte 0x02
            0x005937b3      .byte 0x4f
            0x005937b4      .byte 0x4b
            0x005937b5      .byte 0x02
            0x005937b6      .byte 0x44
            0x005937b7      .byte 0x49
            0x005937b8      .byte 0x02
            0x005937b9      .byte 0x4f
            0x005937ba      .byte 0x4b
            0x005937bb      .byte 0x1a
            0x005937bc     .string "  k1-directory result was " ; len=26
            0x005937d6      .byte 0x02
            0x005937d7      .byte 0x4f
            0x005937d8      .byte 0x4b
            0x005937d9      .byte 0x19
            0x005937da     .string "In k_protect, got result " ; len=25
            0x005937f3      .byte 0x0d
            0x005937f4     .string "Mount volume " ; len=13
            0x00593801      .byte 0x0b
            0x00593802     .string ", on drive " ; len=11
            0x0059380d      .byte 0x15
            0x0059380e     .string "Volume already known " ; len=21
            0x00593823      .byte 0x00
            0x00593824      .byte 0x10
            0x00593825      .byte 0x00
            0x00593826      .byte 0x00
            0x00593827      .byte 0x00
            0x00593828      .byte 0x00
            0x00593829      .byte 0x00
            0x0059382a      .byte 0x00
            0x0059382b      .byte 0x00
            0x0059382c      .byte 0x00
            0x0059382d      .byte 0x00
            0x0059382e      .byte 0x00
            0x0059382f      .byte 0x00
            0x00593830      .byte 0x10
            0x00593831      .byte 0x00
            0x00593832      .byte 0x00
            0x00593833      .byte 0x00
            0x00593834      .byte 0x00
            0x00593835      .byte 0x00
            0x00593836      .byte 0x00
            0x00593837      .byte 0x00
            0x00593838      .byte 0x10
            0x00593839      .byte 0x00
            0x0059383a      .byte 0x00
            0x0059383b      .byte 0x00
            0x0059383c      .byte 0x02
            0x0059383d      .byte 0x00
            0x0059383e      .byte 0x00
            0x0059383f      .byte 0x00
            0x00593840      .byte 0x00
            0x00593841      .byte 0x00
            0x00593842      .byte 0x00
            0x00593843      .byte 0x00
            0x00593844      .byte 0x02
            0x00593845      .byte 0x00
            0x00593846      .byte 0x00
            0x00593847      .byte 0x00
            0x00593848      .byte 0x00
            0x00593849      .byte 0x00
            0x0059384a      .byte 0x00
            0x0059384b      .byte 0x00
            0x0059384c      .byte 0x00
            0x0059384d      .byte 0x00
            0x0059384e      .byte 0x00
            0x0059384f      .byte 0x00
            0x00593850      .byte 0x20
            0x00593851      .byte 0x00
            0x00593852      .byte 0x00
            0x00593853      .byte 0x00
            0x00593854      .byte 0x00
            0x00593855      .byte 0x00
            0x00593856      .byte 0x00
            0x00593857      .byte 0x00
            0x00593858      .byte 0x20
            0x00593859      .byte 0x00
            0x0059385a      .byte 0x00
            0x0059385b      .byte 0x00
            0x0059385c      .byte 0x00
            0x0059385d      .byte 0x00
            0x0059385e      .byte 0x00
            0x0059385f      .byte 0x00
            0x00593860      .byte 0x20
            0x00593861      .byte 0x00
            0x00593862      .byte 0x00
            0x00593863      .byte 0x00
            0x00593864      .byte 0x00
            0x00593865      .byte 0x00
            0x00593866      .byte 0x00
            0x00593867      .byte 0x00
            0x00593868      .byte 0x20
            0x00593869      .byte 0x00
            0x0059386a      .byte 0x00
            0x0059386b      .byte 0x00
            0x0059386c      .byte 0x02
            0x0059386d      .byte 0x00
            0x0059386e      .byte 0x00
            0x0059386f      .byte 0x00
            0x00593870      .byte 0x00
            0x00593871      .byte 0x00
            0x00593872      .byte 0x00
            0x00593873      .byte 0x00
            0x00593874      .byte 0x00
            0x00593875      .byte 0x00
            0x00593876      .byte 0x00
            0x00593877      .byte 0x00
            0x00593878      .byte 0x20
            0x00593879      .byte 0x00
            0x0059387a      .byte 0x00
            0x0059387b      .byte 0x00
            0x0059387c      .byte 0x02
            0x0059387d      .byte 0x00
            0x0059387e      .byte 0x00
            0x0059387f      .byte 0x00
            0x00593880      .byte 0x00
            0x00593881      .byte 0x00
            0x00593882      .byte 0x00
            0x00593883      .byte 0x00
            0x00593884      .byte 0x00
            0x00593885      .byte 0x00
            0x00593886      .byte 0x00
            0x00593887      .byte 0x00
            0x00593888      .byte 0x20
            0x00593889      .byte 0x00
            0x0059388a      .byte 0x00
            0x0059388b      .byte 0x00
            0x0059388c      .byte 0x10
            0x0059388d     .string "dismount volume " ; len=16
            0x0059389d      .byte 0x00
            0x0059389e      .byte 0x10
            0x0059389f      .byte 0x00
            0x005938a0      .byte 0x00
            0x005938a1      .byte 0x00
            0x005938a2      .byte 0x00
            0x005938a3      .byte 0x00
            0x005938a4      .byte 0x00
            0x005938a5      .byte 0x00
            0x005938a6      .byte 0x00
            0x005938a7      .byte 0x00
            0x005938a8      .byte 0x00
            0x005938a9      .byte 0x00
            0x005938aa      .byte 0x10
            0x005938ab      .byte 0x00
            0x005938ac      .byte 0x00
            0x005938ad      .byte 0x00
            0x005938ae      .byte 0x02
            0x005938af      .byte 0x4f
            0x005938b0      .byte 0x4b
            0x005938b1      .byte 0x02
            0x005938b2      .byte 0x44
            0x005938b3      .byte 0x49
            0x005938b4      .byte 0x02
            0x005938b5      .byte 0x4f
            0x005938b6      .byte 0x4b
            0x005938b7      .byte 0x02
            0x005938b8      .byte 0x4f
            0x005938b9      .byte 0x4b
            0x005938ba      .byte 0x02
            0x005938bb      .byte 0x4f
            0x005938bc      .byte 0x4b
            0x005938bd      .byte 0x00
            0x005938be      .byte 0xff
            0x005938bf      .byte 0xff
            0x005938c0      .byte 0xff
            0x005938c1      .byte 0xff
            0x005938c2      .byte 0x00
            0x005938c3      .byte 0x00
            0x005938c4      .byte 0x00
            0x005938c5      .byte 0x00
            0x005938c6      .byte 0x00
            0x005938c7      .byte 0x00
            0x005938c8      .byte 0x02
            0x005938c9      .byte 0x44
            0x005938ca      .byte 0x49
            0x005938cb      .byte 0x02
            0x005938cc      .byte 0x44
            0x005938cd      .byte 0x49
            0x005938ce      .byte 0x0e
            0x005938cf     .string "Initialization" ; len=14
            0x005938dd      .byte 0x07
            0x005938de      .byte 0x4e
            0x005938df      .byte 0x6f
            0x005938e0      .byte 0x74
            0x005938e1      .byte 0x68
            0x005938e2      .byte 0x69
            0x005938e3      .byte 0x6e
            0x005938e4      .byte 0x67
            0x005938e5      .byte 0x69
            ; XREFS: CALL 0x0059431c  CALL 0x005943a4  CALL 0x00594866  
            ; XREFS: CALL 0x00594a1e  CALL 0x0059676e  CALL 0x00596ae0  
            ; XREFS: CALL 0x00597012  CALL 0x005971ac  
 316: K0_DISKMGR.fid_str ();
           0x005938e6      4e56fdc6       link.w a6, 0xfdc6
           0x005938ea      bfd5           cmpa.l (a5), a7
       < 0x005938ec      6206           bhi.b 0x5938f4
          0x005938ee      44fc0002       move.w 0x2, ccr
          0x005938f2      4e76           trapv
       > 0x005938f4      defc003a       adda.w 0x3a, a7
           0x005938f8      48e7f8f8       movem.l d0-d4/a0-a4, -(a7)
           0x005938fc      45eefe00       lea.l -0x200(a6), a2
           0x00593900      47eeff00       lea.l -0x100(a6), a3
           0x00593904      49eeff01       lea.l -0xff(a6), a4
           0x00593908      363c00ff       move.w 0xff, d3
           0x0059390c      780e           moveq 0xe, d4
           0x0059390e      2f2e0008       move.l 0x8(a6), -(a7)
           0x00593912      4878ffff       pea.l 0xffff
           0x00593916      4852           pea.l (a2)
           0x00593918      3f03           move.w d3, -(a7)
           0x0059391a      4eb900406e56   jsr p_strI1
           0x00593920      dec4           adda.w d4, a7
           0x00593922      4240           clr.w d0
           0x00593924      1012           move.b (a2), d0
           0x00593926      3200           move.w d0, d1
           0x00593928      204c           movea.l a4, a0
           0x0059392a      5301           subq.b 0x1, d1
       < 0x0059392c      650a           bcs.b 0x593938
          0x0059392e      43eefe01       lea.l -0x1ff(a6), a1
      > 0x00593932      10d9           move.b (a1)+, (a0)+
      < 0x00593934      51c9fffc       dbra d1, 0x593932
       > 0x00593938      7201           moveq 0x1, d1
           0x0059393a      3403           move.w d3, d2
           0x0059393c      9440           sub.w d0, d2
           0x0059393e      b242           cmp.w d2, d1
       < 0x00593940      6302           bls.b 0x593944
          0x00593942      3202           move.w d2, d1
       > 0x00593944      1680           move.b d0, (a3)
           0x00593946      d313           add.b d1, (a3)
           0x00593948      43faeeff       lea.l 0x592849(pc), a1
       > 0x0059394c      10d9           move.b (a1)+, (a0)+
       < 0x0059394e      51c9fffc       dbra d1, 0x59394c
           0x00593952      2f2e000c       move.l 0xc(a6), -(a7)
           0x00593956      48780000       pea.l 0x0
           0x0059395a      4852           pea.l (a2)
           0x0059395c      3f03           move.w d3, -(a7)
           0x0059395e      4eb900406e56   jsr p_strI1
           0x00593964      dec4           adda.w d4, a7
           0x00593966      4240           clr.w d0
           0x00593968      1013           move.b (a3), d0
           0x0059396a      204c           movea.l a4, a0
           0x0059396c      d0c0           adda.w d0, a0
           0x0059396e      4241           clr.w d1
           0x00593970      1212           move.b (a2), d1
           0x00593972      d200           add.b d0, d1
       < 0x00593974      6406           bcc.b 0x59397c
          0x00593976      4eb900406c8a   jsr p_strovr
       > 0x0059397c      4241           clr.w d1
           0x0059397e      1212           move.b (a2), d1
           0x00593980      3403           move.w d3, d2
           0x00593982      9440           sub.w d0, d2
           0x00593984      b242           cmp.w d2, d1
       < 0x00593986      6302           bls.b 0x59398a
          0x00593988      3202           move.w d2, d1
       > 0x0059398a      d313           add.b d1, (a3)
           0x0059398c      5301           subq.b 0x1, d1
       < 0x0059398e      650a           bcs.b 0x59399a
          0x00593990      43eefe01       lea.l -0x1ff(a6), a1
      > 0x00593994      10d9           move.b (a1)+, (a0)+
      < 0x00593996      51c9fffc       dbra d1, 0x593994
       > 0x0059399a      4240           clr.w d0
           0x0059399c      1013           move.b (a3), d0
           0x0059399e      204c           movea.l a4, a0
           0x005939a0      d0c0           adda.w d0, a0
           0x005939a2      7201           moveq 0x1, d1
           0x005939a4      3403           move.w d3, d2
           0x005939a6      9440           sub.w d0, d2
           0x005939a8      b242           cmp.w d2, d1
       < 0x005939aa      6302           bls.b 0x5939ae
          0x005939ac      3202           move.w d2, d1
       > 0x005939ae      d313           add.b d1, (a3)
           0x005939b0      43faee99       lea.l 0x59284b(pc), a1
       > 0x005939b4      10d9           move.b (a1)+, (a0)+
       < 0x005939b6      51c9fffc       dbra d1, 0x5939b4
           0x005939ba      4280           clr.l d0
           0x005939bc      302e0010       move.w 0x10(a6), d0
           0x005939c0      2f00           move.l d0, -(a7)
           0x005939c2      48780000       pea.l 0x0
           0x005939c6      4852           pea.l (a2)
           0x005939c8      3f03           move.w d3, -(a7)
           0x005939ca      4eb900406e56   jsr p_strI1
           0x005939d0      dec4           adda.w d4, a7
           0x005939d2      4240           clr.w d0
           0x005939d4      1013           move.b (a3), d0
           0x005939d6      3200           move.w d0, d1
           0x005939d8      41ee0013       lea.l 0x13(a6), a0
           0x005939dc      5301           subq.b 0x1, d1
       < 0x005939de      6508           bcs.b 0x5939e8
          0x005939e0      224c           movea.l a4, a1
      > 0x005939e2      10d9           move.b (a1)+, (a0)+
      < 0x005939e4      51c9fffc       dbra d1, 0x5939e2
       > 0x005939e8      4241           clr.w d1
           0x005939ea      1212           move.b (a2), d1
           0x005939ec      d200           add.b d0, d1
       < 0x005939ee      6406           bcc.b 0x5939f6
          0x005939f0      4eb900406c8a   jsr p_strovr
       > 0x005939f6      4241           clr.w d1
           0x005939f8      1212           move.b (a2), d1
           0x005939fa      3403           move.w d3, d2
           0x005939fc      9440           sub.w d0, d2
           0x005939fe      b242           cmp.w d2, d1
       < 0x00593a00      6302           bls.b 0x593a04
          0x00593a02      3202           move.w d2, d1
       > 0x00593a04      1d400012       move.b d0, 0x12(a6)
           0x00593a08      d32e0012       add.b d1, 0x12(a6)
           0x00593a0c      5301           subq.b 0x1, d1
       < 0x00593a0e      650a           bcs.b 0x593a1a
          0x00593a10      43eefe01       lea.l -0x1ff(a6), a1
      > 0x00593a14      10d9           move.b (a1)+, (a0)+
      < 0x00593a16      51c9fffc       dbra d1, 0x593a14
       > 0x00593a1a      4cdf1f1f       movem.l (a7)+, d0-d4/a0-a4
           0x00593a1e      4e5e           unlk a6
           0x00593a20      4e75           rts
            ; CALL XREF from K0_DISKMGR.k0_gen_vol_ptr @ 0x593b18
            ; CALL XREF from K0_DISKMGR.k0_gen_file_ptr @ 0x593bf8
            ; CALL XREF from K0_DISKMGR.gen_search_ptr @ 0x593dd0
            ; CALL XREF from AFS_FILER.gen_search_ptr @ 0x5bfd40
 190: K0_DISKMGR.k0_valid_ptr ();
           0x00593a22      4e56ffc8       link.w a6, 0xffc8
           0x00593a26      bfd5           cmpa.l (a5), a7
       < 0x00593a28      6206           bhi.b 0x593a30
          0x00593a2a      44fc0002       move.w 0x2, ccr
          0x00593a2e      4e76           trapv
       > 0x00593a30      defc0030       adda.w 0x30, a7
           0x00593a34      48e780f8       movem.l d0/a0-a4, -(a7)
           0x00593a38      41ee000e       lea.l 0xe(a6), a0
           0x00593a3c      43f9004047ea   lea.l p_wts_o, a1
           0x00593a42      45f8ffff       lea.l 0xffff, a2
           0x00593a46      47f9004070e4   lea.l p_wti_o, a3
           0x00593a4c      4210           clr.b (a0)
           0x00593a4e      48780001       pea.l 0x1
           0x00593a52      202e000a       move.l 0xa(a6), d0
           0x00593a56      b097           cmp.l (a7), d0
       < 0x00593a58      6608           bne.b 0x593a62
          0x00593a5a      10ae0008       move.b 0x8(a6), (a0)
          0x00593a5e      584f           addq.w 0x4, a7
      < 0x00593a60      6076           bra.b 0x593ad8
      > 0x00593a62      08000000       btst.b 0x0, d0
      < 0x00593a66      6720           beq.b 0x593a88
         0x00593a68      487aede3       pea.l 0x59284d(pc)
         0x00593a6c      48780011       pea.l 0x11
         0x00593a70      2f17           move.l (a7), -(a7)
         0x00593a72      4e91           jsr (a1)                    ; fcn.0000000a
         0x00593a74      504f           addq.w 0x8, a7
         0x00593a76      2e80           move.l d0, (a7)
         0x00593a78      4852           pea.l (a2)
         0x00593a7a      4e93           jsr (a3)                    ; fcn.0000000c
         0x00593a7c      504f           addq.w 0x8, a7
         0x00593a7e      4eb900404946   jsr p_wtln_o
         0x00593a84      584f           addq.w 0x4, a7
     < 0x00593a86      6050           bra.b 0x593ad8
     > 0x00593a88      2d40fff8       move.l d0, -0x8(a6)
         0x00593a8c      59aefff8       subq.l 0x4, -0x8(a6)
         0x00593a90      286efff8       movea.l -0x8(a6), a4
         0x00593a94      4210           clr.b (a0)
         0x00593a96      b094           cmp.l (a4), d0
     < 0x00593a98      6602           bne.b 0x593a9c
        0x00593a9a      5210           addq.b 0x1, (a0)
     > 0x00593a9c      b094           cmp.l (a4), d0
     < 0x00593a9e      6604           bne.b 0x593aa4
        0x00593aa0      584f           addq.w 0x4, a7
    < 0x00593aa2      6034           bra.b 0x593ad8
    > 0x00593aa4      487aedb9       pea.l 0x59285f(pc)
        0x00593aa8      48780003       pea.l 0x3
        0x00593aac      2f17           move.l (a7), -(a7)
        0x00593aae      4e91           jsr (a1)                    ; fcn.0000000a
        0x00593ab0      504f           addq.w 0x8, a7
        0x00593ab2      2e80           move.l d0, (a7)
        0x00593ab4      4852           pea.l (a2)
        0x00593ab6      4e93           jsr (a3)                    ; fcn.0000000c
        0x00593ab8      504f           addq.w 0x8, a7
        0x00593aba      487aeda7       pea.l 0x592863(pc)
        0x00593abe      48780007       pea.l 0x7
        0x00593ac2      2f17           move.l (a7), -(a7)
        0x00593ac4      4e91           jsr (a1)                    ; fcn.0000000a
        0x00593ac6      504f           addq.w 0x8, a7
        0x00593ac8      2e94           move.l (a4), (a7)
        0x00593aca      4852           pea.l (a2)
        0x00593acc      4e93           jsr (a3)                    ; fcn.0000000c
        0x00593ace      504f           addq.w 0x8, a7
        0x00593ad0      4eb900404946   jsr p_wtln_o
        0x00593ad6      584f           addq.w 0x4, a7
    > 0x00593ad8      4cdf1f01       movem.l (a7)+, d0/a0-a4
           0x00593adc      4e5e           unlk a6
           0x00593ade      4e75           rts
            ; XREFS(32)
 212: K0_DISKMGR.k0_gen_vol_ptr ();
           0x00593ae0      4e56ffcc       link.w a6, 0xffcc
           0x00593ae4      bfd5           cmpa.l (a5), a7
       < 0x00593ae6      6206           bhi.b 0x593aee
          0x00593ae8      44fc0002       move.w 0x2, ccr
          0x00593aec      4e76           trapv
       > 0x00593aee      defc0030       adda.w 0x30, a7
           0x00593af2      48e7f0e8       movem.l d0-d3/a0-a2/a4, -(a7)
           0x00593af6      45f9004047ea   lea.l p_wts_o, a2
           0x00593afc      740c           moveq 0xc, d2
           0x00593afe      7601           moveq 0x1, d3
           0x00593b00      594f           subq.w 0x4, a7
           0x00593b02      2f2e000a       move.l 0xa(a6), -(a7)
           0x00593b06      4eb9005a002a   jsr K03_DISKLIST.k03_get_vol_ptr
           0x00593b0c      584f           addq.w 0x4, a7
           0x00593b0e      285f           movea.l (a7)+, a4
           0x00593b10      554f           subq.w 0x2, a7
           0x00593b12      2f0c           move.l a4, -(a7)
           0x00593b14      1f2e0008       move.b 0x8(a6), -(a7)
           0x00593b18      4ebaff08       jsr K0_DISKMGR.k0_valid_ptr(pc)
           0x00593b1c      5c4f           addq.w 0x6, a7
           0x00593b1e      4a1f           tst.b (a7)+
       < 0x00593b20      662c           bne.b 0x593b4e
          0x00593b22      b8c3           cmpa.w d3, a4
      < 0x00593b24      660a           bne.b 0x593b30
         0x00593b26      487aed43       pea.l 0x59286b(pc)
         0x00593b2a      48780016       pea.l 0x16
     < 0x00593b2e      6008           bra.b 0x593b38
     > 0x00593b30      487aed50       pea.l 0x592882(pc)
         0x00593b34      48780038       pea.l 0x38
     > 0x00593b38      2f17           move.l (a7), -(a7)
          0x00593b3a      4e92           jsr (a2)                    ; fcn.00000009+0x2
          0x00593b3c      dec2           adda.w d2, a7
          0x00593b3e      4eb900404946   jsr p_wtln_o
          0x00593b44      4227           clr.b -(a7)
          0x00593b46      4eb90040452a   jsr p_Assert
          0x00593b4c      544f           addq.w 0x2, a7
       > 0x00593b4e      4a2e0008       tst.b 0x8(a6)
       < 0x00593b52      6704           beq.b 0x593b58
          0x00593b54      b8c3           cmpa.w d3, a4
      < 0x00593b56      6750           beq.b 0x593ba8
      > 0x00593b58      b9ecfffc       cmpa.l -0x4(a4), a4
      < 0x00593b5c      6702           beq.b 0x593b60
         0x00593b5e      4e4d           trap 0xd
      > 0x00593b60      41faed59       lea.l 0x5928bb(pc), a0
          0x00593b64      224c           movea.l a4, a1
          0x00593b66      7003           moveq 0x3, d0
      > 0x00593b68      b308           cmpm.b (a0)+, (a1)+
      < 0x00593b6a      56c8fffc       dbne d0, 0x593b68
      < 0x00593b6e      6738           beq.b 0x593ba8
         0x00593b70      487aed4e       pea.l 0x5928c0(pc)
         0x00593b74      4878002b       pea.l 0x2b
         0x00593b78      2f17           move.l (a7), -(a7)
         0x00593b7a      4e92           jsr (a2)                    ; fcn.00000009+0x2
         0x00593b7c      dec2           adda.w d2, a7
         0x00593b7e      4854           pea.l (a4)
         0x00593b80      48780004       pea.l 0x4
         0x00593b84      2f17           move.l (a7), -(a7)
         0x00593b86      4e92           jsr (a2)                    ; fcn.00000009+0x2
         0x00593b88      dec2           adda.w d2, a7
         0x00593b8a      487aed60       pea.l 0x5928ec(pc)
         0x00593b8e      48780009       pea.l 0x9
         0x00593b92      2f17           move.l (a7), -(a7)
         0x00593b94      4e92           jsr (a2)                    ; fcn.00000009+0x2
         0x00593b96      dec2           adda.w d2, a7
         0x00593b98      4eb900404946   jsr p_wtln_o
         0x00593b9e      4227           clr.b -(a7)
         0x00593ba0      4eb90040452a   jsr p_Assert
         0x00593ba6      544f           addq.w 0x2, a7
      > 0x00593ba8      2d4c000e       move.l a4, 0xe(a6)
           0x00593bac      4cdf170f       movem.l (a7)+, d0-d3/a0-a2/a4
           0x00593bb0      4e5e           unlk a6
           0x00593bb2      4e75           rts
            ; XREFS(23)
 470: K0_DISKMGR.k0_gen_file_ptr ();
           ; var int32_t var_1h @ a7+0x1
           ; var int32_t var_2h @ a7+0x2
           ; var int32_t var_3h @ a7+0x3
           0x00593bb4      4e56ffc0       link.w a6, 0xffc0
           0x00593bb8      bfd5           cmpa.l (a5), a7
       < 0x00593bba      6206           bhi.b 0x593bc2
          0x00593bbc      44fc0002       move.w 0x2, ccr
          0x00593bc0      4e76           trapv
       > 0x00593bc2      defc0034       adda.w 0x34, a7
           0x00593bc6      48e7f0f8       movem.l d0-d3/a0-a4, -(a7)
           0x00593bca      45f9004047ea   lea.l p_wts_o, a2
           0x00593bd0      7401           moveq 0x1, d2
           0x00593bd2      760c           moveq 0xc, d3
           0x00593bd4      206e000e       movea.l 0xe(a6), a0
           0x00593bd8      594f           subq.w 0x4, a7
           0x00593bda      1e90           move.b (a0), (a7)
           0x00593bdc      1f6800010001   move.b 0x1(a0), 0x1(a7)
           0x00593be2      1f6800020002   move.b 0x2(a0), 0x2(a7)
           0x00593be8      1f6800030003   move.b 0x3(a0), 0x3(a7)
           0x00593bee      265f           movea.l (a7)+, a3
           0x00593bf0      554f           subq.w 0x2, a7
           0x00593bf2      2f0b           move.l a3, -(a7)
           0x00593bf4      1f2e000c       move.b 0xc(a6), -(a7)
           0x00593bf8      4ebafe28       jsr K0_DISKMGR.k0_valid_ptr(pc)
           0x00593bfc      5c4f           addq.w 0x6, a7
           0x00593bfe      4a1f           tst.b (a7)+
       < 0x00593c00      6650           bne.b 0x593c52
          0x00593c02      4a2e000c       tst.b 0xc(a6)
      < 0x00593c06      670a           beq.b 0x593c12
         0x00593c08      487aecec       pea.l 0x5928f6(pc)
         0x00593c0c      48780042       pea.l 0x42
     < 0x00593c10      6016           bra.b 0x593c28
     > 0x00593c12      b6c2           cmpa.w d2, a3
     < 0x00593c14      660a           bne.b 0x593c20
        0x00593c16      487aed21       pea.l 0x592939(pc)
        0x00593c1a      48780014       pea.l 0x14
    < 0x00593c1e      6008           bra.b 0x593c28
    > 0x00593c20      487aed2c       pea.l 0x59294e(pc)
        0x00593c24      48780036       pea.l 0x36
    > 0x00593c28      2f17           move.l (a7), -(a7)
          0x00593c2a      4e92           jsr (a2)                    ; fcn.00000009+0x2
          0x00593c2c      dec3           adda.w d3, a7
          0x00593c2e      4eb900404946   jsr p_wtln_o
          0x00593c34      487aed4f       pea.l 0x592985(pc)
          0x00593c38      48780046       pea.l 0x46
          0x00593c3c      2f17           move.l (a7), -(a7)
          0x00593c3e      4e92           jsr (a2)                    ; fcn.00000009+0x2
          0x00593c40      dec3           adda.w d3, a7
          0x00593c42      4eb900404946   jsr p_wtln_o
          0x00593c48      4227           clr.b -(a7)
          0x00593c4a      4eb90040452a   jsr p_Assert
          0x00593c50      544f           addq.w 0x2, a7
       > 0x00593c52      4a2e000c       tst.b 0xc(a6)
       < 0x00593c56      6704           beq.b 0x593c5c
          0x00593c58      b6c2           cmpa.w d2, a3
      < 0x00593c5a      6750           beq.b 0x593cac
      > 0x00593c5c      b7ebfffc       cmpa.l -0x4(a3), a3
      < 0x00593c60      6702           beq.b 0x593c64
         0x00593c62      4e4d           trap 0xd
      > 0x00593c64      41faed66       lea.l 0x5929cc(pc), a0
          0x00593c68      224b           movea.l a3, a1
          0x00593c6a      7003           moveq 0x3, d0
      > 0x00593c6c      b308           cmpm.b (a0)+, (a1)+
      < 0x00593c6e      56c8fffc       dbne d0, 0x593c6c
      < 0x00593c72      6738           beq.b 0x593cac
         0x00593c74      487aed5b       pea.l 0x5929d1(pc)
         0x00593c78      48780029       pea.l 0x29
         0x00593c7c      2f17           move.l (a7), -(a7)
         0x00593c7e      4e92           jsr (a2)                    ; fcn.00000009+0x2
         0x00593c80      dec3           adda.w d3, a7
         0x00593c82      4853           pea.l (a3)
         0x00593c84      48780004       pea.l 0x4
         0x00593c88      2f17           move.l (a7), -(a7)
         0x00593c8a      4e92           jsr (a2)                    ; fcn.00000009+0x2
         0x00593c8c      dec3           adda.w d3, a7
         0x00593c8e      487aed6b       pea.l 0x5929fb(pc)
         0x00593c92      48780009       pea.l 0x9
         0x00593c96      2f17           move.l (a7), -(a7)
         0x00593c98      4e92           jsr (a2)                    ; fcn.00000009+0x2
         0x00593c9a      dec3           adda.w d3, a7
         0x00593c9c      4eb900404946   jsr p_wtln_o
         0x00593ca2      4227           clr.b -(a7)
         0x00593ca4      4eb90040452a   jsr p_Assert
         0x00593caa      544f           addq.w 0x2, a7
      > 0x00593cac      b6c2           cmpa.w d2, a3
       < 0x00593cae      676e           beq.b 0x593d1e
          0x00593cb0      594f           subq.w 0x4, a7
          0x00593cb2      b7ebfffc       cmpa.l -0x4(a3), a3
      < 0x00593cb6      6702           beq.b 0x593cba
         0x00593cb8      4e4d           trap 0xd
      > 0x00593cba      2f2b0008       move.l 0x8(a3), -(a7)
          0x00593cbe      1f02           move.b d2, -(a7)
          0x00593cc0      4ebafe1e       jsr K0_DISKMGR.k0_gen_vol_ptr(pc)
          0x00593cc4      5c4f           addq.w 0x6, a7
          0x00593cc6      285f           movea.l (a7)+, a4
          0x00593cc8      b8c2           cmpa.w d2, a4
      < 0x00593cca      6610           bne.b 0x593cdc
         0x00593ccc      206e0008       movea.l 0x8(a6), a0
         0x00593cd0      10baed33       move.b 0x592a05(pc), (a0)
         0x00593cd4      117aed300001   move.b 0x592a06(pc), 0x1(a0)
     < 0x00593cda      6042           bra.b 0x593d1e
     > 0x00593cdc      b9ecfffc       cmpa.l -0x4(a4), a4
     < 0x00593ce0      6702           beq.b 0x593ce4
        0x00593ce2      4e4d           trap 0xd
     > 0x00593ce4      082c0004001a   btst.b 0x4, 0x1a(a4)
     < 0x00593cea      6632           bne.b 0x593d1e
        0x00593cec      554f           subq.w 0x2, a7
        0x00593cee      4227           clr.b -(a7)
        0x00593cf0      4eb900598cca   jsr K01_DEBUG.k01_debug
        0x00593cf6      544f           addq.w 0x2, a7
        0x00593cf8      4a1f           tst.b (a7)+
    < 0x00593cfa      6714           beq.b 0x593d10
       0x00593cfc      487aed0a       pea.l 0x592a08(pc)
       0x00593d00      48780032       pea.l 0x32
       0x00593d04      2f17           move.l (a7), -(a7)
       0x00593d06      4e92           jsr (a2)                    ; fcn.00000009+0x2
       0x00593d08      dec3           adda.w d3, a7
       0x00593d0a      4eb900404946   jsr p_wtln_o
    > 0x00593d10      206e0008       movea.l 0x8(a6), a0
        0x00593d14      10baed25       move.b 0x592a3b(pc), (a0)
        0x00593d18      117aed220001   move.b 0x592a3c(pc), 0x1(a0)
     > 0x00593d1e      2d4b0012       move.l a3, 0x12(a6)
           0x00593d22      554f           subq.w 0x2, a7
           0x00593d24      4227           clr.b -(a7)
           0x00593d26      4eb900598cca   jsr K01_DEBUG.k01_debug
           0x00593d2c      544f           addq.w 0x2, a7
           0x00593d2e      4a1f           tst.b (a7)+
       < 0x00593d30      6750           beq.b 0x593d82
          0x00593d32      b6c2           cmpa.w d2, a3
      < 0x00593d34      674c           beq.b 0x593d82
         0x00593d36      28790083fe0e   movea.l 0x83fe0e, a4
     > 0x00593d3c      b8c2           cmpa.w d2, a4
    < 0x00593d3e      673c           beq.b 0x593d7c
       0x00593d40      b9ecfffc       cmpa.l -0x4(a4), a4
   < 0x00593d44      6702           beq.b 0x593d48
      0x00593d46      4e4d           trap 0xd
   > 0x00593d48      b7ebfffc       cmpa.l -0x4(a3), a3
   < 0x00593d4c      6702           beq.b 0x593d50
      0x00593d4e      4e4d           trap 0xd
   > 0x00593d50      202c0008       move.l 0x8(a4), d0
       0x00593d54      b0ab0008       cmp.l 0x8(a3), d0
   < 0x00593d58      6610           bne.b 0x593d6a
      0x00593d5a      1f3c003e       move.b 0x3e, -(a7)
      0x00593d5e      48780001       pea.l 0x1
      0x00593d62      4eb9004048b4   jsr p_wtc_o
      0x00593d68      5c4f           addq.w 0x6, a7
   > 0x00593d6a      486d0010       pea.l 0x10(a5)
       0x00593d6e      4eb90040497e   jsr p_break
       0x00593d74      584f           addq.w 0x4, a7
       0x00593d76      286c0004       movea.l 0x4(a4), a4
    < 0x00593d7a      60c0           bra.b 0x593d3c
    > 0x00593d7c      4eb900404946   jsr p_wtln_o
      > 0x00593d82      4cdf1f0f       movem.l (a7)+, d0-d3/a0-a4
           0x00593d86      4e5e           unlk a6
           0x00593d88      4e75           rts
            ; CALL XREF from K0_DISKMGR.k_start_search @ 0x596186
            ; CALL XREF from K0_DISKMGR.k_find_next_fil @ 0x5965c0
            ; CALL XREF from K0_DISKMGR.k_end_search @ 0x597326
 226: K0_DISKMGR.gen_search_ptr ();
           ; var int32_t var_1h @ a7+0x1
           ; var int32_t var_2h @ a7+0x2
           ; var int32_t var_3h @ a7+0x3
           0x00593d8a      4e56ffcc       link.w a6, 0xffcc
           0x00593d8e      bfd5           cmpa.l (a5), a7
       < 0x00593d90      6206           bhi.b 0x593d98
          0x00593d92      44fc0002       move.w 0x2, ccr
          0x00593d96      4e76           trapv
       > 0x00593d98      defc0030       adda.w 0x30, a7
           0x00593d9c      48e7e0f8       movem.l d0-d2/a0-a4, -(a7)
           0x00593da0      45f9004047ea   lea.l p_wts_o, a2
           0x00593da6      47f900404946   lea.l p_wtln_o, a3
           0x00593dac      740c           moveq 0xc, d2
           0x00593dae      206e0008       movea.l 0x8(a6), a0
           0x00593db2      594f           subq.w 0x4, a7
           0x00593db4      1e90           move.b (a0), (a7)
           0x00593db6      1f6800010001   move.b 0x1(a0), 0x1(a7)
           0x00593dbc      1f6800020002   move.b 0x2(a0), 0x2(a7)
           0x00593dc2      1f6800030003   move.b 0x3(a0), 0x3(a7)
           0x00593dc8      285f           movea.l (a7)+, a4
           0x00593dca      554f           subq.w 0x2, a7
           0x00593dcc      2f0c           move.l a4, -(a7)
           0x00593dce      4227           clr.b -(a7)
           0x00593dd0      4ebafc50       jsr K0_DISKMGR.k0_valid_ptr(pc)
           0x00593dd4      5c4f           addq.w 0x6, a7
           0x00593dd6      4a1f           tst.b (a7)+
       < 0x00593dd8      663a           bne.b 0x593e14
          0x00593dda      b8fc0001       cmpa.w 0x1, a4
      < 0x00593dde      660a           bne.b 0x593dea
         0x00593de0      487aec5c       pea.l 0x592a3e(pc)
         0x00593de4      48780016       pea.l 0x16
     < 0x00593de8      6008           bra.b 0x593df2
     > 0x00593dea      487aec69       pea.l 0x592a55(pc)
         0x00593dee      48780038       pea.l 0x38
     > 0x00593df2      2f17           move.l (a7), -(a7)
          0x00593df4      4e92           jsr (a2)                    ; fcn.00000009+0x2
          0x00593df6      dec2           adda.w d2, a7
          0x00593df8      4e93           jsr (a3)                    ; fcn.0000000c
          0x00593dfa      487aec92       pea.l 0x592a8e(pc)
          0x00593dfe      48780039       pea.l 0x39
          0x00593e02      2f17           move.l (a7), -(a7)
          0x00593e04      4e92           jsr (a2)                    ; fcn.00000009+0x2
          0x00593e06      dec2           adda.w d2, a7
          0x00593e08      4e93           jsr (a3)                    ; fcn.0000000c
          0x00593e0a      4227           clr.b -(a7)
          0x00593e0c      4eb90040452a   jsr p_Assert
          0x00593e12      544f           addq.w 0x2, a7
       > 0x00593e14      b9ecfffc       cmpa.l -0x4(a4), a4
       < 0x00593e18      6702           beq.b 0x593e1c
          0x00593e1a      4e4d           trap 0xd
       > 0x00593e1c      41faecaa       lea.l 0x592ac8(pc), a0
           0x00593e20      224c           movea.l a4, a1
           0x00593e22      7003           moveq 0x3, d0
       > 0x00593e24      b308           cmpm.b (a0)+, (a1)+
       < 0x00593e26      56c8fffc       dbne d0, 0x593e24
       < 0x00593e2a      6734           beq.b 0x593e60
          0x00593e2c      487aec9f       pea.l 0x592acd(pc)
          0x00593e30      4878002b       pea.l 0x2b
          0x00593e34      2f17           move.l (a7), -(a7)
          0x00593e36      4e92           jsr (a2)                    ; fcn.00000009+0x2
          0x00593e38      dec2           adda.w d2, a7
          0x00593e3a      4854           pea.l (a4)
          0x00593e3c      48780004       pea.l 0x4
          0x00593e40      2f17           move.l (a7), -(a7)
          0x00593e42      4e92           jsr (a2)                    ; fcn.00000009+0x2
          0x00593e44      dec2           adda.w d2, a7
          0x00593e46      487aecb1       pea.l 0x592af9(pc)
          0x00593e4a      48780009       pea.l 0x9
          0x00593e4e      2f17           move.l (a7), -(a7)
          0x00593e50      4e92           jsr (a2)                    ; fcn.00000009+0x2
          0x00593e52      dec2           adda.w d2, a7
          0x00593e54      4e93           jsr (a3)                    ; fcn.0000000c
          0x00593e56      4227           clr.b -(a7)
          0x00593e58      4eb90040452a   jsr p_Assert
          0x00593e5e      544f           addq.w 0x2, a7
       > 0x00593e60      2d4c000c       move.l a4, 0xc(a6)
           0x00593e64      4cdf1f07       movem.l (a7)+, d0-d2/a0-a4
           0x00593e68      4e5e           unlk a6
           0x00593e6a      4e75           rts
            ; XREFS: CALL 0x00594624  CALL 0x0059468c  CALL 0x005946d6  
            ; XREFS: CALL 0x005977b8  CALL 0x005978ca  CALL 0x00597924  
            ; XREFS: CALL 0x00597974  
 198: K0_DISKMGR.warn_if_fail ();
           ; var int32_t var_ah @ a7+0xa
           0x00593e6c      4e56ffde       link.w a6, 0xffde
           0x00593e70      bfd5           cmpa.l (a5), a7
       < 0x00593e72      6206           bhi.b 0x593e7a
          0x00593e74      44fc0002       move.w 0x2, ccr
          0x00593e78      4e76           trapv
       > 0x00593e7a      defc0020       adda.w 0x20, a7
           0x00593e7e      48e7c0c0       movem.l d0-d1/a0-a1, -(a7)
           0x00593e82      41f9004047ea   lea.l p_wts_o, a0
           0x00593e88      43ee0008       lea.l 0x8(a6), a1
           0x00593e8c      720c           moveq 0xc, d1
           0x00593e8e      422e010a       clr.b 0x10a(a6)
           0x00593e92      1011           move.b (a1), d0
           0x00593e94      b03aec6d       cmp.b 0x592b03(pc), d0
       < 0x00593e98      6608           bne.b 0x593ea2
          0x00593e9a      102e0009       move.b 0x9(a6), d0
          0x00593e9e      b03aec64       cmp.b 0x592b04(pc), d0
      > 0x00593ea2      6704           beq.b 0x593ea8
          0x00593ea4      522e010a       addq.b 0x1, 0x10a(a6)
      > 0x00593ea8      3011           move.w (a1), d0
           0x00593eaa      b07aec5a       cmp.w 0x592b06(pc), d0
       < 0x00593eae      677a           beq.b 0x593f2a
          0x00593eb0      554f           subq.w 0x2, a7
          0x00593eb2      1f3c001f       move.b 0x1f, -(a7)
          0x00593eb6      4eb900598cca   jsr K01_DEBUG.k01_debug
          0x00593ebc      544f           addq.w 0x2, a7
          0x00593ebe      4a1f           tst.b (a7)+
      < 0x00593ec0      6768           beq.b 0x593f2a
         0x00593ec2      487aec45       pea.l 0x592b09(pc)
         0x00593ec6      48780003       pea.l 0x3
         0x00593eca      2f17           move.l (a7), -(a7)
         0x00593ecc      4e90           jsr (a0)                    ; fcn.00000009
         0x00593ece      dec1           adda.w d1, a7
         0x00593ed0      48790083fcff   pea.l 0x83fcff
         0x00593ed6      42a7           clr.l -(a7)
         0x00593ed8      1f790083fcfe.  move.b 0x83fcfe, 0x3(a7)
         0x00593ee0      2f17           move.l (a7), -(a7)
         0x00593ee2      4e90           jsr (a0)                    ; fcn.00000009
         0x00593ee4      dec1           adda.w d1, a7
         0x00593ee6      487aec25       pea.l 0x592b0d(pc)
         0x00593eea      48780008       pea.l 0x8
         0x00593eee      2f17           move.l (a7), -(a7)
         0x00593ef0      4e90           jsr (a0)                    ; fcn.00000009
         0x00593ef2      dec1           adda.w d1, a7
         0x00593ef4      4851           pea.l (a1)
         0x00593ef6      48780002       pea.l 0x2
         0x00593efa      2f17           move.l (a7), -(a7)
         0x00593efc      4e90           jsr (a0)                    ; fcn.00000009
         0x00593efe      defc000a       adda.w 0xa, a7
         0x00593f02      1ebc0020       move.b 0x20, (a7)
         0x00593f06      48780001       pea.l 0x1
         0x00593f0a      4eb9004048b4   jsr p_wtc_o
         0x00593f10      5c4f           addq.w 0x6, a7
         0x00593f12      486e000b       pea.l 0xb(a6)
         0x00593f16      42a7           clr.l -(a7)
         0x00593f18      1f6e000a0003   move.b 0xa(a6), 0x3(a7)
         0x00593f1e      2f17           move.l (a7), -(a7)
         0x00593f20      4e90           jsr (a0)                    ; fcn.00000009
         0x00593f22      dec1           adda.w d1, a7
         0x00593f24      4eb900404946   jsr p_wtln_o
      > 0x00593f2a      4cdf0303       movem.l (a7)+, d0-d1/a0-a1
           0x00593f2e      4e5e           unlk a6
           0x00593f30      4e75           rts
            ; XREFS: CALL 0x004e572e  CALL 0x004e6602  CALL 0x005b2436  
            ; XREFS: CALL 0x005b52c6  CALL 0x005b5780  CALL 0x0064d5ba  
            ; XREFS: CALL 0x00662030  
 270: K0_DISKMGR.k_get_disk ();
           0x00593f32      4e56ffb8       link.w a6, 0xffb8
           0x00593f36      bfd5           cmpa.l (a5), a7
       < 0x00593f38      6206           bhi.b 0x593f40
          0x00593f3a      44fc0002       move.w 0x2, ccr
          0x00593f3e      4e76           trapv
       > 0x00593f40      defc0042       adda.w 0x42, a7
           0x00593f44      48e7e1f8       movem.l d0-d2/d7/a0-a4, -(a7)
           0x00593f48      45ee0018       lea.l 0x18(a6), a2
           0x00593f4c      47f9005a085c   lea.l K03_DISKLIST.k03_lock_vol_ga, a3
           0x00593f52      7201           moveq 0x1, d1
           0x00593f54      74ff           moveq 0xff, d2
           0x00593f56      2052           movea.l (a2), a0
           0x00593f58      2010           move.l (a0), d0
           0x00593f5a      b082           cmp.l d2, d0
       < 0x00593f5c      6612           bne.b 0x593f70
          0x00593f5e      1f01           move.b d1, -(a7)
          0x00593f60      4e93           jsr (a3)                    ; fcn.0000000c
          0x00593f62      544f           addq.w 0x2, a7
      > 0x00593f64      594f           subq.w 0x4, a7
         0x00593f66      4eb9005a032e   jsr K03_DISKLIST.k03_vol_list_he
         0x00593f6c      285f           movea.l (a7)+, a4
     < 0x00593f6e      6026           bra.b 0x593f96
     > 0x00593f70      594f           subq.w 0x4, a7
         0x00593f72      2f00           move.l d0, -(a7)
         0x00593f74      1f01           move.b d1, -(a7)
         0x00593f76      4ebafb68       jsr K0_DISKMGR.k0_gen_vol_ptr(pc)
         0x00593f7a      5c4f           addq.w 0x6, a7
         0x00593f7c      285f           movea.l (a7)+, a4
         0x00593f7e      1f01           move.b d1, -(a7)
         0x00593f80      4e93           jsr (a3)                    ; fcn.0000000c
         0x00593f82      544f           addq.w 0x2, a7
         0x00593f84      b8c1           cmpa.w d1, a4
     < 0x00593f86      6602           bne.b 0x593f8a
     < 0x00593f88      60da           bra.b 0x593f64
      > 0x00593f8a      b9ecfffc       cmpa.l -0x4(a4), a4
      < 0x00593f8e      6702           beq.b 0x593f92
         0x00593f90      4e4d           trap 0xd
      > 0x00593f92      286c0004       movea.l 0x4(a4), a4
     > 0x00593f96      2082           move.l d2, (a0)
           0x00593f98      2052           movea.l (a2), a0
       > 0x00593f9a      7e00           moveq 0x0, d7
      > 0x00593f9c      4a07           tst.b d7
     < 0x00593f9e      663a           bne.b 0x593fda
        0x00593fa0      b8c1           cmpa.w d1, a4
    < 0x00593fa2      6736           beq.b 0x593fda
       0x00593fa4      554f           subq.w 0x2, a7
       0x00593fa6      2f0c           move.l a4, -(a7)
       0x00593fa8      2f2e0014       move.l 0x14(a6), -(a7)
       0x00593fac      2f2e0010       move.l 0x10(a6), -(a7)
       0x00593fb0      2f2e000c       move.l 0xc(a6), -(a7)
       0x00593fb4      2f2e0008       move.l 0x8(a6), -(a7)
       0x00593fb8      4eb9005a0098   jsr K03_DISKLIST.k03_check_vol
       0x00593fbe      defc0014       adda.w 0x14, a7
       0x00593fc2      101f           move.b (a7)+, d0
       0x00593fc4      4880           ext.w d0
       0x00593fc6      4181           chk.w d1, d0
       0x00593fc8      1e00           move.b d0, d7
   < 0x00593fca      660c           bne.b 0x593fd8
      0x00593fcc      b9ecfffc       cmpa.l -0x4(a4), a4
  < 0x00593fd0      6702           beq.b 0x593fd4
     0x00593fd2      4e4d           trap 0xd
  > 0x00593fd4      286c0004       movea.l 0x4(a4), a4
   < 0x00593fd8      60c2           bra.b 0x593f9c
    > 0x00593fda      4a07           tst.b d7
      < 0x00593fdc      6718           beq.b 0x593ff6
         0x00593fde      b8c1           cmpa.w d1, a4
     < 0x00593fe0      6606           bne.b 0x593fe8
        0x00593fe2      2252           movea.l (a2), a1
        0x00593fe4      2282           move.l d2, (a1)
    < 0x00593fe6      600e           bra.b 0x593ff6
    > 0x00593fe8      2252           movea.l (a2), a1
        0x00593fea      b9ecfffc       cmpa.l -0x4(a4), a4
    < 0x00593fee      6702           beq.b 0x593ff2
       0x00593ff0      4e4d           trap 0xd
    > 0x00593ff2      22ac000e       move.l 0xe(a4), (a1)
    > 0x00593ff6      4a07           tst.b d7
      < 0x00593ff8      6710           beq.b 0x59400a
         0x00593ffa      4a90           tst.l (a0)
     < 0x00593ffc      660c           bne.b 0x59400a
        0x00593ffe      b9ecfffc       cmpa.l -0x4(a4), a4
    < 0x00594002      6702           beq.b 0x594006
       0x00594004      4e4d           trap 0xd
    > 0x00594006      286c0004       movea.l 0x4(a4), a4
     > 0x0059400a      4a07           tst.b d7
      < 0x0059400c      6704           beq.b 0x594012
         0x0059400e      4a90           tst.l (a0)
     < 0x00594010      6604           bne.b 0x594016
     > 0x00594012      4a07           tst.b d7
      < 0x00594014      6684           bne.b 0x593f9a
     > 0x00594016      4887           ext.w d7
           0x00594018      4f81           chk.w d1, d7
           0x0059401a      1d47001c       move.b d7, 0x1c(a6)
           0x0059401e      b8c1           cmpa.w d1, a4
       < 0x00594020      6604           bne.b 0x594026
          0x00594022      2082           move.l d2, (a0)
      < 0x00594024      600c           bra.b 0x594032
      > 0x00594026      b9ecfffc       cmpa.l -0x4(a4), a4
      < 0x0059402a      6702           beq.b 0x59402e
         0x0059402c      4e4d           trap 0xd
      > 0x0059402e      20ac000e       move.l 0xe(a4), (a0)
      > 0x00594032      4227           clr.b -(a7)
           0x00594034      4e93           jsr (a3)                    ; fcn.0000000c
           0x00594036      544f           addq.w 0x2, a7
           0x00594038      4cdf1f87       movem.l (a7)+, d0-d2/d7/a0-a4
           0x0059403c      4e5e           unlk a6
           0x0059403e      4e75           rts
            ; CALL XREF from K0_DISKMGR.old_k_create_fi @ 0x595218
            ; CALL XREF from K0_DISKMGR.k_create_file @ 0x595934
            ; CALL XREF from K0_DISKMGR.k_find_next_fil @ 0x596664
            ; CALL XREF from K0_DISKMGR.k_find_file @ 0x5973e2
            ; CALL XREF from K0_DISKMGR.k_gen_file @ 0x59869e
 174: K0_DISKMGR.new_file ();
           ; var int32_t var_1h @ a7+0x1
           ; var int32_t var_2h @ a7+0x2
           ; var int32_t var_3h @ a7+0x3
           0x00594040      4e56ffd0       link.w a6, 0xffd0
           0x00594044      bfd5           cmpa.l (a5), a7
       < 0x00594046      6206           bhi.b 0x59404e
          0x00594048      44fc0002       move.w 0x2, ccr
          0x0059404c      4e76           trapv
       > 0x0059404e      defc0030       adda.w 0x30, a7
           0x00594052      48e7c0f0       movem.l d0-d1/a0-a3, -(a7)
           0x00594056      7201           moveq 0x1, d1
           0x00594058      206e0008       movea.l 0x8(a6), a0
           0x0059405c      4850           pea.l (a0)
           0x0059405e      48780017       pea.l 0x17
           0x00594062      4eb900403a92   jsr p_New
           0x00594068      504f           addq.w 0x8, a7
           0x0059406a      2250           movea.l (a0), a1
           0x0059406c      b2c1           cmpa.w d1, a1
       < 0x0059406e      661c           bne.b 0x59408c
          0x00594070      487aeaa4       pea.l 0x592b16(pc)
          0x00594074      48780027       pea.l 0x27
          0x00594078      2f17           move.l (a7), -(a7)
          0x0059407a      4eb9004047ea   jsr p_wts_o
          0x00594080      defc000c       adda.w 0xc, a7
          0x00594084      4eb900404946   jsr p_wtln_o
      < 0x0059408a      603e           bra.b 0x5940ca
      > 0x0059408c      b3e9fffc       cmpa.l -0x4(a1), a1
      < 0x00594090      6702           beq.b 0x594094
         0x00594092      4e4d           trap 0xd
      > 0x00594094      12baeaa8       move.b 0x592b3e(pc), (a1)
          0x00594098      137aeaa50001   move.b 0x592b3f(pc), 0x1(a1)
          0x0059409e      137aeaa00002   move.b 0x592b40(pc), 0x2(a1)
          0x005940a4      137aea9b0003   move.b 0x592b41(pc), 0x3(a1)
          0x005940aa      45e90008       lea.l 0x8(a1), a2
          0x005940ae      47faea92       lea.l 0x592b42(pc), a3
          0x005940b2      7009           moveq 0x9, d0
      > 0x005940b4      14db           move.b (a3)+, (a2)+
      < 0x005940b6      51c8fffc       dbra d0, 0x5940b4
          0x005940ba      42290012       clr.b 0x12(a1)
          0x005940be      42690014       clr.w 0x14(a1)
          0x005940c2      23410004       move.l d1, 0x4(a1)
          0x005940c6      42290016       clr.b 0x16(a1)
      > 0x005940ca      226e000c       movea.l 0xc(a6), a1
           0x005940ce      594f           subq.w 0x4, a7
           0x005940d0      1e90           move.b (a0), (a7)
           0x005940d2      1f6800010001   move.b 0x1(a0), 0x1(a7)
           0x005940d8      1f6800020002   move.b 0x2(a0), 0x2(a7)
           0x005940de      1f6800030003   move.b 0x3(a0), 0x3(a7)
           0x005940e4      229f           move.l (a7)+, (a1)
           0x005940e6      4cdf0f03       movem.l (a7)+, d0-d1/a0-a3
           0x005940ea      4e5e           unlk a6
           0x005940ec      4e75           rts
            ; XREFS: CALL 0x00594772  CALL 0x00595710  CALL 0x00595e42  
            ; XREFS: CALL 0x005971fa  CALL 0x0059721a  CALL 0x00597666  
            ; XREFS: CALL 0x0059798e  CALL 0x00598726  
 380: K0_DISKMGR.disp_file ();
           0x005940ee      4e56ffbc       link.w a6, 0xffbc
           0x005940f2      bfd5           cmpa.l (a5), a7
       < 0x005940f4      6206           bhi.b 0x5940fc
          0x005940f6      44fc0002       move.w 0x2, ccr
          0x005940fa      4e76           trapv
       > 0x005940fc      defc003e       adda.w 0x3e, a7
           0x00594100      48e7f1f8       movem.l d0-d3/d7/a0-a4, -(a7)
           0x00594104      47f900598cca   lea.l K01_DEBUG.k01_debug, a3
           0x0059410a      7202           moveq 0x2, d1
           0x0059410c      740c           moveq 0xc, d2
           0x0059410e      7601           moveq 0x1, d3
           0x00594110      554f           subq.w 0x2, a7
           0x00594112      1f01           move.b d1, -(a7)
           0x00594114      4e93           jsr (a3)                    ; fcn.0000000c
           0x00594116      544f           addq.w 0x2, a7
           0x00594118      4a1f           tst.b (a7)+
       < 0x0059411a      6718           beq.b 0x594134
          0x0059411c      487aea2f       pea.l 0x592b4d(pc)
          0x00594120      48780018       pea.l 0x18
          0x00594124      2f17           move.l (a7), -(a7)
          0x00594126      4eb9004047ea   jsr p_wts_o
          0x0059412c      dec2           adda.w d2, a7
          0x0059412e      4eb900404946   jsr p_wtln_o
       > 0x00594134      28790083fe0e   movea.l 0x83fe0e, a4
           0x0059413a      206e0008       movea.l 0x8(a6), a0
           0x0059413e      b9d0           cmpa.l (a0), a4
       < 0x00594140      670000b6       beq.w 0x5941f8
          0x00594144      554f           subq.w 0x2, a7
          0x00594146      1f01           move.b d1, -(a7)
          0x00594148      4e93           jsr (a3)                    ; fcn.0000000c
          0x0059414a      544f           addq.w 0x2, a7
          0x0059414c      4a1f           tst.b (a7)+
      < 0x0059414e      6718           beq.b 0x594168
         0x00594150      487aea14       pea.l 0x592b66(pc)
         0x00594154      48780010       pea.l 0x10
         0x00594158      2f17           move.l (a7), -(a7)
         0x0059415a      4eb9004047ea   jsr p_wts_o
         0x00594160      dec2           adda.w d2, a7
         0x00594162      4eb900404946   jsr p_wtln_o
      > 0x00594168      7e00           moveq 0x0, d7
          0x0059416a      226e0008       movea.l 0x8(a6), a1
      > 0x0059416e      4a07           tst.b d7
     < 0x00594170      6640           bne.b 0x5941b2
        0x00594172      b8c3           cmpa.w d3, a4
    < 0x00594174      673c           beq.b 0x5941b2
       0x00594176      7000           moveq 0x0, d0
       0x00594178      b9ecfffc       cmpa.l -0x4(a4), a4
   < 0x0059417c      6702           beq.b 0x594180
      0x0059417e      4e4d           trap 0xd
   > 0x00594180      246c0004       movea.l 0x4(a4), a2
       0x00594184      b5d1           cmpa.l (a1), a2
   < 0x00594186      6602           bne.b 0x59418a
      0x00594188      5200           addq.b 0x1, d0
   > 0x0059418a      1e00           move.b d0, d7
       0x0059418c      554f           subq.w 0x2, a7
       0x0059418e      1f01           move.b d1, -(a7)
       0x00594190      4e93           jsr (a3)                    ; fcn.0000000c
       0x00594192      544f           addq.w 0x2, a7
       0x00594194      4a1f           tst.b (a7)+
   < 0x00594196      6710           beq.b 0x5941a8
      0x00594198      1f3c003e       move.b 0x3e, -(a7)
      0x0059419c      48780001       pea.l 0x1
      0x005941a0      4eb9004048b4   jsr p_wtc_o
      0x005941a6      5c4f           addq.w 0x6, a7
   > 0x005941a8      4a07           tst.b d7
   < 0x005941aa      6604           bne.b 0x5941b0
      0x005941ac      286c0004       movea.l 0x4(a4), a4
   < 0x005941b0      60bc           bra.b 0x59416e
    > 0x005941b2      554f           subq.w 0x2, a7
          0x005941b4      1f01           move.b d1, -(a7)
          0x005941b6      4e93           jsr (a3)                    ; fcn.0000000c
          0x005941b8      544f           addq.w 0x2, a7
          0x005941ba      4a1f           tst.b (a7)+
      < 0x005941bc      6718           beq.b 0x5941d6
         0x005941be      487ae9b7       pea.l 0x592b77(pc)
         0x005941c2      48780016       pea.l 0x16
         0x005941c6      2f17           move.l (a7), -(a7)
         0x005941c8      4eb9004047ea   jsr p_wts_o
         0x005941ce      dec2           adda.w d2, a7
         0x005941d0      4eb900404946   jsr p_wtln_o
      > 0x005941d6      4a07           tst.b d7
      < 0x005941d8      6754           beq.b 0x59422e
         0x005941da      b9ecfffc       cmpa.l -0x4(a4), a4
     < 0x005941de      6702           beq.b 0x5941e2
        0x005941e0      4e4d           trap 0xd
     > 0x005941e2      226e0008       movea.l 0x8(a6), a1
         0x005941e6      2251           movea.l (a1), a1
         0x005941e8      b3e9fffc       cmpa.l -0x4(a1), a1
     < 0x005941ec      6702           beq.b 0x5941f0
        0x005941ee      4e4d           trap 0xd
     > 0x005941f0      296900040004   move.l 0x4(a1), 0x4(a4)
     < 0x005941f6      6036           bra.b 0x59422e
     > 0x005941f8      554f           subq.w 0x2, a7
         0x005941fa      1f01           move.b d1, -(a7)
         0x005941fc      4e93           jsr (a3)                    ; fcn.0000000c
         0x005941fe      544f           addq.w 0x2, a7
         0x00594200      4a1f           tst.b (a7)+
     < 0x00594202      6718           beq.b 0x59421c
        0x00594204      487ae988       pea.l 0x592b8e(pc)
        0x00594208      48780013       pea.l 0x13
        0x0059420c      2f17           move.l (a7), -(a7)
        0x0059420e      4eb9004047ea   jsr p_wts_o
        0x00594214      dec2           adda.w d2, a7
        0x00594216      4eb900404946   jsr p_wtln_o
     > 0x0059421c      2250           movea.l (a0), a1
         0x0059421e      b3e9fffc       cmpa.l -0x4(a1), a1
     < 0x00594222      6702           beq.b 0x594226
        0x00594224      4e4d           trap 0xd
     > 0x00594226      23e900040083.  move.l 0x4(a1), 0x83fe0e.l
     > 0x0059422e      206e0008       movea.l 0x8(a6), a0
           0x00594232      2250           movea.l (a0), a1
           0x00594234      b3e9fffc       cmpa.l -0x4(a1), a1
       < 0x00594238      6702           beq.b 0x59423c
          0x0059423a      4e4d           trap 0xd
       > 0x0059423c      12bae964       move.b 0x592ba2(pc), (a1)
           0x00594240      137ae9610001   move.b 0x592ba3(pc), 0x1(a1)
           0x00594246      137ae95c0002   move.b 0x592ba4(pc), 0x2(a1)
           0x0059424c      137ae9570003   move.b 0x592ba5(pc), 0x3(a1)
           0x00594252      4850           pea.l (a0)
           0x00594254      48780017       pea.l 0x17
           0x00594258      4eb900403b98   jsr p_Dispos
           0x0059425e      504f           addq.w 0x8, a7
           0x00594260      2083           move.l d3, (a0)
           0x00594262      4cdf1f8f       movem.l (a7)+, d0-d3/d7/a0-a4
           0x00594266      4e5e           unlk a6
           0x00594268      4e75           rts
            ; CALL XREF from K0_DISKMGR.k0_lose_ref @ 0x5947e6
            ; CALL XREF from K0_DISKMGR.k_find_next_fil @ 0x596654
 470: K0_DISKMGR.k0_dec_ref ();
           ; var int32_t var_1700h @ a6-0x1700
           ; var int32_t var_1h @ a7+0x1
           ; var int32_t var_2h @ a7+0x2
           ; var int32_t var_3h @ a7+0x3
           ; var int32_t var_8h @ a7+0x8
           0x0059426a      4e56fec0       link.w a6, 0xfec0
           0x0059426e      bfd5           cmpa.l (a5), a7
       < 0x00594270      6206           bhi.b 0x594278
          0x00594272      44fc0002       move.w 0x2, ccr
          0x00594276      4e76           trapv
       > 0x00594278      defc0140       adda.w 0x140, a7
           0x0059427c      48e7f0f8       movem.l d0-d3/a0-a4, -(a7)
           0x00594280      720c           moveq 0xc, d1
           0x00594282      7401           moveq 0x1, d2
           0x00594284      760a           moveq 0xa, d3
           0x00594286      554f           subq.w 0x2, a7
           0x00594288      1f3c0003       move.b 0x3, -(a7)
           0x0059428c      4eb900598cca   jsr K01_DEBUG.k01_debug
           0x00594292      544f           addq.w 0x2, a7
           0x00594294      4a1f           tst.b (a7)+
       < 0x00594296      6718           beq.b 0x5942b0
          0x00594298      487ae90d       pea.l 0x592ba7(pc)
          0x0059429c      4878000a       pea.l 0xa
          0x005942a0      2f17           move.l (a7), -(a7)
          0x005942a2      4eb9004047ea   jsr p_wts_o
          0x005942a8      dec1           adda.w d1, a7
          0x005942aa      4eb900404946   jsr p_wtln_o
       > 0x005942b0      3d7ae9000010   move.w 0x592bb2(pc), 0x10(a6)
           0x005942b6      206e0008       movea.l 0x8(a6), a0
           0x005942ba      2250           movea.l (a0), a1
           0x005942bc      b2c2           cmpa.w d2, a1
       < 0x005942be      67000172       beq.w 0x594432
          0x005942c2      b3e9fffc       cmpa.l -0x4(a1), a1
      < 0x005942c6      6702           beq.b 0x5942ca
         0x005942c8      4e4d           trap 0xd
      > 0x005942ca      30290014       move.w 0x14(a1), d0
          0x005942ce      48c0           ext.l d0
          0x005942d0      5380           subq.l 0x1, d0
          0x005942d2      0480ffff8000   subi.l 0xffff8000, d0
          0x005942d8      0c800000ffff   cmpi.l 0xffff, d0
      < 0x005942de      6302           bls.b 0x5942e2
         0x005942e0      4e4f           trap 0xf
      > 0x005942e2      0680ffff8000   addi.l 0xffff8000, d0
          0x005942e8      33400014       move.w d0, 0x14(a1)
          0x005942ec      554f           subq.w 0x2, a7
          0x005942ee      1f3c001b       move.b 0x1b, -(a7)
          0x005942f2      4eb900598cca   jsr K01_DEBUG.k01_debug
          0x005942f8      544f           addq.w 0x2, a7
          0x005942fa      4a1f           tst.b (a7)+
      < 0x005942fc      67000082       beq.w 0x594380
         0x00594300      2450           movea.l (a0), a2
         0x00594302      b5eafffc       cmpa.l -0x4(a2), a2
     < 0x00594306      6702           beq.b 0x59430a
        0x00594308      4e4d           trap 0xd
     > 0x0059430a      9efc010a       suba.w 0x10a, a7
         0x0059430e      264f           movea.l a7, a3
         0x00594310      49ea0008       lea.l 0x8(a2), a4
         0x00594314      7009           moveq 0x9, d0
     > 0x00594316      16dc           move.b (a4)+, (a3)+
     < 0x00594318      51c8fffc       dbra d0, 0x594316
         0x0059431c      4ebaf5c8       jsr K0_DISKMGR.fid_str(pc)
         0x00594320      dec3           adda.w d3, a7
         0x00594322      487ae891       pea.l 0x592bb5(pc)
         0x00594326      48780011       pea.l 0x11
         0x0059432a      2f17           move.l (a7), -(a7)
         0x0059432c      4eb9004047ea   jsr p_wts_o
         0x00594332      dec1           adda.w d1, a7
         0x00594334      302a0014       move.w 0x14(a2), d0
         0x00594338      48c0           ext.l d0
         0x0059433a      2f00           move.l d0, -(a7)
         0x0059433c      48780000       pea.l 0x0
         0x00594340      4eb9004070e4   jsr p_wti_o
         0x00594346      504f           addq.w 0x8, a7
         0x00594348      487ae87d       pea.l 0x592bc7(pc)
         0x0059434c      4878000a       pea.l 0xa
         0x00594350      2f17           move.l (a7), -(a7)
         0x00594352      4eb9004047ea   jsr p_wts_o
         0x00594358      dec1           adda.w d1, a7
         0x0059435a      486f0001       pea.l 0x1(a7)
         0x0059435e      42a7           clr.l -(a7)
         0x00594360      1f6f00080003   move.b 0x8(a7), 0x3(a7)
         0x00594366      2f17           move.l (a7), -(a7)
         0x00594368      4eb9004047ea   jsr p_wts_o
         0x0059436e      defc010c       adda.w 0x10c, a7
         0x00594372      487ae85e       pea.l 0x592bd2(pc)
         0x00594376      48780004       pea.l 0x4
         0x0059437a      2f17           move.l (a7), -(a7)
     < 0x0059437c      60000086       bra.w 0x594404
     > 0x00594380      2450           movea.l (a0), a2
         0x00594382      b5eafffc       cmpa.l -0x4(a2), a2
     < 0x00594386      6702           beq.b 0x59438a
        0x00594388      4e4d           trap 0xd
     > 0x0059438a      4a6a0014       tst.w 0x14(a2)
     < 0x0059438e      6c0000a2       bge.w 0x594432
        0x00594392      9efc010a       suba.w 0x10a, a7
        0x00594396      264f           movea.l a7, a3
        0x00594398      49ea0008       lea.l 0x8(a2), a4
        0x0059439c      7009           moveq 0x9, d0
    > 0x0059439e      16dc           move.b (a4)+, (a3)+
    < 0x005943a0      51c8fffc       dbra d0, 0x59439e
        0x005943a4      4ebaf540       jsr K0_DISKMGR.fid_str(pc)
        0x005943a8      dec3           adda.w d3, a7
        0x005943aa      487ae82b       pea.l 0x592bd7(pc)
        0x005943ae      4878001c       pea.l 0x1c
        0x005943b2      2f17           move.l (a7), -(a7)
        0x005943b4      4eb9004047ea   jsr p_wts_o
        0x005943ba      dec1           adda.w d1, a7
        0x005943bc      302a0014       move.w 0x14(a2), d0
        0x005943c0      48c0           ext.l d0
        0x005943c2      2f00           move.l d0, -(a7)
        0x005943c4      48780000       pea.l 0x0
        0x005943c8      4eb9004070e4   jsr p_wti_o
        0x005943ce      504f           addq.w 0x8, a7
        0x005943d0      487ae822       pea.l 0x592bf4(pc)
        0x005943d4      4878000c       pea.l 0xc
        0x005943d8      2f17           move.l (a7), -(a7)
        0x005943da      4eb9004047ea   jsr p_wts_o
        0x005943e0      dec1           adda.w d1, a7
        0x005943e2      486f0001       pea.l 0x1(a7)
        0x005943e6      42a7           clr.l -(a7)
        0x005943e8      1f6f00080003   move.b 0x8(a7), 0x3(a7)
        0x005943ee      2f17           move.l (a7), -(a7)
        0x005943f0      4eb9004047ea   jsr p_wts_o
        0x005943f6      defc010c       adda.w 0x10c, a7
        0x005943fa      487ae805       pea.l 0x592c01(pc)
        0x005943fe      48780004       pea.l 0x4
        0x00594402      2f17           move.l (a7), -(a7)
     > 0x00594404      4eb9004047ea   jsr p_wts_o
         0x0059440a      504f           addq.w 0x8, a7
         0x0059440c      1e90           move.b (a0), (a7)
         0x0059440e      1f6800010001   move.b 0x1(a0), 0x1(a7)
         0x00594414      1f6800020002   move.b 0x2(a0), 0x2(a7)
         0x0059441a      1f6800030003   move.b 0x3(a0), 0x3(a7)
         0x00594420      4878ffff       pea.l 0xffff
         0x00594424      4eb9004070e4   jsr p_wti_o
         0x0059442a      504f           addq.w 0x8, a7
         0x0059442c      4eb900404946   jsr p_wtln_o
      > 0x00594432      206e000c       movea.l 0xc(a6), a0
           0x00594436      2082           move.l d2, (a0)
           0x00594438      4cdf1f0f       movem.l (a7)+, d0-d3/a0-a4
           0x0059443c      4e5e           unlk a6
           0x0059443e      4e75           rts
            ; CALL XREF from K0_DISKMGR.k0_lose_ref @ 0x5947fa
            ; CALL XREF from K0_DISKMGR.k0_inc_ref @ 0x594c04
            ; CALL XREF from K0_DISKMGR.k_find_next_fil @ 0x597242
 832: K0_DISKMGR.k0_purge_ref ();
           ; var int32_t var_1h @ a7+0x1
           ; var int32_t var_8h @ a7+0x8
           0x00594440      4e56fe66       link.w a6, 0xfe66
           0x00594444      bfd5           cmpa.l (a5), a7
       < 0x00594446      6206           bhi.b 0x59444e
          0x00594448      44fc0002       move.w 0x2, ccr
          0x0059444c      4e76           trapv
       > 0x0059444e      defc014c       adda.w 0x14c, a7
           0x00594452      48e7fef8       movem.l d0-d6/a0-a4, -(a7)
           0x00594456      720c           moveq 0xc, d1
           0x00594458      7404           moveq 0x4, d2
           0x0059445a      363c0102       move.w 0x102, d3
           0x0059445e      7801           moveq 0x1, d4
           0x00594460      7aff           moveq 0xff, d5
           0x00594462      3c3c0100       move.w 0x100, d6
           0x00594466      554f           subq.w 0x2, a7
           0x00594468      1f02           move.b d2, -(a7)
           0x0059446a      4eb900598cca   jsr K01_DEBUG.k01_debug
           0x00594470      544f           addq.w 0x2, a7
           0x00594472      4a1f           tst.b (a7)+
       < 0x00594474      6718           beq.b 0x59448e
          0x00594476      487ae78e       pea.l 0x592c06(pc)
          0x0059447a      4878000d       pea.l 0xd
          0x0059447e      2f17           move.l (a7), -(a7)
          0x00594480      4eb9004047ea   jsr p_wts_o
          0x00594486      dec1           adda.w d1, a7
          0x00594488      4eb900404946   jsr p_wtln_o
       > 0x0059448e      206e000c       movea.l 0xc(a6), a0
           0x00594492      2f08           move.l a0, -(a7)
           0x00594494      2250           movea.l (a0), a1
           0x00594496      b3e9fffc       cmpa.l -0x4(a1), a1
       < 0x0059449a      6702           beq.b 0x59449e
          0x0059449c      4e4d           trap 0xd
       > 0x0059449e      4a690014       tst.w 0x14(a1)
       < 0x005944a2      6f06           ble.b 0x5944aa
          0x005944a4      584f           addq.w 0x4, a7
      < 0x005944a6      600002d0       bra.w 0x594778
      > 0x005944aa      554f           subq.w 0x2, a7
          0x005944ac      486effb2       pea.l -0x4e(a6)
          0x005944b0      4eb900404434   jsr fcn.00404434
          0x005944b6      584f           addq.w 0x4, a7
          0x005944b8      4a1f           tst.b (a7)+
      < 0x005944ba      6606           bne.b 0x5944c2
         0x005944bc      584f           addq.w 0x4, a7
     < 0x005944be      600002b8       bra.w 0x594778
     > 0x005944c2      554f           subq.w 0x2, a7
         0x005944c4      1f02           move.b d2, -(a7)
         0x005944c6      4eb900598cca   jsr K01_DEBUG.k01_debug
         0x005944cc      544f           addq.w 0x2, a7
         0x005944ce      4a1f           tst.b (a7)+
     < 0x005944d0      6612           bne.b 0x5944e4
        0x005944d2      554f           subq.w 0x2, a7
        0x005944d4      1f3c001b       move.b 0x1b, -(a7)
        0x005944d8      4eb900598cca   jsr K01_DEBUG.k01_debug
        0x005944de      544f           addq.w 0x2, a7
        0x005944e0      4a1f           tst.b (a7)+
    < 0x005944e2      6718           beq.b 0x5944fc
    > 0x005944e4      487ae72e       pea.l 0x592c14(pc)
        0x005944e8      48780018       pea.l 0x18
        0x005944ec      2f17           move.l (a7), -(a7)
        0x005944ee      4eb9004047ea   jsr p_wts_o
        0x005944f4      dec1           adda.w d1, a7
        0x005944f6      4eb900404946   jsr p_wtln_o
    > 0x005944fc      594f           subq.w 0x4, a7
         0x005944fe      2f290008       move.l 0x8(a1), -(a7)
         0x00594502      1f04           move.b d4, -(a7)
         0x00594504      4ebaf5da       jsr K0_DISKMGR.k0_gen_vol_ptr(pc)
         0x00594508      5c4f           addq.w 0x6, a7
         0x0059450a      285f           movea.l (a7)+, a4
         0x0059450c      b8c4           cmpa.w d4, a4
     < 0x0059450e      660000a2       bne.w 0x5945b2
        0x00594512      246e0008       movea.l 0x8(a6), a2
        0x00594516      554f           subq.w 0x2, a7
        0x00594518      1f290012       move.b 0x12(a1), -(a7)
        0x0059451c      48690008       pea.l 0x8(a1)
        0x00594520      4eb9005ac268   jsr K1_AFS_ONLY.k1_lose_ref
        0x00594526      5c4f           addq.w 0x6, a7
        0x00594528      1497           move.b (a7), (a2)
        0x0059452a      156f00010001   move.b 0x1(a7), 0x1(a2)
        0x00594530      544f           addq.w 0x2, a7
        0x00594532      2029000c       move.l 0xc(a1), d0
        0x00594536      b085           cmp.l d5, d0
    < 0x00594538      6756           beq.b 0x594590
       0x0059453a      487ae6f1       pea.l 0x592c2d(pc)
       0x0059453e      48780037       pea.l 0x37
       0x00594542      2f17           move.l (a7), -(a7)
       0x00594544      4eb9004047ea   jsr p_wts_o
       0x0059454a      dec1           adda.w d1, a7
       0x0059454c      4eb900404946   jsr p_wtln_o
       0x00594552      9ec6           suba.w d6, a7
       0x00594554      1f290012       move.b 0x12(a1), -(a7)
       0x00594558      4eb9005b0d30   jsr K3_UTILS.k3_filer_str
       0x0059455e      544f           addq.w 0x2, a7
       0x00594560      487ae703       pea.l 0x592c65(pc)
       0x00594564      4878000a       pea.l 0xa
       0x00594568      2f17           move.l (a7), -(a7)
       0x0059456a      4eb9004047ea   jsr p_wts_o
       0x00594570      dec1           adda.w d1, a7
       0x00594572      486f0001       pea.l 0x1(a7)
       0x00594576      42a7           clr.l -(a7)
       0x00594578      1f6f00080003   move.b 0x8(a7), 0x3(a7)
       0x0059457e      2f17           move.l (a7), -(a7)
       0x00594580      4eb9004047ea   jsr p_wts_o
       0x00594586      defc010c       adda.w 0x10c, a7
       0x0059458a      4eb900404946   jsr p_wtln_o
    > 0x00594590      1012           move.b (a2), d0
        0x00594592      b03ae6dc       cmp.b 0x592c70(pc), d0
    < 0x00594596      6608           bne.b 0x5945a0
       0x00594598      102a0001       move.b 0x1(a2), d0
       0x0059459c      b03ae6d3       cmp.b 0x592c71(pc), d0
   > 0x005945a0      660001cc       bne.w 0x59476e
       0x005945a4      14bae6cd       move.b 0x592c73(pc), (a2)
       0x005945a8      157ae6ca0001   move.b 0x592c74(pc), 0x1(a2)
   < 0x005945ae      600001be       bra.w 0x59476e
   > 0x005945b2      4a290016       tst.b 0x16(a1)
   < 0x005945b6      67000138       beq.w 0x5946f0
      0x005945ba      487ae6ba       pea.l 0x592c76(pc)
      0x005945be      4878002e       pea.l 0x2e
      0x005945c2      2f17           move.l (a7), -(a7)
      0x005945c4      4eb9004047ea   jsr p_wts_o
      0x005945ca      dec1           adda.w d1, a7
      0x005945cc      4eb900404946   jsr p_wtln_o
      0x005945d2      b9ecfffc       cmpa.l -0x4(a4), a4
  < 0x005945d6      6702           beq.b 0x5945da
     0x005945d8      4e4d           trap 0xd
  > 0x005945da      082c0024001e   btst.b 0x24, 0x1e(a4)
  < 0x005945e0      6706           beq.b 0x5945e8
     0x005945e2      052c001a       btst.l d2, 0x1a(a4)
 < 0x005945e6      6610           bne.b 0x5945f8
 > 0x005945e8      246e0008       movea.l 0x8(a6), a2
     0x005945ec      14bae6b7       move.b 0x592ca5(pc), (a2)
     0x005945f0      157ae6b40001   move.b 0x592ca6(pc), 0x1(a2)
 < 0x005945f6      600e           bra.b 0x594606
 > 0x005945f8      246e0008       movea.l 0x8(a6), a2
     0x005945fc      14bae6aa       move.b 0x592ca8(pc), (a2)
     0x00594600      157ae6a70001   move.b 0x592ca9(pc), 0x1(a2)
  > 0x00594606      246e0008       movea.l 0x8(a6), a2
      0x0059460a      9ec3           suba.w d3, a7
      0x0059460c      264f           movea.l a7, a3
      0x0059460e      41fae69a       lea.l 0x592caa(pc), a0
      0x00594612      7004           moveq 0x4, d0
  > 0x00594614      26d8           move.l (a0)+, (a3)+
  < 0x00594616      51c8fffc       dbra d0, 0x594614
      0x0059461a      554f           subq.w 0x2, a7
      0x0059461c      1e92           move.b (a2), (a7)
      0x0059461e      1f6a00010001   move.b 0x1(a2), 0x1(a7)
      0x00594624      4ebaf846       jsr K0_DISKMGR.warn_if_fail(pc)
      0x00594628      dec3           adda.w d3, a7
      0x0059462a      4a1f           tst.b (a7)+
  < 0x0059462c      670c           beq.b 0x59463a
     0x0059462e      486effb2       pea.l -0x4e(a6)
     0x00594632      4eb900404468   jsr fcn.00404468
     0x00594638      584f           addq.w 0x4, a7
  > 0x0059463a      554f           subq.w 0x2, a7
      0x0059463c      1f290012       move.b 0x12(a1), -(a7)
      0x00594640      9efc000a       suba.w 0xa, a7
      0x00594644      204f           movea.l a7, a0
      0x00594646      47e90008       lea.l 0x8(a1), a3
      0x0059464a      7009           moveq 0x9, d0
  > 0x0059464c      10db           move.b (a3)+, (a0)+
  < 0x0059464e      51c8fffc       dbra d0, 0x59464c
      0x00594652      1f3c0003       move.b 0x3, -(a7)
      0x00594656      4eb9005ac900   jsr K1_AFS_ONLY.k1_index
      0x0059465c      defc000e       adda.w 0xe, a7
      0x00594660      1497           move.b (a7), (a2)
      0x00594662      156f00010001   move.b 0x1(a7), 0x1(a2)
      0x00594668      9efc00fc       suba.w 0xfc, a7
      0x0059466c      2f3ae650       move.l 0x592cbe(pc), -(a7)
      0x00594670      2f7ae6500004   move.l 0x592cc2(pc), 0x4(a7)
      0x00594676      3f7ae64e0008   move.w 0x592cc6(pc), 0x8(a7)
      0x0059467c      1f7ae64a000a   move.b 0x592cc8(pc), 0xa(a7)
      0x00594682      554f           subq.w 0x2, a7
      0x00594684      1e92           move.b (a2), (a7)
      0x00594686      1f6a00010001   move.b 0x1(a2), 0x1(a7)
      0x0059468c      4ebaf7de       jsr K0_DISKMGR.warn_if_fail(pc)
      0x00594690      dec3           adda.w d3, a7
      0x00594692      4a1f           tst.b (a7)+
  < 0x00594694      670c           beq.b 0x5946a2
     0x00594696      486effb2       pea.l -0x4e(a6)
     0x0059469a      4eb900404468   jsr fcn.00404468
     0x005946a0      584f           addq.w 0x4, a7
  > 0x005946a2      554f           subq.w 0x2, a7
      0x005946a4      1f290012       move.b 0x12(a1), -(a7)
      0x005946a8      48690008       pea.l 0x8(a1)
      0x005946ac      4eb9005ac1e6   jsr K1_AFS_ONLY.k1_delete_file
      0x005946b2      5c4f           addq.w 0x6, a7
      0x005946b4      1497           move.b (a7), (a2)
      0x005946b6      156f00010001   move.b 0x1(a7), 0x1(a2)
      0x005946bc      9ec6           suba.w d6, a7
      0x005946be      204f           movea.l a7, a0
      0x005946c0      47fae607       lea.l 0x592cc9(pc), a3
      0x005946c4      700d           moveq 0xd, d0
  > 0x005946c6      10db           move.b (a3)+, (a0)+
  < 0x005946c8      51c8fffc       dbra d0, 0x5946c6
      0x005946cc      554f           subq.w 0x2, a7
      0x005946ce      1e92           move.b (a2), (a7)
      0x005946d0      1f6a00010001   move.b 0x1(a2), 0x1(a7)
      0x005946d6      4ebaf794       jsr K0_DISKMGR.warn_if_fail(pc)
      0x005946da      dec3           adda.w d3, a7
      0x005946dc      4a1f           tst.b (a7)+
  < 0x005946de      6700008e       beq.w 0x59476e
     0x005946e2      486effb2       pea.l -0x4e(a6)
     0x005946e6      4eb900404468   jsr fcn.00404468
     0x005946ec      584f           addq.w 0x4, a7
 < 0x005946ee      607e           bra.b 0x59476e
 > 0x005946f0      246e0008       movea.l 0x8(a6), a2
     0x005946f4      554f           subq.w 0x2, a7
     0x005946f6      1f290012       move.b 0x12(a1), -(a7)
     0x005946fa      48690008       pea.l 0x8(a1)
     0x005946fe      4eb9005ac268   jsr K1_AFS_ONLY.k1_lose_ref
     0x00594704      5c4f           addq.w 0x6, a7
     0x00594706      1497           move.b (a7), (a2)
     0x00594708      156f00010001   move.b 0x1(a7), 0x1(a2)
     0x0059470e      544f           addq.w 0x2, a7
     0x00594710      2029000c       move.l 0xc(a1), d0
     0x00594714      b085           cmp.l d5, d0
 < 0x00594716      6756           beq.b 0x59476e
    0x00594718      487ae5be       pea.l 0x592cd8(pc)
    0x0059471c      48780037       pea.l 0x37
    0x00594720      2f17           move.l (a7), -(a7)
    0x00594722      4eb9004047ea   jsr p_wts_o
    0x00594728      dec1           adda.w d1, a7
    0x0059472a      4eb900404946   jsr p_wtln_o
    0x00594730      9ec6           suba.w d6, a7
    0x00594732      1f290012       move.b 0x12(a1), -(a7)
    0x00594736      4eb9005b0d30   jsr K3_UTILS.k3_filer_str
    0x0059473c      544f           addq.w 0x2, a7
    0x0059473e      487ae5d0       pea.l 0x592d10(pc)
    0x00594742      4878000a       pea.l 0xa
    0x00594746      2f17           move.l (a7), -(a7)
    0x00594748      4eb9004047ea   jsr p_wts_o
    0x0059474e      dec1           adda.w d1, a7
    0x00594750      486f0001       pea.l 0x1(a7)
    0x00594754      42a7           clr.l -(a7)
    0x00594756      1f6f00080003   move.b 0x8(a7), 0x3(a7)
    0x0059475c      2f17           move.l (a7), -(a7)
    0x0059475e      4eb9004047ea   jsr p_wts_o
    0x00594764      defc010c       adda.w 0x10c, a7
    0x00594768      4eb900404946   jsr p_wtln_o
 > 0x0059476e      2457           movea.l (a7), a2
         0x00594770      4852           pea.l (a2)
         0x00594772      4ebaf97a       jsr K0_DISKMGR.disp_file(pc)
         0x00594776      504f           addq.w 0x8, a7
     > 0x00594778      4cdf1f7f       movem.l (a7)+, d0-d6/a0-a4
           0x0059477c      4e5e           unlk a6
           0x0059477e      4e75           rts
            ; CALL XREF from K0_DISKMGR.k_copy_ref @ 0x594cf2
            ; CALL XREF from K0_DISKMGR.k_lose_ref @ 0x594e68
            ; CALL XREF from K0_DISKMGR.old_k_create_fi @ 0x595208
            ; CALL XREF from K0_DISKMGR.k_create_file @ 0x595924
            ; CALL XREF from K0_DISKMGR.k_find_file @ 0x5973d4
 142: K0_DISKMGR.k0_lose_ref ();
           ; var int32_t var_1aa6h @ a6-0x1aa6
           0x00594780      4e56ffd4       link.w a6, 0xffd4
           0x00594784      bfd5           cmpa.l (a5), a7
       < 0x00594786      6206           bhi.b 0x59478e
          0x00594788      44fc0002       move.w 0x2, ccr
          0x0059478c      4e76           trapv
       > 0x0059478e      defc002a       adda.w 0x2a, a7
           0x00594792      48e7c0e0       movem.l d0-d1/a0-a2, -(a7)
           0x00594796      45eefffe       lea.l -0x2(a6), a2
           0x0059479a      7201           moveq 0x1, d1
           0x0059479c      554f           subq.w 0x2, a7
           0x0059479e      1f3c0005       move.b 0x5, -(a7)
           0x005947a2      4eb900598cca   jsr K01_DEBUG.k01_debug
           0x005947a8      544f           addq.w 0x2, a7
           0x005947aa      4a1f           tst.b (a7)+
       < 0x005947ac      671a           beq.b 0x5947c8
          0x005947ae      487ae56b       pea.l 0x592d1b(pc)
          0x005947b2      4878000b       pea.l 0xb
          0x005947b6      2f17           move.l (a7), -(a7)
          0x005947b8      4eb9004047ea   jsr p_wts_o
          0x005947be      defc000c       adda.w 0xc, a7
          0x005947c2      4eb900404946   jsr p_wtln_o
       > 0x005947c8      14bae55d       move.b 0x592d27(pc), (a2)
           0x005947cc      1d7ae55affff   move.b 0x592d28(pc), -0x1(a6)
           0x005947d2      206e0008       movea.l 0x8(a6), a0
           0x005947d6      2250           movea.l (a0), a1
           0x005947d8      b2c1           cmpa.w d1, a1
       < 0x005947da      6726           beq.b 0x594802
          0x005947dc      226e000c       movea.l 0xc(a6), a1
          0x005947e0      554f           subq.w 0x2, a7
          0x005947e2      4851           pea.l (a1)
          0x005947e4      4850           pea.l (a0)
          0x005947e6      4ebafa82       jsr K0_DISKMGR.k0_dec_ref(pc)
          0x005947ea      504f           addq.w 0x8, a7
          0x005947ec      349f           move.w (a7)+, (a2)
          0x005947ee      3012           move.w (a2), d0
          0x005947f0      b07ae538       cmp.w 0x592d2a(pc), d0
      < 0x005947f4      660a           bne.b 0x594800
         0x005947f6      4850           pea.l (a0)
         0x005947f8      4852           pea.l (a2)
         0x005947fa      4ebafc44       jsr K0_DISKMGR.k0_purge_ref(pc)
         0x005947fe      504f           addq.w 0x8, a7
      > 0x00594800      2281           move.l d1, (a1)
       > 0x00594802      3d520010       move.w (a2), 0x10(a6)
           0x00594806      4cdf0703       movem.l (a7)+, d0-d1/a0-a2
           0x0059480a      4e5e           unlk a6
           0x0059480c      4e75           rts
            ; CALL XREF from K0_DISKMGR.old_k_create_fi @ 0x595758
            ; CALL XREF from K0_DISKMGR.k_create_file @ 0x595e8a
            ; CALL XREF from K0_DISKMGR.k_find_next_fil @ 0x597106
            ; CALL XREF from K0_DISKMGR.k_find_file @ 0x597692
            ; CALL XREF from K0_DISKMGR.k_gen_file @ 0x5986fe
 1124: K0_DISKMGR.k0_inc_ref ();
           ; var int32_t var_1h @ a7+0x1
           ; var int32_t var_2h @ a7+0x2
           ; var int32_t var_3h @ a7+0x3
           ; var int32_t var_8h @ a7+0x8
           0x0059480e      4e56fea4       link.w a6, 0xfea4
           0x00594812      bfd5           cmpa.l (a5), a7
       < 0x00594814      6206           bhi.b 0x59481c
          0x00594816      44fc0002       move.w 0x2, ccr
          0x0059481a      4e76           trapv
       > 0x0059481c      defc014c       adda.w 0x14c, a7
           0x00594820      48e7fef8       movem.l d0-d6/a0-a4, -(a7)
           0x00594824      7406           moveq 0x6, d2
           0x00594826      7601           moveq 0x1, d3
           0x00594828      780c           moveq 0xc, d4
           0x0059482a      7a0a           moveq 0xa, d5
           0x0059482c      2c3cffff8000   move.l 0xffff8000, d6
           0x00594832      554f           subq.w 0x2, a7
           0x00594834      1f02           move.b d2, -(a7)
           0x00594836      4eb900598cca   jsr K01_DEBUG.k01_debug
           0x0059483c      544f           addq.w 0x2, a7
           0x0059483e      4a1f           tst.b (a7)+
       < 0x00594840      670000c4       beq.w 0x594906
          0x00594844      206e000e       movea.l 0xe(a6), a0
          0x00594848      9efc0100       suba.w 0x100, a7
          0x0059484c      2250           movea.l (a0), a1
          0x0059484e      b3e9fffc       cmpa.l -0x4(a1), a1
      < 0x00594852      6702           beq.b 0x594856
         0x00594854      4e4d           trap 0xd
      > 0x00594856      9ec5           suba.w d5, a7
          0x00594858      244f           movea.l a7, a2
          0x0059485a      43e90008       lea.l 0x8(a1), a1
          0x0059485e      7009           moveq 0x9, d0
      > 0x00594860      14d9           move.b (a1)+, (a2)+
      < 0x00594862      51c8fffc       dbra d0, 0x594860
          0x00594866      4ebaf07e       jsr K0_DISKMGR.fid_str(pc)
          0x0059486a      dec5           adda.w d5, a7
          0x0059486c      487ae4bf       pea.l 0x592d2d(pc)
          0x00594870      4878000b       pea.l 0xb
          0x00594874      2f17           move.l (a7), -(a7)
          0x00594876      4eb9004047ea   jsr p_wts_o
          0x0059487c      dec4           adda.w d4, a7
          0x0059487e      226e0012       movea.l 0x12(a6), a1
          0x00594882      594f           subq.w 0x4, a7
          0x00594884      1e91           move.b (a1), (a7)
          0x00594886      1f6900010001   move.b 0x1(a1), 0x1(a7)
          0x0059488c      1f6900020002   move.b 0x2(a1), 0x2(a7)
          0x00594892      1f6900030003   move.b 0x3(a1), 0x3(a7)
          0x00594898      4878ffff       pea.l 0xffff
          0x0059489c      4eb9004070e4   jsr p_wti_o
          0x005948a2      504f           addq.w 0x8, a7
          0x005948a4      487ae493       pea.l 0x592d39(pc)
          0x005948a8      48780002       pea.l 0x2
          0x005948ac      2f17           move.l (a7), -(a7)
          0x005948ae      4eb9004047ea   jsr p_wts_o
          0x005948b4      504f           addq.w 0x8, a7
          0x005948b6      1e90           move.b (a0), (a7)
          0x005948b8      1f6800010001   move.b 0x1(a0), 0x1(a7)
          0x005948be      1f6800020002   move.b 0x2(a0), 0x2(a7)
          0x005948c4      1f6800030003   move.b 0x3(a0), 0x3(a7)
          0x005948ca      4878ffff       pea.l 0xffff
          0x005948ce      4eb9004070e4   jsr p_wti_o
          0x005948d4      504f           addq.w 0x8, a7
          0x005948d6      487ae464       pea.l 0x592d3c(pc)
          0x005948da      48780006       pea.l 0x6
          0x005948de      2f17           move.l (a7), -(a7)
          0x005948e0      4eb9004047ea   jsr p_wts_o
          0x005948e6      dec4           adda.w d4, a7
          0x005948e8      486f0001       pea.l 0x1(a7)
          0x005948ec      42a7           clr.l -(a7)
          0x005948ee      1f6f00080003   move.b 0x8(a7), 0x3(a7)
          0x005948f4      2f17           move.l (a7), -(a7)
          0x005948f6      4eb9004047ea   jsr p_wts_o
          0x005948fc      defc010c       adda.w 0x10c, a7
          0x00594900      4eb900404946   jsr p_wtln_o
       > 0x00594906      2d43fff4       move.l d3, -0xc(a6)
           0x0059490a      206e000e       movea.l 0xe(a6), a0
           0x0059490e      2050           movea.l (a0), a0
           0x00594910      b1e8fffc       cmpa.l -0x4(a0), a0
       < 0x00594914      6702           beq.b 0x594918
          0x00594916      4e4d           trap 0xd
       > 0x00594918      30280014       move.w 0x14(a0), d0
           0x0059491c      48c0           ext.l d0
           0x0059491e      5280           addq.l 0x1, d0
           0x00594920      9086           sub.l d6, d0
           0x00594922      0c800000ffff   cmpi.l 0xffff, d0
       < 0x00594928      6302           bls.b 0x59492c
          0x0059492a      4e4f           trap 0xf
       > 0x0059492c      d086           add.l d6, d0
           0x0059492e      31400014       move.w d0, 0x14(a0)
           0x00594932      554f           subq.w 0x2, a7
           0x00594934      1f02           move.b d2, -(a7)
           0x00594936      4eb900598cca   jsr K01_DEBUG.k01_debug
           0x0059493c      544f           addq.w 0x2, a7
           0x0059493e      4a1f           tst.b (a7)+
       < 0x00594940      672c           beq.b 0x59496e
          0x00594942      487ae3ff       pea.l 0x592d43(pc)
          0x00594946      4878000e       pea.l 0xe
          0x0059494a      2f17           move.l (a7), -(a7)
          0x0059494c      4eb9004047ea   jsr p_wts_o
          0x00594952      dec4           adda.w d4, a7
          0x00594954      30280014       move.w 0x14(a0), d0
          0x00594958      48c0           ext.l d0
          0x0059495a      2f00           move.l d0, -(a7)
          0x0059495c      48780000       pea.l 0x0
          0x00594960      4eb9004070e4   jsr p_wti_o
          0x00594966      504f           addq.w 0x8, a7
          0x00594968      4eb900404946   jsr p_wtln_o
       > 0x0059496e      30280014       move.w 0x14(a0), d0
           0x00594972      b043           cmp.w d3, d0
       < 0x00594974      6600021c       bne.w 0x594b92
          0x00594978      116e000c0012   move.b 0xc(a6), 0x12(a0)
          0x0059497e      28790083fe0e   movea.l 0x83fe0e, a4
          0x00594984      594f           subq.w 0x4, a7
          0x00594986      2f280008       move.l 0x8(a0), -(a7)
          0x0059498a      1f03           move.b d3, -(a7)
          0x0059498c      4ebaf152       jsr K0_DISKMGR.k0_gen_vol_ptr(pc)
          0x00594990      5c4f           addq.w 0x6, a7
          0x00594992      265f           movea.l (a7)+, a3
          0x00594994      554f           subq.w 0x2, a7
          0x00594996      1f02           move.b d2, -(a7)
          0x00594998      4eb900598cca   jsr K01_DEBUG.k01_debug
          0x0059499e      544f           addq.w 0x2, a7
          0x005949a0      4a1f           tst.b (a7)+
      < 0x005949a2      6726           beq.b 0x5949ca
         0x005949a4      487ae3ac       pea.l 0x592d52(pc)
         0x005949a8      48780008       pea.l 0x8
         0x005949ac      2f17           move.l (a7), -(a7)
         0x005949ae      4eb9004047ea   jsr p_wts_o
         0x005949b4      504f           addq.w 0x8, a7
         0x005949b6      2e8b           move.l a3, (a7)
         0x005949b8      4878ffff       pea.l 0xffff
         0x005949bc      4eb9004070e4   jsr p_wti_o
         0x005949c2      504f           addq.w 0x8, a7
         0x005949c4      4eb900404946   jsr p_wtln_o
      > 0x005949ca      b6c3           cmpa.w d3, a3
      < 0x005949cc      6612           bne.b 0x5949e0
         0x005949ce      226e0008       movea.l 0x8(a6), a1
         0x005949d2      12bae387       move.b 0x592d5b(pc), (a1)
         0x005949d6      137ae3840001   move.b 0x592d5c(pc), 0x1(a1)
     < 0x005949dc      60000198       bra.w 0x594b76
     > 0x005949e0      226e000e       movea.l 0xe(a6), a1
         0x005949e4      2f08           move.l a0, -(a7)
     > 0x005949e6      2057           movea.l (a7), a0
        0x005949e8      b8c3           cmpa.w d3, a4
    < 0x005949ea      6606           bne.b 0x5949f2
       0x005949ec      584f           addq.w 0x4, a7
   < 0x005949ee      60000186       bra.w 0x594b76
   > 0x005949f2      554f           subq.w 0x2, a7
       0x005949f4      1f02           move.b d2, -(a7)
       0x005949f6      4eb900598cca   jsr K01_DEBUG.k01_debug
       0x005949fc      544f           addq.w 0x2, a7
       0x005949fe      4a1f           tst.b (a7)+
   < 0x00594a00      6772           beq.b 0x594a74
      0x00594a02      9efc0100       suba.w 0x100, a7
      0x00594a06      b9ecfffc       cmpa.l -0x4(a4), a4
  < 0x00594a0a      6702           beq.b 0x594a0e
     0x00594a0c      4e4d           trap 0xd
  > 0x00594a0e      9ec5           suba.w d5, a7
      0x00594a10      244f           movea.l a7, a2
      0x00594a12      41ec0008       lea.l 0x8(a4), a0
      0x00594a16      7009           moveq 0x9, d0
  > 0x00594a18      14d8           move.b (a0)+, (a2)+
  < 0x00594a1a      51c8fffc       dbra d0, 0x594a18
      0x00594a1e      4ebaeec6       jsr K0_DISKMGR.fid_str(pc)
      0x00594a22      dec5           adda.w d5, a7
      0x00594a24      487ae338       pea.l 0x592d5e(pc)
      0x00594a28      48780019       pea.l 0x19
      0x00594a2c      2f17           move.l (a7), -(a7)
      0x00594a2e      4eb9004047ea   jsr p_wts_o
      0x00594a34      504f           addq.w 0x8, a7
      0x00594a36      2e8c           move.l a4, (a7)
      0x00594a38      4878ffff       pea.l 0xffff
      0x00594a3c      4eb9004070e4   jsr p_wti_o
      0x00594a42      504f           addq.w 0x8, a7
      0x00594a44      487ae332       pea.l 0x592d78(pc)
      0x00594a48      48780004       pea.l 0x4
      0x00594a4c      2f17           move.l (a7), -(a7)
      0x00594a4e      4eb9004047ea   jsr p_wts_o
      0x00594a54      dec4           adda.w d4, a7
      0x00594a56      486f0001       pea.l 0x1(a7)
      0x00594a5a      42a7           clr.l -(a7)
      0x00594a5c      1f6f00080003   move.b 0x8(a7), 0x3(a7)
      0x00594a62      2f17           move.l (a7), -(a7)
      0x00594a64      4eb9004047ea   jsr p_wts_o
      0x00594a6a      defc010c       adda.w 0x10c, a7
      0x00594a6e      4eb900404946   jsr p_wtln_o
   > 0x00594a74      b9ecfffc       cmpa.l -0x4(a4), a4
   < 0x00594a78      6702           beq.b 0x594a7c
      0x00594a7a      4e4d           trap 0xd
   > 0x00594a7c      594f           subq.w 0x4, a7
       0x00594a7e      2f2c0008       move.l 0x8(a4), -(a7)
       0x00594a82      1f03           move.b d3, -(a7)
       0x00594a84      4ebaf05a       jsr K0_DISKMGR.k0_gen_vol_ptr(pc)
       0x00594a88      5c4f           addq.w 0x6, a7
       0x00594a8a      265f           movea.l (a7)+, a3
       0x00594a8c      554f           subq.w 0x2, a7
       0x00594a8e      1f02           move.b d2, -(a7)
       0x00594a90      4eb900598cca   jsr K01_DEBUG.k01_debug
       0x00594a96      544f           addq.w 0x2, a7
       0x00594a98      4a1f           tst.b (a7)+
   < 0x00594a9a      6726           beq.b 0x594ac2
      0x00594a9c      487ae2df       pea.l 0x592d7d(pc)
      0x00594aa0      4878000d       pea.l 0xd
      0x00594aa4      2f17           move.l (a7), -(a7)
      0x00594aa6      4eb9004047ea   jsr p_wts_o
      0x00594aac      504f           addq.w 0x8, a7
      0x00594aae      2e8b           move.l a3, (a7)
      0x00594ab0      4878ffff       pea.l 0xffff
      0x00594ab4      4eb9004070e4   jsr p_wti_o
      0x00594aba      504f           addq.w 0x8, a7
      0x00594abc      4eb900404946   jsr p_wtln_o
   > 0x00594ac2      b6c3           cmpa.w d3, a3
   < 0x00594ac4      670000a8       beq.w 0x594b6e
      0x00594ac8      2451           movea.l (a1), a2
      0x00594aca      b5eafffc       cmpa.l -0x4(a2), a2
  < 0x00594ace      6702           beq.b 0x594ad2
     0x00594ad0      4e4d           trap 0xd
  > 0x00594ad2      b7ebfffc       cmpa.l -0x4(a3), a3
  < 0x00594ad6      6702           beq.b 0x594ada
     0x00594ad8      4e4d           trap 0xd
  > 0x00594ada      102b000c       move.b 0xc(a3), d0
      0x00594ade      b02a0012       cmp.b 0x12(a2), d0
  < 0x00594ae2      6662           bne.b 0x594b46
     0x00594ae4      554f           subq.w 0x2, a7
     0x00594ae6      1f2a0012       move.b 0x12(a2), -(a7)
     0x00594aea      486a0008       pea.l 0x8(a2)
     0x00594aee      486c0008       pea.l 0x8(a4)
     0x00594af2      4eb9005ac484   jsr K1_AFS_ONLY.k1_same_file
     0x00594af8      dec5           adda.w d5, a7
     0x00594afa      4a1f           tst.b (a7)+
 < 0x00594afc      672e           beq.b 0x594b2c
    0x00594afe      554f           subq.w 0x2, a7
    0x00594b00      1f02           move.b d2, -(a7)
    0x00594b02      4eb900598cca   jsr K01_DEBUG.k01_debug
    0x00594b08      544f           addq.w 0x2, a7
    0x00594b0a      4a1f           tst.b (a7)+
 < 0x00594b0c      6718           beq.b 0x594b26
    0x00594b0e      487ae27b       pea.l 0x592d8b(pc)
    0x00594b12      4878002e       pea.l 0x2e
    0x00594b16      2f17           move.l (a7), -(a7)
    0x00594b18      4eb9004047ea   jsr p_wts_o
    0x00594b1e      dec4           adda.w d4, a7
    0x00594b20      4eb900404946   jsr p_wtln_o
 > 0x00594b26      2d4cfff4       move.l a4, -0xc(a6)
 < 0x00594b2a      6042           bra.b 0x594b6e
 > 0x00594b2c      554f           subq.w 0x2, a7
     0x00594b2e      1f02           move.b d2, -(a7)
     0x00594b30      4eb900598cca   jsr K01_DEBUG.k01_debug
     0x00594b36      544f           addq.w 0x2, a7
     0x00594b38      4a1f           tst.b (a7)+
 < 0x00594b3a      6732           beq.b 0x594b6e
    0x00594b3c      487ae27c       pea.l 0x592dba(pc)
    0x00594b40      4878001b       pea.l 0x1b
 < 0x00594b44      6018           bra.b 0x594b5e
 > 0x00594b46      554f           subq.w 0x2, a7
     0x00594b48      1f02           move.b d2, -(a7)
     0x00594b4a      4eb900598cca   jsr K01_DEBUG.k01_debug
     0x00594b50      544f           addq.w 0x2, a7
     0x00594b52      4a1f           tst.b (a7)+
 < 0x00594b54      6718           beq.b 0x594b6e
    0x00594b56      487ae27e       pea.l 0x592dd6(pc)
    0x00594b5a      48780010       pea.l 0x10
 > 0x00594b5e      2f17           move.l (a7), -(a7)
    0x00594b60      4eb9004047ea   jsr p_wts_o
    0x00594b66      dec4           adda.w d4, a7
    0x00594b68      4eb900404946   jsr p_wtln_o
 > 0x00594b6e      286c0004       movea.l 0x4(a4), a4
    < 0x00594b72      6000fe72       bra.w 0x5949e6
   > 0x00594b76      226e000e       movea.l 0xe(a6), a1
          0x00594b7a      2451           movea.l (a1), a2
          0x00594b7c      b5eafffc       cmpa.l -0x4(a2), a2
      < 0x00594b80      6702           beq.b 0x594b84
         0x00594b82      4e4d           trap 0xd
      > 0x00594b84      25790083fe0e.  move.l 0x83fe0e, 0x4(a2)
          0x00594b8c      23d10083fe0e   move.l (a1), 0x83fe0e
       > 0x00594b92      206efff4       movea.l -0xc(a6), a0
           0x00594b96      b0c3           cmpa.w d3, a0
       < 0x00594b98      677a           beq.b 0x594c14
          0x00594b9a      554f           subq.w 0x2, a7
          0x00594b9c      1f02           move.b d2, -(a7)
          0x00594b9e      4eb900598cca   jsr K01_DEBUG.k01_debug
          0x00594ba4      544f           addq.w 0x2, a7
          0x00594ba6      4a1f           tst.b (a7)+
      < 0x00594ba8      6718           beq.b 0x594bc2
         0x00594baa      487ae23b       pea.l 0x592de7(pc)
         0x00594bae      48780023       pea.l 0x23
         0x00594bb2      2f17           move.l (a7), -(a7)
         0x00594bb4      4eb9004047ea   jsr p_wts_o
         0x00594bba      dec4           adda.w d4, a7
         0x00594bbc      4eb900404946   jsr p_wtln_o
      > 0x00594bc2      b1e8fffc       cmpa.l -0x4(a0), a0
      < 0x00594bc6      6702           beq.b 0x594bca
         0x00594bc8      4e4d           trap 0xd
      > 0x00594bca      226e000e       movea.l 0xe(a6), a1
          0x00594bce      2451           movea.l (a1), a2
          0x00594bd0      b5eafffc       cmpa.l -0x4(a2), a2
      < 0x00594bd4      6702           beq.b 0x594bd8
         0x00594bd6      4e4d           trap 0xd
      > 0x00594bd8      30280014       move.w 0x14(a0), d0
          0x00594bdc      48c0           ext.l d0
          0x00594bde      322a0014       move.w 0x14(a2), d1
          0x00594be2      48c1           ext.l d1
          0x00594be4      d280           add.l d0, d1
          0x00594be6      9286           sub.l d6, d1
          0x00594be8      0c810000ffff   cmpi.l 0xffff, d1
      < 0x00594bee      6302           bls.b 0x594bf2
         0x00594bf0      4e4f           trap 0xf
      > 0x00594bf2      d286           add.l d6, d1
          0x00594bf4      31410014       move.w d1, 0x14(a0)
          0x00594bf8      426a0014       clr.w 0x14(a2)
          0x00594bfc      4851           pea.l (a1)
          0x00594bfe      246e0008       movea.l 0x8(a6), a2
          0x00594c02      4852           pea.l (a2)
          0x00594c04      4ebaf83a       jsr K0_DISKMGR.k0_purge_ref(pc)
          0x00594c08      504f           addq.w 0x8, a7
          0x00594c0a      2288           move.l a0, (a1)
          0x00594c0c      226e0012       movea.l 0x12(a6), a1
          0x00594c10      2f08           move.l a0, -(a7)
          0x00594c12      229f           move.l (a7)+, (a1)
       > 0x00594c14      554f           subq.w 0x2, a7
           0x00594c16      1f02           move.b d2, -(a7)
           0x00594c18      4eb900598cca   jsr K01_DEBUG.k01_debug
           0x00594c1e      544f           addq.w 0x2, a7
           0x00594c20      4a1f           tst.b (a7)+
       < 0x00594c22      6746           beq.b 0x594c6a
          0x00594c24      28790083fe0e   movea.l 0x83fe0e, a4
          0x00594c2a      206e000e       movea.l 0xe(a6), a0
      > 0x00594c2e      b8c3           cmpa.w d3, a4
     < 0x00594c30      6732           beq.b 0x594c64
        0x00594c32      b9ecfffc       cmpa.l -0x4(a4), a4
    < 0x00594c36      6702           beq.b 0x594c3a
       0x00594c38      4e4d           trap 0xd
    > 0x00594c3a      2250           movea.l (a0), a1
        0x00594c3c      b3e9fffc       cmpa.l -0x4(a1), a1
    < 0x00594c40      6702           beq.b 0x594c44
       0x00594c42      4e4d           trap 0xd
    > 0x00594c44      202c0008       move.l 0x8(a4), d0
        0x00594c48      b0a90008       cmp.l 0x8(a1), d0
    < 0x00594c4c      6610           bne.b 0x594c5e
       0x00594c4e      1f3c003e       move.b 0x3e, -(a7)
       0x00594c52      48780001       pea.l 0x1
       0x00594c56      4eb9004048b4   jsr p_wtc_o
       0x00594c5c      5c4f           addq.w 0x6, a7
    > 0x00594c5e      286c0004       movea.l 0x4(a4), a4
     < 0x00594c62      60ca           bra.b 0x594c2e
     > 0x00594c64      4eb900404946   jsr p_wtln_o
       > 0x00594c6a      4cdf1f7f       movem.l (a7)+, d0-d6/a0-a4
           0x00594c6e      4e5e           unlk a6
           0x00594c70      4e75           rts
            ; XREFS: CALL 0x004c0332  CALL 0x004c0764  CALL 0x005a15fc  
            ; XREFS: CALL 0x005b2b26  CALL 0x005b51c2  CALL 0x00645726  
            ; XREFS: CALL 0x0064e24c  CALL 0x00670b16  CALL 0x006711ec  
            ; XREFS: CALL 0x00671572  CALL 0x00672272  CALL 0x0068b85c  
            ; XREFS: CALL 0x00766f06  CALL 0x0076e148  CALL 0x0076e6a4  
 400: K0_DISKMGR.k_copy_ref ();
           ; var int32_t var_1h @ a7+0x1
           ; var int32_t var_2h @ a7+0x2
           ; var int32_t var_3h @ a7+0x3
           0x00594c72      4e56ff6a       link.w a6, 0xff6a
           0x00594c76      bfd5           cmpa.l (a5), a7
       < 0x00594c78      6206           bhi.b 0x594c80
          0x00594c7a      44fc0002       move.w 0x2, ccr
          0x00594c7e      4e76           trapv
       > 0x00594c80      defc0046       adda.w 0x46, a7
           0x00594c84      48e7f0f8       movem.l d0-d3/a0-a4, -(a7)
           0x00594c88      47eeffb4       lea.l -0x4c(a6), a3
           0x00594c8c      49eeffb0       lea.l -0x50(a6), a4
           0x00594c90      7201           moveq 0x1, d1
           0x00594c92      740c           moveq 0xc, d2
           0x00594c94      760a           moveq 0xa, d3
           0x00594c96      554f           subq.w 0x2, a7
           0x00594c98      1f3c0007       move.b 0x7, -(a7)
           0x00594c9c      4eb900598cca   jsr K01_DEBUG.k01_debug
           0x00594ca2      544f           addq.w 0x2, a7
           0x00594ca4      4a1f           tst.b (a7)+
       < 0x00594ca6      6718           beq.b 0x594cc0
          0x00594ca8      487ae161       pea.l 0x592e0b(pc)
          0x00594cac      4878000a       pea.l 0xa
          0x00594cb0      2f17           move.l (a7), -(a7)
          0x00594cb2      4eb9004047ea   jsr p_wts_o
          0x00594cb8      dec2           adda.w d2, a7
          0x00594cba      4eb900404946   jsr p_wtln_o
       > 0x00594cc0      36bae154       move.w 0x592e16(pc), (a3)
           0x00594cc4      554f           subq.w 0x2, a7
           0x00594cc6      486effb6       pea.l -0x4a(a6)
           0x00594cca      4eb900404434   jsr fcn.00404434
           0x00594cd0      584f           addq.w 0x4, a7
           0x00594cd2      4a1f           tst.b (a7)+
       < 0x00594cd4      67000120       beq.w 0x594df6
          0x00594cd8      206e0008       movea.l 0x8(a6), a0
          0x00594cdc      594f           subq.w 0x4, a7
          0x00594cde      4850           pea.l (a0)
          0x00594ce0      1f01           move.b d1, -(a7)
          0x00594ce2      4853           pea.l (a3)
          0x00594ce4      4ebaeece       jsr K0_DISKMGR.k0_gen_file_ptr(pc)
          0x00594ce8      dec3           adda.w d3, a7
          0x00594cea      2897           move.l (a7), (a4)
          0x00594cec      544f           addq.w 0x2, a7
          0x00594cee      4850           pea.l (a0)
          0x00594cf0      4854           pea.l (a4)
          0x00594cf2      4ebafa8c       jsr K0_DISKMGR.k0_lose_ref(pc)
          0x00594cf6      504f           addq.w 0x8, a7
          0x00594cf8      369f           move.w (a7)+, (a3)
          0x00594cfa      1013           move.b (a3), d0
          0x00594cfc      b03ae11b       cmp.b 0x592e19(pc), d0
      < 0x00594d00      6608           bne.b 0x594d0a
         0x00594d02      102effb5       move.b -0x4b(a6), d0
         0x00594d06      b03ae112       cmp.b 0x592e1a(pc), d0
     > 0x00594d0a      660000ea       bne.w 0x594df6
         0x00594d0e      226e000c       movea.l 0xc(a6), a1
         0x00594d12      594f           subq.w 0x4, a7
         0x00594d14      4851           pea.l (a1)
         0x00594d16      1f01           move.b d1, -(a7)
         0x00594d18      4853           pea.l (a3)
         0x00594d1a      4ebaee98       jsr K0_DISKMGR.k0_gen_file_ptr(pc)
         0x00594d1e      dec3           adda.w d3, a7
         0x00594d20      289f           move.l (a7)+, (a4)
         0x00594d22      3013           move.w (a3), d0
         0x00594d24      b07ae0f6       cmp.w 0x592e1c(pc), d0
     < 0x00594d28      670c           beq.b 0x594d36
        0x00594d2a      486effb6       pea.l -0x4a(a6)
        0x00594d2e      4eb900404468   jsr fcn.00404468
        0x00594d34      584f           addq.w 0x4, a7
     > 0x00594d36      2454           movea.l (a4), a2
         0x00594d38      b4c1           cmpa.w d1, a2
     < 0x00594d3a      670000b8       beq.w 0x594df4
        0x00594d3e      b5eafffc       cmpa.l -0x4(a2), a2
    < 0x00594d42      6702           beq.b 0x594d46
       0x00594d44      4e4d           trap 0xd
    > 0x00594d46      302a0014       move.w 0x14(a2), d0
        0x00594d4a      48c0           ext.l d0
        0x00594d4c      5280           addq.l 0x1, d0
        0x00594d4e      0480ffff8000   subi.l 0xffff8000, d0
        0x00594d54      0c800000ffff   cmpi.l 0xffff, d0
    < 0x00594d5a      6302           bls.b 0x594d5e
       0x00594d5c      4e4f           trap 0xf
    > 0x00594d5e      0680ffff8000   addi.l 0xffff8000, d0
        0x00594d64      35400014       move.w d0, 0x14(a2)
        0x00594d68      554f           subq.w 0x2, a7
        0x00594d6a      1f3c001b       move.b 0x1b, -(a7)
        0x00594d6e      4eb900598cca   jsr K01_DEBUG.k01_debug
        0x00594d74      544f           addq.w 0x2, a7
        0x00594d76      4a1f           tst.b (a7)+
    < 0x00594d78      677a           beq.b 0x594df4
       0x00594d7a      487ae0a3       pea.l 0x592e1f(pc)
       0x00594d7e      48780011       pea.l 0x11
       0x00594d82      2f17           move.l (a7), -(a7)
       0x00594d84      4eb9004047ea   jsr p_wts_o
       0x00594d8a      dec2           adda.w d2, a7
       0x00594d8c      48c0           ext.l d0
       0x00594d8e      2f00           move.l d0, -(a7)
       0x00594d90      48780000       pea.l 0x0
       0x00594d94      4eb9004070e4   jsr p_wti_o
       0x00594d9a      504f           addq.w 0x8, a7
       0x00594d9c      487ae093       pea.l 0x592e31(pc)
       0x00594da0      48780011       pea.l 0x11
       0x00594da4      2f17           move.l (a7), -(a7)
       0x00594da6      4eb9004047ea   jsr p_wts_o
       0x00594dac      504f           addq.w 0x8, a7
       0x00594dae      2e94           move.l (a4), (a7)
       0x00594db0      4878ffff       pea.l 0xffff
       0x00594db4      4eb9004070e4   jsr p_wti_o
       0x00594dba      504f           addq.w 0x8, a7
       0x00594dbc      487ae085       pea.l 0x592e43(pc)
       0x00594dc0      48780004       pea.l 0x4
       0x00594dc4      2f17           move.l (a7), -(a7)
       0x00594dc6      4eb9004047ea   jsr p_wts_o
       0x00594dcc      504f           addq.w 0x8, a7
       0x00594dce      1e91           move.b (a1), (a7)
       0x00594dd0      1f6900010001   move.b 0x1(a1), 0x1(a7)
       0x00594dd6      1f6900020002   move.b 0x2(a1), 0x2(a7)
       0x00594ddc      1f6900030003   move.b 0x3(a1), 0x3(a7)
       0x00594de2      4878ffff       pea.l 0xffff
       0x00594de6      4eb9004070e4   jsr p_wti_o
       0x00594dec      504f           addq.w 0x8, a7
       0x00594dee      4eb900404946   jsr p_wtln_o
    > 0x00594df4      2091           move.l (a1), (a0)
     > 0x00594df6      3d530010       move.w (a3), 0x10(a6)
           0x00594dfa      4cdf1f0f       movem.l (a7)+, d0-d3/a0-a4
           0x00594dfe      4e5e           unlk a6
           0x00594e00      4e75           rts
            ; XREFS(47)
 120: K0_DISKMGR.k_lose_ref ();
           0x00594e02      4e56ffe0       link.w a6, 0xffe0
           0x00594e06      bfd5           cmpa.l (a5), a7
       < 0x00594e08      6206           bhi.b 0x594e10
          0x00594e0a      44fc0002       move.w 0x2, ccr
          0x00594e0e      4e76           trapv
       > 0x00594e10      defc001a       adda.w 0x1a, a7
           0x00594e14      48e70080       movem.l a0, -(a7)
           0x00594e18      554f           subq.w 0x2, a7
           0x00594e1a      1f3c0008       move.b 0x8, -(a7)
           0x00594e1e      4eb900598cca   jsr K01_DEBUG.k01_debug
           0x00594e24      544f           addq.w 0x2, a7
           0x00594e26      4a1f           tst.b (a7)+
       < 0x00594e28      671a           beq.b 0x594e44
          0x00594e2a      487ae01c       pea.l 0x592e48(pc)
          0x00594e2e      4878000a       pea.l 0xa
          0x00594e32      2f17           move.l (a7), -(a7)
          0x00594e34      4eb9004047ea   jsr p_wts_o
          0x00594e3a      defc000c       adda.w 0xc, a7
          0x00594e3e      4eb900404946   jsr p_wtln_o
       > 0x00594e44      206e0008       movea.l 0x8(a6), a0
           0x00594e48      594f           subq.w 0x4, a7
           0x00594e4a      4850           pea.l (a0)
           0x00594e4c      1f3c0001       move.b 0x1, -(a7)
           0x00594e50      486efffe       pea.l -0x2(a6)
           0x00594e54      4ebaed5e       jsr K0_DISKMGR.k0_gen_file_ptr(pc)
           0x00594e58      defc000a       adda.w 0xa, a7
           0x00594e5c      2d57fffa       move.l (a7), -0x6(a6)
           0x00594e60      544f           addq.w 0x2, a7
           0x00594e62      4850           pea.l (a0)
           0x00594e64      486efffa       pea.l -0x6(a6)
           0x00594e68      4ebaf916       jsr K0_DISKMGR.k0_lose_ref(pc)
           0x00594e6c      504f           addq.w 0x8, a7
           0x00594e6e      3d5f000c       move.w (a7)+, 0xc(a6)
           0x00594e72      4cdf0100       movem.l (a7)+, a0
           0x00594e76      4e5e           unlk a6
           0x00594e78      4e75           rts
            ; CALL XREF from K0_DISKMGR.old_k_create_fi @ 0x595500
            ; CALL XREF from K0_DISKMGR.k_create_file @ 0x595b1c
 628: K0_DISKMGR.check_number ();
           ; var int32_t var_8h @ a7+0x8
           0x00594e7a      4e56feb0       link.w a6, 0xfeb0
           0x00594e7e      bfd5           cmpa.l (a5), a7
       < 0x00594e80      6206           bhi.b 0x594e88
          0x00594e82      44fc0002       move.w 0x2, ccr
          0x00594e86      4e76           trapv
       > 0x00594e88      defc0148       adda.w 0x148, a7
           0x00594e8c      48e7fff8       movem.l d0-d7/a0-a4, -(a7)
           0x00594e90      43f9004047ea   lea.l p_wts_o, a1
           0x00594e96      45eefffe       lea.l -0x2(a6), a2
           0x00594e9a      47f900404946   lea.l p_wtln_o, a3
           0x00594ea0      49eeffff       lea.l -0x1(a6), a4
           0x00594ea4      7a0c           moveq 0xc, d5
           0x00594ea6      14badfab       move.b 0x592e53(pc), (a2)
           0x00594eaa      18badfa8       move.b 0x592e54(pc), (a4)
           0x00594eae      4280           clr.l d0
           0x00594eb0      302e0016       move.w 0x16(a6), d0
           0x00594eb4      0c800000ffff   cmpi.l 0xffff, d0
       < 0x00594eba      67000226       beq.w 0x5950e2
          0x00594ebe      122e0014       move.b 0x14(a6), d1
          0x00594ec2      4881           ext.w d1
          0x00594ec4      41fadf90       lea.l 0x592e56(pc), a0
          0x00594ec8      3401           move.w d1, d2
          0x00594eca      e64a           lsr.w 0x3, d2
          0x00594ecc      03302000       btst.l d1, (a0, d2.w)
      < 0x00594ed0      6726           beq.b 0x594ef8
         0x00594ed2      7e01           moveq 0x1, d7
         0x00594ed4      554f           subq.w 0x2, a7
         0x00594ed6      1f3c0009       move.b 0x9, -(a7)
         0x00594eda      4eb900598cca   jsr K01_DEBUG.k01_debug
         0x00594ee0      544f           addq.w 0x2, a7
         0x00594ee2      4a1f           tst.b (a7)+
     < 0x00594ee4      6746           beq.b 0x594f2c
        0x00594ee6      487adf7b       pea.l 0x592e63(pc)
        0x00594eea      48780014       pea.l 0x14
        0x00594eee      2f17           move.l (a7), -(a7)
        0x00594ef0      4e91           jsr (a1)                    ; fcn.0000000a
        0x00594ef2      dec5           adda.w d5, a7
        0x00594ef4      4e93           jsr (a3)                    ; fcn.0000000c
    < 0x00594ef6      6034           bra.b 0x594f2c
    > 0x00594ef8      0c010033       cmpi.b 0x33, d1
    < 0x00594efc      6626           bne.b 0x594f24
       0x00594efe      554f           subq.w 0x2, a7
       0x00594f00      1f3c0009       move.b 0x9, -(a7)
       0x00594f04      4eb900598cca   jsr K01_DEBUG.k01_debug
       0x00594f0a      544f           addq.w 0x2, a7
       0x00594f0c      4a1f           tst.b (a7)+
   < 0x00594f0e      6710           beq.b 0x594f20
      0x00594f10      487adf66       pea.l 0x592e78(pc)
      0x00594f14      48780012       pea.l 0x12
      0x00594f18      2f17           move.l (a7), -(a7)
      0x00594f1a      4e91           jsr (a1)                    ; fcn.0000000a
      0x00594f1c      dec5           adda.w d5, a7
      0x00594f1e      4e93           jsr (a3)                    ; fcn.0000000c
   > 0x00594f20      7e02           moveq 0x2, d7
   < 0x00594f22      6008           bra.b 0x594f2c
   > 0x00594f24      14badf65       move.b 0x592e8b(pc), (a2)
       0x00594f28      18badf62       move.b 0x592e8c(pc), (a4)
   > 0x00594f2c      594f           subq.w 0x4, a7
          0x00594f2e      2f2e0010       move.l 0x10(a6), -(a7)
          0x00594f32      4eb9006bd82c   jsr USER2_DISK.volume_region
          0x00594f38      584f           addq.w 0x4, a7
          0x00594f3a      2d57fff8       move.l (a7), -0x8(a6)
          0x00594f3e      1ebc0009       move.b 0x9, (a7)
          0x00594f42      4eb900598cca   jsr K01_DEBUG.k01_debug
          0x00594f48      544f           addq.w 0x2, a7
          0x00594f4a      4a1f           tst.b (a7)+
      < 0x00594f4c      6734           beq.b 0x594f82
         0x00594f4e      9efc0100       suba.w 0x100, a7
         0x00594f52      2f2efff8       move.l -0x8(a6), -(a7)
         0x00594f56      4eb9006b8ed2   jsr USER1_UTILS.region_str
         0x00594f5c      584f           addq.w 0x4, a7
         0x00594f5e      487adf2e       pea.l 0x592e8e(pc)
         0x00594f62      48780008       pea.l 0x8
         0x00594f66      2f17           move.l (a7), -(a7)
         0x00594f68      4e91           jsr (a1)                    ; fcn.0000000a
         0x00594f6a      dec5           adda.w d5, a7
         0x00594f6c      486f0001       pea.l 0x1(a7)
         0x00594f70      42a7           clr.l -(a7)
         0x00594f72      1f6f00080003   move.b 0x8(a7), 0x3(a7)
         0x00594f78      2f17           move.l (a7), -(a7)
         0x00594f7a      4e91           jsr (a1)                    ; fcn.0000000a
         0x00594f7c      defc010c       adda.w 0x10c, a7
         0x00594f80      4e93           jsr (a3)                    ; fcn.0000000c
      > 0x00594f82      1212           move.b (a2), d1
          0x00594f84      b23adf11       cmp.b 0x592e97(pc), d1
      < 0x00594f88      6606           bne.b 0x594f90
         0x00594f8a      1214           move.b (a4), d1
         0x00594f8c      b23adf0a       cmp.b 0x592e98(pc), d1
     > 0x00594f90      66000150       bne.w 0x5950e2
         0x00594f94      4887           ext.w d7
         0x00594f96      4fbc000f       chk.w 0xf, d7
         0x00594f9a      554f           subq.w 0x2, a7
         0x00594f9c      3f00           move.w d0, -(a7)
         0x00594f9e      1f07           move.b d7, -(a7)
         0x00594fa0      2f2efff8       move.l -0x8(a6), -(a7)
         0x00594fa4      4eb9006bdcc8   jsr USER2_DISK.exch_num
         0x00594faa      504f           addq.w 0x8, a7
         0x00594fac      121f           move.b (a7)+, d1
         0x00594fae      4881           ext.w d1
         0x00594fb0      43bc0001       chk.w 0x1, d1
         0x00594fb4      1c01           move.b d1, d6
     < 0x00594fb6      67000086       beq.w 0x59503e
        0x00594fba      082e00060008   btst.b 0x6, 0x8(a6)
    < 0x00594fc0      6746           beq.b 0x595008
       0x00594fc2      487aded6       pea.l 0x592e9a(pc)
       0x00594fc6      48780025       pea.l 0x25
       0x00594fca      2f17           move.l (a7), -(a7)
       0x00594fcc      4e91           jsr (a1)                    ; fcn.0000000a
       0x00594fce      504f           addq.w 0x8, a7
       0x00594fd0      2eae0010       move.l 0x10(a6), (a7)
       0x00594fd4      4878ffff       pea.l 0xffff
       0x00594fd8      4eb9004070e4   jsr p_wti_o
       0x00594fde      504f           addq.w 0x8, a7
       0x00594fe0      487adede       pea.l 0x592ec0(pc)
       0x00594fe4      48780006       pea.l 0x6
       0x00594fe8      2f17           move.l (a7), -(a7)
       0x00594fea      4e91           jsr (a1)                    ; fcn.0000000a
       0x00594fec      504f           addq.w 0x8, a7
       0x00594fee      2e80           move.l d0, (a7)
       0x00594ff0      48780000       pea.l 0x0
       0x00594ff4      4eb9004070e4   jsr p_wti_o
       0x00594ffa      504f           addq.w 0x8, a7
       0x00594ffc      4e93           jsr (a3)                    ; fcn.0000000c
       0x00594ffe      14badec7       move.b 0x592ec7(pc), (a2)
       0x00595002      18badec4       move.b 0x592ec8(pc), (a4)
   < 0x00595006      6046           bra.b 0x59504e
   > 0x00595008      594f           subq.w 0x4, a7
       0x0059500a      1f07           move.b d7, -(a7)
       0x0059500c      4eb9006b9f42   jsr USER1_UTILS.exch_range
       0x00595012      544f           addq.w 0x2, a7
       0x00595014      261f           move.l (a7)+, d3
       0x00595016      2800           move.l d0, d4
       0x00595018      4eb900406b50   jsr fcn.00406b50
       0x0059501e      554f           subq.w 0x2, a7
       0x00595020      2f04           move.l d4, -(a7)
       0x00595022      4eb9005b15d2   jsr K3_UTILS.k3_range_prop
       0x00595028      584f           addq.w 0x4, a7
       0x0059502a      121f           move.b (a7)+, d1
       0x0059502c      4881           ext.w d1
       0x0059502e      3401           move.w d1, d2
       0x00595030      e64a           lsr.w 0x3, d2
       0x00595032      03362008       btst.l d1, 0x8(a6, d2.w)
   < 0x00595036      6616           bne.b 0x59504e
      0x00595038      34bade90       move.w 0x592eca(pc), (a2)
  < 0x0059503c      6010           bra.b 0x59504e
  > 0x0059503e      082e00060008   btst.b 0x6, 0x8(a6)
  < 0x00595044      6608           bne.b 0x59504e
     0x00595046      14bade85       move.b 0x592ecd(pc), (a2)
     0x0059504a      18bade82       move.b 0x592ece(pc), (a4)
  > 0x0059504e      554f           subq.w 0x2, a7
         0x00595050      1f3c0009       move.b 0x9, -(a7)
         0x00595054      4eb900598cca   jsr K01_DEBUG.k01_debug
         0x0059505a      544f           addq.w 0x2, a7
         0x0059505c      4a1f           tst.b (a7)+
     < 0x0059505e      67000082       beq.w 0x5950e2
        0x00595062      487ade6c       pea.l 0x592ed0(pc)
        0x00595066      4878000d       pea.l 0xd
        0x0059506a      2f17           move.l (a7), -(a7)
        0x0059506c      4e91           jsr (a1)                    ; fcn.0000000a
        0x0059506e      defc000a       adda.w 0xa, a7
        0x00595072      1e86           move.b d6, (a7)
        0x00595074      48780005       pea.l 0x5
        0x00595078      4eb90040718c   jsr p_wtb_o
        0x0059507e      5c4f           addq.w 0x6, a7
        0x00595080      4e93           jsr (a3)                    ; fcn.0000000c
        0x00595082      487ade5a       pea.l 0x592ede(pc)
        0x00595086      4878000b       pea.l 0xb
        0x0059508a      2f17           move.l (a7), -(a7)
        0x0059508c      4e91           jsr (a1)                    ; fcn.0000000a
        0x0059508e      5c4f           addq.w 0x6, a7
        0x00595090      1e87           move.b d7, (a7)
        0x00595092      4eb9006b9f42   jsr USER1_UTILS.exch_range
        0x00595098      544f           addq.w 0x2, a7
        0x0059509a      48780000       pea.l 0x0
        0x0059509e      4eb9004070e4   jsr p_wti_o
        0x005950a4      504f           addq.w 0x8, a7
        0x005950a6      4e93           jsr (a3)                    ; fcn.0000000c
        0x005950a8      487ade40       pea.l 0x592eea(pc)
        0x005950ac      4878000d       pea.l 0xd
        0x005950b0      2f17           move.l (a7), -(a7)
        0x005950b2      4e91           jsr (a1)                    ; fcn.0000000a
        0x005950b4      dec5           adda.w d5, a7
        0x005950b6      4852           pea.l (a2)
        0x005950b8      48780002       pea.l 0x2
        0x005950bc      2f17           move.l (a7), -(a7)
        0x005950be      4e91           jsr (a1)                    ; fcn.0000000a
        0x005950c0      dec5           adda.w d5, a7
        0x005950c2      487ade34       pea.l 0x592ef8(pc)
        0x005950c6      48780009       pea.l 0x9
        0x005950ca      2f17           move.l (a7), -(a7)
        0x005950cc      4e91           jsr (a1)                    ; fcn.0000000a
        0x005950ce      504f           addq.w 0x8, a7
        0x005950d0      2eae0010       move.l 0x10(a6), (a7)
        0x005950d4      4878ffff       pea.l 0xffff
        0x005950d8      4eb9004070e4   jsr p_wti_o
        0x005950de      504f           addq.w 0x8, a7
        0x005950e0      4e93           jsr (a3)                    ; fcn.0000000c
     > 0x005950e2      3d520018       move.w (a2), 0x18(a6)
           0x005950e6      4cdf1fff       movem.l (a7)+, d0-d7/a0-a4
           0x005950ea      4e5e           unlk a6
           0x005950ec      4e75           rts
 1818: K0_DISKMGR.old_k_create_fi ();
           ; var int32_t var_2724h @ a6-0x2724
           ; var int32_t var_271fh @ a6-0x271f
           ; var int32_t var_24f0h @ a6-0x24f0
           ; var int32_t var_24ebh @ a6-0x24eb
           ; var int32_t var_24e6h @ a6-0x24e6
           ; var int32_t var_24bah @ a6-0x24ba
           ; var int32_t var_245ah @ a6-0x245a
           ; var int32_t var_2455h @ a6-0x2455
           ; var int32_t var_2450h @ a6-0x2450
           ; var int32_t var_23bah @ a6-0x23ba
           ; var int32_t var_23b5h @ a6-0x23b5
           ; var int32_t var_22beh @ a6-0x22be
           ; var int32_t var_22b9h @ a6-0x22b9
           ; var int32_t var_18h @ a6-0x18
           ; var int32_t var_14h @ a6-0x14
           ; var int32_t var_8h @ a7+0x8
           ; var int32_t var_108h @ a7+0x108
           0x005950ee      4e56fda4       link.w a6, 0xfda4
           0x005950f2      bfd5           cmpa.l (a5), a7
       < 0x005950f4      6206           bhi.b 0x5950fc
          0x005950f6      44fc0002       move.w 0x2, ccr
          0x005950fa      4e76           trapv
       > 0x005950fc      defc0244       adda.w 0x244, a7
           0x00595100      48e7fff8       movem.l d0-d7/a0-a4, -(a7)
           0x00595104      7401           moveq 0x1, d2
           0x00595106      760c           moveq 0xc, d3
           0x00595108      7809           moveq 0x9, d4
           0x0059510a      3a3c0100       move.w 0x100, d5
           0x0059510e      7c0a           moveq 0xa, d6
           0x00595110      554f           subq.w 0x2, a7
           0x00595112      1f04           move.b d4, -(a7)
           0x00595114      4eb900598cca   jsr K01_DEBUG.k01_debug
           0x0059511a      544f           addq.w 0x2, a7
           0x0059511c      4a1f           tst.b (a7)+
       < 0x0059511e      670000bc       beq.w 0x5951dc
          0x00595122      9ec5           suba.w d5, a7
          0x00595124      206e001a       movea.l 0x1a(a6), a0
          0x00595128      9efc0054       suba.w 0x54, a7
          0x0059512c      224f           movea.l a7, a1
          0x0059512e      7053           moveq 0x53, d0
      > 0x00595130      12d8           move.b (a0)+, (a1)+
      < 0x00595132      51c8fffc       dbra d0, 0x595130
          0x00595136      4eb9005b0828   jsr K3_UTILS.k3_fname_str
          0x0059513c      9efc00ac       suba.w 0xac, a7
          0x00595140      2f2e001e       move.l 0x1e(a6), -(a7)
          0x00595144      48780000       pea.l 0x0
          0x00595148      4eb90044dd86   jsr SYSTEM_STRING.point_str
          0x0059514e      504f           addq.w 0x8, a7
          0x00595150      487addb0       pea.l 0x592f02(pc)
          0x00595154      4878000e       pea.l 0xe
          0x00595158      2f17           move.l (a7), -(a7)
          0x0059515a      4eb9004047ea   jsr p_wts_o
          0x00595160      dec3           adda.w d3, a7
          0x00595162      486f0101       pea.l 0x101(a7)
          0x00595166      42a7           clr.l -(a7)
          0x00595168      1f6f01080003   move.b 0x108(a7), 0x3(a7)
          0x0059516e      2f17           move.l (a7), -(a7)
          0x00595170      4eb9004047ea   jsr p_wts_o
          0x00595176      dec3           adda.w d3, a7
          0x00595178      487add97       pea.l 0x592f11(pc)
          0x0059517c      48780006       pea.l 0x6
          0x00595180      2f17           move.l (a7), -(a7)
          0x00595182      4eb9004047ea   jsr p_wts_o
          0x00595188      dec3           adda.w d3, a7
          0x0059518a      486f0001       pea.l 0x1(a7)
          0x0059518e      42a7           clr.l -(a7)
          0x00595190      1f6f00080003   move.b 0x8(a7), 0x3(a7)
          0x00595196      2f17           move.l (a7), -(a7)
          0x00595198      4eb9004047ea   jsr p_wts_o
          0x0059519e      defc020c       adda.w 0x20c, a7
          0x005951a2      4eb900404946   jsr p_wtln_o
          0x005951a8      4280           clr.l d0
          0x005951aa      302e0008       move.w 0x8(a6), d0
          0x005951ae      0c800000ffff   cmpi.l 0xffff, d0
      < 0x005951b4      6726           beq.b 0x5951dc
         0x005951b6      487add60       pea.l 0x592f18(pc)
         0x005951ba      4878000c       pea.l 0xc
         0x005951be      2f17           move.l (a7), -(a7)
         0x005951c0      4eb9004047ea   jsr p_wts_o
         0x005951c6      504f           addq.w 0x8, a7
         0x005951c8      2e80           move.l d0, (a7)
         0x005951ca      48780000       pea.l 0x0
         0x005951ce      4eb9004070e4   jsr p_wti_o
         0x005951d4      504f           addq.w 0x8, a7
         0x005951d6      4eb900404946   jsr p_wtln_o
      > 0x005951dc      1d7add47ffec   move.b 0x592f25(pc), -0x14(a6)
           0x005951e2      1d7add42ffed   move.b 0x592f26(pc), -0x13(a6)
           0x005951e8      206e0028       movea.l 0x28(a6), a0
           0x005951ec      594f           subq.w 0x4, a7
           0x005951ee      4850           pea.l (a0)
           0x005951f0      1f02           move.b d2, -(a7)
           0x005951f2      486effec       pea.l -0x14(a6)
           0x005951f6      4ebae9bc       jsr K0_DISKMGR.k0_gen_file_ptr(pc)
           0x005951fa      dec6           adda.w d6, a7
           0x005951fc      2d57ffee       move.l (a7), -0x12(a6)
           0x00595200      544f           addq.w 0x2, a7
           0x00595202      4850           pea.l (a0)
           0x00595204      486effee       pea.l -0x12(a6)
           0x00595208      4ebaf576       jsr K0_DISKMGR.k0_lose_ref(pc)
           0x0059520c      504f           addq.w 0x8, a7
           0x0059520e      3d5fffec       move.w (a7)+, -0x14(a6)
           0x00595212      4850           pea.l (a0)
           0x00595214      486efff2       pea.l -0xe(a6)
           0x00595218      4ebaee26       jsr K0_DISKMGR.new_file(pc)
           0x0059521c      584f           addq.w 0x4, a7
           0x0059521e      1e84           move.b d4, (a7)
           0x00595220      4eb900598cca   jsr K01_DEBUG.k01_debug
           0x00595226      544f           addq.w 0x2, a7
           0x00595228      4a1f           tst.b (a7)+
       < 0x0059522a      6730           beq.b 0x59525c
          0x0059522c      487adcfa       pea.l 0x592f28(pc)
          0x00595230      48780012       pea.l 0x12
          0x00595234      2f17           move.l (a7), -(a7)
          0x00595236      4eb9004047ea   jsr p_wts_o
          0x0059523c      dec6           adda.w d6, a7
          0x0059523e      4217           clr.b (a7)
          0x00595240      082e00160014   btst.b 0x16, 0x14(a6)
      < 0x00595246      6702           beq.b 0x59524a
         0x00595248      5217           addq.b 0x1, (a7)
      > 0x0059524a      48780005       pea.l 0x5
          0x0059524e      4eb90040718c   jsr p_wtb_o
          0x00595254      5c4f           addq.w 0x6, a7
          0x00595256      4eb900404946   jsr p_wtln_o
       > 0x0059525c      082e00160014   btst.b 0x16, 0x14(a6)
       < 0x00595262      670a           beq.b 0x59526e
          0x00595264      2d790083fcfa.  move.l 0x83fcfa, -0xa(a6)
      < 0x0059526c      602e           bra.b 0x59529c
      > 0x0059526e      206e001a       movea.l 0x1a(a6), a0
          0x00595272      10280051       move.b 0x51(a0), d0
          0x00595276      4880           ext.w d0
          0x00595278      41fadcc0       lea.l 0x592f3a(pc), a0
          0x0059527c      3200           move.w d0, d1
          0x0059527e      e649           lsr.w 0x3, d1
          0x00595280      01301000       btst.l d0, (a0, d1.w)
      < 0x00595284      670a           beq.b 0x595290
         0x00595286      426efff6       clr.w -0xa(a6)
         0x0059528a      426efff8       clr.w -0x8(a6)
     < 0x0059528e      600c           bra.b 0x59529c
     > 0x00595290      594f           subq.w 0x4, a7
         0x00595292      4eb900633bb2   jsr HANDCOM.get_pixel_aspec
         0x00595298      2d5ffff6       move.l (a7)+, -0xa(a6)
     > 0x0059529c      203adca8       move.l 0x592f46(pc), d0
           0x005952a0      4680           not.l d0
           0x005952a2      c1ae0012       and.l d0, 0x12(a6)
           0x005952a6      203adca2       move.l 0x592f4a(pc), d0
           0x005952aa      4680           not.l d0
           0x005952ac      c1ae0016       and.l d0, 0x16(a6)
           0x005952b0      554f           subq.w 0x2, a7
           0x005952b2      1f04           move.b d4, -(a7)
           0x005952b4      4eb900598cca   jsr K01_DEBUG.k01_debug
           0x005952ba      544f           addq.w 0x2, a7
           0x005952bc      4a1f           tst.b (a7)+
       < 0x005952be      6742           beq.b 0x595302
          0x005952c0      9ec5           suba.w d5, a7
          0x005952c2      2f2efff6       move.l -0xa(a6), -(a7)
          0x005952c6      48780000       pea.l 0x0
          0x005952ca      4eb90044dd86   jsr SYSTEM_STRING.point_str
          0x005952d0      504f           addq.w 0x8, a7
          0x005952d2      487adc7b       pea.l 0x592f4f(pc)
          0x005952d6      48780007       pea.l 0x7
          0x005952da      2f17           move.l (a7), -(a7)
          0x005952dc      4eb9004047ea   jsr p_wts_o
          0x005952e2      dec3           adda.w d3, a7
          0x005952e4      486f0001       pea.l 0x1(a7)
          0x005952e8      42a7           clr.l -(a7)
          0x005952ea      1f6f00080003   move.b 0x8(a7), 0x3(a7)
          0x005952f0      2f17           move.l (a7), -(a7)
          0x005952f2      4eb9004047ea   jsr p_wts_o
          0x005952f8      defc010c       adda.w 0x10c, a7
          0x005952fc      4eb900404946   jsr p_wtln_o
       > 0x00595302      206efff2       movea.l -0xe(a6), a0
           0x00595306      b0c2           cmpa.w d2, a0
       < 0x00595308      6610           bne.b 0x59531a
          0x0059530a      1d7adc4bffec   move.b 0x592f57(pc), -0x14(a6)
          0x00595310      1d7adc46ffed   move.b 0x592f58(pc), -0x13(a6)
      < 0x00595316      600004e2       bra.w 0x5957fa
      > 0x0059531a      28790083fe16   movea.l 0x83fe16, a4
          0x00595320      b8c2           cmpa.w d2, a4
      < 0x00595322      660a           bne.b 0x59532e
         0x00595324      594f           subq.w 0x4, a7
         0x00595326      4eb9005a032e   jsr K03_DISKLIST.k03_vol_list_he
         0x0059532c      285f           movea.l (a7)+, a4
     > 0x0059532e      1f02           move.b d2, -(a7)
         0x00595330      4eb9005a085c   jsr K03_DISKLIST.k03_lock_vol_ga
         0x00595336      544f           addq.w 0x2, a7
         0x00595338      7e00           moveq 0x0, d7
     > 0x0059533a      4a07           tst.b d7
    < 0x0059533c      665c           bne.b 0x59539a
       0x0059533e      b8c2           cmpa.w d2, a4
   < 0x00595340      6758           beq.b 0x59539a
      0x00595342      554f           subq.w 0x2, a7
      0x00595344      2f0c           move.l a4, -(a7)
      0x00595346      2f2e0016       move.l 0x16(a6), -(a7)
      0x0059534a      2f2e0012       move.l 0x12(a6), -(a7)
      0x0059534e      2f2e000e       move.l 0xe(a6), -(a7)
      0x00595352      2f2e000a       move.l 0xa(a6), -(a7)
      0x00595356      4eb9005a0098   jsr K03_DISKLIST.k03_check_vol
      0x0059535c      defc0014       adda.w 0x14, a7
      0x00595360      101f           move.b (a7)+, d0
      0x00595362      4880           ext.w d0
      0x00595364      4182           chk.w d2, d0
      0x00595366      1e00           move.b d0, d7
  < 0x00595368      662e           bne.b 0x595398
     0x0059536a      b9ecfffc       cmpa.l -0x4(a4), a4
 < 0x0059536e      6702           beq.b 0x595372
    0x00595370      4e4d           trap 0xd
 > 0x00595372      286c0004       movea.l 0x4(a4), a4
     0x00595376      b8c2           cmpa.w d2, a4
 < 0x00595378      6614           bne.b 0x59538e
    0x0059537a      20790083fe16   movea.l 0x83fe16, a0
    0x00595380      b0c2           cmpa.w d2, a0
 < 0x00595382      670a           beq.b 0x59538e
    0x00595384      594f           subq.w 0x4, a7
    0x00595386      4eb9005a032e   jsr K03_DISKLIST.k03_vol_list_he
    0x0059538c      285f           movea.l (a7)+, a4
 > 0x0059538e      b9f90083fe16   cmpa.l 0x83fe16, a4
 < 0x00595394      6602           bne.b 0x595398
    0x00595396      3842           movea.w d2, a4
 < 0x00595398      60a0           bra.b 0x59533a
   > 0x0059539a      4227           clr.b -(a7)
         0x0059539c      4eb9005a085c   jsr K03_DISKLIST.k03_lock_vol_ga
         0x005953a2      544f           addq.w 0x2, a7
         0x005953a4      4a07           tst.b d7
     < 0x005953a6      6708           beq.b 0x5953b0
        0x005953a8      3d7adbb0ffec   move.w 0x592f5a(pc), -0x14(a6)
    < 0x005953ae      600c           bra.b 0x5953bc
    > 0x005953b0      1d7adbabffec   move.b 0x592f5d(pc), -0x14(a6)
        0x005953b6      1d7adba6ffed   move.b 0x592f5e(pc), -0x13(a6)
    > 0x005953bc      554f           subq.w 0x2, a7
         0x005953be      1f04           move.b d4, -(a7)
         0x005953c0      4eb900598cca   jsr K01_DEBUG.k01_debug
         0x005953c6      544f           addq.w 0x2, a7
         0x005953c8      4a1f           tst.b (a7)+
     < 0x005953ca      6770           beq.b 0x59543c
        0x005953cc      487adb92       pea.l 0x592f60(pc)
        0x005953d0      48780019       pea.l 0x19
        0x005953d4      2f17           move.l (a7), -(a7)
        0x005953d6      4eb9004047ea   jsr p_wts_o
        0x005953dc      dec3           adda.w d3, a7
        0x005953de      486effec       pea.l -0x14(a6)
        0x005953e2      48780002       pea.l 0x2
        0x005953e6      2f17           move.l (a7), -(a7)
        0x005953e8      4eb9004047ea   jsr p_wts_o
        0x005953ee      dec3           adda.w d3, a7
        0x005953f0      302effec       move.w -0x14(a6), d0
        0x005953f4      b07adb84       cmp.w 0x592f7a(pc), d0
    < 0x005953f8      662c           bne.b 0x595426
       0x005953fa      487adb81       pea.l 0x592f7d(pc)
       0x005953fe      48780006       pea.l 0x6
       0x00595402      2f17           move.l (a7), -(a7)
       0x00595404      4eb9004047ea   jsr p_wts_o
       0x0059540a      dec3           adda.w d3, a7
       0x0059540c      b9ecfffc       cmpa.l -0x4(a4), a4
   < 0x00595410      6702           beq.b 0x595414
      0x00595412      4e4d           trap 0xd
   > 0x00595414      2f2c000e       move.l 0xe(a4), -(a7)
       0x00595418      4878ffff       pea.l 0xffff
       0x0059541c      4eb9004070e4   jsr p_wti_o
       0x00595422      504f           addq.w 0x8, a7
   < 0x00595424      6010           bra.b 0x595436
   > 0x00595426      1f3c002e       move.b 0x2e, -(a7)
       0x0059542a      48780001       pea.l 0x1
       0x0059542e      4eb9004048b4   jsr p_wtc_o
       0x00595434      5c4f           addq.w 0x6, a7
   > 0x00595436      4eb900404946   jsr p_wtln_o
     > 0x0059543c      3d7adb46ffe8   move.w 0x592f84(pc), -0x18(a6)
         0x00595442      102effec       move.b -0x14(a6), d0
         0x00595446      b03adb3f       cmp.b 0x592f87(pc), d0
     < 0x0059544a      6608           bne.b 0x595454
        0x0059544c      102effed       move.b -0x13(a6), d0
        0x00595450      b03adb36       cmp.b 0x592f88(pc), d0
    > 0x00595454      662c           bne.b 0x595482
        0x00595456      b9ecfffc       cmpa.l -0x4(a4), a4
    < 0x0059545a      6702           beq.b 0x59545e
       0x0059545c      4e4d           trap 0xd
    > 0x0059545e      082c0024001e   btst.b 0x24, 0x1e(a4)
    < 0x00595464      6708           beq.b 0x59546e
       0x00595466      082c0004001a   btst.b 0x4, 0x1a(a4)
   < 0x0059546c      6608           bne.b 0x595476
   > 0x0059546e      3d7adb1affe8   move.w 0x592f8a(pc), -0x18(a6)
   < 0x00595474      600c           bra.b 0x595482
   > 0x00595476      1d7adb15ffe8   move.b 0x592f8d(pc), -0x18(a6)
       0x0059547c      1d7adb10ffe9   move.b 0x592f8e(pc), -0x17(a6)
    > 0x00595482      554f           subq.w 0x2, a7
         0x00595484      1f04           move.b d4, -(a7)
         0x00595486      4eb900598cca   jsr K01_DEBUG.k01_debug
         0x0059548c      544f           addq.w 0x2, a7
         0x0059548e      4a1f           tst.b (a7)+
     < 0x00595490      672a           beq.b 0x5954bc
        0x00595492      487adafc       pea.l 0x592f90(pc)
        0x00595496      48780018       pea.l 0x18
        0x0059549a      2f17           move.l (a7), -(a7)
        0x0059549c      4eb9004047ea   jsr p_wts_o
        0x005954a2      dec3           adda.w d3, a7
        0x005954a4      486effe8       pea.l -0x18(a6)
        0x005954a8      48780002       pea.l 0x2
        0x005954ac      2f17           move.l (a7), -(a7)
        0x005954ae      4eb9004047ea   jsr p_wts_o
        0x005954b4      dec3           adda.w d3, a7
        0x005954b6      4eb900404946   jsr p_wtln_o
     > 0x005954bc      3d6effe8ffea   move.w -0x18(a6), -0x16(a6)
         0x005954c2      102effe8       move.b -0x18(a6), d0
         0x005954c6      b03adae1       cmp.b 0x592fa9(pc), d0
     < 0x005954ca      6608           bne.b 0x5954d4
        0x005954cc      102effe9       move.b -0x17(a6), d0
        0x005954d0      b03adad8       cmp.b 0x592faa(pc), d0
    > 0x005954d4      6636           bne.b 0x59550c
        0x005954d6      b9ecfffc       cmpa.l -0x4(a4), a4
    < 0x005954da      6702           beq.b 0x5954de
       0x005954dc      4e4d           trap 0xd
    > 0x005954de      554f           subq.w 0x2, a7
        0x005954e0      3f2e0008       move.w 0x8(a6), -(a7)
        0x005954e4      206e001a       movea.l 0x1a(a6), a0
        0x005954e8      1f280051       move.b 0x51(a0), -(a7)
        0x005954ec      2f2c000e       move.l 0xe(a4), -(a7)
        0x005954f0      514f           subq.w 0x8, a7
        0x005954f2      204f           movea.l a7, a0
        0x005954f4      43ec001a       lea.l 0x1a(a4), a1
        0x005954f8      7007           moveq 0x7, d0
    > 0x005954fa      10d9           move.b (a1)+, (a0)+
    < 0x005954fc      51c8fffc       dbra d0, 0x5954fa
        0x00595500      4ebaf978       jsr K0_DISKMGR.check_number(pc)
        0x00595504      defc0010       adda.w 0x10, a7
        0x00595508      3d5fffea       move.w (a7)+, -0x16(a6)
    > 0x0059550c      554f           subq.w 0x2, a7
         0x0059550e      1f04           move.b d4, -(a7)
         0x00595510      4eb900598cca   jsr K01_DEBUG.k01_debug
         0x00595516      544f           addq.w 0x2, a7
         0x00595518      4a1f           tst.b (a7)+
     < 0x0059551a      672a           beq.b 0x595546
        0x0059551c      487ada8e       pea.l 0x592fac(pc)
        0x00595520      4878001a       pea.l 0x1a
        0x00595524      2f17           move.l (a7), -(a7)
        0x00595526      4eb9004047ea   jsr p_wts_o
        0x0059552c      dec3           adda.w d3, a7
        0x0059552e      486effea       pea.l -0x16(a6)
        0x00595532      48780002       pea.l 0x2
        0x00595536      2f17           move.l (a7), -(a7)
        0x00595538      4eb9004047ea   jsr p_wts_o
        0x0059553e      dec3           adda.w d3, a7
        0x00595540      4eb900404946   jsr p_wtln_o
     > 0x00595546      102effea       move.b -0x16(a6), d0
         0x0059554a      b03ada7b       cmp.b 0x592fc7(pc), d0
     < 0x0059554e      6608           bne.b 0x595558
        0x00595550      102effeb       move.b -0x15(a6), d0
        0x00595554      b03ada72       cmp.b 0x592fc8(pc), d0
    > 0x00595558      660000da       bne.w 0x595634
        0x0059555c      206efff2       movea.l -0xe(a6), a0
        0x00595560      b1e8fffc       cmpa.l -0x4(a0), a0
    < 0x00595564      6702           beq.b 0x595568
       0x00595566      4e4d           trap 0xd
    > 0x00595568      b9ecfffc       cmpa.l -0x4(a4), a4
    < 0x0059556c      6702           beq.b 0x595570
       0x0059556e      4e4d           trap 0xd
    > 0x00595570      216c000e0008   move.l 0xe(a4), 0x8(a0)
        0x00595576      226e001a       movea.l 0x1a(a6), a1
        0x0059557a      9efc0052       suba.w 0x52, a7
        0x0059557e      244f           movea.l a7, a2
        0x00595580      2649           movea.l a1, a3
        0x00595582      7050           moveq 0x50, d0
    > 0x00595584      14db           move.b (a3)+, (a2)+
    < 0x00595586      51c8fffc       dbra d0, 0x595584
        0x0059558a      554f           subq.w 0x2, a7
        0x0059558c      102c000c       move.b 0xc(a4), d0
        0x00595590      4880           ext.w d0
        0x00595592      41bc0007       chk.w 0x7, d0
        0x00595596      1f00           move.b d0, -(a7)
        0x00595598      2f2c000e       move.l 0xe(a4), -(a7)
        0x0059559c      48680008       pea.l 0x8(a0)
        0x005955a0      2f2e0024       move.l 0x24(a6), -(a7)
        0x005955a4      2f2e0020       move.l 0x20(a6), -(a7)
        0x005955a8      3f2e001e       move.w 0x1e(a6), -(a7)
        0x005955ac      2f2efff6       move.l -0xa(a6), -(a7)
        0x005955b0      9ec5           suba.w d5, a7
        0x005955b2      486f011a       pea.l 0x11a(a7)
        0x005955b6      4267           clr.w -(a7)
        0x005955b8      3f3c0050       move.w 0x50, -(a7)
        0x005955bc      4eb9005b057c   jsr K3_UTILS.k3_string
        0x005955c2      5c4f           addq.w 0x6, a7
        0x005955c4      1ea90051       move.b 0x51(a1), (a7)
        0x005955c8      3f290052       move.w 0x52(a1), -(a7)
        0x005955cc      4eb9005ab984   jsr K1_AFS_ONLY.k1_create_file
        0x005955d2      defc011c       adda.w 0x11c, a7
        0x005955d6      3d5fffec       move.w (a7)+, -0x14(a6)
        0x005955da      defc004e       adda.w 0x4e, a7
        0x005955de      1e84           move.b d4, (a7)
        0x005955e0      4eb900598cca   jsr K01_DEBUG.k01_debug
        0x005955e6      544f           addq.w 0x2, a7
        0x005955e8      4a1f           tst.b (a7)+
    < 0x005955ea      672a           beq.b 0x595616
       0x005955ec      487ad9dc       pea.l 0x592fca(pc)
       0x005955f0      48780017       pea.l 0x17
       0x005955f4      2f17           move.l (a7), -(a7)
       0x005955f6      4eb9004047ea   jsr p_wts_o
       0x005955fc      dec3           adda.w d3, a7
       0x005955fe      486effec       pea.l -0x14(a6)
       0x00595602      48780002       pea.l 0x2
       0x00595606      2f17           move.l (a7), -(a7)
       0x00595608      4eb9004047ea   jsr p_wts_o
       0x0059560e      dec3           adda.w d3, a7
       0x00595610      4eb900404946   jsr p_wtln_o
    > 0x00595616      302effec       move.w -0x14(a6), d0
        0x0059561a      b07ad9c6       cmp.w 0x592fe2(pc), d0
    < 0x0059561e      6714           beq.b 0x595634
       0x00595620      203ad9c2       move.l 0x592fe4(pc), d0
       0x00595624      4680           not.l d0
       0x00595626      c1ac001a       and.l d0, 0x1a(a4)
       0x0059562a      203ad9bc       move.l 0x592fe8(pc), d0
       0x0059562e      4680           not.l d0
       0x00595630      c1ac001e       and.l d0, 0x1e(a4)
    > 0x00595634      102effec       move.b -0x14(a6), d0
         0x00595638      b03ad9b3       cmp.b 0x592fed(pc), d0
     < 0x0059563c      6608           bne.b 0x595646
        0x0059563e      102effed       move.b -0x13(a6), d0
        0x00595642      b03ad9aa       cmp.b 0x592fee(pc), d0
    > 0x00595646      661e           bne.b 0x595666
        0x00595648      302effe8       move.w -0x18(a6), d0
        0x0059564c      b07ad9a2       cmp.w 0x592ff0(pc), d0
    < 0x00595650      6614           bne.b 0x595666
       0x00595652      102effea       move.b -0x16(a6), d0
       0x00595656      b03ad99b       cmp.b 0x592ff3(pc), d0
   < 0x0059565a      6608           bne.b 0x595664
      0x0059565c      102effeb       move.b -0x15(a6), d0
      0x00595660      b03ad992       cmp.b 0x592ff4(pc), d0
  > 0x00595664      6746           beq.b 0x5956ac
   > 0x00595666      b8c2           cmpa.w d2, a4
    < 0x00595668      6742           beq.b 0x5956ac
       0x0059566a      1f02           move.b d2, -(a7)
       0x0059566c      4eb9005a085c   jsr K03_DISKLIST.k03_lock_vol_ga
       0x00595672      544f           addq.w 0x2, a7
       0x00595674      b9ecfffc       cmpa.l -0x4(a4), a4
   < 0x00595678      6702           beq.b 0x59567c
      0x0059567a      4e4d           trap 0xd
   > 0x0059567c      286c0004       movea.l 0x4(a4), a4
       0x00595680      b8c2           cmpa.w d2, a4
   < 0x00595682      6614           bne.b 0x595698
      0x00595684      20790083fe16   movea.l 0x83fe16, a0
      0x0059568a      b0c2           cmpa.w d2, a0
  < 0x0059568c      670a           beq.b 0x595698
     0x0059568e      594f           subq.w 0x4, a7
     0x00595690      4eb9005a032e   jsr K03_DISKLIST.k03_vol_list_he
     0x00595696      285f           movea.l (a7)+, a4
  > 0x00595698      b9f90083fe16   cmpa.l 0x83fe16, a4
   < 0x0059569e      6602           bne.b 0x5956a2
      0x005956a0      3842           movea.w d2, a4
   > 0x005956a2      4227           clr.b -(a7)
       0x005956a4      4eb9005a085c   jsr K03_DISKLIST.k03_lock_vol_ga
       0x005956aa      544f           addq.w 0x2, a7
  > 0x005956ac      302effec       move.w -0x14(a6), d0
         0x005956b0      b07ad944       cmp.w 0x592ff6(pc), d0
     < 0x005956b4      661e           bne.b 0x5956d4
        0x005956b6      102effe8       move.b -0x18(a6), d0
        0x005956ba      b03ad93d       cmp.b 0x592ff9(pc), d0
    < 0x005956be      6608           bne.b 0x5956c8
       0x005956c0      102effe9       move.b -0x17(a6), d0
       0x005956c4      b03ad934       cmp.b 0x592ffa(pc), d0
   > 0x005956c8      660a           bne.b 0x5956d4
       0x005956ca      302effea       move.w -0x16(a6), d0
       0x005956ce      b07ad92c       cmp.w 0x592ffc(pc), d0
   < 0x005956d2      6706           beq.b 0x5956da
   > 0x005956d4      b8c2           cmpa.w d2, a4
    < 0x005956d6      6600fc56       bne.w 0x59532e
    > 0x005956da      102effec       move.b -0x14(a6), d0
          0x005956de      b03ad91f       cmp.b 0x592fff(pc), d0
      < 0x005956e2      6608           bne.b 0x5956ec
         0x005956e4      102effed       move.b -0x13(a6), d0
         0x005956e8      b03ad916       cmp.b 0x593000(pc), d0
     > 0x005956ec      661e           bne.b 0x59570c
         0x005956ee      302effe8       move.w -0x18(a6), d0
         0x005956f2      b07ad90e       cmp.w 0x593002(pc), d0
     < 0x005956f6      6614           bne.b 0x59570c
        0x005956f8      102effea       move.b -0x16(a6), d0
        0x005956fc      b03ad907       cmp.b 0x593005(pc), d0
    < 0x00595700      6608           bne.b 0x59570a
       0x00595702      102effeb       move.b -0x15(a6), d0
       0x00595706      b03ad8fe       cmp.b 0x593006(pc), d0
   > 0x0059570a      672a           beq.b 0x595736
    > 0x0059570c      486efff2       pea.l -0xe(a6)
         0x00595710      4ebae9dc       jsr K0_DISKMGR.disp_file(pc)
         0x00595714      584f           addq.w 0x4, a7
         0x00595716      206e0028       movea.l 0x28(a6), a0
         0x0059571a      2082           move.l d2, (a0)
         0x0059571c      302effec       move.w -0x14(a6), d0
         0x00595720      b07ad8e6       cmp.w 0x593008(pc), d0
     < 0x00595724      6600008a       bne.w 0x5957b0
        0x00595728      1d7ad8e1ffec   move.b 0x59300b(pc), -0x14(a6)
        0x0059572e      1d7ad8dcffed   move.b 0x59300c(pc), -0x13(a6)
    < 0x00595734      607a           bra.b 0x5957b0
   > 0x00595736      b9ecfffc       cmpa.l -0x4(a4), a4
    < 0x0059573a      6702           beq.b 0x59573e
       0x0059573c      4e4d           trap 0xd
    > 0x0059573e      206e0028       movea.l 0x28(a6), a0
        0x00595742      4850           pea.l (a0)
        0x00595744      486efff2       pea.l -0xe(a6)
        0x00595748      102c000c       move.b 0xc(a4), d0
        0x0059574c      4880           ext.w d0
        0x0059574e      41bc0007       chk.w 0x7, d0
        0x00595752      1f00           move.b d0, -(a7)
        0x00595754      486effec       pea.l -0x14(a6)
        0x00595758      4ebaf0b4       jsr K0_DISKMGR.k0_inc_ref(pc)
        0x0059575c      dec3           adda.w d3, a7
        0x0059575e      1e82           move.b d2, (a7)
        0x00595760      4eb9005a085c   jsr K03_DISKLIST.k03_lock_vol_ga
        0x00595766      544f           addq.w 0x2, a7
        0x00595768      20390083fe1a   move.l 0x83fe1a, d0
        0x0059576e      b0ac0012       cmp.l 0x12(a4), d0
    < 0x00595772      6d0c           blt.b 0x595780
       0x00595774      286c0004       movea.l 0x4(a4), a4
       0x00595778      23c20083fe1a   move.l d2, 0x83fe1a
   < 0x0059577e      600c           bra.b 0x59578c
   > 0x00595780      23c00083fe1a   move.l d0, 0x83fe1a
       0x00595786      52b90083fe1a   addq.l 0x1, 0x83fe1a.l
   > 0x0059578c      b8c2           cmpa.w d2, a4
    < 0x0059578e      6610           bne.b 0x5957a0
       0x00595790      594f           subq.w 0x4, a7
       0x00595792      4eb9005a032e   jsr K03_DISKLIST.k03_vol_list_he
       0x00595798      285f           movea.l (a7)+, a4
       0x0059579a      23c20083fe1a   move.l d2, 0x83fe1a
    > 0x005957a0      23cc0083fe16   move.l a4, 0x83fe16
        0x005957a6      4227           clr.b -(a7)
        0x005957a8      4eb9005a085c   jsr K03_DISKLIST.k03_lock_vol_ga
        0x005957ae      544f           addq.w 0x2, a7
     > 0x005957b0      554f           subq.w 0x2, a7
          0x005957b2      1f3c001b       move.b 0x1b, -(a7)
          0x005957b6      4eb900598cca   jsr K01_DEBUG.k01_debug
          0x005957bc      544f           addq.w 0x2, a7
          0x005957be      4a1f           tst.b (a7)+
      < 0x005957c0      6738           beq.b 0x5957fa
         0x005957c2      487ad84a       pea.l 0x59300e(pc)
         0x005957c6      48780018       pea.l 0x18
         0x005957ca      2f17           move.l (a7), -(a7)
         0x005957cc      4eb9004047ea   jsr p_wts_o
         0x005957d2      dec3           adda.w d3, a7
         0x005957d4      206efff2       movea.l -0xe(a6), a0
         0x005957d8      b1e8fffc       cmpa.l -0x4(a0), a0
     < 0x005957dc      6702           beq.b 0x5957e0
        0x005957de      4e4d           trap 0xd
     > 0x005957e0      30280014       move.w 0x14(a0), d0
         0x005957e4      48c0           ext.l d0
         0x005957e6      2f00           move.l d0, -(a7)
         0x005957e8      48780000       pea.l 0x0
         0x005957ec      4eb9004070e4   jsr p_wti_o
         0x005957f2      504f           addq.w 0x8, a7
         0x005957f4      4eb900404946   jsr p_wtln_o
      > 0x005957fa      3d6effec002c   move.w -0x14(a6), 0x2c(a6)
           0x00595800      4cdf1fff       movem.l (a7)+, d0-d7/a0-a4
           0x00595804      4e5e           unlk a6
           0x00595806      4e75           rts
            ; XREFS(24)
 1800: K0_DISKMGR.k_create_file (int32_t arg_8h);
           ; var int32_t var_2d6ah @ a6-0x2d6a
           ; var int32_t var_2c10h @ a6-0x2c10
           ; var int32_t var_2a1eh @ a6-0x2a1e
           ; var int32_t var_2a19h @ a6-0x2a19
           ; var int32_t var_2a14h @ a6-0x2a14
           ; var int32_t var_29b2h @ a6-0x29b2
           ; var int32_t var_29adh @ a6-0x29ad
           ; var int32_t var_28b2h @ a6-0x28b2
           ; var int32_t var_28adh @ a6-0x28ad
           ; var int32_t var_30h @ a6-0x30
           ; var int32_t var_2ch @ a6-0x2c
           ; var int32_t var_10h @ a6-0x10
           ; arg int32_t arg_8h @ a6+0x8
           ; var int32_t var_8h @ a7+0x8
           ; var int32_t var_108h @ a7+0x108
           0x00595808      4e56fd8c       link.w a6, 0xfd8c
           0x0059580c      bfd5           cmpa.l (a5), a7
       < 0x0059580e      6206           bhi.b 0x595816
          0x00595810      44fc0002       move.w 0x2, ccr
          0x00595814      4e76           trapv
       > 0x00595816      defc0244       adda.w 0x244, a7
           0x0059581a      48e7fff8       movem.l d0-d7/a0-a4, -(a7)
           0x0059581e      7401           moveq 0x1, d2
           0x00595820      760c           moveq 0xc, d3
           0x00595822      7809           moveq 0x9, d4
           0x00595824      7a07           moveq 0x7, d5
           0x00595826      3c3c0100       move.w 0x100, d6
           0x0059582a      554f           subq.w 0x2, a7
           0x0059582c      1f04           move.b d4, -(a7)
           0x0059582e      4eb900598cca   jsr K01_DEBUG.k01_debug
           0x00595834      544f           addq.w 0x2, a7
           0x00595836      4a1f           tst.b (a7)+
       < 0x00595838      670000bc       beq.w 0x5958f6
          0x0059583c      9ec6           suba.w d6, a7
          0x0059583e      206e001a       movea.l 0x1a(a6), a0
          0x00595842      9efc0054       suba.w 0x54, a7
          0x00595846      224f           movea.l a7, a1
          0x00595848      7053           moveq 0x53, d0
      > 0x0059584a      12d8           move.b (a0)+, (a1)+
      < 0x0059584c      51c8fffc       dbra d0, 0x59584a
          0x00595850      4eb9005b0828   jsr K3_UTILS.k3_fname_str
          0x00595856      9efc00ac       suba.w 0xac, a7
          0x0059585a      2f2e001e       move.l 0x1e(a6), -(a7)
          0x0059585e      48780000       pea.l 0x0
          0x00595862      4eb90044dd86   jsr SYSTEM_STRING.point_str
          0x00595868      504f           addq.w 0x8, a7
          0x0059586a      487ad7bb       pea.l 0x593027(pc)
          0x0059586e      4878000e       pea.l 0xe
          0x00595872      2f17           move.l (a7), -(a7)
          0x00595874      4eb9004047ea   jsr p_wts_o
          0x0059587a      dec3           adda.w d3, a7
          0x0059587c      486f0101       pea.l 0x101(a7)
          0x00595880      42a7           clr.l -(a7)
          0x00595882      1f6f01080003   move.b 0x108(a7), 0x3(a7)
          0x00595888      2f17           move.l (a7), -(a7)
          0x0059588a      4eb9004047ea   jsr p_wts_o
          0x00595890      dec3           adda.w d3, a7
          0x00595892      487ad7a2       pea.l 0x593036(pc)
          0x00595896      48780007       pea.l 0x7
          0x0059589a      2f17           move.l (a7), -(a7)
          0x0059589c      4eb9004047ea   jsr p_wts_o
          0x005958a2      dec3           adda.w d3, a7
          0x005958a4      486f0001       pea.l 0x1(a7)
          0x005958a8      42a7           clr.l -(a7)
          0x005958aa      1f6f00080003   move.b 0x8(a7), 0x3(a7)
          0x005958b0      2f17           move.l (a7), -(a7)
          0x005958b2      4eb9004047ea   jsr p_wts_o
          0x005958b8      defc020c       adda.w 0x20c, a7
          0x005958bc      4eb900404946   jsr p_wtln_o
          0x005958c2      4280           clr.l d0
          0x005958c4      302e0008       move.w 0x8(a6), d0
          0x005958c8      0c800000ffff   cmpi.l 0xffff, d0
      < 0x005958ce      6726           beq.b 0x5958f6
         0x005958d0      487ad76c       pea.l 0x59303e(pc)
         0x005958d4      4878000c       pea.l 0xc
         0x005958d8      2f17           move.l (a7), -(a7)
         0x005958da      4eb9004047ea   jsr p_wts_o
         0x005958e0      504f           addq.w 0x8, a7
         0x005958e2      2e80           move.l d0, (a7)
         0x005958e4      48780000       pea.l 0x0
         0x005958e8      4eb9004070e4   jsr p_wti_o
         0x005958ee      504f           addq.w 0x8, a7
         0x005958f0      4eb900404946   jsr p_wtln_o
      > 0x005958f6      1d7ad753ffd4   move.b 0x59304b(pc), -0x2c(a6)
           0x005958fc      1d7ad74effd5   move.b 0x59304c(pc), -0x2b(a6)
           0x00595902      206e0028       movea.l 0x28(a6), a0
           0x00595906      594f           subq.w 0x4, a7
           0x00595908      4850           pea.l (a0)
           0x0059590a      1f02           move.b d2, -(a7)
           0x0059590c      486effd4       pea.l -0x2c(a6)
           0x00595910      4ebae2a2       jsr K0_DISKMGR.k0_gen_file_ptr(pc)
           0x00595914      defc000a       adda.w 0xa, a7
           0x00595918      2d57ffd6       move.l (a7), -0x2a(a6)
           0x0059591c      544f           addq.w 0x2, a7
           0x0059591e      4850           pea.l (a0)
           0x00595920      486effd6       pea.l -0x2a(a6)
           0x00595924      4ebaee5a       jsr K0_DISKMGR.k0_lose_ref(pc)
           0x00595928      504f           addq.w 0x8, a7
           0x0059592a      3d5fffd4       move.w (a7)+, -0x2c(a6)
           0x0059592e      4850           pea.l (a0)
           0x00595930      486effda       pea.l -0x26(a6)
           0x00595934      4ebae70a       jsr K0_DISKMGR.new_file(pc)
           0x00595938      584f           addq.w 0x4, a7
           0x0059593a      1e84           move.b d4, (a7)
           0x0059593c      4eb900598cca   jsr K01_DEBUG.k01_debug
           0x00595942      544f           addq.w 0x2, a7
           0x00595944      4a1f           tst.b (a7)+
       < 0x00595946      6732           beq.b 0x59597a
          0x00595948      487ad704       pea.l 0x59304e(pc)
          0x0059594c      48780012       pea.l 0x12
          0x00595950      2f17           move.l (a7), -(a7)
          0x00595952      4eb9004047ea   jsr p_wts_o
          0x00595958      defc000a       adda.w 0xa, a7
          0x0059595c      4217           clr.b (a7)
          0x0059595e      082e00160014   btst.b 0x16, 0x14(a6)
      < 0x00595964      6702           beq.b 0x595968
         0x00595966      5217           addq.b 0x1, (a7)
      > 0x00595968      48780005       pea.l 0x5
          0x0059596c      4eb90040718c   jsr p_wtb_o
          0x00595972      5c4f           addq.w 0x6, a7
          0x00595974      4eb900404946   jsr p_wtln_o
       > 0x0059597a      082e00160014   btst.b 0x16, 0x14(a6)
       < 0x00595980      670a           beq.b 0x59598c
          0x00595982      2d790083fcfa.  move.l 0x83fcfa, -0x22(a6)
      < 0x0059598a      602e           bra.b 0x5959ba
      > 0x0059598c      206e001a       movea.l 0x1a(a6), a0
          0x00595990      10280051       move.b 0x51(a0), d0
          0x00595994      4880           ext.w d0
          0x00595996      41fad6c8       lea.l 0x593060(pc), a0
          0x0059599a      3200           move.w d0, d1
          0x0059599c      e649           lsr.w 0x3, d1
          0x0059599e      01301000       btst.l d0, (a0, d1.w)
      < 0x005959a2      670a           beq.b 0x5959ae
         0x005959a4      426effde       clr.w -0x22(a6)
         0x005959a8      426effe0       clr.w -0x20(a6)
     < 0x005959ac      600c           bra.b 0x5959ba
     > 0x005959ae      594f           subq.w 0x4, a7
         0x005959b0      4eb900633bb2   jsr HANDCOM.get_pixel_aspec
         0x005959b6      2d5fffde       move.l (a7)+, -0x22(a6)
     > 0x005959ba      203ad6b0       move.l 0x59306c(pc), d0
           0x005959be      4680           not.l d0
           0x005959c0      c1ae0012       and.l d0, 0x12(a6)
           0x005959c4      203ad6aa       move.l 0x593070(pc), d0
           0x005959c8      4680           not.l d0
           0x005959ca      c1ae0016       and.l d0, 0x16(a6)
           0x005959ce      554f           subq.w 0x2, a7
           0x005959d0      1f04           move.b d4, -(a7)
           0x005959d2      4eb900598cca   jsr K01_DEBUG.k01_debug
           0x005959d8      544f           addq.w 0x2, a7
           0x005959da      4a1f           tst.b (a7)+
       < 0x005959dc      6742           beq.b 0x595a20
          0x005959de      9ec6           suba.w d6, a7
          0x005959e0      2f2effde       move.l -0x22(a6), -(a7)
          0x005959e4      48780000       pea.l 0x0
          0x005959e8      4eb90044dd86   jsr SYSTEM_STRING.point_str
          0x005959ee      504f           addq.w 0x8, a7
          0x005959f0      487ad683       pea.l 0x593075(pc)
          0x005959f4      48780007       pea.l 0x7
          0x005959f8      2f17           move.l (a7), -(a7)
          0x005959fa      4eb9004047ea   jsr p_wts_o
          0x00595a00      dec3           adda.w d3, a7
          0x00595a02      486f0001       pea.l 0x1(a7)
          0x00595a06      42a7           clr.l -(a7)
          0x00595a08      1f6f00080003   move.b 0x8(a7), 0x3(a7)
          0x00595a0e      2f17           move.l (a7), -(a7)
          0x00595a10      4eb9004047ea   jsr p_wts_o
          0x00595a16      defc010c       adda.w 0x10c, a7
          0x00595a1a      4eb900404946   jsr p_wtln_o
       > 0x00595a20      206effda       movea.l -0x26(a6), a0
           0x00595a24      b0c2           cmpa.w d2, a0
       < 0x00595a26      6610           bne.b 0x595a38
          0x00595a28      1d7ad653ffd4   move.b 0x59307d(pc), -0x2c(a6)
          0x00595a2e      1d7ad64effd5   move.b 0x59307e(pc), -0x2b(a6)
      < 0x00595a34      600004cc       bra.w 0x595f02
      > 0x00595a38      1f02           move.b d2, -(a7)
          0x00595a3a      4eb9005a085c   jsr K03_DISKLIST.k03_lock_vol_ga
          0x00595a40      554f           subq.w 0x2, a7
          0x00595a42      4eb9005a032e   jsr K03_DISKLIST.k03_vol_list_he
          0x00595a48      285f           movea.l (a7)+, a4
          0x00595a4a      3642           movea.w d2, a3
          0x00595a4c      2d42ffec       move.l d2, -0x14(a6)
      > 0x00595a50      b8c2           cmpa.w d2, a4
     < 0x00595a52      67000206       beq.w 0x595c5a
        0x00595a56      554f           subq.w 0x2, a7
        0x00595a58      2f0c           move.l a4, -(a7)
        0x00595a5a      2f2e0016       move.l 0x16(a6), -(a7)
        0x00595a5e      2f2e0012       move.l 0x12(a6), -(a7)
        0x00595a62      2f2e000e       move.l 0xe(a6), -(a7)
        0x00595a66      2f2e000a       move.l 0xa(a6), -(a7)
        0x00595a6a      4eb9005a0098   jsr K03_DISKLIST.k03_check_vol
        0x00595a70      defc0014       adda.w 0x14, a7
        0x00595a74      4a1f           tst.b (a7)+
    < 0x00595a76      670001d2       beq.w 0x595c4a
       0x00595a7a      b9ecfffc       cmpa.l -0x4(a4), a4
   < 0x00595a7e      6702           beq.b 0x595a82
      0x00595a80      4e4d           trap 0xd
   > 0x00595a82      082c0024001e   btst.b 0x24, 0x1e(a4)
   < 0x00595a88      6708           beq.b 0x595a92
      0x00595a8a      082c0004001a   btst.b 0x4, 0x1a(a4)
  < 0x00595a90      6608           bne.b 0x595a9a
  > 0x00595a92      3d7ad5ecffd0   move.w 0x593080(pc), -0x30(a6)
  < 0x00595a98      600c           bra.b 0x595aa6
  > 0x00595a9a      1d7ad5e7ffd0   move.b 0x593083(pc), -0x30(a6)
      0x00595aa0      1d7ad5e2ffd1   move.b 0x593084(pc), -0x2f(a6)
   > 0x00595aa6      554f           subq.w 0x2, a7
       0x00595aa8      1f04           move.b d4, -(a7)
       0x00595aaa      4eb900598cca   jsr K01_DEBUG.k01_debug
       0x00595ab0      544f           addq.w 0x2, a7
       0x00595ab2      4a1f           tst.b (a7)+
   < 0x00595ab4      672a           beq.b 0x595ae0
      0x00595ab6      487ad5ce       pea.l 0x593086(pc)
      0x00595aba      48780018       pea.l 0x18
      0x00595abe      2f17           move.l (a7), -(a7)
      0x00595ac0      4eb9004047ea   jsr p_wts_o
      0x00595ac6      dec3           adda.w d3, a7
      0x00595ac8      486effd0       pea.l -0x30(a6)
      0x00595acc      48780002       pea.l 0x2
      0x00595ad0      2f17           move.l (a7), -(a7)
      0x00595ad2      4eb9004047ea   jsr p_wts_o
      0x00595ad8      dec3           adda.w d3, a7
      0x00595ada      4eb900404946   jsr p_wtln_o
   > 0x00595ae0      3d6effd0ffd2   move.w -0x30(a6), -0x2e(a6)
       0x00595ae6      102effd0       move.b -0x30(a6), d0
       0x00595aea      b03ad5b3       cmp.b 0x59309f(pc), d0
   < 0x00595aee      6608           bne.b 0x595af8
      0x00595af0      102effd1       move.b -0x2f(a6), d0
      0x00595af4      b03ad5aa       cmp.b 0x5930a0(pc), d0
  > 0x00595af8      662e           bne.b 0x595b28
      0x00595afa      554f           subq.w 0x2, a7
      0x00595afc      3f2e0008       move.w 0x8(a6), -(a7)
      0x00595b00      206e001a       movea.l 0x1a(a6), a0
      0x00595b04      1f280051       move.b 0x51(a0), -(a7)
      0x00595b08      2f2c000e       move.l 0xe(a4), -(a7)
      0x00595b0c      514f           subq.w 0x8, a7
      0x00595b0e      204f           movea.l a7, a0
      0x00595b10      43ec001a       lea.l 0x1a(a4), a1
      0x00595b14      7007           moveq 0x7, d0
  > 0x00595b16      10d9           move.b (a1)+, (a0)+
  < 0x00595b18      51c8fffc       dbra d0, 0x595b16
      0x00595b1c      4ebaf35c       jsr K0_DISKMGR.check_number(pc)
      0x00595b20      defc0010       adda.w 0x10, a7
      0x00595b24      3d5fffd2       move.w (a7)+, -0x2e(a6)
  > 0x00595b28      554f           subq.w 0x2, a7
       0x00595b2a      1f04           move.b d4, -(a7)
       0x00595b2c      4eb900598cca   jsr K01_DEBUG.k01_debug
       0x00595b32      544f           addq.w 0x2, a7
       0x00595b34      4a1f           tst.b (a7)+
   < 0x00595b36      672a           beq.b 0x595b62
      0x00595b38      487ad568       pea.l 0x5930a2(pc)
      0x00595b3c      4878001a       pea.l 0x1a
      0x00595b40      2f17           move.l (a7), -(a7)
      0x00595b42      4eb9004047ea   jsr p_wts_o
      0x00595b48      dec3           adda.w d3, a7
      0x00595b4a      486effd2       pea.l -0x2e(a6)
      0x00595b4e      48780002       pea.l 0x2
      0x00595b52      2f17           move.l (a7), -(a7)
      0x00595b54      4eb9004047ea   jsr p_wts_o
      0x00595b5a      dec3           adda.w d3, a7
      0x00595b5c      4eb900404946   jsr p_wtln_o
   > 0x00595b62      554f           subq.w 0x2, a7
       0x00595b64      102c000c       move.b 0xc(a4), d0
       0x00595b68      4880           ext.w d0
       0x00595b6a      4185           chk.w d5, d0
       0x00595b6c      1f00           move.b d0, -(a7)
       0x00595b6e      2f2c000e       move.l 0xe(a4), -(a7)
       0x00595b72      486efff8       pea.l -0x8(a6)
       0x00595b76      486efffc       pea.l -0x4(a6)
       0x00595b7a      4eb9005ac374   jsr K1_AFS_ONLY.k1_space_used
       0x00595b80      defc000e       adda.w 0xe, a7
       0x00595b84      1017           move.b (a7), d0
       0x00595b86      b03ad535       cmp.b 0x5930bd(pc), d0
   < 0x00595b8a      6608           bne.b 0x595b94
      0x00595b8c      102f0001       move.b 0x1(a7), d0
      0x00595b90      b03ad52c       cmp.b 0x5930be(pc), d0
   > 0x00595b94      544f           addq.w 0x2, a7
       0x00595b96      302effd2       move.w -0x2e(a6), d0
       0x00595b9a      b07ad524       cmp.w 0x5930c0(pc), d0
   < 0x00595b9e      660000aa       bne.w 0x595c4a
      0x00595ba2      2d4bfff0       move.l a3, -0x10(a6)
      0x00595ba6      2d42fff4       move.l d2, -0xc(a6)
      0x00595baa      7e00           moveq 0x0, d7
  > 0x00595bac      206efff0       movea.l -0x10(a6), a0
     0x00595bb0      b0c2           cmpa.w d2, a0
 < 0x00595bb2      6604           bne.b 0x595bb8
    0x00595bb4      7e01           moveq 0x1, d7
 < 0x00595bb6      6018           bra.b 0x595bd0
 > 0x00595bb8      7000           moveq 0x0, d0
     0x00595bba      b1e8fffc       cmpa.l -0x4(a0), a0
 < 0x00595bbe      6702           beq.b 0x595bc2
    0x00595bc0      4e4d           trap 0xd
 > 0x00595bc2      22280004       move.l 0x4(a0), d1
     0x00595bc6      b2aefffc       cmp.l -0x4(a6), d1
 < 0x00595bca      6f02           ble.b 0x595bce
    0x00595bcc      5200           addq.b 0x1, d0
 > 0x00595bce      1e00           move.b d0, d7
 > 0x00595bd0      4a07           tst.b d7
 < 0x00595bd2      661c           bne.b 0x595bf0
    0x00595bd4      2d48fff4       move.l a0, -0xc(a6)
    0x00595bd8      b1e8fffc       cmpa.l -0x4(a0), a0
 < 0x00595bdc      6702           beq.b 0x595be0
    0x00595bde      4e4d           trap 0xd
 > 0x00595be0      2d680008fff0   move.l 0x8(a0), -0x10(a6)
    0x00595be6      226efff0       movea.l -0x10(a6), a1
    0x00595bea      b2c2           cmpa.w d2, a1
 < 0x00595bec      6602           bne.b 0x595bf0
    0x00595bee      7e01           moveq 0x1, d7
 > 0x00595bf0      4a07           tst.b d7
  < 0x00595bf2      67b8           beq.b 0x595bac
      0x00595bf4      486efff0       pea.l -0x10(a6)
      0x00595bf8      4878000c       pea.l 0xc
      0x00595bfc      4eb900403a92   jsr p_New
      0x00595c02      504f           addq.w 0x8, a7
      0x00595c04      206efff0       movea.l -0x10(a6), a0
      0x00595c08      b1e8fffc       cmpa.l -0x4(a0), a0
  < 0x00595c0c      6702           beq.b 0x595c10
     0x00595c0e      4e4d           trap 0xd
  > 0x00595c10      208c           move.l a4, (a0)
      0x00595c12      216efffc0004   move.l -0x4(a6), 0x4(a0)
      0x00595c18      226efff4       movea.l -0xc(a6), a1
      0x00595c1c      b2c2           cmpa.w d2, a1
  < 0x00595c1e      660a           bne.b 0x595c2a
     0x00595c20      214b0008       move.l a3, 0x8(a0)
     0x00595c24      266efff0       movea.l -0x10(a6), a3
 < 0x00595c28      6014           bra.b 0x595c3e
 > 0x00595c2a      b3e9fffc       cmpa.l -0x4(a1), a1
 < 0x00595c2e      6702           beq.b 0x595c32
    0x00595c30      4e4d           trap 0xd
 > 0x00595c32      216900080008   move.l 0x8(a1), 0x8(a0)
     0x00595c38      236efff00008   move.l -0x10(a6), 0x8(a1)
 > 0x00595c3e      b3eeffec       cmpa.l -0x14(a6), a1
  < 0x00595c42      6606           bne.b 0x595c4a
     0x00595c44      2d6efff0ffec   move.l -0x10(a6), -0x14(a6)
  > 0x00595c4a      b9ecfffc       cmpa.l -0x4(a4), a4
    < 0x00595c4e      6702           beq.b 0x595c52
       0x00595c50      4e4d           trap 0xd
    > 0x00595c52      286c0004       movea.l 0x4(a4), a4
     < 0x00595c56      6000fdf8       bra.w 0x595a50
     > 0x00595c5a      4227           clr.b -(a7)
          0x00595c5c      4eb9005a085c   jsr K03_DISKLIST.k03_lock_vol_ga
          0x00595c62      544f           addq.w 0x2, a7
          0x00595c64      2d4bfff0       move.l a3, -0x10(a6)
          0x00595c68      554f           subq.w 0x2, a7
          0x00595c6a      1f04           move.b d4, -(a7)
          0x00595c6c      4eb900598cca   jsr K01_DEBUG.k01_debug
          0x00595c72      544f           addq.w 0x2, a7
          0x00595c74      4a1f           tst.b (a7)+
      < 0x00595c76      675a           beq.b 0x595cd2
     > 0x00595c78      206efff0       movea.l -0x10(a6), a0
        0x00595c7c      b0c2           cmpa.w d2, a0
    < 0x00595c7e      6752           beq.b 0x595cd2
       0x00595c80      b1e8fffc       cmpa.l -0x4(a0), a0
   < 0x00595c84      6702           beq.b 0x595c88
      0x00595c86      4e4d           trap 0xd
   > 0x00595c88      2f280004       move.l 0x4(a0), -(a7)
       0x00595c8c      48780006       pea.l 0x6
       0x00595c90      4eb9004070e4   jsr p_wti_o
       0x00595c96      504f           addq.w 0x8, a7
       0x00595c98      487ad429       pea.l 0x5930c3(pc)
       0x00595c9c      48780004       pea.l 0x4
       0x00595ca0      2f17           move.l (a7), -(a7)
       0x00595ca2      4eb9004047ea   jsr p_wts_o
       0x00595ca8      dec3           adda.w d3, a7
       0x00595caa      2250           movea.l (a0), a1
       0x00595cac      b3e9fffc       cmpa.l -0x4(a1), a1
   < 0x00595cb0      6702           beq.b 0x595cb4
      0x00595cb2      4e4d           trap 0xd
   > 0x00595cb4      2f29000e       move.l 0xe(a1), -(a7)
       0x00595cb8      4878ffff       pea.l 0xffff
       0x00595cbc      4eb9004070e4   jsr p_wti_o
       0x00595cc2      504f           addq.w 0x8, a7
       0x00595cc4      4eb900404946   jsr p_wtln_o
       0x00595cca      2d680008fff0   move.l 0x8(a0), -0x10(a6)
    < 0x00595cd0      60a6           bra.b 0x595c78
    > 0x00595cd2      2d4bfff0       move.l a3, -0x10(a6)
          0x00595cd6      3d7ad3f0ffd4   move.w 0x5930c8(pc), -0x2c(a6)
          0x00595cdc      206e001a       movea.l 0x1a(a6), a0
          0x00595ce0      2f08           move.l a0, -(a7)
      > 0x00595ce2      2057           movea.l (a7), a0
         0x00595ce4      226efff0       movea.l -0x10(a6), a1
         0x00595ce8      b2c2           cmpa.w d2, a1
     < 0x00595cea      6606           bne.b 0x595cf2
        0x00595cec      584f           addq.w 0x4, a7
    < 0x00595cee      60000144       bra.w 0x595e34
    > 0x00595cf2      102effd4       move.b -0x2c(a6), d0
        0x00595cf6      b03ad3d3       cmp.b 0x5930cb(pc), d0
    < 0x00595cfa      6608           bne.b 0x595d04
       0x00595cfc      102effd5       move.b -0x2b(a6), d0
       0x00595d00      b03ad3ca       cmp.b 0x5930cc(pc), d0
   > 0x00595d04      6606           bne.b 0x595d0c
       0x00595d06      584f           addq.w 0x4, a7
   < 0x00595d08      6000012a       bra.w 0x595e34
   > 0x00595d0c      b3e9fffc       cmpa.l -0x4(a1), a1
   < 0x00595d10      6702           beq.b 0x595d14
      0x00595d12      4e4d           trap 0xd
   > 0x00595d14      2851           movea.l (a1), a4
       0x00595d16      246effda       movea.l -0x26(a6), a2
       0x00595d1a      b5eafffc       cmpa.l -0x4(a2), a2
   < 0x00595d1e      6702           beq.b 0x595d22
      0x00595d20      4e4d           trap 0xd
   > 0x00595d22      2f0a           move.l a2, -(a7)
       0x00595d24      b9ecfffc       cmpa.l -0x4(a4), a4
   < 0x00595d28      6702           beq.b 0x595d2c
      0x00595d2a      4e4d           trap 0xd
   > 0x00595d2c      256c000e0008   move.l 0xe(a4), 0x8(a2)
       0x00595d32      9efc0052       suba.w 0x52, a7
       0x00595d36      244f           movea.l a7, a2
       0x00595d38      7050           moveq 0x50, d0
   > 0x00595d3a      14d8           move.b (a0)+, (a2)+
   < 0x00595d3c      51c8fffc       dbra d0, 0x595d3a
       0x00595d40      554f           subq.w 0x2, a7
       0x00595d42      102c000c       move.b 0xc(a4), d0
       0x00595d46      4880           ext.w d0
       0x00595d48      4185           chk.w d5, d0
       0x00595d4a      1f00           move.b d0, -(a7)
       0x00595d4c      2f2c000e       move.l 0xe(a4), -(a7)
       0x00595d50      206f005a       movea.l 0x5a(a7), a0
       0x00595d54      48680008       pea.l 0x8(a0)
       0x00595d58      2f2e0024       move.l 0x24(a6), -(a7)
       0x00595d5c      2f2e0020       move.l 0x20(a6), -(a7)
       0x00595d60      3f2e001e       move.w 0x1e(a6), -(a7)
       0x00595d64      2f2effde       move.l -0x22(a6), -(a7)
       0x00595d68      9ec6           suba.w d6, a7
       0x00595d6a      486f011a       pea.l 0x11a(a7)
       0x00595d6e      4267           clr.w -(a7)
       0x00595d70      3f3c0050       move.w 0x50, -(a7)
       0x00595d74      4eb9005b057c   jsr K3_UTILS.k3_string
       0x00595d7a      504f           addq.w 0x8, a7
       0x00595d7c      206f0170       movea.l 0x170(a7), a0
       0x00595d80      1f280051       move.b 0x51(a0), -(a7)
       0x00595d84      206f0172       movea.l 0x172(a7), a0
       0x00595d88      3f280052       move.w 0x52(a0), -(a7)
       0x00595d8c      4eb9005ab984   jsr K1_AFS_ONLY.k1_create_file
       0x00595d92      defc011c       adda.w 0x11c, a7
       0x00595d96      301f           move.w (a7)+, d0
       0x00595d98      3d40ffd4       move.w d0, -0x2c(a6)
       0x00595d9c      3f00           move.w d0, -(a7)
       0x00595d9e      554f           subq.w 0x2, a7
       0x00595da0      1f04           move.b d4, -(a7)
       0x00595da2      4eb900598cca   jsr K01_DEBUG.k01_debug
       0x00595da8      544f           addq.w 0x2, a7
       0x00595daa      4a1f           tst.b (a7)+
   < 0x00595dac      6728           beq.b 0x595dd6
      0x00595dae      487ad31e       pea.l 0x5930ce(pc)
      0x00595db2      48780017       pea.l 0x17
      0x00595db6      2f17           move.l (a7), -(a7)
      0x00595db8      4eb9004047ea   jsr p_wts_o
      0x00595dbe      dec3           adda.w d3, a7
      0x00595dc0      4857           pea.l (a7)
      0x00595dc2      48780002       pea.l 0x2
      0x00595dc6      2f17           move.l (a7), -(a7)
      0x00595dc8      4eb9004047ea   jsr p_wts_o
      0x00595dce      dec3           adda.w d3, a7
      0x00595dd0      4eb900404946   jsr p_wtln_o
   > 0x00595dd6      b07ad30e       cmp.w 0x5930e6(pc), d0
   < 0x00595dda      6714           beq.b 0x595df0
      0x00595ddc      223ad30a       move.l 0x5930e8(pc), d1
      0x00595de0      4681           not.l d1
      0x00595de2      c3ac001a       and.l d1, 0x1a(a4)
      0x00595de6      223ad304       move.l 0x5930ec(pc), d1
      0x00595dea      4681           not.l d1
      0x00595dec      c3ac001e       and.l d1, 0x1e(a4)
   > 0x00595df0      204f           movea.l a7, a0
       0x00595df2      1010           move.b (a0), d0
       0x00595df4      b03ad2fb       cmp.b 0x5930f1(pc), d0
   < 0x00595df8      6608           bne.b 0x595e02
      0x00595dfa      10280001       move.b 0x1(a0), d0
      0x00595dfe      b03ad2f2       cmp.b 0x5930f2(pc), d0
  > 0x00595e02      6606           bne.b 0x595e0a
      0x00595e04      defc0058       adda.w 0x58, a7
  < 0x00595e08      6026           bra.b 0x595e30
  > 0x00595e0a      b2c2           cmpa.w d2, a1
  < 0x00595e0c      6606           bne.b 0x595e14
     0x00595e0e      defc0058       adda.w 0x58, a7
 < 0x00595e12      601c           bra.b 0x595e30
 > 0x00595e14      1f02           move.b d2, -(a7)
     0x00595e16      4eb9005a085c   jsr K03_DISKLIST.k03_lock_vol_ga
     0x00595e1c      544f           addq.w 0x2, a7
     0x00595e1e      2d690008fff0   move.l 0x8(a1), -0x10(a6)
     0x00595e24      4227           clr.b -(a7)
     0x00595e26      4eb9005a085c   jsr K03_DISKLIST.k03_lock_vol_ga
     0x00595e2c      defc005a       adda.w 0x5a, a7
 < 0x00595e30      6000feb0       bra.w 0x595ce2
    > 0x00595e34      302effd4       move.w -0x2c(a6), d0
          0x00595e38      b07ad2ba       cmp.w 0x5930f4(pc), d0
      < 0x00595e3c      672c           beq.b 0x595e6a
         0x00595e3e      486effda       pea.l -0x26(a6)
         0x00595e42      4ebae2aa       jsr K0_DISKMGR.disp_file(pc)
         0x00595e46      584f           addq.w 0x4, a7
         0x00595e48      206e0028       movea.l 0x28(a6), a0
         0x00595e4c      2082           move.l d2, (a0)
         0x00595e4e      102effd4       move.b -0x2c(a6), d0
         0x00595e52      b03ad2a3       cmp.b 0x5930f7(pc), d0
     < 0x00595e56      6608           bne.b 0x595e60
        0x00595e58      102effd5       move.b -0x2b(a6), d0
        0x00595e5c      b03ad29a       cmp.b 0x5930f8(pc), d0
    > 0x00595e60      6630           bne.b 0x595e92
        0x00595e62      3d7ad296ffd4   move.w 0x5930fa(pc), -0x2c(a6)
    < 0x00595e68      6028           bra.b 0x595e92
    > 0x00595e6a      206e0028       movea.l 0x28(a6), a0
        0x00595e6e      4850           pea.l (a0)
        0x00595e70      486effda       pea.l -0x26(a6)
        0x00595e74      b9ecfffc       cmpa.l -0x4(a4), a4
    < 0x00595e78      6702           beq.b 0x595e7c
       0x00595e7a      4e4d           trap 0xd
    > 0x00595e7c      102c000c       move.b 0xc(a4), d0
        0x00595e80      4880           ext.w d0
        0x00595e82      4185           chk.w d5, d0
        0x00595e84      1f00           move.b d0, -(a7)
        0x00595e86      486effd4       pea.l -0x2c(a6)
        0x00595e8a      4ebae982       jsr K0_DISKMGR.k0_inc_ref(pc)
        0x00595e8e      defc000e       adda.w 0xe, a7
    > 0x00595e92      b6c2           cmpa.w d2, a3
     < 0x00595e94      6722           beq.b 0x595eb8
        0x00595e96      2d4bfff0       move.l a3, -0x10(a6)
        0x00595e9a      b7ebfffc       cmpa.l -0x4(a3), a3
    < 0x00595e9e      6702           beq.b 0x595ea2
       0x00595ea0      4e4d           trap 0xd
    > 0x00595ea2      266b0008       movea.l 0x8(a3), a3
        0x00595ea6      486efff0       pea.l -0x10(a6)
        0x00595eaa      4878000c       pea.l 0xc
        0x00595eae      4eb900403b98   jsr p_Dispos
        0x00595eb4      504f           addq.w 0x8, a7
     < 0x00595eb6      60da           bra.b 0x595e92
     > 0x00595eb8      554f           subq.w 0x2, a7
          0x00595eba      1f3c001b       move.b 0x1b, -(a7)
          0x00595ebe      4eb900598cca   jsr K01_DEBUG.k01_debug
          0x00595ec4      544f           addq.w 0x2, a7
          0x00595ec6      4a1f           tst.b (a7)+
      < 0x00595ec8      6738           beq.b 0x595f02
         0x00595eca      487ad231       pea.l 0x5930fd(pc)
         0x00595ece      48780018       pea.l 0x18
         0x00595ed2      2f17           move.l (a7), -(a7)
         0x00595ed4      4eb9004047ea   jsr p_wts_o
         0x00595eda      dec3           adda.w d3, a7
         0x00595edc      206effda       movea.l -0x26(a6), a0
         0x00595ee0      b1e8fffc       cmpa.l -0x4(a0), a0
     < 0x00595ee4      6702           beq.b 0x595ee8
        0x00595ee6      4e4d           trap 0xd
     > 0x00595ee8      30280014       move.w 0x14(a0), d0
         0x00595eec      48c0           ext.l d0
         0x00595eee      2f00           move.l d0, -(a7)
         0x00595ef0      48780000       pea.l 0x0
         0x00595ef4      4eb9004070e4   jsr p_wti_o
         0x00595efa      504f           addq.w 0x8, a7
         0x00595efc      4eb900404946   jsr p_wtln_o
      > 0x00595f02      3d6effd4002c   move.w -0x2c(a6), 0x2c(a6)
           0x00595f08      4cdf1fff       movem.l (a7)+, d0-d7/a0-a4
           0x00595f0c      4e5e           unlk a6
           0x00595f0e      4e75           rts
            ; CALL XREF from K91_LIBOPS.do_save_logo @ 0x64fc38
            ; CALL XREF from K96_LIB2OPS.k96_crop_on_sav @ 0x66798a
 30: K0_DISKMGR.k_set_overridin ();
           0x00595f10      4e56fffc       link.w a6, 0xfffc
           0x00595f14      bfd5           cmpa.l (a5), a7
       < 0x00595f16      6206           bhi.b 0x595f1e
          0x00595f18      44fc0002       move.w 0x2, ccr
          0x00595f1c      4e76           trapv
       > 0x00595f1e      defc0004       adda.w 0x4, a7
           0x00595f22      23ee00080083.  move.l 0x8(a6), 0x83fcfa.l
           0x00595f2a      4e5e           unlk a6
           0x00595f2c      4e75           rts
            ; CALL XREF from K0_DISKMGR.k_start_search @ 0x596196
            ; CALL XREF from K0_DISKMGR.k_end_search @ 0x597336
 406: K0_DISKMGR.lose_search (int32_t arg_218h);
           ; var int32_t var_2e88h @ a6-0x2e88
           ; var int32_t var_2e83h @ a6-0x2e83
           ; var int32_t var_2h @ a6-0x2
           ; arg int32_t arg_218h @ a6+0x218
           0x00595f2e      4e56ffb2       link.w a6, 0xffb2
           0x00595f32      bfd5           cmpa.l (a5), a7
       < 0x00595f34      6206           bhi.b 0x595f3c
          0x00595f36      44fc0002       move.w 0x2, ccr
          0x00595f3a      4e76           trapv
       > 0x00595f3c      defc0048       adda.w 0x48, a7
           0x00595f40      48e7f0f8       movem.l d0-d3/a0-a4, -(a7)
           0x00595f44      49f9004047ea   lea.l p_wts_o, a4
           0x00595f4a      720c           moveq 0xc, d1
           0x00595f4c      740a           moveq 0xa, d2
           0x00595f4e      7601           moveq 0x1, d3
           0x00595f50      554f           subq.w 0x2, a7
           0x00595f52      1f02           move.b d2, -(a7)
           0x00595f54      4eb900598cca   jsr K01_DEBUG.k01_debug
           0x00595f5a      544f           addq.w 0x2, a7
           0x00595f5c      4a1f           tst.b (a7)+
       < 0x00595f5e      6714           beq.b 0x595f74
          0x00595f60      487ad1b4       pea.l 0x593116(pc)
          0x00595f64      4878000b       pea.l 0xb
          0x00595f68      2f17           move.l (a7), -(a7)
          0x00595f6a      4e94           jsr (a4)                    ; fcn.0000000d
          0x00595f6c      dec1           adda.w d1, a7
          0x00595f6e      4eb900404946   jsr p_wtln_o
       > 0x00595f74      206e0008       movea.l 0x8(a6), a0
       > 0x00595f78      2250           movea.l (a0), a1
          0x00595f7a      b3e9fffc       cmpa.l -0x4(a1), a1
      < 0x00595f7e      6702           beq.b 0x595f82
         0x00595f80      4e4d           trap 0xd
      > 0x00595f82      24690218       movea.l 0x218(a1), a2
          0x00595f86      b4c3           cmpa.w d3, a2
      < 0x00595f88      670000e4       beq.w 0x59606e
         0x00595f8c      554f           subq.w 0x2, a7
         0x00595f8e      1f02           move.b d2, -(a7)
         0x00595f90      4eb900598cca   jsr K01_DEBUG.k01_debug
         0x00595f96      544f           addq.w 0x2, a7
         0x00595f98      4a1f           tst.b (a7)+
     < 0x00595f9a      6714           beq.b 0x595fb0
        0x00595f9c      487ad184       pea.l 0x593122(pc)
        0x00595fa0      4878000c       pea.l 0xc
        0x00595fa4      2f17           move.l (a7), -(a7)
        0x00595fa6      4e94           jsr (a4)                    ; fcn.0000000d
        0x00595fa8      dec1           adda.w d1, a7
        0x00595faa      4eb900404946   jsr p_wtln_o
     > 0x00595fb0      1d7ad17dfffe   move.b 0x59312f(pc), -0x2(a6)
         0x00595fb6      1d7ad178ffff   move.b 0x593130(pc), -0x1(a6)
         0x00595fbc      24690218       movea.l 0x218(a1), a2
         0x00595fc0      b5eafffc       cmpa.l -0x4(a2), a2
     < 0x00595fc4      6702           beq.b 0x595fc8
        0x00595fc6      4e4d           trap 0xd
     > 0x00595fc8      266a000a       movea.l 0xa(a2), a3
         0x00595fcc      b6c3           cmpa.w d3, a3
     < 0x00595fce      6730           beq.b 0x596000
        0x00595fd0      554f           subq.w 0x2, a7
        0x00595fd2      102a0008       move.b 0x8(a2), d0
        0x00595fd6      4880           ext.w d0
        0x00595fd8      41bc0007       chk.w 0x7, d0
        0x00595fdc      1f00           move.b d0, -(a7)
        0x00595fde      2f2a0004       move.l 0x4(a2), -(a7)
        0x00595fe2      486a000a       pea.l 0xa(a2)
        0x00595fe6      48690014       pea.l 0x14(a1)
        0x00595fea      1f290114       move.b 0x114(a1), -(a7)
        0x00595fee      3f290116       move.w 0x116(a1), -(a7)
        0x00595ff2      4eb9005abb68   jsr K1_AFS_ONLY.k1_end_search
        0x00595ff8      defc0012       adda.w 0x12, a7
        0x00595ffc      3d5ffffe       move.w (a7)+, -0x2(a6)
     > 0x00596000      302efffe       move.w -0x2(a6), d0
         0x00596004      b07ad12c       cmp.w 0x593132(pc), d0
     < 0x00596008      6730           beq.b 0x59603a
        0x0059600a      487ad129       pea.l 0x593135(pc)
        0x0059600e      48780007       pea.l 0x7
        0x00596012      2f17           move.l (a7), -(a7)
        0x00596014      4e94           jsr (a4)                    ; fcn.0000000d
        0x00596016      dec1           adda.w d1, a7
        0x00596018      486efffe       pea.l -0x2(a6)
        0x0059601c      48780002       pea.l 0x2
        0x00596020      2f17           move.l (a7), -(a7)
        0x00596022      4e94           jsr (a4)                    ; fcn.0000000d
        0x00596024      dec1           adda.w d1, a7
        0x00596026      487ad115       pea.l 0x59313d(pc)
        0x0059602a      4878000f       pea.l 0xf
        0x0059602e      2f17           move.l (a7), -(a7)
        0x00596030      4e94           jsr (a4)                    ; fcn.0000000d
        0x00596032      dec1           adda.w d1, a7
        0x00596034      4eb900404946   jsr p_wtln_o
     > 0x0059603a      2450           movea.l (a0), a2
         0x0059603c      b5eafffc       cmpa.l -0x4(a2), a2
     < 0x00596040      6702           beq.b 0x596044
        0x00596042      4e4d           trap 0xd
     > 0x00596044      2d6a0218fffa   move.l 0x218(a2), -0x6(a6)
         0x0059604a      266a0218       movea.l 0x218(a2), a3
         0x0059604e      b7ebfffc       cmpa.l -0x4(a3), a3
     < 0x00596052      6702           beq.b 0x596056
        0x00596054      4e4d           trap 0xd
     > 0x00596056      25530218       move.l (a3), 0x218(a2)
         0x0059605a      486efffa       pea.l -0x6(a6)
         0x0059605e      48780012       pea.l 0x12
         0x00596062      4eb900403b98   jsr p_Dispos
         0x00596068      504f           addq.w 0x8, a7
      < 0x0059606a      6000ff0c       bra.w 0x595f78
      > 0x0059606e      12bad0dd       move.b 0x59314d(pc), (a1)
           0x00596072      137ad0da0001   move.b 0x59314e(pc), 0x1(a1)
           0x00596078      137ad0d50002   move.b 0x59314f(pc), 0x2(a1)
           0x0059607e      137ad0d00003   move.b 0x593150(pc), 0x3(a1)
           0x00596084      4850           pea.l (a0)
           0x00596086      4878021c       pea.l 0x21c
           0x0059608a      4eb900403b98   jsr p_Dispos
           0x00596090      504f           addq.w 0x8, a7
           0x00596092      3d6efffe000c   move.w -0x2(a6), 0xc(a6)
           0x00596098      554f           subq.w 0x2, a7
           0x0059609a      1f02           move.b d2, -(a7)
           0x0059609c      4eb900598cca   jsr K01_DEBUG.k01_debug
           0x005960a2      544f           addq.w 0x2, a7
           0x005960a4      4a1f           tst.b (a7)+
       < 0x005960a6      6714           beq.b 0x5960bc
          0x005960a8      487ad0a8       pea.l 0x593152(pc)
          0x005960ac      48780013       pea.l 0x13
          0x005960b0      2f17           move.l (a7), -(a7)
          0x005960b2      4e94           jsr (a4)                    ; fcn.0000000d
          0x005960b4      dec1           adda.w d1, a7
          0x005960b6      4eb900404946   jsr p_wtln_o
       > 0x005960bc      4cdf1f0f       movem.l (a7)+, d0-d3/a0-a4
           0x005960c0      4e5e           unlk a6
           0x005960c2      4e75           rts
            ; XREFS: CALL 0x004a8b52  CALL 0x004ab54c  CALL 0x004c08c8  
            ; XREFS: CALL 0x004faa6a  CALL 0x005b2888  CALL 0x005b2a40  
            ; XREFS: CALL 0x005b513e  CALL 0x0068b476  
 1144: K0_DISKMGR.k_start_search ();
           ; var int32_t var_3182h @ a6-0x3182
           ; var int32_t var_311ch @ a6-0x311c
           ; var int32_t var_2ffah @ a6-0x2ffa
           ; var int32_t var_8h @ a7+0x8
           0x005960c4      4e56fe4e       link.w a6, 0xfe4e
           0x005960c8      bfd5           cmpa.l (a5), a7
       < 0x005960ca      6206           bhi.b 0x5960d2
          0x005960cc      44fc0002       move.w 0x2, ccr
          0x005960d0      4e76           trapv
       > 0x005960d2      defc01a2       adda.w 0x1a2, a7
           0x005960d6      48e7fff8       movem.l d0-d7/a0-a4, -(a7)
           0x005960da      47eefff4       lea.l -0xc(a6), a3
           0x005960de      7201           moveq 0x1, d1
           0x005960e0      740c           moveq 0xc, d2
           0x005960e2      760b           moveq 0xb, d3
           0x005960e4      7852           moveq 0x52, d4
           0x005960e6      3a3c0100       move.w 0x100, d5
           0x005960ea      7c50           moveq 0x50, d6
           0x005960ec      554f           subq.w 0x2, a7
           0x005960ee      1f03           move.b d3, -(a7)
           0x005960f0      4eb900598cca   jsr K01_DEBUG.k01_debug
           0x005960f6      544f           addq.w 0x2, a7
           0x005960f8      4a1f           tst.b (a7)+
       < 0x005960fa      6748           beq.b 0x596144
          0x005960fc      9ec5           suba.w d5, a7
          0x005960fe      41ee0070       lea.l 0x70(a6), a0
          0x00596102      7014           moveq 0x14, d0
      > 0x00596104      2f20           move.l -(a0), -(a7)
      < 0x00596106      51c8fffc       dbra d0, 0x596104
          0x0059610a      4eb9005b0828   jsr K3_UTILS.k3_fname_str
          0x00596110      defc0054       adda.w 0x54, a7
          0x00596114      487ad050       pea.l 0x593166(pc)
          0x00596118      48780013       pea.l 0x13
          0x0059611c      2f17           move.l (a7), -(a7)
          0x0059611e      4eb9004047ea   jsr p_wts_o
          0x00596124      dec2           adda.w d2, a7
          0x00596126      486f0001       pea.l 0x1(a7)
          0x0059612a      42a7           clr.l -(a7)
          0x0059612c      1f6f00080003   move.b 0x8(a7), 0x3(a7)
          0x00596132      2f17           move.l (a7), -(a7)
          0x00596134      4eb9004047ea   jsr p_wts_o
          0x0059613a      defc010c       adda.w 0x10c, a7
          0x0059613e      4eb900404946   jsr p_wtln_o
       > 0x00596144      36bad034       move.w 0x59317a(pc), (a3)
           0x00596148      206e0008       movea.l 0x8(a6), a0
           0x0059614c      2250           movea.l (a0), a1
           0x0059614e      b2c1           cmpa.w d1, a1
       < 0x00596150      674c           beq.b 0x59619e
          0x00596152      487ad029       pea.l 0x59317d(pc)
          0x00596156      4878002a       pea.l 0x2a
          0x0059615a      2f17           move.l (a7), -(a7)
          0x0059615c      4eb9004047ea   jsr p_wts_o
          0x00596162      dec2           adda.w d2, a7
          0x00596164      4eb900404946   jsr p_wtln_o
          0x0059616a      487ad03c       pea.l 0x5931a8(pc)
          0x0059616e      48780014       pea.l 0x14
          0x00596172      2f17           move.l (a7), -(a7)
          0x00596174      4eb9004047ea   jsr p_wts_o
          0x0059617a      dec2           adda.w d2, a7
          0x0059617c      4eb900404946   jsr p_wtln_o
          0x00596182      594f           subq.w 0x4, a7
          0x00596184      4850           pea.l (a0)
          0x00596186      4ebadc02       jsr K0_DISKMGR.gen_search_ptr(pc)
          0x0059618a      584f           addq.w 0x4, a7
          0x0059618c      2d57fff0       move.l (a7), -0x10(a6)
          0x00596190      544f           addq.w 0x2, a7
          0x00596192      486efff0       pea.l -0x10(a6)
          0x00596196      4ebafd96       jsr K0_DISKMGR.lose_search(pc)
          0x0059619a      584f           addq.w 0x4, a7
          0x0059619c      369f           move.w (a7)+, (a3)
       > 0x0059619e      486efff0       pea.l -0x10(a6)
           0x005961a2      4878021c       pea.l 0x21c
           0x005961a6      4eb900403a92   jsr p_New
           0x005961ac      504f           addq.w 0x8, a7
           0x005961ae      206efff0       movea.l -0x10(a6), a0
           0x005961b2      b0c1           cmpa.w d1, a0
       < 0x005961b4      6622           bne.b 0x5961d8
          0x005961b6      487ad005       pea.l 0x5931bd(pc)
          0x005961ba      4878001b       pea.l 0x1b
          0x005961be      2f17           move.l (a7), -(a7)
          0x005961c0      4eb9004047ea   jsr p_wts_o
          0x005961c6      dec2           adda.w d2, a7
          0x005961c8      4eb900404946   jsr p_wtln_o
          0x005961ce      16bad009       move.b 0x5931d9(pc), (a3)
          0x005961d2      1d7ad006fff5   move.b 0x5931da(pc), -0xb(a6)
       > 0x005961d8      3013           move.w (a3), d0
           0x005961da      b07ad000       cmp.w 0x5931dc(pc), d0
       < 0x005961de      660000bc       bne.w 0x59629c
          0x005961e2      b1e8fffc       cmpa.l -0x4(a0), a0
      < 0x005961e6      6702           beq.b 0x5961ea
         0x005961e8      4e4d           trap 0xd
      > 0x005961ea      10bacff3       move.b 0x5931df(pc), (a0)
          0x005961ee      117acff00001   move.b 0x5931e0(pc), 0x1(a0)
          0x005961f4      117acfeb0002   move.b 0x5931e1(pc), 0x2(a0)
          0x005961fa      117acfe60003   move.b 0x5931e2(pc), 0x3(a0)
          0x00596200      216e00140004   move.l 0x14(a6), 0x4(a0)
          0x00596206      216e00180008   move.l 0x18(a6), 0x8(a0)
          0x0059620c      216e000c000c   move.l 0xc(a6), 0xc(a0)
          0x00596212      216e00100010   move.l 0x10(a6), 0x10(a0)
          0x00596218      9ec4           suba.w d4, a7
          0x0059621a      224f           movea.l a7, a1
          0x0059621c      45ee001c       lea.l 0x1c(a6), a2
          0x00596220      7013           moveq 0x13, d0
      > 0x00596222      22da           move.l (a2)+, (a1)+
      < 0x00596224      51c8fffc       dbra d0, 0x596222
          0x00596228      12da           move.b (a2)+, (a1)+
          0x0059622a      9ec5           suba.w d5, a7
          0x0059622c      486f0100       pea.l 0x100(a7)
          0x00596230      4267           clr.w -(a7)
          0x00596232      3f06           move.w d6, -(a7)
          0x00596234      4eb9005b057c   jsr K3_UTILS.k3_string
          0x0059623a      504f           addq.w 0x8, a7
          0x0059623c      43e80014       lea.l 0x14(a0), a1
          0x00596240      244f           movea.l a7, a2
          0x00596242      303c00ff       move.w 0xff, d0
      > 0x00596246      12da           move.b (a2)+, (a1)+
      < 0x00596248      51c8fffc       dbra d0, 0x596246
          0x0059624c      defc0152       adda.w 0x152, a7
          0x00596250      116e006d0114   move.b 0x6d(a6), 0x114(a0)
          0x00596256      316e006e0116   move.w 0x6e(a6), 0x116(a0)
          0x0059625c      486e001c       pea.l 0x1c(a6)
          0x00596260      48680118       pea.l 0x118(a0)
          0x00596264      4eb90047410a   jsr DKPAS.dk_encode_title
          0x0059626a      504f           addq.w 0x8, a7
          0x0059626c      48680218       pea.l 0x218(a0)
          0x00596270      48780012       pea.l 0x12
          0x00596274      4eb900403a92   jsr p_New
          0x0059627a      504f           addq.w 0x8, a7
          0x0059627c      22680218       movea.l 0x218(a0), a1
          0x00596280      b3e9fffc       cmpa.l -0x4(a1), a1
      < 0x00596284      6702           beq.b 0x596288
         0x00596286      4e4d           trap 0xd
      > 0x00596288      13410009       move.b d1, 0x9(a1)
          0x0059628c      2281           move.l d1, (a1)
          0x0059628e      2341000a       move.l d1, 0xa(a1)
          0x00596292      594f           subq.w 0x4, a7
          0x00596294      4eb9005a032e   jsr K03_DISKLIST.k03_vol_list_he
          0x0059629a      285f           movea.l (a7)+, a4
       > 0x0059629c      3013           move.w (a3), d0
           0x0059629e      b07acf44       cmp.w 0x5931e4(pc), d0
       < 0x005962a2      66000212       bne.w 0x5964b6
      > 0x005962a6      1f01           move.b d1, -(a7)
         0x005962a8      4eb9005a085c   jsr K03_DISKLIST.k03_lock_vol_ga
         0x005962ae      544f           addq.w 0x2, a7
         0x005962b0      7e00           moveq 0x0, d7
     > 0x005962b2      4a07           tst.b d7
    < 0x005962b4      663a           bne.b 0x5962f0
       0x005962b6      b8c1           cmpa.w d1, a4
   < 0x005962b8      6736           beq.b 0x5962f0
      0x005962ba      554f           subq.w 0x2, a7
      0x005962bc      2f0c           move.l a4, -(a7)
      0x005962be      2f2e0018       move.l 0x18(a6), -(a7)
      0x005962c2      2f2e0014       move.l 0x14(a6), -(a7)
      0x005962c6      2f2e0010       move.l 0x10(a6), -(a7)
      0x005962ca      2f2e000c       move.l 0xc(a6), -(a7)
      0x005962ce      4eb9005a0098   jsr K03_DISKLIST.k03_check_vol
      0x005962d4      defc0014       adda.w 0x14, a7
      0x005962d8      101f           move.b (a7)+, d0
      0x005962da      4880           ext.w d0
      0x005962dc      4181           chk.w d1, d0
      0x005962de      1e00           move.b d0, d7
  < 0x005962e0      660c           bne.b 0x5962ee
     0x005962e2      b9ecfffc       cmpa.l -0x4(a4), a4
 < 0x005962e6      6702           beq.b 0x5962ea
    0x005962e8      4e4d           trap 0xd
 > 0x005962ea      286c0004       movea.l 0x4(a4), a4
  < 0x005962ee      60c2           bra.b 0x5962b2
   > 0x005962f0      4227           clr.b -(a7)
         0x005962f2      4eb9005a085c   jsr K03_DISKLIST.k03_lock_vol_ga
         0x005962f8      544f           addq.w 0x2, a7
         0x005962fa      4a07           tst.b d7
     < 0x005962fc      670c           beq.b 0x59630a
        0x005962fe      16bacee7       move.b 0x5931e7(pc), (a3)
        0x00596302      1d7acee4fff5   move.b 0x5931e8(pc), -0xb(a6)
    < 0x00596308      6004           bra.b 0x59630e
    > 0x0059630a      36bacede       move.w 0x5931ea(pc), (a3)
    > 0x0059630e      1013           move.b (a3), d0
         0x00596310      b03acedb       cmp.b 0x5931ed(pc), d0
     < 0x00596314      6608           bne.b 0x59631e
        0x00596316      102efff5       move.b -0xb(a6), d0
        0x0059631a      b03aced2       cmp.b 0x5931ee(pc), d0
    > 0x0059631e      6634           bne.b 0x596354
        0x00596320      206efff0       movea.l -0x10(a6), a0
        0x00596324      b1e8fffc       cmpa.l -0x4(a0), a0
    < 0x00596328      6702           beq.b 0x59632c
       0x0059632a      4e4d           trap 0xd
    > 0x0059632c      20680218       movea.l 0x218(a0), a0
        0x00596330      b1e8fffc       cmpa.l -0x4(a0), a0
    < 0x00596334      6702           beq.b 0x596338
       0x00596336      4e4d           trap 0xd
    > 0x00596338      b9ecfffc       cmpa.l -0x4(a4), a4
    < 0x0059633c      6702           beq.b 0x596340
       0x0059633e      4e4d           trap 0xd
    > 0x00596340      216c000e0004   move.l 0xe(a4), 0x4(a0)
        0x00596346      102c000c       move.b 0xc(a4), d0
        0x0059634a      4880           ext.w d0
        0x0059634c      41bc0007       chk.w 0x7, d0
        0x00596350      11400008       move.b d0, 0x8(a0)
    > 0x00596354      554f           subq.w 0x2, a7
         0x00596356      1f03           move.b d3, -(a7)
         0x00596358      4eb900598cca   jsr K01_DEBUG.k01_debug
         0x0059635e      544f           addq.w 0x2, a7
         0x00596360      4a1f           tst.b (a7)+
     < 0x00596362      6728           beq.b 0x59638c
        0x00596364      487ace8a       pea.l 0x5931f0(pc)
        0x00596368      48780033       pea.l 0x33
        0x0059636c      2f17           move.l (a7), -(a7)
        0x0059636e      4eb9004047ea   jsr p_wts_o
        0x00596374      dec2           adda.w d2, a7
        0x00596376      4853           pea.l (a3)
        0x00596378      48780002       pea.l 0x2
        0x0059637c      2f17           move.l (a7), -(a7)
        0x0059637e      4eb9004047ea   jsr p_wts_o
        0x00596384      dec2           adda.w d2, a7
        0x00596386      4eb900404946   jsr p_wtln_o
     > 0x0059638c      3013           move.w (a3), d0
         0x0059638e      b07ace94       cmp.w 0x593224(pc), d0
     < 0x00596392      6620           bne.b 0x5963b4
        0x00596394      b9ecfffc       cmpa.l -0x4(a4), a4
    < 0x00596398      6702           beq.b 0x59639c
       0x0059639a      4e4d           trap 0xd
    > 0x0059639c      082c0004001a   btst.b 0x4, 0x1a(a4)
    < 0x005963a2      670c           beq.b 0x5963b0
       0x005963a4      16bace81       move.b 0x593227(pc), (a3)
       0x005963a8      1d7ace7efff5   move.b 0x593228(pc), -0xb(a6)
   < 0x005963ae      6004           bra.b 0x5963b4
   > 0x005963b0      36bace78       move.w 0x59322a(pc), (a3)
   > 0x005963b4      554f           subq.w 0x2, a7
         0x005963b6      1f03           move.b d3, -(a7)
         0x005963b8      4eb900598cca   jsr K01_DEBUG.k01_debug
         0x005963be      544f           addq.w 0x2, a7
         0x005963c0      4a1f           tst.b (a7)+
     < 0x005963c2      6728           beq.b 0x5963ec
        0x005963c4      487ace67       pea.l 0x59322d(pc)
        0x005963c8      48780034       pea.l 0x34
        0x005963cc      2f17           move.l (a7), -(a7)
        0x005963ce      4eb9004047ea   jsr p_wts_o
        0x005963d4      dec2           adda.w d2, a7
        0x005963d6      4853           pea.l (a3)
        0x005963d8      48780002       pea.l 0x2
        0x005963dc      2f17           move.l (a7), -(a7)
        0x005963de      4eb9004047ea   jsr p_wts_o
        0x005963e4      dec2           adda.w d2, a7
        0x005963e6      4eb900404946   jsr p_wtln_o
     > 0x005963ec      3013           move.w (a3), d0
         0x005963ee      b07ace72       cmp.w 0x593262(pc), d0
     < 0x005963f2      666c           bne.b 0x596460
        0x005963f4      206efff0       movea.l -0x10(a6), a0
        0x005963f8      b1e8fffc       cmpa.l -0x4(a0), a0
    < 0x005963fc      6702           beq.b 0x596400
       0x005963fe      4e4d           trap 0xd
    > 0x00596400      20680218       movea.l 0x218(a0), a0
        0x00596404      b1e8fffc       cmpa.l -0x4(a0), a0
    < 0x00596408      6702           beq.b 0x59640c
       0x0059640a      4e4d           trap 0xd
    > 0x0059640c      9ec4           suba.w d4, a7
        0x0059640e      224f           movea.l a7, a1
        0x00596410      45ee001c       lea.l 0x1c(a6), a2
        0x00596414      7013           moveq 0x13, d0
    > 0x00596416      22da           move.l (a2)+, (a1)+
    < 0x00596418      51c8fffc       dbra d0, 0x596416
        0x0059641c      12da           move.b (a2)+, (a1)+
        0x0059641e      554f           subq.w 0x2, a7
        0x00596420      10280008       move.b 0x8(a0), d0
        0x00596424      4880           ext.w d0
        0x00596426      41bc0007       chk.w 0x7, d0
        0x0059642a      1f00           move.b d0, -(a7)
        0x0059642c      2f280004       move.l 0x4(a0), -(a7)
        0x00596430      9ec5           suba.w d5, a7
        0x00596432      486f0108       pea.l 0x108(a7)
        0x00596436      4267           clr.w -(a7)
        0x00596438      3f06           move.w d6, -(a7)
        0x0059643a      4eb9005b057c   jsr K3_UTILS.k3_string
        0x00596440      5c4f           addq.w 0x6, a7
        0x00596442      1eae006d       move.b 0x6d(a6), (a7)
        0x00596446      3f2e006e       move.w 0x6e(a6), -(a7)
        0x0059644a      4868000a       pea.l 0xa(a0)
        0x0059644e      4868000e       pea.l 0xe(a0)
        0x00596452      4eb9005aba36   jsr K1_AFS_ONLY.k1_start_search
        0x00596458      defc0112       adda.w 0x112, a7
        0x0059645c      369f           move.w (a7)+, (a3)
        0x0059645e      dec4           adda.w d4, a7
     > 0x00596460      1013           move.b (a3), d0
         0x00596462      b03ace01       cmp.b 0x593265(pc), d0
     < 0x00596466      6608           bne.b 0x596470
        0x00596468      102efff5       move.b -0xb(a6), d0
        0x0059646c      b03acdf8       cmp.b 0x593266(pc), d0
    > 0x00596470      6728           beq.b 0x59649a
        0x00596472      3013           move.w (a3), d0
        0x00596474      b07acdf2       cmp.w 0x593268(pc), d0
    < 0x00596478      6720           beq.b 0x59649a
       0x0059647a      1f01           move.b d1, -(a7)
       0x0059647c      4eb9005a085c   jsr K03_DISKLIST.k03_lock_vol_ga
       0x00596482      544f           addq.w 0x2, a7
       0x00596484      b9ecfffc       cmpa.l -0x4(a4), a4
   < 0x00596488      6702           beq.b 0x59648c
      0x0059648a      4e4d           trap 0xd
   > 0x0059648c      286c0004       movea.l 0x4(a4), a4
       0x00596490      4227           clr.b -(a7)
       0x00596492      4eb9005a085c   jsr K03_DISKLIST.k03_lock_vol_ga
       0x00596498      544f           addq.w 0x2, a7
    > 0x0059649a      1013           move.b (a3), d0
         0x0059649c      b03acdcd       cmp.b 0x59326b(pc), d0
     < 0x005964a0      6608           bne.b 0x5964aa
        0x005964a2      102efff5       move.b -0xb(a6), d0
        0x005964a6      b03acdc4       cmp.b 0x59326c(pc), d0
    > 0x005964aa      670a           beq.b 0x5964b6
        0x005964ac      3013           move.w (a3), d0
        0x005964ae      b07acdbe       cmp.w 0x59326e(pc), d0
     < 0x005964b2      6600fdf2       bne.w 0x5962a6
    > 0x005964b6      1013           move.b (a3), d0
           0x005964b8      b03acdb7       cmp.b 0x593271(pc), d0
       < 0x005964bc      6608           bne.b 0x5964c6
          0x005964be      102efff5       move.b -0xb(a6), d0
          0x005964c2      b03acdae       cmp.b 0x593272(pc), d0
      > 0x005964c6      6760           beq.b 0x596528
      > 0x005964c8      206efff0       movea.l -0x10(a6), a0
         0x005964cc      b1e8fffc       cmpa.l -0x4(a0), a0
     < 0x005964d0      6702           beq.b 0x5964d4
        0x005964d2      4e4d           trap 0xd
     > 0x005964d4      22680218       movea.l 0x218(a0), a1
         0x005964d8      b2c1           cmpa.w d1, a1
     < 0x005964da      6722           beq.b 0x5964fe
        0x005964dc      2d49fff6       move.l a1, -0xa(a6)
        0x005964e0      b3e9fffc       cmpa.l -0x4(a1), a1
    < 0x005964e4      6702           beq.b 0x5964e8
       0x005964e6      4e4d           trap 0xd
    > 0x005964e8      21510218       move.l (a1), 0x218(a0)
        0x005964ec      486efff6       pea.l -0xa(a6)
        0x005964f0      48780012       pea.l 0x12
        0x005964f4      4eb900403b98   jsr p_Dispos
        0x005964fa      504f           addq.w 0x8, a7
     < 0x005964fc      60ca           bra.b 0x5964c8
     > 0x005964fe      10bacd74       move.b 0x593274(pc), (a0)
          0x00596502      117acd710001   move.b 0x593275(pc), 0x1(a0)
          0x00596508      117acd6c0002   move.b 0x593276(pc), 0x2(a0)
          0x0059650e      117acd670003   move.b 0x593277(pc), 0x3(a0)
          0x00596514      486efff0       pea.l -0x10(a6)
          0x00596518      4878021c       pea.l 0x21c
          0x0059651c      4eb900403b98   jsr p_Dispos
          0x00596522      504f           addq.w 0x8, a7
          0x00596524      2d41fff0       move.l d1, -0x10(a6)
      > 0x00596528      206e0008       movea.l 0x8(a6), a0
           0x0059652c      20aefff0       move.l -0x10(a6), (a0)
           0x00596530      3d530070       move.w (a3), 0x70(a6)
           0x00596534      4cdf1fff       movem.l (a7)+, d0-d7/a0-a4
           0x00596538      4e5e           unlk a6
           0x0059653a      4e75           rts
            ; XREFS: CALL 0x004a8b88  CALL 0x004ab57a  CALL 0x004c08da  
            ; XREFS: CALL 0x004fab02  CALL 0x005b28f8  CALL 0x005b2a94  
            ; XREFS: CALL 0x005b5172  CALL 0x005b51ea  CALL 0x0068b4dc  
 3484: K0_DISKMGR.k_find_next_fil ();
           ; var int32_t var_3c8ch @ a6-0x3c8c
           ; var int32_t var_3c87h @ a6-0x3c87
           ; var int32_t var_3b5ah @ a6-0x3b5a
           ; var int32_t var_3b55h @ a6-0x3b55
           ; var int32_t var_3a2ch @ a6-0x3a2c
           ; var int32_t var_3a27h @ a6-0x3a27
           ; var int32_t var_3a22h @ a6-0x3a22
           ; var int32_t var_394ah @ a6-0x394a
           ; var int32_t var_3944h @ a6-0x3944
           ; var int32_t var_393fh @ a6-0x393f
           ; var int32_t var_3800h @ a6-0x3800
           ; var int32_t var_37fah @ a6-0x37fa
           ; var int32_t var_37f5h @ a6-0x37f5
           ; var int32_t var_36aeh @ a6-0x36ae
           ; var int32_t var_35ach @ a6-0x35ac
           ; var int32_t var_35a7h @ a6-0x35a7
           ; var int32_t var_350ch @ a6-0x350c
           ; var int32_t var_3507h @ a6-0x3507
           ; var int32_t var_3502h @ a6-0x3502
           ; var int32_t var_3466h @ a6-0x3466
           ; var int32_t var_3426h @ a6-0x3426
           ; var int32_t var_3421h @ a6-0x3421
           ; var int32_t var_33b8h @ a6-0x33b8
           ; var int32_t var_33b3h @ a6-0x33b3
           ; var int32_t var_3322h @ a6-0x3322
           ; var int32_t var_331dh @ a6-0x331d
           ; var int32_t var_1eh @ a6-0x1e
           ; var int32_t var_1ch @ a6-0x1c
           ; var int32_t var_1h @ a7+0x1
           ; var int32_t var_2h @ a7+0x2
           ; var int32_t var_3h @ a7+0x3
           ; var int32_t var_8h @ a7+0x8
           0x0059653c      4e56fe92       link.w a6, 0xfe92
           0x00596540      bfd5           cmpa.l (a5), a7
       < 0x00596542      6206           bhi.b 0x59654a
          0x00596544      44fc0002       move.w 0x2, ccr
          0x00596548      4e76           trapv
       > 0x0059654a      defc0150       adda.w 0x150, a7
           0x0059654e      48e7fff8       movem.l d0-d7/a0-a4, -(a7)
           0x00596552      740c           moveq 0xc, d2
           0x00596554      7601           moveq 0x1, d3
           0x00596556      383c010c       move.w 0x10c, d4
           0x0059655a      7a0a           moveq 0xa, d5
           0x0059655c      7c07           moveq 0x7, d6
           0x0059655e      554f           subq.w 0x2, a7
           0x00596560      1f04           move.b d4, -(a7)
           0x00596562      4eb900598cca   jsr K01_DEBUG.k01_debug
           0x00596568      544f           addq.w 0x2, a7
           0x0059656a      4a1f           tst.b (a7)+
       < 0x0059656c      673e           beq.b 0x5965ac
          0x0059656e      487acd09       pea.l 0x593279(pc)
          0x00596572      48780017       pea.l 0x17
          0x00596576      2f17           move.l (a7), -(a7)
          0x00596578      4eb9004047ea   jsr p_wts_o
          0x0059657e      dec2           adda.w d2, a7
          0x00596580      206e000e       movea.l 0xe(a6), a0
          0x00596584      594f           subq.w 0x4, a7
          0x00596586      1e90           move.b (a0), (a7)
          0x00596588      1f6800010001   move.b 0x1(a0), 0x1(a7)
          0x0059658e      1f6800020002   move.b 0x2(a0), 0x2(a7)
          0x00596594      1f6800030003   move.b 0x3(a0), 0x3(a7)
          0x0059659a      4878ffff       pea.l 0xffff
          0x0059659e      4eb9004070e4   jsr p_wti_o
          0x005965a4      504f           addq.w 0x8, a7
          0x005965a6      4eb900404946   jsr p_wtln_o
       > 0x005965ac      1d7acce3ffe2   move.b 0x593291(pc), -0x1e(a6)
           0x005965b2      1d7accdeffe3   move.b 0x593292(pc), -0x1d(a6)
           0x005965b8      594f           subq.w 0x4, a7
           0x005965ba      206e000a       movea.l 0xa(a6), a0
           0x005965be      4850           pea.l (a0)
           0x005965c0      4ebad7c8       jsr K0_DISKMGR.gen_search_ptr(pc)
           0x005965c4      584f           addq.w 0x4, a7
           0x005965c6      2d57ffee       move.l (a7), -0x12(a6)
           0x005965ca      206e000e       movea.l 0xe(a6), a0
           0x005965ce      4850           pea.l (a0)
           0x005965d0      1f03           move.b d3, -(a7)
           0x005965d2      486effe2       pea.l -0x1e(a6)
           0x005965d6      4ebad5dc       jsr K0_DISKMGR.k0_gen_file_ptr(pc)
           0x005965da      dec5           adda.w d5, a7
           0x005965dc      2d5fffe6       move.l (a7)+, -0x1a(a6)
           0x005965e0      302effe2       move.w -0x1e(a6), d0
           0x005965e4      b07accae       cmp.w 0x593294(pc), d0
       < 0x005965e8      665e           bne.b 0x596648
          0x005965ea      554f           subq.w 0x2, a7
          0x005965ec      1f04           move.b d4, -(a7)
          0x005965ee      4eb900598cca   jsr K01_DEBUG.k01_debug
          0x005965f4      544f           addq.w 0x2, a7
          0x005965f6      4a1f           tst.b (a7)+
      < 0x005965f8      6718           beq.b 0x596612
         0x005965fa      487acc9b       pea.l 0x593297(pc)
         0x005965fe      48780029       pea.l 0x29
         0x00596602      2f17           move.l (a7), -(a7)
         0x00596604      4eb9004047ea   jsr p_wts_o
         0x0059660a      dec2           adda.w d2, a7
         0x0059660c      4eb900404946   jsr p_wtln_o
      > 0x00596612      206effee       movea.l -0x12(a6), a0
          0x00596616      b1e8fffc       cmpa.l -0x4(a0), a0
      < 0x0059661a      6702           beq.b 0x59661e
         0x0059661c      4e4d           trap 0xd
      > 0x0059661e      28680218       movea.l 0x218(a0), a4
      > 0x00596622      b9ecfffc       cmpa.l -0x4(a4), a4
     < 0x00596626      6702           beq.b 0x59662a
        0x00596628      4e4d           trap 0xd
     > 0x0059662a      206effe6       movea.l -0x1a(a6), a0
         0x0059662e      b1e8fffc       cmpa.l -0x4(a0), a0
     < 0x00596632      6702           beq.b 0x596636
        0x00596634      4e4d           trap 0xd
     > 0x00596636      202c0004       move.l 0x4(a4), d0
         0x0059663a      b0a80008       cmp.l 0x8(a0), d0
     < 0x0059663e      6704           beq.b 0x596644
        0x00596640      2854           movea.l (a4), a4
     < 0x00596642      60de           bra.b 0x596622
     > 0x00596644      19430009       move.b d3, 0x9(a4)
       > 0x00596648      206e000e       movea.l 0xe(a6), a0
           0x0059664c      554f           subq.w 0x2, a7
           0x0059664e      4850           pea.l (a0)
           0x00596650      486effe6       pea.l -0x1a(a6)
           0x00596654      4ebadc14       jsr K0_DISKMGR.k0_dec_ref(pc)
           0x00596658      504f           addq.w 0x8, a7
           0x0059665a      3d5fffe2       move.w (a7)+, -0x1e(a6)
           0x0059665e      4850           pea.l (a0)
           0x00596660      486effea       pea.l -0x16(a6)
           0x00596664      4ebad9da       jsr K0_DISKMGR.new_file(pc)
           0x00596668      504f           addq.w 0x8, a7
           0x0059666a      206effea       movea.l -0x16(a6), a0
           0x0059666e      b0c3           cmpa.w d3, a0
       < 0x00596670      6610           bne.b 0x596682
          0x00596672      1d7acc4dffe2   move.b 0x5932c1(pc), -0x1e(a6)
          0x00596678      1d7acc48ffe3   move.b 0x5932c2(pc), -0x1d(a6)
      < 0x0059667e      600000bc       bra.w 0x59673c
      > 0x00596682      226effe6       movea.l -0x1a(a6), a1
          0x00596686      b2c3           cmpa.w d3, a1
      < 0x00596688      6672           bne.b 0x5966fc
         0x0059668a      246effee       movea.l -0x12(a6), a2
         0x0059668e      b5eafffc       cmpa.l -0x4(a2), a2
     < 0x00596692      6702           beq.b 0x596696
        0x00596694      4e4d           trap 0xd
     > 0x00596696      2f0a           move.l a2, -(a7)
         0x00596698      594f           subq.w 0x4, a7
         0x0059669a      226a0218       movea.l 0x218(a2), a1
         0x0059669e      b3e9fffc       cmpa.l -0x4(a1), a1
     < 0x005966a2      6702           beq.b 0x5966a6
        0x005966a4      4e4d           trap 0xd
     > 0x005966a6      2f290004       move.l 0x4(a1), -(a7)
         0x005966aa      4eb9005a002a   jsr K03_DISKLIST.k03_get_vol_ptr
         0x005966b0      584f           addq.w 0x4, a7
         0x005966b2      2d5ffff2       move.l (a7)+, -0xe(a6)
         0x005966b6      b1e8fffc       cmpa.l -0x4(a0), a0
     < 0x005966ba      6702           beq.b 0x5966be
        0x005966bc      4e4d           trap 0xd
     > 0x005966be      43e80008       lea.l 0x8(a0), a1
         0x005966c2      45facc00       lea.l 0x5932c4(pc), a2
         0x005966c6      7009           moveq 0x9, d0
     > 0x005966c8      12da           move.b (a2)+, (a1)+
     < 0x005966ca      51c8fffc       dbra d0, 0x5966c8
         0x005966ce      225f           movea.l (a7)+, a1
         0x005966d0      22690218       movea.l 0x218(a1), a1
         0x005966d4      b3e9fffc       cmpa.l -0x4(a1), a1
     < 0x005966d8      6702           beq.b 0x5966dc
        0x005966da      4e4d           trap 0xd
     > 0x005966dc      216900040008   move.l 0x4(a1), 0x8(a0)
         0x005966e2      13430009       move.b d3, 0x9(a1)
         0x005966e6      226efff2       movea.l -0xe(a6), a1
         0x005966ea      b2c3           cmpa.w d3, a1
     < 0x005966ec      664e           bne.b 0x59673c
        0x005966ee      1d7acbdfffe2   move.b 0x5932cf(pc), -0x1e(a6)
        0x005966f4      1d7acbdaffe3   move.b 0x5932d0(pc), -0x1d(a6)
    < 0x005966fa      6040           bra.b 0x59673c
    > 0x005966fc      b3e9fffc       cmpa.l -0x4(a1), a1
    < 0x00596700      6702           beq.b 0x596704
       0x00596702      4e4d           trap 0xd
    > 0x00596704      594f           subq.w 0x4, a7
        0x00596706      2f290008       move.l 0x8(a1), -(a7)
        0x0059670a      4eb9005a002a   jsr K03_DISKLIST.k03_get_vol_ptr
        0x00596710      584f           addq.w 0x4, a7
        0x00596712      2d5ffff2       move.l (a7)+, -0xe(a6)
        0x00596716      b1e8fffc       cmpa.l -0x4(a0), a0
    < 0x0059671a      6702           beq.b 0x59671e
       0x0059671c      4e4d           trap 0xd
    > 0x0059671e      45e80008       lea.l 0x8(a0), a2
        0x00596722      43e90008       lea.l 0x8(a1), a1
        0x00596726      7009           moveq 0x9, d0
    > 0x00596728      14d9           move.b (a1)+, (a2)+
    < 0x0059672a      51c8fffc       dbra d0, 0x596728
        0x0059672e      226efff2       movea.l -0xe(a6), a1
        0x00596732      b2c3           cmpa.w d3, a1
    < 0x00596734      6606           bne.b 0x59673c
       0x00596736      3d7acb9affe2   move.w 0x5932d2(pc), -0x1e(a6)
    > 0x0059673c      554f           subq.w 0x2, a7
           0x0059673e      1f04           move.b d4, -(a7)
           0x00596740      4eb900598cca   jsr K01_DEBUG.k01_debug
           0x00596746      544f           addq.w 0x2, a7
           0x00596748      4a1f           tst.b (a7)+
       < 0x0059674a      6700008c       beq.w 0x5967d8
          0x0059674e      9efc0100       suba.w 0x100, a7
          0x00596752      206effea       movea.l -0x16(a6), a0
          0x00596756      b1e8fffc       cmpa.l -0x4(a0), a0
      < 0x0059675a      6702           beq.b 0x59675e
         0x0059675c      4e4d           trap 0xd
      > 0x0059675e      9ec5           suba.w d5, a7
          0x00596760      224f           movea.l a7, a1
          0x00596762      41e80008       lea.l 0x8(a0), a0
          0x00596766      7009           moveq 0x9, d0
      > 0x00596768      12d8           move.b (a0)+, (a1)+
      < 0x0059676a      51c8fffc       dbra d0, 0x596768
          0x0059676e      4ebad176       jsr K0_DISKMGR.fid_str(pc)
          0x00596772      dec5           adda.w d5, a7
          0x00596774      487acb5f       pea.l 0x5932d5(pc)
          0x00596778      48780007       pea.l 0x7
          0x0059677c      2f17           move.l (a7), -(a7)
          0x0059677e      4eb9004047ea   jsr p_wts_o
          0x00596784      dec2           adda.w d2, a7
          0x00596786      486f0001       pea.l 0x1(a7)
          0x0059678a      42a7           clr.l -(a7)
          0x0059678c      1f6f00080003   move.b 0x8(a7), 0x3(a7)
          0x00596792      2f17           move.l (a7), -(a7)
          0x00596794      4eb9004047ea   jsr p_wts_o
          0x0059679a      dec4           adda.w d4, a7
          0x0059679c      487acb3f       pea.l 0x5932dd(pc)
          0x005967a0      48780009       pea.l 0x9
          0x005967a4      2f17           move.l (a7), -(a7)
          0x005967a6      4eb9004047ea   jsr p_wts_o
          0x005967ac      dec2           adda.w d2, a7
          0x005967ae      486effe2       pea.l -0x1e(a6)
          0x005967b2      48780002       pea.l 0x2
          0x005967b6      2f17           move.l (a7), -(a7)
          0x005967b8      4eb9004047ea   jsr p_wts_o
          0x005967be      dec2           adda.w d2, a7
          0x005967c0      487acb25       pea.l 0x5932e7(pc)
          0x005967c4      48780015       pea.l 0x15
          0x005967c8      2f17           move.l (a7), -(a7)
          0x005967ca      4eb9004047ea   jsr p_wts_o
          0x005967d0      dec2           adda.w d2, a7
          0x005967d2      4eb900404946   jsr p_wtln_o
       > 0x005967d8      102effe2       move.b -0x1e(a6), d0
           0x005967dc      b03acb1f       cmp.b 0x5932fd(pc), d0
       < 0x005967e0      6608           bne.b 0x5967ea
          0x005967e2      102effe3       move.b -0x1d(a6), d0
          0x005967e6      b03acb16       cmp.b 0x5932fe(pc), d0
      > 0x005967ea      6628           bne.b 0x596814
          0x005967ec      206efff2       movea.l -0xe(a6), a0
          0x005967f0      b1e8fffc       cmpa.l -0x4(a0), a0
      < 0x005967f4      6702           beq.b 0x5967f8
         0x005967f6      4e4d           trap 0xd
      > 0x005967f8      08280004001a   btst.b 0x4, 0x1a(a0)
      < 0x005967fe      6708           beq.b 0x596808
         0x00596800      3d7acafeffe2   move.w 0x593300(pc), -0x1e(a6)
     < 0x00596806      600c           bra.b 0x596814
     > 0x00596808      1d7acaf9ffe2   move.b 0x593303(pc), -0x1e(a6)
         0x0059680e      1d7acaf4ffe3   move.b 0x593304(pc), -0x1d(a6)
     > 0x00596814      554f           subq.w 0x2, a7
           0x00596816      1f04           move.b d4, -(a7)
           0x00596818      4eb900598cca   jsr K01_DEBUG.k01_debug
           0x0059681e      544f           addq.w 0x2, a7
           0x00596820      4a1f           tst.b (a7)+
       < 0x00596822      672a           beq.b 0x59684e
          0x00596824      487acae0       pea.l 0x593306(pc)
          0x00596828      48780010       pea.l 0x10
          0x0059682c      2f17           move.l (a7), -(a7)
          0x0059682e      4eb9004047ea   jsr p_wts_o
          0x00596834      dec2           adda.w d2, a7
          0x00596836      486effe2       pea.l -0x1e(a6)
          0x0059683a      48780002       pea.l 0x2
          0x0059683e      2f17           move.l (a7), -(a7)
          0x00596840      4eb9004047ea   jsr p_wts_o
          0x00596846      dec2           adda.w d2, a7
          0x00596848      4eb900404946   jsr p_wtln_o
       > 0x0059684e      102effe2       move.b -0x1e(a6), d0
           0x00596852      b03acac3       cmp.b 0x593317(pc), d0
       < 0x00596856      6608           bne.b 0x596860
          0x00596858      102effe3       move.b -0x1d(a6), d0
          0x0059685c      b03acaba       cmp.b 0x593318(pc), d0
      > 0x00596860      660000d2       bne.w 0x596934
          0x00596864      554f           subq.w 0x2, a7
          0x00596866      1f04           move.b d4, -(a7)
          0x00596868      4eb900598cca   jsr K01_DEBUG.k01_debug
          0x0059686e      544f           addq.w 0x2, a7
          0x00596870      4a1f           tst.b (a7)+
      < 0x00596872      6718           beq.b 0x59688c
         0x00596874      487acaa4       pea.l 0x59331a(pc)
         0x00596878      4878001b       pea.l 0x1b
         0x0059687c      2f17           move.l (a7), -(a7)
         0x0059687e      4eb9004047ea   jsr p_wts_o
         0x00596884      dec2           adda.w d2, a7
         0x00596886      4eb900404946   jsr p_wtln_o
      > 0x0059688c      206effee       movea.l -0x12(a6), a0
          0x00596890      b1e8fffc       cmpa.l -0x4(a0), a0
      < 0x00596894      6702           beq.b 0x596898
         0x00596896      4e4d           trap 0xd
      > 0x00596898      28680218       movea.l 0x218(a0), a4
      > 0x0059689c      b9ecfffc       cmpa.l -0x4(a4), a4
     < 0x005968a0      6702           beq.b 0x5968a4
        0x005968a2      4e4d           trap 0xd
     > 0x005968a4      206efff2       movea.l -0xe(a6), a0
         0x005968a8      b1e8fffc       cmpa.l -0x4(a0), a0
     < 0x005968ac      6702           beq.b 0x5968b0
        0x005968ae      4e4d           trap 0xd
     > 0x005968b0      202c0004       move.l 0x4(a4), d0
         0x005968b4      b0a8000e       cmp.l 0xe(a0), d0
     < 0x005968b8      6730           beq.b 0x5968ea
        0x005968ba      b8c3           cmpa.w d3, a4
    < 0x005968bc      672c           beq.b 0x5968ea
       0x005968be      554f           subq.w 0x2, a7
       0x005968c0      1f04           move.b d4, -(a7)
       0x005968c2      4eb900598cca   jsr K01_DEBUG.k01_debug
       0x005968c8      544f           addq.w 0x2, a7
       0x005968ca      4a1f           tst.b (a7)+
   < 0x005968cc      6718           beq.b 0x5968e6
      0x005968ce      487aca66       pea.l 0x593336(pc)
      0x005968d2      48780012       pea.l 0x12
      0x005968d6      2f17           move.l (a7), -(a7)
      0x005968d8      4eb9004047ea   jsr p_wts_o
      0x005968de      dec2           adda.w d2, a7
      0x005968e0      4eb900404946   jsr p_wtln_o
   > 0x005968e6      2854           movea.l (a4), a4
    < 0x005968e8      60b2           bra.b 0x59689c
    > 0x005968ea      b8c3           cmpa.w d3, a4
      < 0x005968ec      660c           bne.b 0x5968fa
         0x005968ee      1d7aca59ffe2   move.b 0x593349(pc), -0x1e(a6)
         0x005968f4      1d7aca54ffe3   move.b 0x59334a(pc), -0x1d(a6)
      > 0x005968fa      554f           subq.w 0x2, a7
          0x005968fc      1f04           move.b d4, -(a7)
          0x005968fe      4eb900598cca   jsr K01_DEBUG.k01_debug
          0x00596904      544f           addq.w 0x2, a7
          0x00596906      4a1f           tst.b (a7)+
      < 0x00596908      672a           beq.b 0x596934
         0x0059690a      487aca40       pea.l 0x59334c(pc)
         0x0059690e      48780026       pea.l 0x26
         0x00596912      2f17           move.l (a7), -(a7)
         0x00596914      4eb9004047ea   jsr p_wts_o
         0x0059691a      dec2           adda.w d2, a7
         0x0059691c      486effe2       pea.l -0x1e(a6)
         0x00596920      48780002       pea.l 0x2
         0x00596924      2f17           move.l (a7), -(a7)
         0x00596926      4eb9004047ea   jsr p_wts_o
         0x0059692c      dec2           adda.w d2, a7
         0x0059692e      4eb900404946   jsr p_wtln_o
      > 0x00596934      102effe2       move.b -0x1e(a6), d0
           0x00596938      b03aca39       cmp.b 0x593373(pc), d0
       < 0x0059693c      6608           bne.b 0x596946
          0x0059693e      102effe3       move.b -0x1d(a6), d0
          0x00596942      b03aca30       cmp.b 0x593374(pc), d0
      > 0x00596946      660000fe       bne.w 0x596a46
          0x0059694a      554f           subq.w 0x2, a7
          0x0059694c      1f04           move.b d4, -(a7)
          0x0059694e      4eb900598cca   jsr K01_DEBUG.k01_debug
          0x00596954      544f           addq.w 0x2, a7
          0x00596956      4a1f           tst.b (a7)+
      < 0x00596958      67000082       beq.w 0x5969dc
         0x0059695c      487aca18       pea.l 0x593376(pc)
         0x00596960      48780019       pea.l 0x19
         0x00596964      2f17           move.l (a7), -(a7)
         0x00596966      4eb9004047ea   jsr p_wts_o
         0x0059696c      dec2           adda.w d2, a7
         0x0059696e      206efff2       movea.l -0xe(a6), a0
         0x00596972      b1e8fffc       cmpa.l -0x4(a0), a0
     < 0x00596976      6702           beq.b 0x59697a
        0x00596978      4e4d           trap 0xd
     > 0x0059697a      2f28000e       move.l 0xe(a0), -(a7)
         0x0059697e      4878ffff       pea.l 0xffff
         0x00596982      4eb9004070e4   jsr p_wti_o
         0x00596988      504f           addq.w 0x8, a7
         0x0059698a      487aca04       pea.l 0x593390(pc)
         0x0059698e      4878000b       pea.l 0xb
         0x00596992      2f17           move.l (a7), -(a7)
         0x00596994      4eb9004047ea   jsr p_wts_o
         0x0059699a      dec2           adda.w d2, a7
         0x0059699c      b9ecfffc       cmpa.l -0x4(a4), a4
     < 0x005969a0      6702           beq.b 0x5969a4
        0x005969a2      4e4d           trap 0xd
     > 0x005969a4      1f2c0009       move.b 0x9(a4), -(a7)
         0x005969a8      48780005       pea.l 0x5
         0x005969ac      4eb90040718c   jsr p_wtb_o
         0x005969b2      5c4f           addq.w 0x6, a7
         0x005969b4      487ac9e6       pea.l 0x59339c(pc)
         0x005969b8      4878000b       pea.l 0xb
         0x005969bc      2f17           move.l (a7), -(a7)
         0x005969be      4eb9004047ea   jsr p_wts_o
         0x005969c4      dec5           adda.w d5, a7
         0x005969c6      1eae0008       move.b 0x8(a6), (a7)
         0x005969ca      48780005       pea.l 0x5
         0x005969ce      4eb90040718c   jsr p_wtb_o
         0x005969d4      5c4f           addq.w 0x6, a7
         0x005969d6      4eb900404946   jsr p_wtln_o
      > 0x005969dc      206efff2       movea.l -0xe(a6), a0
          0x005969e0      b1e8fffc       cmpa.l -0x4(a0), a0
      < 0x005969e4      6702           beq.b 0x5969e8
         0x005969e6      4e4d           trap 0xd
      > 0x005969e8      b9ecfffc       cmpa.l -0x4(a4), a4
      < 0x005969ec      6702           beq.b 0x5969f0
         0x005969ee      4e4d           trap 0xd
      > 0x005969f0      554f           subq.w 0x2, a7
          0x005969f2      1028000c       move.b 0xc(a0), d0
          0x005969f6      4880           ext.w d0
          0x005969f8      4186           chk.w d6, d0
          0x005969fa      1f00           move.b d0, -(a7)
          0x005969fc      2f28000e       move.l 0xe(a0), -(a7)
          0x00596a00      206effea       movea.l -0x16(a6), a0
          0x00596a04      b1e8fffc       cmpa.l -0x4(a0), a0
      < 0x00596a08      6702           beq.b 0x596a0c
         0x00596a0a      4e4d           trap 0xd
      > 0x00596a0c      48680008       pea.l 0x8(a0)
          0x00596a10      486c000a       pea.l 0xa(a4)
          0x00596a14      2f2c000e       move.l 0xe(a4), -(a7)
          0x00596a18      206effee       movea.l -0x12(a6), a0
          0x00596a1c      b1e8fffc       cmpa.l -0x4(a0), a0
      < 0x00596a20      6702           beq.b 0x596a24
         0x00596a22      4e4d           trap 0xd
      > 0x00596a24      48680118       pea.l 0x118(a0)
          0x00596a28      102c0009       move.b 0x9(a4), d0
          0x00596a2c      4880           ext.w d0
          0x00596a2e      4183           chk.w d3, d0
          0x00596a30      1f00           move.b d0, -(a7)
          0x00596a32      1f2e0008       move.b 0x8(a6), -(a7)
          0x00596a36      4eb9005abad2   jsr K1_AFS_ONLY.k1_find_next_fi
          0x00596a3c      defc001a       adda.w 0x1a, a7
          0x00596a40      3d5fffe2       move.w (a7)+, -0x1e(a6)
      < 0x00596a44      606a           bra.b 0x596ab0
      > 0x00596a46      554f           subq.w 0x2, a7
          0x00596a48      1f04           move.b d4, -(a7)
          0x00596a4a      4eb900598cca   jsr K01_DEBUG.k01_debug
          0x00596a50      544f           addq.w 0x2, a7
          0x00596a52      4a1f           tst.b (a7)+
      < 0x00596a54      672a           beq.b 0x596a80
         0x00596a56      487ac950       pea.l 0x5933a8(pc)
         0x00596a5a      4878002b       pea.l 0x2b
         0x00596a5e      2f17           move.l (a7), -(a7)
         0x00596a60      4eb9004047ea   jsr p_wts_o
         0x00596a66      dec2           adda.w d2, a7
         0x00596a68      486effe2       pea.l -0x1e(a6)
         0x00596a6c      48780002       pea.l 0x2
         0x00596a70      2f17           move.l (a7), -(a7)
         0x00596a72      4eb9004047ea   jsr p_wts_o
         0x00596a78      dec2           adda.w d2, a7
         0x00596a7a      4eb900404946   jsr p_wtln_o
      > 0x00596a80      3d7ac952ffe2   move.w 0x5933d4(pc), -0x1e(a6)
          0x00596a86      594f           subq.w 0x4, a7
          0x00596a88      206effee       movea.l -0x12(a6), a0
          0x00596a8c      b1e8fffc       cmpa.l -0x4(a0), a0
      < 0x00596a90      6702           beq.b 0x596a94
         0x00596a92      4e4d           trap 0xd
      > 0x00596a94      20680218       movea.l 0x218(a0), a0
          0x00596a98      b1e8fffc       cmpa.l -0x4(a0), a0
      < 0x00596a9c      6702           beq.b 0x596aa0
         0x00596a9e      4e4d           trap 0xd
      > 0x00596aa0      2f280004       move.l 0x4(a0), -(a7)
          0x00596aa4      4eb9005a002a   jsr K03_DISKLIST.k03_get_vol_ptr
          0x00596aaa      584f           addq.w 0x4, a7
          0x00596aac      2d5ffff2       move.l (a7)+, -0xe(a6)
       > 0x00596ab0      554f           subq.w 0x2, a7
           0x00596ab2      1f04           move.b d4, -(a7)
           0x00596ab4      4eb900598cca   jsr K01_DEBUG.k01_debug
           0x00596aba      544f           addq.w 0x2, a7
           0x00596abc      4a1f           tst.b (a7)+
       < 0x00596abe      6778           beq.b 0x596b38
          0x00596ac0      9efc0100       suba.w 0x100, a7
          0x00596ac4      206effea       movea.l -0x16(a6), a0
          0x00596ac8      b1e8fffc       cmpa.l -0x4(a0), a0
      < 0x00596acc      6702           beq.b 0x596ad0
         0x00596ace      4e4d           trap 0xd
      > 0x00596ad0      9ec5           suba.w d5, a7
          0x00596ad2      224f           movea.l a7, a1
          0x00596ad4      41e80008       lea.l 0x8(a0), a0
          0x00596ad8      7009           moveq 0x9, d0
      > 0x00596ada      12d8           move.b (a0)+, (a1)+
      < 0x00596adc      51c8fffc       dbra d0, 0x596ada
          0x00596ae0      4ebace04       jsr K0_DISKMGR.fid_str(pc)
          0x00596ae4      dec5           adda.w d5, a7
          0x00596ae6      487ac8ef       pea.l 0x5933d7(pc)
          0x00596aea      4878001f       pea.l 0x1f
          0x00596aee      2f17           move.l (a7), -(a7)
          0x00596af0      4eb9004047ea   jsr p_wts_o
          0x00596af6      dec2           adda.w d2, a7
          0x00596af8      486f0001       pea.l 0x1(a7)
          0x00596afc      42a7           clr.l -(a7)
          0x00596afe      1f6f00080003   move.b 0x8(a7), 0x3(a7)
          0x00596b04      2f17           move.l (a7), -(a7)
          0x00596b06      4eb9004047ea   jsr p_wts_o
          0x00596b0c      dec4           adda.w d4, a7
          0x00596b0e      487ac8e7       pea.l 0x5933f7(pc)
          0x00596b12      48780009       pea.l 0x9
          0x00596b16      2f17           move.l (a7), -(a7)
          0x00596b18      4eb9004047ea   jsr p_wts_o
          0x00596b1e      dec2           adda.w d2, a7
          0x00596b20      486effe2       pea.l -0x1e(a6)
          0x00596b24      48780002       pea.l 0x2
          0x00596b28      2f17           move.l (a7), -(a7)
          0x00596b2a      4eb9004047ea   jsr p_wts_o
          0x00596b30      dec2           adda.w d2, a7
          0x00596b32      4eb900404946   jsr p_wtln_o
       > 0x00596b38      102effe2       move.b -0x1e(a6), d0
           0x00596b3c      b03ac8c3       cmp.b 0x593401(pc), d0
       < 0x00596b40      6608           bne.b 0x596b4a
          0x00596b42      102effe3       move.b -0x1d(a6), d0
          0x00596b46      b03ac8ba       cmp.b 0x593402(pc), d0
      > 0x00596b4a      670c           beq.b 0x596b58
          0x00596b4c      302effe2       move.w -0x1e(a6), d0
          0x00596b50      b07ac8b2       cmp.w 0x593404(pc), d0
      < 0x00596b54      6600056a       bne.w 0x5970c0
      > 0x00596b58      266efff2       movea.l -0xe(a6), a3
      > 0x00596b5c      1f03           move.b d3, -(a7)
         0x00596b5e      4eb9005a085c   jsr K03_DISKLIST.k03_lock_vol_ga
         0x00596b64      544f           addq.w 0x2, a7
     > 0x00596b66      4a2e0008       tst.b 0x8(a6)
    < 0x00596b6a      670e           beq.b 0x596b7a
       0x00596b6c      b7ebfffc       cmpa.l -0x4(a3), a3
   < 0x00596b70      6702           beq.b 0x596b74
      0x00596b72      4e4d           trap 0xd
   > 0x00596b74      266b0004       movea.l 0x4(a3), a3
   < 0x00596b78      600c           bra.b 0x596b86
   > 0x00596b7a      b7ebfffc       cmpa.l -0x4(a3), a3
   < 0x00596b7e      6702           beq.b 0x596b82
      0x00596b80      4e4d           trap 0xd
   > 0x00596b82      266b0008       movea.l 0x8(a3), a3
   > 0x00596b86      7e00           moveq 0x0, d7
    > 0x00596b88      4a07           tst.b d7
   < 0x00596b8a      666a           bne.b 0x596bf6
      0x00596b8c      b6c3           cmpa.w d3, a3
  < 0x00596b8e      6766           beq.b 0x596bf6
     0x00596b90      206effee       movea.l -0x12(a6), a0
     0x00596b94      b1e8fffc       cmpa.l -0x4(a0), a0
 < 0x00596b98      6702           beq.b 0x596b9c
    0x00596b9a      4e4d           trap 0xd
 > 0x00596b9c      554f           subq.w 0x2, a7
     0x00596b9e      2f0b           move.l a3, -(a7)
     0x00596ba0      514f           subq.w 0x8, a7
     0x00596ba2      224f           movea.l a7, a1
     0x00596ba4      45e80004       lea.l 0x4(a0), a2
     0x00596ba8      7007           moveq 0x7, d0
 > 0x00596baa      12da           move.b (a2)+, (a1)+
 < 0x00596bac      51c8fffc       dbra d0, 0x596baa
     0x00596bb0      514f           subq.w 0x8, a7
     0x00596bb2      224f           movea.l a7, a1
     0x00596bb4      41e8000c       lea.l 0xc(a0), a0
     0x00596bb8      7007           moveq 0x7, d0
 > 0x00596bba      12d8           move.b (a0)+, (a1)+
 < 0x00596bbc      51c8fffc       dbra d0, 0x596bba
     0x00596bc0      4eb9005a0098   jsr K03_DISKLIST.k03_check_vol
     0x00596bc6      defc0014       adda.w 0x14, a7
     0x00596bca      101f           move.b (a7)+, d0
     0x00596bcc      4880           ext.w d0
     0x00596bce      4183           chk.w d3, d0
     0x00596bd0      1e00           move.b d0, d7
 < 0x00596bd2      6620           bne.b 0x596bf4
    0x00596bd4      4a2e0008       tst.b 0x8(a6)
 < 0x00596bd8      670e           beq.b 0x596be8
    0x00596bda      b7ebfffc       cmpa.l -0x4(a3), a3
 < 0x00596bde      6702           beq.b 0x596be2
    0x00596be0      4e4d           trap 0xd
 > 0x00596be2      266b0004       movea.l 0x4(a3), a3
 < 0x00596be6      600c           bra.b 0x596bf4
 > 0x00596be8      b7ebfffc       cmpa.l -0x4(a3), a3
 < 0x00596bec      6702           beq.b 0x596bf0
    0x00596bee      4e4d           trap 0xd
 > 0x00596bf0      266b0008       movea.l 0x8(a3), a3
 < 0x00596bf4      6092           bra.b 0x596b88
  > 0x00596bf6      4a07           tst.b d7
    < 0x00596bf8      670e           beq.b 0x596c08
       0x00596bfa      1d7ac80bffe2   move.b 0x593407(pc), -0x1e(a6)
       0x00596c00      1d7ac806ffe3   move.b 0x593408(pc), -0x1d(a6)
   < 0x00596c06      6006           bra.b 0x596c0e
   > 0x00596c08      3d7ac800ffe2   move.w 0x59340a(pc), -0x1e(a6)
   > 0x00596c0e      554f           subq.w 0x2, a7
        0x00596c10      1f04           move.b d4, -(a7)
        0x00596c12      4eb900598cca   jsr K01_DEBUG.k01_debug
        0x00596c18      544f           addq.w 0x2, a7
        0x00596c1a      4a1f           tst.b (a7)+
    < 0x00596c1c      672a           beq.b 0x596c48
       0x00596c1e      487ac7ed       pea.l 0x59340d(pc)
       0x00596c22      48780028       pea.l 0x28
       0x00596c26      2f17           move.l (a7), -(a7)
       0x00596c28      4eb9004047ea   jsr p_wts_o
       0x00596c2e      dec2           adda.w d2, a7
       0x00596c30      486effe2       pea.l -0x1e(a6)
       0x00596c34      48780002       pea.l 0x2
       0x00596c38      2f17           move.l (a7), -(a7)
       0x00596c3a      4eb9004047ea   jsr p_wts_o
       0x00596c40      dec2           adda.w d2, a7
       0x00596c42      4eb900404946   jsr p_wtln_o
    > 0x00596c48      302effe2       move.w -0x1e(a6), d0
        0x00596c4c      b07ac7e8       cmp.w 0x593436(pc), d0
    < 0x00596c50      6716           beq.b 0x596c68
       0x00596c52      102effe2       move.b -0x1e(a6), d0
       0x00596c56      b03ac7e1       cmp.b 0x593439(pc), d0
   < 0x00596c5a      6608           bne.b 0x596c64
      0x00596c5c      102effe3       move.b -0x1d(a6), d0
      0x00596c60      b03ac7d8       cmp.b 0x59343a(pc), d0
   < 0x00596c64      6600ff00       bne.w 0x596b66
    > 0x00596c68      4227           clr.b -(a7)
         0x00596c6a      4eb9005a085c   jsr K03_DISKLIST.k03_lock_vol_ga
         0x00596c70      544f           addq.w 0x2, a7
         0x00596c72      302effe2       move.w -0x1e(a6), d0
         0x00596c76      b07ac7c4       cmp.w 0x59343c(pc), d0
     < 0x00596c7a      66000424       bne.w 0x5970a0
        0x00596c7e      206effee       movea.l -0x12(a6), a0
        0x00596c82      b1e8fffc       cmpa.l -0x4(a0), a0
    < 0x00596c86      6702           beq.b 0x596c8a
       0x00596c88      4e4d           trap 0xd
    > 0x00596c8a      28680218       movea.l 0x218(a0), a4
        0x00596c8e      7e00           moveq 0x0, d7
    > 0x00596c90      b8c3           cmpa.w d3, a4
   < 0x00596c92      676c           beq.b 0x596d00
      0x00596c94      4a07           tst.b d7
  < 0x00596c96      6668           bne.b 0x596d00
     0x00596c98      7000           moveq 0x0, d0
     0x00596c9a      b9ecfffc       cmpa.l -0x4(a4), a4
 < 0x00596c9e      6702           beq.b 0x596ca2
    0x00596ca0      4e4d           trap 0xd
 > 0x00596ca2      b7ebfffc       cmpa.l -0x4(a3), a3
 < 0x00596ca6      6702           beq.b 0x596caa
    0x00596ca8      4e4d           trap 0xd
 > 0x00596caa      222c0004       move.l 0x4(a4), d1
     0x00596cae      b2ab000e       cmp.l 0xe(a3), d1
 < 0x00596cb2      6602           bne.b 0x596cb6
    0x00596cb4      5200           addq.b 0x1, d0
 > 0x00596cb6      1e00           move.b d0, d7
 < 0x00596cb8      661c           bne.b 0x596cd6
    0x00596cba      2854           movea.l (a4), a4
    0x00596cbc      554f           subq.w 0x2, a7
    0x00596cbe      1f04           move.b d4, -(a7)
    0x00596cc0      4eb900598cca   jsr K01_DEBUG.k01_debug
    0x00596cc6      544f           addq.w 0x2, a7
    0x00596cc8      4a1f           tst.b (a7)+
 < 0x00596cca      6732           beq.b 0x596cfe
    0x00596ccc      487ac771       pea.l 0x59343f(pc)
    0x00596cd0      48780012       pea.l 0x12
 < 0x00596cd4      6018           bra.b 0x596cee
 > 0x00596cd6      554f           subq.w 0x2, a7
     0x00596cd8      1f04           move.b d4, -(a7)
     0x00596cda      4eb900598cca   jsr K01_DEBUG.k01_debug
     0x00596ce0      544f           addq.w 0x2, a7
     0x00596ce2      4a1f           tst.b (a7)+
 < 0x00596ce4      6718           beq.b 0x596cfe
    0x00596ce6      487ac76a       pea.l 0x593452(pc)
    0x00596cea      4878000c       pea.l 0xc
 > 0x00596cee      2f17           move.l (a7), -(a7)
    0x00596cf0      4eb9004047ea   jsr p_wts_o
    0x00596cf6      dec2           adda.w d2, a7
    0x00596cf8      4eb900404946   jsr p_wtln_o
 < 0x00596cfe      6090           bra.b 0x596c90
  > 0x00596d00      b8c3           cmpa.w d3, a4
    < 0x00596d02      66000088       bne.w 0x596d8c
       0x00596d06      554f           subq.w 0x2, a7
       0x00596d08      1f04           move.b d4, -(a7)
       0x00596d0a      4eb900598cca   jsr K01_DEBUG.k01_debug
       0x00596d10      544f           addq.w 0x2, a7
       0x00596d12      4a1f           tst.b (a7)+
   < 0x00596d14      6718           beq.b 0x596d2e
      0x00596d16      487ac747       pea.l 0x59345f(pc)
      0x00596d1a      48780011       pea.l 0x11
      0x00596d1e      2f17           move.l (a7), -(a7)
      0x00596d20      4eb9004047ea   jsr p_wts_o
      0x00596d26      dec2           adda.w d2, a7
      0x00596d28      4eb900404946   jsr p_wtln_o
   > 0x00596d2e      206effee       movea.l -0x12(a6), a0
       0x00596d32      b1e8fffc       cmpa.l -0x4(a0), a0
   < 0x00596d36      6702           beq.b 0x596d3a
      0x00596d38      4e4d           trap 0xd
   > 0x00596d3a      28680218       movea.l 0x218(a0), a4
   > 0x00596d3e      b9ecfffc       cmpa.l -0x4(a4), a4
  < 0x00596d42      6702           beq.b 0x596d46
     0x00596d44      4e4d           trap 0xd
  > 0x00596d46      2054           movea.l (a4), a0
      0x00596d48      b0c3           cmpa.w d3, a0
  < 0x00596d4a      6704           beq.b 0x596d50
     0x00596d4c      2848           movea.l a0, a4
  < 0x00596d4e      60ee           bra.b 0x596d3e
  > 0x00596d50      4854           pea.l (a4)
       0x00596d52      48780012       pea.l 0x12
       0x00596d56      4eb900403a92   jsr p_New
       0x00596d5c      504f           addq.w 0x8, a7
       0x00596d5e      2854           movea.l (a4), a4
       0x00596d60      b9ecfffc       cmpa.l -0x4(a4), a4
   < 0x00596d64      6702           beq.b 0x596d68
      0x00596d66      4e4d           trap 0xd
   > 0x00596d68      2943000a       move.l d3, 0xa(a4)
       0x00596d6c      b7ebfffc       cmpa.l -0x4(a3), a3
   < 0x00596d70      6702           beq.b 0x596d74
      0x00596d72      4e4d           trap 0xd
   > 0x00596d74      296b000e0004   move.l 0xe(a3), 0x4(a4)
       0x00596d7a      102b000c       move.b 0xc(a3), d0
       0x00596d7e      4880           ext.w d0
       0x00596d80      4186           chk.w d6, d0
       0x00596d82      19400008       move.b d0, 0x8(a4)
       0x00596d86      2883           move.l d3, (a4)
       0x00596d88      42ac000e       clr.l 0xe(a4)
    > 0x00596d8c      b9ecfffc       cmpa.l -0x4(a4), a4
    < 0x00596d90      6702           beq.b 0x596d94
       0x00596d92      4e4d           trap 0xd
    > 0x00596d94      206c000a       movea.l 0xa(a4), a0
        0x00596d98      b0c3           cmpa.w d3, a0
    < 0x00596d9a      660000fc       bne.w 0x596e98
       0x00596d9e      b7ebfffc       cmpa.l -0x4(a3), a3
   < 0x00596da2      6702           beq.b 0x596da6
      0x00596da4      4e4d           trap 0xd
   > 0x00596da6      082b0004001a   btst.b 0x4, 0x1a(a3)
   < 0x00596dac      670e           beq.b 0x596dbc
      0x00596dae      1d7ac6c1ffe2   move.b 0x593471(pc), -0x1e(a6)
      0x00596db4      1d7ac6bcffe3   move.b 0x593472(pc), -0x1d(a6)
  < 0x00596dba      6006           bra.b 0x596dc2
  > 0x00596dbc      3d7ac6b6ffe2   move.w 0x593474(pc), -0x1e(a6)
  > 0x00596dc2      554f           subq.w 0x2, a7
       0x00596dc4      1f04           move.b d4, -(a7)
       0x00596dc6      4eb900598cca   jsr K01_DEBUG.k01_debug
       0x00596dcc      544f           addq.w 0x2, a7
       0x00596dce      4a1f           tst.b (a7)+
   < 0x00596dd0      672a           beq.b 0x596dfc
      0x00596dd2      487ac6a3       pea.l 0x593477(pc)
      0x00596dd6      48780031       pea.l 0x31
      0x00596dda      2f17           move.l (a7), -(a7)
      0x00596ddc      4eb9004047ea   jsr p_wts_o
      0x00596de2      dec2           adda.w d2, a7
      0x00596de4      486effe2       pea.l -0x1e(a6)
      0x00596de8      48780002       pea.l 0x2
      0x00596dec      2f17           move.l (a7), -(a7)
      0x00596dee      4eb9004047ea   jsr p_wts_o
      0x00596df4      dec2           adda.w d2, a7
      0x00596df6      4eb900404946   jsr p_wtln_o
   > 0x00596dfc      102effe2       move.b -0x1e(a6), d0
       0x00596e00      b03ac6a7       cmp.b 0x5934a9(pc), d0
   < 0x00596e04      6608           bne.b 0x596e0e
      0x00596e06      102effe3       move.b -0x1d(a6), d0
      0x00596e0a      b03ac69e       cmp.b 0x5934aa(pc), d0
  > 0x00596e0e      664e           bne.b 0x596e5e
      0x00596e10      206effee       movea.l -0x12(a6), a0
      0x00596e14      b1e8fffc       cmpa.l -0x4(a0), a0
  < 0x00596e18      6702           beq.b 0x596e1c
     0x00596e1a      4e4d           trap 0xd
  > 0x00596e1c      554f           subq.w 0x2, a7
      0x00596e1e      102c0008       move.b 0x8(a4), d0
      0x00596e22      4880           ext.w d0
      0x00596e24      4186           chk.w d6, d0
      0x00596e26      1f00           move.b d0, -(a7)
      0x00596e28      2f2c0004       move.l 0x4(a4), -(a7)
      0x00596e2c      9efc0100       suba.w 0x100, a7
      0x00596e30      224f           movea.l a7, a1
      0x00596e32      45e80014       lea.l 0x14(a0), a2
      0x00596e36      303c00ff       move.w 0xff, d0
  > 0x00596e3a      12da           move.b (a2)+, (a1)+
  < 0x00596e3c      51c8fffc       dbra d0, 0x596e3a
      0x00596e40      1f280114       move.b 0x114(a0), -(a7)
      0x00596e44      3f280116       move.w 0x116(a0), -(a7)
      0x00596e48      486c000a       pea.l 0xa(a4)
      0x00596e4c      486c000e       pea.l 0xe(a4)
      0x00596e50      4eb9005aba36   jsr K1_AFS_ONLY.k1_start_search
      0x00596e56      defc0112       adda.w 0x112, a7
      0x00596e5a      3d5fffe2       move.w (a7)+, -0x1e(a6)
  > 0x00596e5e      554f           subq.w 0x2, a7
       0x00596e60      1f04           move.b d4, -(a7)
       0x00596e62      4eb900598cca   jsr K01_DEBUG.k01_debug
       0x00596e68      544f           addq.w 0x2, a7
       0x00596e6a      4a1f           tst.b (a7)+
   < 0x00596e6c      672a           beq.b 0x596e98
      0x00596e6e      487ac63c       pea.l 0x5934ac(pc)
      0x00596e72      4878002f       pea.l 0x2f
      0x00596e76      2f17           move.l (a7), -(a7)
      0x00596e78      4eb9004047ea   jsr p_wts_o
      0x00596e7e      dec2           adda.w d2, a7
      0x00596e80      486effe2       pea.l -0x1e(a6)
      0x00596e84      48780002       pea.l 0x2
      0x00596e88      2f17           move.l (a7), -(a7)
      0x00596e8a      4eb9004047ea   jsr p_wts_o
      0x00596e90      dec2           adda.w d2, a7
      0x00596e92      4eb900404946   jsr p_wtln_o
   > 0x00596e98      302effe2       move.w -0x1e(a6), d0
        0x00596e9c      b07ac63e       cmp.w 0x5934dc(pc), d0
    < 0x00596ea0      660001fe       bne.w 0x5970a0
       0x00596ea4      b9ecfffc       cmpa.l -0x4(a4), a4
   < 0x00596ea8      6702           beq.b 0x596eac
      0x00596eaa      4e4d           trap 0xd
   > 0x00596eac      19430009       move.b d3, 0x9(a4)
       0x00596eb0      594f           subq.w 0x4, a7
       0x00596eb2      2f2c0004       move.l 0x4(a4), -(a7)
       0x00596eb6      4eb9005a002a   jsr K03_DISKLIST.k03_get_vol_ptr
       0x00596ebc      584f           addq.w 0x4, a7
       0x00596ebe      2d5ffff2       move.l (a7)+, -0xe(a6)
       0x00596ec2      206effea       movea.l -0x16(a6), a0
       0x00596ec6      b1e8fffc       cmpa.l -0x4(a0), a0
   < 0x00596eca      6702           beq.b 0x596ece
      0x00596ecc      4e4d           trap 0xd
   > 0x00596ece      43e80008       lea.l 0x8(a0), a1
       0x00596ed2      45fac60a       lea.l 0x5934de(pc), a2
       0x00596ed6      7009           moveq 0x9, d0
   > 0x00596ed8      12da           move.b (a2)+, (a1)+
   < 0x00596eda      51c8fffc       dbra d0, 0x596ed8
       0x00596ede      226efff2       movea.l -0xe(a6), a1
       0x00596ee2      b3e9fffc       cmpa.l -0x4(a1), a1
   < 0x00596ee6      6702           beq.b 0x596eea
      0x00596ee8      4e4d           trap 0xd
   > 0x00596eea      2169000e0008   move.l 0xe(a1), 0x8(a0)
       0x00596ef0      102effe2       move.b -0x1e(a6), d0
       0x00596ef4      b03ac5f3       cmp.b 0x5934e9(pc), d0
   < 0x00596ef8      6608           bne.b 0x596f02
      0x00596efa      102effe3       move.b -0x1d(a6), d0
      0x00596efe      b03ac5ea       cmp.b 0x5934ea(pc), d0
  > 0x00596f02      661c           bne.b 0x596f20
      0x00596f04      08290004001a   btst.b 0x4, 0x1a(a1)
  < 0x00596f0a      6708           beq.b 0x596f14
     0x00596f0c      3d7ac5deffe2   move.w 0x5934ec(pc), -0x1e(a6)
 < 0x00596f12      600c           bra.b 0x596f20
 > 0x00596f14      1d7ac5d9ffe2   move.b 0x5934ef(pc), -0x1e(a6)
     0x00596f1a      1d7ac5d4ffe3   move.b 0x5934f0(pc), -0x1d(a6)
 > 0x00596f20      302effe2       move.w -0x1e(a6), d0
       0x00596f24      b07ac5cc       cmp.w 0x5934f2(pc), d0
   < 0x00596f28      6600013c       bne.w 0x597066
      0x00596f2c      554f           subq.w 0x2, a7
      0x00596f2e      1f04           move.b d4, -(a7)
      0x00596f30      4eb900598cca   jsr K01_DEBUG.k01_debug
      0x00596f36      544f           addq.w 0x2, a7
      0x00596f38      4a1f           tst.b (a7)+
  < 0x00596f3a      676c           beq.b 0x596fa8
     0x00596f3c      487ac5b7       pea.l 0x5934f5(pc)
     0x00596f40      48780012       pea.l 0x12
     0x00596f44      2f17           move.l (a7), -(a7)
     0x00596f46      4eb9004047ea   jsr p_wts_o
     0x00596f4c      504f           addq.w 0x8, a7
     0x00596f4e      2ea9000e       move.l 0xe(a1), (a7)
     0x00596f52      4878ffff       pea.l 0xffff
     0x00596f56      4eb9004070e4   jsr p_wti_o
     0x00596f5c      504f           addq.w 0x8, a7
     0x00596f5e      487ac5a8       pea.l 0x593508(pc)
     0x00596f62      4878000b       pea.l 0xb
     0x00596f66      2f17           move.l (a7), -(a7)
     0x00596f68      4eb9004047ea   jsr p_wts_o
     0x00596f6e      dec5           adda.w d5, a7
     0x00596f70      1eac0009       move.b 0x9(a4), (a7)
     0x00596f74      48780005       pea.l 0x5
     0x00596f78      4eb90040718c   jsr p_wtb_o
     0x00596f7e      5c4f           addq.w 0x6, a7
     0x00596f80      487ac592       pea.l 0x593514(pc)
     0x00596f84      4878000b       pea.l 0xb
     0x00596f88      2f17           move.l (a7), -(a7)
     0x00596f8a      4eb9004047ea   jsr p_wts_o
     0x00596f90      dec5           adda.w d5, a7
     0x00596f92      1eae0008       move.b 0x8(a6), (a7)
     0x00596f96      48780005       pea.l 0x5
     0x00596f9a      4eb90040718c   jsr p_wtb_o
     0x00596fa0      5c4f           addq.w 0x6, a7
     0x00596fa2      4eb900404946   jsr p_wtln_o
  > 0x00596fa8      554f           subq.w 0x2, a7
      0x00596faa      1029000c       move.b 0xc(a1), d0
      0x00596fae      4880           ext.w d0
      0x00596fb0      4186           chk.w d6, d0
      0x00596fb2      1f00           move.b d0, -(a7)
      0x00596fb4      2f29000e       move.l 0xe(a1), -(a7)
      0x00596fb8      48680008       pea.l 0x8(a0)
      0x00596fbc      486c000a       pea.l 0xa(a4)
      0x00596fc0      2f2c000e       move.l 0xe(a4), -(a7)
      0x00596fc4      246effee       movea.l -0x12(a6), a2
      0x00596fc8      b5eafffc       cmpa.l -0x4(a2), a2
  < 0x00596fcc      6702           beq.b 0x596fd0
     0x00596fce      4e4d           trap 0xd
  > 0x00596fd0      486a0118       pea.l 0x118(a2)
      0x00596fd4      102c0009       move.b 0x9(a4), d0
      0x00596fd8      4880           ext.w d0
      0x00596fda      4183           chk.w d3, d0
      0x00596fdc      1f00           move.b d0, -(a7)
      0x00596fde      1f2e0008       move.b 0x8(a6), -(a7)
      0x00596fe2      4eb9005abad2   jsr K1_AFS_ONLY.k1_find_next_fi
      0x00596fe8      defc001a       adda.w 0x1a, a7
      0x00596fec      3d57ffe2       move.w (a7), -0x1e(a6)
      0x00596ff0      1f04           move.b d4, -(a7)
      0x00596ff2      4eb900598cca   jsr K01_DEBUG.k01_debug
      0x00596ff8      544f           addq.w 0x2, a7
      0x00596ffa      4a1f           tst.b (a7)+
  < 0x00596ffc      670000a2       beq.w 0x5970a0
     0x00597000      9efc010a       suba.w 0x10a, a7
     0x00597004      244f           movea.l a7, a2
     0x00597006      41e80008       lea.l 0x8(a0), a0
     0x0059700a      7009           moveq 0x9, d0
 > 0x0059700c      14d8           move.b (a0)+, (a2)+
 < 0x0059700e      51c8fffc       dbra d0, 0x59700c
     0x00597012      4ebac8d2       jsr K0_DISKMGR.fid_str(pc)
     0x00597016      dec5           adda.w d5, a7
     0x00597018      487ac506       pea.l 0x593520(pc)
     0x0059701c      4878001b       pea.l 0x1b
     0x00597020      2f17           move.l (a7), -(a7)
     0x00597022      4eb9004047ea   jsr p_wts_o
     0x00597028      dec2           adda.w d2, a7
     0x0059702a      486effe2       pea.l -0x1e(a6)
     0x0059702e      48780002       pea.l 0x2
     0x00597032      2f17           move.l (a7), -(a7)
     0x00597034      4eb9004047ea   jsr p_wts_o
     0x0059703a      dec2           adda.w d2, a7
     0x0059703c      487ac4fe       pea.l 0x59353c(pc)
     0x00597040      4878000b       pea.l 0xb
     0x00597044      2f17           move.l (a7), -(a7)
     0x00597046      4eb9004047ea   jsr p_wts_o
     0x0059704c      dec2           adda.w d2, a7
     0x0059704e      486f0001       pea.l 0x1(a7)
     0x00597052      42a7           clr.l -(a7)
     0x00597054      1f6f00080003   move.b 0x8(a7), 0x3(a7)
     0x0059705a      2f17           move.l (a7), -(a7)
     0x0059705c      4eb9004047ea   jsr p_wts_o
     0x00597062      dec4           adda.w d4, a7
 < 0x00597064      6034           bra.b 0x59709a
 > 0x00597066      554f           subq.w 0x2, a7
     0x00597068      1f04           move.b d4, -(a7)
     0x0059706a      4eb900598cca   jsr K01_DEBUG.k01_debug
     0x00597070      544f           addq.w 0x2, a7
     0x00597072      4a1f           tst.b (a7)+
 < 0x00597074      672a           beq.b 0x5970a0
    0x00597076      487ac4d0       pea.l 0x593548(pc)
    0x0059707a      48780025       pea.l 0x25
    0x0059707e      2f17           move.l (a7), -(a7)
    0x00597080      4eb9004047ea   jsr p_wts_o
    0x00597086      dec2           adda.w d2, a7
    0x00597088      486effe2       pea.l -0x1e(a6)
    0x0059708c      48780002       pea.l 0x2
    0x00597090      2f17           move.l (a7), -(a7)
    0x00597092      4eb9004047ea   jsr p_wts_o
    0x00597098      dec2           adda.w d2, a7
 > 0x0059709a      4eb900404946   jsr p_wtln_o
  > 0x005970a0      302effe2       move.w -0x1e(a6), d0
         0x005970a4      b07ac4c8       cmp.w 0x59356e(pc), d0
     < 0x005970a8      6716           beq.b 0x5970c0
        0x005970aa      102effe2       move.b -0x1e(a6), d0
        0x005970ae      b03ac4c1       cmp.b 0x593571(pc), d0
    < 0x005970b2      6608           bne.b 0x5970bc
       0x005970b4      102effe3       move.b -0x1d(a6), d0
       0x005970b8      b03ac4b8       cmp.b 0x593572(pc), d0
    < 0x005970bc      6600fa9e       bne.w 0x596b5c
     > 0x005970c0      302effe2       move.w -0x1e(a6), d0
           0x005970c4      b07ac4ae       cmp.w 0x593574(pc), d0
       < 0x005970c8      660c           bne.b 0x5970d6
          0x005970ca      1d7ac4abffe2   move.b 0x593577(pc), -0x1e(a6)
          0x005970d0      1d7ac4a6ffe3   move.b 0x593578(pc), -0x1d(a6)
       > 0x005970d6      302effe2       move.w -0x1e(a6), d0
           0x005970da      b07ac49e       cmp.w 0x59357a(pc), d0
       < 0x005970de      66000122       bne.w 0x597202
          0x005970e2      206e000e       movea.l 0xe(a6), a0
          0x005970e6      4850           pea.l (a0)
          0x005970e8      486effea       pea.l -0x16(a6)
          0x005970ec      226efff2       movea.l -0xe(a6), a1
          0x005970f0      b3e9fffc       cmpa.l -0x4(a1), a1
      < 0x005970f4      6702           beq.b 0x5970f8
         0x005970f6      4e4d           trap 0xd
      > 0x005970f8      1029000c       move.b 0xc(a1), d0
          0x005970fc      4880           ext.w d0
          0x005970fe      4186           chk.w d6, d0
          0x00597100      1f00           move.b d0, -(a7)
          0x00597102      486effe2       pea.l -0x1e(a6)
          0x00597106      4ebad706       jsr K0_DISKMGR.k0_inc_ref(pc)
          0x0059710a      defc000e       adda.w 0xe, a7
          0x0059710e      102effe2       move.b -0x1e(a6), d0
          0x00597112      b03ac469       cmp.b 0x59357d(pc), d0
      < 0x00597116      6608           bne.b 0x597120
         0x00597118      102effe3       move.b -0x1d(a6), d0
         0x0059711c      b03ac460       cmp.b 0x59357e(pc), d0
     > 0x00597120      660000c0       bne.w 0x5971e2
         0x00597124      b9ecfffc       cmpa.l -0x4(a4), a4
     < 0x00597128      6702           beq.b 0x59712c
        0x0059712a      4e4d           trap 0xd
     > 0x0059712c      422c0009       clr.b 0x9(a4)
         0x00597130      554f           subq.w 0x2, a7
         0x00597132      1f3c001b       move.b 0x1b, -(a7)
         0x00597136      4eb900598cca   jsr K01_DEBUG.k01_debug
         0x0059713c      544f           addq.w 0x2, a7
         0x0059713e      4a1f           tst.b (a7)+
     < 0x00597140      6738           beq.b 0x59717a
        0x00597142      487ac43c       pea.l 0x593580(pc)
        0x00597146      4878001b       pea.l 0x1b
        0x0059714a      2f17           move.l (a7), -(a7)
        0x0059714c      4eb9004047ea   jsr p_wts_o
        0x00597152      dec2           adda.w d2, a7
        0x00597154      226effea       movea.l -0x16(a6), a1
        0x00597158      b3e9fffc       cmpa.l -0x4(a1), a1
    < 0x0059715c      6702           beq.b 0x597160
       0x0059715e      4e4d           trap 0xd
    > 0x00597160      30290014       move.w 0x14(a1), d0
        0x00597164      48c0           ext.l d0
        0x00597166      2f00           move.l d0, -(a7)
        0x00597168      48780000       pea.l 0x0
        0x0059716c      4eb9004070e4   jsr p_wti_o
        0x00597172      504f           addq.w 0x8, a7
        0x00597174      4eb900404946   jsr p_wtln_o
     > 0x0059717a      554f           subq.w 0x2, a7
         0x0059717c      1f04           move.b d4, -(a7)
         0x0059717e      4eb900598cca   jsr K01_DEBUG.k01_debug
         0x00597184      544f           addq.w 0x2, a7
         0x00597186      4a1f           tst.b (a7)+
     < 0x00597188      6700009c       beq.w 0x597226
        0x0059718c      9efc0100       suba.w 0x100, a7
        0x00597190      226effea       movea.l -0x16(a6), a1
        0x00597194      b3e9fffc       cmpa.l -0x4(a1), a1
    < 0x00597198      6702           beq.b 0x59719c
       0x0059719a      4e4d           trap 0xd
    > 0x0059719c      9ec5           suba.w d5, a7
        0x0059719e      244f           movea.l a7, a2
        0x005971a0      43e90008       lea.l 0x8(a1), a1
        0x005971a4      7009           moveq 0x9, d0
    > 0x005971a6      14d9           move.b (a1)+, (a2)+
    < 0x005971a8      51c8fffc       dbra d0, 0x5971a6
        0x005971ac      4ebac738       jsr K0_DISKMGR.fid_str(pc)
        0x005971b0      dec5           adda.w d5, a7
        0x005971b2      487ac3e8       pea.l 0x59359c(pc)
        0x005971b6      48780004       pea.l 0x4
        0x005971ba      2f17           move.l (a7), -(a7)
        0x005971bc      4eb9004047ea   jsr p_wts_o
        0x005971c2      dec2           adda.w d2, a7
        0x005971c4      486f0001       pea.l 0x1(a7)
        0x005971c8      42a7           clr.l -(a7)
        0x005971ca      1f6f00080003   move.b 0x8(a7), 0x3(a7)
        0x005971d0      2f17           move.l (a7), -(a7)
        0x005971d2      4eb9004047ea   jsr p_wts_o
        0x005971d8      dec4           adda.w d4, a7
        0x005971da      4eb900404946   jsr p_wtln_o
    < 0x005971e0      6044           bra.b 0x597226
    > 0x005971e2      226effea       movea.l -0x16(a6), a1
        0x005971e6      b3e9fffc       cmpa.l -0x4(a1), a1
    < 0x005971ea      6702           beq.b 0x5971ee
       0x005971ec      4e4d           trap 0xd
    > 0x005971ee      237cffffffff.  move.l 0xffffffff, 0x8(a1)
        0x005971f6      486effea       pea.l -0x16(a6)
        0x005971fa      4ebacef2       jsr K0_DISKMGR.disp_file(pc)
        0x005971fe      584f           addq.w 0x4, a7
    < 0x00597200      6022           bra.b 0x597224
    > 0x00597202      206effea       movea.l -0x16(a6), a0
        0x00597206      b1e8fffc       cmpa.l -0x4(a0), a0
    < 0x0059720a      6702           beq.b 0x59720e
       0x0059720c      4e4d           trap 0xd
    > 0x0059720e      217cffffffff.  move.l 0xffffffff, 0x8(a0)
        0x00597216      486effea       pea.l -0x16(a6)
        0x0059721a      4ebaced2       jsr K0_DISKMGR.disp_file(pc)
        0x0059721e      584f           addq.w 0x4, a7
        0x00597220      206e000e       movea.l 0xe(a6), a0
    > 0x00597224      2083           move.l d3, (a0)
    > 0x00597226      1d7ac379ffe4   move.b 0x5935a1(pc), -0x1c(a6)
           0x0059722c      1d7ac374ffe5   move.b 0x5935a2(pc), -0x1b(a6)
           0x00597232      206effe6       movea.l -0x1a(a6), a0
           0x00597236      b0c3           cmpa.w d3, a0
       < 0x00597238      670e           beq.b 0x597248
          0x0059723a      486effe6       pea.l -0x1a(a6)
          0x0059723e      486effe4       pea.l -0x1c(a6)
          0x00597242      4ebad1fc       jsr K0_DISKMGR.k0_purge_ref(pc)
          0x00597246      504f           addq.w 0x8, a7
       > 0x00597248      302effe4       move.w -0x1c(a6), d0
           0x0059724c      b07ac356       cmp.w 0x5935a4(pc), d0
       < 0x00597250      6706           beq.b 0x597258
          0x00597252      3d6effe4ffe2   move.w -0x1c(a6), -0x1e(a6)
       > 0x00597258      3d6effe20012   move.w -0x1e(a6), 0x12(a6)
           0x0059725e      554f           subq.w 0x2, a7
           0x00597260      1f04           move.b d4, -(a7)
           0x00597262      4eb900598cca   jsr K01_DEBUG.k01_debug
           0x00597268      544f           addq.w 0x2, a7
           0x0059726a      4a1f           tst.b (a7)+
       < 0x0059726c      6762           beq.b 0x5972d0
          0x0059726e      487ac337       pea.l 0x5935a7(pc)
          0x00597272      48780021       pea.l 0x21
          0x00597276      2f17           move.l (a7), -(a7)
          0x00597278      4eb9004047ea   jsr p_wts_o
          0x0059727e      dec2           adda.w d2, a7
          0x00597280      486effe2       pea.l -0x1e(a6)
          0x00597284      48780002       pea.l 0x2
          0x00597288      2f17           move.l (a7), -(a7)
          0x0059728a      4eb9004047ea   jsr p_wts_o
          0x00597290      dec2           adda.w d2, a7
          0x00597292      487ac335       pea.l 0x5935c9(pc)
          0x00597296      48780007       pea.l 0x7
          0x0059729a      2f17           move.l (a7), -(a7)
          0x0059729c      4eb9004047ea   jsr p_wts_o
          0x005972a2      dec2           adda.w d2, a7
          0x005972a4      206e000e       movea.l 0xe(a6), a0
          0x005972a8      594f           subq.w 0x4, a7
          0x005972aa      1e90           move.b (a0), (a7)
          0x005972ac      1f6800010001   move.b 0x1(a0), 0x1(a7)
          0x005972b2      1f6800020002   move.b 0x2(a0), 0x2(a7)
          0x005972b8      1f6800030003   move.b 0x3(a0), 0x3(a7)
          0x005972be      4878ffff       pea.l 0xffff
          0x005972c2      4eb9004070e4   jsr p_wti_o
          0x005972c8      504f           addq.w 0x8, a7
          0x005972ca      4eb900404946   jsr p_wtln_o
       > 0x005972d0      4cdf1fff       movem.l (a7)+, d0-d7/a0-a4
           0x005972d4      4e5e           unlk a6
           0x005972d6      4e75           rts
            ; XREFS: CALL 0x004a8c4e  CALL 0x004ab626  CALL 0x004c099e  
            ; XREFS: CALL 0x004fb338  CALL 0x004fb672  CALL 0x005b2942  
            ; XREFS: CALL 0x005b2c2a  CALL 0x005b5246  CALL 0x0068bbf8  
 128: K0_DISKMGR.k_end_search ();
           0x005972d8      4e56ffde       link.w a6, 0xffde
           0x005972dc      bfd5           cmpa.l (a5), a7
       < 0x005972de      6206           bhi.b 0x5972e6
          0x005972e0      44fc0002       move.w 0x2, ccr
          0x005972e4      4e76           trapv
       > 0x005972e6      defc001c       adda.w 0x1c, a7
           0x005972ea      48e780c0       movem.l d0/a0-a1, -(a7)
           0x005972ee      43eefffa       lea.l -0x6(a6), a1
           0x005972f2      554f           subq.w 0x2, a7
           0x005972f4      1f3c000d       move.b 0xd, -(a7)
           0x005972f8      4eb900598cca   jsr K01_DEBUG.k01_debug
           0x005972fe      544f           addq.w 0x2, a7
           0x00597300      4a1f           tst.b (a7)+
       < 0x00597302      671a           beq.b 0x59731e
          0x00597304      487ac2cb       pea.l 0x5935d1(pc)
          0x00597308      4878000c       pea.l 0xc
          0x0059730c      2f17           move.l (a7), -(a7)
          0x0059730e      4eb9004047ea   jsr p_wts_o
          0x00597314      defc000c       adda.w 0xc, a7
          0x00597318      4eb900404946   jsr p_wtln_o
       > 0x0059731e      206e000c       movea.l 0xc(a6), a0
           0x00597322      594f           subq.w 0x4, a7
           0x00597324      4850           pea.l (a0)
           0x00597326      4ebaca62       jsr K0_DISKMGR.gen_search_ptr(pc)
           0x0059732a      584f           addq.w 0x4, a7
           0x0059732c      2d57fffc       move.l (a7), -0x4(a6)
           0x00597330      544f           addq.w 0x2, a7
           0x00597332      486efffc       pea.l -0x4(a6)
           0x00597336      4ebaebf6       jsr K0_DISKMGR.lose_search(pc)
           0x0059733a      584f           addq.w 0x4, a7
           0x0059733c      329f           move.w (a7)+, (a1)
           0x0059733e      3011           move.w (a1), d0
           0x00597340      b07ac29c       cmp.w 0x5935de(pc), d0
       < 0x00597344      6606           bne.b 0x59734c
          0x00597346      20bc00000001   move.l 0x1, (a0)
       > 0x0059734c      3d510010       move.w (a1), 0x10(a6)
           0x00597350      4cdf0301       movem.l (a7)+, d0/a0-a1
           0x00597354      4e5e           unlk a6
           0x00597356      4e75           rts
            ; CALL XREF from K7_HANDLERS.k7_find_and_loa @ 0x5b4ffa
            ; CALL XREF from PALETCOM.fetch_welcome_p @ 0x638a5a
 930: K0_DISKMGR.k_find_file ();
           ; var int32_t var_3ff6h @ a6-0x3ff6
           ; var int32_t var_3edeh @ a6-0x3ede
           ; var int32_t var_3e72h @ a6-0x3e72
           ; var int32_t var_3dc2h @ a6-0x3dc2
           0x00597358      4e56fe52       link.w a6, 0xfe52
           0x0059735c      bfd5           cmpa.l (a5), a7
       < 0x0059735e      6206           bhi.b 0x597366
          0x00597360      44fc0002       move.w 0x2, ccr
          0x00597364      4e76           trapv
       > 0x00597366      defc019e       adda.w 0x19e, a7
           0x0059736a      48e7fff8       movem.l d0-d7/a0-a4, -(a7)
           0x0059736e      45eefffc       lea.l -0x4(a6), a2
           0x00597372      47f9004047ea   lea.l p_wts_o, a3
           0x00597378      720c           moveq 0xc, d1
           0x0059737a      7401           moveq 0x1, d2
           0x0059737c      363c010e       move.w 0x10e, d3
           0x00597380      7852           moveq 0x52, d4
           0x00597382      7a07           moveq 0x7, d5
           0x00597384      7c0e           moveq 0xe, d6
           0x00597386      554f           subq.w 0x2, a7
           0x00597388      1f06           move.b d6, -(a7)
           0x0059738a      4eb900598cca   jsr K01_DEBUG.k01_debug
           0x00597390      544f           addq.w 0x2, a7
           0x00597392      4a1f           tst.b (a7)+
       < 0x00597394      6714           beq.b 0x5973aa
          0x00597396      487ac249       pea.l 0x5935e1(pc)
          0x0059739a      4878000b       pea.l 0xb
          0x0059739e      2f17           move.l (a7), -(a7)
          0x005973a0      4e93           jsr (a3)                    ; fcn.0000000c
          0x005973a2      dec1           adda.w d1, a7
          0x005973a4      4eb900404946   jsr p_wtln_o
       > 0x005973aa      14bac241       move.b 0x5935ed(pc), (a2)
           0x005973ae      1d7ac23efffd   move.b 0x5935ee(pc), -0x3(a6)
           0x005973b4      206e0008       movea.l 0x8(a6), a0
           0x005973b8      594f           subq.w 0x4, a7
           0x005973ba      4850           pea.l (a0)
           0x005973bc      1f02           move.b d2, -(a7)
           0x005973be      4852           pea.l (a2)
           0x005973c0      4ebac7f2       jsr K0_DISKMGR.k0_gen_file_ptr(pc)
           0x005973c4      defc000a       adda.w 0xa, a7
           0x005973c8      2d57fff0       move.l (a7), -0x10(a6)
           0x005973cc      544f           addq.w 0x2, a7
           0x005973ce      4850           pea.l (a0)
           0x005973d0      486efff0       pea.l -0x10(a6)
           0x005973d4      4ebad3aa       jsr K0_DISKMGR.k0_lose_ref(pc)
           0x005973d8      504f           addq.w 0x8, a7
           0x005973da      349f           move.w (a7)+, (a2)
           0x005973dc      4850           pea.l (a0)
           0x005973de      486efff4       pea.l -0xc(a6)
           0x005973e2      4ebacc5c       jsr K0_DISKMGR.new_file(pc)
           0x005973e6      504f           addq.w 0x8, a7
           0x005973e8      206efff4       movea.l -0xc(a6), a0
           0x005973ec      b0c2           cmpa.w d2, a0
       < 0x005973ee      6604           bne.b 0x5973f4
          0x005973f0      34bac1fe       move.w 0x5935f0(pc), (a2)
       > 0x005973f4      1012           move.b (a2), d0
           0x005973f6      b03ac1fb       cmp.b 0x5935f3(pc), d0
       < 0x005973fa      6608           bne.b 0x597404
          0x005973fc      102efffd       move.b -0x3(a6), d0
          0x00597400      b03ac1f2       cmp.b 0x5935f4(pc), d0
      > 0x00597404      660002e8       bne.w 0x5976ee
          0x00597408      594f           subq.w 0x4, a7
          0x0059740a      4eb9005a032e   jsr K03_DISKLIST.k03_vol_list_he
          0x00597410      285f           movea.l (a7)+, a4
      > 0x00597412      1f02           move.b d2, -(a7)
         0x00597414      4eb9005a085c   jsr K03_DISKLIST.k03_lock_vol_ga
         0x0059741a      544f           addq.w 0x2, a7
         0x0059741c      7e00           moveq 0x0, d7
     > 0x0059741e      4a07           tst.b d7
    < 0x00597420      663a           bne.b 0x59745c
       0x00597422      b8c2           cmpa.w d2, a4
   < 0x00597424      6736           beq.b 0x59745c
      0x00597426      554f           subq.w 0x2, a7
      0x00597428      2f0c           move.l a4, -(a7)
      0x0059742a      2f2e0018       move.l 0x18(a6), -(a7)
      0x0059742e      2f2e0014       move.l 0x14(a6), -(a7)
      0x00597432      2f2e0010       move.l 0x10(a6), -(a7)
      0x00597436      2f2e000c       move.l 0xc(a6), -(a7)
      0x0059743a      4eb9005a0098   jsr K03_DISKLIST.k03_check_vol
      0x00597440      defc0014       adda.w 0x14, a7
      0x00597444      101f           move.b (a7)+, d0
      0x00597446      4880           ext.w d0
      0x00597448      4182           chk.w d2, d0
      0x0059744a      1e00           move.b d0, d7
  < 0x0059744c      660c           bne.b 0x59745a
     0x0059744e      b9ecfffc       cmpa.l -0x4(a4), a4
 < 0x00597452      6702           beq.b 0x597456
    0x00597454      4e4d           trap 0xd
 > 0x00597456      286c0004       movea.l 0x4(a4), a4
  < 0x0059745a      60c2           bra.b 0x59741e
   > 0x0059745c      4a07           tst.b d7
     < 0x0059745e      6706           beq.b 0x597466
        0x00597460      34bac194       move.w 0x5935f6(pc), (a2)
    < 0x00597464      600a           bra.b 0x597470
    > 0x00597466      14bac191       move.b 0x5935f9(pc), (a2)
        0x0059746a      1d7ac18efffd   move.b 0x5935fa(pc), -0x3(a6)
    > 0x00597470      3012           move.w (a2), d0
         0x00597472      b07ac188       cmp.w 0x5935fc(pc), d0
     < 0x00597476      6622           bne.b 0x59749a
        0x00597478      206efff4       movea.l -0xc(a6), a0
        0x0059747c      b1e8fffc       cmpa.l -0x4(a0), a0
    < 0x00597480      6702           beq.b 0x597484
       0x00597482      4e4d           trap 0xd
    > 0x00597484      217cffffffff.  move.l 0xffffffff, 0xc(a0)
        0x0059748c      b9ecfffc       cmpa.l -0x4(a4), a4
    < 0x00597490      6702           beq.b 0x597494
       0x00597492      4e4d           trap 0xd
    > 0x00597494      216c000e0008   move.l 0xe(a4), 0x8(a0)
     > 0x0059749a      554f           subq.w 0x2, a7
         0x0059749c      1f06           move.b d6, -(a7)
         0x0059749e      4eb900598cca   jsr K01_DEBUG.k01_debug
         0x005974a4      544f           addq.w 0x2, a7
         0x005974a6      4a1f           tst.b (a7)+
     < 0x005974a8      6720           beq.b 0x5974ca
        0x005974aa      487ac153       pea.l 0x5935ff(pc)
        0x005974ae      48780013       pea.l 0x13
        0x005974b2      2f17           move.l (a7), -(a7)
        0x005974b4      4e93           jsr (a3)                    ; fcn.0000000c
        0x005974b6      dec1           adda.w d1, a7
        0x005974b8      4852           pea.l (a2)
        0x005974ba      48780002       pea.l 0x2
        0x005974be      2f17           move.l (a7), -(a7)
        0x005974c0      4e93           jsr (a3)                    ; fcn.0000000c
        0x005974c2      dec1           adda.w d1, a7
        0x005974c4      4eb900404946   jsr p_wtln_o
     > 0x005974ca      1012           move.b (a2), d0
         0x005974cc      b03ac145       cmp.b 0x593613(pc), d0
     < 0x005974d0      6608           bne.b 0x5974da
        0x005974d2      102efffd       move.b -0x3(a6), d0
        0x005974d6      b03ac13c       cmp.b 0x593614(pc), d0
    > 0x005974da      6620           bne.b 0x5974fc
        0x005974dc      b9ecfffc       cmpa.l -0x4(a4), a4
    < 0x005974e0      6702           beq.b 0x5974e4
       0x005974e2      4e4d           trap 0xd
    > 0x005974e4      082c0004001a   btst.b 0x4, 0x1a(a4)
    < 0x005974ea      6706           beq.b 0x5974f2
       0x005974ec      34bac128       move.w 0x593616(pc), (a2)
   < 0x005974f0      600a           bra.b 0x5974fc
   > 0x005974f2      14bac125       move.b 0x593619(pc), (a2)
       0x005974f6      1d7ac122fffd   move.b 0x59361a(pc), -0x3(a6)
   > 0x005974fc      554f           subq.w 0x2, a7
         0x005974fe      1f06           move.b d6, -(a7)
         0x00597500      4eb900598cca   jsr K01_DEBUG.k01_debug
         0x00597506      544f           addq.w 0x2, a7
         0x00597508      4a1f           tst.b (a7)+
     < 0x0059750a      6720           beq.b 0x59752c
        0x0059750c      487ac10e       pea.l 0x59361c(pc)
        0x00597510      48780016       pea.l 0x16
        0x00597514      2f17           move.l (a7), -(a7)
        0x00597516      4e93           jsr (a3)                    ; fcn.0000000c
        0x00597518      dec1           adda.w d1, a7
        0x0059751a      4852           pea.l (a2)
        0x0059751c      48780002       pea.l 0x2
        0x00597520      2f17           move.l (a7), -(a7)
        0x00597522      4e93           jsr (a3)                    ; fcn.0000000c
        0x00597524      dec1           adda.w d1, a7
        0x00597526      4eb900404946   jsr p_wtln_o
     > 0x0059752c      4227           clr.b -(a7)
         0x0059752e      4eb9005a085c   jsr K03_DISKLIST.k03_lock_vol_ga
         0x00597534      544f           addq.w 0x2, a7
         0x00597536      1012           move.b (a2), d0
         0x00597538      b03ac0f9       cmp.b 0x593633(pc), d0
     < 0x0059753c      6608           bne.b 0x597546
        0x0059753e      102efffd       move.b -0x3(a6), d0
        0x00597542      b03ac0f0       cmp.b 0x593634(pc), d0
    > 0x00597546      6664           bne.b 0x5975ac
        0x00597548      b9ecfffc       cmpa.l -0x4(a4), a4
    < 0x0059754c      6702           beq.b 0x597550
       0x0059754e      4e4d           trap 0xd
    > 0x00597550      9ec4           suba.w d4, a7
        0x00597552      204f           movea.l a7, a0
        0x00597554      43ee001c       lea.l 0x1c(a6), a1
        0x00597558      7013           moveq 0x13, d0
    > 0x0059755a      20d9           move.l (a1)+, (a0)+
    < 0x0059755c      51c8fffc       dbra d0, 0x59755a
        0x00597560      10d9           move.b (a1)+, (a0)+
        0x00597562      554f           subq.w 0x2, a7
        0x00597564      102c000c       move.b 0xc(a4), d0
        0x00597568      4880           ext.w d0
        0x0059756a      4185           chk.w d5, d0
        0x0059756c      1f00           move.b d0, -(a7)
        0x0059756e      2f2c000e       move.l 0xe(a4), -(a7)
        0x00597572      206efff4       movea.l -0xc(a6), a0
        0x00597576      b1e8fffc       cmpa.l -0x4(a0), a0
    < 0x0059757a      6702           beq.b 0x59757e
       0x0059757c      4e4d           trap 0xd
    > 0x0059757e      48680008       pea.l 0x8(a0)
        0x00597582      9efc0100       suba.w 0x100, a7
        0x00597586      486f010c       pea.l 0x10c(a7)
        0x0059758a      4267           clr.w -(a7)
        0x0059758c      3f3c0050       move.w 0x50, -(a7)
        0x00597590      4eb9005b057c   jsr K3_UTILS.k3_string
        0x00597596      5c4f           addq.w 0x6, a7
        0x00597598      1eae006d       move.b 0x6d(a6), (a7)
        0x0059759c      3f2e006e       move.w 0x6e(a6), -(a7)
        0x005975a0      4eb9005abc00   jsr K1_AFS_ONLY.k1_find_file
        0x005975a6      dec3           adda.w d3, a7
        0x005975a8      349f           move.w (a7)+, (a2)
        0x005975aa      dec4           adda.w d4, a7
    > 0x005975ac      554f           subq.w 0x2, a7
         0x005975ae      1f06           move.b d6, -(a7)
         0x005975b0      4eb900598cca   jsr K01_DEBUG.k01_debug
         0x005975b6      544f           addq.w 0x2, a7
         0x005975b8      4a1f           tst.b (a7)+
     < 0x005975ba      6720           beq.b 0x5975dc
        0x005975bc      487ac078       pea.l 0x593636(pc)
        0x005975c0      48780014       pea.l 0x14
        0x005975c4      2f17           move.l (a7), -(a7)
        0x005975c6      4e93           jsr (a3)                    ; fcn.0000000c
        0x005975c8      dec1           adda.w d1, a7
        0x005975ca      4852           pea.l (a2)
        0x005975cc      48780002       pea.l 0x2
        0x005975d0      2f17           move.l (a7), -(a7)
        0x005975d2      4e93           jsr (a3)                    ; fcn.0000000c
        0x005975d4      dec1           adda.w d1, a7
        0x005975d6      4eb900404946   jsr p_wtln_o
     > 0x005975dc      1012           move.b (a2), d0
         0x005975de      b03ac06b       cmp.b 0x59364b(pc), d0
     < 0x005975e2      6608           bne.b 0x5975ec
        0x005975e4      102efffd       move.b -0x3(a6), d0
        0x005975e8      b03ac062       cmp.b 0x59364c(pc), d0
    > 0x005975ec      6724           beq.b 0x597612
        0x005975ee      b8c2           cmpa.w d2, a4
    < 0x005975f0      6720           beq.b 0x597612
       0x005975f2      1f02           move.b d2, -(a7)
       0x005975f4      4eb9005a085c   jsr K03_DISKLIST.k03_lock_vol_ga
       0x005975fa      544f           addq.w 0x2, a7
       0x005975fc      b9ecfffc       cmpa.l -0x4(a4), a4
   < 0x00597600      6702           beq.b 0x597604
      0x00597602      4e4d           trap 0xd
   > 0x00597604      286c0004       movea.l 0x4(a4), a4
       0x00597608      4227           clr.b -(a7)
       0x0059760a      4eb9005a085c   jsr K03_DISKLIST.k03_lock_vol_ga
       0x00597610      544f           addq.w 0x2, a7
    > 0x00597612      3012           move.w (a2), d0
         0x00597614      b07ac038       cmp.w 0x59364e(pc), d0
     < 0x00597618      6706           beq.b 0x597620
        0x0059761a      b8c2           cmpa.w d2, a4
     < 0x0059761c      6600fdf4       bne.w 0x597412
     > 0x00597620      554f           subq.w 0x2, a7
          0x00597622      1f06           move.b d6, -(a7)
          0x00597624      4eb900598cca   jsr K01_DEBUG.k01_debug
          0x0059762a      544f           addq.w 0x2, a7
          0x0059762c      4a1f           tst.b (a7)+
      < 0x0059762e      6720           beq.b 0x597650
         0x00597630      487ac01f       pea.l 0x593651(pc)
         0x00597634      48780012       pea.l 0x12
         0x00597638      2f17           move.l (a7), -(a7)
         0x0059763a      4e93           jsr (a3)                    ; fcn.0000000c
         0x0059763c      dec1           adda.w d1, a7
         0x0059763e      4852           pea.l (a2)
         0x00597640      48780002       pea.l 0x2
         0x00597644      2f17           move.l (a7), -(a7)
         0x00597646      4e93           jsr (a3)                    ; fcn.0000000c
         0x00597648      dec1           adda.w d1, a7
         0x0059764a      4eb900404946   jsr p_wtln_o
      > 0x00597650      3012           move.w (a2), d0
          0x00597652      b07ac010       cmp.w 0x593664(pc), d0
      < 0x00597656      671c           beq.b 0x597674
         0x00597658      14bac00d       move.b 0x593667(pc), (a2)
         0x0059765c      1d7ac00afffd   move.b 0x593668(pc), -0x3(a6)
         0x00597662      486efff4       pea.l -0xc(a6)
         0x00597666      4ebaca86       jsr K0_DISKMGR.disp_file(pc)
         0x0059766a      584f           addq.w 0x4, a7
         0x0059766c      206e0008       movea.l 0x8(a6), a0
         0x00597670      2082           move.l d2, (a0)
     < 0x00597672      6024           bra.b 0x597698
     > 0x00597674      206e0008       movea.l 0x8(a6), a0
         0x00597678      4850           pea.l (a0)
         0x0059767a      486efff4       pea.l -0xc(a6)
         0x0059767e      b9ecfffc       cmpa.l -0x4(a4), a4
     < 0x00597682      6702           beq.b 0x597686
        0x00597684      4e4d           trap 0xd
     > 0x00597686      102c000c       move.b 0xc(a4), d0
         0x0059768a      4880           ext.w d0
         0x0059768c      4185           chk.w d5, d0
         0x0059768e      1f00           move.b d0, -(a7)
         0x00597690      4852           pea.l (a2)
         0x00597692      4ebad17a       jsr K0_DISKMGR.k0_inc_ref(pc)
         0x00597696      dec6           adda.w d6, a7
     > 0x00597698      554f           subq.w 0x2, a7
          0x0059769a      1f3c001b       move.b 0x1b, -(a7)
          0x0059769e      4eb900598cca   jsr K01_DEBUG.k01_debug
          0x005976a4      544f           addq.w 0x2, a7
          0x005976a6      4a1f           tst.b (a7)+
      < 0x005976a8      6610           bne.b 0x5976ba
         0x005976aa      554f           subq.w 0x2, a7
         0x005976ac      1f06           move.b d6, -(a7)
         0x005976ae      4eb900598cca   jsr K01_DEBUG.k01_debug
         0x005976b4      544f           addq.w 0x2, a7
         0x005976b6      4a1f           tst.b (a7)+
     < 0x005976b8      6734           beq.b 0x5976ee
     > 0x005976ba      487abfae       pea.l 0x59366a(pc)
         0x005976be      48780016       pea.l 0x16
         0x005976c2      2f17           move.l (a7), -(a7)
         0x005976c4      4e93           jsr (a3)                    ; fcn.0000000c
         0x005976c6      dec1           adda.w d1, a7
         0x005976c8      206efff4       movea.l -0xc(a6), a0
         0x005976cc      b1e8fffc       cmpa.l -0x4(a0), a0
     < 0x005976d0      6702           beq.b 0x5976d4
        0x005976d2      4e4d           trap 0xd
     > 0x005976d4      30280014       move.w 0x14(a0), d0
         0x005976d8      48c0           ext.l d0
         0x005976da      2f00           move.l d0, -(a7)
         0x005976dc      48780000       pea.l 0x0
         0x005976e0      4eb9004070e4   jsr p_wti_o
         0x005976e6      504f           addq.w 0x8, a7
         0x005976e8      4eb900404946   jsr p_wtln_o
     > 0x005976ee      3d520070       move.w (a2), 0x70(a6)
           0x005976f2      4cdf1fff       movem.l (a7)+, d0-d7/a0-a4
           0x005976f6      4e5e           unlk a6
           0x005976f8      4e75           rts
            ; XREFS: CALL 0x004c067e  CALL 0x004fb2a8  CALL 0x004fb6c0  
            ; XREFS: CALL 0x005b51f6  CALL 0x0064f552  CALL 0x00666290  
            ; XREFS: CALL 0x00666cd0  CALL 0x00667282  CALL 0x006675d2  
            ; XREFS: CALL 0x006710d8  CALL 0x006721de  CALL 0x00672e80  
 758: K0_DISKMGR.k_delete_file ();
           ; var int32_t var_41ach @ a6-0x41ac
           ; var int32_t var_41a7h @ a6-0x41a7
           ; var int32_t var_41a2h @ a6-0x41a2
           ; var int32_t var_417ah @ a6-0x417a
           ; var int32_t var_4140h @ a6-0x4140
           ; var int32_t var_413bh @ a6-0x413b
           ; var int32_t var_4106h @ a6-0x4106
           ; var int32_t var_4101h @ a6-0x4101
           ; var int32_t var_40cah @ a6-0x40ca
           ; var int32_t var_4ch @ a6-0x4c
           0x005976fa      4e56fe6c       link.w a6, 0xfe6c
           0x005976fe      bfd5           cmpa.l (a5), a7
       < 0x00597700      6206           bhi.b 0x597708
          0x00597702      44fc0002       move.w 0x2, ccr
          0x00597706      4e76           trapv
       > 0x00597708      defc0140       adda.w 0x140, a7
           0x0059770c      48e7fef8       movem.l d0-d6/a0-a4, -(a7)
           0x00597710      7201           moveq 0x1, d1
           0x00597712      740c           moveq 0xc, d2
           0x00597714      363c0102       move.w 0x102, d3
           0x00597718      7816           moveq 0x16, d4
           0x0059771a      7a0a           moveq 0xa, d5
           0x0059771c      7c07           moveq 0x7, d6
           0x0059771e      23fabf600083.  move.l 0x593680(pc), 0x83fcfe.l
           0x00597726      33fabf5c0083.  move.w 0x593684(pc), 0x83fd02.l
           0x0059772e      13fabf560083.  move.b 0x593686(pc), 0x83fd04.l
           0x00597736      554f           subq.w 0x2, a7
           0x00597738      1f04           move.b d4, -(a7)
           0x0059773a      4eb900598cca   jsr K01_DEBUG.k01_debug
           0x00597740      544f           addq.w 0x2, a7
           0x00597742      4a1f           tst.b (a7)+
       < 0x00597744      6718           beq.b 0x59775e
          0x00597746      487abf40       pea.l 0x593688(pc)
          0x0059774a      4878000d       pea.l 0xd
          0x0059774e      2f17           move.l (a7), -(a7)
          0x00597750      4eb9004047ea   jsr p_wts_o
          0x00597756      dec2           adda.w d2, a7
          0x00597758      4eb900404946   jsr p_wtln_o
       > 0x0059775e      3d7abf36ffb4   move.w 0x593696(pc), -0x4c(a6)
           0x00597764      554f           subq.w 0x2, a7
           0x00597766      486effb6       pea.l -0x4a(a6)
           0x0059776a      4eb900404434   jsr fcn.00404434
           0x00597770      584f           addq.w 0x4, a7
           0x00597772      4a1f           tst.b (a7)+
       < 0x00597774      67000220       beq.w 0x597996
          0x00597778      206e0008       movea.l 0x8(a6), a0
          0x0059777c      594f           subq.w 0x4, a7
          0x0059777e      4850           pea.l (a0)
          0x00597780      1f01           move.b d1, -(a7)
          0x00597782      486effb4       pea.l -0x4c(a6)
          0x00597786      4ebac42c       jsr K0_DISKMGR.k0_gen_file_ptr(pc)
          0x0059778a      dec5           adda.w d5, a7
          0x0059778c      2d5fffac       move.l (a7)+, -0x54(a6)
          0x00597790      226effac       movea.l -0x54(a6), a1
          0x00597794      b2c1           cmpa.w d1, a1
      < 0x00597796      660c           bne.b 0x5977a4
         0x00597798      1d7abeffffb4   move.b 0x593699(pc), -0x4c(a6)
         0x0059779e      1d7abefaffb5   move.b 0x59369a(pc), -0x4b(a6)
      > 0x005977a4      9ec3           suba.w d3, a7
          0x005977a6      244f           movea.l a7, a2
          0x005977a8      47fabef1       lea.l 0x59369b(pc), a3
          0x005977ac      7014           moveq 0x14, d0
      > 0x005977ae      14db           move.b (a3)+, (a2)+
      < 0x005977b0      51c8fffc       dbra d0, 0x5977ae
          0x005977b4      3f2effb4       move.w -0x4c(a6), -(a7)
          0x005977b8      4ebac6b2       jsr K0_DISKMGR.warn_if_fail(pc)
          0x005977bc      dec3           adda.w d3, a7
          0x005977be      4a1f           tst.b (a7)+
      < 0x005977c0      670c           beq.b 0x5977ce
         0x005977c2      486effb6       pea.l -0x4a(a6)
         0x005977c6      4eb900404468   jsr fcn.00404468
         0x005977cc      584f           addq.w 0x4, a7
      > 0x005977ce      b3e9fffc       cmpa.l -0x4(a1), a1
      < 0x005977d2      6702           beq.b 0x5977d6
         0x005977d4      4e4d           trap 0xd
      > 0x005977d6      594f           subq.w 0x4, a7
          0x005977d8      2f290008       move.l 0x8(a1), -(a7)
          0x005977dc      1f01           move.b d1, -(a7)
          0x005977de      4ebac300       jsr K0_DISKMGR.k0_gen_vol_ptr(pc)
          0x005977e2      5c4f           addq.w 0x6, a7
          0x005977e4      285f           movea.l (a7)+, a4
          0x005977e6      b8c1           cmpa.w d1, a4
      < 0x005977e8      660c           bne.b 0x5977f6
         0x005977ea      1d7abec5ffb4   move.b 0x5936b1(pc), -0x4c(a6)
         0x005977f0      1d7abec0ffb5   move.b 0x5936b2(pc), -0x4b(a6)
      > 0x005977f6      554f           subq.w 0x2, a7
          0x005977f8      1f04           move.b d4, -(a7)
          0x005977fa      4eb900598cca   jsr K01_DEBUG.k01_debug
          0x00597800      544f           addq.w 0x2, a7
          0x00597802      4a1f           tst.b (a7)+
      < 0x00597804      672c           beq.b 0x597832
         0x00597806      487abeac       pea.l 0x5936b4(pc)
         0x0059780a      4878000d       pea.l 0xd
         0x0059780e      2f17           move.l (a7), -(a7)
         0x00597810      4eb9004047ea   jsr p_wts_o
         0x00597816      dec2           adda.w d2, a7
         0x00597818      30290014       move.w 0x14(a1), d0
         0x0059781c      48c0           ext.l d0
         0x0059781e      2f00           move.l d0, -(a7)
         0x00597820      48780000       pea.l 0x0
         0x00597824      4eb9004070e4   jsr p_wti_o
         0x0059782a      504f           addq.w 0x8, a7
         0x0059782c      4eb900404946   jsr p_wtln_o
      > 0x00597832      30290014       move.w 0x14(a1), d0
          0x00597836      b041           cmp.w d1, d0
      < 0x00597838      6f50           ble.b 0x59788a
         0x0059783a      3d7abe86ffb4   move.w 0x5936c2(pc), -0x4c(a6)
         0x00597840      487abe83       pea.l 0x5936c5(pc)
         0x00597844      4878000e       pea.l 0xe
         0x00597848      2f17           move.l (a7), -(a7)
         0x0059784a      4eb9004047ea   jsr p_wts_o
         0x00597850      dec2           adda.w d2, a7
         0x00597852      48c0           ext.l d0
         0x00597854      2f00           move.l d0, -(a7)
         0x00597856      48780000       pea.l 0x0
         0x0059785a      4eb9004070e4   jsr p_wti_o
         0x00597860      504f           addq.w 0x8, a7
         0x00597862      487abe70       pea.l 0x5936d4(pc)
         0x00597866      4878002d       pea.l 0x2d
         0x0059786a      2f17           move.l (a7), -(a7)
         0x0059786c      4eb9004047ea   jsr p_wts_o
         0x00597872      dec2           adda.w d2, a7
         0x00597874      4eb900404946   jsr p_wtln_o
         0x0059787a      13410016       move.b d1, 0x16(a1)
         0x0059787e      486effb6       pea.l -0x4a(a6)
         0x00597882      4eb900404468   jsr fcn.00404468
         0x00597888      584f           addq.w 0x4, a7
      > 0x0059788a      b9ecfffc       cmpa.l -0x4(a4), a4
      < 0x0059788e      6702           beq.b 0x597892
         0x00597890      4e4d           trap 0xd
      > 0x00597892      082c0024001e   btst.b 0x24, 0x1e(a4)
      < 0x00597898      6708           beq.b 0x5978a2
         0x0059789a      082c0004001a   btst.b 0x4, 0x1a(a4)
     < 0x005978a0      6608           bne.b 0x5978aa
     > 0x005978a2      3d7abe5effb4   move.w 0x593702(pc), -0x4c(a6)
     < 0x005978a8      600c           bra.b 0x5978b6
     > 0x005978aa      1d7abe59ffb4   move.b 0x593705(pc), -0x4c(a6)
         0x005978b0      1d7abe54ffb5   move.b 0x593706(pc), -0x4b(a6)
      > 0x005978b6      9ec3           suba.w d3, a7
          0x005978b8      244f           movea.l a7, a2
          0x005978ba      47fabe4b       lea.l 0x593707(pc), a3
          0x005978be      7013           moveq 0x13, d0
      > 0x005978c0      14db           move.b (a3)+, (a2)+
      < 0x005978c2      51c8fffc       dbra d0, 0x5978c0
          0x005978c6      3f2effb4       move.w -0x4c(a6), -(a7)
          0x005978ca      4ebac5a0       jsr K0_DISKMGR.warn_if_fail(pc)
          0x005978ce      dec3           adda.w d3, a7
          0x005978d0      4a1f           tst.b (a7)+
      < 0x005978d2      670c           beq.b 0x5978e0
         0x005978d4      486effb6       pea.l -0x4a(a6)
         0x005978d8      4eb900404468   jsr fcn.00404468
         0x005978de      584f           addq.w 0x4, a7
      > 0x005978e0      554f           subq.w 0x2, a7
          0x005978e2      10290012       move.b 0x12(a1), d0
          0x005978e6      4880           ext.w d0
          0x005978e8      4186           chk.w d6, d0
          0x005978ea      1f00           move.b d0, -(a7)
          0x005978ec      9ec5           suba.w d5, a7
          0x005978ee      244f           movea.l a7, a2
          0x005978f0      47e90008       lea.l 0x8(a1), a3
          0x005978f4      7009           moveq 0x9, d0
      > 0x005978f6      14db           move.b (a3)+, (a2)+
      < 0x005978f8      51c8fffc       dbra d0, 0x5978f6
          0x005978fc      1f3c0003       move.b 0x3, -(a7)
          0x00597900      4eb9005ac900   jsr K1_AFS_ONLY.k1_index
          0x00597906      defc000e       adda.w 0xe, a7
          0x0059790a      3d57ffb4       move.w (a7), -0x4c(a6)
          0x0059790e      9efc0100       suba.w 0x100, a7
          0x00597912      244f           movea.l a7, a2
          0x00597914      47fabe05       lea.l 0x59371b(pc), a3
          0x00597918      700a           moveq 0xa, d0
      > 0x0059791a      14db           move.b (a3)+, (a2)+
      < 0x0059791c      51c8fffc       dbra d0, 0x59791a
          0x00597920      3f2effb4       move.w -0x4c(a6), -(a7)
          0x00597924      4ebac546       jsr K0_DISKMGR.warn_if_fail(pc)
          0x00597928      dec3           adda.w d3, a7
          0x0059792a      4a1f           tst.b (a7)+
      < 0x0059792c      670c           beq.b 0x59793a
         0x0059792e      486effb6       pea.l -0x4a(a6)
         0x00597932      4eb900404468   jsr fcn.00404468
         0x00597938      584f           addq.w 0x4, a7
      > 0x0059793a      554f           subq.w 0x2, a7
          0x0059793c      10290012       move.b 0x12(a1), d0
          0x00597940      4880           ext.w d0
          0x00597942      4186           chk.w d6, d0
          0x00597944      1f00           move.b d0, -(a7)
          0x00597946      48690008       pea.l 0x8(a1)
          0x0059794a      4eb9005ac1e6   jsr K1_AFS_ONLY.k1_delete_file
          0x00597950      5c4f           addq.w 0x6, a7
          0x00597952      3d57ffb4       move.w (a7), -0x4c(a6)
          0x00597956      9efc00fc       suba.w 0xfc, a7
          0x0059795a      2f3abdca       move.l 0x593726(pc), -(a7)
          0x0059795e      2f7abdca0004   move.l 0x59372a(pc), 0x4(a7)
          0x00597964      2f7abdc80008   move.l 0x59372e(pc), 0x8(a7)
          0x0059796a      3f7abdc6000c   move.w 0x593732(pc), 0xc(a7)
          0x00597970      3f2effb4       move.w -0x4c(a6), -(a7)
          0x00597974      4ebac4f6       jsr K0_DISKMGR.warn_if_fail(pc)
          0x00597978      dec3           adda.w d3, a7
          0x0059797a      4a1f           tst.b (a7)+
      < 0x0059797c      670c           beq.b 0x59798a
         0x0059797e      486effb6       pea.l -0x4a(a6)
         0x00597982      4eb900404468   jsr fcn.00404468
         0x00597988      584f           addq.w 0x4, a7
      > 0x0059798a      486effac       pea.l -0x54(a6)
          0x0059798e      4ebac75e       jsr K0_DISKMGR.disp_file(pc)
          0x00597992      584f           addq.w 0x4, a7
          0x00597994      2081           move.l d1, (a0)
       > 0x00597996      554f           subq.w 0x2, a7
           0x00597998      1f04           move.b d4, -(a7)
           0x0059799a      4eb900598cca   jsr K01_DEBUG.k01_debug
           0x005979a0      544f           addq.w 0x2, a7
           0x005979a2      4a1f           tst.b (a7)+
       < 0x005979a4      672a           beq.b 0x5979d0
          0x005979a6      487abd8d       pea.l 0x593735(pc)
          0x005979aa      48780018       pea.l 0x18
          0x005979ae      2f17           move.l (a7), -(a7)
          0x005979b0      4eb9004047ea   jsr p_wts_o
          0x005979b6      dec2           adda.w d2, a7
          0x005979b8      486effb4       pea.l -0x4c(a6)
          0x005979bc      48780002       pea.l 0x2
          0x005979c0      2f17           move.l (a7), -(a7)
          0x005979c2      4eb9004047ea   jsr p_wts_o
          0x005979c8      dec2           adda.w d2, a7
          0x005979ca      4eb900404946   jsr p_wtln_o
       > 0x005979d0      3d6effb4000c   move.w -0x4c(a6), 0xc(a6)
           0x005979d6      41f90083fcfe   lea.l 0x83fcfe, a0
           0x005979dc      43fabd6f       lea.l 0x59374d(pc), a1
           0x005979e0      700e           moveq 0xe, d0
       > 0x005979e2      10d9           move.b (a1)+, (a0)+
       < 0x005979e4      51c8fffc       dbra d0, 0x5979e2
           0x005979e8      4cdf1f7f       movem.l (a7)+, d0-d6/a0-a4
           0x005979ec      4e5e           unlk a6
           0x005979ee      4e75           rts
            ; CALL XREF from MENUDISKSCOM.do_init_disk @ 0x4e5f0c
 150: K0_DISKMGR.k_init_disk ();
           ; var int32_t var_42b2h @ a6-0x42b2
           0x005979f0      4e56ffdc       link.w a6, 0xffdc
           0x005979f4      bfd5           cmpa.l (a5), a7
       < 0x005979f6      6206           bhi.b 0x5979fe
          0x005979f8      44fc0002       move.w 0x2, ccr
          0x005979fc      4e76           trapv
       > 0x005979fe      defc0022       adda.w 0x22, a7
           0x00597a02      48e780c0       movem.l d0/a0-a1, -(a7)
           0x00597a06      43eefffe       lea.l -0x2(a6), a1
           0x00597a0a      12babd51       move.b 0x59375d(pc), (a1)
           0x00597a0e      1d7abd4effff   move.b 0x59375e(pc), -0x1(a6)
           0x00597a14      554f           subq.w 0x2, a7
           0x00597a16      2f2e0062       move.l 0x62(a6), -(a7)
           0x00597a1a      4eb9005b7504   jsr K8_DRIVES.k8_dismount
           0x00597a20      584f           addq.w 0x4, a7
           0x00597a22      4a1f           tst.b (a7)+
       < 0x00597a24      661e           bne.b 0x597a44
          0x00597a26      487abd38       pea.l 0x593760(pc)
          0x00597a2a      48780013       pea.l 0x13
          0x00597a2e      2f17           move.l (a7), -(a7)
          0x00597a30      4eb9004047ea   jsr p_wts_o
          0x00597a36      defc000c       adda.w 0xc, a7
          0x00597a3a      4eb900404946   jsr p_wtln_o
          0x00597a40      32babd32       move.w 0x593774(pc), (a1)
       > 0x00597a44      1011           move.b (a1), d0
           0x00597a46      b03abd2f       cmp.b 0x593777(pc), d0
       < 0x00597a4a      6608           bne.b 0x597a54
          0x00597a4c      102effff       move.b -0x1(a6), d0
          0x00597a50      b03abd26       cmp.b 0x593778(pc), d0
      > 0x00597a54      6624           bne.b 0x597a7a
          0x00597a56      554f           subq.w 0x2, a7
          0x00597a58      1f2e0060       move.b 0x60(a6), -(a7)
          0x00597a5c      2f2e0062       move.l 0x62(a6), -(a7)
          0x00597a60      1f2e005e       move.b 0x5e(a6), -(a7)
          0x00597a64      486e000c       pea.l 0xc(a6)
          0x00597a68      206e0008       movea.l 0x8(a6), a0
          0x00597a6c      4850           pea.l (a0)
          0x00597a6e      4eb9005ac2ea   jsr K1_AFS_ONLY.k1_init_disk
          0x00597a74      defc0010       adda.w 0x10, a7
          0x00597a78      329f           move.w (a7)+, (a1)
      > 0x00597a7a      3d510066       move.w (a1), 0x66(a6)
           0x00597a7e      4cdf0301       movem.l (a7)+, d0/a0-a1
           0x00597a82      4e5e           unlk a6
           0x00597a84      4e75           rts
            ; CALL XREF from K6_COMMANDS.directory @ 0x5b39ba
 584: K0_DISKMGR.k_directory ();
           ; var int32_t var_4434h @ a6-0x4434
           ; var int32_t var_43fah @ a6-0x43fa
           ; var int32_t var_8h @ a7+0x8
           0x00597a86      4e56fe5e       link.w a6, 0xfe5e
           0x00597a8a      bfd5           cmpa.l (a5), a7
       < 0x00597a8c      6206           bhi.b 0x597a94
          0x00597a8e      44fc0002       move.w 0x2, ccr
          0x00597a92      4e76           trapv
       > 0x00597a94      defc019a       adda.w 0x19a, a7
           0x00597a98      48e7fdf8       movem.l d0-d5/d7/a0-a4, -(a7)
           0x00597a9c      47eefff8       lea.l -0x8(a6), a3
           0x00597aa0      7201           moveq 0x1, d1
           0x00597aa2      740c           moveq 0xc, d2
           0x00597aa4      7618           moveq 0x18, d3
           0x00597aa6      7854           moveq 0x54, d4
           0x00597aa8      7a52           moveq 0x52, d5
           0x00597aaa      554f           subq.w 0x2, a7
           0x00597aac      1f03           move.b d3, -(a7)
           0x00597aae      4eb900598cca   jsr K01_DEBUG.k01_debug
           0x00597ab4      544f           addq.w 0x2, a7
           0x00597ab6      4a1f           tst.b (a7)+
       < 0x00597ab8      6766           beq.b 0x597b20
          0x00597aba      487abcbe       pea.l 0x59377a(pc)
          0x00597abe      48780015       pea.l 0x15
          0x00597ac2      2f17           move.l (a7), -(a7)
          0x00597ac4      4eb9004047ea   jsr p_wts_o
          0x00597aca      dec2           adda.w d2, a7
          0x00597acc      4280           clr.l d0
          0x00597ace      302e0008       move.w 0x8(a6), d0
          0x00597ad2      2f00           move.l d0, -(a7)
          0x00597ad4      48780000       pea.l 0x0
          0x00597ad8      4eb9004070e4   jsr p_wti_o
          0x00597ade      504f           addq.w 0x8, a7
          0x00597ae0      4eb900404946   jsr p_wtln_o
          0x00597ae6      9efc0100       suba.w 0x100, a7
          0x00597aea      206e001c       movea.l 0x1c(a6), a0
          0x00597aee      9ec4           suba.w d4, a7
          0x00597af0      224f           movea.l a7, a1
          0x00597af2      7053           moveq 0x53, d0
      > 0x00597af4      12d8           move.b (a0)+, (a1)+
      < 0x00597af6      51c8fffc       dbra d0, 0x597af4
          0x00597afa      4eb9005b0828   jsr K3_UTILS.k3_fname_str
          0x00597b00      dec4           adda.w d4, a7
          0x00597b02      486f0001       pea.l 0x1(a7)
          0x00597b06      42a7           clr.l -(a7)
          0x00597b08      1f6f00080003   move.b 0x8(a7), 0x3(a7)
          0x00597b0e      2f17           move.l (a7), -(a7)
          0x00597b10      4eb9004047ea   jsr p_wts_o
          0x00597b16      defc010c       adda.w 0x10c, a7
          0x00597b1a      4eb900404946   jsr p_wtln_o
       > 0x00597b20      594f           subq.w 0x4, a7
           0x00597b22      4eb9005a032e   jsr K03_DISKLIST.k03_vol_list_he
           0x00597b28      285f           movea.l (a7)+, a4
           0x00597b2a      206e001c       movea.l 0x1c(a6), a0
       > 0x00597b2e      b8c1           cmpa.w d1, a4
      < 0x00597b30      67000190       beq.w 0x597cc2
         0x00597b34      1f01           move.b d1, -(a7)
         0x00597b36      4eb9005a085c   jsr K03_DISKLIST.k03_lock_vol_ga
         0x00597b3c      544f           addq.w 0x2, a7
         0x00597b3e      7e00           moveq 0x0, d7
     > 0x00597b40      4a07           tst.b d7
    < 0x00597b42      663a           bne.b 0x597b7e
       0x00597b44      b8c1           cmpa.w d1, a4
   < 0x00597b46      6736           beq.b 0x597b7e
      0x00597b48      554f           subq.w 0x2, a7
      0x00597b4a      2f0c           move.l a4, -(a7)
      0x00597b4c      2f2e0018       move.l 0x18(a6), -(a7)
      0x00597b50      2f2e0014       move.l 0x14(a6), -(a7)
      0x00597b54      2f2e0010       move.l 0x10(a6), -(a7)
      0x00597b58      2f2e000c       move.l 0xc(a6), -(a7)
      0x00597b5c      4eb9005a0098   jsr K03_DISKLIST.k03_check_vol
      0x00597b62      defc0014       adda.w 0x14, a7
      0x00597b66      101f           move.b (a7)+, d0
      0x00597b68      4880           ext.w d0
      0x00597b6a      4181           chk.w d1, d0
      0x00597b6c      1e00           move.b d0, d7
  < 0x00597b6e      660c           bne.b 0x597b7c
     0x00597b70      b9ecfffc       cmpa.l -0x4(a4), a4
 < 0x00597b74      6702           beq.b 0x597b78
    0x00597b76      4e4d           trap 0xd
 > 0x00597b78      286c0004       movea.l 0x4(a4), a4
  < 0x00597b7c      60c2           bra.b 0x597b40
   > 0x00597b7e      4a07           tst.b d7
     < 0x00597b80      6706           beq.b 0x597b88
        0x00597b82      36babc0c       move.w 0x593790(pc), (a3)
    < 0x00597b86      600a           bra.b 0x597b92
    > 0x00597b88      16babc09       move.b 0x593793(pc), (a3)
        0x00597b8c      1d7abc06fff9   move.b 0x593794(pc), -0x7(a6)
    > 0x00597b92      554f           subq.w 0x2, a7
         0x00597b94      1f03           move.b d3, -(a7)
         0x00597b96      4eb900598cca   jsr K01_DEBUG.k01_debug
         0x00597b9c      544f           addq.w 0x2, a7
         0x00597b9e      4a1f           tst.b (a7)+
     < 0x00597ba0      6728           beq.b 0x597bca
        0x00597ba2      487abbf2       pea.l 0x593796(pc)
        0x00597ba6      48780019       pea.l 0x19
        0x00597baa      2f17           move.l (a7), -(a7)
        0x00597bac      4eb9004047ea   jsr p_wts_o
        0x00597bb2      dec2           adda.w d2, a7
        0x00597bb4      4853           pea.l (a3)
        0x00597bb6      48780002       pea.l 0x2
        0x00597bba      2f17           move.l (a7), -(a7)
        0x00597bbc      4eb9004047ea   jsr p_wts_o
        0x00597bc2      dec2           adda.w d2, a7
        0x00597bc4      4eb900404946   jsr p_wtln_o
     > 0x00597bca      3013           move.w (a3), d0
         0x00597bcc      b07abbe2       cmp.w 0x5937b0(pc), d0
     < 0x00597bd0      6620           bne.b 0x597bf2
        0x00597bd2      b9ecfffc       cmpa.l -0x4(a4), a4
    < 0x00597bd6      6702           beq.b 0x597bda
       0x00597bd8      4e4d           trap 0xd
    > 0x00597bda      082c0004001a   btst.b 0x4, 0x1a(a4)
    < 0x00597be0      670c           beq.b 0x597bee
       0x00597be2      16babbcf       move.b 0x5937b3(pc), (a3)
       0x00597be6      1d7abbccfff9   move.b 0x5937b4(pc), -0x7(a6)
   < 0x00597bec      6004           bra.b 0x597bf2
   > 0x00597bee      36babbc6       move.w 0x5937b6(pc), (a3)
   > 0x00597bf2      4227           clr.b -(a7)
         0x00597bf4      4eb9005a085c   jsr K03_DISKLIST.k03_lock_vol_ga
         0x00597bfa      544f           addq.w 0x2, a7
         0x00597bfc      1013           move.b (a3), d0
         0x00597bfe      b03abbb9       cmp.b 0x5937b9(pc), d0
     < 0x00597c02      6608           bne.b 0x597c0c
        0x00597c04      102efff9       move.b -0x7(a6), d0
        0x00597c08      b03abbb0       cmp.b 0x5937ba(pc), d0
    > 0x00597c0c      6654           bne.b 0x597c62
        0x00597c0e      b9ecfffc       cmpa.l -0x4(a4), a4
    < 0x00597c12      6702           beq.b 0x597c16
       0x00597c14      4e4d           trap 0xd
    > 0x00597c16      9ec5           suba.w d5, a7
        0x00597c18      224f           movea.l a7, a1
        0x00597c1a      2448           movea.l a0, a2
        0x00597c1c      7050           moveq 0x50, d0
    > 0x00597c1e      12da           move.b (a2)+, (a1)+
    < 0x00597c20      51c8fffc       dbra d0, 0x597c1e
        0x00597c24      554f           subq.w 0x2, a7
        0x00597c26      1f2c000c       move.b 0xc(a4), -(a7)
        0x00597c2a      2f2c000e       move.l 0xe(a4), -(a7)
        0x00597c2e      9efc0100       suba.w 0x100, a7
        0x00597c32      486f0108       pea.l 0x108(a7)
        0x00597c36      4267           clr.w -(a7)
        0x00597c38      3f3c0050       move.w 0x50, -(a7)
        0x00597c3c      4eb9005b057c   jsr K3_UTILS.k3_string
        0x00597c42      5c4f           addq.w 0x6, a7
        0x00597c44      1ea80051       move.b 0x51(a0), (a7)
        0x00597c48      3f280052       move.w 0x52(a0), -(a7)
        0x00597c4c      1f2e000a       move.b 0xa(a6), -(a7)
        0x00597c50      3f2e0008       move.w 0x8(a6), -(a7)
        0x00597c54      4eb9005ac510   jsr K1_AFS_ONLY.k1_directory
        0x00597c5a      defc010e       adda.w 0x10e, a7
        0x00597c5e      369f           move.w (a7)+, (a3)
        0x00597c60      dec5           adda.w d5, a7
    > 0x00597c62      554f           subq.w 0x2, a7
         0x00597c64      1f03           move.b d3, -(a7)
         0x00597c66      4eb900598cca   jsr K01_DEBUG.k01_debug
         0x00597c6c      544f           addq.w 0x2, a7
         0x00597c6e      4a1f           tst.b (a7)+
     < 0x00597c70      6728           beq.b 0x597c9a
        0x00597c72      487abb48       pea.l 0x5937bc(pc)
        0x00597c76      4878001a       pea.l 0x1a
        0x00597c7a      2f17           move.l (a7), -(a7)
        0x00597c7c      4eb9004047ea   jsr p_wts_o
        0x00597c82      dec2           adda.w d2, a7
        0x00597c84      4853           pea.l (a3)
        0x00597c86      48780002       pea.l 0x2
        0x00597c8a      2f17           move.l (a7), -(a7)
        0x00597c8c      4eb9004047ea   jsr p_wts_o
        0x00597c92      dec2           adda.w d2, a7
        0x00597c94      4eb900404946   jsr p_wtln_o
     > 0x00597c9a      b8c1           cmpa.w d1, a4
     < 0x00597c9c      6720           beq.b 0x597cbe
        0x00597c9e      1f01           move.b d1, -(a7)
        0x00597ca0      4eb9005a085c   jsr K03_DISKLIST.k03_lock_vol_ga
        0x00597ca6      544f           addq.w 0x2, a7
        0x00597ca8      b9ecfffc       cmpa.l -0x4(a4), a4
    < 0x00597cac      6702           beq.b 0x597cb0
       0x00597cae      4e4d           trap 0xd
    > 0x00597cb0      286c0004       movea.l 0x4(a4), a4
        0x00597cb4      4227           clr.b -(a7)
        0x00597cb6      4eb9005a085c   jsr K03_DISKLIST.k03_lock_vol_ga
        0x00597cbc      544f           addq.w 0x2, a7
     < 0x00597cbe      6000fe6e       bra.w 0x597b2e
      > 0x00597cc2      3d530020       move.w (a3), 0x20(a6)
           0x00597cc6      4cdf1fbf       movem.l (a7)+, d0-d5/d7/a0-a4
           0x00597cca      4e5e           unlk a6
           0x00597ccc      4e75           rts
            ; CALL XREF from AFS_FILER.afs_add_drive @ 0x5c399e
 66: K0_DISKMGR.k_drive_changed ();
           0x00597cce      4e56ffec       link.w a6, 0xffec
           0x00597cd2      bfd5           cmpa.l (a5), a7
       < 0x00597cd4      6206           bhi.b 0x597cdc
          0x00597cd6      44fc0002       move.w 0x2, ccr
          0x00597cda      4e76           trapv
       > 0x00597cdc      defc0014       adda.w 0x14, a7
           0x00597ce0      48e7c0c0       movem.l d0-d1/a0-a1, -(a7)
           0x00597ce4      43f90083fdfe   lea.l 0x83fdfe, a1
           0x00597cea      7201           moveq 0x1, d1
           0x00597cec      102e000c       move.b 0xc(a6), d0
           0x00597cf0      b001           cmp.b d1, d0
       < 0x00597cf2      6608           bne.b 0x597cfc
          0x00597cf4      206e0008       movea.l 0x8(a6), a0
          0x00597cf8      1290           move.b (a0), (a1)
      < 0x00597cfa      600c           bra.b 0x597d08
      > 0x00597cfc      206e0008       movea.l 0x8(a6), a0
          0x00597d00      1011           move.b (a1), d0
          0x00597d02      4880           ext.w d0
          0x00597d04      4181           chk.w d1, d0
          0x00597d06      1080           move.b d0, (a0)
      > 0x00597d08      4cdf0303       movem.l (a7)+, d0-d1/a0-a1
           0x00597d0c      4e5e           unlk a6
           0x00597d0e      4e75           rts
            ; CALL XREFS from AFS_FILER.afs_add_drive @ 0x5c396a, 0x5c39a8
 62: K0_DISKMGR.k_gate_drive_ch ();
           0x00597d10      4e56fff4       link.w a6, 0xfff4
           0x00597d14      bfd5           cmpa.l (a5), a7
       < 0x00597d16      6206           bhi.b 0x597d1e
          0x00597d18      44fc0002       move.w 0x2, ccr
          0x00597d1c      4e76           trapv
       > 0x00597d1e      defc000c       adda.w 0xc, a7
           0x00597d22      48e70080       movem.l a0, -(a7)
           0x00597d26      41f90083fe00   lea.l 0x83fe00, a0
           0x00597d2c      4a2e0008       tst.b 0x8(a6)
       < 0x00597d30      670a           beq.b 0x597d3c
          0x00597d32      4850           pea.l (a0)
          0x00597d34      4eb9004023c4   jsr p_Wait
      < 0x00597d3a      6008           bra.b 0x597d44
      > 0x00597d3c      4850           pea.l (a0)
          0x00597d3e      4eb90040234e   jsr p_Signal
      > 0x00597d44      584f           addq.w 0x4, a7
           0x00597d46      4cdf0100       movem.l (a7)+, a0
           0x00597d4a      4e5e           unlk a6
           0x00597d4c      4e75           rts
 222: K0_DISKMGR.k_protect (int32_t arg_1h);
           ; arg int32_t arg_1h @ a6+0x1
           0x00597d4e      4e56ffce       link.w a6, 0xffce
           0x00597d52      bfd5           cmpa.l (a5), a7
       < 0x00597d54      6206           bhi.b 0x597d5c
          0x00597d56      44fc0002       move.w 0x2, ccr
          0x00597d5a      4e76           trapv
       > 0x00597d5c      defc002a       adda.w 0x2a, a7
           0x00597d60      48e7e0c8       movem.l d0-d2/a0-a1/a4, -(a7)
           0x00597d64      41eefffc       lea.l -0x4(a6), a0
           0x00597d68      43eefffd       lea.l -0x3(a6), a1
           0x00597d6c      7201           moveq 0x1, d1
           0x00597d6e      740c           moveq 0xc, d2
           0x00597d70      1f01           move.b d1, -(a7)
           0x00597d72      4eb9005a085c   jsr K03_DISKLIST.k03_lock_vol_ga
           0x00597d78      554f           subq.w 0x2, a7
           0x00597d7a      4eb9005a032e   jsr K03_DISKLIST.k03_vol_list_he
           0x00597d80      285f           movea.l (a7)+, a4
       > 0x00597d82      b8c1           cmpa.w d1, a4
      < 0x00597d84      67000094       beq.w 0x597e1a
         0x00597d88      4a2e0008       tst.b 0x8(a6)
     < 0x00597d8c      6718           beq.b 0x597da6
        0x00597d8e      7000           moveq 0x0, d0
        0x00597d90      b9ecfffc       cmpa.l -0x4(a4), a4
    < 0x00597d94      6702           beq.b 0x597d98
       0x00597d96      4e4d           trap 0xd
    > 0x00597d98      082c0025001e   btst.b 0x25, 0x1e(a4)
    < 0x00597d9e      6602           bne.b 0x597da2
       0x00597da0      5200           addq.b 0x1, d0
    > 0x00597da2      1080           move.b d0, (a0)
    < 0x00597da4      6002           bra.b 0x597da8
    > 0x00597da6      4210           clr.b (a0)
    > 0x00597da8      b9ecfffc       cmpa.l -0x4(a4), a4
     < 0x00597dac      6702           beq.b 0x597db0
        0x00597dae      4e4d           trap 0xd
     > 0x00597db0      082c0004001a   btst.b 0x4, 0x1a(a4)
     < 0x00597db6      675a           beq.b 0x597e12
        0x00597db8      554f           subq.w 0x2, a7
        0x00597dba      1f2c000c       move.b 0xc(a4), -(a7)
        0x00597dbe      1f01           move.b d1, -(a7)
        0x00597dc0      2f2c000e       move.l 0xe(a4), -(a7)
        0x00597dc4      4850           pea.l (a0)
        0x00597dc6      4eb9005ac6ac   jsr K1_AFS_ONLY.k1_soft_protect
        0x00597dcc      dec2           adda.w d2, a7
        0x00597dce      1297           move.b (a7), (a1)
        0x00597dd0      1d6f0001fffe   move.b 0x1(a7), -0x2(a6)
        0x00597dd6      544f           addq.w 0x2, a7
        0x00597dd8      1011           move.b (a1), d0
        0x00597dda      b03ab9fb       cmp.b 0x5937d7(pc), d0
    < 0x00597dde      6608           bne.b 0x597de8
       0x00597de0      102efffe       move.b -0x2(a6), d0
       0x00597de4      b03ab9f2       cmp.b 0x5937d8(pc), d0
   > 0x00597de8      6728           beq.b 0x597e12
       0x00597dea      487ab9ee       pea.l 0x5937da(pc)
       0x00597dee      48780019       pea.l 0x19
       0x00597df2      2f17           move.l (a7), -(a7)
       0x00597df4      4eb9004047ea   jsr p_wts_o
       0x00597dfa      dec2           adda.w d2, a7
       0x00597dfc      4851           pea.l (a1)
       0x00597dfe      48780002       pea.l 0x2
       0x00597e02      2f17           move.l (a7), -(a7)
       0x00597e04      4eb9004047ea   jsr p_wts_o
       0x00597e0a      dec2           adda.w d2, a7
       0x00597e0c      4eb900404946   jsr p_wtln_o
   > 0x00597e12      286c0004       movea.l 0x4(a4), a4
      < 0x00597e16      6000ff6a       bra.w 0x597d82
      > 0x00597e1a      4227           clr.b -(a7)
           0x00597e1c      4eb9005a085c   jsr K03_DISKLIST.k03_lock_vol_ga
           0x00597e22      544f           addq.w 0x2, a7
           0x00597e24      4cdf1307       movem.l (a7)+, d0-d2/a0-a1/a4
           0x00597e28      4e5e           unlk a6
           0x00597e2a      4e75           rts
            ; CALL XREF from K03_DISKLIST.k03_add_subvol @ 0x5a0438
 42: K0_DISKMGR.k_alloc_vol_num ();
           0x00597e2c      4e56fff8       link.w a6, 0xfff8
           0x00597e30      bfd5           cmpa.l (a5), a7
       < 0x00597e32      6206           bhi.b 0x597e3a
          0x00597e34      44fc0002       move.w 0x2, ccr
          0x00597e38      4e76           trapv
       > 0x00597e3a      defc0008       adda.w 0x8, a7
           0x00597e3e      48e70080       movem.l a0, -(a7)
           0x00597e42      41f90083fe12   lea.l 0x83fe12, a0
           0x00597e48      5290           addq.l 0x1, (a0)
           0x00597e4a      2d500008       move.l (a0), 0x8(a6)
           0x00597e4e      4cdf0100       movem.l (a7)+, a0
           0x00597e52      4e5e           unlk a6
           0x00597e54      4e75           rts
            ; CALL XREF from MENUDISKSCOM.menu_disk_boxes @ 0x4e6e20
            ; CALL XREF from MENULIBCOM.init_boxes @ 0x7573a0
 108: K0_DISKMGR.k_on_change ();
           0x00597e56      4e56ffe0       link.w a6, 0xffe0
           0x00597e5a      bfd5           cmpa.l (a5), a7
       < 0x00597e5c      6206           bhi.b 0x597e64
          0x00597e5e      44fc0002       move.w 0x2, ccr
          0x00597e62      4e76           trapv
       > 0x00597e64      defc0020       adda.w 0x20, a7
           0x00597e68      48e780c0       movem.l d0/a0-a1, -(a7)
           0x00597e6c      43f90083fe1e   lea.l 0x83fe1e, a1
           0x00597e72      5291           addq.l 0x1, (a1)
           0x00597e74      4227           clr.b -(a7)
           0x00597e76      2011           move.l (a1), d0
           0x00597e78      0c8000000005   cmpi.l 0x5, d0
       < 0x00597e7e      6e02           bgt.b 0x597e82
          0x00597e80      5217           addq.b 0x1, (a7)
       > 0x00597e82      4eb90040452a   jsr p_Assert
           0x00597e88      544f           addq.w 0x2, a7
           0x00597e8a      2011           move.l (a1), d0
           0x00597e8c      5380           subq.l 0x1, d0
           0x00597e8e      0c8000000004   cmpi.l 0x4, d0
       < 0x00597e94      6302           bls.b 0x597e98
          0x00597e96      4e4f           trap 0xf
       > 0x00597e98      e580           asl.l 0x2, d0
           0x00597e9a      41f90083fcfa   lea.l 0x83fcfa, a0
           0x00597ea0      41f00800       lea.l (a0, d0.l), a0
           0x00597ea4      594f           subq.w 0x4, a7
           0x00597ea6      2f2e000c       move.l 0xc(a6), -(a7)
           0x00597eaa      2f2e0008       move.l 0x8(a6), -(a7)
           0x00597eae      4eb9005ab62a   jsr k06_ref_proc
           0x00597eb4      504f           addq.w 0x8, a7
           0x00597eb6      215f0128       move.l (a7)+, 0x128(a0)
           0x00597eba      4cdf0301       movem.l (a7)+, d0/a0-a1
           0x00597ebe      4e5e           unlk a6
           0x00597ec0      4e75           rts
            ; CALL XREF from K0_DISKMGR.k_vol_mounted @ 0x5981de
            ; CALL XREF from K0_DISKMGR.k_vol_dismounte @ 0x5982b8
 96: K0_DISKMGR.tell_all ();
           0x00597ec2      4e56ffdc       link.w a6, 0xffdc
           0x00597ec6      bfd5           cmpa.l (a5), a7
       < 0x00597ec8      6206           bhi.b 0x597ed0
          0x00597eca      44fc0002       move.w 0x2, ccr
          0x00597ece      4e76           trapv
       > 0x00597ed0      defc0020       adda.w 0x20, a7
           0x00597ed4      48e78180       movem.l d0/d7/a0, -(a7)
           0x00597ed8      2f390083fe1e   move.l 0x83fe1e, -(a7)
           0x00597ede      7e01           moveq 0x1, d7
       > 0x00597ee0      be97           cmp.l (a7), d7
      < 0x00597ee2      6e34           bgt.b 0x597f18
         0x00597ee4      2007           move.l d7, d0
         0x00597ee6      5380           subq.l 0x1, d0
         0x00597ee8      0c8000000004   cmpi.l 0x4, d0
     < 0x00597eee      6302           bls.b 0x597ef2
        0x00597ef0      4e4f           trap 0xf
     > 0x00597ef2      e580           asl.l 0x2, d0
         0x00597ef4      41f90083fcfa   lea.l 0x83fcfa, a0
         0x00597efa      41f00800       lea.l (a0, d0.l), a0
         0x00597efe      2f280128       move.l 0x128(a0), -(a7)
         0x00597f02      2f2e000c       move.l 0xc(a6), -(a7)
         0x00597f06      2f2e0008       move.l 0x8(a6), -(a7)
         0x00597f0a      4eb9005ab63a   jsr k06_call_proc
         0x00597f10      defc000c       adda.w 0xc, a7
         0x00597f14      5287           addq.l 0x1, d7
      < 0x00597f16      68c8           bvc.b 0x597ee0
      > 0x00597f18      584f           addq.w 0x4, a7
           0x00597f1a      4cdf0181       movem.l (a7)+, d0/d7/a0
           0x00597f1e      4e5e           unlk a6
           0x00597f20      4e75           rts
            ; CALL XREF from AFS1_UTIL.afs1_volume_up @ 0x5c7e4c
 714: K0_DISKMGR.k_vol_mounted ();
           0x00597f22      4e56ffa6       link.w a6, 0xffa6
           0x00597f26      bfd5           cmpa.l (a5), a7
       < 0x00597f28      6206           bhi.b 0x597f30
          0x00597f2a      44fc0002       move.w 0x2, ccr
          0x00597f2e      4e76           trapv
       > 0x00597f30      defc004e       adda.w 0x4e, a7
           0x00597f34      48e7f9f8       movem.l d0-d4/d7/a0-a4, -(a7)
           0x00597f38      43ee0020       lea.l 0x20(a6), a1
           0x00597f3c      45f9004047ea   lea.l p_wts_o, a2
           0x00597f42      47ee001a       lea.l 0x1a(a6), a3
           0x00597f46      7201           moveq 0x1, d1
           0x00597f48      7413           moveq 0x13, d2
           0x00597f4a      7625           moveq 0x25, d3
           0x00597f4c      781a           moveq 0x1a, d4
           0x00597f4e      554f           subq.w 0x2, a7
           0x00597f50      1f02           move.b d2, -(a7)
           0x00597f52      4eb900598cca   jsr K01_DEBUG.k01_debug
           0x00597f58      544f           addq.w 0x2, a7
           0x00597f5a      4a1f           tst.b (a7)+
       < 0x00597f5c      673e           beq.b 0x597f9c
          0x00597f5e      487ab894       pea.l 0x5937f4(pc)
          0x00597f62      4878000d       pea.l 0xd
          0x00597f66      2f17           move.l (a7), -(a7)
          0x00597f68      4e92           jsr (a2)                    ; fcn.00000009+0x2
          0x00597f6a      504f           addq.w 0x8, a7
          0x00597f6c      2e91           move.l (a1), (a7)
          0x00597f6e      4878ffff       pea.l 0xffff
          0x00597f72      4eb9004070e4   jsr p_wti_o
          0x00597f78      504f           addq.w 0x8, a7
          0x00597f7a      487ab886       pea.l 0x593802(pc)
          0x00597f7e      4878000b       pea.l 0xb
          0x00597f82      2f17           move.l (a7), -(a7)
          0x00597f84      4e92           jsr (a2)                    ; fcn.00000009+0x2
          0x00597f86      504f           addq.w 0x8, a7
          0x00597f88      2e93           move.l (a3), (a7)
          0x00597f8a      4878ffff       pea.l 0xffff
          0x00597f8e      4eb9004070e4   jsr p_wti_o
          0x00597f94      504f           addq.w 0x8, a7
          0x00597f96      4eb900404946   jsr p_wtln_o
       > 0x00597f9c      594f           subq.w 0x4, a7
           0x00597f9e      2f11           move.l (a1), -(a7)
           0x00597fa0      4eb9005a002a   jsr K03_DISKLIST.k03_get_vol_ptr
           0x00597fa6      584f           addq.w 0x4, a7
           0x00597fa8      285f           movea.l (a7)+, a4
           0x00597faa      b8c1           cmpa.w d1, a4
       < 0x00597fac      6604           bne.b 0x597fb2
      > 0x00597fae      7e00           moveq 0x0, d7
     < 0x00597fb0      6030           bra.b 0x597fe2
     > 0x00597fb2      b9ecfffc       cmpa.l -0x4(a4), a4
     < 0x00597fb6      6702           beq.b 0x597fba
        0x00597fb8      4e4d           trap 0xd
     > 0x00597fba      202c0222       move.l 0x222(a4), d0
         0x00597fbe      b093           cmp.l (a3), d0
     < 0x00597fc0      6702           beq.b 0x597fc4
     < 0x00597fc2      60ea           bra.b 0x597fae
      > 0x00597fc4      7e01           moveq 0x1, d7
          0x00597fc6      422efffd       clr.b -0x3(a6)
          0x00597fca      032c001a       btst.l d1, 0x1a(a4)
      < 0x00597fce      6704           beq.b 0x597fd4
         0x00597fd0      522efffd       addq.b 0x1, -0x3(a6)
      > 0x00597fd4      422efffe       clr.b -0x2(a6)
          0x00597fd8      072c001e       btst.l d3, 0x1e(a4)
      < 0x00597fdc      6704           beq.b 0x597fe2
         0x00597fde      522efffe       addq.b 0x1, -0x2(a6)
     > 0x00597fe2      554f           subq.w 0x2, a7
           0x00597fe4      1f02           move.b d2, -(a7)
           0x00597fe6      4eb900598cca   jsr K01_DEBUG.k01_debug
           0x00597fec      544f           addq.w 0x2, a7
           0x00597fee      4a1f           tst.b (a7)+
       < 0x00597ff0      6724           beq.b 0x598016
          0x00597ff2      487ab81a       pea.l 0x59380e(pc)
          0x00597ff6      48780015       pea.l 0x15
          0x00597ffa      2f17           move.l (a7), -(a7)
          0x00597ffc      4e92           jsr (a2)                    ; fcn.00000009+0x2
          0x00597ffe      defc000a       adda.w 0xa, a7
          0x00598002      1e87           move.b d7, (a7)
          0x00598004      48780005       pea.l 0x5
          0x00598008      4eb90040718c   jsr p_wtb_o
          0x0059800e      5c4f           addq.w 0x6, a7
          0x00598010      4eb900404946   jsr p_wtln_o
       > 0x00598016      594f           subq.w 0x4, a7
           0x00598018      2f11           move.l (a1), -(a7)
           0x0059801a      1f2e001e       move.b 0x1e(a6), -(a7)
           0x0059801e      2f13           move.l (a3), -(a7)
           0x00598020      206e0016       movea.l 0x16(a6), a0
           0x00598024      4850           pea.l (a0)
           0x00598026      206e0012       movea.l 0x12(a6), a0
           0x0059802a      4850           pea.l (a0)
           0x0059802c      2f2e000e       move.l 0xe(a6), -(a7)
           0x00598030      2f2e000a       move.l 0xa(a6), -(a7)
           0x00598034      4eb90059f718   jsr K03_DISKLIST.k03_add_vol
           0x0059803a      dec4           adda.w d4, a7
           0x0059803c      285f           movea.l (a7)+, a4
           0x0059803e      1f01           move.b d1, -(a7)
           0x00598040      4eb9005a085c   jsr K03_DISKLIST.k03_lock_vol_ga
           0x00598046      544f           addq.w 0x2, a7
           0x00598048      4a91           tst.l (a1)
       < 0x0059804a      6744           beq.b 0x598090
          0x0059804c      b9ecfffc       cmpa.l -0x4(a4), a4
      < 0x00598050      6702           beq.b 0x598054
         0x00598052      4e4d           trap 0xd
      > 0x00598054      203ab7ce       move.l 0x593824(pc), d0
          0x00598058      81ac001a       or.l d0, 0x1a(a4)
          0x0059805c      203ab7ca       move.l 0x593828(pc), d0
          0x00598060      81ac001e       or.l d0, 0x1e(a4)
          0x00598064      4a2e0008       tst.b 0x8(a6)
      < 0x00598068      6716           beq.b 0x598080
         0x0059806a      203ab7c0       move.l 0x59382c(pc), d0
         0x0059806e      4680           not.l d0
         0x00598070      c1ac001a       and.l d0, 0x1a(a4)
         0x00598074      203ab7ba       move.l 0x593830(pc), d0
         0x00598078      4680           not.l d0
         0x0059807a      c1ac001e       and.l d0, 0x1e(a4)
     < 0x0059807e      6010           bra.b 0x598090
     > 0x00598080      203ab7b2       move.l 0x593834(pc), d0
         0x00598084      81ac001a       or.l d0, 0x1a(a4)
         0x00598088      203ab7ae       move.l 0x593838(pc), d0
         0x0059808c      81ac001e       or.l d0, 0x1e(a4)
     > 0x00598090      4a07           tst.b d7
       < 0x00598092      677e           beq.b 0x598112
          0x00598094      4a2efffd       tst.b -0x3(a6)
      < 0x00598098      671a           beq.b 0x5980b4
         0x0059809a      b9ecfffc       cmpa.l -0x4(a4), a4
     < 0x0059809e      6702           beq.b 0x5980a2
        0x005980a0      4e4d           trap 0xd
     > 0x005980a2      203ab798       move.l 0x59383c(pc), d0
         0x005980a6      81ac001a       or.l d0, 0x1a(a4)
         0x005980aa      203ab794       move.l 0x593840(pc), d0
         0x005980ae      81ac001e       or.l d0, 0x1e(a4)
     < 0x005980b2      601c           bra.b 0x5980d0
     > 0x005980b4      b9ecfffc       cmpa.l -0x4(a4), a4
     < 0x005980b8      6702           beq.b 0x5980bc
        0x005980ba      4e4d           trap 0xd
     > 0x005980bc      203ab786       move.l 0x593844(pc), d0
         0x005980c0      4680           not.l d0
         0x005980c2      c1ac001a       and.l d0, 0x1a(a4)
         0x005980c6      203ab780       move.l 0x593848(pc), d0
         0x005980ca      4680           not.l d0
         0x005980cc      c1ac001e       and.l d0, 0x1e(a4)
     > 0x005980d0      4a2efffe       tst.b -0x2(a6)
      < 0x005980d4      6722           beq.b 0x5980f8
         0x005980d6      4a2e0008       tst.b 0x8(a6)
     < 0x005980da      661c           bne.b 0x5980f8
        0x005980dc      b9ecfffc       cmpa.l -0x4(a4), a4
    < 0x005980e0      6702           beq.b 0x5980e4
       0x005980e2      4e4d           trap 0xd
    > 0x005980e4      203ab766       move.l 0x59384c(pc), d0
        0x005980e8      81ac001a       or.l d0, 0x1a(a4)
        0x005980ec      203ab762       move.l 0x593850(pc), d0
        0x005980f0      81ac001e       or.l d0, 0x1e(a4)
    < 0x005980f4      600000b0       bra.w 0x5981a6
    > 0x005980f8      b9ecfffc       cmpa.l -0x4(a4), a4
     < 0x005980fc      6702           beq.b 0x598100
        0x005980fe      4e4d           trap 0xd
     > 0x00598100      203ab752       move.l 0x593854(pc), d0
         0x00598104      4680           not.l d0
         0x00598106      c1ac001a       and.l d0, 0x1a(a4)
         0x0059810a      203ab74c       move.l 0x593858(pc), d0
     < 0x0059810e      60000090       bra.w 0x5981a0
     > 0x00598112      b9ecfffc       cmpa.l -0x4(a4), a4
     < 0x00598116      6702           beq.b 0x59811a
        0x00598118      4e4d           trap 0xd
     > 0x0059811a      082c0005001a   btst.b 0x5, 0x1a(a4)
     < 0x00598120      6712           beq.b 0x598134
        0x00598122      203ab738       move.l 0x59385c(pc), d0
        0x00598126      81ac001a       or.l d0, 0x1a(a4)
        0x0059812a      203ab734       move.l 0x593860(pc), d0
        0x0059812e      81ac001e       or.l d0, 0x1e(a4)
    < 0x00598132      6014           bra.b 0x598148
    > 0x00598134      203ab72e       move.l 0x593864(pc), d0
        0x00598138      4680           not.l d0
        0x0059813a      c1ac001a       and.l d0, 0x1a(a4)
        0x0059813e      203ab728       move.l 0x593868(pc), d0
        0x00598142      4680           not.l d0
        0x00598144      c1ac001e       and.l d0, 0x1e(a4)
    > 0x00598148      082c0006001a   btst.b 0x6, 0x1a(a4)
     < 0x0059814e      6628           bne.b 0x598178
        0x00598150      203ab71a       move.l 0x59386c(pc), d0
        0x00598154      4680           not.l d0
        0x00598156      c1ac001a       and.l d0, 0x1a(a4)
        0x0059815a      203ab714       move.l 0x593870(pc), d0
        0x0059815e      4680           not.l d0
        0x00598160      c1ac001e       and.l d0, 0x1e(a4)
        0x00598164      203ab70e       move.l 0x593874(pc), d0
        0x00598168      4680           not.l d0
        0x0059816a      c1ac001a       and.l d0, 0x1a(a4)
        0x0059816e      203ab708       move.l 0x593878(pc), d0
        0x00598172      4680           not.l d0
        0x00598174      c1ac001e       and.l d0, 0x1e(a4)
     > 0x00598178      092c001d       btst.l d4, 0x1d(a4)
     < 0x0059817c      6628           bne.b 0x5981a6
        0x0059817e      203ab6fc       move.l 0x59387c(pc), d0
        0x00598182      4680           not.l d0
        0x00598184      c1ac001a       and.l d0, 0x1a(a4)
        0x00598188      203ab6f6       move.l 0x593880(pc), d0
        0x0059818c      4680           not.l d0
        0x0059818e      c1ac001e       and.l d0, 0x1e(a4)
        0x00598192      203ab6f0       move.l 0x593884(pc), d0
        0x00598196      4680           not.l d0
        0x00598198      c1ac001a       and.l d0, 0x1a(a4)
        0x0059819c      203ab6ea       move.l 0x593888(pc), d0
     > 0x005981a0      4680           not.l d0
         0x005981a2      c1ac001e       and.l d0, 0x1e(a4)
    > 0x005981a6      b9ecfffc       cmpa.l -0x4(a4), a4
       < 0x005981aa      6702           beq.b 0x5981ae
          0x005981ac      4e4d           trap 0xd
       > 0x005981ae      7000           moveq 0x0, d0
           0x005981b0      032c001a       btst.l d1, 0x1a(a4)
       < 0x005981b4      6702           beq.b 0x5981b8
          0x005981b6      5200           addq.b 0x1, d0
       > 0x005981b8      1940022e       move.b d0, 0x22e(a4)
           0x005981bc      7000           moveq 0x0, d0
           0x005981be      072c001e       btst.l d3, 0x1e(a4)
       < 0x005981c2      6702           beq.b 0x5981c6
          0x005981c4      5200           addq.b 0x1, d0
       > 0x005981c6      1940022f       move.b d0, 0x22f(a4)
           0x005981ca      422c0230       clr.b 0x230(a4)
           0x005981ce      4227           clr.b -(a7)
           0x005981d0      4eb9005a085c   jsr K03_DISKLIST.k03_lock_vol_ga
           0x005981d6      544f           addq.w 0x2, a7
           0x005981d8      2f11           move.l (a1), -(a7)
           0x005981da      48780001       pea.l 0x1
           0x005981de      4ebafce2       jsr K0_DISKMGR.tell_all(pc)
           0x005981e2      504f           addq.w 0x8, a7
           0x005981e4      4cdf1f9f       movem.l (a7)+, d0-d4/d7/a0-a4
           0x005981e8      4e5e           unlk a6
           0x005981ea      4e75           rts
            ; CALL XREF from AFS1_UTIL.afs_volume_down @ 0x5c808c
 218: K0_DISKMGR.k_vol_dismounte ();
           0x005981ec      4e56ffd8       link.w a6, 0xffd8
           0x005981f0      bfd5           cmpa.l (a5), a7
       < 0x005981f2      6206           bhi.b 0x5981fa
          0x005981f4      44fc0002       move.w 0x2, ccr
          0x005981f8      4e76           trapv
       > 0x005981fa      defc0020       adda.w 0x20, a7
           0x005981fe      48e7c088       movem.l d0-d1/a0/a4, -(a7)
           0x00598202      41ee000a       lea.l 0xa(a6), a0
           0x00598206      7201           moveq 0x1, d1
           0x00598208      554f           subq.w 0x2, a7
           0x0059820a      1f3c0013       move.b 0x13, -(a7)
           0x0059820e      4eb900598cca   jsr K01_DEBUG.k01_debug
           0x00598214      544f           addq.w 0x2, a7
           0x00598216      4a1f           tst.b (a7)+
       < 0x00598218      6726           beq.b 0x598240
          0x0059821a      487ab671       pea.l 0x59388d(pc)
          0x0059821e      48780010       pea.l 0x10
          0x00598222      2f17           move.l (a7), -(a7)
          0x00598224      4eb9004047ea   jsr p_wts_o
          0x0059822a      504f           addq.w 0x8, a7
          0x0059822c      2e90           move.l (a0), (a7)
          0x0059822e      4878ffff       pea.l 0xffff
          0x00598232      4eb9004070e4   jsr p_wti_o
          0x00598238      504f           addq.w 0x8, a7
          0x0059823a      4eb900404946   jsr p_wtln_o
       > 0x00598240      594f           subq.w 0x4, a7
           0x00598242      2f10           move.l (a0), -(a7)
           0x00598244      4eb9005a002a   jsr K03_DISKLIST.k03_get_vol_ptr
           0x0059824a      584f           addq.w 0x4, a7
           0x0059824c      285f           movea.l (a7)+, a4
           0x0059824e      b8c1           cmpa.w d1, a4
       < 0x00598250      676c           beq.b 0x5982be
          0x00598252      b9ecfffc       cmpa.l -0x4(a4), a4
      < 0x00598256      6702           beq.b 0x59825a
         0x00598258      4e4d           trap 0xd
      > 0x0059825a      4227           clr.b -(a7)
          0x0059825c      102c000c       move.b 0xc(a4), d0
          0x00598260      b02e0008       cmp.b 0x8(a6), d0
      < 0x00598264      6602           bne.b 0x598268
         0x00598266      5217           addq.b 0x1, (a7)
      > 0x00598268      4eb90040452a   jsr p_Assert
          0x0059826e      1e81           move.b d1, (a7)
          0x00598270      4eb9005a085c   jsr K03_DISKLIST.k03_lock_vol_ga
          0x00598276      544f           addq.w 0x2, a7
          0x00598278      203ab624       move.l 0x59389e(pc), d0
          0x0059827c      4680           not.l d0
          0x0059827e      c1ac001a       and.l d0, 0x1a(a4)
          0x00598282      203ab61e       move.l 0x5938a2(pc), d0
          0x00598286      4680           not.l d0
          0x00598288      c1ac001e       and.l d0, 0x1e(a4)
          0x0059828c      203ab618       move.l 0x5938a6(pc), d0
          0x00598290      4680           not.l d0
          0x00598292      c1ac001a       and.l d0, 0x1a(a4)
          0x00598296      203ab612       move.l 0x5938aa(pc), d0
          0x0059829a      4680           not.l d0
          0x0059829c      c1ac001e       and.l d0, 0x1e(a4)
          0x005982a0      4227           clr.b -(a7)
          0x005982a2      4eb9005a085c   jsr K03_DISKLIST.k03_lock_vol_ga
          0x005982a8      544f           addq.w 0x2, a7
          0x005982aa      2f10           move.l (a0), -(a7)
          0x005982ac      4eb90059fefc   jsr K03_DISKLIST.k03_remove_vol
          0x005982b2      2e90           move.l (a0), (a7)
          0x005982b4      48780000       pea.l 0x0
          0x005982b8      4ebafc08       jsr K0_DISKMGR.tell_all(pc)
          0x005982bc      504f           addq.w 0x8, a7
       > 0x005982be      4cdf1103       movem.l (a7)+, d0-d1/a0/a4
           0x005982c2      4e5e           unlk a6
           0x005982c4      4e75           rts
 66: K0_DISKMGR.k_add_subvol ();
           0x005982c6      4e56fede       link.w a6, 0xfede
           0x005982ca      bfd5           cmpa.l (a5), a7
       < 0x005982cc      6206           bhi.b 0x5982d4
          0x005982ce      44fc0002       move.w 0x2, ccr
          0x005982d2      4e76           trapv
       > 0x005982d4      defc0122       adda.w 0x122, a7
           0x005982d8      48e78080       movem.l d0/a0, -(a7)
           0x005982dc      594f           subq.w 0x4, a7
           0x005982de      2f2e0116       move.l 0x116(a6), -(a7)
           0x005982e2      1f2e0114       move.b 0x114(a6), -(a7)
           0x005982e6      41ee0114       lea.l 0x114(a6), a0
           0x005982ea      7042           moveq 0x42, d0
       > 0x005982ec      2f20           move.l -(a0), -(a7)
       < 0x005982ee      51c8fffc       dbra d0, 0x5982ec
           0x005982f2      4eb9005a034c   jsr K03_DISKLIST.k03_add_subvol
           0x005982f8      defc0112       adda.w 0x112, a7
           0x005982fc      2d5f011a       move.l (a7)+, 0x11a(a6)
           0x00598300      4cdf0101       movem.l (a7)+, d0/a0
           0x00598304      4e5e           unlk a6
           0x00598306      4e75           rts
 62: K0_DISKMGR.k_next_subvol ();
           0x00598308      4e56ffea       link.w a6, 0xffea
           0x0059830c      bfd5           cmpa.l (a5), a7
       < 0x0059830e      6206           bhi.b 0x598316
          0x00598310      44fc0002       move.w 0x2, ccr
          0x00598314      4e76           trapv
       > 0x00598316      defc0016       adda.w 0x16, a7
           0x0059831a      48e78080       movem.l d0/a0, -(a7)
           0x0059831e      554f           subq.w 0x2, a7
           0x00598320      2f2e000c       move.l 0xc(a6), -(a7)
           0x00598324      206e0008       movea.l 0x8(a6), a0
           0x00598328      4850           pea.l (a0)
           0x0059832a      4eb9005a0532   jsr K03_DISKLIST.k03_next_subvol
           0x00598330      504f           addq.w 0x8, a7
           0x00598332      101f           move.b (a7)+, d0
           0x00598334      4880           ext.w d0
           0x00598336      41bc0001       chk.w 0x1, d0
           0x0059833a      1d400010       move.b d0, 0x10(a6)
           0x0059833e      4cdf0101       movem.l (a7)+, d0/a0
           0x00598342      4e5e           unlk a6
           0x00598344      4e75           rts
            ; CALL XREFS from MENUDISKSCOM.hit_sv_num @ 0x4e4d94, 0x4e4dcc
            ; CALL XREF from K03_DISKLIST.set_sv_select @ 0x59e1f8
 68: K0_DISKMGR.k_subvol ();
           0x00598346      4e56ffe8       link.w a6, 0xffe8
           0x0059834a      bfd5           cmpa.l (a5), a7
       < 0x0059834c      6206           bhi.b 0x598354
          0x0059834e      44fc0002       move.w 0x2, ccr
          0x00598352      4e76           trapv
       > 0x00598354      defc0018       adda.w 0x18, a7
           0x00598358      48e78080       movem.l d0/a0, -(a7)
           0x0059835c      554f           subq.w 0x2, a7
           0x0059835e      2f2e000e       move.l 0xe(a6), -(a7)
           0x00598362      1f2e000c       move.b 0xc(a6), -(a7)
           0x00598366      206e0008       movea.l 0x8(a6), a0
           0x0059836a      4850           pea.l (a0)
           0x0059836c      4eb9005a0638   jsr K03_DISKLIST.k03_subvol
           0x00598372      defc000a       adda.w 0xa, a7
           0x00598376      101f           move.b (a7)+, d0
           0x00598378      4880           ext.w d0
           0x0059837a      41bc0001       chk.w 0x1, d0
           0x0059837e      1d400012       move.b d0, 0x12(a6)
           0x00598382      4cdf0101       movem.l (a7)+, d0/a0
           0x00598386      4e5e           unlk a6
           0x00598388      4e75           rts
            ; XREFS: CALL 0x004e3daa  CALL 0x004e3e80  CALL 0x004e3efa  
            ; XREFS: CALL 0x004e42d4  CALL 0x0074dca2  CALL 0x0074dfe6  
 66: K0_DISKMGR.k_get_node ();
           0x0059838a      4e56ffea       link.w a6, 0xffea
           0x0059838e      bfd5           cmpa.l (a5), a7
       < 0x00598390      6206           bhi.b 0x598398
          0x00598392      44fc0002       move.w 0x2, ccr
          0x00598396      4e76           trapv
       > 0x00598398      defc0016       adda.w 0x16, a7
           0x0059839c      48e78080       movem.l d0/a0, -(a7)
           0x005983a0      554f           subq.w 0x2, a7
           0x005983a2      206e000c       movea.l 0xc(a6), a0
           0x005983a6      4850           pea.l (a0)
           0x005983a8      1f2e000a       move.b 0xa(a6), -(a7)
           0x005983ac      1f2e0008       move.b 0x8(a6), -(a7)
           0x005983b0      4eb90059c6b2   jsr K03_DISKLIST.k03_get_node
           0x005983b6      504f           addq.w 0x8, a7
           0x005983b8      101f           move.b (a7)+, d0
           0x005983ba      4880           ext.w d0
           0x005983bc      41bc0001       chk.w 0x1, d0
           0x005983c0      1d400010       move.b d0, 0x10(a6)
           0x005983c4      4cdf0101       movem.l (a7)+, d0/a0
           0x005983c8      4e5e           unlk a6
           0x005983ca      4e75           rts
            ; CALL XREF from MENUDISKSCOM.update_drives @ 0x4e3f20
            ; CALL XREF from MENULIBCOM.setup_disks_box @ 0x74dcc4
            ; CALL XREF from MENULIBCOM.setup_disk_grou @ 0x74e008
 58: K0_DISKMGR.k_node_data ();
           0x005983cc      4e56ffec       link.w a6, 0xffec
           0x005983d0      bfd5           cmpa.l (a5), a7
       < 0x005983d2      6206           bhi.b 0x5983da
          0x005983d4      44fc0002       move.w 0x2, ccr
          0x005983d8      4e76           trapv
       > 0x005983da      defc0014       adda.w 0x14, a7
           0x005983de      48e70080       movem.l a0, -(a7)
           0x005983e2      2f2e0010       move.l 0x10(a6), -(a7)
           0x005983e6      1f2e000e       move.b 0xe(a6), -(a7)
           0x005983ea      1f2e000c       move.b 0xc(a6), -(a7)
           0x005983ee      206e0008       movea.l 0x8(a6), a0
           0x005983f2      4850           pea.l (a0)
           0x005983f4      4eb90059c404   jsr K03_DISKLIST.k03_node_data
           0x005983fa      defc000c       adda.w 0xc, a7
           0x005983fe      4cdf0100       movem.l (a7)+, a0
           0x00598402      4e5e           unlk a6
           0x00598404      4e75           rts
            ; CALL XREF from MENUDISKSCOM.supervol_box_in @ 0x4e6714
 76: K0_DISKMGR.k_supervol_node ();
           0x00598406      4e56ffe2       link.w a6, 0xffe2
           0x0059840a      bfd5           cmpa.l (a5), a7
       < 0x0059840c      6206           bhi.b 0x598414
          0x0059840e      44fc0002       move.w 0x2, ccr
          0x00598412      4e76           trapv
       > 0x00598414      defc001e       adda.w 0x1e, a7
           0x00598418      48e78080       movem.l d0/a0, -(a7)
           0x0059841c      554f           subq.w 0x2, a7
           0x0059841e      2f2e0014       move.l 0x14(a6), -(a7)
           0x00598422      206e0010       movea.l 0x10(a6), a0
           0x00598426      4850           pea.l (a0)
           0x00598428      206e000c       movea.l 0xc(a6), a0
           0x0059842c      4850           pea.l (a0)
           0x0059842e      206e0008       movea.l 0x8(a6), a0
           0x00598432      4850           pea.l (a0)
           0x00598434      4eb9005a0784   jsr K03_DISKLIST.k03_supervol_no
           0x0059843a      defc0010       adda.w 0x10, a7
           0x0059843e      101f           move.b (a7)+, d0
           0x00598440      4880           ext.w d0
           0x00598442      41bc0001       chk.w 0x1, d0
           0x00598446      1d400018       move.b d0, 0x18(a6)
           0x0059844a      4cdf0101       movem.l (a7)+, d0/a0
           0x0059844e      4e5e           unlk a6
           0x00598450      4e75           rts
            ; CALL XREF from MENUDISKSCOM.close_nodes @ 0x4e65b4
 28: K0_DISKMGR.k_close_nodes ();
           0x00598452      4e56fffc       link.w a6, 0xfffc
           0x00598456      bfd5           cmpa.l (a5), a7
       < 0x00598458      6206           bhi.b 0x598460
          0x0059845a      44fc0002       move.w 0x2, ccr
          0x0059845e      4e76           trapv
       > 0x00598460      defc0004       adda.w 0x4, a7
           0x00598464      4eb90059f5f4   jsr K03_DISKLIST.k03_close_nodes
           0x0059846a      4e5e           unlk a6
           0x0059846c      4e75           rts
            ; CALL XREF from MENUDISKSCOM.hit_drive_num @ 0x4e46cc
 34: K0_DISKMGR.k_hit_node ();
           0x0059846e      4e56fff8       link.w a6, 0xfff8
           0x00598472      bfd5           cmpa.l (a5), a7
       < 0x00598474      6206           bhi.b 0x59847c
          0x00598476      44fc0002       move.w 0x2, ccr
          0x0059847a      4e76           trapv
       > 0x0059847c      defc0008       adda.w 0x8, a7
           0x00598480      2f2e0008       move.l 0x8(a6), -(a7)
           0x00598484      4eb90059f638   jsr K03_DISKLIST.k03_hit_node
           0x0059848a      584f           addq.w 0x4, a7
           0x0059848c      4e5e           unlk a6
           0x0059848e      4e75           rts
            ; CALL XREF from MENUDISKSCOM.update_status @ 0x4e36ce
            ; CALL XREF from MENULIBCOM.setup_disks_box @ 0x74dcfe
            ; CALL XREF from MENULIBCOM.setup_disk_grou @ 0x74e048
 54: K0_DISKMGR.k_node_status ();
           0x00598490      4e56ffee       link.w a6, 0xffee
           0x00598494      bfd5           cmpa.l (a5), a7
       < 0x00598496      6206           bhi.b 0x59849e
          0x00598498      44fc0002       move.w 0x2, ccr
          0x0059849c      4e76           trapv
       > 0x0059849e      defc0012       adda.w 0x12, a7
           0x005984a2      48e70080       movem.l a0, -(a7)
           0x005984a6      2f2e000e       move.l 0xe(a6), -(a7)
           0x005984aa      1f2e000c       move.b 0xc(a6), -(a7)
           0x005984ae      206e0008       movea.l 0x8(a6), a0
           0x005984b2      4850           pea.l (a0)
           0x005984b4      4eb90059e0aa   jsr K03_DISKLIST.k03_node_status
           0x005984ba      defc000a       adda.w 0xa, a7
           0x005984be      4cdf0100       movem.l (a7)+, a0
           0x005984c2      4e5e           unlk a6
           0x005984c4      4e75           rts
            ; CALL XREF from MENUDISKSCOM.hit_drive_selec @ 0x4e4c20
            ; CALL XREF from MENULIBCOM.do_drive_select @ 0x750162
 76: K0_DISKMGR.k_select_node_h ();
           0x005984c6      4e56ffe4       link.w a6, 0xffe4
           0x005984ca      bfd5           cmpa.l (a5), a7
       < 0x005984cc      6206           bhi.b 0x5984d4
          0x005984ce      44fc0002       move.w 0x2, ccr
          0x005984d2      4e76           trapv
       > 0x005984d4      defc001c       adda.w 0x1c, a7
           0x005984d8      48e78080       movem.l d0/a0, -(a7)
           0x005984dc      554f           subq.w 0x2, a7
           0x005984de      2f2e0012       move.l 0x12(a6), -(a7)
           0x005984e2      1f2e0010       move.b 0x10(a6), -(a7)
           0x005984e6      1f2e000e       move.b 0xe(a6), -(a7)
           0x005984ea      1f2e000c       move.b 0xc(a6), -(a7)
           0x005984ee      206e0008       movea.l 0x8(a6), a0
           0x005984f2      4850           pea.l (a0)
           0x005984f4      4eb90059ed6a   jsr K03_DISKLIST.k03_select_node
           0x005984fa      defc000e       adda.w 0xe, a7
           0x005984fe      101f           move.b (a7)+, d0
           0x00598500      4880           ext.w d0
           0x00598502      41bc0001       chk.w 0x1, d0
           0x00598506      1d400016       move.b d0, 0x16(a6)
           0x0059850a      4cdf0101       movem.l (a7)+, d0/a0
           0x0059850e      4e5e           unlk a6
           0x00598510      4e75           rts
 88: K0_DISKMGR.k_set_supervol ();
           0x00598512      4e56fde6       link.w a6, 0xfde6
           0x00598516      bfd5           cmpa.l (a5), a7
       < 0x00598518      6206           bhi.b 0x598520
          0x0059851a      44fc0002       move.w 0x2, ccr
          0x0059851e      4e76           trapv
       > 0x00598520      defc021a       adda.w 0x21a, a7
           0x00598524      48e780c0       movem.l d0/a0-a1, -(a7)
           0x00598528      2f2e020e       move.l 0x20e(a6), -(a7)
           0x0059852c      1f2e020c       move.b 0x20c(a6), -(a7)
           0x00598530      2f2e0208       move.l 0x208(a6), -(a7)
           0x00598534      9efc0100       suba.w 0x100, a7
           0x00598538      204f           movea.l a7, a0
           0x0059853a      43ee0108       lea.l 0x108(a6), a1
           0x0059853e      703f           moveq 0x3f, d0
       > 0x00598540      20d9           move.l (a1)+, (a0)+
       < 0x00598542      51c8fffc       dbra d0, 0x598540
           0x00598546      9efc0100       suba.w 0x100, a7
           0x0059854a      204f           movea.l a7, a0
           0x0059854c      43ee0008       lea.l 0x8(a6), a1
           0x00598550      703f           moveq 0x3f, d0
       > 0x00598552      20d9           move.l (a1)+, (a0)+
       < 0x00598554      51c8fffc       dbra d0, 0x598552
           0x00598558      4eb90059ef0e   jsr K03_DISKLIST.k03_set_supervo
           0x0059855e      defc020a       adda.w 0x20a, a7
           0x00598562      4cdf0301       movem.l (a7)+, d0/a0-a1
           0x00598566      4e5e           unlk a6
           0x00598568      4e75           rts
 76: K0_DISKMGR.k_find_node ();
           0x0059856a      4e56ffe2       link.w a6, 0xffe2
           0x0059856e      bfd5           cmpa.l (a5), a7
       < 0x00598570      6206           bhi.b 0x598578
          0x00598572      44fc0002       move.w 0x2, ccr
          0x00598576      4e76           trapv
       > 0x00598578      defc001e       adda.w 0x1e, a7
           0x0059857c      48e78080       movem.l d0/a0, -(a7)
           0x00598580      554f           subq.w 0x2, a7
           0x00598582      2f2e0014       move.l 0x14(a6), -(a7)
           0x00598586      1f2e0012       move.b 0x12(a6), -(a7)
           0x0059858a      1f2e0010       move.b 0x10(a6), -(a7)
           0x0059858e      2f2e000c       move.l 0xc(a6), -(a7)
           0x00598592      206e0008       movea.l 0x8(a6), a0
           0x00598596      4850           pea.l (a0)
           0x00598598      4eb90059f28c   jsr K03_DISKLIST.k03_find_node
           0x0059859e      defc0010       adda.w 0x10, a7
           0x005985a2      101f           move.b (a7)+, d0
           0x005985a4      4880           ext.w d0
           0x005985a6      41bc0001       chk.w 0x1, d0
           0x005985aa      1d400018       move.b d0, 0x18(a6)
           0x005985ae      4cdf0101       movem.l (a7)+, d0/a0
           0x005985b2      4e5e           unlk a6
           0x005985b4      4e75           rts
            ; CALL XREF from K95_CARDS.do_vol_spec @ 0x6620f6
            ; CALL XREFS from K95_CARDS.k95_setup_volum @ 0x6630b0, 0x6630fe
 66: K0_DISKMGR.k_node_grouping ();
           0x005985b6      4e56ffe6       link.w a6, 0xffe6
           0x005985ba      bfd5           cmpa.l (a5), a7
       < 0x005985bc      6206           bhi.b 0x5985c4
          0x005985be      44fc0002       move.w 0x2, ccr
          0x005985c2      4e76           trapv
       > 0x005985c4      defc001a       adda.w 0x1a, a7
           0x005985c8      48e70080       movem.l a0, -(a7)
           0x005985cc      594f           subq.w 0x4, a7
           0x005985ce      2f2e0012       move.l 0x12(a6), -(a7)
           0x005985d2      1f2e0010       move.b 0x10(a6), -(a7)
           0x005985d6      206e000c       movea.l 0xc(a6), a0
           0x005985da      4850           pea.l (a0)
           0x005985dc      206e0008       movea.l 0x8(a6), a0
           0x005985e0      4850           pea.l (a0)
           0x005985e2      4eb90059cb10   jsr K03_DISKLIST.k03_node_groupi
           0x005985e8      defc000e       adda.w 0xe, a7
           0x005985ec      2d5f0016       move.l (a7)+, 0x16(a6)
           0x005985f0      4cdf0100       movem.l (a7)+, a0
           0x005985f4      4e5e           unlk a6
           0x005985f6      4e75           rts
 50: K0_DISKMGR.k_bank_areas ();
           0x005985f8      4e56fff0       link.w a6, 0xfff0
           0x005985fc      bfd5           cmpa.l (a5), a7
       < 0x005985fe      6206           bhi.b 0x598606
          0x00598600      44fc0002       move.w 0x2, ccr
          0x00598604      4e76           trapv
       > 0x00598606      defc0010       adda.w 0x10, a7
           0x0059860a      48e70080       movem.l a0, -(a7)
           0x0059860e      206e000c       movea.l 0xc(a6), a0
           0x00598612      4850           pea.l (a0)
           0x00598614      206e0008       movea.l 0x8(a6), a0
           0x00598618      4850           pea.l (a0)
           0x0059861a      4eb9005a089a   jsr K03_DISKLIST.k03_bank_areas
           0x00598620      504f           addq.w 0x8, a7
           0x00598622      4cdf0100       movem.l (a7)+, a0
           0x00598626      4e5e           unlk a6
           0x00598628      4e75           rts
            ; CALL XREF from AFS_FILER.afs_init_disk @ 0x5c35f6
 40: K0_DISKMGR.k_filer_num ();
           0x0059862a      4e56fff6       link.w a6, 0xfff6
           0x0059862e      bfd5           cmpa.l (a5), a7
       < 0x00598630      6206           bhi.b 0x598638
          0x00598632      44fc0002       move.w 0x2, ccr
          0x00598636      4e76           trapv
       > 0x00598638      defc000a       adda.w 0xa, a7
           0x0059863c      594f           subq.w 0x4, a7
           0x0059863e      1f2e0008       move.b 0x8(a6), -(a7)
           0x00598642      4eb9005b74b6   jsr K8_DRIVES.k8_filer_num
           0x00598648      544f           addq.w 0x2, a7
           0x0059864a      2d5f000a       move.l (a7)+, 0xa(a6)
           0x0059864e      4e5e           unlk a6
           0x00598650      4e75           rts
            ; CALL XREF from MENUDISKSCOM.update_drives @ 0x4e3c10
 28: K0_DISKMGR.k_check_disks ();
           0x00598652      4e56fffc       link.w a6, 0xfffc
           0x00598656      bfd5           cmpa.l (a5), a7
       < 0x00598658      6206           bhi.b 0x598660
          0x0059865a      44fc0002       move.w 0x2, ccr
          0x0059865e      4e76           trapv
       > 0x00598660      defc0004       adda.w 0x4, a7
           0x00598664      4eb9005b74e8   jsr K8_DRIVES.k8_check_disks
           0x0059866a      4e5e           unlk a6
           0x0059866c      4e75           rts
            ; XREFS: CALL 0x00498eb6  CALL 0x0049a4a6  CALL 0x0049a7d8  
            ; XREFS: CALL 0x0049ad60  CALL 0x005b599c  CALL 0x00643d9a  
            ; XREFS: CALL 0x00645222  CALL 0x0064ab74  CALL 0x0064d5e2  
            ; XREFS: CALL 0x0066991e  CALL 0x006731f2  CALL 0x0076c0f6  
            ; XREFS: CALL 0x007a4b7a  
 200: K0_DISKMGR.k_gen_file ();
           ; var int32_t var_4de0h @ a6-0x4de0
           0x0059866e      4e56ffc4       link.w a6, 0xffc4
           0x00598672      bfd5           cmpa.l (a5), a7
       < 0x00598674      6206           bhi.b 0x59867c
          0x00598676      44fc0002       move.w 0x2, ccr
          0x0059867a      4e76           trapv
       > 0x0059867c      defc0032       adda.w 0x32, a7
           0x00598680      48e7c0f8       movem.l d0-d1/a0-a4, -(a7)
           0x00598684      47eefffe       lea.l -0x2(a6), a3
           0x00598688      7201           moveq 0x1, d1
           0x0059868a      16bab223       move.b 0x5938af(pc), (a3)
           0x0059868e      1d7ab220ffff   move.b 0x5938b0(pc), -0x1(a6)
           0x00598694      206e0008       movea.l 0x8(a6), a0
           0x00598698      4850           pea.l (a0)
           0x0059869a      486efff6       pea.l -0xa(a6)
           0x0059869e      4ebab9a0       jsr K0_DISKMGR.new_file(pc)
           0x005986a2      504f           addq.w 0x8, a7
           0x005986a4      226efff6       movea.l -0xa(a6), a1
           0x005986a8      b3e9fffc       cmpa.l -0x4(a1), a1
       < 0x005986ac      6702           beq.b 0x5986b0
          0x005986ae      4e4d           trap 0xd
       > 0x005986b0      43e90008       lea.l 0x8(a1), a1
           0x005986b4      45ee000c       lea.l 0xc(a6), a2
           0x005986b8      7009           moveq 0x9, d0
       > 0x005986ba      12da           move.b (a2)+, (a1)+
       < 0x005986bc      51c8fffc       dbra d0, 0x5986ba
           0x005986c0      594f           subq.w 0x4, a7
           0x005986c2      2f2e000c       move.l 0xc(a6), -(a7)
           0x005986c6      1f01           move.b d1, -(a7)
           0x005986c8      4ebab416       jsr K0_DISKMGR.k0_gen_vol_ptr(pc)
           0x005986cc      5c4f           addq.w 0x6, a7
           0x005986ce      285f           movea.l (a7)+, a4
           0x005986d0      b8c1           cmpa.w d1, a4
       < 0x005986d2      6604           bne.b 0x5986d8
          0x005986d4      36bab1dc       move.w 0x5938b2(pc), (a3)
       > 0x005986d8      1013           move.b (a3), d0
           0x005986da      b03ab1d9       cmp.b 0x5938b5(pc), d0
       < 0x005986de      6608           bne.b 0x5986e8
          0x005986e0      102effff       move.b -0x1(a6), d0
          0x005986e4      b03ab1d0       cmp.b 0x5938b6(pc), d0
      > 0x005986e8      661c           bne.b 0x598706
          0x005986ea      4850           pea.l (a0)
          0x005986ec      486efff6       pea.l -0xa(a6)
          0x005986f0      b9ecfffc       cmpa.l -0x4(a4), a4
      < 0x005986f4      6702           beq.b 0x5986f8
         0x005986f6      4e4d           trap 0xd
      > 0x005986f8      1f2c000c       move.b 0xc(a4), -(a7)
          0x005986fc      4853           pea.l (a3)
          0x005986fe      4ebac10e       jsr K0_DISKMGR.k0_inc_ref(pc)
          0x00598702      defc000e       adda.w 0xe, a7
      > 0x00598706      3013           move.w (a3), d0
           0x00598708      b07ab1ae       cmp.w 0x5938b8(pc), d0
       < 0x0059870c      6720           beq.b 0x59872e
          0x0059870e      226efff6       movea.l -0xa(a6), a1
          0x00598712      b3e9fffc       cmpa.l -0x4(a1), a1
      < 0x00598716      6702           beq.b 0x59871a
         0x00598718      4e4d           trap 0xd
      > 0x0059871a      237cffffffff.  move.l 0xffffffff, 0x8(a1)
          0x00598722      486efff6       pea.l -0xa(a6)
          0x00598726      4ebab9c6       jsr K0_DISKMGR.disp_file(pc)
          0x0059872a      584f           addq.w 0x4, a7
          0x0059872c      2081           move.l d1, (a0)
       > 0x0059872e      4cdf1f03       movem.l (a7)+, d0-d1/a0-a4
           0x00598732      4e5e           unlk a6
           0x00598734      4e75           rts
            ; XREFS(27)
 180: K0_DISKMGR.k_gen_fid ();
           0x00598736      4e56ffc6       link.w a6, 0xffc6
           0x0059873a      bfd5           cmpa.l (a5), a7
       < 0x0059873c      6206           bhi.b 0x598744
          0x0059873e      44fc0002       move.w 0x2, ccr
          0x00598742      4e76           trapv
       > 0x00598744      defc0032       adda.w 0x32, a7
           0x00598748      48e7c0f8       movem.l d0-d1/a0-a4, -(a7)
           0x0059874c      7201           moveq 0x1, d1
           0x0059874e      206e0008       movea.l 0x8(a6), a0
           0x00598752      10bab167       move.b 0x5938bb(pc), (a0)
           0x00598756      117ab1640001   move.b 0x5938bc(pc), 0x1(a0)
           0x0059875c      594f           subq.w 0x4, a7
           0x0059875e      226e0014       movea.l 0x14(a6), a1
           0x00598762      4851           pea.l (a1)
           0x00598764      1f01           move.b d1, -(a7)
           0x00598766      4850           pea.l (a0)
           0x00598768      4ebab44a       jsr K0_DISKMGR.k0_gen_file_ptr(pc)
           0x0059876c      defc000a       adda.w 0xa, a7
           0x00598770      285f           movea.l (a7)+, a4
           0x00598772      3641           movea.w d1, a3
           0x00598774      b8c1           cmpa.w d1, a4
       < 0x00598776      661c           bne.b 0x598794
          0x00598778      226e0010       movea.l 0x10(a6), a1
          0x0059877c      45fab140       lea.l 0x5938be(pc), a2
          0x00598780      7009           moveq 0x9, d0
      > 0x00598782      12da           move.b (a2)+, (a1)+
      < 0x00598784      51c8fffc       dbra d0, 0x598782
          0x00598788      10bab13f       move.b 0x5938c9(pc), (a0)
          0x0059878c      117ab13c0001   move.b 0x5938ca(pc), 0x1(a0)
      < 0x00598792      6028           bra.b 0x5987bc
      > 0x00598794      226e0010       movea.l 0x10(a6), a1
          0x00598798      b9ecfffc       cmpa.l -0x4(a4), a4
      < 0x0059879c      6702           beq.b 0x5987a0
         0x0059879e      4e4d           trap 0xd
      > 0x005987a0      45ec0008       lea.l 0x8(a4), a2
          0x005987a4      7009           moveq 0x9, d0
      > 0x005987a6      12da           move.b (a2)+, (a1)+
      < 0x005987a8      51c8fffc       dbra d0, 0x5987a6
          0x005987ac      594f           subq.w 0x4, a7
          0x005987ae      2f2c0008       move.l 0x8(a4), -(a7)
          0x005987b2      1f01           move.b d1, -(a7)
          0x005987b4      4ebab32a       jsr K0_DISKMGR.k0_gen_vol_ptr(pc)
          0x005987b8      5c4f           addq.w 0x6, a7
          0x005987ba      265f           movea.l (a7)+, a3
      > 0x005987bc      b6c1           cmpa.w d1, a3
       < 0x005987be      6712           beq.b 0x5987d2
          0x005987c0      226e000c       movea.l 0xc(a6), a1
          0x005987c4      b7ebfffc       cmpa.l -0x4(a3), a3
      < 0x005987c8      6702           beq.b 0x5987cc
         0x005987ca      4e4d           trap 0xd
      > 0x005987cc      12ab000c       move.b 0xc(a3), (a1)
      < 0x005987d0      6010           bra.b 0x5987e2
      > 0x005987d2      10bab0f8       move.b 0x5938cc(pc), (a0)
          0x005987d6      117ab0f50001   move.b 0x5938cd(pc), 0x1(a0)
          0x005987dc      226e000c       movea.l 0xc(a6), a1
          0x005987e0      4211           clr.b (a1)
      > 0x005987e2      4cdf1f03       movem.l (a7)+, d0-d1/a0-a4
           0x005987e6      4e5e           unlk a6
           0x005987e8      4e75           rts
            ; CALL XREF from MAVIS_TEST @ +0x2538
 46: K0_DISKMGR.k_dlog_init ();
           0x005987ea      4e56fffc       link.w a6, 0xfffc
           0x005987ee      bfd5           cmpa.l (a5), a7
       < 0x005987f0      6206           bhi.b 0x5987f8
          0x005987f2      44fc0002       move.w 0x2, ccr
          0x005987f6      4e76           trapv
       > 0x005987f8      defc0004       adda.w 0x4, a7
           0x005987fc      4eb900599384   jsr K01_DEBUG.k01_init
           0x00598802      4eb9005a08cc   jsr K03_DISKLIST.k03_init
           0x00598808      4eb9005b338a   jsr K5_DLOG_UTILS.k5_init
           0x0059880e      4eb9005b4314   jsr K6_COMMANDS.k6_init
           0x00598814      4e5e           unlk a6
           0x00598816      4e75           rts
            ; CALL XREF from MAVIS_PAINT.mavis_dpb_mainp @ 0x6d2e7c
 174: K0_DISKMGR.k_init ();
           0x00598818      4e56ffe0       link.w a6, 0xffe0
           0x0059881c      bfd5           cmpa.l (a5), a7
       < 0x0059881e      6206           bhi.b 0x598826
          0x00598820      44fc0002       move.w 0x2, ccr
          0x00598824      4e76           trapv
       > 0x00598826      defc0020       adda.w 0x20, a7
           0x0059882a      48e7c0e0       movem.l d0-d1/a0-a2, -(a7)
           0x0059882e      45f90083fcfe   lea.l 0x83fcfe, a2
           0x00598834      7201           moveq 0x1, d1
           0x00598836      24bab096       move.l 0x5938ce(pc), (a2)
           0x0059883a      23fab0960083.  move.l 0x5938d2(pc), 0x83fd02.l
           0x00598842      23fab0920083.  move.l 0x5938d6(pc), 0x83fd06.l
           0x0059884a      33fab08e0083.  move.w 0x5938da(pc), 0x83fd0a.l
           0x00598852      13fab0880083.  move.b 0x5938dc(pc), 0x83fd0c.l
           0x0059885a      594f           subq.w 0x4, a7
           0x0059885c      4eb900633bb2   jsr HANDCOM.get_pixel_aspec
           0x00598862      23df0083fcfa   move.l (a7)+, 0x83fcfa
           0x00598868      23c10083fe16   move.l d1, 0x83fe16
           0x0059886e      23c10083fe1a   move.l d1, 0x83fe1a
           0x00598874      23c10083fe0e   move.l d1, 0x83fe0e
           0x0059887a      42b90083fe12   clr.l 0x83fe12
           0x00598880      42b90083fe1e   clr.l 0x83fe1e
           0x00598886      42390083fdfe   clr.b 0x83fdfe
           0x0059888c      48790083fe00   pea.l 0x83fe00
           0x00598892      3f01           move.w d1, -(a7)
           0x00598894      3f01           move.w d1, -(a7)
           0x00598896      4eb900402b88   jsr p_New_Semaphore
           0x0059889c      504f           addq.w 0x8, a7
           0x0059889e      4eb9005ab5cc   jsr K05_LOADSAVE.k05_init
           0x005988a4      4eb9005aca1a   jsr K1_AFS_ONLY.k1_init_filer_s
           0x005988aa      4eb9005b7652   jsr K8_DRIVES.k8_init
           0x005988b0      204a           movea.l a2, a0
           0x005988b2      43fab029       lea.l 0x5938dd(pc), a1
           0x005988b6      7007           moveq 0x7, d0
       > 0x005988b8      10d9           move.b (a1)+, (a0)+
       < 0x005988ba      51c8fffc       dbra d0, 0x5988b8
           0x005988be      4cdf0703       movem.l (a7)+, d0-d1/a0-a2
           0x005988c2      4e5e           unlk a6
