            ;-- K2_TYPES:
            0x005acd56      .byte 0x00
            0x005acd57      .byte 0x00
            0x005acd58      .byte 0x00
            0x005acd59      .byte 0x00
            0x005acd5a      .byte 0x00
            0x005acd5b      .byte 0x00
            0x005acd5c      .byte 0x00
            0x005acd5d      .byte 0x00
            0x005acd5e      .byte 0x00
            0x005acd5f      .byte 0x00
            0x005acd60      .byte 0x3f
            0x005acd61      .byte 0x80
            0x005acd62      .byte 0x00
            0x005acd63      .byte 0x00
            0x005acd64      .byte 0x3f
            0x005acd65      .byte 0x80
            0x005acd66      .byte 0x00
            0x005acd67      .byte 0x00
            0x005acd68      .byte 0x00
            0x005acd69      .byte 0x00
            0x005acd6a      .byte 0x00
            0x005acd6b      .byte 0x00
            0x005acd6c      .byte 0x00
            0x005acd6d      .byte 0x00
            0x005acd6e      .byte 0x00
            0x005acd6f      .byte 0x00
            0x005acd70      .byte 0x00
            0x005acd71      .byte 0x00
            0x005acd72      .byte 0x00
            0x005acd73      .byte 0x00
            0x005acd74      .byte 0x00
            0x005acd75      .byte 0x00
            0x005acd76      .byte 0x00
            0x005acd77      .byte 0x00
            0x005acd78      .byte 0x00
            0x005acd79      .byte 0x00
            0x005acd7a      .byte 0x00
            0x005acd7b      .byte 0x02
            0x005acd7c      .byte 0x00
            0x005acd7d      .byte 0x00
            0x005acd7e      .byte 0x3f
            0x005acd7f      .byte 0x80
            0x005acd80      .byte 0x00
            0x005acd81      .byte 0x00
            0x005acd82      .byte 0x3f
            0x005acd83      .byte 0x80
            0x005acd84      .byte 0x00
            0x005acd85      .byte 0x00
            0x005acd86      .byte 0x00
            0x005acd87      .byte 0x00
            0x005acd88      .byte 0x00
            0x005acd89      .byte 0x00
            0x005acd8a      .byte 0x00
            0x005acd8b      .byte 0x00
            0x005acd8c      .byte 0x00
            0x005acd8d      .byte 0x00
            0x005acd8e      .byte 0x3f
            0x005acd8f      .byte 0x80
            0x005acd90      .byte 0x00
            0x005acd91      .byte 0x00
            0x005acd92      .byte 0x3f
            0x005acd93      .byte 0x80
            0x005acd94      .byte 0x00
            0x005acd95      .byte 0x00
            0x005acd96      .byte 0x00
            0x005acd97      .byte 0x00
            0x005acd98      .byte 0x00
            0x005acd99      .byte 0x00
            0x005acd9a      .byte 0x00
            0x005acd9b      .byte 0x00
            0x005acd9c      .byte 0x00
            0x005acd9d      .byte 0x00
            0x005acd9e      .byte 0x00
            0x005acd9f      .byte 0x00
            0x005acda0      .byte 0x00
            0x005acda1      .byte 0x00
            0x005acda2      .byte 0x00
            0x005acda3      .byte 0x00
            0x005acda4      .byte 0x00
            0x005acda5      .byte 0x00
            0x005acda6      .byte 0x00
            0x005acda7      .byte 0x00
            0x005acda8      .byte 0x00
            0x005acda9      .byte 0x01
            0x005acdaa      .byte 0x00
            0x005acdab      .byte 0x00
            0x005acdac      .byte 0x00
            0x005acdad      .byte 0x00
            0x005acdae      .byte 0x00
            0x005acdaf      .byte 0x00
            0x005acdb0      .byte 0x00
            0x005acdb1      .byte 0x00
            0x005acdb2      .byte 0x00
            0x005acdb3      .byte 0x00
            0x005acdb4      .byte 0x00
            0x005acdb5      .byte 0x00
            0x005acdb6      .byte 0x00
            0x005acdb7      .byte 0x00
            0x005acdb8      .byte 0x00
            0x005acdb9      .byte 0x00
            0x005acdba      .byte 0x00
            0x005acdbb      .byte 0x00
            0x005acdbc     .string "              " ; len=14
            0x005acdca      .byte 0x00
            0x005acdcb      .byte 0x00
            0x005acdcc     .string "*             " ; len=14
            0x005acdda      .byte 0x80
            0x005acddb      .byte 0x00
            0x005acddc      .byte 0x00
            0x005acddd      .byte 0x00
            0x005acdde      .byte 0x07
            0x005acddf     .string "unknown" ; len=7
            0x005acde6      .byte 0x2c
            0x005acde7     .string "      " ; len=6
            0x005acded      .byte 0x03
            0x005acdee     .string "Any" ; len=3
            0x005acdf1      .byte 0x2c
            0x005acdf2     .string "          " ; len=10
            0x005acdfc      .byte 0x03
            0x005acdfd     .string "Any" ; len=3
            0x005ace00      .byte 0x29
            0x005ace01     .string "own,      " ; len=10
            0x005ace0b      .byte 0x00
            0x005ace0c      .byte 0x00
            0x005ace0d      .byte 0x00
            0x005ace0e      .byte 0x00
            0x005ace0f      .byte 0xc8
            0x005ace10      .byte 0x00
            0x005ace11      .byte 0x00
            0x005ace12      .byte 0xff
            0x005ace13      .byte 0xff
            0x005ace14      .byte 0xff
            0x005ace15      .byte 0xff
            0x005ace16      .byte 0x2a
            0x005ace17      .byte 0x20
            0x005ace18      .byte 0x20
            0x005ace19      .byte 0x20
            0x005ace1a      .byte 0x20
            0x005ace1b      .byte 0x20
            0x005ace1c      .byte 0x20
            0x005ace1d      .byte 0x20
            0x005ace1e      .byte 0x20
            0x005ace1f      .byte 0x20
            0x005ace20      .byte 0x20
            0x005ace21      .byte 0x20
            0x005ace22      .byte 0x20
            0x005ace23      .byte 0x20
            0x005ace24      .byte 0xff
            0x005ace25      .byte 0xff
            0x005ace26      .byte 0xff
            0x005ace27      .byte 0xff
            0x005ace28      .byte 0x20
            0x005ace29      .byte 0x02
            0x005ace2a     .string "  " ; len=2
            0x005ace2c      .byte 0x2c
            0x005ace2d     .string "           ," ; len=12
            0x005ace39      .byte 0x00
            0x005ace3a      .byte 0x01
            0x005ace3b      .byte 0x00
            0x005ace3c      .byte 0x01
            0x005ace3d      .byte 0x00
            0x005ace3e      .byte 0x07
            0x005ace3f     .string "unknown" ; len=7
            0x005ace46      .byte 0x2c
            0x005ace47     .string "      " ; len=6
            0x005ace4d      .byte 0x07
            0x005ace4e     .string "Unknown" ; len=7
            0x005ace55      .byte 0x2c
            0x005ace56     .string "      " ; len=6
            0x005ace5c      .byte 0x07
            0x005ace5d     .string "Unknown" ; len=7
            0x005ace64      .byte 0x29
            0x005ace65     .string "      " ; len=6
            0x005ace6b      .byte 0x03
            0x005ace6c      .byte 0x00
            0x005ace6d      .byte 0x00
            0x005ace6e      .byte 0x00
            0x005ace6f      .byte 0xc9
            0x005ace70      .byte 0x00
            0x005ace71      .byte 0x00
            0x005ace72      .byte 0x00
            0x005ace73      .byte 0x00
            0x005ace74      .byte 0x00
            0x005ace75      .byte 0x01
            0x005ace76     .string "U" ; len=1
            0x005ace77      .byte 0x4e
            0x005ace78     .string "KNOWN.DPB   " ; len=12
            0x005ace84      .byte 0x00
            0x005ace85      .byte 0x00
            0x005ace86      .byte 0x00
            0x005ace87      .byte 0x0b
            0x005ace88      .byte 0x20
            0x005ace89      .byte 0x00
            0x005ace8a     .string ",NKNOWN.DPB   ," ; len=15
            0x005ace99      .byte 0x00
            0x005ace9a      .byte 0x00
            0x005ace9b      .byte 0x00
            0x005ace9c      .byte 0x34
            0x005ace9d      .byte 0x01
            0x005ace9e      .byte 0x07
            0x005ace9f     .string "deleted" ; len=7
            0x005acea6      .byte 0x2c
            0x005acea7     .string "      " ; len=6
            0x005acead      .byte 0x07
            0x005aceae     .string "Deleted" ; len=7
            0x005aceb5      .byte 0x2c
            0x005aceb6     .string "DPB   " ; len=6
            0x005acebc      .byte 0x07
            0x005acebd     .string "Deleted" ; len=7
            0x005acec4      .byte 0x29
            0x005acec5     .string "      " ; len=6
            0x005acecb      .byte 0x00
            0x005acecc      .byte 0xff
            0x005acecd      .byte 0xff
            0x005acece      .byte 0xff
            0x005acecf      .byte 0xff
            0x005aced0      .byte 0x00
            0x005aced1      .byte 0x00
            0x005aced2      .byte 0x00
            0x005aced3      .byte 0x00
            0x005aced4      .byte 0x00
            0x005aced5      .byte 0x01
            0x005aced6     .string " " ; len=1
            0x005aced7      .byte 0x20
            0x005aced8     .string "            " ; len=12
            0x005acee4      .byte 0xff
            0x005acee5      .byte 0xff
            0x005acee6      .byte 0xff
            0x005acee7      .byte 0xff
            0x005acee8      .byte 0x20
            0x005acee9      .byte 0x00
            0x005aceea     .string ",             ," ; len=15
            0x005acef9      .byte 0x00
            0x005acefa      .byte 0x00
            0x005acefb      .byte 0x00
            0x005acefc      .byte 0x02
            0x005acefd      .byte 0x02
            0x005acefe      .byte 0x07
            0x005aceff     .string "picture" ; len=7
            0x005acf06      .byte 0x2c
            0x005acf07     .string "      " ; len=6
            0x005acf0d      .byte 0x07
            0x005acf0e     .string "Picture" ; len=7
            0x005acf15      .byte 0x2c
            0x005acf16     .string "      " ; len=6
            0x005acf1c      .byte 0x07
            0x005acf1d     .string "Picture" ; len=7
            0x005acf24      .byte 0x29
            0x005acf25     .string "      " ; len=6
            0x005acf2b      .byte 0x01
            0x005acf2c      .byte 0x00
            0x005acf2d      .byte 0x00
            0x005acf2e      .byte 0x01
            0x005acf2f      .byte 0x2c
            0x005acf30      .byte 0x01
            0x005acf31      .byte 0x00
            0x005acf32      .byte 0x00
            0x005acf33      .byte 0x00
            0x005acf34      .byte 0x00
            0x005acf35     .string "!PICTURE.DPB   " ; len=15
            0x005acf44      .byte 0x00
            0x005acf45      .byte 0x00
            0x005acf46      .byte 0x00
            0x005acf47      .byte 0x02
            0x005acf48      .byte 0x41
            0x005acf49      .byte 0x0e
            0x005acf4a     .string "*DPB *PICTURE " ; len=14
            0x005acf58      .byte 0x2c
            0x005acf59      .byte 0x00
            0x005acf5a      .byte 0x01
            0x005acf5b      .byte 0x00
            0x005acf5c      .byte 0x03
            0x005acf5d      .byte 0x03
            0x005acf5e      .byte 0x07
            0x005acf5f     .string "stencil" ; len=7
            0x005acf66      .byte 0x2c
            0x005acf67     .string "      " ; len=6
            0x005acf6d      .byte 0x07
            0x005acf6e     .string "Stencil" ; len=7
            0x005acf75      .byte 0x2c
            0x005acf76     .string "CTURE " ; len=6
            0x005acf7c      .byte 0x08
            0x005acf7d     .string "Key/sten" ; len=8
            0x005acf85      .byte 0x29
            0x005acf86     .string "     " ; len=5
            0x005acf8b      .byte 0x01
            0x005acf8c      .byte 0x00
            0x005acf8d      .byte 0x00
            0x005acf8e      .byte 0x01
            0x005acf8f      .byte 0x2d
            0x005acf90      .byte 0x01
            0x005acf91      .byte 0x00
            0x005acf92      .byte 0x00
            0x005acf93      .byte 0x00
            0x005acf94      .byte 0x00
            0x005acf95     .string "\"STENCIL.DPB   " ; len=15
            0x005acfa4      .byte 0x00
            0x005acfa5      .byte 0x00
            0x005acfa6      .byte 0x00
            0x005acfa7      .byte 0x03
            0x005acfa8      .byte 0x42
            0x005acfa9      .byte 0x0e
            0x005acfaa     .string "*DPB *STENCIL " ; len=14
            0x005acfb8      .byte 0x2c
            0x005acfb9      .byte 0x00
            0x005acfba      .byte 0x01
            0x005acfbb      .byte 0x00
            0x005acfbc      .byte 0x04
            0x005acfbd      .byte 0x04
            0x005acfbe      .byte 0x06
            0x005acfbf     .string "cutout" ; len=6
            0x005acfc5      .byte 0x2c
            0x005acfc6     .string "n)     " ; len=7
            0x005acfcd      .byte 0x06
            0x005acfce     .string "Cutout" ; len=6
            0x005acfd4      .byte 0x2c
            0x005acfd5     .string "TENCIL " ; len=7
            0x005acfdc      .byte 0x06
            0x005acfdd     .string "Cutout" ; len=6
            0x005acfe3      .byte 0x29
            0x005acfe4     .string "n)     " ; len=7
            0x005acfeb      .byte 0x03
            0x005acfec      .byte 0x00
            0x005acfed      .byte 0x00
            0x005acfee      .byte 0x01
            0x005acfef      .byte 0x2e
            0x005acff0      .byte 0x01
            0x005acff1      .byte 0x00
            0x005acff2      .byte 0x00
            0x005acff3      .byte 0x00
            0x005acff4      .byte 0x00
            0x005acff5     .string "%CUTOUT.DPB    " ; len=15
            0x005ad004      .byte 0x00
            0x005ad005      .byte 0x00
            0x005ad006      .byte 0x00
            0x005ad007      .byte 0x04
            0x005ad008      .byte 0x43
            0x005ad009      .byte 0x0d
            0x005ad00a     .string "*DPB *CUTOUT " ; len=13
            0x005ad017      .byte 0x2c
            0x005ad018     .string "," ; len=1
            0x005ad019      .byte 0x00
            0x005ad01a      .byte 0x01
            0x005ad01b      .byte 0x00
            0x005ad01c      .byte 0x06
            0x005ad01d      .byte 0x06
            0x005ad01e      .byte 0x04
            0x005ad01f     .string "grid" ; len=4
            0x005ad023      .byte 0x2c
            0x005ad024     .string "t)n)     " ; len=9
            0x005ad02d      .byte 0x04
            0x005ad02e     .string "Grid" ; len=4
            0x005ad032      .byte 0x2c
            0x005ad033     .string "*CUTOUT ," ; len=9
            0x005ad03c      .byte 0x04
            0x005ad03d     .string "Grid" ; len=4
            0x005ad041      .byte 0x29
            0x005ad042     .string "t)n)     " ; len=9
            0x005ad04b      .byte 0x00
            0x005ad04c      .byte 0x00
            0x005ad04d      .byte 0x00
            0x005ad04e      .byte 0x01
            0x005ad04f      .byte 0x90
            0x005ad050      .byte 0x01
            0x005ad051      .byte 0x00
            0x005ad052      .byte 0x00
            0x005ad053      .byte 0x00
            0x005ad054      .byte 0x00
            0x005ad055     .string "$GRID.DPB      " ; len=15
            0x005ad064      .byte 0x00
            0x005ad065      .byte 0x00
            0x005ad066      .byte 0x00
            0x005ad067      .byte 0x05
            0x005ad068      .byte 0x44
            0x005ad069      .byte 0x00
            0x005ad06a     .string ",RID.DPB      ," ; len=15
            0x005ad079      .byte 0x00
            0x005ad07a      .byte 0x00
            0x005ad07b      .byte 0x00
            0x005ad07c      .byte 0x07
            0x005ad07d      .byte 0x05
            0x005ad07e      .byte 0x07
            0x005ad07f     .string "palette" ; len=7
            0x005ad086      .byte 0x2c
            0x005ad087     .string ")     " ; len=6
            0x005ad08d      .byte 0x07
            0x005ad08e     .string "Palette" ; len=7
            0x005ad095      .byte 0x2c
            0x005ad096     .string "      " ; len=6
            0x005ad09c      .byte 0x07
            0x005ad09d     .string "Palette" ; len=7
            0x005ad0a4      .byte 0x29
            0x005ad0a5     .string ")     " ; len=6
            0x005ad0ab      .byte 0x01
            0x005ad0ac      .byte 0x00
            0x005ad0ad      .byte 0x00
            0x005ad0ae      .byte 0x01
            0x005ad0af      .byte 0x91
            0x005ad0b0      .byte 0x01
            0x005ad0b1      .byte 0x00
            0x005ad0b2      .byte 0x00
            0x005ad0b3      .byte 0x00
            0x005ad0b4      .byte 0x00
            0x005ad0b5     .string "'PALETTE.DPB   " ; len=15
            0x005ad0c4      .byte 0x00
            0x005ad0c5      .byte 0x00
            0x005ad0c6      .byte 0x00
            0x005ad0c7      .byte 0x06
            0x005ad0c8      .byte 0x45
            0x005ad0c9      .byte 0x0e
            0x005ad0ca     .string "*DPB *PALETTE " ; len=14
            0x005ad0d8      .byte 0x2c
            0x005ad0d9      .byte 0x00
            0x005ad0da      .byte 0x01
            0x005ad0db      .byte 0x00
            0x005ad0dc      .byte 0x08
            0x005ad0dd      .byte 0x09
            0x005ad0de      .byte 0x05
            0x005ad0df     .string "cells" ; len=5
            0x005ad0e4      .byte 0x2c
            0x005ad0e5     .string "e))     " ; len=8
            0x005ad0ed      .byte 0x0a
            0x005ad0ee     .string "Cell stack" ; len=10
            0x005ad0f8      .byte 0x2c
            0x005ad0f9     .string "TE " ; len=3
            0x005ad0fc      .byte 0x0a
            0x005ad0fd     .string "Cell stack" ; len=10
            0x005ad107      .byte 0x29
            0x005ad108     .string "   " ; len=3
            0x005ad10b      .byte 0x02
            0x005ad10c      .byte 0x00
            0x005ad10d      .byte 0x00
            0x005ad10e      .byte 0x01
            0x005ad10f      .byte 0x92
            0x005ad110      .byte 0x01
            0x005ad111      .byte 0x00
            0x005ad112      .byte 0x00
            0x005ad113      .byte 0x00
            0x005ad114      .byte 0x00
            0x005ad115     .string ",STACK.DPB     " ; len=15
            0x005ad124      .byte 0x00
            0x005ad125      .byte 0x00
            0x005ad126      .byte 0x00
            0x005ad127      .byte 0x07
            0x005ad128      .byte 0x46
            0x005ad129      .byte 0x00
            0x005ad12a     .string ",TACK.DPB     ," ; len=15
            0x005ad139      .byte 0x00
            0x005ad13a      .byte 0x00
            0x005ad13b      .byte 0x00
            0x005ad13c      .byte 0x33
            0x005ad13d      .byte 0x0a
            0x005ad13e      .byte 0x05
            0x005ad13f     .string "stack" ; len=5
            0x005ad144      .byte 0x2c
            0x005ad145     .string "tack)   " ; len=8
            0x005ad14d      .byte 0x05
            0x005ad14e     .string "Stack" ; len=5
            0x005ad153      .byte 0x2c
            0x005ad154     .string "DPB     " ; len=8
            0x005ad15c      .byte 0x05
            0x005ad15d     .string "Stack" ; len=5
            0x005ad162      .byte 0x29
            0x005ad163     .string "tack)   " ; len=8
            0x005ad16b      .byte 0x00
            0x005ad16c      .byte 0x00
            0x005ad16d      .byte 0x00
            0x005ad16e      .byte 0x01
            0x005ad16f      .byte 0x4a
            0x005ad170      .byte 0x01
            0x005ad171      .byte 0x00
            0x005ad172      .byte 0x00
            0x005ad173      .byte 0x00
            0x005ad174      .byte 0x00
            0x005ad175      .byte 0x01
            0x005ad176     .string " " ; len=1
            0x005ad177      .byte 0x20
            0x005ad178     .string "            " ; len=12
            0x005ad184      .byte 0xff
            0x005ad185      .byte 0xff
            0x005ad186      .byte 0xff
            0x005ad187      .byte 0xff
            0x005ad188      .byte 0x20
            0x005ad189      .byte 0x00
            0x005ad18a     .string ",             ," ; len=15
            0x005ad199      .byte 0x00
            0x005ad19a      .byte 0x00
            0x005ad19b      .byte 0x00
            0x005ad19c      .byte 0x09
            0x005ad19d      .byte 0x0b
            0x005ad19e      .byte 0x0e
            0x005ad19f     .string "s<e<q<ue<n<c<e" ; len=14
            0x005ad1ad      .byte 0x08
            0x005ad1ae     .string "Sequence" ; len=8
            0x005ad1b6      .byte 0x2c
            0x005ad1b7     .string "     " ; len=5
            0x005ad1bc      .byte 0x08
            0x005ad1bd     .string "Sequence" ; len=8
            0x005ad1c5      .byte 0x29
            0x005ad1c6     .string "n<c<e" ; len=5
            0x005ad1cb      .byte 0x00
            0x005ad1cc      .byte 0x00
            0x005ad1cd      .byte 0x00
            0x005ad1ce      .byte 0x01
            0x005ad1cf      .byte 0x93
            0x005ad1d0      .byte 0x01
            0x005ad1d1      .byte 0x00
            0x005ad1d2      .byte 0x00
            0x005ad1d3      .byte 0x00
            0x005ad1d4      .byte 0x00
            0x005ad1d5     .string "+SEQUENCE.DPB  " ; len=15
            0x005ad1e4      .byte 0x00
            0x005ad1e5      .byte 0x00
            0x005ad1e6      .byte 0x00
            0x005ad1e7      .byte 0x08
            0x005ad1e8      .byte 0x47
            0x005ad1e9      .byte 0x00
            0x005ad1ea     .string ",EQUENCE.DPB  ," ; len=15
            0x005ad1f9      .byte 0x00
            0x005ad1fa      .byte 0x00
            0x005ad1fb      .byte 0x00
            0x005ad1fc      .byte 0x29
            0x005ad1fd      .byte 0x0e
            0x005ad1fe      .byte 0x04
            0x005ad1ff     .string "clip" ; len=4
            0x005ad203      .byte 0x2c
            0x005ad204     .string "nce)n<c<e" ; len=9
            0x005ad20d      .byte 0x04
            0x005ad20e     .string "Clip" ; len=4
            0x005ad212      .byte 0x2c
            0x005ad213     .string "NCE.DPB  " ; len=9
            0x005ad21c      .byte 0x04
            0x005ad21d     .string "Clip" ; len=4
            0x005ad221      .byte 0x29
            0x005ad222     .string "nce)n<c<e" ; len=9
            0x005ad22b      .byte 0x00
            0x005ad22c      .byte 0x00
            0x005ad22d      .byte 0x00
            0x005ad22e      .byte 0x02
            0x005ad22f      .byte 0x58
            0x005ad230      .byte 0x01
            0x005ad231      .byte 0x00
            0x005ad232      .byte 0x00
            0x005ad233      .byte 0x00
            0x005ad234      .byte 0x00
            0x005ad235      .byte 0x01
            0x005ad236     .string " " ; len=1
            0x005ad237      .byte 0x20
            0x005ad238     .string "            " ; len=12
            0x005ad244      .byte 0xff
            0x005ad245      .byte 0xff
            0x005ad246      .byte 0xff
            0x005ad247      .byte 0xff
            0x005ad248      .byte 0x20
            0x005ad249      .byte 0x00
            0x005ad24a     .string ",             ," ; len=15
            0x005ad259      .byte 0x00
            0x005ad25a      .byte 0x00
            0x005ad25b      .byte 0x00
            0x005ad25c      .byte 0x38
            0x005ad25d      .byte 0x15
            0x005ad25e      .byte 0x08
            0x005ad25f     .string "<<+k<e<y" ; len=8
            0x005ad267      .byte 0x2c
            0x005ad268     .string "n<c<e" ; len=5
            0x005ad26d      .byte 0x08
            0x005ad26e     .string "Clip+Key" ; len=8
            0x005ad276      .byte 0x2c
            0x005ad277     .string "     " ; len=5
            0x005ad27c      .byte 0x08
            0x005ad27d     .string "Clip+Key" ; len=8
            0x005ad285      .byte 0x29
            0x005ad286     .string "n<c<e" ; len=5
            0x005ad28b      .byte 0x00
            0x005ad28c      .byte 0x00
            0x005ad28d      .byte 0x00
            0x005ad28e      .byte 0x02
            0x005ad28f      .byte 0x59
            0x005ad290      .byte 0x01
            0x005ad291      .byte 0x00
            0x005ad292      .byte 0x00
            0x005ad293      .byte 0x00
            0x005ad294      .byte 0x00
            0x005ad295      .byte 0x01
            0x005ad296     .string " " ; len=1
            0x005ad297      .byte 0x20
            0x005ad298     .string "            " ; len=12
            0x005ad2a4      .byte 0xff
            0x005ad2a5      .byte 0xff
            0x005ad2a6      .byte 0xff
            0x005ad2a7      .byte 0xff
            0x005ad2a8      .byte 0x20
            0x005ad2a9      .byte 0x00
            0x005ad2aa     .string ",             ," ; len=15
            0x005ad2b9      .byte 0x00
            0x005ad2ba      .byte 0x00
            0x005ad2bb      .byte 0x00
            0x005ad2bc      .byte 0x39
            0x005ad2bd      .byte 0x16
            0x005ad2be      .byte 0x04
            0x005ad2bf     .string "pack" ; len=4
            0x005ad2c3      .byte 0x2c
            0x005ad2c4     .string "Key)n<c<e" ; len=9
            0x005ad2cd      .byte 0x04
            0x005ad2ce     .string "Pack" ; len=4
            0x005ad2d2      .byte 0x2c
            0x005ad2d3     .string "         " ; len=9
            0x005ad2dc      .byte 0x04
            0x005ad2dd     .string "Pack" ; len=4
            0x005ad2e1      .byte 0x29
            0x005ad2e2     .string "Key)n<c<e" ; len=9
            0x005ad2eb      .byte 0x00
            0x005ad2ec      .byte 0x00
            0x005ad2ed      .byte 0x00
            0x005ad2ee      .byte 0x02
            0x005ad2ef      .byte 0x5a
            0x005ad2f0      .byte 0x01
            0x005ad2f1      .byte 0x00
            0x005ad2f2      .byte 0x00
            0x005ad2f3      .byte 0x00
            0x005ad2f4      .byte 0x00
            0x005ad2f5      .byte 0x01
            0x005ad2f6     .string " " ; len=1
            0x005ad2f7      .byte 0x20
            0x005ad2f8     .string "            " ; len=12
            0x005ad304      .byte 0xff
            0x005ad305      .byte 0xff
            0x005ad306      .byte 0xff
            0x005ad307      .byte 0xff
            0x005ad308      .byte 0x20
            0x005ad309      .byte 0x00
            0x005ad30a     .string ",             ," ; len=15
            0x005ad319      .byte 0x00
            0x005ad31a      .byte 0x00
            0x005ad31b      .byte 0x00
            0x005ad31c      .byte 0x3b
            0x005ad31d      .byte 0x17
            0x005ad31e      .byte 0x04
            0x005ad31f     .string "clip" ; len=4
            0x005ad323      .byte 0x2c
            0x005ad324     .string "Key)n<c<e" ; len=9
            0x005ad32d      .byte 0x04
            0x005ad32e     .string "Clip" ; len=4
            0x005ad332      .byte 0x2c
            0x005ad333     .string "         " ; len=9
            0x005ad33c      .byte 0x04
            0x005ad33d     .string "Clip" ; len=4
            0x005ad341      .byte 0x29
            0x005ad342     .string "Key)n<c<e" ; len=9
            0x005ad34b      .byte 0x00
            0x005ad34c      .byte 0x00
            0x005ad34d      .byte 0x00
            0x005ad34e      .byte 0x02
            0x005ad34f      .byte 0x5b
            0x005ad350      .byte 0x01
            0x005ad351      .byte 0x00
            0x005ad352      .byte 0x00
            0x005ad353      .byte 0x00
            0x005ad354      .byte 0x00
            0x005ad355      .byte 0x01
            0x005ad356     .string " " ; len=1
            0x005ad357      .byte 0x20
            0x005ad358     .string "            " ; len=12
            0x005ad364      .byte 0xff
            0x005ad365      .byte 0xff
            0x005ad366      .byte 0xff
            0x005ad367      .byte 0xff
            0x005ad368      .byte 0x20
            0x005ad369      .byte 0x00
            0x005ad36a     .string ",             ," ; len=15
            0x005ad379      .byte 0x00
            0x005ad37a      .byte 0x00
            0x005ad37b      .byte 0x00
            0x005ad37c      .byte 0x3c
            0x005ad37d      .byte 0x18
            0x005ad37e      .byte 0x04
            0x005ad37f     .string "clip" ; len=4
            0x005ad383      .byte 0x2c
            0x005ad384     .string "Key)n<c<e" ; len=9
            0x005ad38d      .byte 0x04
            0x005ad38e     .string "Clip" ; len=4
            0x005ad392      .byte 0x2c
            0x005ad393     .string "         " ; len=9
            0x005ad39c      .byte 0x04
            0x005ad39d     .string "Clip" ; len=4
            0x005ad3a1      .byte 0x29
            0x005ad3a2     .string "Key)n<c<e" ; len=9
            0x005ad3ab      .byte 0x00
            0x005ad3ac      .byte 0x00
            0x005ad3ad      .byte 0x00
            0x005ad3ae      .byte 0x02
            0x005ad3af      .byte 0x5c
            0x005ad3b0      .byte 0x01
            0x005ad3b1      .byte 0x00
            0x005ad3b2      .byte 0x00
            0x005ad3b3      .byte 0x00
            0x005ad3b4      .byte 0x00
            0x005ad3b5      .byte 0x01
            0x005ad3b6     .string " " ; len=1
            0x005ad3b7      .byte 0x20
            0x005ad3b8     .string "            " ; len=12
            0x005ad3c4      .byte 0xff
            0x005ad3c5      .byte 0xff
            0x005ad3c6      .byte 0xff
            0x005ad3c7      .byte 0xff
            0x005ad3c8      .byte 0x20
            0x005ad3c9      .byte 0x00
            0x005ad3ca     .string ",             ," ; len=15
            0x005ad3d9      .byte 0x00
            0x005ad3da      .byte 0x00
            0x005ad3db      .byte 0x00
            0x005ad3dc      .byte 0x3d
            0x005ad3dd      .byte 0x19
            0x005ad3de      .byte 0x08
            0x005ad3df     .string "<<+k<e<y" ; len=8
            0x005ad3e7      .byte 0x2c
            0x005ad3e8     .string "n<c<e" ; len=5
            0x005ad3ed      .byte 0x08
            0x005ad3ee     .string "Clip+Key" ; len=8
            0x005ad3f6      .byte 0x2c
            0x005ad3f7     .string "     " ; len=5
            0x005ad3fc      .byte 0x08
            0x005ad3fd     .string "Clip+Key" ; len=8
            0x005ad405      .byte 0x29
            0x005ad406     .string "n<c<e" ; len=5
            0x005ad40b      .byte 0x00
            0x005ad40c      .byte 0x00
            0x005ad40d      .byte 0x00
            0x005ad40e      .byte 0x02
            0x005ad40f      .byte 0x5d
            0x005ad410      .byte 0x01
            0x005ad411      .byte 0x00
            0x005ad412      .byte 0x00
            0x005ad413      .byte 0x00
            0x005ad414      .byte 0x00
            0x005ad415      .byte 0x01
            0x005ad416     .string " " ; len=1
            0x005ad417      .byte 0x20
            0x005ad418     .string "            " ; len=12
            0x005ad424      .byte 0xff
            0x005ad425      .byte 0xff
            0x005ad426      .byte 0xff
            0x005ad427      .byte 0xff
            0x005ad428      .byte 0x20
            0x005ad429      .byte 0x00
            0x005ad42a     .string ",             ," ; len=15
            0x005ad439      .byte 0x00
            0x005ad43a      .byte 0x00
            0x005ad43b      .byte 0x00
            0x005ad43c      .byte 0x40
            0x005ad43d      .byte 0x1b
            0x005ad43e      .byte 0x04
            0x005ad43f     .string "pack" ; len=4
            0x005ad443      .byte 0x2c
            0x005ad444     .string "Key)n<c<e" ; len=9
            0x005ad44d      .byte 0x04
            0x005ad44e     .string "Pack" ; len=4
            0x005ad452      .byte 0x2c
            0x005ad453     .string "         " ; len=9
            0x005ad45c      .byte 0x04
            0x005ad45d     .string "Pack" ; len=4
            0x005ad461      .byte 0x29
            0x005ad462     .string "Key)n<c<e" ; len=9
            0x005ad46b      .byte 0x00
            0x005ad46c      .byte 0x00
            0x005ad46d      .byte 0x00
            0x005ad46e      .byte 0x02
            0x005ad46f      .byte 0x5e
            0x005ad470      .byte 0x01
            0x005ad471      .byte 0x00
            0x005ad472      .byte 0x00
            0x005ad473      .byte 0x00
            0x005ad474      .byte 0x00
            0x005ad475      .byte 0x01
            0x005ad476     .string " " ; len=1
            0x005ad477      .byte 0x20
            0x005ad478     .string "            " ; len=12
            0x005ad484      .byte 0xff
            0x005ad485      .byte 0xff
            0x005ad486      .byte 0xff
            0x005ad487      .byte 0xff
            0x005ad488      .byte 0x20
            0x005ad489      .byte 0x00
            0x005ad48a     .string ",             ," ; len=15
            0x005ad499      .byte 0x00
            0x005ad49a      .byte 0x00
            0x005ad49b      .byte 0x00
            0x005ad49c      .byte 0x47
            0x005ad49d      .byte 0x22
            0x005ad49e      .byte 0x04
            0x005ad49f     .string "clip" ; len=4
            0x005ad4a3      .byte 0x2c
            0x005ad4a4     .string "Key)n<c<e" ; len=9
            0x005ad4ad      .byte 0x04
            0x005ad4ae     .string "Clip" ; len=4
            0x005ad4b2      .byte 0x2c
            0x005ad4b3     .string "         " ; len=9
            0x005ad4bc      .byte 0x04
            0x005ad4bd     .string "Clip" ; len=4
            0x005ad4c1      .byte 0x29
            0x005ad4c2     .string "Key)n<c<e" ; len=9
            0x005ad4cb      .byte 0x00
            0x005ad4cc      .byte 0x00
            0x005ad4cd      .byte 0x00
            0x005ad4ce      .byte 0x02
            0x005ad4cf      .byte 0x5f
            0x005ad4d0      .byte 0x01
            0x005ad4d1      .byte 0x00
            0x005ad4d2      .byte 0x00
            0x005ad4d3      .byte 0x00
            0x005ad4d4      .byte 0x00
            0x005ad4d5      .byte 0x01
            0x005ad4d6     .string " " ; len=1
            0x005ad4d7      .byte 0x20
            0x005ad4d8     .string "            " ; len=12
            0x005ad4e4      .byte 0xff
            0x005ad4e5      .byte 0xff
            0x005ad4e6      .byte 0xff
            0x005ad4e7      .byte 0xff
            0x005ad4e8      .byte 0x20
            0x005ad4e9      .byte 0x00
            0x005ad4ea     .string ",             ," ; len=15
            0x005ad4f9      .byte 0x00
            0x005ad4fa      .byte 0x00
            0x005ad4fb      .byte 0x00
            0x005ad4fc      .byte 0x48
            0x005ad4fd      .byte 0x23
            0x005ad4fe      .byte 0x08
            0x005ad4ff     .string "<<+k<e<y" ; len=8
            0x005ad507      .byte 0x2c
            0x005ad508     .string "n<c<e" ; len=5
            0x005ad50d      .byte 0x08
            0x005ad50e     .string "Clip+Key" ; len=8
            0x005ad516      .byte 0x2c
            0x005ad517     .string "     " ; len=5
            0x005ad51c      .byte 0x08
            0x005ad51d     .string "Clip+Key" ; len=8
            0x005ad525      .byte 0x29
            0x005ad526     .string "n<c<e" ; len=5
            0x005ad52b      .byte 0x00
            0x005ad52c      .byte 0x00
            0x005ad52d      .byte 0x00
            0x005ad52e      .byte 0x02
            0x005ad52f      .byte 0x60
            0x005ad530      .byte 0x01
            0x005ad531      .byte 0x00
            0x005ad532      .byte 0x00
            0x005ad533      .byte 0x00
            0x005ad534      .byte 0x00
            0x005ad535      .byte 0x01
            0x005ad536     .string " " ; len=1
            0x005ad537      .byte 0x20
            0x005ad538     .string "            " ; len=12
            0x005ad544      .byte 0xff
            0x005ad545      .byte 0xff
            0x005ad546      .byte 0xff
            0x005ad547      .byte 0xff
            0x005ad548      .byte 0x20
            0x005ad549      .byte 0x00
            0x005ad54a     .string ",             ," ; len=15
            0x005ad559      .byte 0x00
            0x005ad55a      .byte 0x00
            0x005ad55b      .byte 0x00
            0x005ad55c      .byte 0x49
            0x005ad55d      .byte 0x24
            0x005ad55e      .byte 0x04
            0x005ad55f     .string "pack" ; len=4
            0x005ad563      .byte 0x2c
            0x005ad564     .string "Key)n<c<e" ; len=9
            0x005ad56d      .byte 0x04
            0x005ad56e     .string "Pack" ; len=4
            0x005ad572      .byte 0x2c
            0x005ad573     .string "         " ; len=9
            0x005ad57c      .byte 0x04
            0x005ad57d     .string "Pack" ; len=4
            0x005ad581      .byte 0x29
            0x005ad582     .string "Key)n<c<e" ; len=9
            0x005ad58b      .byte 0x00
            0x005ad58c      .byte 0x00
            0x005ad58d      .byte 0x00
            0x005ad58e      .byte 0x02
            0x005ad58f      .byte 0x61
            0x005ad590      .byte 0x01
            0x005ad591      .byte 0x00
            0x005ad592      .byte 0x00
            0x005ad593      .byte 0x00
            0x005ad594      .byte 0x00
            0x005ad595      .byte 0x01
            0x005ad596     .string " " ; len=1
            0x005ad597      .byte 0x20
            0x005ad598     .string "            " ; len=12
            0x005ad5a4      .byte 0xff
            0x005ad5a5      .byte 0xff
            0x005ad5a6      .byte 0xff
            0x005ad5a7      .byte 0xff
            0x005ad5a8      .byte 0x20
            0x005ad5a9      .byte 0x00
            0x005ad5aa     .string ",             ," ; len=15
            0x005ad5b9      .byte 0x00
            0x005ad5ba      .byte 0x00
            0x005ad5bb      .byte 0x00
            0x005ad5bc      .byte 0x42
            0x005ad5bd      .byte 0x1d
            0x005ad5be      .byte 0x05
            0x005ad5bf     .string "layer" ; len=5
            0x005ad5c4      .byte 0x2c
            0x005ad5c5     .string "ey)n<c<e" ; len=8
            0x005ad5cd      .byte 0x05
            0x005ad5ce     .string "Layer" ; len=5
            0x005ad5d3      .byte 0x2c
            0x005ad5d4     .string "        " ; len=8
            0x005ad5dc      .byte 0x05
            0x005ad5dd     .string "Layer" ; len=5
            0x005ad5e2      .byte 0x29
            0x005ad5e3     .string "ey)n<c<e" ; len=8
            0x005ad5eb      .byte 0x00
            0x005ad5ec      .byte 0x00
            0x005ad5ed      .byte 0x00
            0x005ad5ee      .byte 0x02
            0x005ad5ef      .byte 0x62
            0x005ad5f0      .byte 0x01
            0x005ad5f1      .byte 0x00
            0x005ad5f2      .byte 0x00
            0x005ad5f3      .byte 0x00
            0x005ad5f4      .byte 0x00
            0x005ad5f5      .byte 0x01
            0x005ad5f6     .string " " ; len=1
            0x005ad5f7      .byte 0x20
            0x005ad5f8     .string "            " ; len=12
            0x005ad604      .byte 0xff
            0x005ad605      .byte 0xff
            0x005ad606      .byte 0xff
            0x005ad607      .byte 0xff
            0x005ad608      .byte 0x20
            0x005ad609      .byte 0x00
            0x005ad60a     .string ",             ," ; len=15
            0x005ad619      .byte 0x00
            0x005ad61a      .byte 0x00
            0x005ad61b      .byte 0x00
            0x005ad61c      .byte 0x43
            0x005ad61d      .byte 0x1e
            0x005ad61e      .byte 0x05
            0x005ad61f     .string "keyer" ; len=5
            0x005ad624      .byte 0x2c
            0x005ad625     .string "ey)n<c<e" ; len=8
            0x005ad62d      .byte 0x05
            0x005ad62e     .string "Keyer" ; len=5
            0x005ad633      .byte 0x2c
            0x005ad634     .string "        " ; len=8
            0x005ad63c      .byte 0x05
            0x005ad63d     .string "Keyer" ; len=5
            0x005ad642      .byte 0x29
            0x005ad643     .string "ey)n<c<e" ; len=8
            0x005ad64b      .byte 0x00
            0x005ad64c      .byte 0x00
            0x005ad64d      .byte 0x00
            0x005ad64e      .byte 0x02
            0x005ad64f      .byte 0x63
            0x005ad650      .byte 0x01
            0x005ad651      .byte 0x00
            0x005ad652      .byte 0x00
            0x005ad653      .byte 0x00
            0x005ad654      .byte 0x00
            0x005ad655      .byte 0x01
            0x005ad656     .string " " ; len=1
            0x005ad657      .byte 0x20
            0x005ad658     .string "            " ; len=12
            0x005ad664      .byte 0xff
            0x005ad665      .byte 0xff
            0x005ad666      .byte 0xff
            0x005ad667      .byte 0xff
            0x005ad668      .byte 0x20
            0x005ad669      .byte 0x00
            0x005ad66a     .string ",             ," ; len=15
            0x005ad679      .byte 0x00
            0x005ad67a      .byte 0x00
            0x005ad67b      .byte 0x00
            0x005ad67c      .byte 0x44
            0x005ad67d      .byte 0x1f
            0x005ad67e      .byte 0x06
            0x005ad67f     .string "colour" ; len=6
            0x005ad685      .byte 0x2c
            0x005ad686     .string "y)n<c<e" ; len=7
            0x005ad68d      .byte 0x06
            0x005ad68e     .string "Colour" ; len=6
            0x005ad694      .byte 0x2c
            0x005ad695     .string "       " ; len=7
            0x005ad69c      .byte 0x06
            0x005ad69d     .string "Colour" ; len=6
            0x005ad6a3      .byte 0x29
            0x005ad6a4     .string "y)n<c<e" ; len=7
            0x005ad6ab      .byte 0x00
            0x005ad6ac      .byte 0x00
            0x005ad6ad      .byte 0x00
            0x005ad6ae      .byte 0x02
            0x005ad6af      .byte 0x64
            0x005ad6b0      .byte 0x01
            0x005ad6b1      .byte 0x00
            0x005ad6b2      .byte 0x00
            0x005ad6b3      .byte 0x00
            0x005ad6b4      .byte 0x00
            0x005ad6b5      .byte 0x01
            0x005ad6b6     .string " " ; len=1
            0x005ad6b7      .byte 0x20
            0x005ad6b8     .string "            " ; len=12
            0x005ad6c4      .byte 0xff
            0x005ad6c5      .byte 0xff
            0x005ad6c6      .byte 0xff
            0x005ad6c7      .byte 0xff
            0x005ad6c8      .byte 0x20
            0x005ad6c9      .byte 0x00
            0x005ad6ca     .string ",             ," ; len=15
            0x005ad6d9      .byte 0x00
            0x005ad6da      .byte 0x00
            0x005ad6db      .byte 0x00
            0x005ad6dc      .byte 0x45
            0x005ad6dd      .byte 0x20
            0x005ad6de      .byte 0x07
            0x005ad6df     .string "texture" ; len=7
            0x005ad6e6      .byte 0x2c
            0x005ad6e7     .string ")n<c<e" ; len=6
            0x005ad6ed      .byte 0x07
            0x005ad6ee     .string "Texture" ; len=7
            0x005ad6f5      .byte 0x2c
            0x005ad6f6     .string "      " ; len=6
            0x005ad6fc      .byte 0x07
            0x005ad6fd     .string "Texture" ; len=7
            0x005ad704      .byte 0x29
            0x005ad705     .string ")n<c<e" ; len=6
            0x005ad70b      .byte 0x00
            0x005ad70c      .byte 0x00
            0x005ad70d      .byte 0x00
            0x005ad70e      .byte 0x02
            0x005ad70f      .byte 0x65
            0x005ad710      .byte 0x01
            0x005ad711      .byte 0x00
            0x005ad712      .byte 0x00
            0x005ad713      .byte 0x00
            0x005ad714      .byte 0x00
            0x005ad715      .byte 0x01
            0x005ad716     .string " " ; len=1
            0x005ad717      .byte 0x20
            0x005ad718     .string "            " ; len=12
            0x005ad724      .byte 0xff
            0x005ad725      .byte 0xff
            0x005ad726      .byte 0xff
            0x005ad727      .byte 0xff
            0x005ad728      .byte 0x20
            0x005ad729      .byte 0x00
            0x005ad72a     .string ",             ," ; len=15
            0x005ad739      .byte 0x00
            0x005ad73a      .byte 0x00
            0x005ad73b      .byte 0x00
            0x005ad73c      .byte 0x46
            0x005ad73d      .byte 0x21
            0x005ad73e      .byte 0x06
            0x005ad73f     .string "effect" ; len=6
            0x005ad745      .byte 0x2c
            0x005ad746     .string "))n<c<e" ; len=7
            0x005ad74d      .byte 0x06
            0x005ad74e     .string "Effect" ; len=6
            0x005ad754      .byte 0x2c
            0x005ad755     .string "       " ; len=7
            0x005ad75c      .byte 0x06
            0x005ad75d     .string "Effect" ; len=6
            0x005ad763      .byte 0x29
            0x005ad764     .string "))n<c<e" ; len=7
            0x005ad76b      .byte 0x00
            0x005ad76c      .byte 0x00
            0x005ad76d      .byte 0x00
            0x005ad76e      .byte 0x02
            0x005ad76f      .byte 0x66
            0x005ad770      .byte 0x01
            0x005ad771      .byte 0x00
            0x005ad772      .byte 0x00
            0x005ad773      .byte 0x00
            0x005ad774      .byte 0x00
            0x005ad775      .byte 0x01
            0x005ad776     .string " " ; len=1
            0x005ad777      .byte 0x20
            0x005ad778     .string "            " ; len=12
            0x005ad784      .byte 0xff
            0x005ad785      .byte 0xff
            0x005ad786      .byte 0xff
            0x005ad787      .byte 0xff
            0x005ad788      .byte 0x20
            0x005ad789      .byte 0x00
            0x005ad78a     .string ",             ," ; len=15
            0x005ad799      .byte 0x00
            0x005ad79a      .byte 0x00
            0x005ad79b      .byte 0x00
            0x005ad79c      .byte 0x3e
            0x005ad79d      .byte 0x00
            0x005ad79e      .byte 0x07
            0x005ad79f     .string "unknown" ; len=7
            0x005ad7a6      .byte 0x2c
            0x005ad7a7     .string ")n<c<e" ; len=6
            0x005ad7ad      .byte 0x04
            0x005ad7ae     .string "Wipe" ; len=4
            0x005ad7b2      .byte 0x2c
            0x005ad7b3     .string "         " ; len=9
            0x005ad7bc      .byte 0x04
            0x005ad7bd     .string "Wipe" ; len=4
            0x005ad7c1      .byte 0x29
            0x005ad7c2     .string "wn,)n<c<e" ; len=9
            0x005ad7cb      .byte 0x01
            0x005ad7cc      .byte 0x00
            0x005ad7cd      .byte 0x00
            0x005ad7ce      .byte 0x0c
            0x005ad7cf      .byte 0x83
            0x005ad7d0      .byte 0x01
            0x005ad7d1      .byte 0x00
            0x005ad7d2      .byte 0x00
            0x005ad7d3      .byte 0x00
            0x005ad7d4      .byte 0x00
            0x005ad7d5      .byte 0x01
            0x005ad7d6     .string " " ; len=1
            0x005ad7d7      .byte 0x20
            0x005ad7d8     .string "            " ; len=12
            0x005ad7e4      .byte 0xff
            0x005ad7e5      .byte 0xff
            0x005ad7e6      .byte 0xff
            0x005ad7e7      .byte 0xff
            0x005ad7e8      .byte 0x20
            0x005ad7e9      .byte 0x00
            0x005ad7ea     .string ",             ," ; len=15
            0x005ad7f9      .byte 0x00
            0x005ad7fa      .byte 0x00
            0x005ad7fb      .byte 0x00
            0x005ad7fc      .byte 0x32
            0x005ad7fd      .byte 0x12
            0x005ad7fe      .byte 0x0a
            0x005ad7ff     .string "k<e<y<frms" ; len=10
            0x005ad809      .byte 0x2c
            0x005ad80a     .string "c<e" ; len=3
            0x005ad80d      .byte 0x07
            0x005ad80e     .string "Keyfrms" ; len=7
            0x005ad815      .byte 0x2c
            0x005ad816     .string "      " ; len=6
            0x005ad81c      .byte 0x07
            0x005ad81d     .string "Keyfrms" ; len=7
            0x005ad824      .byte 0x29
            0x005ad825     .string "ms,c<e" ; len=6
            0x005ad82b      .byte 0x00
            0x005ad82c      .byte 0x00
            0x005ad82d      .byte 0x00
            0x005ad82e      .byte 0x01
            0x005ad82f      .byte 0x98
            0x005ad830      .byte 0x01
            0x005ad831      .byte 0x00
            0x005ad832      .byte 0x00
            0x005ad833      .byte 0x00
            0x005ad834      .byte 0x00
            0x005ad835      .byte 0x01
            0x005ad836     .string " " ; len=1
            0x005ad837      .byte 0x20
            0x005ad838     .string "            " ; len=12
            0x005ad844      .byte 0xff
            0x005ad845      .byte 0xff
            0x005ad846      .byte 0xff
            0x005ad847      .byte 0xff
            0x005ad848      .byte 0x20
            0x005ad849      .byte 0x00
            0x005ad84a     .string ",             ," ; len=15
            0x005ad859      .byte 0x00
            0x005ad85a      .byte 0x00
            0x005ad85b      .byte 0x00
            0x005ad85c      .byte 0x0a
            0x005ad85d      .byte 0x0c
            0x005ad85e      .byte 0x0d
            0x005ad85f     .string "te<x<t>>fo<nt" ; len=13
            0x005ad86c      .byte 0x2c
            0x005ad86d      .byte 0x09
            0x005ad86e     .string "Text font" ; len=9
            0x005ad877      .byte 0x2c
            0x005ad878     .string "    " ; len=4
            0x005ad87c      .byte 0x09
            0x005ad87d     .string "Text font" ; len=9
            0x005ad886      .byte 0x29
            0x005ad887     .string "<nt," ; len=4
            0x005ad88b      .byte 0x01
            0x005ad88c      .byte 0x00
            0x005ad88d      .byte 0x00
            0x005ad88e      .byte 0x01
            0x005ad88f      .byte 0x94
            0x005ad890      .byte 0x01
            0x005ad891      .byte 0x00
            0x005ad892      .byte 0x00
            0x005ad893      .byte 0x00
            0x005ad894      .byte 0x00
            0x005ad895     .string "*FONT.DPB      " ; len=15
            0x005ad8a4      .byte 0x00
            0x005ad8a5      .byte 0x00
            0x005ad8a6      .byte 0x00
            0x005ad8a7      .byte 0x09
            0x005ad8a8      .byte 0x48
            0x005ad8a9      .byte 0x10
            0x005ad8aa     .string "*DPB *TEXT-FONT " ; len=16
            0x005ad8ba      .byte 0x01
            0x005ad8bb      .byte 0x00
            0x005ad8bc      .byte 0x0c
            0x005ad8bd      .byte 0x0d
            0x005ad8be      .byte 0x07
            0x005ad8bf     .string "dls pic" ; len=7
            0x005ad8c6      .byte 0x2c
            0x005ad8c7     .string "t)<nt," ; len=6
            0x005ad8cd      .byte 0x07
            0x005ad8ce     .string "DLS pic" ; len=7
            0x005ad8d5      .byte 0x2c
            0x005ad8d6     .string "XT-FON" ; len=6
            0x005ad8dc      .byte 0x07
            0x005ad8dd     .string "DLS pic" ; len=7
            0x005ad8e4      .byte 0x29
            0x005ad8e5     .string "t)<nt," ; len=6
            0x005ad8eb      .byte 0x01
            0x005ad8ec      .byte 0x00
            0x005ad8ed      .byte 0x00
            0x005ad8ee      .byte 0x01
            0x005ad8ef      .byte 0x30
            0x005ad8f0      .byte 0x00
            0x005ad8f1      .byte 0x00
            0x005ad8f2      .byte 0x00
            0x005ad8f3      .byte 0x00
            0x005ad8f4      .byte 0x00
            0x005ad8f5     .string "!              " ; len=15
            0x005ad904      .byte 0x00
            0x005ad905      .byte 0x00
            0x005ad906      .byte 0x00
            0x005ad907      .byte 0x02
            0x005ad908      .byte 0x41
            0x005ad909      .byte 0x0e
            0x005ad90a     .string "*DLS *PICTURE " ; len=14
            0x005ad918      .byte 0x2c
            0x005ad919     .string " " ; len=1
            0x005ad91a      .byte 0x01
            0x005ad91b      .byte 0x00
            0x005ad91c      .byte 0x0f
            0x005ad91d      .byte 0x07
            0x005ad91e      .byte 0x05
            0x005ad91f     .string "cameo" ; len=5
            0x005ad924      .byte 0x2c
            0x005ad925     .string "c)t)<nt," ; len=8
            0x005ad92d      .byte 0x05
            0x005ad92e     .string "Cameo" ; len=5
            0x005ad933      .byte 0x2c
            0x005ad934     .string "PICTURE " ; len=8
            0x005ad93c      .byte 0x05
            0x005ad93d     .string "Cameo" ; len=5
            0x005ad942      .byte 0x29
            0x005ad943     .string "c)t)<nt," ; len=8
            0x005ad94b      .byte 0x02
            0x005ad94c      .byte 0x00
            0x005ad94d      .byte 0x00
            0x005ad94e      .byte 0x01
            0x005ad94f      .byte 0x31
            0x005ad950      .byte 0x01
            0x005ad951      .byte 0x00
            0x005ad952      .byte 0x00
            0x005ad953      .byte 0x00
            0x005ad954      .byte 0x00
            0x005ad955     .string "(CAMEO.DPB     " ; len=15
            0x005ad964      .byte 0x00
            0x005ad965      .byte 0x00
            0x005ad966      .byte 0x00
            0x005ad967      .byte 0x00
            0x005ad968      .byte 0x20
            0x005ad969      .byte 0x00
            0x005ad96a     .string ",AMEO.DPB     , " ; len=16
            0x005ad97a      .byte 0x00
            0x005ad97b      .byte 0x00
            0x005ad97c      .byte 0x10
            0x005ad97d      .byte 0x08
            0x005ad97e      .byte 0x04
            0x005ad97f     .string "logo" ; len=4
            0x005ad983      .byte 0x2c
            0x005ad984     .string ")c)t)<nt," ; len=9
            0x005ad98d      .byte 0x04
            0x005ad98e     .string "Logo" ; len=4
            0x005ad992      .byte 0x2c
            0x005ad993     .string ".DPB     " ; len=9
            0x005ad99c      .byte 0x04
            0x005ad99d     .string "Logo" ; len=4
            0x005ad9a1      .byte 0x29
            0x005ad9a2     .string ")c)t)<nt," ; len=9
            0x005ad9ab      .byte 0x01
            0x005ad9ac      .byte 0x00
            0x005ad9ad      .byte 0x00
            0x005ad9ae      .byte 0x01
            0x005ad9af      .byte 0x32
            0x005ad9b0      .byte 0x01
            0x005ad9b1      .byte 0x00
            0x005ad9b2      .byte 0x00
            0x005ad9b3      .byte 0x00
            0x005ad9b4      .byte 0x00
            0x005ad9b5     .string ")LOGO.DPB      " ; len=15
            0x005ad9c4      .byte 0x00
            0x005ad9c5      .byte 0x00
            0x005ad9c6      .byte 0x00
            0x005ad9c7      .byte 0x01
            0x005ad9c8      .byte 0x20
            0x005ad9c9      .byte 0x00
            0x005ad9ca     .string ",OGO.DPB      , " ; len=16
            0x005ad9da      .byte 0x00
            0x005ad9db      .byte 0x00
            0x005ad9dc      .byte 0x11
            0x005ad9dd      .byte 0x00
            0x005ad9de      .byte 0x07
            0x005ad9df     .string "unknown" ; len=7
            0x005ad9e6      .byte 0x2c
            0x005ad9e7     .string "t)<nt," ; len=6
            0x005ad9ed      .byte 0x0a
            0x005ad9ee     .string "PackedFont" ; len=10
            0x005ad9f8      .byte 0x2c
            0x005ad9f9     .string "   " ; len=3
            0x005ad9fc      .byte 0x0a
            0x005ad9fd     .string "PackedFont" ; len=10
            0x005ada07      .byte 0x29
            0x005ada08     .string "nt," ; len=3
            0x005ada0b      .byte 0x00
            0x005ada0c      .byte 0x00
            0x005ada0d      .byte 0x00
            0x005ada0e      .byte 0x01
            0x005ada0f      .byte 0x95
            0x005ada10      .byte 0x00
            0x005ada11      .byte 0x00
            0x005ada12      .byte 0x00
            0x005ada13      .byte 0x00
            0x005ada14      .byte 0x00
            0x005ada15     .string ".PACKEDFONT.DPB" ; len=15
            0x005ada24      .byte 0x00
            0x005ada25      .byte 0x00
            0x005ada26      .byte 0x00
            0x005ada27      .byte 0x0e
            0x005ada28      .byte 0x20
            0x005ada29      .byte 0x00
            0x005ada2a     .string ",ACKEDFONT.DPB, " ; len=16
            0x005ada3a      .byte 0x00
            0x005ada3b      .byte 0x00
            0x005ada3c      .byte 0x23
            0x005ada3d      .byte 0x00
            0x005ada3e      .byte 0x07
            0x005ada3f     .string "unknown" ; len=7
            0x005ada46      .byte 0x2c
            0x005ada47     .string "nt)nt," ; len=6
            0x005ada4d      .byte 0x0a
            0x005ada4e     .string "CypherFont" ; len=10
            0x005ada58      .byte 0x2c
            0x005ada59     .string "DPB" ; len=3
            0x005ada5c      .byte 0x0a
            0x005ada5d     .string "CypherFont" ; len=10
            0x005ada67      .byte 0x29
            0x005ada68     .string "nt," ; len=3
            0x005ada6b      .byte 0x00
            0x005ada6c      .byte 0x00
            0x005ada6d      .byte 0x00
            0x005ada6e      .byte 0x01
            0x005ada6f      .byte 0x96
            0x005ada70      .byte 0x01
            0x005ada71      .byte 0x00
            0x005ada72      .byte 0x00
            0x005ada73      .byte 0x00
            0x005ada74      .byte 0x00
            0x005ada75      .byte 0x01
            0x005ada76     .string "F" ; len=1
            0x005ada77      .byte 0x2a
            0x005ada78     .string ".S*         " ; len=12
            0x005ada84      .byte 0x00
            0x005ada85      .byte 0x00
            0x005ada86      .byte 0x00
            0x005ada87      .byte 0x21
            0x005ada88      .byte 0x20
            0x005ada89      .byte 0x00
            0x005ada8a     .string " *.S*         , " ; len=16
            0x005ada9a      .byte 0x00
            0x005ada9b      .byte 0x00
            0x005ada9c      .byte 0x36
            0x005ada9d      .byte 0x00
            0x005ada9e      .byte 0x07
            0x005ada9f     .string "unknown" ; len=7
            0x005adaa6      .byte 0x2c
            0x005adaa7     .string "nt)nt," ; len=6
            0x005adaad      .byte 0x0d
            0x005adaae     .string "EncryptedFont" ; len=13
            0x005adabb      .byte 0x2c
            0x005adabc      .byte 0x0d
            0x005adabd     .string "EncryptedFont" ; len=13
            0x005adaca      .byte 0x29
            0x005adacb      .byte 0x00
            0x005adacc      .byte 0x00
            0x005adacd      .byte 0x00
            0x005adace      .byte 0x01
            0x005adacf      .byte 0x99
            0x005adad0      .byte 0x01
            0x005adad1      .byte 0x00
            0x005adad2      .byte 0x00
            0x005adad3      .byte 0x00
            0x005adad4      .byte 0x00
            0x005adad5      .byte 0x01
            0x005adad6     .string "F" ; len=1
            0x005adad7      .byte 0x2a
            0x005adad8     .string ".S*         " ; len=12
            0x005adae4      .byte 0xff
            0x005adae5      .byte 0xff
            0x005adae6      .byte 0xff
            0x005adae7      .byte 0xff
            0x005adae8      .byte 0x20
            0x005adae9      .byte 0x00
            0x005adaea     .string " *.S*         , " ; len=16
            0x005adafa      .byte 0x00
            0x005adafb      .byte 0x00
            0x005adafc      .byte 0x3a
            0x005adafd      .byte 0x00
            0x005adafe      .byte 0x07
            0x005adaff     .string "unknown" ; len=7
            0x005adb06      .byte 0x2c
            0x005adb07     .string "dFont)" ; len=6
            0x005adb0d      .byte 0x0c
            0x005adb0e     .string "Fontlistfile" ; len=12
            0x005adb1a      .byte 0x2c
            0x005adb1b     .string " " ; len=1
            0x005adb1c      .byte 0x0c
            0x005adb1d     .string "Fontlistfile" ; len=12
            0x005adb29      .byte 0x29
            0x005adb2a     .string ")" ; len=1
            0x005adb2b      .byte 0x00
            0x005adb2c      .byte 0x00
            0x005adb2d      .byte 0x00
            0x005adb2e      .byte 0x01
            0x005adb2f      .byte 0x9c
            0x005adb30      .byte 0x01
            0x005adb31      .byte 0x00
            0x005adb32      .byte 0x00
            0x005adb33      .byte 0x00
            0x005adb34      .byte 0x00
            0x005adb35      .byte 0x01
            0x005adb36     .string " " ; len=1
            0x005adb37      .byte 0x20
            0x005adb38     .string "            " ; len=12
            0x005adb44      .byte 0xff
            0x005adb45      .byte 0xff
            0x005adb46      .byte 0xff
            0x005adb47      .byte 0xff
            0x005adb48      .byte 0x20
            0x005adb49      .byte 0x00
            0x005adb4a     .string ",             , " ; len=16
            0x005adb5a      .byte 0x00
            0x005adb5b      .byte 0x00
            0x005adb5c      .byte 0x0b
            0x005adb5d      .byte 0x00
            0x005adb5e      .byte 0x07
            0x005adb5f     .string "unknown" ; len=7
            0x005adb66      .byte 0x2c
            0x005adb67     .string "file))" ; len=6
            0x005adb6d      .byte 0x05
            0x005adb6e     .string "Group" ; len=5
            0x005adb73      .byte 0x2c
            0x005adb74     .string "        " ; len=8
            0x005adb7c      .byte 0x05
            0x005adb7d     .string "Group" ; len=5
            0x005adb82      .byte 0x29
            0x005adb83     .string "n,file))" ; len=8
            0x005adb8b      .byte 0x03
            0x005adb8c      .byte 0x00
            0x005adb8d      .byte 0x00
            0x005adb8e      .byte 0x00
            0x005adb8f      .byte 0xca
            0x005adb90      .byte 0x00
            0x005adb91      .byte 0x00
            0x005adb92      .byte 0x00
            0x005adb93      .byte 0x00
            0x005adb94      .byte 0x00
            0x005adb95      .byte 0x01
            0x005adb96     .string "*" ; len=1
            0x005adb97      .byte 0x2e
            0x005adb98     .string "DPB         " ; len=12
            0x005adba4      .byte 0x00
            0x005adba5      .byte 0x00
            0x005adba6      .byte 0x00
            0x005adba7      .byte 0x22
            0x005adba8      .byte 0x20
            0x005adba9      .byte 0x00
            0x005adbaa     .string ",.DPB         , " ; len=16
            0x005adbba      .byte 0x01
            0x005adbbb      .byte 0x00
            0x005adbbc      .byte 0x0d
            0x005adbbd      .byte 0x00
            0x005adbbe      .byte 0x07
            0x005adbbf     .string "unknown" ; len=7
            0x005adbc6      .byte 0x2c
            0x005adbc7     .string "file))" ; len=6
            0x005adbcd      .byte 0x07
            0x005adbce     .string "Special" ; len=7
            0x005adbd5      .byte 0x2c
            0x005adbd6     .string "      " ; len=6
            0x005adbdc      .byte 0x07
            0x005adbdd     .string "Special" ; len=7
            0x005adbe4      .byte 0x29
            0x005adbe5     .string "file))" ; len=6
            0x005adbeb      .byte 0x00
            0x005adbec      .byte 0x00
            0x005adbed      .byte 0x00
            0x005adbee      .byte 0x00
            0x005adbef      .byte 0xcb
            0x005adbf0      .byte 0x01
            0x005adbf1      .byte 0x00
            0x005adbf2      .byte 0x00
            0x005adbf3      .byte 0x00
            0x005adbf4      .byte 0x00
            0x005adbf5      .byte 0x00
            0x005adbf6     .string "SPECIAL.DPB   " ; len=14
            0x005adc04      .byte 0x00
            0x005adc05      .byte 0x00
            0x005adc06      .byte 0x00
            0x005adc07      .byte 0x0d
            0x005adc08      .byte 0x20
            0x005adc09      .byte 0x00
            0x005adc0a     .string ",PECIAL.DPB   , " ; len=16
            0x005adc1a      .byte 0x00
            0x005adc1b      .byte 0x00
            0x005adc1c      .byte 0x0e
            0x005adc1d      .byte 0x00
            0x005adc1e      .byte 0x07
            0x005adc1f     .string "unknown" ; len=7
            0x005adc26      .byte 0x2c
            0x005adc27     .string "file))" ; len=6
            0x005adc2d      .byte 0x04
            0x005adc2e     .string "Temp" ; len=4
            0x005adc32      .byte 0x2c
            0x005adc33     .string "AL.DPB   " ; len=9
            0x005adc3c      .byte 0x04
            0x005adc3d     .string "Temp" ; len=4
            0x005adc41      .byte 0x29
            0x005adc42     .string "wn,file))" ; len=9
            0x005adc4b      .byte 0x03
            0x005adc4c      .byte 0x00
            0x005adc4d      .byte 0x00
            0x005adc4e      .byte 0x00
            0x005adc4f      .byte 0xcc
            0x005adc50      .byte 0x01
            0x005adc51      .byte 0x00
            0x005adc52      .byte 0x00
            0x005adc53      .byte 0x00
            0x005adc54      .byte 0x00
            0x005adc55     .string "#TEMP.DPB      " ; len=15
            0x005adc64      .byte 0x00
            0x005adc65      .byte 0x00
            0x005adc66      .byte 0x00
            0x005adc67      .byte 0x0c
            0x005adc68      .byte 0x20
            0x005adc69      .byte 0x00
            0x005adc6a     .string ",EMP.DPB      , " ; len=16
            0x005adc7a      .byte 0x00
            0x005adc7b      .byte 0x00
            0x005adc7c      .byte 0x12
            0x005adc7d      .byte 0x00
            0x005adc7e      .byte 0x07
            0x005adc7f     .string "unknown" ; len=7
            0x005adc86      .byte 0x2c
            0x005adc87     .string "file))" ; len=6
            0x005adc8d      .byte 0x04
            0x005adc8e     .string "Save" ; len=4
            0x005adc92      .byte 0x2c
            0x005adc93     .string "DPB      " ; len=9
            0x005adc9c      .byte 0x04
            0x005adc9d     .string "Save" ; len=4
            0x005adca1      .byte 0x29
            0x005adca2     .string "wn,file))" ; len=9
            0x005adcab      .byte 0x03
            0x005adcac      .byte 0x00
            0x005adcad      .byte 0x00
            0x005adcae      .byte 0x01
            0x005adcaf      .byte 0x33
            0x005adcb0      .byte 0x01
            0x005adcb1      .byte 0x00
            0x005adcb2      .byte 0x00
            0x005adcb3      .byte 0x00
            0x005adcb4      .byte 0x00
            0x005adcb5     .string "/SAVE.DPB      " ; len=15
            0x005adcc4      .byte 0x00
            0x005adcc5      .byte 0x00
            0x005adcc6      .byte 0x00
            0x005adcc7      .byte 0x0f
            0x005adcc8      .byte 0x20
            0x005adcc9      .byte 0x00
            0x005adcca     .string ",AVE.DPB      , " ; len=16
            0x005adcda      .byte 0x00
            0x005adcdb      .byte 0x00
            0x005adcdc      .byte 0x14
            0x005adcdd      .byte 0x00
            0x005adcde      .byte 0x07
            0x005adcdf     .string "unknown" ; len=7
            0x005adce6      .byte 0x2c
            0x005adce7     .string "file))" ; len=6
            0x005adced      .byte 0x06
            0x005adcee     .string "Brush1" ; len=6
            0x005adcf4      .byte 0x2c
            0x005adcf5     .string "B      " ; len=7
            0x005adcfc      .byte 0x06
            0x005adcfd     .string "Brush1" ; len=6
            0x005add03      .byte 0x29
            0x005add04     .string ",file))" ; len=7
            0x005add0b      .byte 0x01
            0x005add0c      .byte 0x00
            0x005add0d      .byte 0x00
            0x005add0e      .byte 0x01
            0x005add0f      .byte 0xf5
            0x005add10      .byte 0x01
            0x005add11      .byte 0x00
            0x005add12      .byte 0x00
            0x005add13      .byte 0x00
            0x005add14      .byte 0x01
            0x005add15      .byte 0x00
            0x005add16     .string "BRUSH1.DPB    " ; len=14
            0x005add24      .byte 0x00
            0x005add25      .byte 0x00
            0x005add26      .byte 0x00
            0x005add27      .byte 0x11
            0x005add28      .byte 0x20
            0x005add29      .byte 0x00
            0x005add2a     .string ",RUSH1.DPB    , " ; len=16
            0x005add3a      .byte 0x00
            0x005add3b      .byte 0x00
            0x005add3c      .byte 0x15
            0x005add3d      .byte 0x00
            0x005add3e      .byte 0x07
            0x005add3f     .string "unknown" ; len=7
            0x005add46      .byte 0x2c
            0x005add47     .string "file))" ; len=6
            0x005add4d      .byte 0x06
            0x005add4e     .string "Brush2" ; len=6
            0x005add54      .byte 0x2c
            0x005add55     .string "DPB    " ; len=7
            0x005add5c      .byte 0x06
            0x005add5d     .string "Brush2" ; len=6
            0x005add63      .byte 0x29
            0x005add64     .string ",file))" ; len=7
            0x005add6b      .byte 0x01
            0x005add6c      .byte 0x00
            0x005add6d      .byte 0x00
            0x005add6e      .byte 0x01
            0x005add6f      .byte 0xf6
            0x005add70      .byte 0x01
            0x005add71      .byte 0x00
            0x005add72      .byte 0x00
            0x005add73      .byte 0x00
            0x005add74      .byte 0x01
            0x005add75      .byte 0x01
            0x005add76     .string "B" ; len=1
            0x005add77      .byte 0x52
            0x005add78     .string "USH2.DPB    " ; len=12
            0x005add84      .byte 0x00
            0x005add85      .byte 0x00
            0x005add86      .byte 0x00
            0x005add87      .byte 0x12
            0x005add88      .byte 0x20
            0x005add89      .byte 0x00
            0x005add8a     .string ",RUSH2.DPB    , " ; len=16
            0x005add9a      .byte 0x00
            0x005add9b      .byte 0x00
            0x005add9c      .byte 0x16
            0x005add9d      .byte 0x00
            0x005add9e      .byte 0x07
            0x005add9f     .string "unknown" ; len=7
            0x005adda6      .byte 0x2c
            0x005adda7     .string "file))" ; len=6
            0x005addad      .byte 0x06
            0x005addae     .string "Brush3" ; len=6
            0x005addb4      .byte 0x2c
            0x005addb5     .string "DPB    " ; len=7
            0x005addbc      .byte 0x06
            0x005addbd     .string "Brush3" ; len=6
            0x005addc3      .byte 0x29
            0x005addc4     .string ",file))" ; len=7
            0x005addcb      .byte 0x01
            0x005addcc      .byte 0x00
            0x005addcd      .byte 0x00
            0x005addce      .byte 0x01
            0x005addcf      .byte 0xf7
            0x005addd0      .byte 0x01
            0x005addd1      .byte 0x00
            0x005addd2      .byte 0x00
            0x005addd3      .byte 0x00
            0x005addd4      .byte 0x01
            0x005addd5      .byte 0x02
            0x005addd6     .string "BR" ; len=2
            0x005addd8      .byte 0x55
            0x005addd9     .string "SH3.DPB    " ; len=11
            0x005adde4      .byte 0x00
            0x005adde5      .byte 0x00
            0x005adde6      .byte 0x00
            0x005adde7      .byte 0x13
            0x005adde8      .byte 0x20
            0x005adde9      .byte 0x00
            0x005addea     .string ",RUSH3.DPB    , " ; len=16
            0x005addfa      .byte 0x00
            0x005addfb      .byte 0x00
            0x005addfc      .byte 0x17
            0x005addfd      .byte 0x00
            0x005addfe      .byte 0x07
            0x005addff     .string "unknown" ; len=7
            0x005ade06      .byte 0x2c
            0x005ade07     .string "file))" ; len=6
            0x005ade0d      .byte 0x06
            0x005ade0e     .string "Brush4" ; len=6
            0x005ade14      .byte 0x2c
            0x005ade15     .string "DPB    " ; len=7
            0x005ade1c      .byte 0x06
            0x005ade1d     .string "Brush4" ; len=6
            0x005ade23      .byte 0x29
            0x005ade24     .string ",file))" ; len=7
            0x005ade2b      .byte 0x01
            0x005ade2c      .byte 0x00
            0x005ade2d      .byte 0x00
            0x005ade2e      .byte 0x01
            0x005ade2f      .byte 0xf8
            0x005ade30      .byte 0x01
            0x005ade31      .byte 0x00
            0x005ade32      .byte 0x00
            0x005ade33      .byte 0x00
            0x005ade34      .byte 0x01
            0x005ade35      .byte 0x03
            0x005ade36     .string "BRU" ; len=3
            0x005ade39      .byte 0x53
            0x005ade3a     .string "H4.DPB    " ; len=10
            0x005ade44      .byte 0x00
            0x005ade45      .byte 0x00
            0x005ade46      .byte 0x00
            0x005ade47      .byte 0x14
            0x005ade48      .byte 0x20
            0x005ade49      .byte 0x00
            0x005ade4a     .string ",RUSH4.DPB    , " ; len=16
            0x005ade5a      .byte 0x00
            0x005ade5b      .byte 0x00
            0x005ade5c      .byte 0x18
            0x005ade5d      .byte 0x00
            0x005ade5e      .byte 0x07
            0x005ade5f     .string "unknown" ; len=7
            0x005ade66      .byte 0x2c
            0x005ade67     .string "file))" ; len=6
            0x005ade6d      .byte 0x06
            0x005ade6e     .string "Brush5" ; len=6
            0x005ade74      .byte 0x2c
            0x005ade75     .string "DPB    " ; len=7
            0x005ade7c      .byte 0x06
            0x005ade7d     .string "Brush5" ; len=6
            0x005ade83      .byte 0x29
            0x005ade84     .string ",file))" ; len=7
            0x005ade8b      .byte 0x01
            0x005ade8c      .byte 0x00
            0x005ade8d      .byte 0x00
            0x005ade8e      .byte 0x01
            0x005ade8f      .byte 0xf9
            0x005ade90      .byte 0x01
            0x005ade91      .byte 0x00
            0x005ade92      .byte 0x00
            0x005ade93      .byte 0x00
            0x005ade94      .byte 0x01
            0x005ade95      .byte 0x04
            0x005ade96     .string "BRUS" ; len=4
            0x005ade9a      .byte 0x48
            0x005ade9b     .string "5.DPB    " ; len=9
            0x005adea4      .byte 0x00
            0x005adea5      .byte 0x00
            0x005adea6      .byte 0x00
            0x005adea7      .byte 0x15
            0x005adea8      .byte 0x20
            0x005adea9      .byte 0x00
            0x005adeaa     .string ",RUSH5.DPB    , " ; len=16
            0x005adeba      .byte 0x00
            0x005adebb      .byte 0x00
            0x005adebc      .byte 0x19
            0x005adebd      .byte 0x00
            0x005adebe      .byte 0x07
            0x005adebf     .string "unknown" ; len=7
            0x005adec6      .byte 0x2c
            0x005adec7     .string "file))" ; len=6
            0x005adecd      .byte 0x06
            0x005adece     .string "Brush6" ; len=6
            0x005aded4      .byte 0x2c
            0x005aded5     .string "DPB    " ; len=7
            0x005adedc      .byte 0x06
            0x005adedd     .string "Brush6" ; len=6
            0x005adee3      .byte 0x29
            0x005adee4     .string ",file))" ; len=7
            0x005adeeb      .byte 0x01
            0x005adeec      .byte 0x00
            0x005adeed      .byte 0x00
            0x005adeee      .byte 0x01
            0x005adeef      .byte 0xfa
            0x005adef0      .byte 0x01
            0x005adef1      .byte 0x00
            0x005adef2      .byte 0x00
            0x005adef3      .byte 0x00
            0x005adef4      .byte 0x01
            0x005adef5      .byte 0x05
            0x005adef6     .string "BRUSH" ; len=5
            0x005adefb      .byte 0x36
            0x005adefc     .string ".DPB    " ; len=8
            0x005adf04      .byte 0x00
            0x005adf05      .byte 0x00
            0x005adf06      .byte 0x00
            0x005adf07      .byte 0x16
            0x005adf08      .byte 0x20
            0x005adf09      .byte 0x00
            0x005adf0a     .string ",RUSH6.DPB    , " ; len=16
            0x005adf1a      .byte 0x00
            0x005adf1b      .byte 0x00
            0x005adf1c      .byte 0x1a
            0x005adf1d      .byte 0x00
            0x005adf1e      .byte 0x07
            0x005adf1f     .string "unknown" ; len=7
            0x005adf26      .byte 0x2c
            0x005adf27     .string "file))" ; len=6
            0x005adf2d      .byte 0x06
            0x005adf2e     .string "Brush7" ; len=6
            0x005adf34      .byte 0x2c
            0x005adf35     .string "DPB    " ; len=7
            0x005adf3c      .byte 0x06
            0x005adf3d     .string "Brush7" ; len=6
            0x005adf43      .byte 0x29
            0x005adf44     .string ",file))" ; len=7
            0x005adf4b      .byte 0x01
            0x005adf4c      .byte 0x00
            0x005adf4d      .byte 0x00
            0x005adf4e      .byte 0x01
            0x005adf4f      .byte 0xfb
            0x005adf50      .byte 0x01
            0x005adf51      .byte 0x00
            0x005adf52      .byte 0x00
            0x005adf53      .byte 0x00
            0x005adf54      .byte 0x01
            0x005adf55      .byte 0x06
            0x005adf56     .string "BRUSH7" ; len=6
            0x005adf5c      .byte 0x2e
            0x005adf5d     .string "DPB    " ; len=7
            0x005adf64      .byte 0x00
            0x005adf65      .byte 0x00
            0x005adf66      .byte 0x00
            0x005adf67      .byte 0x17
            0x005adf68      .byte 0x20
            0x005adf69      .byte 0x00
            0x005adf6a     .string ",RUSH7.DPB    , " ; len=16
            0x005adf7a      .byte 0x00
            0x005adf7b      .byte 0x00
            0x005adf7c      .byte 0x1b
            0x005adf7d      .byte 0x00
            0x005adf7e      .byte 0x07
            0x005adf7f     .string "unknown" ; len=7
            0x005adf86      .byte 0x2c
            0x005adf87     .string "file))" ; len=6
            0x005adf8d      .byte 0x06
            0x005adf8e     .string "Brush8" ; len=6
            0x005adf94      .byte 0x2c
            0x005adf95     .string "DPB    " ; len=7
            0x005adf9c      .byte 0x06
            0x005adf9d     .string "Brush8" ; len=6
            0x005adfa3      .byte 0x29
            0x005adfa4     .string ",file))" ; len=7
            0x005adfab      .byte 0x01
            0x005adfac      .byte 0x00
            0x005adfad      .byte 0x00
            0x005adfae      .byte 0x01
            0x005adfaf      .byte 0xfc
            0x005adfb0      .byte 0x01
            0x005adfb1      .byte 0x00
            0x005adfb2      .byte 0x00
            0x005adfb3      .byte 0x00
            0x005adfb4      .byte 0x01
            0x005adfb5      .byte 0x07
            0x005adfb6     .string "BRUSH8." ; len=7
            0x005adfbd      .byte 0x44
            0x005adfbe     .string "PB    " ; len=6
            0x005adfc4      .byte 0x00
            0x005adfc5      .byte 0x00
            0x005adfc6      .byte 0x00
            0x005adfc7      .byte 0x18
            0x005adfc8      .byte 0x20
            0x005adfc9      .byte 0x00
            0x005adfca     .string ",RUSH8.DPB    , " ; len=16
            0x005adfda      .byte 0x00
            0x005adfdb      .byte 0x00
            0x005adfdc      .byte 0x1c
            0x005adfdd      .byte 0x00
            0x005adfde      .byte 0x07
            0x005adfdf     .string "unknown" ; len=7
            0x005adfe6      .byte 0x2c
            0x005adfe7     .string "file))" ; len=6
            0x005adfed      .byte 0x06
            0x005adfee     .string "Brush9" ; len=6
            0x005adff4      .byte 0x2c
            0x005adff5     .string "DPB    " ; len=7
            0x005adffc      .byte 0x06
            0x005adffd     .string "Brush9" ; len=6
            0x005ae003      .byte 0x29
            0x005ae004     .string ",file))" ; len=7
            0x005ae00b      .byte 0x01
            0x005ae00c      .byte 0x00
            0x005ae00d      .byte 0x00
            0x005ae00e      .byte 0x01
            0x005ae00f      .byte 0xfd
            0x005ae010      .byte 0x01
            0x005ae011      .byte 0x00
            0x005ae012      .byte 0x00
            0x005ae013      .byte 0x00
            0x005ae014      .byte 0x01
            0x005ae015      .byte 0x08
            0x005ae016     .string "BRUSH9.D" ; len=8
            0x005ae01e      .byte 0x50
            0x005ae01f     .string "B    " ; len=5
            0x005ae024      .byte 0x00
            0x005ae025      .byte 0x00
            0x005ae026      .byte 0x00
            0x005ae027      .byte 0x19
            0x005ae028      .byte 0x20
            0x005ae029      .byte 0x00
            0x005ae02a     .string ",RUSH9.DPB    , " ; len=16
            0x005ae03a      .byte 0x00
            0x005ae03b      .byte 0x00
            0x005ae03c      .byte 0x1d
            0x005ae03d      .byte 0x00
            0x005ae03e      .byte 0x07
            0x005ae03f     .string "unknown" ; len=7
            0x005ae046      .byte 0x2c
            0x005ae047     .string "file))" ; len=6
            0x005ae04d      .byte 0x07
            0x005ae04e     .string "Brush10" ; len=7
            0x005ae055      .byte 0x2c
            0x005ae056     .string "PB    " ; len=6
            0x005ae05c      .byte 0x07
            0x005ae05d     .string "Brush10" ; len=7
            0x005ae064      .byte 0x29
            0x005ae065     .string "file))" ; len=6
            0x005ae06b      .byte 0x01
            0x005ae06c      .byte 0x00
            0x005ae06d      .byte 0x00
            0x005ae06e      .byte 0x01
            0x005ae06f      .byte 0xfe
            0x005ae070      .byte 0x01
            0x005ae071      .byte 0x00
            0x005ae072      .byte 0x00
            0x005ae073      .byte 0x00
            0x005ae074      .byte 0x01
            0x005ae075      .byte 0x09
            0x005ae076     .string "BRUSH10.D" ; len=9
            0x005ae07f      .byte 0x50
            0x005ae080     .string "B   " ; len=4
            0x005ae084      .byte 0x00
            0x005ae085      .byte 0x00
            0x005ae086      .byte 0x00
            0x005ae087      .byte 0x1a
            0x005ae088      .byte 0x20
            0x005ae089      .byte 0x00
            0x005ae08a     .string ",RUSH10.DPB   , " ; len=16
            0x005ae09a      .byte 0x00
            0x005ae09b      .byte 0x00
            0x005ae09c      .byte 0x1e
            0x005ae09d      .byte 0x00
            0x005ae09e      .byte 0x07
            0x005ae09f     .string "unknown" ; len=7
            0x005ae0a6      .byte 0x2c
            0x005ae0a7     .string "file))" ; len=6
            0x005ae0ad      .byte 0x07
            0x005ae0ae     .string "Brush11" ; len=7
            0x005ae0b5      .byte 0x2c
            0x005ae0b6     .string "DPB   " ; len=6
            0x005ae0bc      .byte 0x07
            0x005ae0bd     .string "Brush11" ; len=7
            0x005ae0c4      .byte 0x29
            0x005ae0c5     .string "file))" ; len=6
            0x005ae0cb      .byte 0x01
            0x005ae0cc      .byte 0x00
            0x005ae0cd      .byte 0x00
            0x005ae0ce      .byte 0x01
            0x005ae0cf      .byte 0xff
            0x005ae0d0      .byte 0x01
            0x005ae0d1      .byte 0x00
            0x005ae0d2      .byte 0x00
            0x005ae0d3      .byte 0x00
            0x005ae0d4      .byte 0x01
            0x005ae0d5      .byte 0x0a
            0x005ae0d6     .string "BRUSH11.DP" ; len=10
            0x005ae0e0      .byte 0x42
            0x005ae0e1     .string "   " ; len=3
            0x005ae0e4      .byte 0x00
            0x005ae0e5      .byte 0x00
            0x005ae0e6      .byte 0x00
            0x005ae0e7      .byte 0x1b
            0x005ae0e8      .byte 0x20
            0x005ae0e9      .byte 0x00
            0x005ae0ea     .string ",RUSH11.DPB   , " ; len=16
            0x005ae0fa      .byte 0x00
            0x005ae0fb      .byte 0x00
            0x005ae0fc      .byte 0x1f
            0x005ae0fd      .byte 0x00
            0x005ae0fe      .byte 0x07
            0x005ae0ff     .string "unknown" ; len=7
            0x005ae106      .byte 0x2c
            0x005ae107     .string "file))" ; len=6
            0x005ae10d      .byte 0x07
            0x005ae10e     .string "Brush12" ; len=7
            0x005ae115      .byte 0x2c
            0x005ae116     .string "DPB   " ; len=6
            0x005ae11c      .byte 0x07
            0x005ae11d     .string "Brush12" ; len=7
            0x005ae124      .byte 0x29
            0x005ae125     .string "file))" ; len=6
            0x005ae12b      .byte 0x01
            0x005ae12c      .byte 0x00
            0x005ae12d      .byte 0x00
            0x005ae12e      .byte 0x02
            0x005ae12f      .byte 0x00
            0x005ae130      .byte 0x01
            0x005ae131      .byte 0x00
            0x005ae132      .byte 0x00
            0x005ae133      .byte 0x00
            0x005ae134      .byte 0x01
            0x005ae135      .byte 0x0b
            0x005ae136     .string "BRUSH12.DPB" ; len=11
            0x005ae141      .byte 0x20
            0x005ae142     .string "  " ; len=2
            0x005ae144      .byte 0x00
            0x005ae145      .byte 0x00
            0x005ae146      .byte 0x00
            0x005ae147      .byte 0x1c
            0x005ae148      .byte 0x20
            0x005ae149      .byte 0x00
            0x005ae14a     .string ",RUSH12.DPB   , " ; len=16
            0x005ae15a      .byte 0x00
            0x005ae15b      .byte 0x00
            0x005ae15c      .byte 0x20
            0x005ae15d      .byte 0x00
            0x005ae15e      .byte 0x07
            0x005ae15f     .string "unknown" ; len=7
            0x005ae166      .byte 0x2c
            0x005ae167     .string "file))" ; len=6
            0x005ae16d      .byte 0x07
            0x005ae16e     .string "Brush13" ; len=7
            0x005ae175      .byte 0x2c
            0x005ae176     .string "DPB   " ; len=6
            0x005ae17c      .byte 0x07
            0x005ae17d     .string "Brush13" ; len=7
            0x005ae184      .byte 0x29
            0x005ae185     .string "file))" ; len=6
            0x005ae18b      .byte 0x01
            0x005ae18c      .byte 0x00
            0x005ae18d      .byte 0x00
            0x005ae18e      .byte 0x02
            0x005ae18f      .byte 0x01
            0x005ae190      .byte 0x01
            0x005ae191      .byte 0x00
            0x005ae192      .byte 0x00
            0x005ae193      .byte 0x00
            0x005ae194      .byte 0x01
            0x005ae195      .byte 0x0c
            0x005ae196     .string "BRUSH13.DPB " ; len=12
            0x005ae1a2      .byte 0x20
            0x005ae1a3     .string " " ; len=1
            0x005ae1a4      .byte 0x00
            0x005ae1a5      .byte 0x00
            0x005ae1a6      .byte 0x00
            0x005ae1a7      .byte 0x1d
            0x005ae1a8      .byte 0x20
            0x005ae1a9      .byte 0x00
            0x005ae1aa     .string ",RUSH13.DPB   , " ; len=16
            0x005ae1ba      .byte 0x00
            0x005ae1bb      .byte 0x00
            0x005ae1bc      .byte 0x21
            0x005ae1bd      .byte 0x00
            0x005ae1be      .byte 0x07
            0x005ae1bf     .string "unknown" ; len=7
            0x005ae1c6      .byte 0x2c
            0x005ae1c7     .string "file))" ; len=6
            0x005ae1cd      .byte 0x07
            0x005ae1ce     .string "Brush14" ; len=7
            0x005ae1d5      .byte 0x2c
            0x005ae1d6     .string "DPB   " ; len=6
            0x005ae1dc      .byte 0x07
            0x005ae1dd     .string "Brush14" ; len=7
            0x005ae1e4      .byte 0x29
            0x005ae1e5     .string "file))" ; len=6
            0x005ae1eb      .byte 0x01
            0x005ae1ec      .byte 0x00
            0x005ae1ed      .byte 0x00
            0x005ae1ee      .byte 0x02
            0x005ae1ef      .byte 0x02
            0x005ae1f0      .byte 0x01
            0x005ae1f1      .byte 0x00
            0x005ae1f2      .byte 0x00
            0x005ae1f3      .byte 0x00
            0x005ae1f4      .byte 0x01
            0x005ae1f5      .byte 0x0d
            0x005ae1f6     .string "BRUSH14.DPB  " ; len=13
            0x005ae203      .byte 0x20
            0x005ae204      .byte 0x00
            0x005ae205      .byte 0x00
            0x005ae206      .byte 0x00
            0x005ae207      .byte 0x1e
            0x005ae208      .byte 0x20
            0x005ae209      .byte 0x00
            0x005ae20a     .string ",RUSH14.DPB   , " ; len=16
            0x005ae21a      .byte 0x00
            0x005ae21b      .byte 0x00
            0x005ae21c      .byte 0x22
            0x005ae21d      .byte 0x00
            0x005ae21e      .byte 0x07
            0x005ae21f     .string "unknown" ; len=7
            0x005ae226      .byte 0x2c
            0x005ae227     .string "file))" ; len=6
            0x005ae22d      .byte 0x07
            0x005ae22e     .string "Brush15" ; len=7
            0x005ae235      .byte 0x2c
            0x005ae236     .string "DPB   " ; len=6
            0x005ae23c      .byte 0x07
            0x005ae23d     .string "Brush15" ; len=7
            0x005ae244      .byte 0x29
            0x005ae245     .string "file))" ; len=6
            0x005ae24b      .byte 0x01
            0x005ae24c      .byte 0x00
            0x005ae24d      .byte 0x00
            0x005ae24e      .byte 0x02
            0x005ae24f      .byte 0x03
            0x005ae250      .byte 0x01
            0x005ae251      .byte 0x00
            0x005ae252      .byte 0x00
            0x005ae253      .byte 0x00
            0x005ae254      .byte 0x01
            0x005ae255      .byte 0x0e
            0x005ae256     .string "BRUSH15.DPB   " ; len=14
            0x005ae264      .byte 0x00
            0x005ae265      .byte 0x00
            0x005ae266      .byte 0x00
            0x005ae267      .byte 0x1f
            0x005ae268      .byte 0x20
            0x005ae269      .byte 0x00
            0x005ae26a     .string ",RUSH15.DPB   , " ; len=16
            0x005ae27a      .byte 0x00
            0x005ae27b      .byte 0x00
            0x005ae27c      .byte 0x2a
            0x005ae27d      .byte 0x00
            0x005ae27e      .byte 0x07
            0x005ae27f     .string "unknown" ; len=7
            0x005ae286      .byte 0x2c
            0x005ae287     .string "file))" ; len=6
            0x005ae28d      .byte 0x07
            0x005ae28e     .string "Unknown" ; len=7
            0x005ae295      .byte 0x2c
            0x005ae296     .string "DPB   " ; len=6
            0x005ae29c      .byte 0x07
            0x005ae29d     .string "Unknown" ; len=7
            0x005ae2a4      .byte 0x29
            0x005ae2a5     .string "file))" ; len=6
            0x005ae2ab      .byte 0x01
            0x005ae2ac      .byte 0x00
            0x005ae2ad      .byte 0x00
            0x005ae2ae      .byte 0x02
            0x005ae2af      .byte 0x06
            0x005ae2b0      .byte 0x01
            0x005ae2b1      .byte 0x00
            0x005ae2b2      .byte 0x00
            0x005ae2b3      .byte 0x00
            0x005ae2b4      .byte 0x00
            0x005ae2b5      .byte 0x01
            0x005ae2b6     .string " " ; len=1
            0x005ae2b7      .byte 0x20
            0x005ae2b8     .string "            " ; len=12
            0x005ae2c4      .byte 0xff
            0x005ae2c5      .byte 0xff
            0x005ae2c6      .byte 0xff
            0x005ae2c7      .byte 0xff
            0x005ae2c8      .byte 0x20
            0x005ae2c9      .byte 0x00
            0x005ae2ca     .string ",             , " ; len=16
            0x005ae2da      .byte 0x00
            0x005ae2db      .byte 0x00
            0x005ae2dc      .byte 0x2b
            0x005ae2dd      .byte 0x00
            0x005ae2de      .byte 0x07
            0x005ae2df     .string "unknown" ; len=7
            0x005ae2e6      .byte 0x2c
            0x005ae2e7     .string "file))" ; len=6
            0x005ae2ed      .byte 0x07
            0x005ae2ee     .string "Unknown" ; len=7
            0x005ae2f5      .byte 0x2c
            0x005ae2f6     .string "      " ; len=6
            0x005ae2fc      .byte 0x07
            0x005ae2fd     .string "Unknown" ; len=7
            0x005ae304      .byte 0x29
            0x005ae305     .string "file))" ; len=6
            0x005ae30b      .byte 0x01
            0x005ae30c      .byte 0x00
            0x005ae30d      .byte 0x00
            0x005ae30e      .byte 0x02
            0x005ae30f      .byte 0x07
            0x005ae310      .byte 0x01
            0x005ae311      .byte 0x00
            0x005ae312      .byte 0x00
            0x005ae313      .byte 0x00
            0x005ae314      .byte 0x00
            0x005ae315      .byte 0x01
            0x005ae316     .string " " ; len=1
            0x005ae317      .byte 0x20
            0x005ae318     .string "            " ; len=12
            0x005ae324      .byte 0xff
            0x005ae325      .byte 0xff
            0x005ae326      .byte 0xff
            0x005ae327      .byte 0xff
            0x005ae328      .byte 0x20
            0x005ae329      .byte 0x00
            0x005ae32a     .string ",             , " ; len=16
            0x005ae33a      .byte 0x00
            0x005ae33b      .byte 0x00
            0x005ae33c      .byte 0x2c
            0x005ae33d      .byte 0x00
            0x005ae33e      .byte 0x07
            0x005ae33f     .string "unknown" ; len=7
            0x005ae346      .byte 0x2c
            0x005ae347     .string "file))" ; len=6
            0x005ae34d      .byte 0x07
            0x005ae34e     .string "Unknown" ; len=7
            0x005ae355      .byte 0x2c
            0x005ae356     .string "      " ; len=6
            0x005ae35c      .byte 0x07
            0x005ae35d     .string "Unknown" ; len=7
            0x005ae364      .byte 0x29
            0x005ae365     .string "file))" ; len=6
            0x005ae36b      .byte 0x01
            0x005ae36c      .byte 0x00
            0x005ae36d      .byte 0x00
            0x005ae36e      .byte 0x02
            0x005ae36f      .byte 0x08
            0x005ae370      .byte 0x01
            0x005ae371      .byte 0x00
            0x005ae372      .byte 0x00
            0x005ae373      .byte 0x00
            0x005ae374      .byte 0x00
            0x005ae375      .byte 0x01
            0x005ae376     .string " " ; len=1
            0x005ae377      .byte 0x20
            0x005ae378     .string "            " ; len=12
            0x005ae384      .byte 0xff
            0x005ae385      .byte 0xff
            0x005ae386      .byte 0xff
            0x005ae387      .byte 0xff
            0x005ae388      .byte 0x20
            0x005ae389      .byte 0x00
            0x005ae38a     .string ",             , " ; len=16
            0x005ae39a      .byte 0x00
            0x005ae39b      .byte 0x00
            0x005ae39c      .byte 0x2d
            0x005ae39d      .byte 0x00
            0x005ae39e      .byte 0x07
            0x005ae39f     .string "unknown" ; len=7
            0x005ae3a6      .byte 0x2c
            0x005ae3a7     .string "file))" ; len=6
            0x005ae3ad      .byte 0x07
            0x005ae3ae     .string "Unknown" ; len=7
            0x005ae3b5      .byte 0x2c
            0x005ae3b6     .string "      " ; len=6
            0x005ae3bc      .byte 0x07
            0x005ae3bd     .string "Unknown" ; len=7
            0x005ae3c4      .byte 0x29
            0x005ae3c5     .string "file))" ; len=6
            0x005ae3cb      .byte 0x01
            0x005ae3cc      .byte 0x00
            0x005ae3cd      .byte 0x00
            0x005ae3ce      .byte 0x02
            0x005ae3cf      .byte 0x09
            0x005ae3d0      .byte 0x01
            0x005ae3d1      .byte 0x00
            0x005ae3d2      .byte 0x00
            0x005ae3d3      .byte 0x00
            0x005ae3d4      .byte 0x00
            0x005ae3d5      .byte 0x01
            0x005ae3d6     .string " " ; len=1
            0x005ae3d7      .byte 0x20
            0x005ae3d8     .string "            " ; len=12
            0x005ae3e4      .byte 0xff
            0x005ae3e5      .byte 0xff
            0x005ae3e6      .byte 0xff
            0x005ae3e7      .byte 0xff
            0x005ae3e8      .byte 0x20
            0x005ae3e9      .byte 0x00
            0x005ae3ea     .string ",             , " ; len=16
            0x005ae3fa      .byte 0x00
            0x005ae3fb      .byte 0x00
            0x005ae3fc      .byte 0x53
            0x005ae3fd      .byte 0x00
            0x005ae3fe      .byte 0x07
            0x005ae3ff     .string "unknown" ; len=7
            0x005ae406      .byte 0x2c
            0x005ae407     .string "file))" ; len=6
            0x005ae40d      .byte 0x07
            0x005ae40e     .string "Unknown" ; len=7
            0x005ae415      .byte 0x2c
            0x005ae416     .string "      " ; len=6
            0x005ae41c      .byte 0x07
            0x005ae41d     .string "Unknown" ; len=7
            0x005ae424      .byte 0x29
            0x005ae425     .string "file))" ; len=6
            0x005ae42b      .byte 0x01
            0x005ae42c      .byte 0x00
            0x005ae42d      .byte 0x00
            0x005ae42e      .byte 0x02
            0x005ae42f      .byte 0x0d
            0x005ae430      .byte 0x01
            0x005ae431      .byte 0x00
            0x005ae432      .byte 0x00
            0x005ae433      .byte 0x00
            0x005ae434      .byte 0x00
            0x005ae435      .byte 0x01
            0x005ae436     .string " " ; len=1
            0x005ae437      .byte 0x20
            0x005ae438     .string "            " ; len=12
            0x005ae444      .byte 0xff
            0x005ae445      .byte 0xff
            0x005ae446      .byte 0xff
            0x005ae447      .byte 0xff
            0x005ae448      .byte 0x20
            0x005ae449      .byte 0x00
            0x005ae44a     .string ",             , " ; len=16
            0x005ae45a      .byte 0x00
            0x005ae45b      .byte 0x00
            0x005ae45c      .byte 0x54
            0x005ae45d      .byte 0x00
            0x005ae45e      .byte 0x07
            0x005ae45f     .string "unknown" ; len=7
            0x005ae466      .byte 0x2c
            0x005ae467     .string "file))" ; len=6
            0x005ae46d      .byte 0x07
            0x005ae46e     .string "Unknown" ; len=7
            0x005ae475      .byte 0x2c
            0x005ae476     .string "      " ; len=6
            0x005ae47c      .byte 0x07
            0x005ae47d     .string "Unknown" ; len=7
            0x005ae484      .byte 0x29
            0x005ae485     .string "file))" ; len=6
            0x005ae48b      .byte 0x01
            0x005ae48c      .byte 0x00
            0x005ae48d      .byte 0x00
            0x005ae48e      .byte 0x02
            0x005ae48f      .byte 0x0e
            0x005ae490      .byte 0x01
            0x005ae491      .byte 0x00
            0x005ae492      .byte 0x00
            0x005ae493      .byte 0x00
            0x005ae494      .byte 0x00
            0x005ae495      .byte 0x01
            0x005ae496     .string " " ; len=1
            0x005ae497      .byte 0x20
            0x005ae498     .string "            " ; len=12
            0x005ae4a4      .byte 0xff
            0x005ae4a5      .byte 0xff
            0x005ae4a6      .byte 0xff
            0x005ae4a7      .byte 0xff
            0x005ae4a8      .byte 0x20
            0x005ae4a9      .byte 0x00
            0x005ae4aa     .string ",             , " ; len=16
            0x005ae4ba      .byte 0x00
            0x005ae4bb      .byte 0x00
            0x005ae4bc      .byte 0x55
            0x005ae4bd      .byte 0x00
            0x005ae4be      .byte 0x07
            0x005ae4bf     .string "unknown" ; len=7
            0x005ae4c6      .byte 0x2c
            0x005ae4c7     .string "file))" ; len=6
            0x005ae4cd      .byte 0x07
            0x005ae4ce     .string "Unknown" ; len=7
            0x005ae4d5      .byte 0x2c
            0x005ae4d6     .string "      " ; len=6
            0x005ae4dc      .byte 0x07
            0x005ae4dd     .string "Unknown" ; len=7
            0x005ae4e4      .byte 0x29
            0x005ae4e5     .string "file))" ; len=6
            0x005ae4eb      .byte 0x01
            0x005ae4ec      .byte 0x00
            0x005ae4ed      .byte 0x00
            0x005ae4ee      .byte 0x02
            0x005ae4ef      .byte 0x0f
            0x005ae4f0      .byte 0x01
            0x005ae4f1      .byte 0x00
            0x005ae4f2      .byte 0x00
            0x005ae4f3      .byte 0x00
            0x005ae4f4      .byte 0x00
            0x005ae4f5      .byte 0x01
            0x005ae4f6     .string " " ; len=1
            0x005ae4f7      .byte 0x20
            0x005ae4f8     .string "            " ; len=12
            0x005ae504      .byte 0xff
            0x005ae505      .byte 0xff
            0x005ae506      .byte 0xff
            0x005ae507      .byte 0xff
            0x005ae508      .byte 0x20
            0x005ae509      .byte 0x00
            0x005ae50a     .string ",             , " ; len=16
            0x005ae51a      .byte 0x00
            0x005ae51b      .byte 0x00
            0x005ae51c      .byte 0x35
            0x005ae51d      .byte 0x13
            0x005ae51e      .byte 0x0a
            0x005ae51f     .string "col curves" ; len=10
            0x005ae529      .byte 0x2c
            0x005ae52a     .string "e))" ; len=3
            0x005ae52d      .byte 0x0a
            0x005ae52e     .string "Col curves" ; len=10
            0x005ae538      .byte 0x2c
            0x005ae539     .string "   " ; len=3
            0x005ae53c      .byte 0x0a
            0x005ae53d     .string "Col curves" ; len=10
            0x005ae547      .byte 0x29
            0x005ae548     .string "e))" ; len=3
            0x005ae54b      .byte 0x00
            0x005ae54c      .byte 0x00
            0x005ae54d      .byte 0x00
            0x005ae54e      .byte 0x01
            0x005ae54f      .byte 0x27
            0x005ae550      .byte 0x01
            0x005ae551      .byte 0x00
            0x005ae552      .byte 0x00
            0x005ae553      .byte 0x00
            0x005ae554      .byte 0x00
            0x005ae555      .byte 0x01
            0x005ae556     .string " " ; len=1
            0x005ae557      .byte 0x20
            0x005ae558     .string "            " ; len=12
            0x005ae564      .byte 0xff
            0x005ae565      .byte 0xff
            0x005ae566      .byte 0xff
            0x005ae567      .byte 0xff
            0x005ae568      .byte 0x20
            0x005ae569      .byte 0x00
            0x005ae56a     .string ",             , " ; len=16
            0x005ae57a      .byte 0x00
            0x005ae57b      .byte 0x00
            0x005ae57c      .byte 0x4a
            0x005ae57d      .byte 0x25
            0x005ae57e      .byte 0x0d
            0x005ae57f     .string "col >>>>setup" ; len=13
            0x005ae58c      .byte 0x2c
            0x005ae58d      .byte 0x09
            0x005ae58e     .string "Col setup" ; len=9
            0x005ae597      .byte 0x2c
            0x005ae598     .string "    " ; len=4
            0x005ae59c      .byte 0x09
            0x005ae59d     .string "Col setup" ; len=9
            0x005ae5a6      .byte 0x29
            0x005ae5a7     .string "tup," ; len=4
            0x005ae5ab      .byte 0x00
            0x005ae5ac      .byte 0x00
            0x005ae5ad      .byte 0x00
            0x005ae5ae      .byte 0x01
            0x005ae5af      .byte 0x36
            0x005ae5b0      .byte 0x01
            0x005ae5b1      .byte 0x00
            0x005ae5b2      .byte 0x00
            0x005ae5b3      .byte 0x00
            0x005ae5b4      .byte 0x00
            0x005ae5b5      .byte 0x01
            0x005ae5b6     .string " " ; len=1
            0x005ae5b7      .byte 0x20
            0x005ae5b8     .string "            " ; len=12
            0x005ae5c4      .byte 0xff
            0x005ae5c5      .byte 0xff
            0x005ae5c6      .byte 0xff
            0x005ae5c7      .byte 0xff
            0x005ae5c8      .byte 0x20
            0x005ae5c9      .byte 0x00
            0x005ae5ca     .string ",             , " ; len=16
            0x005ae5da      .byte 0x00
            0x005ae5db      .byte 0x00
            0x005ae5dc      .byte 0x4b
            0x005ae5dd      .byte 0x26
            0x005ae5de      .byte 0x0b
            0x005ae5df     .string "key <<setup" ; len=11
            0x005ae5ea      .byte 0x2c
            0x005ae5eb     .string "p," ; len=2
            0x005ae5ed      .byte 0x09
            0x005ae5ee     .string "Key setup" ; len=9
            0x005ae5f7      .byte 0x2c
            0x005ae5f8     .string "    " ; len=4
            0x005ae5fc      .byte 0x09
            0x005ae5fd     .string "Key setup" ; len=9
            0x005ae606      .byte 0x29
            0x005ae607     .string "p,p," ; len=4
            0x005ae60b      .byte 0x00
            0x005ae60c      .byte 0x00
            0x005ae60d      .byte 0x00
            0x005ae60e      .byte 0x01
            0x005ae60f      .byte 0x37
            0x005ae610      .byte 0x01
            0x005ae611      .byte 0x00
            0x005ae612      .byte 0x00
            0x005ae613      .byte 0x00
            0x005ae614      .byte 0x00
            0x005ae615      .byte 0x01
            0x005ae616     .string " " ; len=1
            0x005ae617      .byte 0x20
            0x005ae618     .string "            " ; len=12
            0x005ae624      .byte 0xff
            0x005ae625      .byte 0xff
            0x005ae626      .byte 0xff
            0x005ae627      .byte 0xff
            0x005ae628      .byte 0x20
            0x005ae629      .byte 0x00
            0x005ae62a     .string ",             , " ; len=16
            0x005ae63a      .byte 0x00
            0x005ae63b      .byte 0x00
            0x005ae63c      .byte 0x4c
            0x005ae63d      .byte 0x27
            0x005ae63e      .byte 0x04
            0x005ae63f     .string "clip" ; len=4
            0x005ae643      .byte 0x2c
            0x005ae644     .string "etup)p,p," ; len=9
            0x005ae64d      .byte 0x04
            0x005ae64e     .string "Clip" ; len=4
            0x005ae652      .byte 0x2c
            0x005ae653     .string "         " ; len=9
            0x005ae65c      .byte 0x04
            0x005ae65d     .string "Clip" ; len=4
            0x005ae661      .byte 0x29
            0x005ae662     .string "etup)p,p," ; len=9
            0x005ae66b      .byte 0x00
            0x005ae66c      .byte 0x00
            0x005ae66d      .byte 0x00
            0x005ae66e      .byte 0x02
            0x005ae66f      .byte 0xbc
            0x005ae670      .byte 0x01
            0x005ae671      .byte 0x00
            0x005ae672      .byte 0x00
            0x005ae673      .byte 0x00
            0x005ae674      .byte 0x00
            0x005ae675      .byte 0x01
            0x005ae676     .string " " ; len=1
            0x005ae677      .byte 0x20
            0x005ae678     .string "            " ; len=12
            0x005ae684      .byte 0xff
            0x005ae685      .byte 0xff
            0x005ae686      .byte 0xff
            0x005ae687      .byte 0xff
            0x005ae688      .byte 0x20
            0x005ae689      .byte 0x00
            0x005ae68a     .string ",             , " ; len=16
            0x005ae69a      .byte 0x00
            0x005ae69b      .byte 0x00
            0x005ae69c      .byte 0x4d
            0x005ae69d      .byte 0x28
            0x005ae69e      .byte 0x04
            0x005ae69f     .string "reel" ; len=4
            0x005ae6a3      .byte 0x2c
            0x005ae6a4     .string "etup)p,p," ; len=9
            0x005ae6ad      .byte 0x04
            0x005ae6ae     .string "Reel" ; len=4
            0x005ae6b2      .byte 0x2c
            0x005ae6b3     .string "         " ; len=9
            0x005ae6bc      .byte 0x04
            0x005ae6bd     .string "Reel" ; len=4
            0x005ae6c1      .byte 0x29
            0x005ae6c2     .string "etup)p,p," ; len=9
            0x005ae6cb      .byte 0x00
            0x005ae6cc      .byte 0x00
            0x005ae6cd      .byte 0x00
            0x005ae6ce      .byte 0x02
            0x005ae6cf      .byte 0xbd
            0x005ae6d0      .byte 0x01
            0x005ae6d1      .byte 0x00
            0x005ae6d2      .byte 0x00
            0x005ae6d3      .byte 0x00
            0x005ae6d4      .byte 0x00
            0x005ae6d5      .byte 0x01
            0x005ae6d6     .string " " ; len=1
            0x005ae6d7      .byte 0x20
            0x005ae6d8     .string "            " ; len=12
            0x005ae6e4      .byte 0xff
            0x005ae6e5      .byte 0xff
            0x005ae6e6      .byte 0xff
            0x005ae6e7      .byte 0xff
            0x005ae6e8      .byte 0x20
            0x005ae6e9      .byte 0x00
            0x005ae6ea     .string ",             , " ; len=16
            0x005ae6fa      .byte 0x00
            0x005ae6fb      .byte 0x00
            0x005ae6fc      .byte 0x4e
            0x005ae6fd      .byte 0x29
            0x005ae6fe      .byte 0x0b
            0x005ae6ff     .string "<arch>>clip" ; len=11
            0x005ae70a      .byte 0x2c
            0x005ae70b     .string "p," ; len=2
            0x005ae70d      .byte 0x09
            0x005ae70e     .string "Arch clip" ; len=9
            0x005ae717      .byte 0x2c
            0x005ae718     .string "    " ; len=4
            0x005ae71c      .byte 0x09
            0x005ae71d     .string "Arch clip" ; len=9
            0x005ae726      .byte 0x29
            0x005ae727     .string "p,p," ; len=4
            0x005ae72b      .byte 0x00
            0x005ae72c      .byte 0x00
            0x005ae72d      .byte 0x00
            0x005ae72e      .byte 0x02
            0x005ae72f      .byte 0xbe
            0x005ae730      .byte 0x01
            0x005ae731      .byte 0x00
            0x005ae732      .byte 0x00
            0x005ae733      .byte 0x00
            0x005ae734      .byte 0x00
            0x005ae735      .byte 0x01
            0x005ae736     .string " " ; len=1
            0x005ae737      .byte 0x20
            0x005ae738     .string "            " ; len=12
            0x005ae744      .byte 0xff
            0x005ae745      .byte 0xff
            0x005ae746      .byte 0xff
            0x005ae747      .byte 0xff
            0x005ae748      .byte 0x20
            0x005ae749      .byte 0x00
            0x005ae74a     .string ",             , " ; len=16
            0x005ae75a      .byte 0x00
            0x005ae75b      .byte 0x00
            0x005ae75c      .byte 0x4f
            0x005ae75d      .byte 0x2a
            0x005ae75e      .byte 0x0d
            0x005ae75f     .string "<ar<ch>>r<eel" ; len=13
            0x005ae76c      .byte 0x2c
            0x005ae76d      .byte 0x09
            0x005ae76e     .string "Arch reel" ; len=9
            0x005ae777      .byte 0x2c
            0x005ae778     .string "    " ; len=4
            0x005ae77c      .byte 0x09
            0x005ae77d     .string "Arch reel" ; len=9
            0x005ae786      .byte 0x29
            0x005ae787     .string "eel," ; len=4
            0x005ae78b      .byte 0x00
            0x005ae78c      .byte 0x00
            0x005ae78d      .byte 0x00
            0x005ae78e      .byte 0x02
            0x005ae78f      .byte 0xbf
            0x005ae790      .byte 0x01
            0x005ae791      .byte 0x00
            0x005ae792      .byte 0x00
            0x005ae793      .byte 0x00
            0x005ae794      .byte 0x00
            0x005ae795      .byte 0x01
            0x005ae796     .string " " ; len=1
            0x005ae797      .byte 0x20
            0x005ae798     .string "            " ; len=12
            0x005ae7a4      .byte 0xff
            0x005ae7a5      .byte 0xff
            0x005ae7a6      .byte 0xff
            0x005ae7a7      .byte 0xff
            0x005ae7a8      .byte 0x20
            0x005ae7a9      .byte 0x00
            0x005ae7aa     .string ",             , " ; len=16
            0x005ae7ba      .byte 0x00
            0x005ae7bb      .byte 0x00
            0x005ae7bc      .byte 0x50
            0x005ae7bd      .byte 0x2b
            0x005ae7be      .byte 0x0c
            0x005ae7bf     .string "<b<ack>audio" ; len=12
            0x005ae7cb      .byte 0x2c
            0x005ae7cc     .string "," ; len=1
            0x005ae7cd      .byte 0x0a
            0x005ae7ce     .string "Back audio" ; len=10
            0x005ae7d8      .byte 0x2c
            0x005ae7d9     .string "   " ; len=3
            0x005ae7dc      .byte 0x0a
            0x005ae7dd     .string "Back audio" ; len=10
            0x005ae7e7      .byte 0x29
            0x005ae7e8     .string "o,," ; len=3
            0x005ae7eb      .byte 0x00
            0x005ae7ec      .byte 0x00
            0x005ae7ed      .byte 0x00
            0x005ae7ee      .byte 0x02
            0x005ae7ef      .byte 0xc0
            0x005ae7f0      .byte 0x01
            0x005ae7f1      .byte 0x00
            0x005ae7f2      .byte 0x00
            0x005ae7f3      .byte 0x00
            0x005ae7f4      .byte 0x00
            0x005ae7f5      .byte 0x01
            0x005ae7f6     .string " " ; len=1
            0x005ae7f7      .byte 0x20
            0x005ae7f8     .string "            " ; len=12
            0x005ae804      .byte 0xff
            0x005ae805      .byte 0xff
            0x005ae806      .byte 0xff
            0x005ae807      .byte 0xff
            0x005ae808      .byte 0x20
            0x005ae809      .byte 0x00
            0x005ae80a     .string ",             , " ; len=16
            0x005ae81a      .byte 0x00
            0x005ae81b      .byte 0x00
            0x005ae81c      .byte 0x51
            0x005ae81d      .byte 0x2c
            0x005ae81e      .byte 0x05
            0x005ae81f     .string "macro" ; len=5
            0x005ae824      .byte 0x2c
            0x005ae825     .string "udio)o,," ; len=8
            0x005ae82d      .byte 0x05
            0x005ae82e     .string "Macro" ; len=5
            0x005ae833      .byte 0x2c
            0x005ae834     .string "        " ; len=8
            0x005ae83c      .byte 0x05
            0x005ae83d     .string "Macro" ; len=5
            0x005ae842      .byte 0x29
            0x005ae843     .string "udio)o,," ; len=8
            0x005ae84b      .byte 0x00
            0x005ae84c      .byte 0x00
            0x005ae84d      .byte 0x00
            0x005ae84e      .byte 0x01
            0x005ae84f      .byte 0x9f
            0x005ae850      .byte 0x01
            0x005ae851      .byte 0x00
            0x005ae852      .byte 0x00
            0x005ae853      .byte 0x00
            0x005ae854      .byte 0x00
            0x005ae855      .byte 0x01
            0x005ae856     .string " " ; len=1
            0x005ae857      .byte 0x20
            0x005ae858     .string "            " ; len=12
            0x005ae864      .byte 0xff
            0x005ae865      .byte 0xff
            0x005ae866      .byte 0xff
            0x005ae867      .byte 0xff
            0x005ae868      .byte 0x20
            0x005ae869      .byte 0x00
            0x005ae86a     .string ",             , " ; len=16
            0x005ae87a      .byte 0x00
            0x005ae87b      .byte 0x00
            0x005ae87c      .byte 0x52
            0x005ae87d      .byte 0x0c
            0x005ae87e      .byte 0x0a
            0x005ae87f     .string "text>>font" ; len=10
            0x005ae889      .byte 0x2c
            0x005ae88a     .string "o,," ; len=3
            0x005ae88d      .byte 0x09
            0x005ae88e     .string "Text font" ; len=9
            0x005ae897      .byte 0x2c
            0x005ae898     .string "    " ; len=4
            0x005ae89c      .byte 0x09
            0x005ae89d     .string "Text font" ; len=9
            0x005ae8a6      .byte 0x29
            0x005ae8a7     .string ",o,," ; len=4
            0x005ae8ab      .byte 0x00
            0x005ae8ac      .byte 0x00
            0x005ae8ad      .byte 0x00
            0x005ae8ae      .byte 0x01
            0x005ae8af      .byte 0x9e
            0x005ae8b0      .byte 0x01
            0x005ae8b1      .byte 0x00
            0x005ae8b2      .byte 0x00
            0x005ae8b3      .byte 0x00
            0x005ae8b4      .byte 0x00
            0x005ae8b5     .string "*FONT.DPB      " ; len=15
            0x005ae8c4      .byte 0x00
            0x005ae8c5      .byte 0x00
            0x005ae8c6      .byte 0x00
            0x005ae8c7      .byte 0x09
            0x005ae8c8      .byte 0x48
            0x005ae8c9      .byte 0x10
            0x005ae8ca     .string "*DPB *TEXT-FONT " ; len=16
            0x005ae8da      .byte 0x01
            0x005ae8db      .byte 0x00
            0x005ae8dc      .byte 0x56
            0x005ae8dd      .byte 0x2d
            0x005ae8de      .byte 0x0d
            0x005ae8df     .string "k<e<ybd <m<ap" ; len=13
            0x005ae8ec      .byte 0x2c
            0x005ae8ed      .byte 0x09
            0x005ae8ee     .string "Keybd map" ; len=9
            0x005ae8f7      .byte 0x2c
            0x005ae8f8     .string "-FON" ; len=4
            0x005ae8fc      .byte 0x07
            0x005ae8fd     .string "kBd map" ; len=7
            0x005ae904      .byte 0x29
            0x005ae905     .string "<m<ap," ; len=6
            0x005ae90b      .byte 0x00
            0x005ae90c      .byte 0x00
            0x005ae90d      .byte 0x00
            0x005ae90e      .byte 0x01
            0x005ae90f      .byte 0xa1
            0x005ae910      .byte 0x01
            0x005ae911      .byte 0x00
            0x005ae912      .byte 0x00
            0x005ae913      .byte 0x00
            0x005ae914      .byte 0x00
            0x005ae915      .byte 0x01
            0x005ae916     .string " " ; len=1
            0x005ae917      .byte 0x20
            0x005ae918     .string "            " ; len=12
            0x005ae924      .byte 0xff
            0x005ae925      .byte 0xff
            0x005ae926      .byte 0xff
            0x005ae927      .byte 0xff
            0x005ae928      .byte 0x20
            0x005ae929      .byte 0x00
            0x005ae92a     .string ",             , " ; len=16
            0x005ae93a      .byte 0x00
            0x005ae93b      .byte 0x00
            0x005ae93c     .string "#E: (k2_afs_extn) unknown file type &E: (k2_afs_allowed) unknown file type 'E: (k2_afs_filetype) unknown extension " ; len=115
            0x005ae9af      .byte 0x00
            0x005ae9b0      .byte 0x00
            0x005ae9b1      .byte 0x00
            0x005ae9b2      .byte 0x00
            0x005ae9b3      .byte 0x00
            0x005ae9b4      .byte 0x00
            0x005ae9b5      .byte 0x00
            0x005ae9b6      .byte 0x00
            0x005ae9b7      .byte 0x00
            0x005ae9b8      .byte 0x00
            0x005ae9b9      .byte 0x00
            0x005ae9ba      .byte 0x00
            0x005ae9bb      .byte 0x00
            0x005ae9bc      .byte 0x38
            0x005ae9bd      .byte 0x00
            0x005ae9be      .byte 0x00
            0x005ae9bf      .byte 0x00
            0x005ae9c0      .byte 0x00
            0x005ae9c1      .byte 0x00
            0x005ae9c2      .byte 0x00
            0x005ae9c3      .byte 0x00
            0x005ae9c4      .byte 0x00
            0x005ae9c5      .byte 0x00
            0x005ae9c6      .byte 0x00
            0x005ae9c7      .byte 0x00
            0x005ae9c8      .byte 0x00
            0x005ae9c9      .byte 0x00
            0x005ae9ca      .byte 0x00
            0x005ae9cb      .byte 0x00
            0x005ae9cc      .byte 0x00
            0x005ae9cd      .byte 0x00
            0x005ae9ce      .byte 0x00
            0x005ae9cf      .byte 0x00
            0x005ae9d0     .string "#E: (dk_get_type) unknown extension (E: (dk_get_extension) unknown file type " ; len=77
            0x005aea1d      .byte 0x14
            0x005aea1e     .string "DFS2-type for name <" ; len=20
            0x005aea32      .byte 0x1c
            0x005aea33     .string "E: (dfs2_type) unknown name " ; len=28
            0x005aea4f      .byte 0x14
            0x005aea50     .string "DFS2-type returning " ; len=20
            0x005aea64      .byte 0x15
            0x005aea65     .string "DFS2-f-name for type " ; len=21
            0x005aea7a      .byte 0x19
            0x005aea7b     .string "(DFS2) Unknown file type " ; len=25
            0x005aea94      .byte 0x0e
            0x005aea95     .string "UNKNOWN.DPB   " ; len=14
            0x005aeaa3      .byte 0x17
            0x005aeaa4     .string "DFS2-f-name returning <" ; len=23
            0x005aeabb      .byte 0x17
            0x005aeabc     .string "DFS2-n-type for number " ; len=23
            0x005aead3      .byte 0x26
            0x005aead4     .string "(dfs_n_type) File with unknown number " ; len=38
            0x005aeafa      .byte 0x16
            0x005aeafb     .string "DFS2-n-type returning " ; len=22
            0x005aeb11      .byte 0x14
            0x005aeb12     .string "DFS2-f-num for type " ; len=20
            0x005aeb26      .byte 0x19
            0x005aeb27     .string "(DFS2) Unknown file type " ; len=25
            0x005aeb40      .byte 0x14
            0x005aeb41     .string "DFS2f-num returning " ; len=20
            0x005aeb55      .byte 0x12
            0x005aeb56     .string "Invalid file type " ; len=18
            0x005aeb68      .byte 0x12
            0x005aeb69     .string "Unknown file type " ; len=18
            0x005aeb7b      .byte 0x0e
            0x005aeb7c     .string "*DPB *INVALID " ; len=14
            0x005aeb8a      .byte 0x12
            0x005aeb8b     .string "Unknown file type " ; len=18
            0x005aeb9d      .byte 0x1f
            0x005aeb9e     .string "E: (k2_get_ktype) unknown type " ; len=31
            0x005aebbd      .byte 0x21
            0x005aebbe     .string "E: (k2_get_stype) unknown k type " ; len=33
            0x005aebdf      .byte 0x24
            0x005aebe0     .string "E: (k2_get_type_str) unknown k type " ; len=36
            0x005aec04      .byte 0x07
            0x005aec05     .string "invalid" ; len=7
            0x005aec0c      .byte 0x07
            0x005aec0d     .string "Unknown" ; len=7
            0x005aec14      .byte 0x24
            0x005aec15     .string "E: (k2_get_type_str) unknown k type " ; len=36
            0x005aec39      .byte 0x0d
            0x005aec3a     .string "Unknown type " ; len=13
            0x005aec47      .byte 0x0e
            0x005aec48     .string "k2_cll_ktype <" ; len=14
            0x005aec56      .byte 0x07
            0x005aec57     .string "upper <" ; len=7
            0x005aec5e      .byte 0x01
            0x005aec5f      .byte 0x2a
            0x005aec60      .byte 0x01
            0x005aec61      .byte 0x2a
            0x005aec62      .byte 0x01
            0x005aec63      .byte 0x20
            0x005aec64      .byte 0x0d
            0x005aec65     .string "stars added <" ; len=13
            0x005aec72      .byte 0x0a
            0x005aec73     .string "returning " ; len=10
            0x005aec7d      .byte 0x1f
            0x005aec7e     .string "E: (k2_cll_ktype) unknown type " ; len=31
            0x005aec9d      .byte 0x21
            0x005aec9e     .string "E: (k3_ftype_str) unknown k type " ; len=33
            0x005aecbf      .byte 0x02
            0x005aecc0      .byte 0x3f
            0x005aecc1      .byte 0x28
            0x005aecc2      .byte 0x01
            0x005aecc3      .byte 0x29
            ; XREFS: CALL 0x005aed2a  CALL 0x005aed86  CALL 0x005aedc6  
            ; XREFS: CALL 0x005aeece  CALL 0x005af110  CALL 0x005af334  
            ; XREFS: CALL 0x005af4a0  CALL 0x005af57a  CALL 0x005af5fa  
            ; XREFS: CALL 0x005af69a  CALL 0x005af7e4  CALL 0x005af85c  
            ; XREFS: CALL 0x005af90a  CALL 0x005afcfe  
 166: K2_TYPES.get_type_data ();
           0x005aecc4      4e56ffca       link.w a6, 0xffca
           0x005aecc8      bfd5           cmpa.l (a5), a7
       < 0x005aecca      6206           bhi.b 0x5aecd2
          0x005aeccc      44fc0002       move.w 0x2, ccr
          0x005aecd0      4e76           trapv
       > 0x005aecd2      defc0030       adda.w 0x30, a7
           0x005aecd6      48e7fbc0       movem.l d0-d4/d6-d7/a0-a1, -(a7)
           0x005aecda      7248           moveq 0x48, d1
           0x005aecdc      7401           moveq 0x1, d2
           0x005aecde      7e00           moveq 0x0, d7
           0x005aece0      7c00           moveq 0x0, d6
       > 0x005aece2      0c8700000049   cmpi.l 0x49, d7
      < 0x005aece8      6c2e           bge.b 0x5aed18
         0x005aecea      4a06           tst.b d6
     < 0x005aecec      662a           bne.b 0x5aed18
        0x005aecee      5287           addq.l 0x1, d7
        0x005aecf0      7c00           moveq 0x0, d6
        0x005aecf2      2007           move.l d7, d0
        0x005aecf4      5380           subq.l 0x1, d0
        0x005aecf6      b081           cmp.l d1, d0
    < 0x005aecf8      6302           bls.b 0x5aecfc
       0x005aecfa      4e4f           trap 0xf
    > 0x005aecfc      2800           move.l d0, d4
        0x005aecfe      7660           moveq 0x60, d3
        0x005aed00      4eb900406a74   jsr fcn.00406a74
        0x005aed06      41fae0d4       lea.l 0x5acddc(pc), a0
        0x005aed0a      10304800       move.b (a0, d4.l), d0
        0x005aed0e      b02e000c       cmp.b 0xc(a6), d0
    < 0x005aed12      6602           bne.b 0x5aed16
       0x005aed14      5206           addq.b 0x1, d6
    < 0x005aed16      60ca           bra.b 0x5aece2
     > 0x005aed18      1d46000e       move.b d6, 0xe(a6)
           0x005aed1c      4a06           tst.b d6
       < 0x005aed1e      661a           bne.b 0x5aed3a
          0x005aed20      554f           subq.w 0x2, a7
          0x005aed22      1f02           move.b d2, -(a7)
          0x005aed24      206e0008       movea.l 0x8(a6), a0
          0x005aed28      4850           pea.l (a0)
          0x005aed2a      4ebaff98       jsr K2_TYPES.get_type_data(pc)
          0x005aed2e      5c4f           addq.w 0x6, a7
          0x005aed30      101f           move.b (a7)+, d0
          0x005aed32      4880           ext.w d0
          0x005aed34      4182           chk.w d2, d0
          0x005aed36      1c00           move.b d0, d6
      < 0x005aed38      6028           bra.b 0x5aed62
      > 0x005aed3a      206e0008       movea.l 0x8(a6), a0
          0x005aed3e      2007           move.l d7, d0
          0x005aed40      5380           subq.l 0x1, d0
          0x005aed42      b081           cmp.l d1, d0
      < 0x005aed44      6302           bls.b 0x5aed48
         0x005aed46      4e4f           trap 0xf
      > 0x005aed48      2800           move.l d0, d4
          0x005aed4a      7660           moveq 0x60, d3
          0x005aed4c      4eb900406a74   jsr fcn.00406a74
          0x005aed52      43fae088       lea.l 0x5acddc(pc), a1
          0x005aed56      43f14800       lea.l (a1, d4.l), a1
          0x005aed5a      705e           moveq 0x5e, d0
      > 0x005aed5c      10d9           move.b (a1)+, (a0)+
      < 0x005aed5e      51c8fffc       dbra d0, 0x5aed5c
      > 0x005aed62      4cdf03df       movem.l (a7)+, d0-d4/d6-d7/a0-a1
           0x005aed66      4e5e           unlk a6
           0x005aed68      4e75           rts
            ; CALL XREF from AFS_FILER.afs_get_file_si @ 0x5c3fa4
 56: K2_TYPES.k2_is_video ();
           ; var int32_t var_31h @ a6-0x31
           0x005aed6a      4e56ff94       link.w a6, 0xff94
           0x005aed6e      bfd5           cmpa.l (a5), a7
       < 0x005aed70      6206           bhi.b 0x5aed78
          0x005aed72      44fc0002       move.w 0x2, ccr
          0x005aed76      4e76           trapv
       > 0x005aed78      defc000c       adda.w 0xc, a7
           0x005aed7c      554f           subq.w 0x2, a7
           0x005aed7e      1f2e0008       move.b 0x8(a6), -(a7)
           0x005aed82      486effa0       pea.l -0x60(a6)
           0x005aed86      4ebaff3c       jsr K2_TYPES.get_type_data(pc)
           0x005aed8a      5c4f           addq.w 0x6, a7
           0x005aed8c      4a1f           tst.b (a7)+
       < 0x005aed8e      6708           beq.b 0x5aed98
          0x005aed90      1d6effcf000a   move.b -0x31(a6), 0xa(a6)
      < 0x005aed96      6006           bra.b 0x5aed9e
      > 0x005aed98      1d7c0003000a   move.b 0x3, 0xa(a6)
      > 0x005aed9e      4e5e           unlk a6
           0x005aeda0      4e75           rts
            ; CALL XREF from K2_TYPES.k2_afs_extn @ 0x5aee2a
            ; CALL XREF from AFS_FILER.afs_create_file @ 0x5c023e
            ; CALL XREF from AFS_FILER.afs_linear_sear @ 0x5c0786
            ; CALL XREF from AFS_FILER.afs_name @ 0x5c4488
            ; CALL XREF from AFS2_LIB.filer_extn @ 0x5c8bce
 180: K2_TYPES.k2_afs_extn ();
           ; var int32_t var_8h @ a7+0x8
           0x005aeda2      4e56fe88       link.w a6, 0xfe88
           0x005aeda6      bfd5           cmpa.l (a5), a7
       < 0x005aeda8      6206           bhi.b 0x5aedb0
          0x005aedaa      44fc0002       move.w 0x2, ccr
          0x005aedae      4e76           trapv
       > 0x005aedb0      defc0118       adda.w 0x118, a7
           0x005aedb4      48e78080       movem.l d0/a0, -(a7)
           0x005aedb8      41ee000a       lea.l 0xa(a6), a0
           0x005aedbc      554f           subq.w 0x2, a7
           0x005aedbe      1f2e0008       move.b 0x8(a6), -(a7)
           0x005aedc2      486effa0       pea.l -0x60(a6)
           0x005aedc6      4ebafefc       jsr K2_TYPES.get_type_data(pc)
           0x005aedca      5c4f           addq.w 0x6, a7
           0x005aedcc      4a1f           tst.b (a7)+
       < 0x005aedce      6712           beq.b 0x5aede2
          0x005aedd0      202effd0       move.l -0x30(a6), d0
          0x005aedd4      0c800000ffff   cmpi.l 0xffff, d0
      < 0x005aedda      6302           bls.b 0x5aedde
         0x005aeddc      4e4f           trap 0xf
      > 0x005aedde      3080           move.w d0, (a0)
      < 0x005aede0      6050           bra.b 0x5aee32
      > 0x005aede2      9efc0100       suba.w 0x100, a7
          0x005aede6      1f2e0008       move.b 0x8(a6), -(a7)
          0x005aedea      4eb9005afcd0   jsr K2_TYPES.k3_ftype_str
          0x005aedf0      544f           addq.w 0x2, a7
          0x005aedf2      487afb49       pea.l 0x5ae93d(pc)
          0x005aedf6      48780023       pea.l 0x23
          0x005aedfa      2f17           move.l (a7), -(a7)
          0x005aedfc      4eb9004047ea   jsr p_wts_o
          0x005aee02      defc000c       adda.w 0xc, a7
          0x005aee06      486f0001       pea.l 0x1(a7)
          0x005aee0a      42a7           clr.l -(a7)
          0x005aee0c      1f6f00080003   move.b 0x8(a7), 0x3(a7)
          0x005aee12      2f17           move.l (a7), -(a7)
          0x005aee14      4eb9004047ea   jsr p_wts_o
          0x005aee1a      defc010c       adda.w 0x10c, a7
          0x005aee1e      4eb900404946   jsr p_wtln_o
          0x005aee24      554f           subq.w 0x2, a7
          0x005aee26      1f3c0001       move.b 0x1, -(a7)
          0x005aee2a      4ebaff76       jsr K2_TYPES.k2_afs_extn(pc)
          0x005aee2e      544f           addq.w 0x2, a7
          0x005aee30      309f           move.w (a7)+, (a0)
      > 0x005aee32      202effd0       move.l -0x30(a6), d0
           0x005aee36      0c8000000c83   cmpi.l 0xc83, d0
       < 0x005aee3c      6610           bne.b 0x5aee4e
          0x005aee3e      554f           subq.w 0x2, a7
          0x005aee40      4eb900478a3a   jsr CONFIGCOM.tvsys
          0x005aee46      4a1f           tst.b (a7)+
      < 0x005aee48      6604           bne.b 0x5aee4e
         0x005aee4a      30bc0c84       move.w 0xc84, (a0)
      > 0x005aee4e      4cdf0101       movem.l (a7)+, d0/a0
           0x005aee52      4e5e           unlk a6
           0x005aee54      4e75           rts
 46: K2_TYPES.k2_afs_search_t ();
           0x005aee56      4e56fff8       link.w a6, 0xfff8
           0x005aee5a      bfd5           cmpa.l (a5), a7
       < 0x005aee5c      6206           bhi.b 0x5aee64
          0x005aee5e      44fc0002       move.w 0x2, ccr
          0x005aee62      4e76           trapv
       > 0x005aee64      defc0008       adda.w 0x8, a7
           0x005aee68      48e70080       movem.l a0, -(a7)
           0x005aee6c      206e000c       movea.l 0xc(a6), a0
           0x005aee70      30bc0127       move.w 0x127, (a0)
           0x005aee74      206e0008       movea.l 0x8(a6), a0
           0x005aee78      30bc0198       move.w 0x198, (a0)
           0x005aee7c      4cdf0100       movem.l (a7)+, a0
           0x005aee80      4e5e           unlk a6
           0x005aee82      4e75           rts
            ; CALL XREF from AFS_FILER.afs_linear_sear @ 0x5c0776
 46: K2_TYPES.k2_afs_any_t_li ();
           0x005aee84      4e56fff8       link.w a6, 0xfff8
           0x005aee88      bfd5           cmpa.l (a5), a7
       < 0x005aee8a      6206           bhi.b 0x5aee92
          0x005aee8c      44fc0002       move.w 0x2, ccr
          0x005aee90      4e76           trapv
       > 0x005aee92      defc0008       adda.w 0x8, a7
           0x005aee96      48e70080       movem.l a0, -(a7)
           0x005aee9a      206e000c       movea.l 0xc(a6), a0
           0x005aee9e      30bc0020       move.w 0x20, (a0)
           0x005aeea2      206e0008       movea.l 0x8(a6), a0
           0x005aeea6      30bc03ff       move.w 0x3ff, (a0)
           0x005aeeaa      4cdf0100       movem.l (a7)+, a0
           0x005aeeae      4e5e           unlk a6
           0x005aeeb0      4e75           rts
            ; CALL XREF from AFS_FILER.afs_create_file @ 0x5c01bc
 120: K2_TYPES.k2_afs_allowed ();
           ; var int32_t var_2ch @ a6-0x2c
           ; var int32_t var_8h @ a7+0x8
           0x005aeeb2      4e56fe90       link.w a6, 0xfe90
           0x005aeeb6      bfd5           cmpa.l (a5), a7
       < 0x005aeeb8      6206           bhi.b 0x5aeec0
          0x005aeeba      44fc0002       move.w 0x2, ccr
          0x005aeebe      4e76           trapv
       > 0x005aeec0      defc0110       adda.w 0x110, a7
           0x005aeec4      554f           subq.w 0x2, a7
           0x005aeec6      1f2e0008       move.b 0x8(a6), -(a7)
           0x005aeeca      486effa0       pea.l -0x60(a6)
           0x005aeece      4ebafdf4       jsr K2_TYPES.get_type_data(pc)
           0x005aeed2      5c4f           addq.w 0x6, a7
           0x005aeed4      4a1f           tst.b (a7)+
       < 0x005aeed6      6708           beq.b 0x5aeee0
          0x005aeed8      1d6effd4000a   move.b -0x2c(a6), 0xa(a6)
      < 0x005aeede      6046           bra.b 0x5aef26
      > 0x005aeee0      9efc0100       suba.w 0x100, a7
          0x005aeee4      1f2e0008       move.b 0x8(a6), -(a7)
          0x005aeee8      4eb9005afcd0   jsr K2_TYPES.k3_ftype_str
          0x005aeeee      544f           addq.w 0x2, a7
          0x005aeef0      487afa6f       pea.l 0x5ae961(pc)
          0x005aeef4      48780026       pea.l 0x26
          0x005aeef8      2f17           move.l (a7), -(a7)
          0x005aeefa      4eb9004047ea   jsr p_wts_o
          0x005aef00      defc000c       adda.w 0xc, a7
          0x005aef04      486f0001       pea.l 0x1(a7)
          0x005aef08      42a7           clr.l -(a7)
          0x005aef0a      1f6f00080003   move.b 0x8(a7), 0x3(a7)
          0x005aef10      2f17           move.l (a7), -(a7)
          0x005aef12      4eb9004047ea   jsr p_wts_o
          0x005aef18      defc010c       adda.w 0x10c, a7
          0x005aef1c      4eb900404946   jsr p_wtln_o
          0x005aef22      422e000a       clr.b 0xa(a6)
      > 0x005aef26      4e5e           unlk a6
           0x005aef28      4e75           rts
            ; CALL XREF from AFS_FILER.get_ftype @ 0x5bfe2a
            ; CALL XREF from AFS2_LIB.afs_get_file_in @ 0x5c9876
 224: K2_TYPES.k2_afs_filetype ();
           0x005aef2a      4e56ffc8       link.w a6, 0xffc8
           0x005aef2e      bfd5           cmpa.l (a5), a7
       < 0x005aef30      6206           bhi.b 0x5aef38
          0x005aef32      44fc0002       move.w 0x2, ccr
          0x005aef36      4e76           trapv
       > 0x005aef38      defc0034       adda.w 0x34, a7
           0x005aef3c      48e7fbc0       movem.l d0-d4/d6-d7/a0-a1, -(a7)
           0x005aef40      43ee0008       lea.l 0x8(a6), a1
           0x005aef44      223c0000ffff   move.l 0xffff, d1
           0x005aef4a      7448           moveq 0x48, d2
           0x005aef4c      7e00           moveq 0x0, d7
           0x005aef4e      7c00           moveq 0x0, d6
           0x005aef50      3011           move.w (a1), d0
           0x005aef52      0c400c84       cmpi.w 0xc84, d0
       < 0x005aef56      6610           bne.b 0x5aef68
          0x005aef58      554f           subq.w 0x2, a7
          0x005aef5a      4eb900478a3a   jsr CONFIGCOM.tvsys
          0x005aef60      4a1f           tst.b (a7)+
      < 0x005aef62      6604           bne.b 0x5aef68
         0x005aef64      32bc0c83       move.w 0xc83, (a1)
     > 0x005aef68      0c470049       cmpi.w 0x49, d7
      < 0x005aef6c      643c           bcc.b 0x5aefaa
         0x005aef6e      4a06           tst.b d6
     < 0x005aef70      6638           bne.b 0x5aefaa
        0x005aef72      ce81           and.l d1, d7
        0x005aef74      2007           move.l d7, d0
        0x005aef76      5280           addq.l 0x1, d0
        0x005aef78      b081           cmp.l d1, d0
    < 0x005aef7a      6302           bls.b 0x5aef7e
       0x005aef7c      4e4f           trap 0xf
    > 0x005aef7e      3e00           move.w d0, d7
        0x005aef80      7c00           moveq 0x0, d6
        0x005aef82      ce81           and.l d1, d7
        0x005aef84      2007           move.l d7, d0
        0x005aef86      5380           subq.l 0x1, d0
        0x005aef88      b082           cmp.l d2, d0
    < 0x005aef8a      6302           bls.b 0x5aef8e
       0x005aef8c      4e4f           trap 0xf
    > 0x005aef8e      2800           move.l d0, d4
        0x005aef90      7660           moveq 0x60, d3
        0x005aef92      4eb900406a74   jsr fcn.00406a74
        0x005aef98      41fade42       lea.l 0x5acddc(pc), a0
        0x005aef9c      4280           clr.l d0
        0x005aef9e      3011           move.w (a1), d0
        0x005aefa0      b0b04830       cmp.l 0x30(a0, d4.l), d0
    < 0x005aefa4      6602           bne.b 0x5aefa8
       0x005aefa6      5206           addq.b 0x1, d6
    < 0x005aefa8      60be           bra.b 0x5aef68
      > 0x005aefaa      4a06           tst.b d6
       < 0x005aefac      6722           beq.b 0x5aefd0
          0x005aefae      ce81           and.l d1, d7
          0x005aefb0      2007           move.l d7, d0
          0x005aefb2      5380           subq.l 0x1, d0
          0x005aefb4      b082           cmp.l d2, d0
      < 0x005aefb6      6302           bls.b 0x5aefba
         0x005aefb8      4e4f           trap 0xf
      > 0x005aefba      2800           move.l d0, d4
          0x005aefbc      7660           moveq 0x60, d3
          0x005aefbe      4eb900406a74   jsr fcn.00406a74
          0x005aefc4      41fade16       lea.l 0x5acddc(pc), a0
          0x005aefc8      1d704800000a   move.b (a0, d4.l), 0xa(a6)
      < 0x005aefce      6032           bra.b 0x5af002
      > 0x005aefd0      487af9b6       pea.l 0x5ae988(pc)
          0x005aefd4      48780027       pea.l 0x27
          0x005aefd8      2f17           move.l (a7), -(a7)
          0x005aefda      4eb9004047ea   jsr p_wts_o
          0x005aefe0      defc000c       adda.w 0xc, a7
          0x005aefe4      4280           clr.l d0
          0x005aefe6      3011           move.w (a1), d0
          0x005aefe8      2f00           move.l d0, -(a7)
          0x005aefea      48780000       pea.l 0x0
          0x005aefee      4eb9004070e4   jsr p_wti_o
          0x005aeff4      504f           addq.w 0x8, a7
          0x005aeff6      4eb900404946   jsr p_wtln_o
          0x005aeffc      1d7c0001000a   move.b 0x1, 0xa(a6)
      > 0x005af002      4cdf03df       movem.l (a7)+, d0-d4/d6-d7/a0-a1
           0x005af006      4e5e           unlk a6
           0x005af008      4e75           rts
 230: K2_TYPES.dk_get_type ();
           0x005af00a      4e56ffc2       link.w a6, 0xffc2
           0x005af00e      bfd5           cmpa.l (a5), a7
       < 0x005af010      6206           bhi.b 0x5af018
          0x005af012      44fc0002       move.w 0x2, ccr
          0x005af016      4e76           trapv
       > 0x005af018      defc003a       adda.w 0x3a, a7
           0x005af01c      48e7ffc0       movem.l d0-d7/a0-a1, -(a7)
           0x005af020      43ee000a       lea.l 0xa(a6), a1
           0x005af024      243c0000ffff   move.l 0xffff, d2
           0x005af02a      7a48           moveq 0x48, d5
           0x005af02c      7e00           moveq 0x0, d7
           0x005af02e      7c00           moveq 0x0, d6
       > 0x005af030      0c470049       cmpi.w 0x49, d7
      < 0x005af034      643e           bcc.b 0x5af074
         0x005af036      4a06           tst.b d6
     < 0x005af038      663a           bne.b 0x5af074
        0x005af03a      ce82           and.l d2, d7
        0x005af03c      2007           move.l d7, d0
        0x005af03e      5280           addq.l 0x1, d0
        0x005af040      b082           cmp.l d2, d0
    < 0x005af042      6302           bls.b 0x5af046
       0x005af044      4e4f           trap 0xf
    > 0x005af046      3e00           move.w d0, d7
        0x005af048      7c00           moveq 0x0, d6
        0x005af04a      ce82           and.l d2, d7
        0x005af04c      2007           move.l d7, d0
        0x005af04e      5380           subq.l 0x1, d0
        0x005af050      b085           cmp.l d5, d0
    < 0x005af052      6302           bls.b 0x5af056
       0x005af054      4e4f           trap 0xf
    > 0x005af056      2800           move.l d0, d4
        0x005af058      7660           moveq 0x60, d3
        0x005af05a      4eb900406a74   jsr fcn.00406a74
        0x005af060      41fadd7a       lea.l 0x5acddc(pc), a0
        0x005af064      302e0008       move.w 0x8(a6), d0
        0x005af068      48c0           ext.l d0
        0x005af06a      b0b04836       cmp.l 0x36(a0, d4.l), d0
    < 0x005af06e      6602           bne.b 0x5af072
       0x005af070      5206           addq.b 0x1, d6
    < 0x005af072      60bc           bra.b 0x5af030
     > 0x005af074      302e0008       move.w 0x8(a6), d0
           0x005af078      41faf936       lea.l 0x5ae9b0(pc), a0
           0x005af07c      3200           move.w d0, d1
           0x005af07e      e649           lsr.w 0x3, d1
           0x005af080      0c410020       cmpi.w 0x20, d1
       < 0x005af084      6d04           blt.b 0x5af08a
          0x005af086      7200           moveq 0x0, d1
      < 0x005af088      6004           bra.b 0x5af08e
      > 0x005af08a      01301000       btst.l d0, (a0, d1.w)
      < 0x005af08e      6706           beq.b 0x5af096
          0x005af090      12bc000d       move.b 0xd, (a1)
      < 0x005af094      6052           bra.b 0x5af0e8
      > 0x005af096      4a06           tst.b d6
      < 0x005af098      6720           beq.b 0x5af0ba
         0x005af09a      ce82           and.l d2, d7
         0x005af09c      2207           move.l d7, d1
         0x005af09e      5381           subq.l 0x1, d1
         0x005af0a0      b285           cmp.l d5, d1
     < 0x005af0a2      6302           bls.b 0x5af0a6
        0x005af0a4      4e4f           trap 0xf
     > 0x005af0a6      2801           move.l d1, d4
         0x005af0a8      7660           moveq 0x60, d3
         0x005af0aa      4eb900406a74   jsr fcn.00406a74
         0x005af0b0      41fadd2a       lea.l 0x5acddc(pc), a0
         0x005af0b4      12b04800       move.b (a0, d4.l), (a1)
     < 0x005af0b8      602e           bra.b 0x5af0e8
     > 0x005af0ba      487af915       pea.l 0x5ae9d1(pc)
         0x005af0be      48780023       pea.l 0x23
         0x005af0c2      2f17           move.l (a7), -(a7)
         0x005af0c4      4eb9004047ea   jsr p_wts_o
         0x005af0ca      defc000c       adda.w 0xc, a7
         0x005af0ce      48c0           ext.l d0
         0x005af0d0      2f00           move.l d0, -(a7)
         0x005af0d2      48780000       pea.l 0x0
         0x005af0d6      4eb9004070e4   jsr p_wti_o
         0x005af0dc      504f           addq.w 0x8, a7
         0x005af0de      4eb900404946   jsr p_wtln_o
         0x005af0e4      12bc0001       move.b 0x1, (a1)
     > 0x005af0e8      4cdf03ff       movem.l (a7)+, d0-d7/a0-a1
           0x005af0ec      4e5e           unlk a6
           0x005af0ee      4e75           rts
 154: K2_TYPES.dk_get_extensio ();
           ; var int32_t var_8h @ a7+0x8
           0x005af0f0      4e56fe8c       link.w a6, 0xfe8c
           0x005af0f4      bfd5           cmpa.l (a5), a7
       < 0x005af0f6      6206           bhi.b 0x5af0fe
          0x005af0f8      44fc0002       move.w 0x2, ccr
          0x005af0fc      4e76           trapv
       > 0x005af0fe      defc0114       adda.w 0x114, a7
           0x005af102      48e78000       movem.l d0, -(a7)
           0x005af106      554f           subq.w 0x2, a7
           0x005af108      1f2e0008       move.b 0x8(a6), -(a7)
           0x005af10c      486effa0       pea.l -0x60(a6)
           0x005af110      4ebafbb2       jsr K2_TYPES.get_type_data(pc)
           0x005af114      5c4f           addq.w 0x6, a7
           0x005af116      4a1f           tst.b (a7)+
       < 0x005af118      6720           beq.b 0x5af13a
          0x005af11a      202effd6       move.l -0x2a(a6), d0
          0x005af11e      0480ffff8000   subi.l 0xffff8000, d0
          0x005af124      0c800000ffff   cmpi.l 0xffff, d0
      < 0x005af12a      6302           bls.b 0x5af12e
         0x005af12c      4e4f           trap 0xf
      > 0x005af12e      0680ffff8000   addi.l 0xffff8000, d0
          0x005af134      3d40000a       move.w d0, 0xa(a6)
      < 0x005af138      6048           bra.b 0x5af182
      > 0x005af13a      9efc0100       suba.w 0x100, a7
          0x005af13e      1f2e0008       move.b 0x8(a6), -(a7)
          0x005af142      4eb9005afcd0   jsr K2_TYPES.k3_ftype_str
          0x005af148      544f           addq.w 0x2, a7
          0x005af14a      487af8a9       pea.l 0x5ae9f5(pc)
          0x005af14e      48780028       pea.l 0x28
          0x005af152      2f17           move.l (a7), -(a7)
          0x005af154      4eb9004047ea   jsr p_wts_o
          0x005af15a      defc000c       adda.w 0xc, a7
          0x005af15e      486f0001       pea.l 0x1(a7)
          0x005af162      42a7           clr.l -(a7)
          0x005af164      1f6f00080003   move.b 0x8(a7), 0x3(a7)
          0x005af16a      2f17           move.l (a7), -(a7)
          0x005af16c      4eb9004047ea   jsr p_wts_o
          0x005af172      defc010c       adda.w 0x10c, a7
          0x005af176      4eb900404946   jsr p_wtln_o
          0x005af17c      3d7c0023000a   move.w 0x23, 0xa(a6)
      > 0x005af182      4cdf0001       movem.l (a7)+, d0
           0x005af186      4e5e           unlk a6
           0x005af188      4e75           rts
 50: K2_TYPES.dk_extn_limits ();
           0x005af18a      4e56fff8       link.w a6, 0xfff8
           0x005af18e      bfd5           cmpa.l (a5), a7
       < 0x005af190      6206           bhi.b 0x5af198
          0x005af192      44fc0002       move.w 0x2, ccr
          0x005af196      4e76           trapv
       > 0x005af198      defc0008       adda.w 0x8, a7
           0x005af19c      48e70080       movem.l a0, -(a7)
           0x005af1a0      206e000c       movea.l 0xc(a6), a0
           0x005af1a4      20bc00000021   move.l 0x21, (a0)
           0x005af1aa      206e0008       movea.l 0x8(a6), a0
           0x005af1ae      20bc0000002c   move.l 0x2c, (a0)
           0x005af1b4      4cdf0100       movem.l (a7)+, a0
           0x005af1b8      4e5e           unlk a6
           0x005af1ba      4e75           rts
 340: K2_TYPES.dfs2_type (int32_t arg_ch, int32_t arg_10h, int32_t arg_14h);
           ; arg int32_t arg_ch @ a6+0xc
           ; arg int32_t arg_10h @ a6+0x10
           ; arg int32_t arg_14h @ a6+0x14
           0x005af1bc      4e56ff7e       link.w a6, 0xff7e
           0x005af1c0      bfd5           cmpa.l (a5), a7
       < 0x005af1c2      6206           bhi.b 0x5af1ca
          0x005af1c4      44fc0002       move.w 0x2, ccr
          0x005af1c8      4e76           trapv
       > 0x005af1ca      defc005c       adda.w 0x5c, a7
           0x005af1ce      48e7fff0       movem.l d0-d7/a0-a3, -(a7)
           0x005af1d2      45fadc08       lea.l 0x5acddc(pc), a2
           0x005af1d6      47ee0008       lea.l 0x8(a6), a3
           0x005af1da      243c0000ffff   move.l 0xffff, d2
           0x005af1e0      7a48           moveq 0x48, d5
           0x005af1e2      7e00           moveq 0x0, d7
           0x005af1e4      7c00           moveq 0x0, d6
       > 0x005af1e6      0c470049       cmpi.w 0x49, d7
      < 0x005af1ea      640000c2       bcc.w 0x5af2ae
         0x005af1ee      4a06           tst.b d6
     < 0x005af1f0      660000bc       bne.w 0x5af2ae
        0x005af1f4      ce82           and.l d2, d7
        0x005af1f6      2007           move.l d7, d0
        0x005af1f8      5280           addq.l 0x1, d0
        0x005af1fa      b082           cmp.l d2, d0
    < 0x005af1fc      6302           bls.b 0x5af200
       0x005af1fe      4e4f           trap 0xf
    > 0x005af200      3e00           move.w d0, d7
        0x005af202      ce82           and.l d2, d7
        0x005af204      2007           move.l d7, d0
        0x005af206      5380           subq.l 0x1, d0
        0x005af208      b085           cmp.l d5, d0
    < 0x005af20a      6302           bls.b 0x5af20e
       0x005af20c      4e4f           trap 0xf
    > 0x005af20e      2800           move.l d0, d4
        0x005af210      7660           moveq 0x60, d3
        0x005af212      4eb900406a74   jsr fcn.00406a74
        0x005af218      204a           movea.l a2, a0
        0x005af21a      10304800       move.b (a0, d4.l), d0
        0x005af21e      0c000023       cmpi.b 0x23, d0
    < 0x005af222      6670           bne.b 0x5af294
       0x005af224      204a           movea.l a2, a0
       0x005af226      43eeffec       lea.l -0x14(a6), a1
       0x005af22a      41f0483a       lea.l 0x3a(a0, d4.l), a0
       0x005af22e      700d           moveq 0xd, d0
   > 0x005af230      12d8           move.b (a0)+, (a1)+
   < 0x005af232      51c8fffc       dbra d0, 0x5af230
       0x005af236      3d7c8000fffa   move.w 0x8000, -0x6(a6)
       0x005af23c      2d53ffdc       move.l (a3), -0x24(a6)
       0x005af240      2d6e000cffe0   move.l 0xc(a6), -0x20(a6)
       0x005af246      2d6e0010ffe4   move.l 0x10(a6), -0x1c(a6)
       0x005af24c      3d6e0014ffe8   move.w 0x14(a6), -0x18(a6)
       0x005af252      3d7c8000ffea   move.w 0x8000, -0x16(a6)
       0x005af258      554f           subq.w 0x2, a7
       0x005af25a      2f2effe8       move.l -0x18(a6), -(a7)
       0x005af25e      2f2effe4       move.l -0x1c(a6), -(a7)
       0x005af262      2f2effe0       move.l -0x20(a6), -(a7)
       0x005af266      2f2effdc       move.l -0x24(a6), -(a7)
       0x005af26a      2f2efff8       move.l -0x8(a6), -(a7)
       0x005af26e      2f2efff4       move.l -0xc(a6), -(a7)
       0x005af272      2f2efff0       move.l -0x10(a6), -(a7)
       0x005af276      2f2effec       move.l -0x14(a6), -(a7)
       0x005af27a      1f3c0001       move.b 0x1, -(a7)
       0x005af27e      4eb9005acb6e   jsr K4_AFS_ONLY.name_matches
       0x005af284      defc0022       adda.w 0x22, a7
       0x005af288      101f           move.b (a7)+, d0
       0x005af28a      4880           ext.w d0
       0x005af28c      41bc0001       chk.w 0x1, d0
       0x005af290      1c00           move.b d0, d6
   < 0x005af292      6016           bra.b 0x5af2aa
   > 0x005af294      7c00           moveq 0x0, d6
       0x005af296      204a           movea.l a2, a0
       0x005af298      224b           movea.l a3, a1
       0x005af29a      41f0483a       lea.l 0x3a(a0, d4.l), a0
       0x005af29e      700d           moveq 0xd, d0
   > 0x005af2a0      b109           cmpm.b (a1)+, (a0)+
   < 0x005af2a2      56c8fffc       dbne d0, 0x5af2a0
   < 0x005af2a6      6602           bne.b 0x5af2aa
      0x005af2a8      5206           addq.b 0x1, d6
   < 0x005af2aa      6000ff3a       bra.w 0x5af1e6
     > 0x005af2ae      4a06           tst.b d6
       < 0x005af2b0      671e           beq.b 0x5af2d0
          0x005af2b2      ce82           and.l d2, d7
          0x005af2b4      2007           move.l d7, d0
          0x005af2b6      5380           subq.l 0x1, d0
          0x005af2b8      b085           cmp.l d5, d0
      < 0x005af2ba      6302           bls.b 0x5af2be
         0x005af2bc      4e4f           trap 0xf
      > 0x005af2be      2800           move.l d0, d4
          0x005af2c0      7660           moveq 0x60, d3
          0x005af2c2      4eb900406a74   jsr fcn.00406a74
          0x005af2c8      204a           movea.l a2, a0
          0x005af2ca      1c304800       move.b (a0, d4.l), d6
      < 0x005af2ce      602e           bra.b 0x5af2fe
      > 0x005af2d0      487af761       pea.l 0x5aea33(pc)
          0x005af2d4      4878001c       pea.l 0x1c
          0x005af2d8      2f17           move.l (a7), -(a7)
          0x005af2da      4eb9004047ea   jsr p_wts_o
          0x005af2e0      defc000c       adda.w 0xc, a7
          0x005af2e4      4853           pea.l (a3)
          0x005af2e6      4878000e       pea.l 0xe
          0x005af2ea      2f17           move.l (a7), -(a7)
          0x005af2ec      4eb9004047ea   jsr p_wts_o
          0x005af2f2      defc000c       adda.w 0xc, a7
          0x005af2f6      4eb900404946   jsr p_wtln_o
          0x005af2fc      7c01           moveq 0x1, d6
      > 0x005af2fe      4886           ext.w d6
           0x005af300      4dbc0056       chk.w 0x56, d6
           0x005af304      1d460016       move.b d6, 0x16(a6)
           0x005af308      4cdf0fff       movem.l (a7)+, d0-d7/a0-a3
           0x005af30c      4e5e           unlk a6
           0x005af30e      4e75           rts
 164: K2_TYPES.dfs2_f_name ();
           ; var int32_t var_8h @ a7+0x8
           0x005af310      4e56fe72       link.w a6, 0xfe72
           0x005af314      bfd5           cmpa.l (a5), a7
       < 0x005af316      6206           bhi.b 0x5af31e
          0x005af318      44fc0002       move.w 0x2, ccr
          0x005af31c      4e76           trapv
       > 0x005af31e      defc0120       adda.w 0x120, a7
           0x005af322      48e780e0       movem.l d0/a0-a2, -(a7)
           0x005af326      45eefff1       lea.l -0xf(a6), a2
           0x005af32a      554f           subq.w 0x2, a7
           0x005af32c      1f2e0008       move.b 0x8(a6), -(a7)
           0x005af330      486eff92       pea.l -0x6e(a6)
           0x005af334      4ebaf98e       jsr K2_TYPES.get_type_data(pc)
           0x005af338      5c4f           addq.w 0x6, a7
           0x005af33a      4a1f           tst.b (a7)+
       < 0x005af33c      6710           beq.b 0x5af34e
          0x005af33e      204a           movea.l a2, a0
          0x005af340      43eeffcc       lea.l -0x34(a6), a1
          0x005af344      700d           moveq 0xd, d0
      > 0x005af346      10d9           move.b (a1)+, (a0)+
      < 0x005af348      51c8fffc       dbra d0, 0x5af346
      < 0x005af34c      6050           bra.b 0x5af39e
      > 0x005af34e      9efc0100       suba.w 0x100, a7
          0x005af352      1f2e0008       move.b 0x8(a6), -(a7)
          0x005af356      4eb9005afcd0   jsr K2_TYPES.k3_ftype_str
          0x005af35c      544f           addq.w 0x2, a7
          0x005af35e      487af71b       pea.l 0x5aea7b(pc)
          0x005af362      48780019       pea.l 0x19
          0x005af366      2f17           move.l (a7), -(a7)
          0x005af368      4eb9004047ea   jsr p_wts_o
          0x005af36e      defc000c       adda.w 0xc, a7
          0x005af372      486f0001       pea.l 0x1(a7)
          0x005af376      42a7           clr.l -(a7)
          0x005af378      1f6f00080003   move.b 0x8(a7), 0x3(a7)
          0x005af37e      2f17           move.l (a7), -(a7)
          0x005af380      4eb9004047ea   jsr p_wts_o
          0x005af386      defc010c       adda.w 0x10c, a7
          0x005af38a      4eb900404946   jsr p_wtln_o
          0x005af390      204a           movea.l a2, a0
          0x005af392      43faf701       lea.l 0x5aea95(pc), a1
          0x005af396      700d           moveq 0xd, d0
      > 0x005af398      10d9           move.b (a1)+, (a0)+
      < 0x005af39a      51c8fffc       dbra d0, 0x5af398
      > 0x005af39e      41ee000a       lea.l 0xa(a6), a0
           0x005af3a2      224a           movea.l a2, a1
           0x005af3a4      700d           moveq 0xd, d0
       > 0x005af3a6      10d9           move.b (a1)+, (a0)+
       < 0x005af3a8      51c8fffc       dbra d0, 0x5af3a6
           0x005af3ac      4cdf0701       movem.l (a7)+, d0/a0-a2
           0x005af3b0      4e5e           unlk a6
           0x005af3b2      4e75           rts
 204: K2_TYPES.dfs2_n_type ();
           0x005af3b4      4e56ffca       link.w a6, 0xffca
           0x005af3b8      bfd5           cmpa.l (a5), a7
       < 0x005af3ba      6206           bhi.b 0x5af3c2
          0x005af3bc      44fc0002       move.w 0x2, ccr
          0x005af3c0      4e76           trapv
       > 0x005af3c2      defc0030       adda.w 0x30, a7
           0x005af3c6      48e7fb80       movem.l d0-d4/d6-d7/a0, -(a7)
           0x005af3ca      223c0000ffff   move.l 0xffff, d1
           0x005af3d0      7448           moveq 0x48, d2
           0x005af3d2      7e00           moveq 0x0, d7
           0x005af3d4      7c00           moveq 0x0, d6
       > 0x005af3d6      0c470049       cmpi.w 0x49, d7
      < 0x005af3da      643e           bcc.b 0x5af41a
         0x005af3dc      4a06           tst.b d6
     < 0x005af3de      663a           bne.b 0x5af41a
        0x005af3e0      ce81           and.l d1, d7
        0x005af3e2      2007           move.l d7, d0
        0x005af3e4      5280           addq.l 0x1, d0
        0x005af3e6      b081           cmp.l d1, d0
    < 0x005af3e8      6302           bls.b 0x5af3ec
       0x005af3ea      4e4f           trap 0xf
    > 0x005af3ec      3e00           move.w d0, d7
        0x005af3ee      7c00           moveq 0x0, d6
        0x005af3f0      ce81           and.l d1, d7
        0x005af3f2      2007           move.l d7, d0
        0x005af3f4      5380           subq.l 0x1, d0
        0x005af3f6      b082           cmp.l d2, d0
    < 0x005af3f8      6302           bls.b 0x5af3fc
       0x005af3fa      4e4f           trap 0xf
    > 0x005af3fc      2800           move.l d0, d4
        0x005af3fe      7660           moveq 0x60, d3
        0x005af400      4eb900406a74   jsr fcn.00406a74
        0x005af406      41fad9d4       lea.l 0x5acddc(pc), a0
        0x005af40a      4280           clr.l d0
        0x005af40c      302e0008       move.w 0x8(a6), d0
        0x005af410      b0b04848       cmp.l 0x48(a0, d4.l), d0
    < 0x005af414      6602           bne.b 0x5af418
       0x005af416      5206           addq.b 0x1, d6
    < 0x005af418      60bc           bra.b 0x5af3d6
     > 0x005af41a      4a06           tst.b d6
       < 0x005af41c      6720           beq.b 0x5af43e
          0x005af41e      ce81           and.l d1, d7
          0x005af420      2007           move.l d7, d0
          0x005af422      5380           subq.l 0x1, d0
          0x005af424      b082           cmp.l d2, d0
      < 0x005af426      6302           bls.b 0x5af42a
         0x005af428      4e4f           trap 0xf
      > 0x005af42a      2800           move.l d0, d4
          0x005af42c      7660           moveq 0x60, d3
          0x005af42e      4eb900406a74   jsr fcn.00406a74
          0x005af434      41fad9a6       lea.l 0x5acddc(pc), a0
          0x005af438      1c304800       move.b (a0, d4.l), d6
      < 0x005af43c      6030           bra.b 0x5af46e
      > 0x005af43e      487af694       pea.l 0x5aead4(pc)
          0x005af442      48780026       pea.l 0x26
          0x005af446      2f17           move.l (a7), -(a7)
          0x005af448      4eb9004047ea   jsr p_wts_o
          0x005af44e      defc000c       adda.w 0xc, a7
          0x005af452      4280           clr.l d0
          0x005af454      302e0008       move.w 0x8(a6), d0
          0x005af458      2f00           move.l d0, -(a7)
          0x005af45a      48780000       pea.l 0x0
          0x005af45e      4eb9004070e4   jsr p_wti_o
          0x005af464      504f           addq.w 0x8, a7
          0x005af466      4eb900404946   jsr p_wtln_o
          0x005af46c      7c01           moveq 0x1, d6
      > 0x005af46e      4886           ext.w d6
           0x005af470      4dbc0056       chk.w 0x56, d6
           0x005af474      1d46000a       move.b d6, 0xa(a6)
           0x005af478      4cdf01df       movem.l (a7)+, d0-d4/d6-d7/a0
           0x005af47c      4e5e           unlk a6
           0x005af47e      4e75           rts
 142: K2_TYPES.dfs2_f_num ();
           ; var int32_t var_8h @ a7+0x8
           0x005af480      4e56fe86       link.w a6, 0xfe86
           0x005af484      bfd5           cmpa.l (a5), a7
       < 0x005af486      6206           bhi.b 0x5af48e
          0x005af488      44fc0002       move.w 0x2, ccr
          0x005af48c      4e76           trapv
       > 0x005af48e      defc0118       adda.w 0x118, a7
           0x005af492      48e78100       movem.l d0/d7, -(a7)
           0x005af496      554f           subq.w 0x2, a7
           0x005af498      1f2e0008       move.b 0x8(a6), -(a7)
           0x005af49c      486eff9e       pea.l -0x62(a6)
           0x005af4a0      4ebaf822       jsr K2_TYPES.get_type_data(pc)
           0x005af4a4      5c4f           addq.w 0x6, a7
           0x005af4a6      4a1f           tst.b (a7)+
       < 0x005af4a8      6712           beq.b 0x5af4bc
          0x005af4aa      202effe6       move.l -0x1a(a6), d0
          0x005af4ae      0c800000ffff   cmpi.l 0xffff, d0
      < 0x005af4b4      6302           bls.b 0x5af4b8
         0x005af4b6      4e4f           trap 0xf
      > 0x005af4b8      3e00           move.w d0, d7
      < 0x005af4ba      6046           bra.b 0x5af502
      > 0x005af4bc      9efc0100       suba.w 0x100, a7
          0x005af4c0      1f2e0008       move.b 0x8(a6), -(a7)
          0x005af4c4      4eb9005afcd0   jsr K2_TYPES.k3_ftype_str
          0x005af4ca      544f           addq.w 0x2, a7
          0x005af4cc      487af659       pea.l 0x5aeb27(pc)
          0x005af4d0      48780019       pea.l 0x19
          0x005af4d4      2f17           move.l (a7), -(a7)
          0x005af4d6      4eb9004047ea   jsr p_wts_o
          0x005af4dc      defc000c       adda.w 0xc, a7
          0x005af4e0      486f0001       pea.l 0x1(a7)
          0x005af4e4      42a7           clr.l -(a7)
          0x005af4e6      1f6f00080003   move.b 0x8(a7), 0x3(a7)
          0x005af4ec      2f17           move.l (a7), -(a7)
          0x005af4ee      4eb9004047ea   jsr p_wts_o
          0x005af4f4      defc010c       adda.w 0x10c, a7
          0x005af4f8      4eb900404946   jsr p_wtln_o
          0x005af4fe      3e3c00ff       move.w 0xff, d7
      > 0x005af502      3d47000a       move.w d7, 0xa(a6)
           0x005af506      4cdf0081       movem.l (a7)+, d0/d7
           0x005af50a      4e5e           unlk a6
           0x005af50c      4e75           rts
 28: K2_TYPES.dfs2_max_file_n ();
           0x005af50e      4e56fffc       link.w a6, 0xfffc
           0x005af512      bfd5           cmpa.l (a5), a7
       < 0x005af514      6206           bhi.b 0x5af51c
          0x005af516      44fc0002       move.w 0x2, ccr
          0x005af51a      4e76           trapv
       > 0x005af51c      defc0004       adda.w 0x4, a7
           0x005af520      3d7c00220008   move.w 0x22, 0x8(a6)
           0x005af526      4e5e           unlk a6
           0x005af528      4e75           rts
 22: K2_TYPES.dfs2_init ();
           0x005af52a      4e56fffc       link.w a6, 0xfffc
           0x005af52e      bfd5           cmpa.l (a5), a7
       < 0x005af530      6206           bhi.b 0x5af538
          0x005af532      44fc0002       move.w 0x2, ccr
          0x005af536      4e76           trapv
       > 0x005af538      defc0004       adda.w 0x4, a7
           0x005af53c      4e5e           unlk a6
           0x005af53e      4e75           rts
 150: K2_TYPES.cll2_get_code ();
           ; var int32_t var_8h @ a7+0x8
           0x005af540      4e56fe7c       link.w a6, 0xfe7c
           0x005af544      bfd5           cmpa.l (a5), a7
       < 0x005af546      6206           bhi.b 0x5af54e
          0x005af548      44fc0002       move.w 0x2, ccr
          0x005af54c      4e76           trapv
       > 0x005af54e      defc0122       adda.w 0x122, a7
           0x005af552      48e7c180       movem.l d0-d1/d7/a0, -(a7)
           0x005af556      720c           moveq 0xc, d1
           0x005af558      102e000c       move.b 0xc(a6), d0
           0x005af55c      b001           cmp.b d1, d0
       < 0x005af55e      660a           bne.b 0x5af56a
          0x005af560      206e0008       movea.l 0x8(a6), a0
          0x005af564      10bc0044       move.b 0x44, (a0)
      < 0x005af568      6008           bra.b 0x5af572
      > 0x005af56a      206e0008       movea.l 0x8(a6), a0
          0x005af56e      10bc0050       move.b 0x50, (a0)
      > 0x005af572      554f           subq.w 0x2, a7
           0x005af574      1f00           move.b d0, -(a7)
           0x005af576      486effa0       pea.l -0x60(a6)
           0x005af57a      4ebaf748       jsr K2_TYPES.get_type_data(pc)
           0x005af57e      5c4f           addq.w 0x6, a7
           0x005af580      4a1f           tst.b (a7)+
       < 0x005af582      6706           beq.b 0x5af58a
          0x005af584      1e2effec       move.b -0x14(a6), d7
      < 0x005af588      6040           bra.b 0x5af5ca
      > 0x005af58a      9efc0100       suba.w 0x100, a7
          0x005af58e      1f00           move.b d0, -(a7)
          0x005af590      4eb9005afcd0   jsr K2_TYPES.k3_ftype_str
          0x005af596      544f           addq.w 0x2, a7
          0x005af598      487af5bc       pea.l 0x5aeb56(pc)
          0x005af59c      48780012       pea.l 0x12
          0x005af5a0      2f17           move.l (a7), -(a7)
          0x005af5a2      4eb9004047ea   jsr p_wts_o
          0x005af5a8      dec1           adda.w d1, a7
          0x005af5aa      486f0001       pea.l 0x1(a7)
          0x005af5ae      42a7           clr.l -(a7)
          0x005af5b0      1f6f00080003   move.b 0x8(a7), 0x3(a7)
          0x005af5b6      2f17           move.l (a7), -(a7)
          0x005af5b8      4eb9004047ea   jsr p_wts_o
          0x005af5be      defc010c       adda.w 0x10c, a7
          0x005af5c2      4eb900404946   jsr p_wtln_o
          0x005af5c8      7e20           moveq 0x20, d7
      > 0x005af5ca      1d47000e       move.b d7, 0xe(a6)
           0x005af5ce      4cdf0183       movem.l (a7)+, d0-d1/d7/a0
           0x005af5d2      4e5e           unlk a6
           0x005af5d4      4e75           rts
 164: K2_TYPES.cll2_get_name ();
           ; var int32_t var_8h @ a7+0x8
           0x005af5d6      4e56fd80       link.w a6, 0xfd80
           0x005af5da      bfd5           cmpa.l (a5), a7
       < 0x005af5dc      6206           bhi.b 0x5af5e4
          0x005af5de      44fc0002       move.w 0x2, ccr
          0x005af5e2      4e76           trapv
       > 0x005af5e4      defc0120       adda.w 0x120, a7
           0x005af5e8      48e780e0       movem.l d0/a0-a2, -(a7)
           0x005af5ec      45eefea0       lea.l -0x160(a6), a2
           0x005af5f0      554f           subq.w 0x2, a7
           0x005af5f2      1f2e0008       move.b 0x8(a6), -(a7)
           0x005af5f6      486effa0       pea.l -0x60(a6)
           0x005af5fa      4ebaf6c8       jsr K2_TYPES.get_type_data(pc)
           0x005af5fe      5c4f           addq.w 0x6, a7
           0x005af600      4a1f           tst.b (a7)+
       < 0x005af602      6710           beq.b 0x5af614
          0x005af604      204a           movea.l a2, a0
          0x005af606      43eeffed       lea.l -0x13(a6), a1
          0x005af60a      7010           moveq 0x10, d0
      > 0x005af60c      10d9           move.b (a1)+, (a0)+
      < 0x005af60e      51c8fffc       dbra d0, 0x5af60c
      < 0x005af612      6050           bra.b 0x5af664
      > 0x005af614      9efc0100       suba.w 0x100, a7
          0x005af618      1f2e0008       move.b 0x8(a6), -(a7)
          0x005af61c      4eb9005afcd0   jsr K2_TYPES.k3_ftype_str
          0x005af622      544f           addq.w 0x2, a7
          0x005af624      487af543       pea.l 0x5aeb69(pc)
          0x005af628      48780012       pea.l 0x12
          0x005af62c      2f17           move.l (a7), -(a7)
          0x005af62e      4eb9004047ea   jsr p_wts_o
          0x005af634      defc000c       adda.w 0xc, a7
          0x005af638      486f0001       pea.l 0x1(a7)
          0x005af63c      42a7           clr.l -(a7)
          0x005af63e      1f6f00080003   move.b 0x8(a7), 0x3(a7)
          0x005af644      2f17           move.l (a7), -(a7)
          0x005af646      4eb9004047ea   jsr p_wts_o
          0x005af64c      defc010c       adda.w 0x10c, a7
          0x005af650      4eb900404946   jsr p_wtln_o
          0x005af656      204a           movea.l a2, a0
          0x005af658      43faf521       lea.l 0x5aeb7b(pc), a1
          0x005af65c      700e           moveq 0xe, d0
      > 0x005af65e      10d9           move.b (a1)+, (a0)+
      < 0x005af660      51c8fffc       dbra d0, 0x5af65e
      > 0x005af664      41ee000a       lea.l 0xa(a6), a0
           0x005af668      224a           movea.l a2, a1
           0x005af66a      703f           moveq 0x3f, d0
       > 0x005af66c      20d9           move.l (a1)+, (a0)+
       < 0x005af66e      51c8fffc       dbra d0, 0x5af66c
           0x005af672      4cdf0701       movem.l (a7)+, d0/a0-a2
           0x005af676      4e5e           unlk a6
           0x005af678      4e75           rts
 134: K2_TYPES.cll2_available ();
           ; var int32_t var_8h @ a7+0x8
           0x005af67a      4e56fe8a       link.w a6, 0xfe8a
           0x005af67e      bfd5           cmpa.l (a5), a7
       < 0x005af680      6206           bhi.b 0x5af688
          0x005af682      44fc0002       move.w 0x2, ccr
          0x005af686      4e76           trapv
       > 0x005af688      defc0114       adda.w 0x114, a7
           0x005af68c      48e70100       movem.l d7, -(a7)
           0x005af690      554f           subq.w 0x2, a7
           0x005af692      1f2e0008       move.b 0x8(a6), -(a7)
           0x005af696      486effa0       pea.l -0x60(a6)
           0x005af69a      4ebaf628       jsr K2_TYPES.get_type_data(pc)
           0x005af69e      5c4f           addq.w 0x6, a7
           0x005af6a0      4a1f           tst.b (a7)+
       < 0x005af6a2      6706           beq.b 0x5af6aa
          0x005af6a4      1e2efffe       move.b -0x2(a6), d7
      < 0x005af6a8      6044           bra.b 0x5af6ee
      > 0x005af6aa      9efc0100       suba.w 0x100, a7
          0x005af6ae      1f2e0008       move.b 0x8(a6), -(a7)
          0x005af6b2      4eb9005afcd0   jsr K2_TYPES.k3_ftype_str
          0x005af6b8      544f           addq.w 0x2, a7
          0x005af6ba      487af4cf       pea.l 0x5aeb8b(pc)
          0x005af6be      48780012       pea.l 0x12
          0x005af6c2      2f17           move.l (a7), -(a7)
          0x005af6c4      4eb9004047ea   jsr p_wts_o
          0x005af6ca      defc000c       adda.w 0xc, a7
          0x005af6ce      486f0001       pea.l 0x1(a7)
          0x005af6d2      42a7           clr.l -(a7)
          0x005af6d4      1f6f00080003   move.b 0x8(a7), 0x3(a7)
          0x005af6da      2f17           move.l (a7), -(a7)
          0x005af6dc      4eb9004047ea   jsr p_wts_o
          0x005af6e2      defc010c       adda.w 0x10c, a7
          0x005af6e6      4eb900404946   jsr p_wtln_o
          0x005af6ec      7e00           moveq 0x0, d7
      > 0x005af6ee      4887           ext.w d7
           0x005af6f0      4fbc0001       chk.w 0x1, d7
           0x005af6f4      1d47000a       move.b d7, 0xa(a6)
           0x005af6f8      4cdf0080       movem.l (a7)+, d7
           0x005af6fc      4e5e           unlk a6
           0x005af6fe      4e75           rts
            ; XREFS: CALL 0x005c8bbc  CALL 0x006451ec  CALL 0x00653a2c  
            ; XREFS: CALL 0x0065c340  CALL 0x00663698  CALL 0x0066886e  
            ; XREFS: CALL 0x0074e8ea  CALL 0x0074eb18  CALL 0x00753426  
            ; XREFS: CALL 0x007535a6  CALL 0x00753640  CALL 0x007536de  
            ; XREFS: CALL 0x0075396e  
 200: K2_TYPES.k2_get_ktype ();
           0x005af700      4e56ffcc       link.w a6, 0xffcc
           0x005af704      bfd5           cmpa.l (a5), a7
       < 0x005af706      6206           bhi.b 0x5af70e
          0x005af708      44fc0002       move.w 0x2, ccr
          0x005af70c      4e76           trapv
       > 0x005af70e      defc0030       adda.w 0x30, a7
           0x005af712      48e7fb80       movem.l d0-d4/d6-d7/a0, -(a7)
           0x005af716      223c0000ffff   move.l 0xffff, d1
           0x005af71c      7448           moveq 0x48, d2
           0x005af71e      7e00           moveq 0x0, d7
           0x005af720      7c00           moveq 0x0, d6
       > 0x005af722      0c470049       cmpi.w 0x49, d7
      < 0x005af726      643c           bcc.b 0x5af764
         0x005af728      4a06           tst.b d6
     < 0x005af72a      6638           bne.b 0x5af764
        0x005af72c      ce81           and.l d1, d7
        0x005af72e      2007           move.l d7, d0
        0x005af730      5280           addq.l 0x1, d0
        0x005af732      b081           cmp.l d1, d0
    < 0x005af734      6302           bls.b 0x5af738
       0x005af736      4e4f           trap 0xf
    > 0x005af738      3e00           move.w d0, d7
        0x005af73a      7c00           moveq 0x0, d6
        0x005af73c      ce81           and.l d1, d7
        0x005af73e      2007           move.l d7, d0
        0x005af740      5380           subq.l 0x1, d0
        0x005af742      b082           cmp.l d2, d0
    < 0x005af744      6302           bls.b 0x5af748
       0x005af746      4e4f           trap 0xf
    > 0x005af748      2800           move.l d0, d4
        0x005af74a      7660           moveq 0x60, d3
        0x005af74c      4eb900406a74   jsr fcn.00406a74
        0x005af752      41fad688       lea.l 0x5acddc(pc), a0
        0x005af756      10304801       move.b 0x1(a0, d4.l), d0
        0x005af75a      b02e0008       cmp.b 0x8(a6), d0
    < 0x005af75e      6602           bne.b 0x5af762
       0x005af760      5206           addq.b 0x1, d6
    < 0x005af762      60be           bra.b 0x5af722
     > 0x005af764      4a06           tst.b d6
       < 0x005af766      6722           beq.b 0x5af78a
          0x005af768      ce81           and.l d1, d7
          0x005af76a      2007           move.l d7, d0
          0x005af76c      5380           subq.l 0x1, d0
          0x005af76e      b082           cmp.l d2, d0
      < 0x005af770      6302           bls.b 0x5af774
         0x005af772      4e4f           trap 0xf
      > 0x005af774      2800           move.l d0, d4
          0x005af776      7660           moveq 0x60, d3
          0x005af778      4eb900406a74   jsr fcn.00406a74
          0x005af77e      41fad65c       lea.l 0x5acddc(pc), a0
          0x005af782      1d704800000a   move.b (a0, d4.l), 0xa(a6)
      < 0x005af788      6036           bra.b 0x5af7c0
      > 0x005af78a      487af412       pea.l 0x5aeb9e(pc)
          0x005af78e      4878001f       pea.l 0x1f
          0x005af792      2f17           move.l (a7), -(a7)
          0x005af794      4eb9004047ea   jsr p_wts_o
          0x005af79a      defc000c       adda.w 0xc, a7
          0x005af79e      102e0008       move.b 0x8(a6), d0
          0x005af7a2      4880           ext.w d0
          0x005af7a4      48c0           ext.l d0
          0x005af7a6      2f00           move.l d0, -(a7)
          0x005af7a8      48780000       pea.l 0x0
          0x005af7ac      4eb9004070e4   jsr p_wti_o
          0x005af7b2      504f           addq.w 0x8, a7
          0x005af7b4      4eb900404946   jsr p_wtln_o
          0x005af7ba      1d7c0001000a   move.b 0x1, 0xa(a6)
      > 0x005af7c0      4cdf01df       movem.l (a7)+, d0-d4/d6-d7/a0
           0x005af7c4      4e5e           unlk a6
           0x005af7c6      4e75           rts
            ; CALL XREF from AFS2_LIB.afs_get_file_in @ 0x5c9888
 120: K2_TYPES.k2_get_stype ();
           ; var int32_t var_5fh @ a6-0x5f
           ; var int32_t var_8h @ a7+0x8
           0x005af7c8      4e56fe90       link.w a6, 0xfe90
           0x005af7cc      bfd5           cmpa.l (a5), a7
       < 0x005af7ce      6206           bhi.b 0x5af7d6
          0x005af7d0      44fc0002       move.w 0x2, ccr
          0x005af7d4      4e76           trapv
       > 0x005af7d6      defc0110       adda.w 0x110, a7
           0x005af7da      554f           subq.w 0x2, a7
           0x005af7dc      1f2e0008       move.b 0x8(a6), -(a7)
           0x005af7e0      486effa0       pea.l -0x60(a6)
           0x005af7e4      4ebaf4de       jsr K2_TYPES.get_type_data(pc)
           0x005af7e8      5c4f           addq.w 0x6, a7
           0x005af7ea      4a1f           tst.b (a7)+
       < 0x005af7ec      6708           beq.b 0x5af7f6
          0x005af7ee      1d6effa1000a   move.b -0x5f(a6), 0xa(a6)
      < 0x005af7f4      6046           bra.b 0x5af83c
      > 0x005af7f6      9efc0100       suba.w 0x100, a7
          0x005af7fa      1f2e0008       move.b 0x8(a6), -(a7)
          0x005af7fe      4eb9005afcd0   jsr K2_TYPES.k3_ftype_str
          0x005af804      544f           addq.w 0x2, a7
          0x005af806      487af3b6       pea.l 0x5aebbe(pc)
          0x005af80a      48780021       pea.l 0x21
          0x005af80e      2f17           move.l (a7), -(a7)
          0x005af810      4eb9004047ea   jsr p_wts_o
          0x005af816      defc000c       adda.w 0xc, a7
          0x005af81a      486f0001       pea.l 0x1(a7)
          0x005af81e      42a7           clr.l -(a7)
          0x005af820      1f6f00080003   move.b 0x8(a7), 0x3(a7)
          0x005af826      2f17           move.l (a7), -(a7)
          0x005af828      4eb9004047ea   jsr p_wts_o
          0x005af82e      defc010c       adda.w 0x10c, a7
          0x005af832      4eb900404946   jsr p_wtln_o
          0x005af838      422e000a       clr.b 0xa(a6)
      > 0x005af83c      4e5e           unlk a6
           0x005af83e      4e75           rts
            ; XREFS: CALL 0x0074e8fc  CALL 0x0074eb2a  CALL 0x00753438  
            ; XREFS: CALL 0x007535b6  CALL 0x00753650  CALL 0x007536ee  
            ; XREFS: CALL 0x00753980  
 152: K2_TYPES.k2_get_type_str ();
           ; var int32_t var_cc8h @ a6-0xcc8
           ; var int32_t var_cc6h @ a6-0xcc6
           ; var int32_t var_5eh @ a6-0x5e
           ; var int32_t var_5ah @ a6-0x5a
           ; var int32_t var_56h @ a6-0x56
           ; var int32_t var_52h @ a6-0x52
           ; var int32_t var_50h @ a6-0x50
           ; var int32_t var_8h @ a7+0x8
           0x005af840      4e56fe90       link.w a6, 0xfe90
           0x005af844      bfd5           cmpa.l (a5), a7
       < 0x005af846      6206           bhi.b 0x5af84e
          0x005af848      44fc0002       move.w 0x2, ccr
          0x005af84c      4e76           trapv
       > 0x005af84e      defc0110       adda.w 0x110, a7
           0x005af852      554f           subq.w 0x2, a7
           0x005af854      1f2e0008       move.b 0x8(a6), -(a7)
           0x005af858      486effa0       pea.l -0x60(a6)
           0x005af85c      4ebaf466       jsr K2_TYPES.get_type_data(pc)
           0x005af860      5c4f           addq.w 0x6, a7
           0x005af862      4a1f           tst.b (a7)+
       < 0x005af864      6720           beq.b 0x5af886
          0x005af866      2d6effa2000a   move.l -0x5e(a6), 0xa(a6)
          0x005af86c      2d6effa6000e   move.l -0x5a(a6), 0xe(a6)
          0x005af872      2d6effaa0012   move.l -0x56(a6), 0x12(a6)
          0x005af878      3d6effae0016   move.w -0x52(a6), 0x16(a6)
          0x005af87e      1d6effb00018   move.b -0x50(a6), 0x18(a6)
      < 0x005af884      604e           bra.b 0x5af8d4
      > 0x005af886      9efc0100       suba.w 0x100, a7
          0x005af88a      1f2e0008       move.b 0x8(a6), -(a7)
          0x005af88e      4eb9005afcd0   jsr K2_TYPES.k3_ftype_str
          0x005af894      544f           addq.w 0x2, a7
          0x005af896      487af348       pea.l 0x5aebe0(pc)
          0x005af89a      48780024       pea.l 0x24
          0x005af89e      2f17           move.l (a7), -(a7)
          0x005af8a0      4eb9004047ea   jsr p_wts_o
          0x005af8a6      defc000c       adda.w 0xc, a7
          0x005af8aa      486f0001       pea.l 0x1(a7)
          0x005af8ae      42a7           clr.l -(a7)
          0x005af8b0      1f6f00080003   move.b 0x8(a7), 0x3(a7)
          0x005af8b6      2f17           move.l (a7), -(a7)
          0x005af8b8      4eb9004047ea   jsr p_wts_o
          0x005af8be      defc010c       adda.w 0x10c, a7
          0x005af8c2      4eb900404946   jsr p_wtln_o
          0x005af8c8      2d7af33a000a   move.l 0x5aec04(pc), 0xa(a6)
          0x005af8ce      2d7af338000e   move.l 0x5aec08(pc), 0xe(a6)
      > 0x005af8d4      4e5e           unlk a6
           0x005af8d6      4e75           rts
            ; CALL XREF from K92_DISPLAY.type_list_str @ 0x653a3e
            ; CALL XREF from K93_PRINTSORT.get_f_type @ 0x65c352
            ; CALL XREF from K98_BROWSE.do_message @ 0x668880
 358: K2_TYPES.k2_get_formal_t ();
           ; var int32_t var_d10h @ a6-0xd10
           ; var int32_t var_13ch @ a6-0x13c
           ; var int32_t var_138h @ a6-0x138
           ; var int32_t var_134h @ a6-0x134
           ; var int32_t var_132h @ a6-0x132
           ; var int32_t var_8h @ a7+0x8
           0x005af8d8      4e56fd68       link.w a6, 0xfd68
           0x005af8dc      bfd5           cmpa.l (a5), a7
       < 0x005af8de      6206           bhi.b 0x5af8e6
          0x005af8e0      44fc0002       move.w 0x2, ccr
          0x005af8e4      4e76           trapv
       > 0x005af8e6      defc0138       adda.w 0x138, a7
           0x005af8ea      48e7f8f8       movem.l d0-d4/a0-a4, -(a7)
           0x005af8ee      45eefeff       lea.l -0x101(a6), a2
           0x005af8f2      47ee000a       lea.l 0xa(a6), a3
           0x005af8f6      49ee0008       lea.l 0x8(a6), a4
           0x005af8fa      343c00ff       move.w 0xff, d2
           0x005af8fe      760d           moveq 0xd, d3
           0x005af900      780c           moveq 0xc, d4
           0x005af902      554f           subq.w 0x2, a7
           0x005af904      1f14           move.b (a4), -(a7)
           0x005af906      486efea0       pea.l -0x160(a6)
           0x005af90a      4ebaf3b8       jsr K2_TYPES.get_type_data(pc)
           0x005af90e      5c4f           addq.w 0x6, a7
           0x005af910      4a1f           tst.b (a7)+
       < 0x005af912      6756           beq.b 0x5af96a
          0x005af914      4a2efea1       tst.b -0x15f(a6)
      < 0x005af918      660e           bne.b 0x5af928
         0x005af91a      26baf2f0       move.l 0x5aec0c(pc), (a3)
         0x005af91e      2d7af2f0000e   move.l 0x5aec10(pc), 0xe(a6)
     < 0x005af924      60000110       bra.w 0x5afa36
     > 0x005af928      554f           subq.w 0x2, a7
         0x005af92a      4eb9004755c2   jsr CONFIG.cfg_gender
         0x005af930      101f           move.b (a7)+, d0
         0x005af932      0c000003       cmpi.b 0x3, d0
     < 0x005af936      6620           bne.b 0x5af958
        0x005af938      26aefec0       move.l -0x140(a6), (a3)
        0x005af93c      2d6efec4000e   move.l -0x13c(a6), 0xe(a6)
        0x005af942      2d6efec80012   move.l -0x138(a6), 0x12(a6)
        0x005af948      3d6efecc0016   move.w -0x134(a6), 0x16(a6)
        0x005af94e      1d6efece0018   move.b -0x132(a6), 0x18(a6)
    < 0x005af954      600000e0       bra.w 0x5afa36
    > 0x005af958      204b           movea.l a3, a0
        0x005af95a      43eefeb1       lea.l -0x14f(a6), a1
        0x005af95e      700e           moveq 0xe, d0
    > 0x005af960      10d9           move.b (a1)+, (a0)+
    < 0x005af962      51c8fffc       dbra d0, 0x5af960
    < 0x005af966      600000ce       bra.w 0x5afa36
    > 0x005af96a      9efc0100       suba.w 0x100, a7
        0x005af96e      1f14           move.b (a4), -(a7)
        0x005af970      4eb9005afcd0   jsr K2_TYPES.k3_ftype_str
        0x005af976      544f           addq.w 0x2, a7
        0x005af978      487af29b       pea.l 0x5aec15(pc)
        0x005af97c      48780024       pea.l 0x24
        0x005af980      2f17           move.l (a7), -(a7)
        0x005af982      4eb9004047ea   jsr p_wts_o
        0x005af988      dec4           adda.w d4, a7
        0x005af98a      486f0001       pea.l 0x1(a7)
        0x005af98e      42a7           clr.l -(a7)
        0x005af990      1f6f00080003   move.b 0x8(a7), 0x3(a7)
        0x005af996      2f17           move.l (a7), -(a7)
        0x005af998      4eb9004047ea   jsr p_wts_o
        0x005af99e      defc010c       adda.w 0x10c, a7
        0x005af9a2      4eb900404946   jsr p_wtln_o
        0x005af9a8      1014           move.b (a4), d0
        0x005af9aa      4880           ext.w d0
        0x005af9ac      48c0           ext.l d0
        0x005af9ae      2f00           move.l d0, -(a7)
        0x005af9b0      48780000       pea.l 0x0
        0x005af9b4      4852           pea.l (a2)
        0x005af9b6      3f02           move.w d2, -(a7)
        0x005af9b8      4eb900406e56   jsr p_strI1
        0x005af9be      9efc00f2       suba.w 0xf2, a7
        0x005af9c2      700c           moveq 0xc, d0
        0x005af9c4      41ef0001       lea.l 0x1(a7), a0
        0x005af9c8      43faf270       lea.l 0x5aec3a(pc), a1
    > 0x005af9cc      10d9           move.b (a1)+, (a0)+
    < 0x005af9ce      51c8fffc       dbra d0, 0x5af9cc
        0x005af9d2      4240           clr.w d0
        0x005af9d4      1012           move.b (a2), d0
        0x005af9d6      d003           add.b d3, d0
    < 0x005af9d8      6406           bcc.b 0x5af9e0
       0x005af9da      4eb900406c8a   jsr p_strovr
    > 0x005af9e0      4240           clr.w d0
        0x005af9e2      1012           move.b (a2), d0
        0x005af9e4      3202           move.w d2, d1
        0x005af9e6      9243           sub.w d3, d1
        0x005af9e8      b041           cmp.w d1, d0
    < 0x005af9ea      6302           bls.b 0x5af9ee
       0x005af9ec      3001           move.w d1, d0
    > 0x005af9ee      1e83           move.b d3, (a7)
        0x005af9f0      d117           add.b d0, (a7)
        0x005af9f2      5300           subq.b 0x1, d0
    < 0x005af9f4      650a           bcs.b 0x5afa00
       0x005af9f6      43eeff00       lea.l -0x100(a6), a1
   > 0x005af9fa      10d9           move.b (a1)+, (a0)+
   < 0x005af9fc      51c8fffc       dbra d0, 0x5af9fa
    > 0x005afa00      204a           movea.l a2, a0
        0x005afa02      224f           movea.l a7, a1
        0x005afa04      3002           move.w d2, d0
    > 0x005afa06      10d9           move.b (a1)+, (a0)+
    < 0x005afa08      51c8fffc       dbra d0, 0x5afa06
        0x005afa0c      defc0100       adda.w 0x100, a7
        0x005afa10      486eff00       pea.l -0x100(a6)
        0x005afa14      42a7           clr.l -(a7)
        0x005afa16      1f520003       move.b (a2), 0x3(a7)
        0x005afa1a      2f17           move.l (a7), -(a7)
        0x005afa1c      4eb9004047ea   jsr p_wts_o
        0x005afa22      dec4           adda.w d4, a7
        0x005afa24      4eb900404946   jsr p_wtln_o
        0x005afa2a      204b           movea.l a3, a0
        0x005afa2c      224a           movea.l a2, a1
        0x005afa2e      3002           move.w d2, d0
    > 0x005afa30      10d9           move.b (a1)+, (a0)+
    < 0x005afa32      51c8fffc       dbra d0, 0x5afa30
    > 0x005afa36      4cdf1f1f       movem.l (a7)+, d0-d4/a0-a4
           0x005afa3a      4e5e           unlk a6
           0x005afa3c      4e75           rts
 658: K2_TYPES.k2_cll_ktype ();
           0x005afa3e      4e56fcb8       link.w a6, 0xfcb8
           0x005afa42      bfd5           cmpa.l (a5), a7
       < 0x005afa44      6206           bhi.b 0x5afa4c
          0x005afa46      44fc0002       move.w 0x2, ccr
          0x005afa4a      4e76           trapv
       > 0x005afa4c      defc0344       adda.w 0x344, a7
           0x005afa50      48e7fff8       movem.l d0-d7/a0-a4, -(a7)
           0x005afa54      47ee0008       lea.l 0x8(a6), a3
           0x005afa58      49ee0009       lea.l 0x9(a6), a4
           0x005afa5c      2a3c0000ffff   move.l 0xffff, d5
           0x005afa62      4853           pea.l (a3)
           0x005afa64      4eb900408fa8   jsr p_upper
           0x005afa6a      9efc00fc       suba.w 0xfc, a7
           0x005afa6e      7000           moveq 0x0, d0
           0x005afa70      41ef0001       lea.l 0x1(a7), a0
           0x005afa74      43faf1e9       lea.l 0x5aec5f(pc), a1
       > 0x005afa78      10d9           move.b (a1)+, (a0)+
       < 0x005afa7a      51c8fffc       dbra d0, 0x5afa78
           0x005afa7e      4240           clr.w d0
           0x005afa80      1013           move.b (a3), d0
           0x005afa82      5200           addq.b 0x1, d0
       < 0x005afa84      6406           bcc.b 0x5afa8c
          0x005afa86      4eb900406c8a   jsr p_strovr
       > 0x005afa8c      4240           clr.w d0
           0x005afa8e      1013           move.b (a3), d0
           0x005afa90      323c00ff       move.w 0xff, d1
           0x005afa94      5341           subq.w 0x1, d1
           0x005afa96      b041           cmp.w d1, d0
       < 0x005afa98      6302           bls.b 0x5afa9c
          0x005afa9a      3001           move.w d1, d0
       > 0x005afa9c      1ebc0001       move.b 0x1, (a7)
           0x005afaa0      d117           add.b d0, (a7)
           0x005afaa2      5300           subq.b 0x1, d0
       < 0x005afaa4      6508           bcs.b 0x5afaae
          0x005afaa6      224c           movea.l a4, a1
      > 0x005afaa8      10d9           move.b (a1)+, (a0)+
      < 0x005afaaa      51c8fffc       dbra d0, 0x5afaa8
       > 0x005afaae      204b           movea.l a3, a0
           0x005afab0      703f           moveq 0x3f, d0
       > 0x005afab2      20df           move.l (a7)+, (a0)+
       < 0x005afab4      51c8fffc       dbra d0, 0x5afab2
           0x005afab8      7e00           moveq 0x0, d7
       > 0x005afaba      ce85           and.l d5, d7
          0x005afabc      2007           move.l d7, d0
          0x005afabe      5280           addq.l 0x1, d0
          0x005afac0      b085           cmp.l d5, d0
      < 0x005afac2      6302           bls.b 0x5afac6
         0x005afac4      4e4f           trap 0xf
      > 0x005afac6      3e00           move.w d0, d7
          0x005afac8      ce85           and.l d5, d7
          0x005afaca      0c87000000ff   cmpi.l 0xff, d7
      < 0x005afad0      6302           bls.b 0x5afad4
         0x005afad2      4e4f           trap 0xf
      > 0x005afad4      10367808       move.b 0x8(a6, d7.l), d0
          0x005afad8      0c000020       cmpi.b 0x20, d0
      < 0x005afadc      660000fa       bne.w 0x5afbd8
         0x005afae0      9efc0100       suba.w 0x100, a7
         0x005afae4      4853           pea.l (a3)
         0x005afae6      3f3c0001       move.w 0x1, -(a7)
         0x005afaea      0487ffff8000   subi.l 0xffff8000, d7
         0x005afaf0      be85           cmp.l d5, d7
     < 0x005afaf2      6302           bls.b 0x5afaf6
        0x005afaf4      4e4f           trap 0xf
     > 0x005afaf6      0687ffff8000   addi.l 0xffff8000, d7
         0x005afafc      3f07           move.w d7, -(a7)
         0x005afafe      4eb900407036   jsr p_copy
         0x005afb04      9efc00f8       suba.w 0xf8, a7
         0x005afb08      4240           clr.w d0
         0x005afb0a      102f0100       move.b 0x100(a7), d0
         0x005afb0e      3200           move.w d0, d1
         0x005afb10      41ef0001       lea.l 0x1(a7), a0
         0x005afb14      5301           subq.b 0x1, d1
     < 0x005afb16      650a           bcs.b 0x5afb22
        0x005afb18      43ef0101       lea.l 0x101(a7), a1
    > 0x005afb1c      10d9           move.b (a1)+, (a0)+
    < 0x005afb1e      51c9fffc       dbra d1, 0x5afb1c
     > 0x005afb22      7201           moveq 0x1, d1
         0x005afb24      343c00ff       move.w 0xff, d2
         0x005afb28      9440           sub.w d0, d2
         0x005afb2a      b242           cmp.w d2, d1
     < 0x005afb2c      6302           bls.b 0x5afb30
        0x005afb2e      3202           move.w d2, d1
     > 0x005afb30      1e80           move.b d0, (a7)
         0x005afb32      d317           add.b d1, (a7)
         0x005afb34      43faf12b       lea.l 0x5aec61(pc), a1
     > 0x005afb38      10d9           move.b (a1)+, (a0)+
     < 0x005afb3a      51c9fffc       dbra d1, 0x5afb38
         0x005afb3e      2007           move.l d7, d0
         0x005afb40      5280           addq.l 0x1, d0
         0x005afb42      9efc0100       suba.w 0x100, a7
         0x005afb46      4853           pea.l (a3)
         0x005afb48      0480ffff8000   subi.l 0xffff8000, d0
         0x005afb4e      b085           cmp.l d5, d0
     < 0x005afb50      6302           bls.b 0x5afb54
        0x005afb52      4e4f           trap 0xf
     > 0x005afb54      0680ffff8000   addi.l 0xffff8000, d0
         0x005afb5a      3f00           move.w d0, -(a7)
         0x005afb5c      4281           clr.l d1
         0x005afb5e      1213           move.b (a3), d1
         0x005afb60      9287           sub.l d7, d1
         0x005afb62      5281           addq.l 0x1, d1
         0x005afb64      0481ffff8000   subi.l 0xffff8000, d1
         0x005afb6a      b285           cmp.l d5, d1
     < 0x005afb6c      6302           bls.b 0x5afb70
        0x005afb6e      4e4f           trap 0xf
     > 0x005afb70      0681ffff8000   addi.l 0xffff8000, d1
         0x005afb76      3f01           move.w d1, -(a7)
         0x005afb78      4eb900407036   jsr p_copy
         0x005afb7e      504f           addq.w 0x8, a7
         0x005afb80      4241           clr.w d1
         0x005afb82      122f0100       move.b 0x100(a7), d1
         0x005afb86      3401           move.w d1, d2
         0x005afb88      204c           movea.l a4, a0
         0x005afb8a      5302           subq.b 0x1, d2
     < 0x005afb8c      650a           bcs.b 0x5afb98
        0x005afb8e      43ef0101       lea.l 0x101(a7), a1
    > 0x005afb92      10d9           move.b (a1)+, (a0)+
    < 0x005afb94      51cafffc       dbra d2, 0x5afb92
     > 0x005afb98      4242           clr.w d2
         0x005afb9a      1417           move.b (a7), d2
         0x005afb9c      d401           add.b d1, d2
     < 0x005afb9e      6406           bcc.b 0x5afba6
        0x005afba0      4eb900406c8a   jsr p_strovr
     > 0x005afba6      4242           clr.w d2
         0x005afba8      1417           move.b (a7), d2
         0x005afbaa      363c00ff       move.w 0xff, d3
         0x005afbae      9641           sub.w d1, d3
         0x005afbb0      b443           cmp.w d3, d2
     < 0x005afbb2      6302           bls.b 0x5afbb6
        0x005afbb4      3403           move.w d3, d2
     > 0x005afbb6      1681           move.b d1, (a3)
         0x005afbb8      d513           add.b d2, (a3)
         0x005afbba      5302           subq.b 0x1, d2
     < 0x005afbbc      650a           bcs.b 0x5afbc8
        0x005afbbe      43ef0001       lea.l 0x1(a7), a1
    > 0x005afbc2      10d9           move.b (a1)+, (a0)+
    < 0x005afbc4      51cafffc       dbra d2, 0x5afbc2
     > 0x005afbc8      defc0100       adda.w 0x100, a7
         0x005afbcc      b085           cmp.l d5, d0
     < 0x005afbce      6302           bls.b 0x5afbd2
        0x005afbd0      4e4f           trap 0xf
     > 0x005afbd2      defc0200       adda.w 0x200, a7
         0x005afbd6      3e00           move.w d0, d7
      > 0x005afbd8      4280           clr.l d0
          0x005afbda      1013           move.b (a3), d0
          0x005afbdc      be40           cmp.w d0, d7
       < 0x005afbde      6600feda       bne.w 0x5afaba
           0x005afbe2      4240           clr.w d0
           0x005afbe4      1013           move.b (a3), d0
           0x005afbe6      41f60009       lea.l 0x9(a6, d0.w), a0
           0x005afbea      7201           moveq 0x1, d1
           0x005afbec      343c00ff       move.w 0xff, d2
           0x005afbf0      9440           sub.w d0, d2
           0x005afbf2      b242           cmp.w d2, d1
       < 0x005afbf4      6302           bls.b 0x5afbf8
          0x005afbf6      3202           move.w d2, d1
       > 0x005afbf8      d313           add.b d1, (a3)
           0x005afbfa      43faf067       lea.l 0x5aec63(pc), a1
       > 0x005afbfe      10d9           move.b (a1)+, (a0)+
       < 0x005afc00      51c9fffc       dbra d1, 0x5afbfe
           0x005afc04      7e00           moveq 0x0, d7
           0x005afc06      7c00           moveq 0x0, d6
       > 0x005afc08      0c470049       cmpi.w 0x49, d7
      < 0x005afc0c      645c           bcc.b 0x5afc6a
         0x005afc0e      4a06           tst.b d6
     < 0x005afc10      6658           bne.b 0x5afc6a
        0x005afc12      ce85           and.l d5, d7
        0x005afc14      2007           move.l d7, d0
        0x005afc16      5280           addq.l 0x1, d0
        0x005afc18      b085           cmp.l d5, d0
    < 0x005afc1a      6302           bls.b 0x5afc1e
       0x005afc1c      4e4f           trap 0xf
    > 0x005afc1e      3e00           move.w d0, d7
        0x005afc20      7c00           moveq 0x0, d6
        0x005afc22      ce85           and.l d5, d7
        0x005afc24      2007           move.l d7, d0
        0x005afc26      5380           subq.l 0x1, d0
        0x005afc28      0c8000000048   cmpi.l 0x48, d0
    < 0x005afc2e      6302           bls.b 0x5afc32
       0x005afc30      4e4f           trap 0xf
    > 0x005afc32      2800           move.l d0, d4
        0x005afc34      7660           moveq 0x60, d3
        0x005afc36      4eb900406a74   jsr fcn.00406a74
        0x005afc3c      41fad19e       lea.l 0x5acddc(pc), a0
        0x005afc40      4240           clr.w d0
        0x005afc42      1030484d       move.b 0x4d(a0, d4.l), d0
        0x005afc46      b013           cmp.b (a3), d0
    < 0x005afc48      6302           bls.b 0x5afc4c
       0x005afc4a      1013           move.b (a3), d0
    > 0x005afc4c      5300           subq.b 0x1, d0
    < 0x005afc4e      650e           bcs.b 0x5afc5e
       0x005afc50      43f0484e       lea.l 0x4e(a0, d4.l), a1
       0x005afc54      244c           movea.l a4, a2
   > 0x005afc56      b30a           cmpm.b (a2)+, (a1)+
   < 0x005afc58      56c8fffc       dbne d0, 0x5afc56
   < 0x005afc5c      6606           bne.b 0x5afc64
   > 0x005afc5e      1030484d       move.b 0x4d(a0, d4.l), d0
       0x005afc62      b013           cmp.b (a3), d0
   < 0x005afc64      6602           bne.b 0x5afc68
       0x005afc66      5206           addq.b 0x1, d6
    < 0x005afc68      609e           bra.b 0x5afc08
     > 0x005afc6a      4a06           tst.b d6
       < 0x005afc6c      6726           beq.b 0x5afc94
          0x005afc6e      ce85           and.l d5, d7
          0x005afc70      2007           move.l d7, d0
          0x005afc72      5380           subq.l 0x1, d0
          0x005afc74      0c8000000048   cmpi.l 0x48, d0
      < 0x005afc7a      6302           bls.b 0x5afc7e
         0x005afc7c      4e4f           trap 0xf
      > 0x005afc7e      2800           move.l d0, d4
          0x005afc80      7660           moveq 0x60, d3
          0x005afc82      4eb900406a74   jsr fcn.00406a74
          0x005afc88      41fad152       lea.l 0x5acddc(pc), a0
          0x005afc8c      1d7048000108   move.b (a0, d4.l), 0x108(a6)
      < 0x005afc92      6034           bra.b 0x5afcc8
      > 0x005afc94      487aefe8       pea.l 0x5aec7e(pc)
          0x005afc98      4878001f       pea.l 0x1f
          0x005afc9c      2f17           move.l (a7), -(a7)
          0x005afc9e      4eb9004047ea   jsr p_wts_o
          0x005afca4      defc000c       adda.w 0xc, a7
          0x005afca8      4854           pea.l (a4)
          0x005afcaa      42a7           clr.l -(a7)
          0x005afcac      1f530003       move.b (a3), 0x3(a7)
          0x005afcb0      2f17           move.l (a7), -(a7)
          0x005afcb2      4eb9004047ea   jsr p_wts_o
          0x005afcb8      defc000c       adda.w 0xc, a7
          0x005afcbc      4eb900404946   jsr p_wtln_o
          0x005afcc2      1d7c00010108   move.b 0x1, 0x108(a6)
      > 0x005afcc8      4cdf1fff       movem.l (a7)+, d0-d7/a0-a4
           0x005afccc      4e5e           unlk a6
           0x005afcce      4e75           rts
            ; XREFS: CALL 0x005a73ea  CALL 0x005a7d42  CALL 0x005aedea  
            ; XREFS: CALL 0x005aeee8  CALL 0x005af142  CALL 0x005af356  
            ; XREFS: CALL 0x005af4c4  CALL 0x005af590  CALL 0x005af61c  
            ; XREFS: CALL 0x005af6b2  CALL 0x005af7fe  CALL 0x005af88e  
            ; XREFS: CALL 0x005af970  CALL 0x005b0912  CALL 0x005c01ce  
            ; XREFS: CALL 0x0064e6b8  
 298: K2_TYPES.k3_ftype_str ();
           ; var int32_t var_13ch @ a6-0x13c
           ; var int32_t var_138h @ a6-0x138
           ; var int32_t var_134h @ a6-0x134
           ; var int32_t var_132h @ a6-0x132
           0x005afcd0      4e56fe6a       link.w a6, 0xfe6a
           0x005afcd4      bfd5           cmpa.l (a5), a7
       < 0x005afcd6      6206           bhi.b 0x5afcde
          0x005afcd8      44fc0002       move.w 0x2, ccr
          0x005afcdc      4e76           trapv
       > 0x005afcde      defc0036       adda.w 0x36, a7
           0x005afce2      48e7f0f8       movem.l d0-d3/a0-a4, -(a7)
           0x005afce6      45ee000a       lea.l 0xa(a6), a2
           0x005afcea      47ee0008       lea.l 0x8(a6), a3
           0x005afcee      49eefeff       lea.l -0x101(a6), a4
           0x005afcf2      363c00ff       move.w 0xff, d3
           0x005afcf6      554f           subq.w 0x2, a7
           0x005afcf8      1f13           move.b (a3), -(a7)
           0x005afcfa      486efea0       pea.l -0x160(a6)
           0x005afcfe      4ebaefc4       jsr K2_TYPES.get_type_data(pc)
           0x005afd02      5c4f           addq.w 0x6, a7
           0x005afd04      4a1f           tst.b (a7)+
       < 0x005afd06      6742           beq.b 0x5afd4a
          0x005afd08      554f           subq.w 0x2, a7
          0x005afd0a      4eb9004755c2   jsr CONFIG.cfg_gender
          0x005afd10      101f           move.b (a7)+, d0
          0x005afd12      0c000003       cmpi.b 0x3, d0
      < 0x005afd16      6620           bne.b 0x5afd38
         0x005afd18      24aefec0       move.l -0x140(a6), (a2)
         0x005afd1c      2d6efec4000e   move.l -0x13c(a6), 0xe(a6)
         0x005afd22      2d6efec80012   move.l -0x138(a6), 0x12(a6)
         0x005afd28      3d6efecc0016   move.w -0x134(a6), 0x16(a6)
         0x005afd2e      1d6efece0018   move.b -0x132(a6), 0x18(a6)
     < 0x005afd34      600000bc       bra.w 0x5afdf2
     > 0x005afd38      204a           movea.l a2, a0
         0x005afd3a      43eefeb1       lea.l -0x14f(a6), a1
         0x005afd3e      700e           moveq 0xe, d0
     > 0x005afd40      10d9           move.b (a1)+, (a0)+
     < 0x005afd42      51c8fffc       dbra d0, 0x5afd40
     < 0x005afd46      600000aa       bra.w 0x5afdf2
     > 0x005afd4a      487aef52       pea.l 0x5aec9e(pc)
         0x005afd4e      48780021       pea.l 0x21
         0x005afd52      2f17           move.l (a7), -(a7)
         0x005afd54      4eb9004047ea   jsr p_wts_o
         0x005afd5a      defc000c       adda.w 0xc, a7
         0x005afd5e      1013           move.b (a3), d0
         0x005afd60      4880           ext.w d0
         0x005afd62      48c0           ext.l d0
         0x005afd64      2f00           move.l d0, -(a7)
         0x005afd66      48780000       pea.l 0x0
         0x005afd6a      4eb9004070e4   jsr p_wti_o
         0x005afd70      504f           addq.w 0x8, a7
         0x005afd72      4eb900404946   jsr p_wtln_o
         0x005afd78      1013           move.b (a3), d0
         0x005afd7a      4880           ext.w d0
         0x005afd7c      48c0           ext.l d0
         0x005afd7e      2f00           move.l d0, -(a7)
         0x005afd80      48780000       pea.l 0x0
         0x005afd84      4854           pea.l (a4)
         0x005afd86      3f03           move.w d3, -(a7)
         0x005afd88      4eb900406e56   jsr p_strI1
         0x005afd8e      defc000e       adda.w 0xe, a7
         0x005afd92      7001           moveq 0x1, d0
         0x005afd94      41ee000b       lea.l 0xb(a6), a0
         0x005afd98      43faef26       lea.l 0x5aecc0(pc), a1
     > 0x005afd9c      10d9           move.b (a1)+, (a0)+
     < 0x005afd9e      51c8fffc       dbra d0, 0x5afd9c
         0x005afda2      4240           clr.w d0
         0x005afda4      1014           move.b (a4), d0
         0x005afda6      5400           addq.b 0x2, d0
     < 0x005afda8      6406           bcc.b 0x5afdb0
        0x005afdaa      4eb900406c8a   jsr p_strovr
     > 0x005afdb0      4240           clr.w d0
         0x005afdb2      1014           move.b (a4), d0
         0x005afdb4      3203           move.w d3, d1
         0x005afdb6      5541           subq.w 0x2, d1
         0x005afdb8      b041           cmp.w d1, d0
     < 0x005afdba      6302           bls.b 0x5afdbe
        0x005afdbc      3001           move.w d1, d0
     > 0x005afdbe      14bc0002       move.b 0x2, (a2)
         0x005afdc2      d112           add.b d0, (a2)
         0x005afdc4      5300           subq.b 0x1, d0
     < 0x005afdc6      650a           bcs.b 0x5afdd2
        0x005afdc8      43eeff00       lea.l -0x100(a6), a1
    > 0x005afdcc      10d9           move.b (a1)+, (a0)+
    < 0x005afdce      51c8fffc       dbra d0, 0x5afdcc
     > 0x005afdd2      4240           clr.w d0
         0x005afdd4      1012           move.b (a2), d0
         0x005afdd6      41f6000b       lea.l 0xb(a6, d0.w), a0
         0x005afdda      7201           moveq 0x1, d1
         0x005afddc      3403           move.w d3, d2
         0x005afdde      9440           sub.w d0, d2
         0x005afde0      b242           cmp.w d2, d1
     < 0x005afde2      6302           bls.b 0x5afde6
        0x005afde4      3202           move.w d2, d1
     > 0x005afde6      d312           add.b d1, (a2)
         0x005afde8      43faeed9       lea.l 0x5aecc3(pc), a1
     > 0x005afdec      10d9           move.b (a1)+, (a0)+
     < 0x005afdee      51c9fffc       dbra d1, 0x5afdec
     > 0x005afdf2      4cdf1f0f       movem.l (a7)+, d0-d3/a0-a4
           0x005afdf6      4e5e           unlk a6
