            ;-- K91_LIBOPS:
            0x0064c932      .byte 0x00
            0x0064c933      .byte 0x80
            0x0064c934      .byte 0xf5
            0x0064c935      .byte 0x00
            0x0064c936      .byte 0x00
            0x0064c937      .byte 0x00
            0x0064c938      .byte 0x00
            0x0064c939      .byte 0x80
            0x0064c93a      .byte 0xf5
            0x0064c93b      .byte 0x00
            0x0064c93c      .byte 0x00
            0x0064c93d      .byte 0x00
            0x0064c93e      .byte 0x01
            0x0064c93f      .byte 0x80
            0x0064c940      .byte 0xf5
            0x0064c941      .byte 0x00
            0x0064c942      .byte 0x00
            0x0064c943      .byte 0x00
            0x0064c944      .byte 0xff
            0x0064c945      .byte 0xff
            0x0064c946      .byte 0xff
            0x0064c947      .byte 0xff
            0x0064c948      .byte 0xff
            0x0064c949      .byte 0xff
            0x0064c94a      .byte 0xff
            0x0064c94b      .byte 0xff
            0x0064c94c      .byte 0x00
            0x0064c94d      .byte 0x00
            0x0064c94e      .byte 0x00
            0x0064c94f      .byte 0x00
            0x0064c950      .byte 0x00
            0x0064c951      .byte 0x00
            0x0064c952      .byte 0x00
            0x0064c953      .byte 0x00
            0x0064c954      .byte 0x00
            0x0064c955      .byte 0x00
            0x0064c956      .byte 0x07
            0x0064c957     .string "DEFAULT" ; len=7
            0x0064c95e      .byte 0xff
            0x0064c95f      .byte 0xff
            0x0064c960      .byte 0xff
            0x0064c961      .byte 0xfd
            0x0064c962      .byte 0x00
            0x0064c963      .byte 0x00
            0x0064c964      .byte 0x00
            0x0064c965      .byte 0x00
            0x0064c966      .byte 0x00
            0x0064c967      .byte 0x00
            0x0064c968      .byte 0x00
            0x0064c969      .byte 0x00
            0x0064c96a      .byte 0x00
            0x0064c96b      .byte 0x00
            0x0064c96c      .byte 0x00
            0x0064c96d      .byte 0x00
            0x0064c96e      .byte 0x00
            0x0064c96f      .byte 0x00
            0x0064c970      .byte 0x00
            0x0064c971      .byte 0x00
            0x0064c972      .byte 0x00
            0x0064c973      .byte 0x00
            0x0064c974      .byte 0x00
            0x0064c975      .byte 0x00
            0x0064c976      .byte 0x00
            0x0064c977      .byte 0x00
            0x0064c978      .byte 0x3f
            0x0064c979      .byte 0x80
            0x0064c97a      .byte 0x00
            0x0064c97b      .byte 0x00
            0x0064c97c      .byte 0x3f
            0x0064c97d      .byte 0x80
            0x0064c97e      .byte 0x00
            0x0064c97f      .byte 0x00
            0x0064c980      .byte 0x00
            0x0064c981      .byte 0x00
            0x0064c982      .byte 0x00
            0x0064c983      .byte 0x00
            0x0064c984      .byte 0x00
            0x0064c985      .byte 0x00
            0x0064c986      .byte 0x00
            0x0064c987      .byte 0x00
            0x0064c988      .byte 0x00
            0x0064c989      .byte 0x00
            0x0064c98a      .byte 0x00
            0x0064c98b      .byte 0x00
            0x0064c98c      .byte 0x00
            0x0064c98d      .byte 0x00
            0x0064c98e      .byte 0x00
            0x0064c98f      .byte 0x00
            0x0064c990      .byte 0x00
            0x0064c991      .byte 0x00
            0x0064c992      .byte 0x00
            0x0064c993      .byte 0x02
            0x0064c994      .byte 0x00
            0x0064c995      .byte 0x00
            0x0064c996      .byte 0x3f
            0x0064c997      .byte 0x80
            0x0064c998      .byte 0x00
            0x0064c999      .byte 0x00
            0x0064c99a      .byte 0x3f
            0x0064c99b      .byte 0x80
            0x0064c99c      .byte 0x00
            0x0064c99d      .byte 0x00
            0x0064c99e      .byte 0x00
            0x0064c99f      .byte 0x00
            0x0064c9a0      .byte 0x00
            0x0064c9a1      .byte 0x00
            0x0064c9a2      .byte 0x00
            0x0064c9a3      .byte 0x00
            0x0064c9a4      .byte 0x00
            0x0064c9a5      .byte 0x00
            0x0064c9a6      .byte 0x3f
            0x0064c9a7      .byte 0x80
            0x0064c9a8      .byte 0x00
            0x0064c9a9      .byte 0x00
            0x0064c9aa      .byte 0x3f
            0x0064c9ab      .byte 0x80
            0x0064c9ac      .byte 0x00
            0x0064c9ad      .byte 0x00
            0x0064c9ae      .byte 0x00
            0x0064c9af      .byte 0x00
            0x0064c9b0      .byte 0x00
            0x0064c9b1      .byte 0x00
            0x0064c9b2      .byte 0x00
            0x0064c9b3      .byte 0x00
            0x0064c9b4      .byte 0x00
            0x0064c9b5      .byte 0x00
            0x0064c9b6      .byte 0x00
            0x0064c9b7      .byte 0x00
            0x0064c9b8      .byte 0x00
            0x0064c9b9      .byte 0x00
            0x0064c9ba      .byte 0x00
            0x0064c9bb      .byte 0x00
            0x0064c9bc      .byte 0x00
            0x0064c9bd      .byte 0x00
            0x0064c9be      .byte 0x00
            0x0064c9bf      .byte 0x00
            0x0064c9c0      .byte 0x00
            0x0064c9c1      .byte 0x01
            0x0064c9c2      .byte 0x00
            0x0064c9c3      .byte 0x00
            0x0064c9c4      .byte 0x00
            0x0064c9c5      .byte 0x00
            0x0064c9c6      .byte 0x00
            0x0064c9c7      .byte 0x00
            0x0064c9c8      .byte 0x00
            0x0064c9c9      .byte 0x00
            0x0064c9ca      .byte 0x00
            0x0064c9cb      .byte 0x00
            0x0064c9cc      .byte 0x00
            0x0064c9cd      .byte 0x00
            0x0064c9ce      .byte 0x00
            0x0064c9cf      .byte 0x00
            0x0064c9d0      .byte 0x00
            0x0064c9d1      .byte 0x00
            0x0064c9d2      .byte 0x00
            0x0064c9d3      .byte 0x00
            0x0064c9d4      .byte 0x00
            0x0064c9d5      .byte 0x88
            0x0064c9d6      .byte 0x00
            0x0064c9d7      .byte 0x46
            0x0064c9d8      .byte 0x00
            0x0064c9d9      .byte 0xd2
            0x0064c9da      .byte 0x00
            0x0064c9db      .byte 0x51
            0x0064c9dc      .byte 0x00
            0x0064c9dd      .byte 0x80
            0x0064c9de      .byte 0x00
            0x0064c9df      .byte 0x80
            0x0064c9e0      .byte 0x00
            0x0064c9e1      .byte 0x3c
            0x0064c9e2      .byte 0x00
            0x0064c9e3      .byte 0x80
            0x0064c9e4      .byte 0x00
            0x0064c9e5      .byte 0x80
            0x0064c9e6      .byte 0x00
            0x0064c9e7      .byte 0x32
            0x0064c9e8      .byte 0x00
            0x0064c9e9      .byte 0x80
            0x0064c9ea      .byte 0x00
            0x0064c9eb      .byte 0x80
            0x0064c9ec      .byte 0x00
            0x0064c9ed      .byte 0x10
            0x0064c9ee      .byte 0x00
            0x0064c9ef      .byte 0x80
            0x0064c9f0      .byte 0x00
            0x0064c9f1      .byte 0x80
            0x0064c9f2      .byte 0x00
            0x0064c9f3      .byte 0xa7
            0x0064c9f4      .byte 0x00
            0x0064c9f5      .byte 0x72
            0x0064c9f6      .byte 0x00
            0x0064c9f7      .byte 0x9e
            0x0064c9f8      .byte 0x00
            0x0064c9f9      .byte 0xbf
            0x0064c9fa      .byte 0x00
            0x0064c9fb      .byte 0x80
            0x0064c9fc      .byte 0x00
            0x0064c9fd      .byte 0x80
            0x0064c9fe      .byte 0x00
            0x0064c9ff      .byte 0xa0
            0x0064ca00      .byte 0x00
            0x0064ca01      .byte 0x96
            0x0064ca02      .byte 0x00
            0x0064ca03      .byte 0x74
            0x0064ca04      .byte 0x00
            0x0064ca05      .byte 0x23
            0x0064ca06      .byte 0x00
            0x0064ca07      .byte 0xf0
            0x0064ca08      .byte 0x00
            0x0064ca09      .byte 0x6e
            0x0064ca0a      .byte 0x00
            0x0064ca0b      .byte 0x8c
            0x0064ca0c      .byte 0x00
            0x0064ca0d      .byte 0x6e
            0x0064ca0e      .byte 0x00
            0x0064ca0f      .byte 0x6e
            0x0064ca10      .byte 0x00
            0x0064ca11      .byte 0xc4
            0x0064ca12      .byte 0x00
            0x0064ca13      .byte 0x31
            0x0064ca14      .byte 0x00
            0x0064ca15      .byte 0x8c
            0x0064ca16      .byte 0x00
            0x0064ca17      .byte 0xa8
            0x0064ca18      .byte 0x00
            0x0064ca19      .byte 0x28
            0x0064ca1a      .byte 0x00
            0x0064ca1b      .byte 0xb1
            0x0064ca1c      .byte 0x00
            0x0064ca1d      .byte 0x00
            0x0064ca1e      .byte 0x00
            0x0064ca1f      .byte 0x80
            0x0064ca20      .byte 0x00
            0x0064ca21      .byte 0x80
            0x0064ca22      .byte 0x00
            0x0064ca23      .byte 0xff
            0x0064ca24      .byte 0x00
            0x0064ca25      .byte 0x80
            0x0064ca26      .byte 0x00
            0x0064ca27      .byte 0x80
            0x0064ca28      .byte 0x00
            0x0064ca29      .byte 0xcc
            0x0064ca2a      .byte 0x00
            0x0064ca2b      .byte 0x80
            0x0064ca2c      .byte 0x00
            0x0064ca2d      .byte 0x80
            0x0064ca2e      .byte 0x00
            0x0064ca2f      .byte 0xad
            0x0064ca30      .byte 0x00
            0x0064ca31      .byte 0x80
            0x0064ca32      .byte 0x00
            0x0064ca33      .byte 0x80
            0x0064ca34      .byte 0x00
            0x0064ca35      .byte 0xeb
            0x0064ca36      .byte 0x00
            0x0064ca37      .byte 0x80
            0x0064ca38      .byte 0x00
            0x0064ca39      .byte 0x80
            0x0064ca3a      .byte 0x00
            0x0064ca3b      .byte 0x10
            0x0064ca3c      .byte 0x00
            0x0064ca3d      .byte 0x80
            0x0064ca3e      .byte 0x00
            0x0064ca3f      .byte 0x80
            0x0064ca40      .byte 0x00
            0x0064ca41      .byte 0x80
            0x0064ca42      .byte 0x00
            0x0064ca43      .byte 0x80
            0x0064ca44      .byte 0x00
            0x0064ca45      .byte 0x80
            0x0064ca46      .byte 0x00
            0x0064ca47      .byte 0x51
            0x0064ca48      .byte 0x00
            0x0064ca49      .byte 0x5a
            0x0064ca4a      .byte 0x00
            0x0064ca4b      .byte 0xf0
            0x0064ca4c      .byte 0x00
            0x0064ca4d      .byte 0xd2
            0x0064ca4e      .byte 0x00
            0x0064ca4f      .byte 0x10
            0x0064ca50      .byte 0x00
            0x0064ca51      .byte 0x92
            0x0064ca52      .byte 0x00
            0x0064ca53      .byte 0x29
            0x0064ca54      .byte 0x00
            0x0064ca55      .byte 0xf0
            0x0064ca56      .byte 0x00
            0x0064ca57      .byte 0x6e
            0x0064ca58      .byte 0x00
            0x0064ca59      .byte 0x91
            0x0064ca5a      .byte 0x00
            0x0064ca5b      .byte 0x36
            0x0064ca5c      .byte 0x00
            0x0064ca5d      .byte 0x22
            0x0064ca5e      .byte 0x00
            0x0064ca5f      .byte 0xa2
            0x0064ca60      .byte 0x00
            0x0064ca61      .byte 0x2c
            0x0064ca62      .byte 0x00
            0x0064ca63      .byte 0x8e
            0x0064ca64      .byte 0x00
            0x0064ca65      .byte 0x83
            0x0064ca66      .byte 0x00
            0x0064ca67      .byte 0x9c
            0x0064ca68      .byte 0x00
            0x0064ca69      .byte 0x2c
            0x0064ca6a      .byte 0x00
            0x0064ca6b      .byte 0x70
            0x0064ca6c      .byte 0x00
            0x0064ca6d      .byte 0x48
            0x0064ca6e      .byte 0x00
            0x0064ca6f      .byte 0x3a
            0x0064ca70      .byte 0x00
            0x0064ca71      .byte 0x54
            0x0064ca72      .byte 0x00
            0x0064ca73      .byte 0xb8
            0x0064ca74      .byte 0x00
            0x0064ca75      .byte 0xc6
            0x0064ca76      .byte 0x00
            0x0064ca77      .byte 0x41
            0x0064ca78      .byte 0x00
            0x0064ca79      .byte 0x64
            0x0064ca7a      .byte 0x00
            0x0064ca7b      .byte 0xd4
            0x0064ca7c      .byte 0x00
            0x0064ca7d      .byte 0x23
            0x0064ca7e      .byte 0x00
            0x0064ca7f      .byte 0xd4
            0x0064ca80      .byte 0x00
            0x0064ca81      .byte 0x72
            0x0064ca82      .byte 0x00
            0x0064ca83      .byte 0xd2
            0x0064ca84      .byte 0x00
            0x0064ca85      .byte 0x10
            0x0064ca86      .byte 0x00
            0x0064ca87      .byte 0x92
            0x0064ca88      .byte 0x00
            0x0064ca89      .byte 0xaa
            0x0064ca8a      .byte 0x00
            0x0064ca8b      .byte 0xa6
            0x0064ca8c      .byte 0x00
            0x0064ca8d      .byte 0x10
            0x0064ca8e      .byte 0x00
            0x0064ca8f      .byte 0x91
            0x0064ca90      .byte 0x00
            0x0064ca91      .byte 0x36
            0x0064ca92      .byte 0x00
            0x0064ca93      .byte 0x22
            0x0064ca94      .byte 0x00
            0x0064ca95      .byte 0x6a
            0x0064ca96      .byte 0x00
            0x0064ca97      .byte 0xca
            0x0064ca98      .byte 0x00
            0x0064ca99      .byte 0xde
            0x0064ca9a      .byte 0x00
            0x0064ca9b      .byte 0x51
            0x0064ca9c      .byte 0x00
            0x0064ca9d      .byte 0x5a
            0x0064ca9e      .byte 0x00
            0x0064ca9f      .byte 0xf0
            0x0064caa0      .byte 0x00
            0x0064caa1      .byte 0x29
            0x0064caa2      .byte 0x00
            0x0064caa3      .byte 0xf0
            0x0064caa4      .byte 0x00
            0x0064caa5      .byte 0x6e
            0x0064caa6      .byte 0x02
            0x0064caa7      .byte 0xc7
            0x0064caa8      .byte 0x01
            0x0064caa9      .byte 0xe5
            0x0064caaa      .byte 0x03
            0x0064caab      .byte 0x00
            0x0064caac      .byte 0x01
            0x0064caad      .byte 0xe4
            0x0064caae      .byte 0x02
            0x0064caaf      .byte 0xbd
            0x0064cab0      .byte 0x02
            0x0064cab1      .byte 0x3f
            0x0064cab2      .byte 0x02
            0x0064cab3      .byte 0x4f
            0x0064cab4      .byte 0x4b
            0x0064cab5      .byte 0x02
            0x0064cab6      .byte 0x4f
            0x0064cab7      .byte 0x4b
            0x0064cab8      .byte 0x0f
            0x0064cab9     .string "k91-Got result " ; len=15
            0x0064cac8      .byte 0x02
            0x0064cac9      .byte 0x20
            0x0064caca      .byte 0x28
            0x0064cacb      .byte 0x02
            0x0064cacc      .byte 0x41
            0x0064cacd      .byte 0x58
            0x0064cace      .byte 0x02
            0x0064cacf      .byte 0x29
            0x0064cad0      .byte 0x20
            0x0064cad1      .byte 0x02
            0x0064cad2      .byte 0x29
            0x0064cad3      .byte 0x20
            0x0064cad4      .byte 0x15
            0x0064cad5     .string "k91.create_and_copy. " ; len=21
            0x0064caea      .byte 0x07
            0x0064caeb     .string ", Size " ; len=7
            0x0064caf2      .byte 0x02
            0x0064caf3      .byte 0x2c
            0x0064caf4      .byte 0x20
            0x0064caf5      .byte 0x02
            0x0064caf6      .byte 0x2c
            0x0064caf7      .byte 0x20
            0x0064caf8      .byte 0x09
            0x0064caf9     .string " planes, " ; len=9
            0x0064cb02      .byte 0x0e
            0x0064cb03     .string ", extra bytes." ; len=14
            0x0064cb11      .byte 0x08
            0x0064cb12     .string "untitled" ; len=8
            0x0064cb1a      .byte 0x02
            0x0064cb1b      .byte 0x4f
            0x0064cb1c      .byte 0x4b
            0x0064cb1d      .byte 0x00
            0x0064cb1e      .byte 0xff
            0x0064cb1f      .byte 0xff
            0x0064cb20      .byte 0xff
            0x0064cb21      .byte 0xff
            0x0064cb22      .byte 0x00
            0x0064cb23      .byte 0x00
            0x0064cb24      .byte 0x00
            0x0064cb25      .byte 0x00
            0x0064cb26      .byte 0x00
            0x0064cb27      .byte 0x00
            0x0064cb28      .byte 0x02
            0x0064cb29      .byte 0x4e
            0x0064cb2a      .byte 0x44
            0x0064cb2b      .byte 0x12
            0x0064cb2c     .string "Creating copy file" ; len=18
            0x0064cb3e      .byte 0x3f
            0x0064cb3f      .byte 0x80
            0x0064cb40      .byte 0x00
            0x0064cb41      .byte 0x00
            0x0064cb42      .byte 0x3f
            0x0064cb43      .byte 0x80
            0x0064cb44      .byte 0x00
            0x0064cb45      .byte 0x00
            0x0064cb46      .byte 0x02
            0x0064cb47      .byte 0x4f
            0x0064cb48      .byte 0x4b
            0x0064cb49      .byte 0x0b
            0x0064cb4a     .string "got result " ; len=11
            0x0064cb55      .byte 0x19
            0x0064cb56     .string " from k_copy_file copying" ; len=25
            0x0064cb6f      .byte 0x02
            0x0064cb70      .byte 0x4f
            0x0064cb71      .byte 0x4b
            0x0064cb72      .byte 0x04
            0x0064cb73     .string "Got " ; len=4
            0x0064cb77      .byte 0x26
            0x0064cb78     .string " indexing file in k91.create_and_copy." ; len=38
            0x0064cb9e      .byte 0x39
            0x0064cb9f     .string " K91  dest num, no number box specified - set unnumbered " ; len=57
            0x0064cbd8      .byte 0x02
            0x0064cbd9      .byte 0x4f
            0x0064cbda      .byte 0x4b
            0x0064cbdb      .byte 0x06
            0x0064cbdc     .string "error " ; len=6
            0x0064cbe2      .byte 0x1a
            0x0064cbe3     .string " reading current file num " ; len=26
            0x0064cbfd      .byte 0x02
            0x0064cbfe      .byte 0x41
            0x0064cbff      .byte 0x58
            0x0064cc00      .byte 0x1f
            0x0064cc01     .string "K91 calc dest number using box " ; len=31
            0x0064cc20      .byte 0x05
            0x0064cc21     .string " val " ; len=5
            0x0064cc26      .byte 0x08
            0x0064cc27     .string " update " ; len=8
            0x0064cc2f      .byte 0x0f
            0x0064cc30     .string " , current num " ; len=15
            0x0064cc3f      .byte 0x11
            0x0064cc40     .string " dest unnumbered " ; len=17
            0x0064cc51      .byte 0x0a
            0x0064cc52     .string " dest num " ; len=10
            0x0064cc5c      .byte 0x0d
            0x0064cc5d     .string "  update_box " ; len=13
            0x0064cc6a      .byte 0x02
            0x0064cc6b      .byte 0x4f
            0x0064cc6c      .byte 0x4b
            0x0064cc6d      .byte 0x02
            0x0064cc6e      .byte 0x4f
            0x0064cc6f      .byte 0x4b
            0x0064cc70      .byte 0x02
            0x0064cc71      .byte 0x4f
            0x0064cc72      .byte 0x4b
            0x0064cc73      .byte 0x02
            0x0064cc74      .byte 0x4f
            0x0064cc75      .byte 0x4b
            0x0064cc76      .byte 0x00
            0x0064cc77      .byte 0x01
            0x0064cc78      .byte 0x00
            0x0064cc79      .byte 0x00
            0x0064cc7a      .byte 0x00
            0x0064cc7b      .byte 0x00
            0x0064cc7c      .byte 0x00
            0x0064cc7d      .byte 0x00
            0x0064cc7e      .byte 0x00
            0x0064cc7f      .byte 0x00
            0x0064cc80      .byte 0x00
            0x0064cc81      .byte 0x00
            0x0064cc82      .byte 0x00
            0x0064cc83      .byte 0x00
            0x0064cc84      .byte 0x00
            0x0064cc85      .byte 0x00
            0x0064cc86      .byte 0x00
            0x0064cc87      .byte 0x00
            0x0064cc88      .byte 0x00
            0x0064cc89      .byte 0x00
            0x0064cc8a      .byte 0x00
            0x0064cc8b      .byte 0x00
            0x0064cc8c      .byte 0x00
            0x0064cc8d      .byte 0x00
            0x0064cc8e      .byte 0x00
            0x0064cc8f      .byte 0x00
            0x0064cc90      .byte 0x00
            0x0064cc91      .byte 0x00
            0x0064cc92      .byte 0x00
            0x0064cc93      .byte 0x00
            0x0064cc94      .byte 0x00
            0x0064cc95      .byte 0x00
            0x0064cc96      .byte 0x00
            0x0064cc97      .byte 0x00
            0x0064cc98      .byte 0x00
            0x0064cc99      .byte 0x00
            0x0064cc9a      .byte 0x00
            0x0064cc9b      .byte 0x00
            0x0064cc9c      .byte 0x00
            0x0064cc9d      .byte 0x00
            0x0064cc9e      .byte 0x02
            0x0064cc9f      .byte 0x4f
            0x0064cca0      .byte 0x4b
            0x0064cca1      .byte 0x02
            0x0064cca2      .byte 0x4f
            0x0064cca3      .byte 0x4b
            0x0064cca4      .byte 0x04
            0x0064cca5     .string "Got " ; len=4
            0x0064cca9      .byte 0x23
            0x0064ccaa     .string " dekeying file in k91.fetch_cutout." ; len=35
            0x0064cccd      .byte 0x0b
            0x0064ccce     .string "temp cutout" ; len=11
            0x0064ccd9      .byte 0x02
            0x0064ccda      .byte 0x4f
            0x0064ccdb      .byte 0x4b
            0x0064ccdc      .byte 0x04
            0x0064ccdd     .string "Got " ; len=4
            0x0064cce1      .byte 0x23
            0x0064cce2     .string " rekeying file in k91.fetch_cutout." ; len=35
            0x0064cd05      .byte 0x02
            0x0064cd06      .byte 0x4f
            0x0064cd07      .byte 0x4b
            0x0064cd08      .byte 0x02
            0x0064cd09      .byte 0x4f
            0x0064cd0a      .byte 0x4b
            0x0064cd0b      .byte 0x02
            0x0064cd0c      .byte 0x4f
            0x0064cd0d      .byte 0x4b
            0x0064cd0e      .byte 0x02
            0x0064cd0f      .byte 0x4f
            0x0064cd10      .byte 0x4b
            0x0064cd11      .byte 0x02
            0x0064cd12      .byte 0x42
            0x0064cd13      .byte 0x43
            0x0064cd14      .byte 0x02
            0x0064cd15      .byte 0x4e
            0x0064cd16      .byte 0x41
            0x0064cd17      .byte 0x02
            0x0064cd18      .byte 0x4f
            0x0064cd19      .byte 0x4b
            0x0064cd1a      .byte 0x02
            0x0064cd1b      .byte 0x4f
            0x0064cd1c      .byte 0x4b
            0x0064cd1d      .byte 0x02
            0x0064cd1e      .byte 0x42
            0x0064cd1f      .byte 0x43
            0x0064cd20      .byte 0x02
            0x0064cd21      .byte 0x4f
            0x0064cd22      .byte 0x4b
            0x0064cd23      .byte 0x02
            0x0064cd24      .byte 0x4f
            0x0064cd25      .byte 0x4b
            0x0064cd26      .byte 0x02
            0x0064cd27      .byte 0x4f
            0x0064cd28      .byte 0x4b
            0x0064cd29      .byte 0x00
            0x0064cd2a      .byte 0x00
            0x0064cd2b      .byte 0x02
            0x0064cd2c      .byte 0x00
            0x0064cd2d      .byte 0x00
            0x0064cd2e      .byte 0x00
            0x0064cd2f      .byte 0x00
            0x0064cd30      .byte 0x00
            0x0064cd31      .byte 0x00
            0x0064cd32      .byte 0x02
            0x0064cd33      .byte 0x4f
            0x0064cd34      .byte 0x4b
            0x0064cd35      .byte 0x02
            0x0064cd36      .byte 0x4f
            0x0064cd37      .byte 0x4b
            0x0064cd38      .byte 0x02
            0x0064cd39      .byte 0x4f
            0x0064cd3a      .byte 0x4b
            0x0064cd3b      .byte 0x02
            0x0064cd3c      .byte 0x4f
            0x0064cd3d      .byte 0x4b
            0x0064cd3e      .byte 0x0d
            0x0064cd3f     .string "font categ = " ; len=13
            0x0064cd4c      .byte 0x02
            0x0064cd4d      .byte 0x4f
            0x0064cd4e      .byte 0x4b
            0x0064cd4f      .byte 0x00
            0x0064cd50      .byte 0x00
            0x0064cd51      .byte 0x08
            0x0064cd52      .byte 0x00
            0x0064cd53      .byte 0x00
            0x0064cd54      .byte 0x00
            0x0064cd55      .byte 0x00
            0x0064cd56      .byte 0x00
            0x0064cd57      .byte 0x00
            0x0064cd58      .byte 0x02
            0x0064cd59      .byte 0x4f
            0x0064cd5a      .byte 0x4b
            0x0064cd5b      .byte 0x02
            0x0064cd5c      .byte 0x4f
            0x0064cd5d      .byte 0x4b
            0x0064cd5e      .byte 0x14
            0x0064cd5f     .string "fetch_macro. nbytes " ; len=20
            0x0064cd73      .byte 0x02
            0x0064cd74      .byte 0x2c
            0x0064cd75      .byte 0x20
            0x0064cd76      .byte 0x02
            0x0064cd77      .byte 0x4f
            0x0064cd78      .byte 0x4b
            0x0064cd79      .byte 0x02
            0x0064cd7a      .byte 0x4f
            0x0064cd7b      .byte 0x4b
            0x0064cd7c      .byte 0x02
            0x0064cd7d      .byte 0x4e
            0x0064cd7e      .byte 0x41
            0x0064cd7f      .byte 0x02
            0x0064cd80      .byte 0x43
            0x0064cd81      .byte 0x4c
            0x0064cd82      .byte 0x0c
            0x0064cd83     .string "Not viewable" ; len=12
            0x0064cd8f      .byte 0x02
            0x0064cd90      .byte 0x49
            0x0064cd91      .byte 0x52
            0x0064cd92      .byte 0x11
            0x0064cd93     .string "Unknown file type" ; len=17
            0x0064cda4      .byte 0x02
            0x0064cda5      .byte 0x2c
            0x0064cda6      .byte 0x20
            0x0064cda7      .byte 0x0e
            0x0064cda8     .string " in k91_fetch." ; len=14
            0x0064cdb6      .byte 0x02
            0x0064cdb7      .byte 0x4f
            0x0064cdb8      .byte 0x4b
            0x0064cdb9      .byte 0x02
            0x0064cdba      .byte 0x4f
            0x0064cdbb      .byte 0x4b
            0x0064cdbc      .byte 0x02
            0x0064cdbd      .byte 0x4e
            0x0064cdbe      .byte 0x41
            0x0064cdbf      .byte 0x02
            0x0064cdc0      .byte 0x41
            0x0064cdc1      .byte 0x58
            0x0064cdc2      .byte 0x02
            0x0064cdc3      .byte 0x4f
            0x0064cdc4      .byte 0x4b
            0x0064cdc5      .byte 0x00
            0x0064cdc6      .byte 0x1c
            0x0064cdc7      .byte 0x00
            0x0064cdc8      .byte 0x00
            0x0064cdc9      .byte 0x00
            0x0064cdca      .byte 0x00
            0x0064cdcb      .byte 0x02
            0x0064cdcc      .byte 0x08
            0x0064cdcd      .byte 0x00
            0x0064cdce      .byte 0x00
            0x0064cdcf      .byte 0x10
            0x0064cdd0      .byte 0x00
            0x0064cdd1      .byte 0x00
            0x0064cdd2      .byte 0x0b
            0x0064cdd3     .string "k91 number " ; len=11
            0x0064cdde      .byte 0x12
            0x0064cddf     .string "k91 number result " ; len=18
            0x0064cdf1      .byte 0x0a
            0x0064cdf2     .string " used num " ; len=10
            0x0064cdfc      .byte 0x02
            0x0064cdfd      .byte 0x4f
            0x0064cdfe      .byte 0x4b
            0x0064cdff      .byte 0x02
            0x0064ce00      .byte 0x43
            0x0064ce01      .byte 0x4d
            0x0064ce02      .byte 0x02
            0x0064ce03      .byte 0x43
            0x0064ce04      .byte 0x4d
            0x0064ce05      .byte 0x02
            0x0064ce06      .byte 0x4f
            0x0064ce07      .byte 0x4b
            0x0064ce08      .byte 0x02
            0x0064ce09      .byte 0x4e
            0x0064ce0a      .byte 0x43
            0x0064ce0b      .byte 0x02
            0x0064ce0c      .byte 0x4f
            0x0064ce0d      .byte 0x4b
            0x0064ce0e      .byte 0x1c
            0x0064ce0f      .byte 0x00
            0x0064ce10      .byte 0x00
            0x0064ce11      .byte 0x00
            0x0064ce12      .byte 0x00
            0x0064ce13      .byte 0x02
            0x0064ce14      .byte 0x08
            0x0064ce15      .byte 0x00
            0x0064ce16      .byte 0x00
            0x0064ce17      .byte 0x10
            0x0064ce18      .byte 0x00
            0x0064ce19      .byte 0x00
            0x0064ce1a      .byte 0x02
            0x0064ce1b      .byte 0x4e
            0x0064ce1c      .byte 0x43
            0x0064ce1d      .byte 0x02
            0x0064ce1e      .byte 0x4f
            0x0064ce1f      .byte 0x4b
            0x0064ce20      .byte 0x02
            0x0064ce21      .byte 0x4f
            0x0064ce22      .byte 0x4b
            0x0064ce23      .byte 0x00
            0x0064ce24      .byte 0x0c
            0x0064ce25      .byte 0x00
            0x0064ce26      .byte 0x00
            0x0064ce27      .byte 0x00
            0x0064ce28      .byte 0x00
            0x0064ce29      .byte 0x80
            0x0064ce2a      .byte 0x00
            0x0064ce2b      .byte 0x00
            0x0064ce2c      .byte 0x00
            0x0064ce2d      .byte 0x00
            0x0064ce2e      .byte 0x00
            0x0064ce2f      .byte 0x00
            0x0064ce30      .byte 0x02
            0x0064ce31      .byte 0x4f
            0x0064ce32      .byte 0x4b
            0x0064ce33      .byte 0x05
            0x0064ce34     .string "magn " ; len=5
            0x0064ce39      .byte 0x02
            0x0064ce3a      .byte 0x4f
            0x0064ce3b      .byte 0x4b
            0x0064ce3c      .byte 0x02
            0x0064ce3d      .byte 0x42
            0x0064ce3e      .byte 0x46
            0x0064ce3f      .byte 0x00
            0x0064ce40      .byte 0x1c
            0x0064ce41      .byte 0x00
            0x0064ce42      .byte 0x00
            0x0064ce43      .byte 0x00
            0x0064ce44      .byte 0x00
            0x0064ce45      .byte 0x00
            0x0064ce46      .byte 0x08
            0x0064ce47      .byte 0x00
            0x0064ce48      .byte 0x00
            0x0064ce49      .byte 0x00
            0x0064ce4a      .byte 0x00
            0x0064ce4b      .byte 0x00
            0x0064ce4c      .byte 0x02
            0x0064ce4d      .byte 0x42
            0x0064ce4e      .byte 0x46
            0x0064ce4f      .byte 0x02
            0x0064ce50      .byte 0x4f
            0x0064ce51      .byte 0x4b
            0x0064ce52      .byte 0x02
            0x0064ce53      .byte 0x42
            0x0064ce54      .byte 0x46
            0x0064ce55      .byte 0x00
            0x0064ce56      .byte 0x18
            0x0064ce57      .byte 0x00
            0x0064ce58      .byte 0x00
            0x0064ce59      .byte 0x00
            0x0064ce5a      .byte 0x00
            0x0064ce5b      .byte 0x00
            0x0064ce5c      .byte 0x00
            0x0064ce5d      .byte 0x00
            0x0064ce5e      .byte 0x00
            0x0064ce5f      .byte 0x00
            0x0064ce60      .byte 0x00
            0x0064ce61      .byte 0x00
            0x0064ce62      .byte 0x02
            0x0064ce63      .byte 0x4e
            0x0064ce64      .byte 0x43
            0x0064ce65      .byte 0x00
            0x0064ce66      .byte 0x00
            0x0064ce67      .byte 0x00
            0x0064ce68      .byte 0x00
            0x0064ce69      .byte 0x00
            0x0064ce6a      .byte 0x20
            0x0064ce6b      .byte 0x00
            0x0064ce6c      .byte 0x00
            0x0064ce6d      .byte 0x00
            0x0064ce6e      .byte 0x00
            0x0064ce6f      .byte 0x00
            0x0064ce70      .byte 0x1c
            0x0064ce71      .byte 0x00
            0x0064ce72      .byte 0x00
            0x0064ce73      .byte 0x00
            0x0064ce74      .byte 0x00
            0x0064ce75      .byte 0x02
            0x0064ce76      .byte 0x08
            0x0064ce77      .byte 0x00
            0x0064ce78      .byte 0x00
            0x0064ce79      .byte 0x10
            0x0064ce7a      .byte 0x00
            0x0064ce7b      .byte 0x00
            0x0064ce7c      .byte 0x17
            0x0064ce7d     .string "K91 archive unnumbered " ; len=23
            0x0064ce94      .byte 0x19
            0x0064ce95     .string "K91 do archive, dest num " ; len=25
            0x0064ceae      .byte 0x10
            0x0064ceaf     .string "K91 used number " ; len=16
            0x0064cebf      .byte 0x02
            0x0064cec0      .byte 0x55
            0x0064cec1      .byte 0x4e
            0x0064cec2      .byte 0x0f
            0x0064cec3     .string "allow unnum OK " ; len=15
            0x0064ced2      .byte 0x02
            0x0064ced3      .byte 0x4f
            0x0064ced4      .byte 0x4b
            0x0064ced5      .byte 0x02
            0x0064ced6      .byte 0x4f
            0x0064ced7      .byte 0x4b
            0x0064ced8      .byte 0x05
            0x0064ced9     .string "nonum" ; len=5
            0x0064cede      .byte 0x02
            0x0064cedf      .byte 0x4f
            0x0064cee0      .byte 0x4b
            0x0064cee1      .byte 0x02
            0x0064cee2      .byte 0x4f
            0x0064cee3      .byte 0x4b
            0x0064cee4      .byte 0x02
            0x0064cee5     .string "OK" ; len=2
            0x0064cee7      .byte 0x20
            0x0064cee8     .string "failed to lose ref for new file " ; len=32
            0x0064cf08      .byte 0x02
            0x0064cf09     .string "OK" ; len=2
            0x0064cf0b      .byte 0x20
            0x0064cf0c     .string "failed to lose ref for new file " ; len=32
            0x0064cf2c      .byte 0x02
            0x0064cf2d      .byte 0x50
            0x0064cf2e      .byte 0x52
            0x0064cf2f      .byte 0x00
            0x0064cf30      .byte 0x00
            0x0064cf31      .byte 0x04
            0x0064cf32      .byte 0x00
            0x0064cf33      .byte 0x00
            0x0064cf34      .byte 0x00
            0x0064cf35      .byte 0x00
            0x0064cf36      .byte 0x00
            0x0064cf37      .byte 0x00
            0x0064cf38      .byte 0x00
            0x0064cf39      .byte 0x00
            0x0064cf3a      .byte 0x04
            0x0064cf3b      .byte 0x00
            0x0064cf3c      .byte 0x02
            0x0064cf3d      .byte 0x4f
            0x0064cf3e      .byte 0x4b
            0x0064cf3f      .byte 0x00
            0x0064cf40      .byte 0x00
            0x0064cf41      .byte 0x00
            0x0064cf42      .byte 0x00
            0x0064cf43      .byte 0x00
            0x0064cf44      .byte 0x00
            0x0064cf45      .byte 0x02
            0x0064cf46      .byte 0x00
            0x0064cf47      .byte 0x3b
            0x0064cf48      .byte 0x81
            0x0064cf49      .byte 0x33
            0x0064cf4a      .byte 0x00
            0x0064cf4b      .byte 0x00
            0x0064cf4c      .byte 0x0e
            0x0064cf4d     .string "library locked" ; len=14
            0x0064cf5b      .byte 0x02
            0x0064cf5c      .byte 0x41
            0x0064cf5d      .byte 0x58
            0x0064cf5e      .byte 0x02
            0x0064cf5f      .byte 0x4f
            0x0064cf60      .byte 0x4b
            0x0064cf61      .byte 0x02
            0x0064cf62      .byte 0x4f
            0x0064cf63      .byte 0x4b
            0x0064cf64      .byte 0x00
            0x0064cf65      .byte 0x00
            0x0064cf66      .byte 0x00
            0x0064cf67      .byte 0x00
            0x0064cf68      .byte 0x00
            0x0064cf69      .byte 0x02
            0x0064cf6a      .byte 0x00
            0x0064cf6b      .byte 0x3b
            0x0064cf6c      .byte 0x81
            0x0064cf6d      .byte 0x33
            0x0064cf6e      .byte 0x00
            0x0064cf6f      .byte 0x00
            0x0064cf70      .byte 0x00
            0x0064cf71      .byte 0x00
            0x0064cf72      .byte 0x00
            0x0064cf73      .byte 0x80
            0x0064cf74      .byte 0x02
            0x0064cf75      .byte 0xbc
            0x0064cf76      .byte 0x02
            0x0064cf77      .byte 0x0d
            0x0064cf78      .byte 0x00
            0x0064cf79      .byte 0x00
            0x0064cf7a      .byte 0x00
            0x0064cf7b      .byte 0x80
            0x0064cf7c      .byte 0x02
            0x0064cf7d      .byte 0xbc
            0x0064cf7e      .byte 0x02
            0x0064cf7f      .byte 0x0d
            0x0064cf80      .byte 0x16
            0x0064cf81     .string "De-aspected file size " ; len=22
            0x0064cf97      .byte 0x02
            0x0064cf98      .byte 0x2c
            0x0064cf99      .byte 0x20
            0x0064cf9a      .byte 0x0e
            0x0064cf9b     .string "Cypher aspect " ; len=14
            0x0064cfa9      .byte 0x02
            0x0064cfaa      .byte 0x2c
            0x0064cfab      .byte 0x20
            0x0064cfac      .byte 0x09
            0x0064cfad     .string "x_cypher " ; len=9
            0x0064cfb6      .byte 0x0b
            0x0064cfb7     .string ", y_cypher " ; len=11
            0x0064cfc2      .byte 0x0d
            0x0064cfc3     .string "Cypher limit " ; len=13
            0x0064cfd0      .byte 0x09
            0x0064cfd1     .string "oversize " ; len=9
            0x0064cfda      .byte 0x0e
            0x0064cfdb     .string "cypher aspect " ; len=14
            0x0064cfe9      .byte 0x02
            0x0064cfea      .byte 0x2c
            0x0064cfeb      .byte 0x20
            0x0064cfec      .byte 0x15
            0x0064cfed     .string "k91.save_thing. Size " ; len=21
            0x0064d002      .byte 0x02
            0x0064d003      .byte 0x2c
            0x0064d004      .byte 0x20
            0x0064d005      .byte 0x02
            0x0064d006      .byte 0x2c
            0x0064d007      .byte 0x20
            0x0064d008      .byte 0x09
            0x0064d009     .string " planes, " ; len=9
            0x0064d012      .byte 0x0e
            0x0064d013     .string ", extra bytes." ; len=14
            0x0064d021      .byte 0x00
            0x0064d022      .byte 0x00
            0x0064d023      .byte 0x00
            0x0064d024      .byte 0x00
            0x0064d025      .byte 0x00
            0x0064d026      .byte 0x20
            0x0064d027      .byte 0x00
            0x0064d028      .byte 0x00
            0x0064d029      .byte 0x00
            0x0064d02a      .byte 0x02
            0x0064d02b      .byte 0x4f
            0x0064d02c      .byte 0x4b
            0x0064d02d      .byte 0x02
            0x0064d02e      .byte 0x4f
            0x0064d02f      .byte 0x4b
            0x0064d030      .byte 0x02
            0x0064d031      .byte 0x4e
            0x0064d032      .byte 0x41
            0x0064d033      .byte 0x02
            0x0064d034      .byte 0x4f
            0x0064d035      .byte 0x4b
            0x0064d036      .byte 0x00
            0x0064d037      .byte 0x00
            0x0064d038      .byte 0x00
            0x0064d039      .byte 0x00
            0x0064d03a      .byte 0x20
            0x0064d03b      .byte 0x00
            0x0064d03c      .byte 0x00
            0x0064d03d      .byte 0x00
            0x0064d03e      .byte 0x02
            0x0064d03f     .string "OK" ; len=2
            0x0064d041      .byte 0x20
            0x0064d042     .string "Failed to lose cutout file ptr. " ; len=32
            0x0064d062      .byte 0x0c
            0x0064d063     .string "Do_save_logo" ; len=12
            0x0064d06f      .byte 0x02
            0x0064d070      .byte 0x4e
            0x0064d071      .byte 0x41
            0x0064d072      .byte 0x02
            0x0064d073      .byte 0x4f
            0x0064d074      .byte 0x4b
            0x0064d075      .byte 0x1c
            0x0064d076     .string "Calculated cypher file size " ; len=28
            0x0064d092      .byte 0x02
            0x0064d093      .byte 0x2c
            0x0064d094      .byte 0x20
            0x0064d095      .byte 0x00
            0x0064d096      .byte 0x00
            0x0064d097      .byte 0x00
            0x0064d098      .byte 0x40
            0x0064d099      .byte 0x00
            0x0064d09a      .byte 0x20
            0x0064d09b      .byte 0x00
            0x0064d09c      .byte 0x00
            0x0064d09d      .byte 0x00
            0x0064d09e      .byte 0x02
            0x0064d09f     .string "OK" ; len=2
            0x0064d0a1      .byte 0x20
            0x0064d0a2     .string "Failed to lose cutout file ptr. " ; len=32
            0x0064d0c2      .byte 0x00
            0x0064d0c3      .byte 0x00
            0x0064d0c4      .byte 0x00
            0x0064d0c5      .byte 0x00
            0x0064d0c6      .byte 0x20
            0x0064d0c7      .byte 0x00
            0x0064d0c8      .byte 0x00
            0x0064d0c9      .byte 0x00
            0x0064d0ca      .byte 0x02
            0x0064d0cb      .byte 0x4f
            0x0064d0cc      .byte 0x4b
            0x0064d0cd      .byte 0x02
            0x0064d0ce      .byte 0x4e
            0x0064d0cf      .byte 0x41
            0x0064d0d0      .byte 0x00
            0x0064d0d1      .byte 0x00
            0x0064d0d2      .byte 0x00
            0x0064d0d3      .byte 0x00
            0x0064d0d4      .byte 0x20
            0x0064d0d5      .byte 0x00
            0x0064d0d6      .byte 0x00
            0x0064d0d7      .byte 0x00
            0x0064d0d8      .byte 0x02
            0x0064d0d9      .byte 0x4f
            0x0064d0da      .byte 0x4b
            0x0064d0db      .byte 0x00
            0x0064d0dc      .byte 0x00
            0x0064d0dd      .byte 0x00
            0x0064d0de      .byte 0x00
            0x0064d0df      .byte 0x00
            0x0064d0e0      .byte 0x20
            0x0064d0e1      .byte 0x00
            0x0064d0e2      .byte 0x00
            0x0064d0e3      .byte 0x00
            0x0064d0e4      .byte 0x02
            0x0064d0e5      .byte 0x4f
            0x0064d0e6      .byte 0x4b
            0x0064d0e7      .byte 0x02
            0x0064d0e8      .byte 0x4e
            0x0064d0e9      .byte 0x41
            0x0064d0ea      .byte 0x02
            0x0064d0eb      .byte 0x4f
            0x0064d0ec      .byte 0x4b
            0x0064d0ed      .byte 0x00
            0x0064d0ee      .byte 0x00
            0x0064d0ef      .byte 0x00
            0x0064d0f0      .byte 0x00
            0x0064d0f1      .byte 0x00
            0x0064d0f2      .byte 0x20
            0x0064d0f3      .byte 0x00
            0x0064d0f4      .byte 0x00
            0x0064d0f5      .byte 0x00
            0x0064d0f6      .byte 0x02
            0x0064d0f7      .byte 0x4f
            0x0064d0f8      .byte 0x4b
            0x0064d0f9      .byte 0x07
            0x0064d0fa     .string "Result " ; len=7
            0x0064d101      .byte 0x12
            0x0064d102     .string " losing stack ref." ; len=18
            0x0064d114      .byte 0x13
            0x0064d115     .string "save_macro. nbytes " ; len=19
            0x0064d128      .byte 0x00
            0x0064d129      .byte 0x00
            0x0064d12a      .byte 0x00
            0x0064d12b      .byte 0x00
            0x0064d12c      .byte 0x20
            0x0064d12d      .byte 0x00
            0x0064d12e      .byte 0x00
            0x0064d12f      .byte 0x00
            0x0064d130      .byte 0x02
            0x0064d131      .byte 0x4f
            0x0064d132      .byte 0x4b
            0x0064d133      .byte 0x02
            0x0064d134      .byte 0x4f
            0x0064d135      .byte 0x4b
            0x0064d136      .byte 0x13
            0x0064d137     .string "save_macro. nbytes " ; len=19
            0x0064d14a      .byte 0x02
            0x0064d14b      .byte 0x2c
            0x0064d14c      .byte 0x20
            0x0064d14d      .byte 0x15
            0x0064d14e     .string "save_kbd map. nbytes " ; len=21
            0x0064d163      .byte 0x00
            0x0064d164      .byte 0x00
            0x0064d165      .byte 0x00
            0x0064d166      .byte 0x00
            0x0064d167      .byte 0x00
            0x0064d168      .byte 0x20
            0x0064d169      .byte 0x00
            0x0064d16a      .byte 0x00
            0x0064d16b      .byte 0x00
            0x0064d16c      .byte 0x02
            0x0064d16d      .byte 0x4f
            0x0064d16e      .byte 0x4b
            0x0064d16f      .byte 0x02
            0x0064d170      .byte 0x4f
            0x0064d171      .byte 0x4b
            0x0064d172      .byte 0x13
            0x0064d173     .string "save_macro. nbytes " ; len=19
            0x0064d186      .byte 0x02
            0x0064d187      .byte 0x2c
            0x0064d188      .byte 0x20
            0x0064d189      .byte 0x00
            0x0064d18a      .byte 0x0c
            0x0064d18b      .byte 0x00
            0x0064d18c      .byte 0x00
            0x0064d18d      .byte 0x00
            0x0064d18e      .byte 0x00
            0x0064d18f      .byte 0x00
            0x0064d190      .byte 0x00
            0x0064d191      .byte 0x00
            0x0064d192      .byte 0x00
            0x0064d193      .byte 0x00
            0x0064d194      .byte 0x00
            0x0064d195      .byte 0x00
            0x0064d196      .byte 0x0e
            0x0064d197     .string "library locked" ; len=14
            0x0064d1a5      .byte 0x02
            0x0064d1a6      .byte 0x41
            0x0064d1a7      .byte 0x58
            0x0064d1a8      .byte 0x02
            0x0064d1a9      .byte 0x4e
            0x0064d1aa      .byte 0x41
            0x0064d1ab      .byte 0x02
            0x0064d1ac      .byte 0x49
            0x0064d1ad      .byte 0x52
            0x0064d1ae      .byte 0x02
            0x0064d1af      .byte 0x4f
            0x0064d1b0      .byte 0x4b
            0x0064d1b1      .byte 0x00
            0x0064d1b2      .byte 0x1c
            0x0064d1b3      .byte 0x00
            0x0064d1b4      .byte 0x00
            0x0064d1b5      .byte 0x00
            0x0064d1b6      .byte 0x00
            0x0064d1b7      .byte 0x00
            0x0064d1b8      .byte 0x08
            0x0064d1b9      .byte 0x00
            0x0064d1ba      .byte 0x00
            0x0064d1bb      .byte 0x00
            0x0064d1bc      .byte 0x00
            0x0064d1bd      .byte 0x00
            0x0064d1be      .byte 0x02
            0x0064d1bf      .byte 0x4f
            0x0064d1c0      .byte 0x4b
            0x0064d1c1      .byte 0x02
            0x0064d1c2      .byte 0x4f
            0x0064d1c3      .byte 0x4b
            0x0064d1c4      .byte 0x02
            0x0064d1c5      .byte 0x4f
            0x0064d1c6      .byte 0x4b
            0x0064d1c7      .byte 0x02
            0x0064d1c8      .byte 0x41
            0x0064d1c9      .byte 0x58
            0x0064d1ca      .byte 0x14
            0x0064d1cb     .string "added to queue, num " ; len=20
            0x0064d1df      .byte 0x05
            0x0064d1e0     .string "unnum" ; len=5
            0x0064d1e5      .byte 0x01
            0x0064d1e6      .byte 0x2b
            0x0064d1e7      .byte 0x01
            0x0064d1e8      .byte 0x15
            0x0064d1e9      .byte 0x06
            0x0064d1ea     .string "<<<<<<" ; len=6
            0x0064d1f0      .byte 0x0f
            0x0064d1f1     .string "k91_mail fault " ; len=15
            0x0064d200      .byte 0x12
            0x0064d201     .string "Getting file name." ; len=18
            0x0064d213      .byte 0x0c
            0x0064d214     .string "Source name " ; len=12
            0x0064d220      .byte 0x0c
            0x0064d221     .string "mailed from " ; len=12
            0x0064d22d      .byte 0x0a
            0x0064d22e     .string "Dest name " ; len=10
            0x0064d238      .byte 0x15
            0x0064d239     .string "Getting aspected size" ; len=21
            0x0064d24e      .byte 0x13
            0x0064d24f     .string "Got corrected size " ; len=19
            0x0064d262      .byte 0x02
            0x0064d263      .byte 0x2c
            0x0064d264      .byte 0x20
            0x0064d265      .byte 0x02
            0x0064d266      .byte 0x4d
            0x0064d267      .byte 0x45
            0x0064d268      .byte 0x12
            0x0064d269     .string "Getting stack fid." ; len=18
            0x0064d27b      .byte 0x00
            0x0064d27c      .byte 0x00
            0x0064d27d      .byte 0x00
            0x0064d27e      .byte 0x08
            0x0064d27f      .byte 0x00
            0x0064d280      .byte 0x20
            0x0064d281      .byte 0x00
            0x0064d282      .byte 0x00
            0x0064d283      .byte 0x00
            0x0064d284      .byte 0x02
            0x0064d285      .byte 0x4e
            0x0064d286      .byte 0x44
            0x0064d287      .byte 0x02
            0x0064d288      .byte 0x4f
            0x0064d289      .byte 0x4b
            0x0064d28a      .byte 0x18
            0x0064d28b     .string "result from copy_stack: " ; len=24
            0x0064d2a3      .byte 0x02
            0x0064d2a4      .byte 0x41
            0x0064d2a5      .byte 0x58
            0x0064d2a6      .byte 0x00
            0x0064d2a7      .byte 0x00
            0x0064d2a8      .byte 0x08
            0x0064d2a9      .byte 0x00
            0x0064d2aa      .byte 0x20
            0x0064d2ab      .byte 0x00
            0x0064d2ac      .byte 0x00
            0x0064d2ad      .byte 0x00
            0x0064d2ae      .byte 0x02
            0x0064d2af      .byte 0x4f
            0x0064d2b0      .byte 0x4b
            0x0064d2b1      .byte 0x0b
            0x0064d2b2     .string "Got result " ; len=11
            0x0064d2bd      .byte 0x1b
            0x0064d2be     .string " from k_create in k91_mail." ; len=27
            0x0064d2d9      .byte 0x02
            0x0064d2da      .byte 0x4f
            0x0064d2db      .byte 0x4b
            0x0064d2dc      .byte 0x0b
            0x0064d2dd     .string "Got result " ; len=11
            0x0064d2e8      .byte 0x1f
            0x0064d2e9     .string " checking  k_number in k91_mail" ; len=31
            0x0064d308      .byte 0x0e
            0x0064d309     .string "Saving archive" ; len=14
            0x0064d317      .byte 0x02
            0x0064d318      .byte 0x4f
            0x0064d319      .byte 0x4b
            0x0064d31a      .byte 0x0b
            0x0064d31b     .string "Got result " ; len=11
            0x0064d326      .byte 0x1a
            0x0064d327     .string " from k_number in k91_mail" ; len=26
            0x0064d341      .byte 0x0f
            0x0064d342     .string " prep          " ; len=15
            0x0064d351      .byte 0x0f
            0x0064d352     .string " create        " ; len=15
            0x0064d361      .byte 0x0f
            0x0064d362     .string " num allocated " ; len=15
            0x0064d371      .byte 0x0f
            0x0064d372     .string " archive       " ; len=15
            0x0064d381      .byte 0x0f
            0x0064d382     .string " number        " ; len=15
            0x0064d391      .byte 0x0f
            0x0064d392     .string " set info      " ; len=15
            0x0064d3a1      .byte 0x10
            0x0064d3a2     .string "total mail time " ; len=16
            0x0064d3b2      .byte 0x02
            0x0064d3b3      .byte 0x4e
            0x0064d3b4      .byte 0x43
            0x0064d3b5      .byte 0x00
            0x0064d3b6      .byte 0x00
            0x0064d3b7      .byte 0x00
            0x0064d3b8      .byte 0x00
            0x0064d3b9      .byte 0x00
            0x0064d3ba      .byte 0x00
            0x0064d3bb      .byte 0x00
            0x0064d3bc      .byte 0x00
            0x0064d3bd      .byte 0x00
 30: K91_LIBOPS.lock_clipbox_li ();
           0x0064d3be      4e56fffc       link.w a6, 0xfffc
           0x0064d3c2      bfd5           cmpa.l (a5), a7
       < 0x0064d3c4      6206           bhi.b 0x64d3cc
          0x0064d3c6      44fc0002       move.w 0x2, ccr
          0x0064d3ca      4e76           trapv
       > 0x0064d3cc      defc0004       adda.w 0x4, a7
           0x0064d3d0      13ee00080084.  move.b 0x8(a6), 0x8487c8.l
           0x0064d3d8      4e5e           unlk a6
           0x0064d3da      4e75           rts
            ; CALL XREF from K91_LIBOPS.create_and_copy @ 0x64d63e
 232: K91_LIBOPS.warn_if_fail ();
           ; var int32_t var_8h @ a7+0x8
           0x0064d3dc      4e56fedc       link.w a6, 0xfedc
           0x0064d3e0      bfd5           cmpa.l (a5), a7
       < 0x0064d3e2      6206           bhi.b 0x64d3ea
          0x0064d3e4      44fc0002       move.w 0x2, ccr
          0x0064d3e8      4e76           trapv
       > 0x0064d3ea      defc0124       adda.w 0x124, a7
           0x0064d3ee      48e7c0e0       movem.l d0-d1/a0-a2, -(a7)
           0x0064d3f2      41f9004047ea   lea.l p_wts_o, a0
           0x0064d3f8      43ee0108       lea.l 0x108(a6), a1
           0x0064d3fc      45f80002       lea.l 0x2, a2
           0x0064d400      720c           moveq 0xc, d1
           0x0064d402      422e010a       clr.b 0x10a(a6)
           0x0064d406      1011           move.b (a1), d0
           0x0064d408      b03af6a9       cmp.b 0x64cab3(pc), d0
       < 0x0064d40c      6608           bne.b 0x64d416
          0x0064d40e      102e0109       move.b 0x109(a6), d0
          0x0064d412      b03af6a0       cmp.b 0x64cab4(pc), d0
      > 0x0064d416      6704           beq.b 0x64d41c
          0x0064d418      522e010a       addq.b 0x1, 0x10a(a6)
      > 0x0064d41c      3011           move.w (a1), d0
           0x0064d41e      b07af696       cmp.w 0x64cab6(pc), d0
       < 0x0064d422      67000098       beq.w 0x64d4bc
          0x0064d426      487af691       pea.l 0x64cab9(pc)
          0x0064d42a      4878000f       pea.l 0xf
          0x0064d42e      2f17           move.l (a7), -(a7)
          0x0064d430      4e90           jsr (a0)                    ; fcn.00000009
          0x0064d432      dec1           adda.w d1, a7
          0x0064d434      4851           pea.l (a1)
          0x0064d436      4852           pea.l (a2)
          0x0064d438      2f17           move.l (a7), -(a7)
          0x0064d43a      4e90           jsr (a0)                    ; fcn.00000009
          0x0064d43c      dec1           adda.w d1, a7
          0x0064d43e      487af689       pea.l 0x64cac9(pc)
          0x0064d442      4852           pea.l (a2)
          0x0064d444      2f17           move.l (a7), -(a7)
          0x0064d446      4e90           jsr (a0)                    ; fcn.00000009
          0x0064d448      dec1           adda.w d1, a7
          0x0064d44a      3011           move.w (a1), d0
          0x0064d44c      b07af67e       cmp.w 0x64cacc(pc), d0
      < 0x0064d450      6624           bne.b 0x64d476
         0x0064d452      9efc0100       suba.w 0x100, a7
         0x0064d456      4eb900408ec0   jsr p_err_string
         0x0064d45c      486f0001       pea.l 0x1(a7)
         0x0064d460      42a7           clr.l -(a7)
         0x0064d462      1f6f00080003   move.b 0x8(a7), 0x3(a7)
         0x0064d468      2f17           move.l (a7), -(a7)
         0x0064d46a      4e90           jsr (a0)                    ; fcn.00000009
         0x0064d46c      defc010c       adda.w 0x10c, a7
         0x0064d470      487af65d       pea.l 0x64cacf(pc)
     < 0x0064d474      6026           bra.b 0x64d49c
     > 0x0064d476      9efc0100       suba.w 0x100, a7
         0x0064d47a      3f11           move.w (a1), -(a7)
         0x0064d47c      4eb9005b071e   jsr K3_UTILS.k3_full_string
         0x0064d482      544f           addq.w 0x2, a7
         0x0064d484      486f0001       pea.l 0x1(a7)
         0x0064d488      42a7           clr.l -(a7)
         0x0064d48a      1f6f00080003   move.b 0x8(a7), 0x3(a7)
         0x0064d490      2f17           move.l (a7), -(a7)
         0x0064d492      4e90           jsr (a0)                    ; fcn.00000009
         0x0064d494      defc010c       adda.w 0x10c, a7
         0x0064d498      487af638       pea.l 0x64cad2(pc)
     > 0x0064d49c      4852           pea.l (a2)
          0x0064d49e      2f17           move.l (a7), -(a7)
          0x0064d4a0      4e90           jsr (a0)                    ; fcn.00000009
          0x0064d4a2      dec1           adda.w d1, a7
          0x0064d4a4      486e0009       pea.l 0x9(a6)
          0x0064d4a8      42a7           clr.l -(a7)
          0x0064d4aa      1f6e00080003   move.b 0x8(a6), 0x3(a7)
          0x0064d4b0      2f17           move.l (a7), -(a7)
          0x0064d4b2      4e90           jsr (a0)                    ; fcn.00000009
          0x0064d4b4      dec1           adda.w d1, a7
          0x0064d4b6      4eb900404946   jsr p_wtln_o
       > 0x0064d4bc      4cdf0703       movem.l (a7)+, d0-d1/a0-a2
           0x0064d4c0      4e5e           unlk a6
           0x0064d4c2      4e75           rts
            ; CALL XREF from K91_LIBOPS.save_thing @ 0x64f862
 88: K91_LIBOPS.do_hp_adjust ();
           0x0064d4c4      4e56ffe6       link.w a6, 0xffe6
           0x0064d4c8      bfd5           cmpa.l (a5), a7
       < 0x0064d4ca      6206           bhi.b 0x64d4d2
          0x0064d4cc      44fc0002       move.w 0x2, ccr
          0x0064d4d0      4e76           trapv
       > 0x0064d4d2      defc001a       adda.w 0x1a, a7
           0x0064d4d6      48e7c080       movem.l d0-d1/a0, -(a7)
           0x0064d4da      206e0008       movea.l 0x8(a6), a0
           0x0064d4de      3010           move.w (a0), d0
           0x0064d4e0      48c0           ext.l d0
           0x0064d4e2      81fc0008       divs.w 0x8, d0
           0x0064d4e6      2200           move.l d0, d1
           0x0064d4e8      4841           swap d1
           0x0064d4ea      4a41           tst.w d1
       < 0x0064d4ec      6c02           bge.b 0x64d4f0
          0x0064d4ee      5041           addq.w 0x8, d1
       > 0x0064d4f0      4a41           tst.w d1
       < 0x0064d4f2      6720           beq.b 0x64d514
          0x0064d4f4      3200           move.w d0, d1
          0x0064d4f6      e741           asl.w 0x3, d1
          0x0064d4f8      48c1           ext.l d1
          0x0064d4fa      5081           addq.l 0x8, d1
          0x0064d4fc      0481ffff8000   subi.l 0xffff8000, d1
          0x0064d502      0c810000ffff   cmpi.l 0xffff, d1
      < 0x0064d508      6302           bls.b 0x64d50c
         0x0064d50a      4e4f           trap 0xf
      > 0x0064d50c      0681ffff8000   addi.l 0xffff8000, d1
          0x0064d512      3081           move.w d1, (a0)
       > 0x0064d514      4cdf0103       movem.l (a7)+, d0-d1/a0
           0x0064d518      4e5e           unlk a6
           0x0064d51a      4e75           rts
            ; XREFS: CALL 0x0064dc08  CALL 0x0064e0a4  CALL 0x0064e222  
            ; XREFS: CALL 0x0064fa52  CALL 0x0064fc80  CALL 0x0064ffa8  
 562: K91_LIBOPS.create_and_copy ();
           ; var int32_t var_aa4h @ a6-0xaa4
           ; var int32_t var_a64h @ a6-0xa64
           ; var int32_t var_a62h @ a6-0xa62
           ; var int32_t var_a60h @ a6-0xa60
           ; var int32_t var_a5ch @ a6-0xa5c
           0x0064d51c      4e56febc       link.w a6, 0xfebc
           0x0064d520      bfd5           cmpa.l (a5), a7
       < 0x0064d522      6206           bhi.b 0x64d52a
          0x0064d524      44fc0002       move.w 0x2, ccr
          0x0064d528      4e76           trapv
       > 0x0064d52a      defc0138       adda.w 0x138, a7
           0x0064d52e      48e7f8f8       movem.l d0-d4/a0-a4, -(a7)
           0x0064d532      49eefff4       lea.l -0xc(a6), a4
           0x0064d536      740c           moveq 0xc, d2
           0x0064d538      7601           moveq 0x1, d3
           0x0064d53a      780a           moveq 0xa, d4
           0x0064d53c      206e001a       movea.l 0x1a(a6), a0
           0x0064d540      4a10           tst.b (a0)
       < 0x0064d542      662e           bne.b 0x64d572
          0x0064d544      2f3af5d0       move.l 0x64cb16(pc), -(a7)
          0x0064d548      2f3af5c8       move.l 0x64cb12(pc), -(a7)
          0x0064d54c      9efc0052       suba.w 0x52, a7
          0x0064d550      486f0052       pea.l 0x52(a7)
          0x0064d554      3f03           move.w d3, -(a7)
          0x0064d556      3f3c0008       move.w 0x8, -(a7)
          0x0064d55a      4eb9005b04aa   jsr K3_UTILS.k3_make_str
          0x0064d560      504f           addq.w 0x8, a7
          0x0064d562      2248           movea.l a0, a1
          0x0064d564      244f           movea.l a7, a2
          0x0064d566      7050           moveq 0x50, d0
      > 0x0064d568      12da           move.b (a2)+, (a1)+
      < 0x0064d56a      51c8fffc       dbra d0, 0x64d568
          0x0064d56e      defc005a       adda.w 0x5a, a7
       > 0x0064d572      18baf5a7       move.b 0x64cb1b(pc), (a4)
           0x0064d576      1d7af5a4fff5   move.b 0x64cb1c(pc), -0xb(a6)
           0x0064d57c      2d7af5a0fff6   move.l 0x64cb1e(pc), -0xa(a6)
           0x0064d582      2d7af59efffa   move.l 0x64cb22(pc), -0x6(a6)
           0x0064d588      3d7af59cfffe   move.w 0x64cb26(pc), -0x2(a6)
           0x0064d58e      226e0022       movea.l 0x22(a6), a1
           0x0064d592      2451           movea.l (a1), a2
           0x0064d594      b4c3           cmpa.w d3, a2
       < 0x0064d596      6600008c       bne.w 0x64d624
          0x0064d59a      10280051       move.b 0x51(a0), d0
          0x0064d59e      0c000033       cmpi.b 0x33, d0
      < 0x0064d5a2      664a           bne.b 0x64d5ee
         0x0064d5a4      554f           subq.w 0x2, a7
         0x0064d5a6      486efff6       pea.l -0xa(a6)
         0x0064d5aa      2f2e0016       move.l 0x16(a6), -(a7)
         0x0064d5ae      2f2e0012       move.l 0x12(a6), -(a7)
         0x0064d5b2      2f2e000e       move.l 0xe(a6), -(a7)
         0x0064d5b6      2f2e000a       move.l 0xa(a6), -(a7)
         0x0064d5ba      4eb900593f32   jsr K0_DISKMGR.k_get_disk
         0x0064d5c0      defc0014       adda.w 0x14, a7
         0x0064d5c4      4a1f           tst.b (a7)+
     < 0x0064d5c6      660c           bne.b 0x64d5d4
        0x0064d5c8      18baf55f       move.b 0x64cb29(pc), (a4)
        0x0064d5cc      1d7af55cfff5   move.b 0x64cb2a(pc), -0xb(a6)
    < 0x0064d5d2      6050           bra.b 0x64d624
    > 0x0064d5d4      2f2efffc       move.l -0x4(a6), -(a7)
        0x0064d5d8      2f2efff8       move.l -0x8(a6), -(a7)
        0x0064d5dc      3f2efff6       move.w -0xa(a6), -(a7)
        0x0064d5e0      4851           pea.l (a1)
        0x0064d5e2      4eb90059866e   jsr K0_DISKMGR.k_gen_file
        0x0064d5e8      defc000e       adda.w 0xe, a7
    < 0x0064d5ec      6036           bra.b 0x64d624
    > 0x0064d5ee      554f           subq.w 0x2, a7
        0x0064d5f0      4851           pea.l (a1)
        0x0064d5f2      246e001e       movea.l 0x1e(a6), a2
        0x0064d5f6      9ec4           suba.w d4, a7
        0x0064d5f8      264f           movea.l a7, a3
        0x0064d5fa      7009           moveq 0x9, d0
    > 0x0064d5fc      16da           move.b (a2)+, (a3)+
    < 0x0064d5fe      51c8fffc       dbra d0, 0x64d5fc
        0x0064d602      4850           pea.l (a0)
        0x0064d604      2f2e0016       move.l 0x16(a6), -(a7)
        0x0064d608      2f2e0012       move.l 0x12(a6), -(a7)
        0x0064d60c      2f2e000e       move.l 0xe(a6), -(a7)
        0x0064d610      2f2e000a       move.l 0xa(a6), -(a7)
        0x0064d614      3f3cffff       move.w 0xffff, -(a7)
        0x0064d618      4eb900595808   jsr K0_DISKMGR.k_create_file
        0x0064d61e      defc0024       adda.w 0x24, a7
        0x0064d622      389f           move.w (a7)+, (a4)
    > 0x0064d624      3d54002a       move.w (a4), 0x2a(a6)
           0x0064d628      554f           subq.w 0x2, a7
           0x0064d62a      3f14           move.w (a4), -(a7)
           0x0064d62c      9efc0100       suba.w 0x100, a7
           0x0064d630      204f           movea.l a7, a0
           0x0064d632      45faf4f7       lea.l 0x64cb2b(pc), a2
           0x0064d636      7012           moveq 0x12, d0
       > 0x0064d638      10da           move.b (a2)+, (a0)+
       < 0x0064d63a      51c8fffc       dbra d0, 0x64d638
           0x0064d63e      4ebafd9c       jsr K91_LIBOPS.warn_if_fail(pc)
           0x0064d642      defc0102       adda.w 0x102, a7
           0x0064d646      4a1f           tst.b (a7)+
       < 0x0064d648      660000fc       bne.w 0x64d746
          0x0064d64c      206e001e       movea.l 0x1e(a6), a0
          0x0064d650      30280004       move.w 0x4(a0), d0
          0x0064d654      02800000ffff   andi.l 0xffff, d0
          0x0064d65a      2f00           move.l d0, -(a7)
          0x0064d65c      48780000       pea.l 0x0
          0x0064d660      48780000       pea.l 0x0
          0x0064d664      4eb900455bb4   jsr CURSORCOM.set_horiz_therm
          0x0064d66a      dec4           adda.w d4, a7
          0x0064d66c      206e0026       movea.l 0x26(a6), a0
          0x0064d670      4850           pea.l (a0)
          0x0064d672      4851           pea.l (a1)
          0x0064d674      1f2e0008       move.b 0x8(a6), -(a7)
          0x0064d678      4417           neg.b (a7)
          0x0064d67a      5217           addq.b 0x1, (a7)
          0x0064d67c      2f3af4c4       move.l 0x64cb42(pc), -(a7)
          0x0064d680      2f3af4bc       move.l 0x64cb3e(pc), -(a7)
          0x0064d684      4eb9005a77d2   jsr K05_LOADSAVE.k_copy_file
          0x0064d68a      defc0012       adda.w 0x12, a7
          0x0064d68e      301f           move.w (a7)+, d0
          0x0064d690      3880           move.w d0, (a4)
          0x0064d692      3f00           move.w d0, -(a7)
          0x0064d694      204f           movea.l a7, a0
          0x0064d696      1210           move.b (a0), d1
          0x0064d698      b23af4ad       cmp.b 0x64cb47(pc), d1
      < 0x0064d69c      6608           bne.b 0x64d6a6
         0x0064d69e      12280001       move.b 0x1(a0), d1
         0x0064d6a2      b23af4a4       cmp.b 0x64cb48(pc), d1
     > 0x0064d6a6      673a           beq.b 0x64d6e2
         0x0064d6a8      487af4a0       pea.l 0x64cb4a(pc)
         0x0064d6ac      4878000b       pea.l 0xb
         0x0064d6b0      2f17           move.l (a7), -(a7)
         0x0064d6b2      4eb9004047ea   jsr p_wts_o
         0x0064d6b8      dec2           adda.w d2, a7
         0x0064d6ba      4857           pea.l (a7)
         0x0064d6bc      48780002       pea.l 0x2
         0x0064d6c0      2f17           move.l (a7), -(a7)
         0x0064d6c2      4eb9004047ea   jsr p_wts_o
         0x0064d6c8      dec2           adda.w d2, a7
         0x0064d6ca      487af48a       pea.l 0x64cb56(pc)
         0x0064d6ce      48780019       pea.l 0x19
         0x0064d6d2      2f17           move.l (a7), -(a7)
         0x0064d6d4      4eb9004047ea   jsr p_wts_o
         0x0064d6da      dec2           adda.w d2, a7
         0x0064d6dc      4eb900404946   jsr p_wtln_o
     > 0x0064d6e2      3d40002a       move.w d0, 0x2a(a6)
          0x0064d6e6      544f           addq.w 0x2, a7
          0x0064d6e8      4a2e0008       tst.b 0x8(a6)
      < 0x0064d6ec      6758           beq.b 0x64d746
         0x0064d6ee      2051           movea.l (a1), a0
         0x0064d6f0      b0c3           cmpa.w d3, a0
     < 0x0064d6f2      6710           beq.b 0x64d704
        0x0064d6f4      554f           subq.w 0x2, a7
        0x0064d6f6      4851           pea.l (a1)
        0x0064d6f8      4227           clr.b -(a7)
        0x0064d6fa      4eb9005a3144   jsr K04_FILEROPS.k_index
        0x0064d700      5c4f           addq.w 0x6, a7
        0x0064d702      389f           move.w (a7)+, (a4)
     > 0x0064d704      3014           move.w (a4), d0
         0x0064d706      b07af468       cmp.w 0x64cb70(pc), d0
     < 0x0064d70a      673a           beq.b 0x64d746
        0x0064d70c      487af465       pea.l 0x64cb73(pc)
        0x0064d710      48780004       pea.l 0x4
        0x0064d714      2f17           move.l (a7), -(a7)
        0x0064d716      4eb9004047ea   jsr p_wts_o
        0x0064d71c      dec2           adda.w d2, a7
        0x0064d71e      4854           pea.l (a4)
        0x0064d720      48780002       pea.l 0x2
        0x0064d724      2f17           move.l (a7), -(a7)
        0x0064d726      4eb9004047ea   jsr p_wts_o
        0x0064d72c      dec2           adda.w d2, a7
        0x0064d72e      487af448       pea.l 0x64cb78(pc)
        0x0064d732      48780026       pea.l 0x26
        0x0064d736      2f17           move.l (a7), -(a7)
        0x0064d738      4eb9004047ea   jsr p_wts_o
        0x0064d73e      dec2           adda.w d2, a7
        0x0064d740      4eb900404946   jsr p_wtln_o
     > 0x0064d746      4cdf1f1f       movem.l (a7)+, d0-d4/a0-a4
           0x0064d74a      4e5e           unlk a6
           0x0064d74c      4e75           rts
            ; CALL XREF from K91_LIBOPS.k91_number @ 0x64e860
            ; CALL XREF from K91_LIBOPS.k91_archive @ 0x64f1fc
 300: K91_LIBOPS.do_calc_dest_nu ();
           0x0064d74e      4e56ffb4       link.w a6, 0xffb4
           0x0064d752      bfd5           cmpa.l (a5), a7
       < 0x0064d754      6206           bhi.b 0x64d75c
          0x0064d756      44fc0002       move.w 0x2, ccr
          0x0064d75a      4e76           trapv
       > 0x0064d75c      defc0042       adda.w 0x42, a7
           0x0064d760      48e7fdf8       movem.l d0-d5/d7/a0-a4, -(a7)
           0x0064d764      43f9008487ca   lea.l 0x8487ca, a1
           0x0064d76a      45ee0010       lea.l 0x10(a6), a2
           0x0064d76e      47ee000c       lea.l 0xc(a6), a3
           0x0064d772      49eefffa       lea.l -0x6(a6), a4
           0x0064d776      243c0000ffff   move.l 0xffff, d2
           0x0064d77c      760c           moveq 0xc, d3
           0x0064d77e      7a01           moveq 0x1, d5
           0x0064d780      4a51           tst.w (a1)
       < 0x0064d782      6612           bne.b 0x64d796
          0x0064d784      2052           movea.l (a2), a0
          0x0064d786      3082           move.w d2, (a0)
          0x0064d788      2053           movea.l (a3), a0
          0x0064d78a      1085           move.b d5, (a0)
          0x0064d78c      206e0008       movea.l 0x8(a6), a0
          0x0064d790      4210           clr.b (a0)
      < 0x0064d792      600000de       bra.w 0x64d872
      > 0x0064d796      594f           subq.w 0x4, a7
          0x0064d798      3011           move.w (a1), d0
          0x0064d79a      c082           and.l d2, d0
          0x0064d79c      0480ffff8000   subi.l 0xffff8000, d0
          0x0064d7a2      b082           cmp.l d2, d0
      < 0x0064d7a4      6302           bls.b 0x64d7a8
         0x0064d7a6      4e4f           trap 0xf
      > 0x0064d7a8      0680ffff8000   addi.l 0xffff8000, d0
          0x0064d7ae      3f00           move.w d0, -(a7)
          0x0064d7b0      4eb90048d992   jsr MENU2COM.get_numeric_val
          0x0064d7b6      544f           addq.w 0x2, a7
          0x0064d7b8      281f           move.l (a7)+, d4
          0x0064d7ba      4eb900408224   jsr fcn.00408224
          0x0064d7c0      2e04           move.l d4, d7
          0x0064d7c2      4254           clr.w (a4)
          0x0064d7c4      4a87           tst.l d7
      < 0x0064d7c6      6c78           bge.b 0x64d840
         0x0064d7c8      554f           subq.w 0x2, a7
         0x0064d7ca      486e0014       pea.l 0x14(a6)
         0x0064d7ce      4854           pea.l (a4)
         0x0064d7d0      4eb9005a19a6   jsr K04_FILEROPS.k_get_number
         0x0064d7d6      504f           addq.w 0x8, a7
         0x0064d7d8      301f           move.w (a7)+, d0
         0x0064d7da      3d40fffe       move.w d0, -0x2(a6)
         0x0064d7de      3f00           move.w d0, -(a7)
         0x0064d7e0      204f           movea.l a7, a0
         0x0064d7e2      1210           move.b (a0), d1
         0x0064d7e4      b23af3f3       cmp.b 0x64cbd9(pc), d1
     < 0x0064d7e8      6608           bne.b 0x64d7f2
        0x0064d7ea      12280001       move.b 0x1(a0), d1
        0x0064d7ee      b23af3ea       cmp.b 0x64cbda(pc), d1
    > 0x0064d7f2      673a           beq.b 0x64d82e
        0x0064d7f4      487af3e6       pea.l 0x64cbdc(pc)
        0x0064d7f8      48780006       pea.l 0x6
        0x0064d7fc      2f17           move.l (a7), -(a7)
        0x0064d7fe      4eb9004047ea   jsr p_wts_o
        0x0064d804      dec3           adda.w d3, a7
        0x0064d806      4857           pea.l (a7)
        0x0064d808      48780002       pea.l 0x2
        0x0064d80c      2f17           move.l (a7), -(a7)
        0x0064d80e      4eb9004047ea   jsr p_wts_o
        0x0064d814      dec3           adda.w d3, a7
        0x0064d816      487af3cb       pea.l 0x64cbe3(pc)
        0x0064d81a      4878001a       pea.l 0x1a
        0x0064d81e      2f17           move.l (a7), -(a7)
        0x0064d820      4eb9004047ea   jsr p_wts_o
        0x0064d826      dec3           adda.w d3, a7
        0x0064d828      4eb900404946   jsr p_wtln_o
    > 0x0064d82e      b07af3ce       cmp.w 0x64cbfe(pc), d0
     < 0x0064d832      6704           beq.b 0x64d838
        0x0064d834      544f           addq.w 0x2, a7
    < 0x0064d836      6008           bra.b 0x64d840
    > 0x0064d838      4eb900404188   jsr p_Unlink
        0x0064d83e      544f           addq.w 0x2, a7
    > 0x0064d840      206e0008       movea.l 0x8(a6), a0
          0x0064d844      4210           clr.b (a0)
          0x0064d846      4a87           tst.l d7
      < 0x0064d848      6f02           ble.b 0x64d84c
         0x0064d84a      5210           addq.b 0x1, (a0)
      > 0x0064d84c      4a87           tst.l d7
      < 0x0064d84e      660a           bne.b 0x64d85a
         0x0064d850      2052           movea.l (a2), a0
         0x0064d852      3082           move.w d2, (a0)
         0x0064d854      2053           movea.l (a3), a0
         0x0064d856      1085           move.b d5, (a0)
     < 0x0064d858      6018           bra.b 0x64d872
     > 0x0064d85a      3f14           move.w (a4), -(a7)
         0x0064d85c      3f11           move.w (a1), -(a7)
         0x0064d85e      4227           clr.b -(a7)
         0x0064d860      2052           movea.l (a2), a0
         0x0064d862      4850           pea.l (a0)
         0x0064d864      2053           movea.l (a3), a0
         0x0064d866      4850           pea.l (a0)
         0x0064d868      4eb90048e12e   jsr MENU2COM.calc_dest_num
         0x0064d86e      defc000e       adda.w 0xe, a7
     > 0x0064d872      4cdf1fbf       movem.l (a7)+, d0-d5/d7/a0-a4
           0x0064d876      4e5e           unlk a6
           0x0064d878      4e75           rts
            ; CALL XREF from K91_LIBOPS.k91_in_grid @ 0x64ee10
 372: K91_LIBOPS.fetch_pic_sten_ ();
           0x0064d87a      4e56fef4       link.w a6, 0xfef4
           0x0064d87e      bfd5           cmpa.l (a5), a7
       < 0x0064d880      6206           bhi.b 0x64d888
          0x0064d882      44fc0002       move.w 0x2, ccr
          0x0064d886      4e76           trapv
       > 0x0064d888      defc007c       adda.w 0x7c, a7
           0x0064d88c      48e7f0f8       movem.l d0-d3/a0-a4, -(a7)
           0x0064d890      45eeff82       lea.l -0x7e(a6), a2
           0x0064d894      47eeff86       lea.l -0x7a(a6), a3
           0x0064d898      49f9008486be   lea.l 0x8486be, a4
           0x0064d89e      223cffff8000   move.l 0xffff8000, d1
           0x0064d8a4      243c0000ffff   move.l 0xffff, d2
           0x0064d8aa      7601           moveq 0x1, d3
           0x0064d8ac      1f03           move.b d3, -(a7)
           0x0064d8ae      4eb900522436   jsr BRUSHCOM.set_write_en
           0x0064d8b4      544f           addq.w 0x2, a7
           0x0064d8b6      1d7c0006ff78   move.b 0x6, -0x88(a6)
           0x0064d8bc      514f           subq.w 0x8, a7
           0x0064d8be      4eb90050050a   jsr MENUGRIDCOM.crnt_grid_area
           0x0064d8c4      249f           move.l (a7)+, (a2)
           0x0064d8c6      269f           move.l (a7)+, (a3)
           0x0064d8c8      3012           move.w (a2), d0
           0x0064d8ca      48c0           ext.l d0
           0x0064d8cc      e180           asl.l 0x8, d0
           0x0064d8ce      e180           asl.l 0x8, d0
           0x0064d8d0      2d40ff70       move.l d0, -0x90(a6)
           0x0064d8d4      302eff84       move.w -0x7c(a6), d0
           0x0064d8d8      48c0           ext.l d0
           0x0064d8da      068000000080   addi.l 0x80, d0
           0x0064d8e0      e180           asl.l 0x8, d0
           0x0064d8e2      e180           asl.l 0x8, d0
           0x0064d8e4      2d40ff74       move.l d0, -0x8c(a6)
           0x0064d8e8      4a14           tst.b (a4)
       < 0x0064d8ea      670a           beq.b 0x64d8f6
          0x0064d8ec      1f03           move.b d3, -(a7)
          0x0064d8ee      4eb9005a9034   jsr K05_LOADSAVE.k05_set_resolut
          0x0064d8f4      544f           addq.w 0x2, a7
       > 0x0064d8f6      41eeffd2       lea.l -0x2e(a6), a0
           0x0064d8fa      43faf0aa       lea.l 0x64c9a6(pc), a1
           0x0064d8fe      700a           moveq 0xa, d0
       > 0x0064d900      20d9           move.l (a1)+, (a0)+
       < 0x0064d902      51c8fffc       dbra d0, 0x64d900
           0x0064d906      30d9           move.w (a1)+, (a0)+
           0x0064d908      554f           subq.w 0x2, a7
           0x0064d90a      206e000c       movea.l 0xc(a6), a0
           0x0064d90e      4850           pea.l (a0)
           0x0064d910      2f2eff74       move.l -0x8c(a6), -(a7)
           0x0064d914      2f2eff70       move.l -0x90(a6), -(a7)
           0x0064d918      2f2eff7e       move.l -0x82(a6), -(a7)
           0x0064d91c      2f2eff7a       move.l -0x86(a6), -(a7)
           0x0064d920      3f2eff78       move.w -0x88(a6), -(a7)
           0x0064d924      204e           movea.l a6, a0
           0x0064d926      700a           moveq 0xa, d0
       > 0x0064d928      2f20           move.l -(a0), -(a7)
       < 0x0064d92a      51c8fffc       dbra d0, 0x64d928
           0x0064d92e      3f20           move.w -(a0), -(a7)
           0x0064d930      1f2e000a       move.b 0xa(a6), -(a7)
           0x0064d934      1f2e0008       move.b 0x8(a6), -(a7)
           0x0064d938      514f           subq.w 0x8, a7
           0x0064d93a      4227           clr.b -(a7)
           0x0064d93c      4eb9006336ea   jsr HANDCOM.get_area
           0x0064d942      544f           addq.w 0x2, a7
           0x0064d944      4eb900664b10   jsr K96_LIB2OPS.k96_do_load
           0x0064d94a      defc0050       adda.w 0x50, a7
           0x0064d94e      3d5f0010       move.w (a7)+, 0x10(a6)
           0x0064d952      4a14           tst.b (a4)
       < 0x0064d954      6770           beq.b 0x64d9c6
          0x0064d956      9efc0048       suba.w 0x48, a7
          0x0064d95a      4eb9005ab364   jsr K05_LOADSAVE.k05_dtpb_tag_da
          0x0064d960      41eeff8a       lea.l -0x76(a6), a0
          0x0064d964      7011           moveq 0x11, d0
      > 0x0064d966      20df           move.l (a7)+, (a0)+
      < 0x0064d968      51c8fffc       dbra d0, 0x64d966
          0x0064d96c      202effc2       move.l -0x3e(a6), d0
          0x0064d970      9081           sub.l d1, d0
          0x0064d972      b082           cmp.l d2, d0
      < 0x0064d974      6302           bls.b 0x64d978
         0x0064d976      4e4f           trap 0xf
      > 0x0064d978      d081           add.l d1, d0
          0x0064d97a      3480           move.w d0, (a2)
          0x0064d97c      202effc6       move.l -0x3a(a6), d0
          0x0064d980      9081           sub.l d1, d0
          0x0064d982      b082           cmp.l d2, d0
      < 0x0064d984      6302           bls.b 0x64d988
         0x0064d986      4e4f           trap 0xf
      > 0x0064d988      d081           add.l d1, d0
          0x0064d98a      3d40ff84       move.w d0, -0x7c(a6)
          0x0064d98e      202eff9c       move.l -0x64(a6), d0
          0x0064d992      9081           sub.l d1, d0
          0x0064d994      b082           cmp.l d2, d0
      < 0x0064d996      6302           bls.b 0x64d99a
         0x0064d998      4e4f           trap 0xf
      > 0x0064d99a      d081           add.l d1, d0
          0x0064d99c      3680           move.w d0, (a3)
          0x0064d99e      202effa0       move.l -0x60(a6), d0
          0x0064d9a2      9081           sub.l d1, d0
          0x0064d9a4      b082           cmp.l d2, d0
      < 0x0064d9a6      6302           bls.b 0x64d9aa
         0x0064d9a8      4e4f           trap 0xf
      > 0x0064d9aa      d081           add.l d1, d0
          0x0064d9ac      3d40ff88       move.w d0, -0x78(a6)
          0x0064d9b0      2f13           move.l (a3), -(a7)
          0x0064d9b2      2f12           move.l (a2), -(a7)
          0x0064d9b4      4eb900500530   jsr MENUGRIDCOM.set_grid_area
          0x0064d9ba      5c4f           addq.w 0x6, a7
          0x0064d9bc      4217           clr.b (a7)
          0x0064d9be      4eb9005a9034   jsr K05_LOADSAVE.k05_set_resolut
          0x0064d9c4      544f           addq.w 0x2, a7
       > 0x0064d9c6      2f39008486c0   move.l 0x8486c0, -(a7)
           0x0064d9cc      4eb9005a9052   jsr K05_LOADSAVE.k_pos_in_grid
           0x0064d9d2      584f           addq.w 0x4, a7
           0x0064d9d4      2079008486c4   movea.l 0x8486c4, a0
           0x0064d9da      4a280001       tst.b 0x1(a0)
       < 0x0064d9de      6706           beq.b 0x64d9e6
          0x0064d9e0      4eb90064ba94   jsr K9_LIBRARY.k9_store_corrup
       > 0x0064d9e6      4cdf1f0f       movem.l (a7)+, d0-d3/a0-a4
           0x0064d9ea      4e5e           unlk a6
           0x0064d9ec      4e75           rts
 932: K91_LIBOPS.fetch_cutout ();
           ; var int32_t var_dbch @ a6-0xdbc
           ; var int32_t var_68h @ a6-0x68
           ; var int32_t var_64h @ a6-0x64
           ; var int32_t var_60h @ a6-0x60
           0x0064d9ee      4e56fe94       link.w a6, 0xfe94
           0x0064d9f2      bfd5           cmpa.l (a5), a7
       < 0x0064d9f4      6206           bhi.b 0x64d9fc
          0x0064d9f6      44fc0002       move.w 0x2, ccr
          0x0064d9fa      4e76           trapv
       > 0x0064d9fc      defc00a2       adda.w 0xa2, a7
           0x0064da00      48e7fff8       movem.l d0-d7/a0-a4, -(a7)
           0x0064da04      45eefff4       lea.l -0xc(a6), a2
           0x0064da08      47eeff36       lea.l -0xca(a6), a3
           0x0064da0c      49eefff6       lea.l -0xa(a6), a4
           0x0064da10      223cffff8000   move.l 0xffff8000, d1
           0x0064da16      740c           moveq 0xc, d2
           0x0064da18      7a01           moveq 0x1, d5
           0x0064da1a      2c3c0000ffff   move.l 0xffff, d6
           0x0064da20      7e0a           moveq 0xa, d7
           0x0064da22      14baf247       move.b 0x64cc6b(pc), (a2)
           0x0064da26      1d7af244fff5   move.b 0x64cc6c(pc), -0xb(a6)
           0x0064da2c      38baf240       move.w 0x64cc6e(pc), (a4)
           0x0064da30      2685           move.l d5, (a3)
           0x0064da32      554f           subq.w 0x2, a7
           0x0064da34      486effaa       pea.l -0x56(a6)
           0x0064da38      4eb900404434   jsr fcn.00404434
           0x0064da3e      584f           addq.w 0x4, a7
           0x0064da40      4a1f           tst.b (a7)+
       < 0x0064da42      67000320       beq.w 0x64dd64
          0x0064da46      206e000a       movea.l 0xa(a6), a0
          0x0064da4a      554f           subq.w 0x2, a7
          0x0064da4c      4850           pea.l (a0)
          0x0064da4e      1f3c0008       move.b 0x8, -(a7)
          0x0064da52      4eb9005a12d4   jsr K04_FILEROPS.k_f_property_av
          0x0064da58      5c4f           addq.w 0x6, a7
          0x0064da5a      4a1f           tst.b (a7)+
      < 0x0064da5c      6708           beq.b 0x64da66
         0x0064da5e      4a2e0008       tst.b 0x8(a6)
     < 0x0064da62      670002f6       beq.w 0x64dd5a
     > 0x0064da66      554f           subq.w 0x2, a7
         0x0064da68      4850           pea.l (a0)
         0x0064da6a      4227           clr.b -(a7)
         0x0064da6c      486eff98       pea.l -0x68(a6)
         0x0064da70      486effa6       pea.l -0x5a(a6)
         0x0064da74      4eb9005a29ec   jsr K04_FILEROPS.k_get_aspect_si
         0x0064da7a      defc000e       adda.w 0xe, a7
         0x0064da7e      349f           move.w (a7)+, (a2)
         0x0064da80      1012           move.b (a2), d0
         0x0064da82      b03af1ed       cmp.b 0x64cc71(pc), d0
     < 0x0064da86      6608           bne.b 0x64da90
        0x0064da88      102efff5       move.b -0xb(a6), d0
        0x0064da8c      b03af1e4       cmp.b 0x64cc72(pc), d0
    > 0x0064da90      670c           beq.b 0x64da9e
        0x0064da92      486effaa       pea.l -0x56(a6)
        0x0064da96      4eb900404468   jsr fcn.00404468
        0x0064da9c      584f           addq.w 0x4, a7
    > 0x0064da9e      2d6eff98ff8e   move.l -0x68(a6), -0x72(a6)
         0x0064daa4      2d6eff9cff92   move.l -0x64(a6), -0x6e(a6)
         0x0064daaa      3d6effa0ff96   move.w -0x60(a6), -0x6a(a6)
         0x0064dab0      594f           subq.w 0x4, a7
         0x0064dab2      4eb900633bb2   jsr HANDCOM.get_pixel_aspec
         0x0064dab8      2d5fffa2       move.l (a7)+, -0x5e(a6)
         0x0064dabc      382effa2       move.w -0x5e(a6), d4
         0x0064dac0      48c4           ext.l d4
         0x0064dac2      4eb900408686   jsr fcn.00408686
         0x0064dac8      2f04           move.l d4, -(a7)
         0x0064daca      382effa6       move.w -0x5a(a6), d4
         0x0064dace      48c4           ext.l d4
         0x0064dad0      4eb900408686   jsr fcn.00408686
         0x0064dad6      2604           move.l d4, d3
         0x0064dad8      2817           move.l (a7), d4
         0x0064dada      4eb900407ff8   jsr fcn.00407ff8
         0x0064dae0      584f           addq.w 0x4, a7
         0x0064dae2      2d44fff8       move.l d4, -0x8(a6)
         0x0064dae6      382effa4       move.w -0x5c(a6), d4
         0x0064daea      48c4           ext.l d4
         0x0064daec      4eb900408686   jsr fcn.00408686
         0x0064daf2      2f04           move.l d4, -(a7)
         0x0064daf4      382effa8       move.w -0x58(a6), d4
         0x0064daf8      48c4           ext.l d4
         0x0064dafa      4eb900408686   jsr fcn.00408686
         0x0064db00      2604           move.l d4, d3
         0x0064db02      2817           move.l (a7), d4
         0x0064db04      4eb900407ff8   jsr fcn.00407ff8
         0x0064db0a      584f           addq.w 0x4, a7
         0x0064db0c      2d44fffc       move.l d4, -0x4(a6)
         0x0064db10      2f04           move.l d4, -(a7)
         0x0064db12      382eff98       move.w -0x68(a6), d4
         0x0064db16      48c4           ext.l d4
         0x0064db18      4eb900408686   jsr fcn.00408686
         0x0064db1e      262efff8       move.l -0x8(a6), d3
         0x0064db22      4eb900407e92   jsr fcn.00407e92
         0x0064db28      4eb900408224   jsr fcn.00408224
         0x0064db2e      9881           sub.l d1, d4
         0x0064db30      b886           cmp.l d6, d4
     < 0x0064db32      6302           bls.b 0x64db36
        0x0064db34      4e4f           trap 0xf
     > 0x0064db36      d881           add.l d1, d4
         0x0064db38      3d44ff8e       move.w d4, -0x72(a6)
         0x0064db3c      382eff9a       move.w -0x66(a6), d4
         0x0064db40      48c4           ext.l d4
         0x0064db42      4eb900408686   jsr fcn.00408686
         0x0064db48      2617           move.l (a7), d3
         0x0064db4a      4eb900407e92   jsr fcn.00407e92
         0x0064db50      584f           addq.w 0x4, a7
         0x0064db52      4eb900408224   jsr fcn.00408224
         0x0064db58      9881           sub.l d1, d4
         0x0064db5a      b886           cmp.l d6, d4
     < 0x0064db5c      6302           bls.b 0x64db60
        0x0064db5e      4e4f           trap 0xf
     > 0x0064db60      d881           add.l d1, d4
         0x0064db62      3d44ff90       move.w d4, -0x70(a6)
         0x0064db66      302eff8e       move.w -0x72(a6), d0
         0x0064db6a      48c0           ext.l d0
         0x0064db6c      5e80           addq.l 0x7, d0
         0x0064db6e      2800           move.l d0, d4
         0x0064db70      7608           moveq 0x8, d3
         0x0064db72      4eb900406b50   jsr fcn.00406b50
         0x0064db78      e784           asl.l 0x3, d4
         0x0064db7a      9881           sub.l d1, d4
         0x0064db7c      b886           cmp.l d6, d4
     < 0x0064db7e      6302           bls.b 0x64db82
        0x0064db80      4e4f           trap 0xf
     > 0x0064db82      d881           add.l d1, d4
         0x0064db84      3d44ff8e       move.w d4, -0x72(a6)
         0x0064db88      302eff90       move.w -0x70(a6), d0
         0x0064db8c      48c0           ext.l d0
         0x0064db8e      5680           addq.l 0x3, d0
         0x0064db90      2800           move.l d0, d4
         0x0064db92      7604           moveq 0x4, d3
         0x0064db94      4eb900406b50   jsr fcn.00406b50
         0x0064db9a      e584           asl.l 0x2, d4
         0x0064db9c      9881           sub.l d1, d4
         0x0064db9e      b886           cmp.l d6, d4
     < 0x0064dba0      6302           bls.b 0x64dba4
        0x0064dba2      4e4f           trap 0xf
     > 0x0064dba4      d881           add.l d1, d4
         0x0064dba6      3d44ff90       move.w d4, -0x70(a6)
         0x0064dbaa      554f           subq.w 0x2, a7
         0x0064dbac      4227           clr.b -(a7)
         0x0064dbae      4850           pea.l (a0)
         0x0064dbb0      486eff3a       pea.l -0xc6(a6)
         0x0064dbb4      4eb9005a14ae   jsr K04_FILEROPS.k_name
         0x0064dbba      dec7           adda.w d7, a7
         0x0064dbbc      349f           move.w (a7)+, (a2)
         0x0064dbbe      3012           move.w (a2), d0
         0x0064dbc0      b07af0b2       cmp.w 0x64cc74(pc), d0
     < 0x0064dbc4      670c           beq.b 0x64dbd2
        0x0064dbc6      486effaa       pea.l -0x56(a6)
        0x0064dbca      4eb900404468   jsr fcn.00404468
        0x0064dbd0      584f           addq.w 0x4, a7
     > 0x0064dbd2      102eff8b       move.b -0x75(a6), d0
         0x0064dbd6      0c00000f       cmpi.b 0xf, d0
     < 0x0064dbda      6706           beq.b 0x64dbe2
        0x0064dbdc      0c000010       cmpi.b 0x10, d0
    < 0x0064dbe0      6606           bne.b 0x64dbe8
    > 0x0064dbe2      1d7c0004ff8b   move.b 0x4, -0x75(a6)
    > 0x0064dbe8      554f           subq.w 0x2, a7
         0x0064dbea      4850           pea.l (a0)
         0x0064dbec      4853           pea.l (a3)
         0x0064dbee      486eff8e       pea.l -0x72(a6)
         0x0064dbf2      486eff3a       pea.l -0xc6(a6)
         0x0064dbf6      2f3af082       move.l 0x64cc7a(pc), -(a7)
         0x0064dbfa      2f3af07a       move.l 0x64cc76(pc), -(a7)
         0x0064dbfe      2f3af082       move.l 0x64cc82(pc), -(a7)
         0x0064dc02      2f3af07a       move.l 0x64cc7e(pc), -(a7)
         0x0064dc06      1f05           move.b d5, -(a7)
         0x0064dc08      4ebaf912       jsr K91_LIBOPS.create_and_copy(pc)
         0x0064dc0c      defc0022       adda.w 0x22, a7
         0x0064dc10      349f           move.w (a7)+, (a2)
         0x0064dc12      1012           move.b (a2), d0
         0x0064dc14      b03af089       cmp.b 0x64cc9f(pc), d0
     < 0x0064dc18      6608           bne.b 0x64dc22
        0x0064dc1a      102efff5       move.b -0xb(a6), d0
        0x0064dc1e      b03af080       cmp.b 0x64cca0(pc), d0
    > 0x0064dc22      670c           beq.b 0x64dc30
        0x0064dc24      486effaa       pea.l -0x56(a6)
        0x0064dc28      4eb900404468   jsr fcn.00404468
        0x0064dc2e      584f           addq.w 0x4, a7
    > 0x0064dc30      554f           subq.w 0x2, a7
         0x0064dc32      4853           pea.l (a3)
         0x0064dc34      1f3c0003       move.b 0x3, -(a7)
         0x0064dc38      4eb9005a3144   jsr K04_FILEROPS.k_index
         0x0064dc3e      5c4f           addq.w 0x6, a7
         0x0064dc40      349f           move.w (a7)+, (a2)
         0x0064dc42      3012           move.w (a2), d0
         0x0064dc44      b07af05c       cmp.w 0x64cca2(pc), d0
     < 0x0064dc48      673a           beq.b 0x64dc84
        0x0064dc4a      487af059       pea.l 0x64cca5(pc)
        0x0064dc4e      48780004       pea.l 0x4
        0x0064dc52      2f17           move.l (a7), -(a7)
        0x0064dc54      4eb9004047ea   jsr p_wts_o
        0x0064dc5a      dec2           adda.w d2, a7
        0x0064dc5c      4852           pea.l (a2)
        0x0064dc5e      48780002       pea.l 0x2
        0x0064dc62      2f17           move.l (a7), -(a7)
        0x0064dc64      4eb9004047ea   jsr p_wts_o
        0x0064dc6a      dec2           adda.w d2, a7
        0x0064dc6c      487af03c       pea.l 0x64ccaa(pc)
        0x0064dc70      48780023       pea.l 0x23
        0x0064dc74      2f17           move.l (a7), -(a7)
        0x0064dc76      4eb9004047ea   jsr p_wts_o
        0x0064dc7c      dec2           adda.w d2, a7
        0x0064dc7e      4eb900404946   jsr p_wtln_o
     > 0x0064dc84      514f           subq.w 0x8, a7
         0x0064dc86      2f3af046       move.l 0x64ccce(pc), -(a7)
         0x0064dc8a      2f7af0460004   move.l 0x64ccd2(pc), 0x4(a7)
         0x0064dc90      3f7af0440008   move.w 0x64ccd6(pc), 0x8(a7)
         0x0064dc96      1f7af040000a   move.b 0x64ccd8(pc), 0xa(a7)
         0x0064dc9c      9efc0052       suba.w 0x52, a7
         0x0064dca0      486f0052       pea.l 0x52(a7)
         0x0064dca4      3f05           move.w d5, -(a7)
         0x0064dca6      3f3c000b       move.w 0xb, -(a7)
         0x0064dcaa      4eb9005b04aa   jsr K3_UTILS.k3_make_str
         0x0064dcb0      504f           addq.w 0x8, a7
         0x0064dcb2      43eeff3a       lea.l -0xc6(a6), a1
         0x0064dcb6      7013           moveq 0x13, d0
     > 0x0064dcb8      22df           move.l (a7)+, (a1)+
     < 0x0064dcba      51c8fffc       dbra d0, 0x64dcb8
         0x0064dcbe      12df           move.b (a7)+, (a1)+
         0x0064dcc0      504f           addq.w 0x8, a7
         0x0064dcc2      1e85           move.b d5, (a7)
         0x0064dcc4      4853           pea.l (a3)
         0x0064dcc6      486eff3a       pea.l -0xc6(a6)
         0x0064dcca      4eb9005a14ae   jsr K04_FILEROPS.k_name
         0x0064dcd0      dec7           adda.w d7, a7
         0x0064dcd2      3497           move.w (a7), (a2)
         0x0064dcd4      4853           pea.l (a3)
         0x0064dcd6      4227           clr.b -(a7)
         0x0064dcd8      4eb9005a3144   jsr K04_FILEROPS.k_index
         0x0064dcde      5c4f           addq.w 0x6, a7
         0x0064dce0      389f           move.w (a7)+, (a4)
         0x0064dce2      3014           move.w (a4), d0
         0x0064dce4      b07aeff4       cmp.w 0x64ccda(pc), d0
     < 0x0064dce8      673a           beq.b 0x64dd24
        0x0064dcea      487aeff1       pea.l 0x64ccdd(pc)
        0x0064dcee      48780004       pea.l 0x4
        0x0064dcf2      2f17           move.l (a7), -(a7)
        0x0064dcf4      4eb9004047ea   jsr p_wts_o
        0x0064dcfa      dec2           adda.w d2, a7
        0x0064dcfc      4852           pea.l (a2)
        0x0064dcfe      48780002       pea.l 0x2
        0x0064dd02      2f17           move.l (a7), -(a7)
        0x0064dd04      4eb9004047ea   jsr p_wts_o
        0x0064dd0a      dec2           adda.w d2, a7
        0x0064dd0c      487aefd4       pea.l 0x64cce2(pc)
        0x0064dd10      48780023       pea.l 0x23
        0x0064dd14      2f17           move.l (a7), -(a7)
        0x0064dd16      4eb9004047ea   jsr p_wts_o
        0x0064dd1c      dec2           adda.w d2, a7
        0x0064dd1e      4eb900404946   jsr p_wtln_o
     > 0x0064dd24      3012           move.w (a2), d0
         0x0064dd26      b07aefde       cmp.w 0x64cd06(pc), d0
     < 0x0064dd2a      670c           beq.b 0x64dd38
        0x0064dd2c      486effaa       pea.l -0x56(a6)
        0x0064dd30      4eb900404468   jsr fcn.00404468
        0x0064dd36      584f           addq.w 0x4, a7
     > 0x0064dd38      1014           move.b (a4), d0
         0x0064dd3a      b03aefcd       cmp.b 0x64cd09(pc), d0
     < 0x0064dd3e      6608           bne.b 0x64dd48
        0x0064dd40      102efff7       move.b -0x9(a6), d0
        0x0064dd44      b03aefc4       cmp.b 0x64cd0a(pc), d0
    > 0x0064dd48      670c           beq.b 0x64dd56
        0x0064dd4a      486effaa       pea.l -0x56(a6)
        0x0064dd4e      4eb900404468   jsr fcn.00404468
        0x0064dd54      584f           addq.w 0x4, a7
    > 0x0064dd56      4853           pea.l (a3)
     < 0x0064dd58      6002           bra.b 0x64dd5c
     > 0x0064dd5a      4850           pea.l (a0)
      > 0x0064dd5c      4eb900671752   jsr PASTECOM.sel_cutout
          0x0064dd62      584f           addq.w 0x4, a7
       > 0x0064dd64      2053           movea.l (a3), a0
           0x0064dd66      b0c5           cmpa.w d5, a0
       < 0x0064dd68      670e           beq.b 0x64dd78
          0x0064dd6a      554f           subq.w 0x2, a7
          0x0064dd6c      4853           pea.l (a3)
          0x0064dd6e      4eb900594e02   jsr K0_DISKMGR.k_lose_ref
          0x0064dd74      584f           addq.w 0x4, a7
          0x0064dd76      389f           move.w (a7)+, (a4)
       > 0x0064dd78      3012           move.w (a2), d0
           0x0064dd7a      b07aef90       cmp.w 0x64cd0c(pc), d0
       < 0x0064dd7e      6606           bne.b 0x64dd86
          0x0064dd80      3d54000e       move.w (a4), 0xe(a6)
      < 0x0064dd84      6004           bra.b 0x64dd8a
      > 0x0064dd86      3d52000e       move.w (a2), 0xe(a6)
      > 0x0064dd8a      4cdf1fff       movem.l (a7)+, d0-d7/a0-a4
           0x0064dd8e      4e5e           unlk a6
           0x0064dd90      4e75           rts
 112: K91_LIBOPS.fetch_colour_cu ();
           0x0064dd92      4e56fa8e       link.w a6, 0xfa8e
           0x0064dd96      bfd5           cmpa.l (a5), a7
       < 0x0064dd98      6206           bhi.b 0x64dda0
          0x0064dd9a      44fc0002       move.w 0x2, ccr
          0x0064dd9e      4e76           trapv
       > 0x0064dda0      defc0022       adda.w 0x22, a7
           0x0064dda4      48e780c0       movem.l d0/a0-a1, -(a7)
           0x0064dda8      43eefffe       lea.l -0x2(a6), a1
           0x0064ddac      554f           subq.w 0x2, a7
           0x0064ddae      206e0008       movea.l 0x8(a6), a0
           0x0064ddb2      4850           pea.l (a0)
           0x0064ddb4      48780000       pea.l 0x0
           0x0064ddb8      41eefab0       lea.l -0x550(a6), a0
           0x0064ddbc      2f08           move.l a0, -(a7)
           0x0064ddbe      4878054e       pea.l 0x54e
           0x0064ddc2      4eb9005a2dba   jsr K04_FILEROPS.k_read_mem_file
           0x0064ddc8      defc0010       adda.w 0x10, a7
           0x0064ddcc      329f           move.w (a7)+, (a1)
           0x0064ddce      1011           move.b (a1), d0
           0x0064ddd0      b03aef3d       cmp.b 0x64cd0f(pc), d0
       < 0x0064ddd4      6608           bne.b 0x64ddde
          0x0064ddd6      102effff       move.b -0x1(a6), d0
          0x0064ddda      b03aef34       cmp.b 0x64cd10(pc), d0
      > 0x0064ddde      6616           bne.b 0x64ddf6
          0x0064dde0      554f           subq.w 0x2, a7
          0x0064dde2      486efab0       pea.l -0x550(a6)
          0x0064dde6      4eb900749c46   jsr MENUFETTLECOM.set_colour_curv
          0x0064ddec      584f           addq.w 0x4, a7
          0x0064ddee      4a1f           tst.b (a7)+
      < 0x0064ddf0      6604           bne.b 0x64ddf6
         0x0064ddf2      32baef1e       move.w 0x64cd12(pc), (a1)
      > 0x0064ddf6      3d51000c       move.w (a1), 0xc(a6)
           0x0064ddfa      4cdf0301       movem.l (a7)+, d0/a0-a1
           0x0064ddfe      4e5e           unlk a6
           0x0064de00      4e75           rts
 44: K91_LIBOPS.fetch_scanner_s ();
           ; var int32_t var_1110h @ a6-0x1110
           ; var int32_t var_110bh @ a6-0x110b
           0x0064de02      4e56fff0       link.w a6, 0xfff0
           0x0064de06      bfd5           cmpa.l (a5), a7
       < 0x0064de08      6206           bhi.b 0x64de10
          0x0064de0a      44fc0002       move.w 0x2, ccr
          0x0064de0e      4e76           trapv
       > 0x0064de10      defc0006       adda.w 0x6, a7
           0x0064de14      4227           clr.b -(a7)
           0x0064de16      4eb90040452a   jsr p_Assert
           0x0064de1c      544f           addq.w 0x2, a7
           0x0064de1e      1d7aeef5000c   move.b 0x64cd15(pc), 0xc(a6)
           0x0064de24      1d7aeef0000d   move.b 0x64cd16(pc), 0xd(a6)
           0x0064de2a      4e5e           unlk a6
           0x0064de2c      4e75           rts
 92: K91_LIBOPS.fetch_grid ();
           0x0064de2e      4e56fe26       link.w a6, 0xfe26
           0x0064de32      bfd5           cmpa.l (a5), a7
       < 0x0064de34      6206           bhi.b 0x64de3c
          0x0064de36      44fc0002       move.w 0x2, ccr
          0x0064de3a      4e76           trapv
       > 0x0064de3c      defc00f4       adda.w 0xf4, a7
           0x0064de40      48e780c0       movem.l d0/a0-a1, -(a7)
           0x0064de44      43eefffe       lea.l -0x2(a6), a1
           0x0064de48      554f           subq.w 0x2, a7
           0x0064de4a      4227           clr.b -(a7)
           0x0064de4c      206e0008       movea.l 0x8(a6), a0
           0x0064de50      4850           pea.l (a0)
           0x0064de52      486eff1a       pea.l -0xe6(a6)
           0x0064de56      4eb9005a1fc4   jsr K04_FILEROPS.k_grid_data
           0x0064de5c      defc000a       adda.w 0xa, a7
           0x0064de60      329f           move.w (a7)+, (a1)
           0x0064de62      3011           move.w (a1), d0
           0x0064de64      b07aeeb2       cmp.w 0x64cd18(pc), d0
       < 0x0064de68      6614           bne.b 0x64de7e
          0x0064de6a      2049           movea.l a1, a0
          0x0064de6c      7038           moveq 0x38, d0
      > 0x0064de6e      2f20           move.l -(a0), -(a7)
      < 0x0064de70      51c8fffc       dbra d0, 0x64de6e
          0x0064de74      4eb9004ff4ec   jsr MENUGRIDCOM.sel_grid
          0x0064de7a      defc00e4       adda.w 0xe4, a7
       > 0x0064de7e      3d51000c       move.w (a1), 0xc(a6)
           0x0064de82      4cdf0301       movem.l (a7)+, d0/a0-a1
           0x0064de86      4e5e           unlk a6
           0x0064de88      4e75           rts
 158: K91_LIBOPS.fetch_effects_s ();
           0x0064de8a      4e56fbe2       link.w a6, 0xfbe2
           0x0064de8e      bfd5           cmpa.l (a5), a7
       < 0x0064de90      6206           bhi.b 0x64de98
          0x0064de92      44fc0002       move.w 0x2, ccr
          0x0064de96      4e76           trapv
       > 0x0064de98      defc002e       adda.w 0x2e, a7
           0x0064de9c      48e7c1e0       movem.l d0-d1/d7/a0-a2, -(a7)
           0x0064dea0      43eefffd       lea.l -0x3(a6), a1
           0x0064dea4      45eefffe       lea.l -0x2(a6), a2
           0x0064dea8      7201           moveq 0x1, d1
           0x0064deaa      554f           subq.w 0x2, a7
           0x0064deac      206e0008       movea.l 0x8(a6), a0
           0x0064deb0      4850           pea.l (a0)
           0x0064deb2      48780000       pea.l 0x0
           0x0064deb6      41eefc10       lea.l -0x3f0(a6), a0
           0x0064deba      2f08           move.l a0, -(a7)
           0x0064debc      487803ec       pea.l 0x3ec
           0x0064dec0      4eb9005a2dba   jsr K04_FILEROPS.k_read_mem_file
           0x0064dec6      defc0010       adda.w 0x10, a7
           0x0064deca      1297           move.b (a7), (a1)
           0x0064decc      14af0001       move.b 0x1(a7), (a2)
           0x0064ded0      544f           addq.w 0x2, a7
           0x0064ded2      1011           move.b (a1), d0
           0x0064ded4      b03aee45       cmp.b 0x64cd1b(pc), d0
       < 0x0064ded8      6606           bne.b 0x64dee0
          0x0064deda      1012           move.b (a2), d0
          0x0064dedc      b03aee3e       cmp.b 0x64cd1c(pc), d0
      > 0x0064dee0      6636           bne.b 0x64df18
          0x0064dee2      102e000c       move.b 0xc(a6), d0
          0x0064dee6      0c00004b       cmpi.b 0x4b, d0
      < 0x0064deea      6606           bne.b 0x64def2
         0x0064deec      554f           subq.w 0x2, a7
         0x0064deee      3f01           move.w d1, -(a7)
     < 0x0064def0      6006           bra.b 0x64def8
     > 0x0064def2      554f           subq.w 0x2, a7
         0x0064def4      3f3c0002       move.w 0x2, -(a7)
     > 0x0064def8      486efc10       pea.l -0x3f0(a6)
          0x0064defc      4eb9007442ee   jsr MENUEFFECTCOM.set_eff_data
          0x0064df02      5c4f           addq.w 0x6, a7
          0x0064df04      101f           move.b (a7)+, d0
          0x0064df06      4880           ext.w d0
          0x0064df08      4181           chk.w d1, d0
          0x0064df0a      1e00           move.b d0, d7
          0x0064df0c      4a07           tst.b d7
      < 0x0064df0e      6608           bne.b 0x64df18
         0x0064df10      12baee0c       move.b 0x64cd1e(pc), (a1)
         0x0064df14      14baee09       move.b 0x64cd1f(pc), (a2)
      > 0x0064df18      1d51000e       move.b (a1), 0xe(a6)
           0x0064df1c      1d52000f       move.b (a2), 0xf(a6)
           0x0064df20      4cdf0783       movem.l (a7)+, d0-d1/d7/a0-a2
           0x0064df24      4e5e           unlk a6
           0x0064df26      4e75           rts
 170: K91_LIBOPS.fetch_palette ();
           0x0064df28      4e56ff56       link.w a6, 0xff56
           0x0064df2c      bfd5           cmpa.l (a5), a7
       < 0x0064df2e      6206           bhi.b 0x64df36
          0x0064df30      44fc0002       move.w 0x2, ccr
          0x0064df34      4e76           trapv
       > 0x0064df36      defc0068       adda.w 0x68, a7
           0x0064df3a      48e780e0       movem.l d0/a0-a2, -(a7)
           0x0064df3e      45eeffd0       lea.l -0x30(a6), a2
           0x0064df42      41eeffd2       lea.l -0x2e(a6), a0
           0x0064df46      43faea5e       lea.l 0x64c9a6(pc), a1
           0x0064df4a      700a           moveq 0xa, d0
       > 0x0064df4c      20d9           move.l (a1)+, (a0)+
       < 0x0064df4e      51c8fffc       dbra d0, 0x64df4c
           0x0064df52      30d9           move.w (a1)+, (a0)+
           0x0064df54      1d7c0003ffee   move.b 0x3, -0x12(a6)
           0x0064df5a      42aeffbe       clr.l -0x42(a6)
           0x0064df5e      42aeffc2       clr.l -0x3e(a6)
           0x0064df62      422effc6       clr.b -0x3a(a6)
           0x0064df66      554f           subq.w 0x2, a7
           0x0064df68      206e0008       movea.l 0x8(a6), a0
           0x0064df6c      4850           pea.l (a0)
           0x0064df6e      2f2effc2       move.l -0x3e(a6), -(a7)
           0x0064df72      2f2effbe       move.l -0x42(a6), -(a7)
           0x0064df76      2f2effcc       move.l -0x34(a6), -(a7)
           0x0064df7a      2f2effc8       move.l -0x38(a6), -(a7)
           0x0064df7e      3f2effc6       move.w -0x3a(a6), -(a7)
           0x0064df82      204e           movea.l a6, a0
           0x0064df84      700a           moveq 0xa, d0
       > 0x0064df86      2f20           move.l -(a0), -(a7)
       < 0x0064df88      51c8fffc       dbra d0, 0x64df86
           0x0064df8c      3f20           move.w -(a0), -(a7)
           0x0064df8e      1f3c0002       move.b 0x2, -(a7)
           0x0064df92      4227           clr.b -(a7)
           0x0064df94      514f           subq.w 0x8, a7
           0x0064df96      1f3c0008       move.b 0x8, -(a7)
           0x0064df9a      4eb9006336ea   jsr HANDCOM.get_area
           0x0064dfa0      544f           addq.w 0x2, a7
           0x0064dfa2      4eb900664b10   jsr K96_LIB2OPS.k96_do_load
           0x0064dfa8      defc0050       adda.w 0x50, a7
           0x0064dfac      349f           move.w (a7)+, (a2)
           0x0064dfae      1012           move.b (a2), d0
           0x0064dfb0      b03aed6f       cmp.b 0x64cd21(pc), d0
       < 0x0064dfb4      6608           bne.b 0x64dfbe
          0x0064dfb6      102effd1       move.b -0x2f(a6), d0
          0x0064dfba      b03aed66       cmp.b 0x64cd22(pc), d0
      > 0x0064dfbe      6606           bne.b 0x64dfc6
          0x0064dfc0      4eb9006367ee   jsr PALETCOM.pal_redraw
      > 0x0064dfc6      3d52000c       move.w (a2), 0xc(a6)
           0x0064dfca      4cdf0701       movem.l (a7)+, d0/a0-a2
           0x0064dfce      4e5e           unlk a6
           0x0064dfd0      4e75           rts
 298: K91_LIBOPS.fetch_stack ();
           0x0064dfd2      4e56ff0a       link.w a6, 0xff0a
           0x0064dfd6      bfd5           cmpa.l (a5), a7
       < 0x0064dfd8      6206           bhi.b 0x64dfe0
          0x0064dfda      44fc0002       move.w 0x2, ccr
          0x0064dfde      4e76           trapv
       > 0x0064dfe0      defc0048       adda.w 0x48, a7
           0x0064dfe4      48e7c0f8       movem.l d0-d1/a0-a4, -(a7)
           0x0064dfe8      43eefffe       lea.l -0x2(a6), a1
           0x0064dfec      45eeffb4       lea.l -0x4c(a6), a2
           0x0064dff0      47f900404468   lea.l fcn.00404468, a3
           0x0064dff6      49eeff52       lea.l -0xae(a6), a4
           0x0064dffa      7201           moveq 0x1, d1
           0x0064dffc      554f           subq.w 0x2, a7
           0x0064dffe      4852           pea.l (a2)
           0x0064e000      4eb900404434   jsr fcn.00404434
           0x0064e006      584f           addq.w 0x4, a7
           0x0064e008      4a1f           tst.b (a7)+
       < 0x0064e00a      670000e4       beq.w 0x64e0f0
          0x0064e00e      206e0008       movea.l 0x8(a6), a0
          0x0064e012      554f           subq.w 0x2, a7
          0x0064e014      4850           pea.l (a0)
          0x0064e016      1f3c0009       move.b 0x9, -(a7)
          0x0064e01a      4eb9005a12d4   jsr K04_FILEROPS.k_f_property_av
          0x0064e020      5c4f           addq.w 0x6, a7
          0x0064e022      4a1f           tst.b (a7)+
      < 0x0064e024      670e           beq.b 0x64e034
         0x0064e026      554f           subq.w 0x2, a7
         0x0064e028      4850           pea.l (a0)
         0x0064e02a      4eb9004c06c2   jsr MENUCELLCOM.sel_stack
     < 0x0064e030      600000ba       bra.w 0x64e0ec
     > 0x0064e034      554f           subq.w 0x2, a7
         0x0064e036      4850           pea.l (a0)
         0x0064e038      486eff56       pea.l -0xaa(a6)
         0x0064e03c      4eb9005a2894   jsr K04_FILEROPS.k_get_file_size
         0x0064e042      504f           addq.w 0x8, a7
         0x0064e044      329f           move.w (a7)+, (a1)
         0x0064e046      3011           move.w (a1), d0
         0x0064e048      b07aecda       cmp.w 0x64cd24(pc), d0
     < 0x0064e04c      6706           beq.b 0x64e054
        0x0064e04e      4852           pea.l (a2)
        0x0064e050      4e93           jsr (a3)                    ; fcn.0000000c
        0x0064e052      584f           addq.w 0x4, a7
     > 0x0064e054      554f           subq.w 0x2, a7
         0x0064e056      4227           clr.b -(a7)
         0x0064e058      4850           pea.l (a0)
         0x0064e05a      486eff60       pea.l -0xa0(a6)
         0x0064e05e      4eb9005a14ae   jsr K04_FILEROPS.k_name
         0x0064e064      defc000a       adda.w 0xa, a7
         0x0064e068      329f           move.w (a7)+, (a1)
         0x0064e06a      1011           move.b (a1), d0
         0x0064e06c      b03aecb9       cmp.b 0x64cd27(pc), d0
     < 0x0064e070      6608           bne.b 0x64e07a
        0x0064e072      102effff       move.b -0x1(a6), d0
        0x0064e076      b03aecb0       cmp.b 0x64cd28(pc), d0
    > 0x0064e07a      6706           beq.b 0x64e082
        0x0064e07c      4852           pea.l (a2)
        0x0064e07e      4e93           jsr (a3)                    ; fcn.0000000c
        0x0064e080      584f           addq.w 0x4, a7
    > 0x0064e082      2881           move.l d1, (a4)
         0x0064e084      554f           subq.w 0x2, a7
         0x0064e086      4850           pea.l (a0)
         0x0064e088      4854           pea.l (a4)
         0x0064e08a      486eff56       pea.l -0xaa(a6)
         0x0064e08e      486eff60       pea.l -0xa0(a6)
         0x0064e092      2f3aec9a       move.l 0x64cd2e(pc), -(a7)
         0x0064e096      2f3aec92       move.l 0x64cd2a(pc), -(a7)
         0x0064e09a      2f3aebe6       move.l 0x64cc82(pc), -(a7)
         0x0064e09e      2f3aebde       move.l 0x64cc7e(pc), -(a7)
         0x0064e0a2      1f01           move.b d1, -(a7)
         0x0064e0a4      4ebaf476       jsr K91_LIBOPS.create_and_copy(pc)
         0x0064e0a8      defc0022       adda.w 0x22, a7
         0x0064e0ac      329f           move.w (a7)+, (a1)
         0x0064e0ae      1011           move.b (a1), d0
         0x0064e0b0      b03aec81       cmp.b 0x64cd33(pc), d0
     < 0x0064e0b4      6608           bne.b 0x64e0be
        0x0064e0b6      102effff       move.b -0x1(a6), d0
        0x0064e0ba      b03aec78       cmp.b 0x64cd34(pc), d0
    > 0x0064e0be      6706           beq.b 0x64e0c6
        0x0064e0c0      4852           pea.l (a2)
        0x0064e0c2      4e93           jsr (a3)                    ; fcn.0000000c
        0x0064e0c4      584f           addq.w 0x4, a7
    > 0x0064e0c6      554f           subq.w 0x2, a7
         0x0064e0c8      4854           pea.l (a4)
         0x0064e0ca      4eb9004c06c2   jsr MENUCELLCOM.sel_stack
         0x0064e0d0      584f           addq.w 0x4, a7
         0x0064e0d2      329f           move.w (a7)+, (a1)
         0x0064e0d4      3011           move.w (a1), d0
         0x0064e0d6      b07aec5e       cmp.w 0x64cd36(pc), d0
     < 0x0064e0da      6706           beq.b 0x64e0e2
        0x0064e0dc      4852           pea.l (a2)
        0x0064e0de      4e93           jsr (a3)                    ; fcn.0000000c
        0x0064e0e0      584f           addq.w 0x4, a7
     > 0x0064e0e2      554f           subq.w 0x2, a7
         0x0064e0e4      4854           pea.l (a4)
         0x0064e0e6      4eb900594e02   jsr K0_DISKMGR.k_lose_ref
     > 0x0064e0ec      584f           addq.w 0x4, a7
          0x0064e0ee      329f           move.w (a7)+, (a1)
       > 0x0064e0f0      3d51000c       move.w (a1), 0xc(a6)
           0x0064e0f4      4cdf1f03       movem.l (a7)+, d0-d1/a0-a4
           0x0064e0f8      4e5e           unlk a6
           0x0064e0fa      4e75           rts
 434: K91_LIBOPS.fetch_font ();
           0x0064e0fc      4e56fccc       link.w a6, 0xfccc
           0x0064e100      bfd5           cmpa.l (a5), a7
       < 0x0064e102      6206           bhi.b 0x64e10a
          0x0064e104      44fc0002       move.w 0x2, ccr
          0x0064e108      4e76           trapv
       > 0x0064e10a      defc0182       adda.w 0x182, a7
           0x0064e10e      48e7e0f8       movem.l d0-d2/a0-a4, -(a7)
           0x0064e112      45eefeb4       lea.l -0x14c(a6), a2
           0x0064e116      47eefeb6       lea.l -0x14a(a6), a3
           0x0064e11a      49f900404468   lea.l fcn.00404468, a4
           0x0064e120      720c           moveq 0xc, d1
           0x0064e122      7401           moveq 0x1, d2
           0x0064e124      554f           subq.w 0x2, a7
           0x0064e126      4853           pea.l (a3)
           0x0064e128      4eb900404434   jsr fcn.00404434
           0x0064e12e      584f           addq.w 0x4, a7
           0x0064e130      4a1f           tst.b (a7)+
       < 0x0064e132      6700016e       beq.w 0x64e2a2
          0x0064e136      206e0008       movea.l 0x8(a6), a0
          0x0064e13a      554f           subq.w 0x2, a7
          0x0064e13c      4227           clr.b -(a7)
          0x0064e13e      4850           pea.l (a0)
          0x0064e140      486efe56       pea.l -0x1aa(a6)
          0x0064e144      4eb9005a14ae   jsr K04_FILEROPS.k_name
          0x0064e14a      defc000a       adda.w 0xa, a7
          0x0064e14e      349f           move.w (a7)+, (a2)
          0x0064e150      1012           move.b (a2), d0
          0x0064e152      b03aebe5       cmp.b 0x64cd39(pc), d0
      < 0x0064e156      6608           bne.b 0x64e160
         0x0064e158      102efeb5       move.b -0x14b(a6), d0
         0x0064e15c      b03aebdc       cmp.b 0x64cd3a(pc), d0
     > 0x0064e160      6706           beq.b 0x64e168
         0x0064e162      4853           pea.l (a3)
         0x0064e164      4e94           jsr (a4)                    ; fcn.0000000d
         0x0064e166      584f           addq.w 0x4, a7
     > 0x0064e168      554f           subq.w 0x2, a7
          0x0064e16a      4227           clr.b -(a7)
          0x0064e16c      4850           pea.l (a0)
          0x0064e16e      1f3c0002       move.b 0x2, -(a7)
          0x0064e172      486eff00       pea.l -0x100(a6)
          0x0064e176      4eb9005a2172   jsr K04_FILEROPS.k_str_data
          0x0064e17c      dec1           adda.w d1, a7
          0x0064e17e      349f           move.w (a7)+, (a2)
          0x0064e180      3012           move.w (a2), d0
          0x0064e182      b07aebb8       cmp.w 0x64cd3c(pc), d0
      < 0x0064e186      6706           beq.b 0x64e18e
         0x0064e188      4853           pea.l (a3)
         0x0064e18a      4e94           jsr (a4)                    ; fcn.0000000d
         0x0064e18c      584f           addq.w 0x4, a7
      > 0x0064e18e      487aebaf       pea.l 0x64cd3f(pc)
          0x0064e192      4878000d       pea.l 0xd
          0x0064e196      2f17           move.l (a7), -(a7)
          0x0064e198      4eb9004047ea   jsr p_wts_o
          0x0064e19e      dec1           adda.w d1, a7
          0x0064e1a0      486eff01       pea.l -0xff(a6)
          0x0064e1a4      42a7           clr.l -(a7)
          0x0064e1a6      1f6eff000003   move.b -0x100(a6), 0x3(a7)
          0x0064e1ac      2f17           move.l (a7), -(a7)
          0x0064e1ae      4eb9004047ea   jsr p_wts_o
          0x0064e1b4      dec1           adda.w d1, a7
          0x0064e1b6      4eb900404946   jsr p_wtln_o
          0x0064e1bc      554f           subq.w 0x2, a7
          0x0064e1be      4850           pea.l (a0)
          0x0064e1c0      1f3c000b       move.b 0xb, -(a7)
          0x0064e1c4      4eb9005a12d4   jsr K04_FILEROPS.k_f_property_av
          0x0064e1ca      5c4f           addq.w 0x6, a7
          0x0064e1cc      4a1f           tst.b (a7)+
      < 0x0064e1ce      660000a4       bne.w 0x64e274
         0x0064e1d2      554f           subq.w 0x2, a7
         0x0064e1d4      4850           pea.l (a0)
         0x0064e1d6      486efeaa       pea.l -0x156(a6)
         0x0064e1da      4eb9005a2894   jsr K04_FILEROPS.k_get_file_size
         0x0064e1e0      504f           addq.w 0x8, a7
         0x0064e1e2      349f           move.w (a7)+, (a2)
         0x0064e1e4      1012           move.b (a2), d0
         0x0064e1e6      b03aeb65       cmp.b 0x64cd4d(pc), d0
     < 0x0064e1ea      6608           bne.b 0x64e1f4
        0x0064e1ec      102efeb5       move.b -0x14b(a6), d0
        0x0064e1f0      b03aeb5c       cmp.b 0x64cd4e(pc), d0
    > 0x0064e1f4      6706           beq.b 0x64e1fc
        0x0064e1f6      4853           pea.l (a3)
        0x0064e1f8      4e94           jsr (a4)                    ; fcn.0000000d
        0x0064e1fa      584f           addq.w 0x4, a7
    > 0x0064e1fc      2d42fe52       move.l d2, -0x1ae(a6)
         0x0064e200      554f           subq.w 0x2, a7
         0x0064e202      4850           pea.l (a0)
         0x0064e204      486efe52       pea.l -0x1ae(a6)
         0x0064e208      486efeaa       pea.l -0x156(a6)
         0x0064e20c      486efe56       pea.l -0x1aa(a6)
         0x0064e210      2f3aeb42       move.l 0x64cd54(pc), -(a7)
         0x0064e214      2f3aeb3a       move.l 0x64cd50(pc), -(a7)
         0x0064e218      2f3aea68       move.l 0x64cc82(pc), -(a7)
         0x0064e21c      2f3aea60       move.l 0x64cc7e(pc), -(a7)
         0x0064e220      1f02           move.b d2, -(a7)
         0x0064e222      4ebaf2f8       jsr K91_LIBOPS.create_and_copy(pc)
         0x0064e226      defc0022       adda.w 0x22, a7
         0x0064e22a      349f           move.w (a7)+, (a2)
         0x0064e22c      1012           move.b (a2), d0
         0x0064e22e      b03aeb29       cmp.b 0x64cd59(pc), d0
     < 0x0064e232      6608           bne.b 0x64e23c
        0x0064e234      102efeb5       move.b -0x14b(a6), d0
        0x0064e238      b03aeb20       cmp.b 0x64cd5a(pc), d0
    > 0x0064e23c      6706           beq.b 0x64e244
        0x0064e23e      4853           pea.l (a3)
        0x0064e240      4e94           jsr (a4)                    ; fcn.0000000d
        0x0064e242      584f           addq.w 0x4, a7
    > 0x0064e244      554f           subq.w 0x2, a7
         0x0064e246      486efe52       pea.l -0x1ae(a6)
         0x0064e24a      4850           pea.l (a0)
         0x0064e24c      4eb900594c72   jsr K0_DISKMGR.k_copy_ref
         0x0064e252      504f           addq.w 0x8, a7
         0x0064e254      349f           move.w (a7)+, (a2)
         0x0064e256      3012           move.w (a2), d0
         0x0064e258      b07aeb02       cmp.w 0x64cd5c(pc), d0
     < 0x0064e25c      6706           beq.b 0x64e264
        0x0064e25e      4853           pea.l (a3)
        0x0064e260      4e94           jsr (a4)                    ; fcn.0000000d
        0x0064e262      584f           addq.w 0x4, a7
     > 0x0064e264      554f           subq.w 0x2, a7
         0x0064e266      486efe52       pea.l -0x1ae(a6)
         0x0064e26a      4eb900594e02   jsr K0_DISKMGR.k_lose_ref
         0x0064e270      584f           addq.w 0x4, a7
         0x0064e272      349f           move.w (a7)+, (a2)
      > 0x0064e274      554f           subq.w 0x2, a7
          0x0064e276      4850           pea.l (a0)
          0x0064e278      41eefeaa       lea.l -0x156(a6), a0
          0x0064e27c      7014           moveq 0x14, d0
      > 0x0064e27e      2f20           move.l -(a0), -(a7)
      < 0x0064e280      51c8fffc       dbra d0, 0x64e27e
          0x0064e284      9efc0100       suba.w 0x100, a7
          0x0064e288      204f           movea.l a7, a0
          0x0064e28a      43eeff00       lea.l -0x100(a6), a1
          0x0064e28e      703f           moveq 0x3f, d0
      > 0x0064e290      20d9           move.l (a1)+, (a0)+
      < 0x0064e292      51c8fffc       dbra d0, 0x64e290
          0x0064e296      4eb90076708a   jsr MENUTYPECOM.enbuffer_font
          0x0064e29c      defc0158       adda.w 0x158, a7
          0x0064e2a0      349f           move.w (a7)+, (a2)
       > 0x0064e2a2      3d52000c       move.w (a2), 0xc(a6)
           0x0064e2a6      4cdf1f07       movem.l (a7)+, d0-d2/a0-a4
           0x0064e2aa      4e5e           unlk a6
           0x0064e2ac      4e75           rts
 232: K91_LIBOPS.fetch_macro ();
           0x0064e2ae      4e56ffb8       link.w a6, 0xffb8
           0x0064e2b2      bfd5           cmpa.l (a5), a7
       < 0x0064e2b4      6206           bhi.b 0x64e2bc
          0x0064e2b6      44fc0002       move.w 0x2, ccr
          0x0064e2ba      4e76           trapv
       > 0x0064e2bc      defc003a       adda.w 0x3a, a7
           0x0064e2c0      48e7e0f8       movem.l d0-d2/a0-a4, -(a7)
           0x0064e2c4      45eefff2       lea.l -0xe(a6), a2
           0x0064e2c8      47eefff6       lea.l -0xa(a6), a3
           0x0064e2cc      49eefffc       lea.l -0x4(a6), a4
           0x0064e2d0      720c           moveq 0xc, d1
           0x0064e2d2      7410           moveq 0x10, d2
           0x0064e2d4      206e0008       movea.l 0x8(a6), a0
           0x0064e2d8      554f           subq.w 0x2, a7
           0x0064e2da      4227           clr.b -(a7)
           0x0064e2dc      4850           pea.l (a0)
           0x0064e2de      1f3c001b       move.b 0x1b, -(a7)
           0x0064e2e2      224a           movea.l a2, a1
           0x0064e2e4      2f09           move.l a1, -(a7)
           0x0064e2e6      48780004       pea.l 0x4
           0x0064e2ea      4eb9005a2072   jsr K04_FILEROPS.k_data
           0x0064e2f0      dec2           adda.w d2, a7
           0x0064e2f2      369f           move.w (a7)+, (a3)
           0x0064e2f4      487aea69       pea.l 0x64cd5f(pc)
           0x0064e2f8      48780014       pea.l 0x14
           0x0064e2fc      2f17           move.l (a7), -(a7)
           0x0064e2fe      4eb9004047ea   jsr p_wts_o
           0x0064e304      504f           addq.w 0x8, a7
           0x0064e306      2e92           move.l (a2), (a7)
           0x0064e308      48780000       pea.l 0x0
           0x0064e30c      4eb9004070e4   jsr p_wti_o
           0x0064e312      504f           addq.w 0x8, a7
           0x0064e314      487aea5e       pea.l 0x64cd74(pc)
           0x0064e318      48780002       pea.l 0x2
           0x0064e31c      2f17           move.l (a7), -(a7)
           0x0064e31e      4eb9004047ea   jsr p_wts_o
           0x0064e324      dec1           adda.w d1, a7
           0x0064e326      4853           pea.l (a3)
           0x0064e328      48780002       pea.l 0x2
           0x0064e32c      2f17           move.l (a7), -(a7)
           0x0064e32e      4eb9004047ea   jsr p_wts_o
           0x0064e334      dec1           adda.w d1, a7
           0x0064e336      4eb900404946   jsr p_wtln_o
           0x0064e33c      1013           move.b (a3), d0
           0x0064e33e      b03aea37       cmp.b 0x64cd77(pc), d0
       < 0x0064e342      6608           bne.b 0x64e34c
          0x0064e344      102efff7       move.b -0x9(a6), d0
          0x0064e348      b03aea2e       cmp.b 0x64cd78(pc), d0
      > 0x0064e34c      663c           bne.b 0x64e38a
          0x0064e34e      4854           pea.l (a4)
          0x0064e350      2f12           move.l (a2), -(a7)
          0x0064e352      4eb900403a92   jsr p_New
          0x0064e358      5c4f           addq.w 0x6, a7
          0x0064e35a      4850           pea.l (a0)
          0x0064e35c      48780000       pea.l 0x0
          0x0064e360      2f14           move.l (a4), -(a7)
          0x0064e362      2f12           move.l (a2), -(a7)
          0x0064e364      4eb9005a2dba   jsr K04_FILEROPS.k_read_mem_file
          0x0064e36a      dec2           adda.w d2, a7
          0x0064e36c      369f           move.w (a7)+, (a3)
          0x0064e36e      2f14           move.l (a4), -(a7)
          0x0064e370      2f12           move.l (a2), -(a7)
          0x0064e372      486efff8       pea.l -0x8(a6)
          0x0064e376      4eb9004cee84   jsr MACROLIBCOM.set_macro
          0x0064e37c      dec1           adda.w d1, a7
          0x0064e37e      4854           pea.l (a4)
          0x0064e380      2f12           move.l (a2), -(a7)
          0x0064e382      4eb900403b98   jsr p_Dispos
          0x0064e388      504f           addq.w 0x8, a7
      > 0x0064e38a      3d53000c       move.w (a3), 0xc(a6)
           0x0064e38e      4cdf1f07       movem.l (a7)+, d0-d2/a0-a4
           0x0064e392      4e5e           unlk a6
           0x0064e394      4e75           rts
 56: K91_LIBOPS.fetch_kbd_map ();
           ; var int32_t var_2h @ a6-0x2
           0x0064e396      4e56fff0       link.w a6, 0xfff0
           0x0064e39a      bfd5           cmpa.l (a5), a7
       < 0x0064e39c      6206           bhi.b 0x64e3a4
          0x0064e39e      44fc0002       move.w 0x2, ccr
          0x0064e3a2      4e76           trapv
       > 0x0064e3a4      defc000e       adda.w 0xe, a7
           0x0064e3a8      48e70080       movem.l a0, -(a7)
           0x0064e3ac      554f           subq.w 0x2, a7
           0x0064e3ae      206e0008       movea.l 0x8(a6), a0
           0x0064e3b2      4850           pea.l (a0)
           0x0064e3b4      4eb9004a88a6   jsr MENUKEYBDCOM.load_kbd_map
           0x0064e3ba      584f           addq.w 0x4, a7
           0x0064e3bc      3d5ffffe       move.w (a7)+, -0x2(a6)
           0x0064e3c0      3d6efffe000c   move.w -0x2(a6), 0xc(a6)
           0x0064e3c6      4cdf0100       movem.l (a7)+, a0
           0x0064e3ca      4e5e           unlk a6
           0x0064e3cc      4e75           rts
 168: K91_LIBOPS.fetch_pic_sten ();
           ; var int32_t var_1a04h @ a6-0x1a04
           ; var int32_t var_19dch @ a6-0x19dc
           ; var int32_t var_19dah @ a6-0x19da
           0x0064e3ce      4e56ff5c       link.w a6, 0xff5c
           0x0064e3d2      bfd5           cmpa.l (a5), a7
       < 0x0064e3d4      6206           bhi.b 0x64e3dc
          0x0064e3d6      44fc0002       move.w 0x2, ccr
          0x0064e3da      4e76           trapv
       > 0x0064e3dc      defc006c       adda.w 0x6c, a7
           0x0064e3e0      48e7c0e0       movem.l d0-d1/a0-a2, -(a7)
           0x0064e3e4      45eefff6       lea.l -0xa(a6), a2
           0x0064e3e8      7201           moveq 0x1, d1
           0x0064e3ea      38bae98e       move.w 0x64cd7a(pc), (a4)
           0x0064e3ee      41eeffc8       lea.l -0x38(a6), a0
           0x0064e3f2      43fae5b2       lea.l 0x64c9a6(pc), a1
           0x0064e3f6      700a           moveq 0xa, d0
       > 0x0064e3f8      20d9           move.l (a1)+, (a0)+
       < 0x0064e3fa      51c8fffc       dbra d0, 0x64e3f8
           0x0064e3fe      30d9           move.w (a1)+, (a0)+
           0x0064e400      4a2e0008       tst.b 0x8(a6)
       < 0x0064e404      6604           bne.b 0x64e40a
          0x0064e406      1d41ffe4       move.b d1, -0x1c(a6)
       > 0x0064e40a      1d41ffe2       move.b d1, -0x1e(a6)
           0x0064e40e      1d41ffd8       move.b d1, -0x28(a6)
           0x0064e412      2d7ae626ffda   move.l 0x64ca3a(pc), -0x26(a6)
           0x0064e418      3d7ae624ffde   move.w 0x64ca3e(pc), -0x22(a6)
           0x0064e41e      3d7ae5fcffe0   move.w 0x64ca1c(pc), -0x20(a6)
           0x0064e424      14bc0004       move.b 0x4, (a2)
           0x0064e428      554f           subq.w 0x2, a7
           0x0064e42a      206c000a       movea.l 0xa(a4), a0
           0x0064e42e      4850           pea.l (a0)
           0x0064e430      514f           subq.w 0x8, a7
           0x0064e432      4eb900633d7c   jsr HANDCOM.get_hi_centre_p
           0x0064e438      2f2efffc       move.l -0x4(a6), -(a7)
           0x0064e43c      2f2efff8       move.l -0x8(a6), -(a7)
           0x0064e440      3f12           move.w (a2), -(a7)
           0x0064e442      204a           movea.l a2, a0
           0x0064e444      700a           moveq 0xa, d0
       > 0x0064e446      2f20           move.l -(a0), -(a7)
       < 0x0064e448      51c8fffc       dbra d0, 0x64e446
           0x0064e44c      3f20           move.w -(a0), -(a7)
           0x0064e44e      1f2c0010       move.b 0x10(a4), -(a7)
           0x0064e452      1f2e000a       move.b 0xa(a6), -(a7)
           0x0064e456      514f           subq.w 0x8, a7
           0x0064e458      4227           clr.b -(a7)
           0x0064e45a      4eb9006336ea   jsr HANDCOM.get_area
           0x0064e460      544f           addq.w 0x2, a7
           0x0064e462      4eb900664b10   jsr K96_LIB2OPS.k96_do_load
           0x0064e468      defc0050       adda.w 0x50, a7
           0x0064e46c      389f           move.w (a7)+, (a4)
           0x0064e46e      4cdf0703       movem.l (a7)+, d0-d1/a0-a2
           0x0064e472      4e5e           unlk a6
           0x0064e474      4e75           rts
            ; CALL XREF from K91_LIBOPS.k91_desk_fetch @ 0x64e7e8
            ; CALL XREF from K91_LIBOPS.k91_overlay @ 0x64ea84
            ; CALL XREF from K91_LIBOPS.k91_rework @ 0x64eb84
            ; CALL XREF from K91_LIBOPS.k91_in_grid @ 0x64ee34
            ; CALL XREF from loc.0064efce @ 0x64efda
 68: K91_LIBOPS.k91_fetch ();
           ; var int32_t var_8h @ a7+0x8
           0x0064e476      4e56fec8       link.w a6, 0xfec8
           0x0064e47a      bfd5           cmpa.l (a5), a7
       < 0x0064e47c      6206           bhi.b 0x64e484
          0x0064e47e      44fc0002       move.w 0x2, ccr
          0x0064e482      4e76           trapv
       > 0x0064e484      defc0136       adda.w 0x136, a7
           0x0064e488      48e7f8e8       movem.l d0-d4/a0-a2/a4, -(a7)
           0x0064e48c      43ee0008       lea.l 0x8(a6), a1
           0x0064e490      45eefffe       lea.l -0x2(a6), a2
           0x0064e494      7401           moveq 0x1, d2
           0x0064e496      760c           moveq 0xc, d3
           0x0064e498      7829           moveq 0x29, d4
           0x0064e49a      102e000c       move.b 0xc(a6), d0
           0x0064e49e      b004           cmp.b d4, d0
       < 0x0064e4a0      6d74           blt.b 0x64e516
          0x0064e4a2      4880           ext.w d0
          0x0064e4a4      3200           move.w d0, d1
          0x0064e4a6      9244           sub.w d4, d1
          0x0064e4a8      0c41002d       cmpi.w 0x2d, d1
      < 0x0064e4ac      62000204       bhi.w 0x64e6b2
         0x0064e4b0      d241           add.w d1, d1
         0x0064e4b2      323b1006       move.w 0x64e4ba(pc, d1.w), d1
         0x0064e4b6      4efb1002       jmp 0x64e4ba(pc, d1.w)
          0x0064e4ba      013401f801f8.  btst.l d0, 0x1f801f8(invalid.w)
          0x0064e4c2      01f801f8       bset.b d0, 0x1f8
          0x0064e4c6      009201520092   ori.l 0x1520092, (a2)
          0x0064e4cc      011a           btst.l d0, (a2)+
          0x0064e4ce      015a           bchg.b d0, (a2)+
          0x0064e4d0      01f80186       bset.b d0, 0x186
          0x0064e4d4      01f80092       bset.b d0, 0x92
          0x0064e4d8      0134013401f8.  btst.l d0, 0x1f80134(a4, d0.w)
          0x0064e4e0      0134013401f8.  btst.l d0, 0x1f80194(a4, d0.w)
          0x0064e4e8      013401f801a2.  btst.l d0, 0x1a201a2(invalid.w)
          0x0064e4f0      01a2           bclr.b d0, -(a2)
          0x0064e4f2      01a2           bclr.b d0, -(a2)
          0x0064e4f4      01a2           bclr.b d0, -(a2)
          0x0064e4f6      013401340134.  btst.l d0, 0x13401b4(a4, d0.w)
          0x0064e4fe      01b401340134.  bclr.b d0, 0x13401c4(a4, d0.w)
          0x0064e506      01c4           bset.b d0, d4
          0x0064e508      01cc01dc       movep.l d0, 0x1dc(a4)
          0x0064e50c      01f801f8       bset.b d0, 0x1f8
          0x0064e510      01f801f8       bset.b d0, 0x1f8
          0x0064e514      01ea4880       bset.b d0, 0x4880(a2)
           0x0064e518      3200           move.w d0, d1
           0x0064e51a      5541           subq.w 0x2, d1
           0x0064e51c      0c41000e       cmpi.w 0xe, d1
       < 0x0064e520      62000190       bhi.w 0x64e6b2
          0x0064e524      d241           add.w d1, d1
          0x0064e526      323b1006       move.w 0x64e52e(pc, d1.w), d1
          0x0064e52a      4efb1002       jmp 0x64e52e(pc, d1.w)
          0x0064e52e      001e0046       ori.b 0x46, (a6)+
          0x0064e532      004a0184       
          0x0064e533      4a01           tst.b d1
          0x0064e535      8400           or.b d0, d2
          0x0064e537      7200           moveq 0x0, d1
          0x0064e539      8000           or.b d0, d0
          0x0064e53b      8c00           or.b d0, d6
          0x0064e53d      9800           sub.b d0, d4
          0x0064e53f      b401           cmp.b d1, d2
          0x0064e541      8400           or.b d0, d2
          0x0064e543      d001           add.b d1, d0
          0x0064e545      8401           or.b d1, d2
          0x0064e547      8400           or.b d0, d2
      < 0x0064e549      68005e0c       bvc.w 0x654357              ; K92_DISPLAY.visible_str+0x1fd
         0x0064e54d      00003166       ori.b 0x66, d0
         0x0064e551      12554f48       
         0x0064e552      554f           subq.w 0x2, a7
         0x0064e554      4878002a       pea.l 0x2a
         0x0064e558      4eb900474af8   jsr CONFIG.cfg_option
         0x0064e55e      584f           addq.w 0x4, a7
         0x0064e560      4a1f           tst.b (a7)+
     < 0x0064e562      660c           bne.b 0x64e570
        0x0064e564      4227           clr.b -(a7)
    > 0x0064e566      4227           clr.b -(a7)
   > 0x0064e568      284a           movea.l a2, a4
      0x0064e56a      4ebafe62       jsr K91_LIBOPS.fetch_pic_sten(pc)
      0x0064e56e      584f           addq.w 0x4, a7
  > 0x0064e570      600001be       bra.w 0x64e730
      0x0064e574      1f02           move.b d2, -(a7)
  < 0x0064e576      60ee           bra.b 0x64e566
       0x0064e578      554f           subq.w 0x2, a7
       0x0064e57a      2051           movea.l (a1), a0
       0x0064e57c      4850           pea.l (a0)
       0x0064e57e      4227           clr.b -(a7)
  > 0x0064e580      4ebaf46c       jsr K91_LIBOPS.fetch_cutout(pc)
  > 0x0064e584      5c4f           addq.w 0x6, a7
  > 0x0064e586      349f           move.w (a7)+, (a2)
  < 0x0064e588      600001a6       bra.w 0x64e730
     0x0064e58c      554f           subq.w 0x2, a7
     0x0064e58e      2051           movea.l (a1), a0
     0x0064e590      4850           pea.l (a0)
     0x0064e592      1f02           move.b d2, -(a7)
  < 0x0064e594      60ea           bra.b 0x64e580
      0x0064e596      554f           subq.w 0x2, a7
      0x0064e598      2051           movea.l (a1), a0
      0x0064e59a      4850           pea.l (a0)
      0x0064e59c      1f02           move.b d2, -(a7)
   < 0x0064e59e      60e0           bra.b 0x64e580
       0x0064e5a0      554f           subq.w 0x2, a7
       0x0064e5a2      2051           movea.l (a1), a0
       0x0064e5a4      4850           pea.l (a0)
       0x0064e5a6      4ebaf886       jsr K91_LIBOPS.fetch_grid(pc)
  > 0x0064e5aa      584f           addq.w 0x4, a7
  < 0x0064e5ac      60d8           bra.b 0x64e586
     0x0064e5ae      554f           subq.w 0x2, a7
     0x0064e5b0      2051           movea.l (a1), a0
     0x0064e5b2      4850           pea.l (a0)
     0x0064e5b4      4ebaf972       jsr K91_LIBOPS.fetch_palette(pc)
  < 0x0064e5b8      60f0           bra.b 0x64e5aa
     0x0064e5ba      554f           subq.w 0x2, a7
     0x0064e5bc      2051           movea.l (a1), a0
     0x0064e5be      4850           pea.l (a0)
     0x0064e5c0      4ebafa10       jsr K91_LIBOPS.fetch_stack(pc)
  < 0x0064e5c4      60e4           bra.b 0x64e5aa
     0x0064e5c6      554f           subq.w 0x2, a7
     0x0064e5c8      2051           movea.l (a1), a0
     0x0064e5ca      4850           pea.l (a0)
     0x0064e5cc      4eb900689c4e   jsr SEQUENCECOM.sel_sequence
  < 0x0064e5d2      60d6           bra.b 0x64e5aa
     0x0064e5d4      554f           subq.w 0x2, a7
     0x0064e5d6      2051           movea.l (a1), a0
     0x0064e5d8      4850           pea.l (a0)
     0x0064e5da      4eb900761e88   jsr MENUKEYFRMCOM.sel_keyfrms
  < 0x0064e5e0      60c8           bra.b 0x64e5aa
     0x0064e5e2      554f           subq.w 0x2, a7
     0x0064e5e4      2051           movea.l (a1), a0
     0x0064e5e6      4850           pea.l (a0)
     0x0064e5e8      4ebafb12       jsr K91_LIBOPS.fetch_font(pc)
  < 0x0064e5ec      60bc           bra.b 0x64e5aa
     0x0064e5ee      554f           subq.w 0x2, a7
     0x0064e5f0      1f00           move.b d0, -(a7)
     0x0064e5f2      2051           movea.l (a1), a0
     0x0064e5f4      4850           pea.l (a0)
     0x0064e5f6      4eb900707a68   jsr VIDOUTDOU_DUMMY.fetch_clip
  < 0x0064e5fc      6086           bra.b 0x64e584
     0x0064e5fe      14bae77d       move.b 0x64cd7d(pc), (a2)
     0x0064e602      1d7ae77affff   move.b 0x64cd7e(pc), -0x1(a6)
  < 0x0064e608      60000126       bra.w 0x64e730
     0x0064e60c      4227           clr.b -(a7)
     0x0064e60e      1f02           move.b d2, -(a7)
  < 0x0064e610      6000ff56       bra.w 0x64e568
      0x0064e614      34bae76a       move.w 0x64cd80(pc), (a2)
      0x0064e618      9efc00fc       suba.w 0xfc, a7
      0x0064e61c      2f3ae764       move.l 0x64cd82(pc), -(a7)
      0x0064e620      2f7ae7640004   move.l 0x64cd86(pc), 0x4(a7)
      0x0064e626      2f7ae7620008   move.l 0x64cd8a(pc), 0x8(a7)
      0x0064e62c      1f7ae760000c   move.b 0x64cd8e(pc), 0xc(a7)
      0x0064e632      4eb9005b07f6   jsr K3_UTILS.k3_set_cl_msg
      0x0064e638      defc0100       adda.w 0x100, a7
  < 0x0064e63c      600000f2       bra.w 0x64e730
     0x0064e640      554f           subq.w 0x2, a7
     0x0064e642      2051           movea.l (a1), a0
     0x0064e644      4850           pea.l (a0)
     0x0064e646      4ebaf74a       jsr K91_LIBOPS.fetch_colour_cu(pc)
  < 0x0064e64a      6000ff5e       bra.w 0x64e5aa
     0x0064e64e      554f           subq.w 0x2, a7
     0x0064e650      2051           movea.l (a1), a0
     0x0064e652      4850           pea.l (a0)
     0x0064e654      4ebaf7ac       jsr K91_LIBOPS.fetch_scanner_s(pc)
  < 0x0064e658      6000ff50       bra.w 0x64e5aa
     0x0064e65c      554f           subq.w 0x2, a7
     0x0064e65e      1f00           move.b d0, -(a7)
     0x0064e660      2051           movea.l (a1), a0
     0x0064e662      4850           pea.l (a0)
     0x0064e664      4eb9005b7db8   jsr HENRY_DUMMY.fetch_blender_s
  < 0x0064e66a      6000ff18       bra.w 0x64e584
     0x0064e66e      554f           subq.w 0x2, a7
     0x0064e670      1f00           move.b d0, -(a7)
     0x0064e672      2051           movea.l (a1), a0
     0x0064e674      4850           pea.l (a0)
     0x0064e676      4ebaf812       jsr K91_LIBOPS.fetch_effects_s(pc)
  < 0x0064e67a      6000ff08       bra.w 0x64e584
     0x0064e67e      34bae710       move.w 0x64cd90(pc), (a2)
  < 0x0064e682      600000ac       bra.w 0x64e730
     0x0064e686      554f           subq.w 0x2, a7
     0x0064e688      2051           movea.l (a1), a0
     0x0064e68a      4850           pea.l (a0)
     0x0064e68c      4eb900707fda   jsr GORDON_DUMMY.sel_audio
  < 0x0064e692      6000ff16       bra.w 0x64e5aa
     0x0064e696      554f           subq.w 0x2, a7
     0x0064e698      2051           movea.l (a1), a0
     0x0064e69a      4850           pea.l (a0)
     0x0064e69c      4ebafc10       jsr K91_LIBOPS.fetch_macro(pc)
  < 0x0064e6a0      6000ff08       bra.w 0x64e5aa
      0x0064e6a4      554f           subq.w 0x2, a7
      0x0064e6a6      2051           movea.l (a1), a0
      0x0064e6a8      4850           pea.l (a0)
      0x0064e6aa      4ebafcea       jsr K91_LIBOPS.fetch_kbd_map(pc)
   < 0x0064e6ae      6000fefa       bra.w 0x64e5aa
    > 0x0064e6b2      9efc0100       suba.w 0x100, a7
         0x0064e6b6      1f00           move.b d0, -(a7)
         0x0064e6b8      4eb9005afcd0   jsr K2_TYPES.k3_ftype_str
         0x0064e6be      544f           addq.w 0x2, a7
         0x0064e6c0      487ae6d1       pea.l 0x64cd93(pc)
         0x0064e6c4      48780011       pea.l 0x11
         0x0064e6c8      2f17           move.l (a7), -(a7)
         0x0064e6ca      4eb9004047ea   jsr p_wts_o
         0x0064e6d0      dec3           adda.w d3, a7
         0x0064e6d2      4880           ext.w d0
         0x0064e6d4      48c0           ext.l d0
         0x0064e6d6      2f00           move.l d0, -(a7)
         0x0064e6d8      48780000       pea.l 0x0
         0x0064e6dc      4eb9004070e4   jsr p_wti_o
         0x0064e6e2      504f           addq.w 0x8, a7
         0x0064e6e4      487ae6bf       pea.l 0x64cda5(pc)
         0x0064e6e8      48780002       pea.l 0x2
         0x0064e6ec      2f17           move.l (a7), -(a7)
         0x0064e6ee      4eb9004047ea   jsr p_wts_o
         0x0064e6f4      dec3           adda.w d3, a7
         0x0064e6f6      486f0001       pea.l 0x1(a7)
         0x0064e6fa      42a7           clr.l -(a7)
         0x0064e6fc      1f6f00080003   move.b 0x8(a7), 0x3(a7)
         0x0064e702      2f17           move.l (a7), -(a7)
         0x0064e704      4eb9004047ea   jsr p_wts_o
         0x0064e70a      defc010c       adda.w 0x10c, a7
         0x0064e70e      487ae698       pea.l 0x64cda8(pc)
         0x0064e712      4878000e       pea.l 0xe
         0x0064e716      2f17           move.l (a7), -(a7)
         0x0064e718      4eb9004047ea   jsr p_wts_o
         0x0064e71e      dec3           adda.w d3, a7
         0x0064e720      4eb900404946   jsr p_wtln_o
         0x0064e726      4227           clr.b -(a7)
         0x0064e728      4eb90040452a   jsr p_Assert
         0x0064e72e      544f           addq.w 0x2, a7
  > 0x0064e730      3d520010       move.w (a2), 0x10(a6)
           0x0064e734      4cdf171f       movem.l (a7)+, d0-d4/a0-a2/a4
           0x0064e738      4e5e           unlk a6
           0x0064e73a      4e75           rts
 198: K91_LIBOPS.k91_desk_fetch ();
          0x0064e73c      4e56ffc6       link.w a6, 0xffc6
          0x0064e740      bfd5           cmpa.l (a5), a7
      < 0x0064e742      6206           bhi.b 0x64e74a
         0x0064e744      44fc0002       move.w 0x2, ccr
         0x0064e748      4e76           trapv
      > 0x0064e74a      defc002c       adda.w 0x2c, a7
          0x0064e74e      48e7c0e0       movem.l d0-d1/a0-a2, -(a7)
          0x0064e752      43eefff2       lea.l -0xe(a6), a1
          0x0064e756      45eefff3       lea.l -0xd(a6), a2
          0x0064e75a      206e000c       movea.l 0xc(a6), a0
          0x0064e75e      4850           pea.l (a0)
          0x0064e760      486efff4       pea.l -0xc(a6)
          0x0064e764      486efffe       pea.l -0x2(a6)
          0x0064e768      4851           pea.l (a1)
          0x0064e76a      4eb900598736   jsr K0_DISKMGR.k_gen_fid
          0x0064e770      defc0010       adda.w 0x10, a7
          0x0064e774      1011           move.b (a1), d0
          0x0064e776      b03ae63f       cmp.b 0x64cdb7(pc), d0
      < 0x0064e77a      6606           bne.b 0x64e782
         0x0064e77c      1012           move.b (a2), d0
         0x0064e77e      b03ae638       cmp.b 0x64cdb8(pc), d0
     > 0x0064e782      6672           bne.b 0x64e7f6
         0x0064e784      554f           subq.w 0x2, a7
         0x0064e786      2f2efffa       move.l -0x6(a6), -(a7)
         0x0064e78a      2f2efff6       move.l -0xa(a6), -(a7)
         0x0064e78e      3f2efff4       move.w -0xc(a6), -(a7)
         0x0064e792      1f2e000a       move.b 0xa(a6), -(a7)
         0x0064e796      4227           clr.b -(a7)
         0x0064e798      4eb900499aec   jsr DESKCOM.desk_add_file
         0x0064e79e      defc000e       adda.w 0xe, a7
         0x0064e7a2      4a1f           tst.b (a7)+
     < 0x0064e7a4      6706           beq.b 0x64e7ac
        0x0064e7a6      32bae612       move.w 0x64cdba(pc), (a1)
    < 0x0064e7aa      604a           bra.b 0x64e7f6
    > 0x0064e7ac      12bae60f       move.b 0x64cdbd(pc), (a1)
        0x0064e7b0      14bae60c       move.b 0x64cdbe(pc), (a2)
        0x0064e7b4      4280           clr.l d0
        0x0064e7b6      1011           move.b (a1), d0
        0x0064e7b8      e180           asl.l 0x8, d0
        0x0064e7ba      00804b000000   ori.l 0x4b000000, d0
        0x0064e7c0      4281           clr.l d1
        0x0064e7c2      1212           move.b (a2), d1
        0x0064e7c4      8280           or.l d0, d1
        0x0064e7c6      594f           subq.w 0x4, a7
        0x0064e7c8      4267           clr.w -(a7)
        0x0064e7ca      4eb900404218   jsr p_Read_Stack
        0x0064e7d0      544f           addq.w 0x2, a7
        0x0064e7d2      b29f           cmp.l (a7)+, d1
    < 0x0064e7d4      661c           bne.b 0x64e7f2
       0x0064e7d6      4eb900404188   jsr p_Unlink
       0x0064e7dc      554f           subq.w 0x2, a7
       0x0064e7de      1f2e0008       move.b 0x8(a6), -(a7)
       0x0064e7e2      1f2e000a       move.b 0xa(a6), -(a7)
       0x0064e7e6      4850           pea.l (a0)
       0x0064e7e8      4ebafc8c       jsr K91_LIBOPS.k91_fetch(pc)
       0x0064e7ec      504f           addq.w 0x8, a7
       0x0064e7ee      329f           move.w (a7)+, (a1)
   < 0x0064e7f0      6004           bra.b 0x64e7f6
   > 0x0064e7f2      32bae5cc       move.w 0x64cdc0(pc), (a1)
   > 0x0064e7f6      3d510010       move.w (a1), 0x10(a6)
          0x0064e7fa      4cdf0703       movem.l (a7)+, d0-d1/a0-a2
          0x0064e7fe      4e5e           unlk a6
          0x0064e800      4e75           rts
 310: K91_LIBOPS.k91_number ();
          ; var int32_t var_1b1eh @ a6-0x1b1e
          ; var int32_t var_1a6eh @ a6-0x1a6e
          0x0064e802      4e56ffa6       link.w a6, 0xffa6
          0x0064e806      bfd5           cmpa.l (a5), a7
      < 0x0064e808      6206           bhi.b 0x64e810
         0x0064e80a      44fc0002       move.w 0x2, ccr
         0x0064e80e      4e76           trapv
      > 0x0064e810      defc004a       adda.w 0x4a, a7
          0x0064e814      48e7fcf8       movem.l d0-d5/a0-a4, -(a7)
          0x0064e818      45eefff4       lea.l -0xc(a6), a2
          0x0064e81c      47eefffc       lea.l -0x4(a6), a3
          0x0064e820      49eeffff       lea.l -0x1(a6), a4
          0x0064e824      263c0000ffff   move.l 0xffff, d3
          0x0064e82a      7a02           moveq 0x2, d5
          0x0064e82c      16bae595       move.b 0x64cdc3(pc), (a3)
          0x0064e830      1d7ae592fffd   move.b 0x64cdc4(pc), -0x3(a6)
          0x0064e836      206e0008       movea.l 0x8(a6), a0
          0x0064e83a      3083           move.w d3, (a0)
          0x0064e83c      102e0010       move.b 0x10(a6), d0
          0x0064e840      4880           ext.w d0
          0x0064e842      43fae582       lea.l 0x64cdc6(pc), a1
          0x0064e846      3200           move.w d0, d1
          0x0064e848      e649           lsr.w 0x3, d1
          0x0064e84a      01311000       btst.l d0, (a1, d1.w)
      < 0x0064e84e      670000d2       beq.w 0x64e922
         0x0064e852      226e000c       movea.l 0xc(a6), a1
         0x0064e856      2f11           move.l (a1), -(a7)
         0x0064e858      4852           pea.l (a2)
         0x0064e85a      4854           pea.l (a4)
         0x0064e85c      486efffe       pea.l -0x2(a6)
         0x0064e860      4ebaeeec       jsr K91_LIBOPS.do_calc_dest_nu(pc)
         0x0064e864      defc000e       adda.w 0xe, a7
         0x0064e868      4851           pea.l (a1)
         0x0064e86a      4267           clr.w -(a7)
         0x0064e86c      3f3c270f       move.w 0x270f, -(a7)
         0x0064e870      4852           pea.l (a2)
         0x0064e872      1014           move.b (a4), d0
         0x0064e874      4880           ext.w d0
         0x0064e876      4185           chk.w d5, d0
         0x0064e878      1f00           move.b d0, -(a7)
         0x0064e87a      4227           clr.b -(a7)
         0x0064e87c      4eb9005a158a   jsr K04_FILEROPS.k_number
         0x0064e882      defc0010       adda.w 0x10, a7
         0x0064e886      301f           move.w (a7)+, d0
         0x0064e888      3680           move.w d0, (a3)
         0x0064e88a      3f00           move.w d0, -(a7)
         0x0064e88c      224f           movea.l a7, a1
         0x0064e88e      1211           move.b (a1), d1
         0x0064e890      b23ae56b       cmp.b 0x64cdfd(pc), d1
     < 0x0064e894      6608           bne.b 0x64e89e
        0x0064e896      12290001       move.b 0x1(a1), d1
        0x0064e89a      b23ae562       cmp.b 0x64cdfe(pc), d1
    > 0x0064e89e      6706           beq.b 0x64e8a6
        0x0064e8a0      b07ae55e       cmp.w 0x64ce00(pc), d0
    < 0x0064e8a4      665c           bne.b 0x64e902
    > 0x0064e8a6      1214           move.b (a4), d1
        0x0064e8a8      b205           cmp.b d5, d1
    < 0x0064e8aa      6602           bne.b 0x64e8ae
       0x0064e8ac      3092           move.w (a2), (a0)
    > 0x0064e8ae      4a2efffe       tst.b -0x2(a6)
    < 0x0064e8b2      674e           beq.b 0x64e902
       0x0064e8b4      3212           move.w (a2), d1
       0x0064e8b6      0c41270f       cmpi.w 0x270f, d1
   < 0x0064e8ba      640e           bcc.b 0x64e8ca
      0x0064e8bc      c283           and.l d3, d1
      0x0064e8be      2401           move.l d1, d2
      0x0064e8c0      5282           addq.l 0x1, d2
      0x0064e8c2      b483           cmp.l d3, d2
  < 0x0064e8c4      6302           bls.b 0x64e8c8
     0x0064e8c6      4e4f           trap 0xf
  > 0x0064e8c8      3482           move.w d2, (a2)
   > 0x0064e8ca      4281           clr.l d1
       0x0064e8cc      3239008487ca   move.w 0x8487ca, d1
       0x0064e8d2      0481ffff8000   subi.l 0xffff8000, d1
       0x0064e8d8      b283           cmp.l d3, d1
   < 0x0064e8da      6302           bls.b 0x64e8de
      0x0064e8dc      4e4f           trap 0xf
   > 0x0064e8de      0681ffff8000   addi.l 0xffff8000, d1
       0x0064e8e4      3f01           move.w d1, -(a7)
       0x0064e8e6      4284           clr.l d4
       0x0064e8e8      3812           move.w (a2), d4
       0x0064e8ea      4eb900408686   jsr fcn.00408686
       0x0064e8f0      2f04           move.l d4, -(a7)
       0x0064e8f2      4227           clr.b -(a7)
       0x0064e8f4      1f3c0001       move.b 0x1, -(a7)
       0x0064e8f8      4eb90048da84   jsr MENU2COM.set_numeric_val
       0x0064e8fe      defc000a       adda.w 0xa, a7
    > 0x0064e902      224f           movea.l a7, a1
         0x0064e904      1011           move.b (a1), d0
         0x0064e906      b03ae4fb       cmp.b 0x64ce03(pc), d0
     < 0x0064e90a      6608           bne.b 0x64e914
        0x0064e90c      10290001       move.b 0x1(a1), d0
        0x0064e910      b03ae4f2       cmp.b 0x64ce04(pc), d0
    > 0x0064e914      6704           beq.b 0x64e91a
        0x0064e916      544f           addq.w 0x2, a7
    < 0x0064e918      6012           bra.b 0x64e92c
    > 0x0064e91a      36bae4ea       move.w 0x64ce06(pc), (a3)
        0x0064e91e      544f           addq.w 0x2, a7
    < 0x0064e920      600a           bra.b 0x64e92c
    > 0x0064e922      16bae4e5       move.b 0x64ce09(pc), (a3)
        0x0064e926      1d7ae4e2fffd   move.b 0x64ce0a(pc), -0x3(a6)
    > 0x0064e92c      3d530012       move.w (a3), 0x12(a6)
          0x0064e930      4cdf1f3f       movem.l (a7)+, d0-d5/a0-a4
          0x0064e934      4e5e           unlk a6
          0x0064e936      4e75           rts
 116: K91_LIBOPS.k91_unnumber ();
          ; var int32_t var_1b80h @ a6-0x1b80
          0x0064e938      4e56ffd6       link.w a6, 0xffd6
          0x0064e93c      bfd5           cmpa.l (a5), a7
      < 0x0064e93e      6206           bhi.b 0x64e946
         0x0064e940      44fc0002       move.w 0x2, ccr
         0x0064e944      4e76           trapv
      > 0x0064e946      defc0026       adda.w 0x26, a7
          0x0064e94a      48e7c0c0       movem.l d0-d1/a0-a1, -(a7)
          0x0064e94e      43eefffe       lea.l -0x2(a6), a1
          0x0064e952      32bae4b8       move.w 0x64ce0c(pc), (a1)
          0x0064e956      102e000c       move.b 0xc(a6), d0
          0x0064e95a      4880           ext.w d0
          0x0064e95c      41fae4b0       lea.l 0x64ce0e(pc), a0
          0x0064e960      3200           move.w d0, d1
          0x0064e962      e649           lsr.w 0x3, d1
          0x0064e964      01301000       btst.l d0, (a0, d1.w)
      < 0x0064e968      672c           beq.b 0x64e996
         0x0064e96a      3d7cfffffffc   move.w 0xffff, -0x4(a6)
         0x0064e970      554f           subq.w 0x2, a7
         0x0064e972      206e0008       movea.l 0x8(a6), a0
         0x0064e976      4850           pea.l (a0)
         0x0064e978      4267           clr.w -(a7)
         0x0064e97a      3f3c270f       move.w 0x270f, -(a7)
         0x0064e97e      486efffc       pea.l -0x4(a6)
         0x0064e982      1f3c0001       move.b 0x1, -(a7)
         0x0064e986      4227           clr.b -(a7)
         0x0064e988      4eb9005a158a   jsr K04_FILEROPS.k_number
         0x0064e98e      defc0010       adda.w 0x10, a7
         0x0064e992      329f           move.w (a7)+, (a1)
     < 0x0064e994      600a           bra.b 0x64e9a0
     > 0x0064e996      12bae483       move.b 0x64ce1b(pc), (a1)
         0x0064e99a      1d7ae480ffff   move.b 0x64ce1c(pc), -0x1(a6)
     > 0x0064e9a0      3d51000e       move.w (a1), 0xe(a6)
          0x0064e9a4      4cdf0303       movem.l (a7)+, d0-d1/a0-a1
          0x0064e9a8      4e5e           unlk a6
          0x0064e9aa      4e75           rts
 246: K91_LIBOPS.k91_overlay ();
          0x0064e9ac      4e56ff46       link.w a6, 0xff46
          0x0064e9b0      bfd5           cmpa.l (a5), a7
      < 0x0064e9b2      6206           bhi.b 0x64e9ba
         0x0064e9b4      44fc0002       move.w 0x2, ccr
         0x0064e9b8      4e76           trapv
      > 0x0064e9ba      defc007e       adda.w 0x7e, a7
          0x0064e9be      48e7f8f0       movem.l d0-d4/a0-a3, -(a7)
          0x0064e9c2      45eeffc5       lea.l -0x3b(a6), a2
          0x0064e9c6      47eeffc6       lea.l -0x3a(a6), a3
          0x0064e9ca      7401           moveq 0x1, d2
          0x0064e9cc      7602           moveq 0x2, d3
          0x0064e9ce      7803           moveq 0x3, d4
          0x0064e9d0      14bae44c       move.b 0x64ce1e(pc), (a2)
          0x0064e9d4      16bae449       move.b 0x64ce1f(pc), (a3)
          0x0064e9d8      102e000c       move.b 0xc(a6), d0
          0x0064e9dc      b003           cmp.b d3, d0
      < 0x0064e9de      66000098       bne.w 0x64ea78
         0x0064e9e2      1f02           move.b d2, -(a7)
         0x0064e9e4      4eb900522436   jsr BRUSHCOM.set_write_en
         0x0064e9ea      544f           addq.w 0x2, a7
         0x0064e9ec      1d7c0004ffc8   move.b 0x4, -0x38(a6)
         0x0064e9f2      41eeffd2       lea.l -0x2e(a6), a0
         0x0064e9f6      43fadfae       lea.l 0x64c9a6(pc), a1
         0x0064e9fa      720a           moveq 0xa, d1
     > 0x0064e9fc      20d9           move.l (a1)+, (a0)+
     < 0x0064e9fe      51c9fffc       dbra d1, 0x64e9fc
         0x0064ea02      30d9           move.w (a1)+, (a0)+
         0x0064ea04      1d42ffee       move.b d2, -0x12(a6)
         0x0064ea08      554f           subq.w 0x2, a7
         0x0064ea0a      206e0008       movea.l 0x8(a6), a0
         0x0064ea0e      4850           pea.l (a0)
         0x0064ea10      514f           subq.w 0x8, a7
         0x0064ea12      4eb900633d7c   jsr HANDCOM.get_hi_centre_p
         0x0064ea18      2f2effce       move.l -0x32(a6), -(a7)
         0x0064ea1c      2f2effca       move.l -0x36(a6), -(a7)
         0x0064ea20      3f2effc8       move.w -0x38(a6), -(a7)
         0x0064ea24      204e           movea.l a6, a0
         0x0064ea26      720a           moveq 0xa, d1
     > 0x0064ea28      2f20           move.l -(a0), -(a7)
     < 0x0064ea2a      51c9fffc       dbra d1, 0x64ea28
         0x0064ea2e      3f20           move.w -(a0), -(a7)
         0x0064ea30      1f04           move.b d4, -(a7)
         0x0064ea32      4227           clr.b -(a7)
         0x0064ea34      514f           subq.w 0x8, a7
         0x0064ea36      4227           clr.b -(a7)
         0x0064ea38      4eb9006336ea   jsr HANDCOM.get_area
         0x0064ea3e      544f           addq.w 0x2, a7
         0x0064ea40      4eb900664b10   jsr K96_LIB2OPS.k96_do_load
         0x0064ea46      defc0050       adda.w 0x50, a7
         0x0064ea4a      1497           move.b (a7), (a2)
         0x0064ea4c      16af0001       move.b 0x1(a7), (a3)
         0x0064ea50      514f           subq.w 0x8, a7
         0x0064ea52      4eb9006339f2   jsr HANDCOM.get_picture_are
         0x0064ea58      1f04           move.b d4, -(a7)
         0x0064ea5a      3f3c0010       move.w 0x10, -(a7)
         0x0064ea5e      3f3c00eb       move.w 0xeb, -(a7)
         0x0064ea62      4eb90073e2aa   jsr MENUEFFECTCOM.fx_overlay
         0x0064ea68      defc000e       adda.w 0xe, a7
         0x0064ea6c      121f           move.b (a7)+, d1
         0x0064ea6e      4881           ext.w d1
         0x0064ea70      4382           chk.w d2, d1
         0x0064ea72      1d41ffc4       move.b d1, -0x3c(a6)
     < 0x0064ea76      601a           bra.b 0x64ea92
     > 0x0064ea78      554f           subq.w 0x2, a7
         0x0064ea7a      1f03           move.b d3, -(a7)
         0x0064ea7c      1f00           move.b d0, -(a7)
         0x0064ea7e      206e0008       movea.l 0x8(a6), a0
         0x0064ea82      4850           pea.l (a0)
         0x0064ea84      4ebaf9f0       jsr K91_LIBOPS.k91_fetch(pc)
         0x0064ea88      504f           addq.w 0x8, a7
         0x0064ea8a      1497           move.b (a7), (a2)
         0x0064ea8c      16af0001       move.b 0x1(a7), (a3)
         0x0064ea90      544f           addq.w 0x2, a7
     > 0x0064ea92      1d52000e       move.b (a2), 0xe(a6)
          0x0064ea96      1d53000f       move.b (a3), 0xf(a6)
          0x0064ea9a      4cdf0f1f       movem.l (a7)+, d0-d4/a0-a3
          0x0064ea9e      4e5e           unlk a6
          0x0064eaa0      4e75           rts
 600: K91_LIBOPS.k91_rework ();
          ; var int32_t var_1cb6h @ a6-0x1cb6
          ; var int32_t var_76h @ a6-0x76
          ; var int32_t var_72h @ a6-0x72
          0x0064eaa2      4e56fefc       link.w a6, 0xfefc
          0x0064eaa6      bfd5           cmpa.l (a5), a7
      < 0x0064eaa8      6206           bhi.b 0x64eab0
         0x0064eaaa      44fc0002       move.w 0x2, ccr
         0x0064eaae      4e76           trapv
      > 0x0064eab0      defc0084       adda.w 0x84, a7
          0x0064eab4      48e7fff8       movem.l d0-d7/a0-a4, -(a7)
          0x0064eab8      45eeff80       lea.l -0x80(a6), a2
          0x0064eabc      47ee000e       lea.l 0xe(a6), a3
          0x0064eac0      49f9008486b6   lea.l 0x8486b6, a4
          0x0064eac6      2a3cffff8000   move.l 0xffff8000, d5
          0x0064eacc      2c3c0000ffff   move.l 0xffff, d6
          0x0064ead2      14bae34d       move.b 0x64ce21(pc), (a2)
          0x0064ead6      1d7ae34aff81   move.b 0x64ce22(pc), -0x7f(a6)
          0x0064eadc      102e000c       move.b 0xc(a6), d0
          0x0064eae0      0c000004       cmpi.b 0x4, d0
      < 0x0064eae4      6658           bne.b 0x64eb3e
         0x0064eae6      1f3c0001       move.b 0x1, -(a7)
         0x0064eaea      4eb900522436   jsr BRUSHCOM.set_write_en
         0x0064eaf0      3ebadf2a       move.w 0x64ca1c(pc), (a7)
         0x0064eaf4      2f3adf46       move.l 0x64ca3c(pc), -(a7)
         0x0064eaf8      3f3adf40       move.w 0x64ca3a(pc), -(a7)
         0x0064eafc      4eb900520fe8   jsr BRUSHCOM.set_br_key_colo
         0x0064eb02      5c4f           addq.w 0x6, a7
         0x0064eb04      1e93           move.b (a3), (a7)
         0x0064eb06      1f3c0004       move.b 0x4, -(a7)
         0x0064eb0a      514f           subq.w 0x8, a7
         0x0064eb0c      4eb9006339f2   jsr HANDCOM.get_picture_are
         0x0064eb12      4eb9005213b4   jsr BRUSHCOM.br_wipe
         0x0064eb18      defc000c       adda.w 0xc, a7
         0x0064eb1c      4eb90051f298   jsr BRUSHCOM.brush_wait
         0x0064eb22      206e0008       movea.l 0x8(a6), a0
         0x0064eb26      4850           pea.l (a0)
         0x0064eb28      1f13           move.b (a3), -(a7)
         0x0064eb2a      4eb900676250   jsr PASTECOM.rework_cutout
         0x0064eb30      584f           addq.w 0x4, a7
         0x0064eb32      4217           clr.b (a7)
         0x0064eb34      4eb900522436   jsr BRUSHCOM.set_write_en
     < 0x0064eb3a      60000290       bra.w loc.0064edcc
     > 0x0064eb3e      206e0008       movea.l 0x8(a6), a0
         0x0064eb42      554f           subq.w 0x2, a7
         0x0064eb44      4227           clr.b -(a7)
         0x0064eb46      4850           pea.l (a0)
         0x0064eb48      1f3c0011       move.b 0x11, -(a7)
         0x0064eb4c      43eeffee       lea.l -0x12(a6), a1
         0x0064eb50      2f09           move.l a1, -(a7)
         0x0064eb52      48780011       pea.l 0x11
         0x0064eb56      4eb9005a2072   jsr K04_FILEROPS.k_data
         0x0064eb5c      defc0010       adda.w 0x10, a7
         0x0064eb60      349f           move.w (a7)+, (a2)
         0x0064eb62      122efffe       move.b -0x2(a6), d1
         0x0064eb66      4881           ext.w d1
         0x0064eb68      43bc0001       chk.w 0x1, d1
         0x0064eb6c      1e01           move.b d1, d7
     < 0x0064eb6e      670c           beq.b 0x64eb7c
        0x0064eb70      1f3c0001       move.b 0x1, -(a7)
        0x0064eb74      4eb9005a9034   jsr K05_LOADSAVE.k05_set_resolut
        0x0064eb7a      544f           addq.w 0x2, a7
     > 0x0064eb7c      554f           subq.w 0x2, a7
         0x0064eb7e      1f13           move.b (a3), -(a7)
         0x0064eb80      1f00           move.b d0, -(a7)
         0x0064eb82      4850           pea.l (a0)
         0x0064eb84      4ebaf8f0       jsr K91_LIBOPS.k91_fetch(pc)
         0x0064eb88      504f           addq.w 0x8, a7
         0x0064eb8a      3497           move.w (a7), (a2)
         0x0064eb8c      5d4f           subq.w 0x6, a7
         0x0064eb8e      4eb900664aea   jsr K96_LIB2OPS.k96_last_loaded
         0x0064eb94      289f           move.l (a7)+, (a4)
         0x0064eb96      23df008486ba   move.l (a7)+, 0x8486ba
         0x0064eb9c      4880           ext.w d0
         0x0064eb9e      41fae284       lea.l 0x64ce24(pc), a0
         0x0064eba2      3200           move.w d0, d1
         0x0064eba4      e649           lsr.w 0x3, d1
         0x0064eba6      01301000       btst.l d0, (a0, d1.w)
     < 0x0064ebaa      67000218       beq.w 0x64edc4
        0x0064ebae      1212           move.b (a2), d1
        0x0064ebb0      b23ae27f       cmp.b 0x64ce31(pc), d1
    < 0x0064ebb4      6608           bne.b 0x64ebbe
       0x0064ebb6      122eff81       move.b -0x7f(a6), d1
       0x0064ebba      b23ae276       cmp.b 0x64ce32(pc), d1
   > 0x0064ebbe      66000204       bne.w 0x64edc4
       0x0064ebc2      4a07           tst.b d7
   < 0x0064ebc4      670001fe       beq.w 0x64edc4
      0x0064ebc8      9efc0048       suba.w 0x48, a7
      0x0064ebcc      4eb9005ab364   jsr K05_LOADSAVE.k05_dtpb_tag_da
      0x0064ebd2      41eeff9e       lea.l -0x62(a6), a0
      0x0064ebd6      7211           moveq 0x11, d1
  > 0x0064ebd8      20df           move.l (a7)+, (a0)+
  < 0x0064ebda      51c9fffc       dbra d1, 0x64ebd8
      0x0064ebde      2d54ff8a       move.l (a4), -0x76(a6)
      0x0064ebe2      2d79008486ba.  move.l 0x8486ba, -0x72(a6)
      0x0064ebea      322eff8c       move.w -0x74(a6), d1
      0x0064ebee      48c1           ext.l d1
      0x0064ebf0      048100000080   subi.l 0x80, d1
      0x0064ebf6      9285           sub.l d5, d1
      0x0064ebf8      b286           cmp.l d6, d1
  < 0x0064ebfa      6302           bls.b 0x64ebfe
     0x0064ebfc      4e4f           trap 0xf
  > 0x0064ebfe      d285           add.l d5, d1
      0x0064ec00      3d41ff8c       move.w d1, -0x74(a6)
      0x0064ec04      222effb0       move.l -0x50(a6), d1
      0x0064ec08      9285           sub.l d5, d1
      0x0064ec0a      b286           cmp.l d6, d1
  < 0x0064ec0c      6302           bls.b 0x64ec10
     0x0064ec0e      4e4f           trap 0xf
  > 0x0064ec10      d285           add.l d5, d1
      0x0064ec12      3d41ff8e       move.w d1, -0x72(a6)
      0x0064ec16      222effb4       move.l -0x4c(a6), d1
      0x0064ec1a      9285           sub.l d5, d1
      0x0064ec1c      b286           cmp.l d6, d1
  < 0x0064ec1e      6302           bls.b 0x64ec22
     0x0064ec20      4e4f           trap 0xf
  > 0x0064ec22      d285           add.l d5, d1
      0x0064ec24      3d41ff90       move.w d1, -0x70(a6)
      0x0064ec28      2f2eff8e       move.l -0x72(a6), -(a7)
      0x0064ec2c      2f2eff8a       move.l -0x76(a6), -(a7)
      0x0064ec30      4eb900500530   jsr MENUGRIDCOM.set_grid_area
      0x0064ec36      5c4f           addq.w 0x6, a7
      0x0064ec38      3ebc0057       move.w 0x57, (a7)
      0x0064ec3c      7864           moveq 0x64, d4
      0x0064ec3e      4eb900408686   jsr fcn.00408686
      0x0064ec44      2f04           move.l d4, -(a7)
      0x0064ec46      4227           clr.b -(a7)
      0x0064ec48      4227           clr.b -(a7)
      0x0064ec4a      4eb90048da84   jsr MENU2COM.set_numeric_val
      0x0064ec50      defc000a       adda.w 0xa, a7
      0x0064ec54      2d6eff8aff92   move.l -0x76(a6), -0x6e(a6)
      0x0064ec5a      2d6eff8eff96   move.l -0x72(a6), -0x6a(a6)
      0x0064ec60      322eff8a       move.w -0x76(a6), d1
      0x0064ec64      48c1           ext.l d1
      0x0064ec66      342eff8e       move.w -0x72(a6), d2
      0x0064ec6a      48c2           ext.l d2
      0x0064ec6c      d481           add.l d1, d2
      0x0064ec6e      9485           sub.l d5, d2
      0x0064ec70      b486           cmp.l d6, d2
  < 0x0064ec72      6302           bls.b 0x64ec76
     0x0064ec74      4e4f           trap 0xf
  > 0x0064ec76      d485           add.l d5, d2
      0x0064ec78      3d42ff92       move.w d2, -0x6e(a6)
      0x0064ec7c      322eff94       move.w -0x6c(a6), d1
      0x0064ec80      48c1           ext.l d1
      0x0064ec82      068100000080   addi.l 0x80, d1
      0x0064ec88      9285           sub.l d5, d1
      0x0064ec8a      b286           cmp.l d6, d1
  < 0x0064ec8c      6302           bls.b 0x64ec90
     0x0064ec8e      4e4f           trap 0xf
  > 0x0064ec90      d285           add.l d5, d1
      0x0064ec92      3d41ff94       move.w d1, -0x6c(a6)
      0x0064ec96      3d7c0008ff96   move.w 0x8, -0x6a(a6)
      0x0064ec9c      0c000003       cmpi.b 0x3, d0
  < 0x0064eca0      6614           bne.b 0x64ecb6
     0x0064eca2      2f3add7a       move.l 0x64ca1e(pc), -(a7)
     0x0064eca6      3f3add74       move.w 0x64ca1c(pc), -(a7)
     0x0064ecaa      4eb900520fa4   jsr BRUSHCOM.set_br_colour
     0x0064ecb0      5c4f           addq.w 0x6, a7
     0x0064ecb2      7e01           moveq 0x1, d7
 < 0x0064ecb4      6012           bra.b 0x64ecc8
 > 0x0064ecb6      2f3add84       move.l 0x64ca3c(pc), -(a7)
     0x0064ecba      3f3add7e       move.w 0x64ca3a(pc), -(a7)
     0x0064ecbe      4eb900520fa4   jsr BRUSHCOM.set_br_colour
     0x0064ecc4      5c4f           addq.w 0x6, a7
     0x0064ecc6      7e00           moveq 0x0, d7
 > 0x0064ecc8      1f13           move.b (a3), -(a7)
      0x0064ecca      4887           ext.w d7
      0x0064eccc      4fbc0004       chk.w 0x4, d7
      0x0064ecd0      1f07           move.b d7, -(a7)
      0x0064ecd2      2f2eff96       move.l -0x6a(a6), -(a7)
      0x0064ecd6      2f2eff92       move.l -0x6e(a6), -(a7)
      0x0064ecda      4eb9005213b4   jsr BRUSHCOM.br_wipe
      0x0064ece0      defc000c       adda.w 0xc, a7
      0x0064ece4      322eff9e       move.w -0x62(a6), d1
      0x0064ece8      0c410003       cmpi.w 0x3, d1
  < 0x0064ecec      6302           bls.b 0x64ecf0
     0x0064ecee      4e4e           trap 0xe
  > 0x0064ecf0      d241           add.w d1, d1
      0x0064ecf2      323b1006       move.w 0x64ecfa(pc, d1.w), d1
      0x0064ecf6      4efb1002       jmp 0x64ecfa(pc, d1.w)
       0x0064ecfa      00080008       
       0x0064ecfb      08000800       
       0x0064ecfc      0008000c       
       0x0064ecfd      08000c00       
       0x0064ecfe      000c0010       
       0x0064ecff      0c00107e       cmpi.b 0x7e, d0
       0x0064ed03      0060067e       ori.w 0x67e, -(a0)
       0x0064ed07      0360           bchg.b d1, -(a0)
       0x0064ed09      027e021f       
       0x0064ed0a      7e02           moveq 0x2, d7
       0x0064ed0c      1f3c0012       move.b 0x12, -(a7)
       0x0064ed10      4887           ext.w d7
       0x0064ed12      3f07           move.w d7, -(a7)
       0x0064ed14      4eb900475054   jsr CONFIG.put_menu_config
       0x0064ed1a      584f           addq.w 0x4, a7
       0x0064ed1c      7864           moveq 0x64, d4
       0x0064ed1e      262effa0       move.l -0x60(a6), d3
       0x0064ed22      4eb900406b1a   jsr fcn.00406b1a
       0x0064ed28      4eb900408650   jsr fcn.00408650
       0x0064ed2e      2f04           move.l d4, -(a7)
       0x0064ed30      282effa4       move.l -0x5c(a6), d4
       0x0064ed34      4eb900408650   jsr fcn.00408650
       0x0064ed3a      2604           move.l d4, d3
       0x0064ed3c      2817           move.l (a7), d4
       0x0064ed3e      4eb900407ff8   jsr fcn.00407ff8
       0x0064ed44      584f           addq.w 0x4, a7
       0x0064ed46      4eb900408224   jsr fcn.00408224
       0x0064ed4c      2d44ffa0       move.l d4, -0x60(a6)
       0x0064ed50      322eff9e       move.w -0x62(a6), d1
       0x0064ed54      0c410003       cmpi.w 0x3, d1
   < 0x0064ed58      6610           bne.b 0x64ed6a
      0x0064ed5a      282effa0       move.l -0x60(a6), d4
      0x0064ed5e      760a           moveq 0xa, d3
      0x0064ed60      4eb900406bf4   jsr fcn.00406bf4
      0x0064ed66      2d44ffe6       move.l d4, -0x1a(a6)
   > 0x0064ed6a      0c410002       cmpi.w 0x2, d1
   < 0x0064ed6e      6620           bne.b 0x64ed90
      0x0064ed70      282effa0       move.l -0x60(a6), d4
      0x0064ed74      4eb900408650   jsr fcn.00408650
      0x0064ed7a      263c41cb3333   move.l 0x41cb3333, d3
      0x0064ed80      4eb900407ff8   jsr fcn.00407ff8
      0x0064ed86      4eb900408224   jsr fcn.00408224
      0x0064ed8c      2d44ffe6       move.l d4, -0x1a(a6)
   > 0x0064ed90      1f3c0013       move.b 0x13, -(a7)
       0x0064ed94      3f2effe8       move.w -0x18(a6), -(a7)
       0x0064ed98      4eb900475054   jsr CONFIG.put_menu_config
       0x0064ed9e      544f           addq.w 0x2, a7
       0x0064eda0      1ebc001d       move.b 0x1d, (a7)
       0x0064eda4      3f2effe6       move.w -0x1a(a6), -(a7)
       0x0064eda8      4eb900475054   jsr CONFIG.put_menu_config
       0x0064edae      544f           addq.w 0x2, a7
       0x0064edb0      3ebc0056       move.w 0x56, (a7)
       0x0064edb4      3f3c0056       move.w 0x56, -(a7)
       0x0064edb8      3f3c0002       move.w 0x2, -(a7)
       0x0064edbc      4eb90048128c   jsr MENUCOM.box_action
       0x0064edc2      5c4f           addq.w 0x6, a7
    > 0x0064edc4      4227           clr.b -(a7)
          0x0064edc6      4eb9005a9034   jsr K05_LOADSAVE.k05_set_resolut
          ; CODE XREF from K91_LIBOPS.k91_rework @ 0x64eb3a
 14: loc.0064edcc ();
     > 0x0064edcc      544f           addq.w 0x2, a7
          0x0064edce      3d520010       move.w (a2), 0x10(a6)
          0x0064edd2      4cdf1fff       movem.l (a7)+, d0-d7/a0-a4
          0x0064edd6      4e5e           unlk a6
          0x0064edd8      4e75           rts
 110: K91_LIBOPS.k91_in_grid ();
          ; var int32_t var_2h @ a6-0x2
          0x0064edda      4e56ffde       link.w a6, 0xffde
          0x0064edde      bfd5           cmpa.l (a5), a7
      < 0x0064ede0      6206           bhi.b 0x64ede8
         0x0064ede2      44fc0002       move.w 0x2, ccr
         0x0064ede6      4e76           trapv
      > 0x0064ede8      defc0020       adda.w 0x20, a7
          0x0064edec      48e7c0c0       movem.l d0-d1/a0-a1, -(a7)
          0x0064edf0      43ee0008       lea.l 0x8(a6), a1
          0x0064edf4      7202           moveq 0x2, d1
          0x0064edf6      102e000c       move.b 0xc(a6), d0
          0x0064edfa      b001           cmp.b d1, d0
      < 0x0064edfc      6708           beq.b 0x64ee06
         0x0064edfe      0c000003       cmpi.b 0x3, d0
     < 0x0064ee02      6718           beq.b 0x64ee1c
    < 0x0064ee04      6024           bra.b 0x64ee2a
    > 0x0064ee06      554f           subq.w 0x2, a7
        0x0064ee08      2051           movea.l (a1), a0
        0x0064ee0a      4850           pea.l (a0)
        0x0064ee0c      1f01           move.b d1, -(a7)
        0x0064ee0e      4227           clr.b -(a7)
    > 0x0064ee10      4ebaea68       jsr K91_LIBOPS.fetch_pic_sten_(pc)
   > 0x0064ee14      504f           addq.w 0x8, a7
      0x0064ee16      3d5ffffe       move.w (a7)+, -0x2(a6)
  < 0x0064ee1a      601e           bra.b 0x64ee3a
  > 0x0064ee1c      554f           subq.w 0x2, a7
      0x0064ee1e      2051           movea.l (a1), a0
      0x0064ee20      4850           pea.l (a0)
      0x0064ee22      1f01           move.b d1, -(a7)
      0x0064ee24      1f3c0001       move.b 0x1, -(a7)
   < 0x0064ee28      60e6           bra.b 0x64ee10
  > 0x0064ee2a      554f           subq.w 0x2, a7
        0x0064ee2c      1f01           move.b d1, -(a7)
        0x0064ee2e      1f00           move.b d0, -(a7)
        0x0064ee30      2051           movea.l (a1), a0
        0x0064ee32      4850           pea.l (a0)
        0x0064ee34      4ebaf640       jsr K91_LIBOPS.k91_fetch(pc)
  < 0x0064ee38      60da           bra.b 0x64ee14
  > 0x0064ee3a      3d6efffe000e   move.w -0x2(a6), 0xe(a6)
          0x0064ee40      4cdf0303       movem.l (a7)+, d0-d1/a0-a1
          0x0064ee44      4e5e           unlk a6
          0x0064ee46      4e75           rts
           ; CALL XREF from K9_LIBRARY.k9_resize_reloa @ 0x64a254
 104: K91_LIBOPS.k91_resize ();
          ; var int32_t var_4ah @ a6-0x4a
          0x0064ee48      4e56fe6a       link.w a6, 0xfe6a
          0x0064ee4c      bfd5           cmpa.l (a5), a7
      < 0x0064ee4e      6206           bhi.b 0x64ee56
         0x0064ee50      44fc0002       move.w 0x2, ccr
         0x0064ee54      4e76           trapv
      > 0x0064ee56      defc014c       adda.w 0x14c, a7
          0x0064ee5a      48e7fff8       movem.l d0-d7/a0-a4, -(a7)
          0x0064ee5e      45eeffb8       lea.l -0x48(a6), a2
          0x0064ee62      47eefff2       lea.l -0xe(a6), a3
          0x0064ee66      49eeffc0       lea.l -0x40(a6), a4
          0x0064ee6a      7602           moveq 0x2, d3
          0x0064ee6c      780c           moveq 0xc, d4
          0x0064ee6e      7a03           moveq 0x3, d5
          0x0064ee70      7c01           moveq 0x1, d6
          0x0064ee72      4853           pea.l (a3)
          0x0064ee74      4852           pea.l (a2)
          0x0064ee76      4854           pea.l (a4)
          0x0064ee78      4eb90075817a   jsr MENULIBFNDCOM.get_resize_para
          0x0064ee7e      dec4           adda.w d4, a7
          0x0064ee80      102e000c       move.b 0xc(a6), d0
          0x0064ee84      b005           cmp.b d5, d0
      < 0x0064ee86      6d0e           blt.b 0x64ee96
         0x0064ee88      b005           cmp.b d5, d0
     < 0x0064ee8a      670e           beq.b 0x64ee9a
        0x0064ee8c      0c00002f       cmpi.b 0x2f, d0
   > 0x0064ee90      6708           beq.b 0x64ee9a
  < 0x0064ee92      6000013a       bra.w loc.0064efce
  > 0x0064ee96      b003           cmp.b d3, d0
  < 0x0064ee98      60f6           bra.b 0x64ee90
  > 0x0064ee9a      1213           move.b (a3), d1
         0x0064ee9c      4881           ext.w d1
         0x0064ee9e      3401           move.w d1, d2
         0x0064eea0      b443           cmp.w d3, d2
     < 0x0064eea2      6302           bls.b 0x64eea6
        0x0064eea4      4e4e           trap 0xe
     > 0x0064eea6      d442           add.w d2, d2
         0x0064eea8      343b2006       move.w 0x64eeb0(pc, d2.w), d2
         0x0064eeac      4efb2002       jmp 0x64eeb0(pc, d2.w)
          0x0064eeb0      00060006       ori.b 0x6, d6
          0x0064eeb4      002e41eeffc4   ori.b 0xee, -0x3c(a6)
          0x0064eeba      43fadaea       lea.l 0x64c9a6(pc), a1
          0x0064eebe      740a           moveq 0xa, d2
      > 0x0064eec0      20d9           move.l (a1)+, (a0)+
      < 0x0064eec2      51cafffc       dbra d2, 0x64eec0
          0x0064eec6      30d9           move.w (a1)+, (a0)+
          0x0064eec8      4a41           tst.w d1
      < 0x0064eeca      6706           beq.b 0x64eed2
         0x0064eecc      b246           cmp.w d6, d1
     < 0x0064eece      6708           beq.b 0x64eed8
        0x0064eed0      4e4e           trap 0xe
     > 0x0064eed2      1d43ffe0       move.b d3, -0x20(a6)
     < 0x0064eed6      6004           bra.b 0x64eedc
     > 0x0064eed8      1d46ffe0       move.b d6, -0x20(a6)
     > 0x0064eedc      606c           bra.b 0x64ef4a
         0x0064eede      9efc0100       suba.w 0x100, a7
         0x0064eee2      2f2effbc       move.l -0x44(a6), -(a7)
         0x0064eee6      2f12           move.l (a2), -(a7)
         0x0064eee8      48780000       pea.l 0x0
         0x0064eeec      48780004       pea.l 0x4
         0x0064eef0      4eb90044e33c   jsr SYSTEM_STRING.rpoint_str
         0x0064eef6      defc0010       adda.w 0x10, a7
         0x0064eefa      487adf38       pea.l 0x64ce34(pc)
         0x0064eefe      48780005       pea.l 0x5
         0x0064ef02      2f17           move.l (a7), -(a7)
         0x0064ef04      4eb9004047ea   jsr p_wts_o
         0x0064ef0a      dec4           adda.w d4, a7
         0x0064ef0c      486f0001       pea.l 0x1(a7)
         0x0064ef10      42a7           clr.l -(a7)
         0x0064ef12      1f6f00080003   move.b 0x8(a7), 0x3(a7)
         0x0064ef18      2f17           move.l (a7), -(a7)
         0x0064ef1a      4eb9004047ea   jsr p_wts_o
         0x0064ef20      defc010c       adda.w 0x10c, a7
         0x0064ef24      4eb900404946   jsr p_wtln_o
         0x0064ef2a      41eeffc4       lea.l -0x3c(a6), a0
         0x0064ef2e      43fada48       lea.l 0x64c978(pc), a1
         0x0064ef32      720a           moveq 0xa, d1
     > 0x0064ef34      20d9           move.l (a1)+, (a0)+
     < 0x0064ef36      51c9fffc       dbra d1, 0x64ef34
         0x0064ef3a      30d9           move.w (a1)+, (a0)+
         0x0064ef3c      2d52ffe2       move.l (a2), -0x1e(a6)
         0x0064ef40      2d6effbcffe6   move.l -0x44(a6), -0x1a(a6)
         0x0064ef46      2d54ffee       move.l (a4), -0x12(a6)
     > 0x0064ef4a      1d46ffd4       move.b d6, -0x2c(a6)
          0x0064ef4e      2d7adaeaffd6   move.l 0x64ca3a(pc), -0x2a(a6)
          0x0064ef54      3d7adae8ffda   move.w 0x64ca3e(pc), -0x26(a6)
          0x0064ef5a      3d7adac0ffdc   move.w 0x64ca1c(pc), -0x24(a6)
          0x0064ef60      b005           cmp.b d5, d0
      < 0x0064ef62      6604           bne.b 0x64ef68
         0x0064ef64      7e01           moveq 0x1, d7
     < 0x0064ef66      6002           bra.b 0x64ef6a
     > 0x0064ef68      7e00           moveq 0x0, d7
     > 0x0064ef6a      1d7c0004fff4   move.b 0x4, -0xc(a6)
          0x0064ef70      554f           subq.w 0x2, a7
          0x0064ef72      206e0008       movea.l 0x8(a6), a0
          0x0064ef76      4850           pea.l (a0)
          0x0064ef78      514f           subq.w 0x8, a7
          0x0064ef7a      4eb900633d7c   jsr HANDCOM.get_hi_centre_p
          0x0064ef80      2f2efffa       move.l -0x6(a6), -(a7)
          0x0064ef84      2f2efff6       move.l -0xa(a6), -(a7)
          0x0064ef88      3f2efff4       move.w -0xc(a6), -(a7)
          0x0064ef8c      204b           movea.l a3, a0
          0x0064ef8e      720a           moveq 0xa, d1
      > 0x0064ef90      2f20           move.l -(a0), -(a7)
      < 0x0064ef92      51c9fffc       dbra d1, 0x64ef90
          0x0064ef96      3f20           move.w -(a0), -(a7)
          0x0064ef98      1f03           move.b d3, -(a7)
          0x0064ef9a      4887           ext.w d7
          0x0064ef9c      4fbc0004       chk.w 0x4, d7
          0x0064efa0      1f07           move.b d7, -(a7)
          0x0064efa2      514f           subq.w 0x8, a7
          0x0064efa4      4227           clr.b -(a7)
          0x0064efa6      4eb9006336ea   jsr HANDCOM.get_area
          0x0064efac      544f           addq.w 0x2, a7
          0x0064efae      4eb900664b10   jsr K96_LIB2OPS.k96_do_load
          0x0064efb4      defc0050       adda.w 0x50, a7
          0x0064efb8      3d5fffb6       move.w (a7)+, -0x4a(a6)
          0x0064efbc      2f2effbc       move.l -0x44(a6), -(a7)
          0x0064efc0      2f12           move.l (a2), -(a7)
          0x0064efc2      2f14           move.l (a4), -(a7)
          0x0064efc4      4eb900758272   jsr MENULIBFNDCOM.resize_magn_off
          0x0064efca      dec4           adda.w d4, a7
      < 0x0064efcc      6016           bra.b 0x64efe4              ; loc.0064efce+0x16
         ; CODE XREF from K91_LIBOPS.k91_resize @ 0x64ee92
 36: loc.0064efce ();
        ; var int32_t var_4ah @ a6-0x4a
  > 0x0064efce      554f           subq.w 0x2, a7
         0x0064efd0      1f03           move.b d3, -(a7)
         0x0064efd2      1f00           move.b d0, -(a7)
         0x0064efd4      206e0008       movea.l 0x8(a6), a0
         0x0064efd8      4850           pea.l (a0)
         0x0064efda      4ebaf49a       jsr K91_LIBOPS.k91_fetch(pc)
         0x0064efde      504f           addq.w 0x8, a7
         0x0064efe0      3d5fffb6       move.w (a7)+, -0x4a(a6)
      > 0x0064efe4      3d6effb6000e   move.w -0x4a(a6), 0xe(a6)
          0x0064efea      4cdf1fff       movem.l (a7)+, d0-d7/a0-a4
          0x0064efee      4e5e           unlk a6
          0x0064eff0      4e75           rts
 152: K91_LIBOPS.k91_choose_item ();
          ; var int32_t var_2210h @ a6-0x2210
          ; var int32_t var_2200h @ a6-0x2200
          0x0064eff2      4e56ffce       link.w a6, 0xffce
          0x0064eff6      bfd5           cmpa.l (a5), a7
      < 0x0064eff8      6206           bhi.b 0x64f000
         0x0064effa      44fc0002       move.w 0x2, ccr
         0x0064effe      4e76           trapv
      > 0x0064f000      defc0024       adda.w 0x24, a7
          0x0064f004      48e7c0c0       movem.l d0-d1/a0-a1, -(a7)
          0x0064f008      43eefff2       lea.l -0xe(a6), a1
          0x0064f00c      206e0008       movea.l 0x8(a6), a0
          0x0064f010      4850           pea.l (a0)
          0x0064f012      486efff4       pea.l -0xc(a6)
          0x0064f016      486efffe       pea.l -0x2(a6)
          0x0064f01a      4851           pea.l (a1)
          0x0064f01c      4eb900598736   jsr K0_DISKMGR.k_gen_fid
          0x0064f022      defc0010       adda.w 0x10, a7
          0x0064f026      3011           move.w (a1), d0
          0x0064f028      b07ade10       cmp.w 0x64ce3a(pc), d0
      < 0x0064f02c      6650           bne.b 0x64f07e
         0x0064f02e      102efffe       move.b -0x2(a6), d0
         0x0064f032      0c000001       cmpi.b 0x1, d0
     < 0x0064f036      670c           beq.b 0x64f044
        0x0064f038      12bade03       move.b 0x64ce3d(pc), (a1)
        0x0064f03c      1d7ade00fff3   move.b 0x64ce3e(pc), -0xd(a6)
    < 0x0064f042      603a           bra.b 0x64f07e
    > 0x0064f044      102e000c       move.b 0xc(a6), d0
        0x0064f048      4880           ext.w d0
        0x0064f04a      41faddf4       lea.l 0x64ce40(pc), a0
        0x0064f04e      3200           move.w d0, d1
        0x0064f050      e649           lsr.w 0x3, d1
        0x0064f052      01301000       btst.l d0, (a0, d1.w)
    < 0x0064f056      660c           bne.b 0x64f064
       0x0064f058      12baddf3       move.b 0x64ce4d(pc), (a1)
       0x0064f05c      1d7addf0fff3   move.b 0x64ce4e(pc), -0xd(a6)
   < 0x0064f062      601a           bra.b 0x64f07e
   > 0x0064f064      554f           subq.w 0x2, a7
       0x0064f066      2f2efffa       move.l -0x6(a6), -(a7)
       0x0064f06a      2f2efff6       move.l -0xa(a6), -(a7)
       0x0064f06e      3f2efff4       move.w -0xc(a6), -(a7)
       0x0064f072      4eb9007a4728   jsr PICBOX_DUMMY.ins_fid_at_curs
       0x0064f078      defc000a       adda.w 0xa, a7
       0x0064f07c      329f           move.w (a7)+, (a1)
   > 0x0064f07e      3d51000e       move.w (a1), 0xe(a6)
          0x0064f082      4cdf0303       movem.l (a7)+, d0-d1/a0-a1
          0x0064f086      4e5e           unlk a6
          0x0064f088      4e75           rts
 144: K91_LIBOPS.k91_add_to_cuto ();
          ; var int32_t var_2292h @ a6-0x2292
          ; var int32_t var_2282h @ a6-0x2282
          0x0064f08a      4e56ffc6       link.w a6, 0xffc6
          0x0064f08e      bfd5           cmpa.l (a5), a7
      < 0x0064f090      6206           bhi.b 0x64f098
         0x0064f092      44fc0002       move.w 0x2, ccr
         0x0064f096      4e76           trapv
      > 0x0064f098      defc002c       adda.w 0x2c, a7
          0x0064f09c      48e7c0e0       movem.l d0-d1/a0-a2, -(a7)
          0x0064f0a0      45eefff2       lea.l -0xe(a6), a2
          0x0064f0a4      206e000a       movea.l 0xa(a6), a0
          0x0064f0a8      4850           pea.l (a0)
          0x0064f0aa      486efff4       pea.l -0xc(a6)
          0x0064f0ae      486efffe       pea.l -0x2(a6)
          0x0064f0b2      4852           pea.l (a2)
          0x0064f0b4      4eb900598736   jsr K0_DISKMGR.k_gen_fid
          0x0064f0ba      defc0010       adda.w 0x10, a7
          0x0064f0be      3012           move.w (a2), d0
          0x0064f0c0      b07add8e       cmp.w 0x64ce50(pc), d0
      < 0x0064f0c4      6648           bne.b 0x64f10e
         0x0064f0c6      102efffe       move.b -0x2(a6), d0
         0x0064f0ca      0c000001       cmpi.b 0x1, d0
     < 0x0064f0ce      670c           beq.b 0x64f0dc
        0x0064f0d0      14badd81       move.b 0x64ce53(pc), (a2)
        0x0064f0d4      1d7add7efff3   move.b 0x64ce54(pc), -0xd(a6)
    < 0x0064f0da      6032           bra.b 0x64f10e
    > 0x0064f0dc      102e000e       move.b 0xe(a6), d0
        0x0064f0e0      4880           ext.w d0
        0x0064f0e2      43fadd72       lea.l 0x64ce56(pc), a1
        0x0064f0e6      3200           move.w d0, d1
        0x0064f0e8      e649           lsr.w 0x3, d1
        0x0064f0ea      01311000       btst.l d0, (a1, d1.w)
    < 0x0064f0ee      660c           bne.b 0x64f0fc
       0x0064f0f0      14badd71       move.b 0x64ce63(pc), (a2)
       0x0064f0f4      1d7add6efff3   move.b 0x64ce64(pc), -0xd(a6)
   < 0x0064f0fa      6012           bra.b 0x64f10e
   > 0x0064f0fc      554f           subq.w 0x2, a7
       0x0064f0fe      2f10           move.l (a0), -(a7)
       0x0064f100      3f2e0008       move.w 0x8(a6), -(a7)
       0x0064f104      4eb900763878   jsr MENUTYPECOM.add_cutout_to_f
       0x0064f10a      5c4f           addq.w 0x6, a7
       0x0064f10c      349f           move.w (a7)+, (a2)
   > 0x0064f10e      3d520010       move.w (a2), 0x10(a6)
          0x0064f112      4cdf0703       movem.l (a7)+, d0-d1/a0-a2
          0x0064f116      4e5e           unlk a6
          0x0064f118      4e75           rts
           ; CALL XREF from K91_LIBOPS.k91_transfer @ 0x64f3f0
 130: K91_LIBOPS.do_archive ();
          0x0064f11a      4e56ffd0       link.w a6, 0xffd0
          0x0064f11e      bfd5           cmpa.l (a5), a7
      < 0x0064f120      6206           bhi.b 0x64f128
         0x0064f122      44fc0002       move.w 0x2, ccr
         0x0064f126      4e76           trapv
      > 0x0064f128      defc0030       adda.w 0x30, a7
          0x0064f12c      48e78880       movem.l d0/d4/a0, -(a7)
          0x0064f130      3f3c0057       move.w 0x57, -(a7)
          0x0064f134      7864           moveq 0x64, d4
          0x0064f136      4eb900408686   jsr fcn.00408686
          0x0064f13c      2f04           move.l d4, -(a7)
          0x0064f13e      4227           clr.b -(a7)
          0x0064f140      4227           clr.b -(a7)
          0x0064f142      4eb90048da84   jsr MENU2COM.set_numeric_val
          0x0064f148      504f           addq.w 0x8, a7
          0x0064f14a      206e0018       movea.l 0x18(a6), a0
          0x0064f14e      4850           pea.l (a0)
          0x0064f150      206e0014       movea.l 0x14(a6), a0
          0x0064f154      4850           pea.l (a0)
          0x0064f156      1f2e0012       move.b 0x12(a6), -(a7)
          0x0064f15a      2f3add0e       move.l 0x64ce6a(pc), -(a7)
          0x0064f15e      2f3add06       move.l 0x64ce66(pc), -(a7)
          0x0064f162      206e000e       movea.l 0xe(a6), a0
          0x0064f166      4850           pea.l (a0)
          0x0064f168      1f2e000c       move.b 0xc(a6), -(a7)
          0x0064f16c      1f2e000a       move.b 0xa(a6), -(a7)
          0x0064f170      1f2e0008       move.b 0x8(a6), -(a7)
          0x0064f174      554f           subq.w 0x2, a7
          0x0064f176      4eb9007588e8   jsr MENULIBFNDCOM.hal_vtr_enabled
          0x0064f17c      1017           move.b (a7), d0
          0x0064f17e      4880           ext.w d0
          0x0064f180      41bc0001       chk.w 0x1, d0
          0x0064f184      1e80           move.b d0, (a7)
          0x0064f186      4eb9005b5f96   jsr K7_HANDLERS.k7_archive
          0x0064f18c      defc001e       adda.w 0x1e, a7
          0x0064f190      3d5f001c       move.w (a7)+, 0x1c(a6)
          0x0064f194      4cdf0111       movem.l (a7)+, d0/d4/a0
          0x0064f198      4e5e           unlk a6
          0x0064f19a      4e75           rts
 150: K91_LIBOPS.k91_archive ();
          0x0064f19c      4e56ffa2       link.w a6, 0xffa2
          0x0064f1a0      bfd5           cmpa.l (a5), a7
      < 0x0064f1a2      6206           bhi.b 0x64f1aa
         0x0064f1a4      44fc0002       move.w 0x2, ccr
         0x0064f1a8      4e76           trapv
      > 0x0064f1aa      defc0052       adda.w 0x52, a7
          0x0064f1ae      48e7fff8       movem.l d0-d7/a0-a4, -(a7)
          0x0064f1b2      47eefffa       lea.l -0x6(a6), a3
          0x0064f1b6      49eefff8       lea.l -0x8(a6), a4
          0x0064f1ba      7601           moveq 0x1, d3
          0x0064f1bc      2a3c0000ffff   move.l 0xffff, d5
          0x0064f1c2      7c08           moveq 0x8, d6
          0x0064f1c4      2d43fff4       move.l d3, -0xc(a6)
          0x0064f1c8      206e0008       movea.l 0x8(a6), a0
          0x0064f1cc      10badca0       move.b 0x64ce6e(pc), (a0)
          0x0064f1d0      4a79008487ca   tst.w 0x8487ca
      < 0x0064f1d6      672e           beq.b 0x64f206
         0x0064f1d8      102e000c       move.b 0xc(a6), d0
         0x0064f1dc      4880           ext.w d0
         0x0064f1de      43fadc90       lea.l 0x64ce70(pc), a1
         0x0064f1e2      3200           move.w d0, d1
         0x0064f1e4      e649           lsr.w 0x3, d1
         0x0064f1e6      01311000       btst.l d0, (a1, d1.w)
     < 0x0064f1ea      671a           beq.b 0x64f206
        0x0064f1ec      226e000e       movea.l 0xe(a6), a1
        0x0064f1f0      2f11           move.l (a1), -(a7)
        0x0064f1f2      4853           pea.l (a3)
        0x0064f1f4      486efffc       pea.l -0x4(a6)
        0x0064f1f8      486efffd       pea.l -0x3(a6)
        0x0064f1fc      4ebae550       jsr K91_LIBOPS.do_calc_dest_nu(pc)
        0x0064f200      defc0010       adda.w 0x10, a7
    < 0x0064f204      600a           bra.b 0x64f210
    > 0x0064f206      3685           move.w d5, (a3)
         0x0064f208      1d43fffc       move.b d3, -0x4(a6)
         0x0064f20c      422efffd       clr.b -0x3(a6)
    > 0x0064f210      486effff       pea.l -0x1(a6)
          0x0064f214      4eb900758314   jsr MENULIBFNDCOM.get_archive_par
          0x0064f21a      584f           addq.w 0x4, a7
          0x0064f21c      102effff       move.b -0x1(a6), d0
          0x0064f220      4880           ext.w d0
          0x0064f222      b046           cmp.w d6, d0
      < 0x0064f224      6302           bls.b 0x64f228
         0x0064f226      4e4e           trap 0xe
      > 0x0064f228      d040           add.w d0, d0
          0x0064f22a      303b0006       move.w 0x64f232(pc, d0.w), d0
          0x0064f22e      4efb0002       jmp 0x64f232(pc, d0.w)
           0x0064f232      00120016       ori.b 0x16, (a2)
           0x0064f236      001a001e       ori.b 0x1e, (a2)+
           0x0064f23a      00220026       ori.b 0x26, -(a2)
           0x0064f23e      002a002e0032   ori.b 0x2e, 0x32(a2)
           0x0064f244      7e00           moveq 0x0, d7
       < 0x0064f246      601e           bra.b 0x64f266
          0x0064f248      7e01           moveq 0x1, d7
      < 0x0064f24a      601a           bra.b 0x64f266
         0x0064f24c      7e02           moveq 0x2, d7
     < 0x0064f24e      6016           bra.b 0x64f266
        0x0064f250      7e03           moveq 0x3, d7
    < 0x0064f252      6012           bra.b 0x64f266
       0x0064f254      7e04           moveq 0x4, d7
   < 0x0064f256      600e           bra.b 0x64f266
      0x0064f258      7e05           moveq 0x5, d7
  < 0x0064f25a      600a           bra.b 0x64f266
     0x0064f25c      7e06           moveq 0x6, d7
  < 0x0064f25e      6006           bra.b 0x64f266
     0x0064f260      7e07           moveq 0x7, d7
  < 0x0064f262      6002           bra.b 0x64f266
     0x0064f264      7e08           moveq 0x8, d7
  > 0x0064f266      554f           subq.w 0x2, a7
           0x0064f268      226e000e       movea.l 0xe(a6), a1
           0x0064f26c      4851           pea.l (a1)
           0x0064f26e      486efff4       pea.l -0xc(a6)
           0x0064f272      4887           ext.w d7
           0x0064f274      4f86           chk.w d6, d7
           0x0064f276      1f07           move.b d7, -(a7)
           0x0064f278      4853           pea.l (a3)
           0x0064f27a      102efffc       move.b -0x4(a6), d0
           0x0064f27e      4880           ext.w d0
           0x0064f280      41bc0002       chk.w 0x2, d0
           0x0064f284      1f00           move.b d0, -(a7)
           0x0064f286      1f03           move.b d3, -(a7)
           0x0064f288      4227           clr.b -(a7)
           0x0064f28a      4ebafe8e       jsr K91_LIBOPS.do_archive(pc)
           0x0064f28e      defc0014       adda.w 0x14, a7
           0x0064f292      301f           move.w (a7)+, d0
           0x0064f294      3880           move.w d0, (a4)
           0x0064f296      3f00           move.w d0, -(a7)
           0x0064f298      3d400012       move.w d0, 0x12(a6)
           0x0064f29c      4281           clr.l d1
           0x0064f29e      3213           move.w (a3), d1
           0x0064f2a0      b285           cmp.l d5, d1
       < 0x0064f2a2      670000aa       beq.w 0x64f34e
          0x0064f2a6      b07adc18       cmp.w 0x64cec0(pc), d0
      < 0x0064f2aa      6620           bne.b 0x64f2cc
         0x0064f2ac      18badc25       move.b 0x64ced3(pc), (a4)
         0x0064f2b0      1d7adc22fff9   move.b 0x64ced4(pc), -0x7(a6)
         0x0064f2b6      3d7adc1e0012   move.w 0x64ced6(pc), 0x12(a6)
         0x0064f2bc      2248           movea.l a0, a1
         0x0064f2be      45fadc18       lea.l 0x64ced8(pc), a2
         0x0064f2c2      7405           moveq 0x5, d2
     > 0x0064f2c4      12da           move.b (a2)+, (a1)+
     < 0x0064f2c6      51cafffc       dbra d2, 0x64f2c4
     < 0x0064f2ca      602a           bra.b 0x64f2f6
     > 0x0064f2cc      224f           movea.l a7, a1
         0x0064f2ce      1411           move.b (a1), d2
         0x0064f2d0      b43adc0d       cmp.b 0x64cedf(pc), d2
     < 0x0064f2d4      6608           bne.b 0x64f2de
        0x0064f2d6      14290001       move.b 0x1(a1), d2
        0x0064f2da      b43adc04       cmp.b 0x64cee0(pc), d2
    > 0x0064f2de      6616           bne.b 0x64f2f6
        0x0064f2e0      2f01           move.l d1, -(a7)
        0x0064f2e2      48780004       pea.l 0x4
        0x0064f2e6      4850           pea.l (a0)
        0x0064f2e8      3f3c0050       move.w 0x50, -(a7)
        0x0064f2ec      4eb900406e56   jsr p_strI1
        0x0064f2f2      defc000e       adda.w 0xe, a7
    > 0x0064f2f6      3414           move.w (a4), d2
          0x0064f2f8      b47adbe8       cmp.w 0x64cee2(pc), d2
      < 0x0064f2fc      6650           bne.b 0x64f34e
         0x0064f2fe      4a2efffd       tst.b -0x3(a6)
     < 0x0064f302      674a           beq.b 0x64f34e
        0x0064f304      0c810000270f   cmpi.l 0x270f, d1
    < 0x0064f30a      6c0c           bge.b 0x64f318
       0x0064f30c      2401           move.l d1, d2
       0x0064f30e      5282           addq.l 0x1, d2
       0x0064f310      b485           cmp.l d5, d2
   < 0x0064f312      6302           bls.b 0x64f316
      0x0064f314      4e4f           trap 0xf
   > 0x0064f316      3682           move.w d2, (a3)
    > 0x0064f318      4282           clr.l d2
        0x0064f31a      3439008487ca   move.w 0x8487ca, d2
        0x0064f320      0482ffff8000   subi.l 0xffff8000, d2
        0x0064f326      b485           cmp.l d5, d2
    < 0x0064f328      6302           bls.b 0x64f32c
       0x0064f32a      4e4f           trap 0xf
    > 0x0064f32c      0682ffff8000   addi.l 0xffff8000, d2
        0x0064f332      3f02           move.w d2, -(a7)
        0x0064f334      4284           clr.l d4
        0x0064f336      3813           move.w (a3), d4
        0x0064f338      4eb900408686   jsr fcn.00408686
        0x0064f33e      2f04           move.l d4, -(a7)
        0x0064f340      4227           clr.b -(a7)
        0x0064f342      1f03           move.b d3, -(a7)
        0x0064f344      4eb90048da84   jsr MENU2COM.set_numeric_val
        0x0064f34a      defc000a       adda.w 0xa, a7
     > 0x0064f34e      486efff4       pea.l -0xc(a6)
           0x0064f352      4eb900594e02   jsr K0_DISKMGR.k_lose_ref
           0x0064f358      584f           addq.w 0x4, a7
           0x0064f35a      389f           move.w (a7)+, (a4)
           0x0064f35c      1014           move.b (a4), d0
           0x0064f35e      b03adb85       cmp.b 0x64cee5(pc), d0
       < 0x0064f362      6608           bne.b 0x64f36c
          0x0064f364      102efff9       move.b -0x7(a6), d0
          0x0064f368      b03adb7c       cmp.b 0x64cee6(pc), d0
      > 0x0064f36c      672c           beq.b 0x64f39a
          0x0064f36e      487adb78       pea.l 0x64cee8(pc)
          0x0064f372      48780020       pea.l 0x20
          0x0064f376      2f17           move.l (a7), -(a7)
          0x0064f378      4eb9004047ea   jsr p_wts_o
          0x0064f37e      defc000c       adda.w 0xc, a7
          0x0064f382      4854           pea.l (a4)
          0x0064f384      48780002       pea.l 0x2
          0x0064f388      2f17           move.l (a7), -(a7)
          0x0064f38a      4eb9004047ea   jsr p_wts_o
          0x0064f390      defc000c       adda.w 0xc, a7
          0x0064f394      4eb900404946   jsr p_wtln_o
      > 0x0064f39a      4cdf1fff       movem.l (a7)+, d0-d7/a0-a4
           0x0064f39e      4e5e           unlk a6
           0x0064f3a0      4e75           rts
 168: K91_LIBOPS.k91_transfer ();
          0x0064f3a2      4e56ffca       link.w a6, 0xffca
          0x0064f3a6      bfd5           cmpa.l (a5), a7
      < 0x0064f3a8      6206           bhi.b 0x64f3b0
         0x0064f3aa      44fc0002       move.w 0x2, ccr
         0x0064f3ae      4e76           trapv
      > 0x0064f3b0      defc002e       adda.w 0x2e, a7
          0x0064f3b4      48e7c0e0       movem.l d0-d1/a0-a2, -(a7)
          0x0064f3b8      43eefff8       lea.l -0x8(a6), a1
          0x0064f3bc      45eefffc       lea.l -0x4(a6), a2
          0x0064f3c0      720c           moveq 0xc, d1
          0x0064f3c2      22bc00000001   move.l 0x1, (a1)
          0x0064f3c8      202e0008       move.l 0x8(a6), d0
          0x0064f3cc      0c800000ffff   cmpi.l 0xffff, d0
      < 0x0064f3d2      6302           bls.b 0x64f3d6
         0x0064f3d4      4e4f           trap 0xf
      > 0x0064f3d6      3d40fffe       move.w d0, -0x2(a6)
          0x0064f3da      554f           subq.w 0x2, a7
          0x0064f3dc      206e000c       movea.l 0xc(a6), a0
          0x0064f3e0      4850           pea.l (a0)
          0x0064f3e2      4851           pea.l (a1)
          0x0064f3e4      4227           clr.b -(a7)
          0x0064f3e6      486efffe       pea.l -0x2(a6)
          0x0064f3ea      4227           clr.b -(a7)
          0x0064f3ec      4227           clr.b -(a7)
          0x0064f3ee      4227           clr.b -(a7)
          0x0064f3f0      4ebafd28       jsr K91_LIBOPS.do_archive(pc)
          0x0064f3f4      defc0014       adda.w 0x14, a7
          0x0064f3f8      3d570010       move.w (a7), 0x10(a6)
          0x0064f3fc      4851           pea.l (a1)
          0x0064f3fe      4eb900594e02   jsr K0_DISKMGR.k_lose_ref
          0x0064f404      584f           addq.w 0x4, a7
          0x0064f406      349f           move.w (a7)+, (a2)
          0x0064f408      1012           move.b (a2), d0
          0x0064f40a      b03adafd       cmp.b 0x64cf09(pc), d0
      < 0x0064f40e      6608           bne.b 0x64f418
         0x0064f410      102efffd       move.b -0x3(a6), d0
         0x0064f414      b03adaf4       cmp.b 0x64cf0a(pc), d0
     > 0x0064f418      6728           beq.b 0x64f442
         0x0064f41a      487adaf0       pea.l 0x64cf0c(pc)
         0x0064f41e      48780020       pea.l 0x20
         0x0064f422      2f17           move.l (a7), -(a7)
         0x0064f424      4eb9004047ea   jsr p_wts_o
         0x0064f42a      dec1           adda.w d1, a7
         0x0064f42c      4852           pea.l (a2)
         0x0064f42e      48780002       pea.l 0x2
         0x0064f432      2f17           move.l (a7), -(a7)
         0x0064f434      4eb9004047ea   jsr p_wts_o
         0x0064f43a      dec1           adda.w d1, a7
         0x0064f43c      4eb900404946   jsr p_wtln_o
     > 0x0064f442      4cdf0703       movem.l (a7)+, d0-d1/a0-a2
          0x0064f446      4e5e           unlk a6
          0x0064f448      4e75           rts
 324: K91_LIBOPS.k91_delete ();
          ; var int32_t var_2584h @ a6-0x2584
          ; var int32_t var_2556h @ a6-0x2556
          ; var int32_t var_2551h @ a6-0x2551
          0x0064f44a      4e56fedc       link.w a6, 0xfedc
          0x0064f44e      bfd5           cmpa.l (a5), a7
      < 0x0064f450      6206           bhi.b 0x64f458
         0x0064f452      44fc0002       move.w 0x2, ccr
         0x0064f456      4e76           trapv
      > 0x0064f458      defc0122       adda.w 0x122, a7
          0x0064f45c      48e7c0e0       movem.l d0-d1/a0-a2, -(a7)
          0x0064f460      45eefffe       lea.l -0x2(a6), a2
          0x0064f464      206e0008       movea.l 0x8(a6), a0
          0x0064f468      554f           subq.w 0x2, a7
          0x0064f46a      4850           pea.l (a0)
          0x0064f46c      1f3c0025       move.b 0x25, -(a7)
          0x0064f470      4eb9005a12d4   jsr K04_FILEROPS.k_f_property_av
          0x0064f476      5c4f           addq.w 0x6, a7
          0x0064f478      4a1f           tst.b (a7)+
      < 0x0064f47a      6610           bne.b 0x64f48c
         0x0064f47c      1d7adaaf000e   move.b 0x64cf2d(pc), 0xe(a6)
         0x0064f482      1d7adaaa000f   move.b 0x64cf2e(pc), 0xf(a6)
     < 0x0064f488      600000fc       bra.w 0x64f586
     > 0x0064f48c      102e000c       move.b 0xc(a6), d0
         0x0064f490      4880           ext.w d0
         0x0064f492      43fada9c       lea.l 0x64cf30(pc), a1
         0x0064f496      3200           move.w d0, d1
         0x0064f498      e649           lsr.w 0x3, d1
         0x0064f49a      01311000       btst.l d0, (a1, d1.w)
     < 0x0064f49e      671c           beq.b 0x64f4bc
        0x0064f4a0      554f           subq.w 0x2, a7
        0x0064f4a2      48780010       pea.l 0x10
        0x0064f4a6      4eb900474af8   jsr CONFIG.cfg_option
        0x0064f4ac      584f           addq.w 0x4, a7
        0x0064f4ae      4a1f           tst.b (a7)+
    < 0x0064f4b0      670a           beq.b 0x64f4bc
       0x0064f4b2      4850           pea.l (a0)
       0x0064f4b4      4eb900767222   jsr MENUTYPECOM.debuffer_font
       0x0064f4ba      584f           addq.w 0x4, a7
    > 0x0064f4bc      14bada7f       move.b 0x64cf3d(pc), (a2)
         0x0064f4c0      1d7ada7cffff   move.b 0x64cf3e(pc), -0x1(a6)
         0x0064f4c6      43fada78       lea.l 0x64cf40(pc), a1
         0x0064f4ca      3200           move.w d0, d1
         0x0064f4cc      e649           lsr.w 0x3, d1
         0x0064f4ce      01311000       btst.l d0, (a1, d1.w)
     < 0x0064f4d2      6772           beq.b 0x64f546
        0x0064f4d4      554f           subq.w 0x2, a7
        0x0064f4d6      4eb900475a98   jsr CONFIG.cfg_clipbox
        0x0064f4dc      4a1f           tst.b (a7)+
    < 0x0064f4de      6744           beq.b 0x64f524
       0x0064f4e0      4a39008487c8   tst.b 0x8487c8
   < 0x0064f4e6      6732           beq.b 0x64f51a
      0x0064f4e8      9efc00fc       suba.w 0xfc, a7
      0x0064f4ec      2f3ada5e       move.l 0x64cf4c(pc), -(a7)
      0x0064f4f0      2f7ada5e0004   move.l 0x64cf50(pc), 0x4(a7)
      0x0064f4f6      2f7ada5c0008   move.l 0x64cf54(pc), 0x8(a7)
      0x0064f4fc      3f7ada5a000c   move.w 0x64cf58(pc), 0xc(a7)
      0x0064f502      1f7ada56000e   move.b 0x64cf5a(pc), 0xe(a7)
      0x0064f508      48780001       pea.l 0x1
      0x0064f50c      4eb900408e0e   jsr p_error
      0x0064f512      defc0104       adda.w 0x104, a7
      0x0064f516      34bada44       move.w 0x64cf5c(pc), (a2)
   > 0x0064f51a      4227           clr.b -(a7)
       0x0064f51c      4eb9005bda08   jsr mark_cb_lib_val
       0x0064f522      544f           addq.w 0x2, a7
    > 0x0064f524      1212           move.b (a2), d1
        0x0064f526      b23ada37       cmp.b 0x64cf5f(pc), d1
    < 0x0064f52a      6608           bne.b 0x64f534
       0x0064f52c      122effff       move.b -0x1(a6), d1
       0x0064f530      b23ada2e       cmp.b 0x64cf60(pc), d1
   > 0x0064f534      6610           bne.b 0x64f546
       0x0064f536      554f           subq.w 0x2, a7
       0x0064f538      1f00           move.b d0, -(a7)
       0x0064f53a      4850           pea.l (a0)
       0x0064f53c      4eb900707a84   jsr VIDOUTDOU_DUMMY.remove_clip
       0x0064f542      5c4f           addq.w 0x6, a7
       0x0064f544      349f           move.w (a7)+, (a2)
   > 0x0064f546      3212           move.w (a2), d1
         0x0064f548      b27ada18       cmp.w 0x64cf62(pc), d1
     < 0x0064f54c      660e           bne.b 0x64f55c
        0x0064f54e      554f           subq.w 0x2, a7
        0x0064f550      4850           pea.l (a0)
        0x0064f552      4eb9005976fa   jsr K0_DISKMGR.k_delete_file
        0x0064f558      584f           addq.w 0x4, a7
        0x0064f55a      349f           move.w (a7)+, (a2)
     > 0x0064f55c      554f           subq.w 0x2, a7
         0x0064f55e      4eb900475a98   jsr CONFIG.cfg_clipbox
         0x0064f564      4a1f           tst.b (a7)+
     < 0x0064f566      671a           beq.b 0x64f582
        0x0064f568      43fad9fa       lea.l 0x64cf64(pc), a1
        0x0064f56c      3200           move.w d0, d1
        0x0064f56e      e649           lsr.w 0x3, d1
        0x0064f570      01311000       btst.l d0, (a1, d1.w)
    < 0x0064f574      670c           beq.b 0x64f582
       0x0064f576      1f3c0001       move.b 0x1, -(a7)
       0x0064f57a      4eb9005bda08   jsr mark_cb_lib_val
       0x0064f580      544f           addq.w 0x2, a7
    > 0x0064f582      3d52000e       move.w (a2), 0xe(a6)
     > 0x0064f586      4cdf0703       movem.l (a7)+, d0-d1/a0-a2
          0x0064f58a      4e5e           unlk a6
          0x0064f58c      4e75           rts
           ; CALL XREF from MENUPASTECOM.do_second_point @ 0x4b47e8
 316: K91_LIBOPS.cyph_cutout ();
          ; var int32_t var_264eh @ a6-0x264e
          ; var int32_t var_264ch @ a6-0x264c
          0x0064f58e      4e56ffb2       link.w a6, 0xffb2
          0x0064f592      bfd5           cmpa.l (a5), a7
      < 0x0064f594      6206           bhi.b 0x64f59c
         0x0064f596      44fc0002       move.w 0x2, ccr
         0x0064f59a      4e76           trapv
      > 0x0064f59c      defc003a       adda.w 0x3a, a7
          0x0064f5a0      48e7fde0       movem.l d0-d5/d7/a0-a2, -(a7)
          0x0064f5a4      43f900408686   lea.l fcn.00408686, a1
          0x0064f5aa      45ee0008       lea.l 0x8(a6), a2
          0x0064f5ae      243cffff8000   move.l 0xffff8000, d2
          0x0064f5b4      2a3c0000ffff   move.l 0xffff, d5
          0x0064f5ba      2d7ad9b4fff2   move.l 0x64cf70(pc), -0xe(a6)
          0x0064f5c0      2d7ad9b2fff6   move.l 0x64cf74(pc), -0xa(a6)
          0x0064f5c6      7003           moveq 0x3, d0
          0x0064f5c8      c1eefff6       muls.w -0xa(a6), d0
          0x0064f5cc      9082           sub.l d2, d0
          0x0064f5ce      b085           cmp.l d5, d0
      < 0x0064f5d0      6302           bls.b 0x64f5d4
         0x0064f5d2      4e4f           trap 0xf
      > 0x0064f5d4      d082           add.l d2, d0
          0x0064f5d6      3d40fffa       move.w d0, -0x6(a6)
          0x0064f5da      302efff8       move.w -0x8(a6), d0
          0x0064f5de      48c0           ext.l d0
          0x0064f5e0      e580           asl.l 0x2, d0
          0x0064f5e2      9082           sub.l d2, d0
          0x0064f5e4      b085           cmp.l d5, d0
      < 0x0064f5e6      6302           bls.b 0x64f5ea
         0x0064f5e8      4e4f           trap 0xf
      > 0x0064f5ea      d082           add.l d2, d0
          0x0064f5ec      3d40fffc       move.w d0, -0x4(a6)
          0x0064f5f0      554f           subq.w 0x2, a7
          0x0064f5f2      486efffe       pea.l -0x2(a6)
          0x0064f5f6      4eb900475c00   jsr CONFIG.cfg_size_x4
          0x0064f5fc      584f           addq.w 0x4, a7
          0x0064f5fe      4a1f           tst.b (a7)+
      < 0x0064f600      6710           beq.b 0x64f612
         0x0064f602      2052           movea.l (a2), a0
         0x0064f604      30bc0b40       move.w 0xb40, (a0)
         0x0064f608      317c0a600002   move.w 0xa60, 0x2(a0)
     < 0x0064f60e      600000b2       bra.w 0x64f6c2
     > 0x0064f612      554f           subq.w 0x2, a7
         0x0064f614      3f3c00c6       move.w 0xc6, -(a7)
         0x0064f618      4eb900480fc2   jsr MENUCOM.get_boxon
         0x0064f61e      544f           addq.w 0x2, a7
         0x0064f620      4a1f           tst.b (a7)+
     < 0x0064f622      67000092       beq.w 0x64f6b6
        0x0064f626      554f           subq.w 0x2, a7
        0x0064f628      3f3c00c7       move.w 0xc7, -(a7)
        0x0064f62c      4eb900480fc2   jsr MENUCOM.get_boxon
        0x0064f632      544f           addq.w 0x2, a7
        0x0064f634      4a1f           tst.b (a7)+
    < 0x0064f636      6706           beq.b 0x64f63e
       0x0064f638      3e3c00f8       move.w 0xf8, d7
   < 0x0064f63c      6004           bra.b 0x64f642
   > 0x0064f63e      3e3c00a0       move.w 0xa0, d7
   > 0x0064f642      594f           subq.w 0x4, a7
        0x0064f644      4eb900633bb2   jsr HANDCOM.get_pixel_aspec
        0x0064f64a      2d5fffec       move.l (a7)+, -0x14(a6)
        0x0064f64e      2052           movea.l (a2), a0
        0x0064f650      322effec       move.w -0x14(a6), d1
        0x0064f654      c3c7           muls.w d7, d1
        0x0064f656      2801           move.l d1, d4
        0x0064f658      4e91           jsr (a1)                    ; fcn.0000000a
        0x0064f65a      2f04           move.l d4, -(a7)
        0x0064f65c      382efffa       move.w -0x6(a6), d4
        0x0064f660      48c4           ext.l d4
        0x0064f662      4e91           jsr (a1)                    ; fcn.0000000a
        0x0064f664      2604           move.l d4, d3
        0x0064f666      2817           move.l (a7), d4
        0x0064f668      4eb900407ff8   jsr fcn.00407ff8
        0x0064f66e      584f           addq.w 0x4, a7
        0x0064f670      4eb900408224   jsr fcn.00408224
        0x0064f676      9882           sub.l d2, d4
        0x0064f678      b885           cmp.l d5, d4
    < 0x0064f67a      6302           bls.b 0x64f67e
       0x0064f67c      4e4f           trap 0xf
    > 0x0064f67e      d882           add.l d2, d4
        0x0064f680      3084           move.w d4, (a0)
        0x0064f682      322effee       move.w -0x12(a6), d1
        0x0064f686      c3c7           muls.w d7, d1
        0x0064f688      2801           move.l d1, d4
        0x0064f68a      4e91           jsr (a1)                    ; fcn.0000000a
        0x0064f68c      2f04           move.l d4, -(a7)
        0x0064f68e      48c0           ext.l d0
        0x0064f690      2800           move.l d0, d4
        0x0064f692      4e91           jsr (a1)                    ; fcn.0000000a
        0x0064f694      2604           move.l d4, d3
        0x0064f696      2817           move.l (a7), d4
        0x0064f698      4eb900407ff8   jsr fcn.00407ff8
        0x0064f69e      584f           addq.w 0x4, a7
        0x0064f6a0      4eb900408224   jsr fcn.00408224
        0x0064f6a6      9882           sub.l d2, d4
        0x0064f6a8      b885           cmp.l d5, d4
    < 0x0064f6aa      6302           bls.b 0x64f6ae
       0x0064f6ac      4e4f           trap 0xf
    > 0x0064f6ae      d882           add.l d2, d4
        0x0064f6b0      31440002       move.w d4, 0x2(a0)
    < 0x0064f6b4      600c           bra.b 0x64f6c2
    > 0x0064f6b6      2052           movea.l (a2), a0
        0x0064f6b8      30bc0320       move.w 0x320, (a0)
        0x0064f6bc      317c03000002   move.w 0x300, 0x2(a0)
    > 0x0064f6c2      4cdf07bf       movem.l (a7)+, d0-d5/d7/a0-a2
          0x0064f6c6      4e5e           unlk a6
          0x0064f6c8      4e75           rts
           ; CALL XREF from K91_LIBOPS.do_save_logo @ 0x64fbe6
 346: K91_LIBOPS.calc_camlogo_as ();
          ; var int32_t var_278ch @ a6-0x278c
          ; var int32_t var_278ah @ a6-0x278a
          0x0064f6ca      4e56ffa4       link.w a6, 0xffa4
          0x0064f6ce      bfd5           cmpa.l (a5), a7
      < 0x0064f6d0      6206           bhi.b 0x64f6d8
         0x0064f6d2      44fc0002       move.w 0x2, ccr
         0x0064f6d6      4e76           trapv
      > 0x0064f6d8      defc0042       adda.w 0x42, a7
          0x0064f6dc      48e7fff8       movem.l d0-d7/a0-a4, -(a7)
          0x0064f6e0      41f900408686   lea.l fcn.00408686, a0
          0x0064f6e6      43eefffc       lea.l -0x4(a6), a1
          0x0064f6ea      45f900407ff8   lea.l fcn.00407ff8, a2
          0x0064f6f0      47eefffe       lea.l -0x2(a6), a3
          0x0064f6f4      49f900407dd4   lea.l fcn.00407dd4, a4
          0x0064f6fa      243cffff8000   move.l 0xffff8000, d2
          0x0064f700      2d7ad876ffea   move.l 0x64cf78(pc), -0x16(a6)
          0x0064f706      2d7ad874ffee   move.l 0x64cf7c(pc), -0x12(a6)
          0x0064f70c      7003           moveq 0x3, d0
          0x0064f70e      c1eeffee       muls.w -0x12(a6), d0
          0x0064f712      9082           sub.l d2, d0
          0x0064f714      0c800000ffff   cmpi.l 0xffff, d0
      < 0x0064f71a      6302           bls.b 0x64f71e
         0x0064f71c      4e4f           trap 0xf
      > 0x0064f71e      d082           add.l d2, d0
          0x0064f720      3280           move.w d0, (a1)
          0x0064f722      302efff0       move.w -0x10(a6), d0
          0x0064f726      48c0           ext.l d0
          0x0064f728      e580           asl.l 0x2, d0
          0x0064f72a      9082           sub.l d2, d0
          0x0064f72c      0c800000ffff   cmpi.l 0xffff, d0
      < 0x0064f732      6302           bls.b 0x64f736
         0x0064f734      4e4f           trap 0xf
      > 0x0064f736      d082           add.l d2, d0
          0x0064f738      3680           move.w d0, (a3)
          0x0064f73a      3211           move.w (a1), d1
          0x0064f73c      c3ee0008       muls.w 0x8(a6), d1
          0x0064f740      2801           move.l d1, d4
          0x0064f742      4e90           jsr (a0)                    ; fcn.00000009
          0x0064f744      2f04           move.l d4, -(a7)
          0x0064f746      382e000c       move.w 0xc(a6), d4
          0x0064f74a      48c4           ext.l d4
          0x0064f74c      4e90           jsr (a0)                    ; fcn.00000009
          0x0064f74e      2604           move.l d4, d3
          0x0064f750      2817           move.l (a7), d4
          0x0064f752      4e92           jsr (a2)                    ; fcn.00000009+0x2
          0x0064f754      584f           addq.w 0x4, a7
          0x0064f756      2a04           move.l d4, d5
          0x0064f758      c1ee000a       muls.w 0xa(a6), d0
          0x0064f75c      2800           move.l d0, d4
          0x0064f75e      4e90           jsr (a0)                    ; fcn.00000009
          0x0064f760      2f04           move.l d4, -(a7)
          0x0064f762      382e000e       move.w 0xe(a6), d4
          0x0064f766      48c4           ext.l d4
          0x0064f768      4e90           jsr (a0)                    ; fcn.00000009
          0x0064f76a      2604           move.l d4, d3
          0x0064f76c      2817           move.l (a7), d4
          0x0064f76e      4e92           jsr (a2)                    ; fcn.00000009+0x2
          0x0064f770      584f           addq.w 0x4, a7
          0x0064f772      2d44fff8       move.l d4, -0x8(a6)
          0x0064f776      2f04           move.l d4, -(a7)
          0x0064f778      554f           subq.w 0x2, a7
          0x0064f77a      3f3c00c7       move.w 0xc7, -(a7)
          0x0064f77e      4eb900480fc2   jsr MENUCOM.get_boxon
          0x0064f784      544f           addq.w 0x2, a7
          0x0064f786      4a1f           tst.b (a7)+
      < 0x0064f788      6706           beq.b 0x64f790
         0x0064f78a      3e3c00f8       move.w 0xf8, d7
     < 0x0064f78e      6004           bra.b 0x64f794
     > 0x0064f790      3e3c00a0       move.w 0xa0, d7
     > 0x0064f794      02870000ffff   andi.l 0xffff, d7
          0x0064f79a      2807           move.l d7, d4
          0x0064f79c      4e90           jsr (a0)                    ; fcn.00000009
          0x0064f79e      2f04           move.l d4, -(a7)
          0x0064f7a0      2604           move.l d4, d3
          0x0064f7a2      2805           move.l d5, d4
          0x0064f7a4      4e94           jsr (a4)                    ; fcn.0000000d
      < 0x0064f7a6      6e16           bgt.b 0x64f7be
         0x0064f7a8      202f0004       move.l 0x4(a7), d0
         0x0064f7ac      2800           move.l d0, d4
         0x0064f7ae      2017           move.l (a7), d0
         0x0064f7b0      2600           move.l d0, d3
         0x0064f7b2      4e94           jsr (a4)                    ; fcn.0000000d
     < 0x0064f7b4      6e08           bgt.b 0x64f7be
        0x0064f7b6      2c3c3f800000   move.l 0x3f800000, d6
    < 0x0064f7bc      6018           bra.b 0x64f7d6
    > 0x0064f7be      2805           move.l d5, d4
         0x0064f7c0      202f0004       move.l 0x4(a7), d0
         0x0064f7c4      2600           move.l d0, d3
         0x0064f7c6      4e94           jsr (a4)                    ; fcn.0000000d
     < 0x0064f7c8      6f04           ble.b 0x64f7ce
        0x0064f7ca      2805           move.l d5, d4
    < 0x0064f7cc      6002           bra.b 0x64f7d0
    > 0x0064f7ce      2800           move.l d0, d4
    > 0x0064f7d0      2617           move.l (a7), d3
         0x0064f7d2      4e92           jsr (a2)                    ; fcn.00000009+0x2
         0x0064f7d4      2c04           move.l d4, d6
    > 0x0064f7d6      504f           addq.w 0x8, a7
          0x0064f7d8      3811           move.w (a1), d4
          0x0064f7da      48c4           ext.l d4
          0x0064f7dc      4e90           jsr (a0)                    ; fcn.00000009
          0x0064f7de      2606           move.l d6, d3
          0x0064f7e0      4e92           jsr (a2)                    ; fcn.00000009+0x2
          0x0064f7e2      4eb900408224   jsr fcn.00408224
          0x0064f7e8      9882           sub.l d2, d4
          0x0064f7ea      0c840000ffff   cmpi.l 0xffff, d4
      < 0x0064f7f0      6302           bls.b 0x64f7f4
         0x0064f7f2      4e4f           trap 0xf
      > 0x0064f7f4      d882           add.l d2, d4
          0x0064f7f6      3284           move.w d4, (a1)
          0x0064f7f8      3813           move.w (a3), d4
          0x0064f7fa      48c4           ext.l d4
          0x0064f7fc      4e90           jsr (a0)                    ; fcn.00000009
          0x0064f7fe      2606           move.l d6, d3
          0x0064f800      4e92           jsr (a2)                    ; fcn.00000009+0x2
          0x0064f802      4eb900408224   jsr fcn.00408224
          0x0064f808      9882           sub.l d2, d4
          0x0064f80a      0c840000ffff   cmpi.l 0xffff, d4
      < 0x0064f810      6302           bls.b 0x64f814
         0x0064f812      4e4f           trap 0xf
      > 0x0064f814      d882           add.l d2, d4
          0x0064f816      3684           move.w d4, (a3)
          0x0064f818      2d510010       move.l (a1), 0x10(a6)
          0x0064f81c      4cdf1fff       movem.l (a7)+, d0-d7/a0-a4
          0x0064f820      4e5e           unlk a6
          0x0064f822      4e75           rts
 220: K91_LIBOPS.save_thing (int32_t arg_1ah);
          ; arg int32_t arg_1ah @ a6+0x1a
          0x0064f824      4e56ffb6       link.w a6, 0xffb6
          0x0064f828      bfd5           cmpa.l (a5), a7
      < 0x0064f82a      6206           bhi.b 0x64f832
         0x0064f82c      44fc0002       move.w 0x2, ccr
         0x0064f830      4e76           trapv
      > 0x0064f832      defc003e       adda.w 0x3e, a7
          0x0064f836      48e780e0       movem.l d0/a0-a2, -(a7)
          0x0064f83a      43eefff4       lea.l -0xc(a6), a1
          0x0064f83e      45eefff6       lea.l -0xa(a6), a2
          0x0064f842      34ae0018       move.w 0x18(a6), (a2)
          0x0064f846      3d6e001afff8   move.w 0x1a(a6), -0x8(a6)
          0x0064f84c      3d7c0001fffa   move.w 0x1, -0x6(a6)
          0x0064f852      42aefffc       clr.l -0x4(a6)
          0x0064f856      102e0071       move.b 0x71(a6), d0
          0x0064f85a      0c000007       cmpi.b 0x7, d0
      < 0x0064f85e      6608           bne.b 0x64f868
         0x0064f860      4852           pea.l (a2)
         0x0064f862      4ebadc60       jsr K91_LIBOPS.do_hp_adjust(pc)
         0x0064f866      584f           addq.w 0x4, a7
      > 0x0064f868      206e001c       movea.l 0x1c(a6), a0
          0x0064f86c      554f           subq.w 0x2, a7
          0x0064f86e      4850           pea.l (a0)
          0x0064f870      2f2efffc       move.l -0x4(a6), -(a7)
          0x0064f874      2f2efff8       move.l -0x8(a6), -(a7)
          0x0064f878      3f12           move.w (a2), -(a7)
          0x0064f87a      486e0020       pea.l 0x20(a6)
          0x0064f87e      203ad7a6       move.l 0x64d026(pc), d0
          0x0064f882      80ae000e       or.l 0xe(a6), d0
          0x0064f886      2f00           move.l d0, -(a7)
          0x0064f888      203ad798       move.l 0x64d022(pc), d0
          0x0064f88c      80ae000a       or.l 0xa(a6), d0
          0x0064f890      2f00           move.l d0, -(a7)
          0x0064f892      2f3ad3ee       move.l 0x64cc82(pc), -(a7)
          0x0064f896      2f3ad3e6       move.l 0x64cc7e(pc), -(a7)
          0x0064f89a      3f3cffff       move.w 0xffff, -(a7)
          0x0064f89e      4eb900595808   jsr K0_DISKMGR.k_create_file
          0x0064f8a4      defc0024       adda.w 0x24, a7
          0x0064f8a8      329f           move.w (a7)+, (a1)
          0x0064f8aa      1011           move.b (a1), d0
          0x0064f8ac      b03ad77d       cmp.b 0x64d02b(pc), d0
      < 0x0064f8b0      6608           bne.b 0x64f8ba
         0x0064f8b2      102efff5       move.b -0xb(a6), d0
         0x0064f8b6      b03ad774       cmp.b 0x64d02c(pc), d0
     > 0x0064f8ba      6638           bne.b 0x64f8f4
         0x0064f8bc      48780001       pea.l 0x1
         0x0064f8c0      48780000       pea.l 0x0
         0x0064f8c4      48780000       pea.l 0x0
         0x0064f8c8      4eb900455bb4   jsr CURSORCOM.set_horiz_therm
         0x0064f8ce      defc000a       adda.w 0xa, a7
         0x0064f8d2      4850           pea.l (a0)
         0x0064f8d4      2f2e0018       move.l 0x18(a6), -(a7)
         0x0064f8d8      2f2e0014       move.l 0x14(a6), -(a7)
         0x0064f8dc      1f2e0008       move.b 0x8(a6), -(a7)
         0x0064f8e0      1f2e0074       move.b 0x74(a6), -(a7)
         0x0064f8e4      1f2e0012       move.b 0x12(a6), -(a7)
         0x0064f8e8      4eb9005a8880   jsr K05_LOADSAVE.k_save
         0x0064f8ee      defc0012       adda.w 0x12, a7
         0x0064f8f2      329f           move.w (a7)+, (a1)
     > 0x0064f8f4      3d510076       move.w (a1), 0x76(a6)
          0x0064f8f8      4cdf0701       movem.l (a7)+, d0/a0-a2
          0x0064f8fc      4e5e           unlk a6
          0x0064f8fe      4e75           rts
 432: K91_LIBOPS.do_save_cutout ();
          ; var int32_t var_291ch @ a6-0x291c
          ; var int32_t var_1ah @ a6-0x1a
          ; var int32_t var_16h @ a6-0x16
          0x0064f900      4e56ff82       link.w a6, 0xff82
          0x0064f904      bfd5           cmpa.l (a5), a7
      < 0x0064f906      6206           bhi.b 0x64f90e
         0x0064f908      44fc0002       move.w 0x2, ccr
         0x0064f90c      4e76           trapv
      > 0x0064f90e      defc0054       adda.w 0x54, a7
          0x0064f912      48e7fcf8       movem.l d0-d5/a0-a4, -(a7)
          0x0064f916      43eeffd6       lea.l -0x2a(a6), a1
          0x0064f91a      45eeffec       lea.l -0x14(a6), a2
          0x0064f91e      47f900408686   lea.l fcn.00408686, a3
          0x0064f924      49eeffe2       lea.l -0x1e(a6), a4
          0x0064f928      223cffff8000   move.l 0xffff8000, d1
          0x0064f92e      7401           moveq 0x1, d2
          0x0064f930      7a0c           moveq 0xc, d5
          0x0064f932      2482           move.l d2, (a2)
          0x0064f934      4852           pea.l (a2)
          0x0064f936      4eb900670ae0   jsr PASTECOM.get_ct_file
          0x0064f93c      584f           addq.w 0x4, a7
          0x0064f93e      32bad6ee       move.w 0x64d02e(pc), (a1)
          0x0064f942      2052           movea.l (a2), a0
          0x0064f944      b0c2           cmpa.w d2, a0
      < 0x0064f946      6612           bne.b 0x64f95a
         0x0064f948      12bad6e7       move.b 0x64d031(pc), (a1)
         0x0064f94c      1d7ad6e4ffd7   move.b 0x64d032(pc), -0x29(a6)
         0x0064f952      3d510060       move.w (a1), 0x60(a6)
     < 0x0064f956      60000150       bra.w 0x64faa8
     > 0x0064f95a      554f           subq.w 0x2, a7
         0x0064f95c      4852           pea.l (a2)
         0x0064f95e      4227           clr.b -(a7)
         0x0064f960      4854           pea.l (a4)
         0x0064f962      486efff4       pea.l -0xc(a6)
         0x0064f966      4eb9005a29ec   jsr K04_FILEROPS.k_get_aspect_si
         0x0064f96c      defc000e       adda.w 0xe, a7
         0x0064f970      329f           move.w (a7)+, (a1)
         0x0064f972      2d54ffd8       move.l (a4), -0x28(a6)
         0x0064f976      2d6effe6ffdc   move.l -0x1a(a6), -0x24(a6)
         0x0064f97c      3d6effeaffe0   move.w -0x16(a6), -0x20(a6)
         0x0064f982      594f           subq.w 0x4, a7
         0x0064f984      4eb900633bb2   jsr HANDCOM.get_pixel_aspec
         0x0064f98a      2d5ffff0       move.l (a7)+, -0x10(a6)
         0x0064f98e      382efff0       move.w -0x10(a6), d4
         0x0064f992      48c4           ext.l d4
         0x0064f994      4e93           jsr (a3)                    ; fcn.0000000c
         0x0064f996      2f04           move.l d4, -(a7)
         0x0064f998      382efff4       move.w -0xc(a6), d4
         0x0064f99c      48c4           ext.l d4
         0x0064f99e      4e93           jsr (a3)                    ; fcn.0000000c
         0x0064f9a0      2604           move.l d4, d3
         0x0064f9a2      2817           move.l (a7), d4
         0x0064f9a4      4eb900407ff8   jsr fcn.00407ff8
         0x0064f9aa      584f           addq.w 0x4, a7
         0x0064f9ac      2d44fff8       move.l d4, -0x8(a6)
         0x0064f9b0      382efff2       move.w -0xe(a6), d4
         0x0064f9b4      48c4           ext.l d4
         0x0064f9b6      4e93           jsr (a3)                    ; fcn.0000000c
         0x0064f9b8      2f04           move.l d4, -(a7)
         0x0064f9ba      382efff6       move.w -0xa(a6), d4
         0x0064f9be      48c4           ext.l d4
         0x0064f9c0      4e93           jsr (a3)                    ; fcn.0000000c
         0x0064f9c2      2604           move.l d4, d3
         0x0064f9c4      2817           move.l (a7), d4
         0x0064f9c6      4eb900407ff8   jsr fcn.00407ff8
         0x0064f9cc      584f           addq.w 0x4, a7
         0x0064f9ce      2d44fffc       move.l d4, -0x4(a6)
         0x0064f9d2      2f04           move.l d4, -(a7)
         0x0064f9d4      3814           move.w (a4), d4
         0x0064f9d6      48c4           ext.l d4
         0x0064f9d8      4e93           jsr (a3)                    ; fcn.0000000c
         0x0064f9da      262efff8       move.l -0x8(a6), d3
         0x0064f9de      4eb900407e92   jsr fcn.00407e92
         0x0064f9e4      4eb900408224   jsr fcn.00408224
         0x0064f9ea      9881           sub.l d1, d4
         0x0064f9ec      0c840000ffff   cmpi.l 0xffff, d4
     < 0x0064f9f2      6302           bls.b 0x64f9f6
        0x0064f9f4      4e4f           trap 0xf
     > 0x0064f9f6      d881           add.l d1, d4
         0x0064f9f8      3d44ffd8       move.w d4, -0x28(a6)
         0x0064f9fc      382effe4       move.w -0x1c(a6), d4
         0x0064fa00      48c4           ext.l d4
         0x0064fa02      4e93           jsr (a3)                    ; fcn.0000000c
         0x0064fa04      2617           move.l (a7), d3
         0x0064fa06      4eb900407e92   jsr fcn.00407e92
         0x0064fa0c      584f           addq.w 0x4, a7
         0x0064fa0e      4eb900408224   jsr fcn.00408224
         0x0064fa14      9881           sub.l d1, d4
         0x0064fa16      0c840000ffff   cmpi.l 0xffff, d4
     < 0x0064fa1c      6302           bls.b 0x64fa20
        0x0064fa1e      4e4f           trap 0xf
     > 0x0064fa20      d881           add.l d1, d4
         0x0064fa22      3d44ffda       move.w d4, -0x26(a6)
         0x0064fa26      3011           move.w (a1), d0
         0x0064fa28      b07ad60a       cmp.w 0x64d034(pc), d0
     < 0x0064fa2c      662e           bne.b 0x64fa5c
        0x0064fa2e      554f           subq.w 0x2, a7
        0x0064fa30      4852           pea.l (a2)
        0x0064fa32      206e0008       movea.l 0x8(a6), a0
        0x0064fa36      4850           pea.l (a0)
        0x0064fa38      486effd8       pea.l -0x28(a6)
        0x0064fa3c      486e000c       pea.l 0xc(a6)
        0x0064fa40      2f3ad5f8       move.l 0x64d03a(pc), -(a7)
        0x0064fa44      2f3ad5f0       move.l 0x64d036(pc), -(a7)
        0x0064fa48      2f3ad238       move.l 0x64cc82(pc), -(a7)
        0x0064fa4c      2f3ad230       move.l 0x64cc7e(pc), -(a7)
        0x0064fa50      4227           clr.b -(a7)
        0x0064fa52      4ebadac8       jsr K91_LIBOPS.create_and_copy(pc)
        0x0064fa56      defc0022       adda.w 0x22, a7
        0x0064fa5a      329f           move.w (a7)+, (a1)
     > 0x0064fa5c      3d510060       move.w (a1), 0x60(a6)
         0x0064fa60      554f           subq.w 0x2, a7
         0x0064fa62      4852           pea.l (a2)
         0x0064fa64      4eb900594e02   jsr K0_DISKMGR.k_lose_ref
         0x0064fa6a      584f           addq.w 0x4, a7
         0x0064fa6c      329f           move.w (a7)+, (a1)
         0x0064fa6e      1011           move.b (a1), d0
         0x0064fa70      b03ad5cd       cmp.b 0x64d03f(pc), d0
     < 0x0064fa74      6608           bne.b 0x64fa7e
        0x0064fa76      102effd7       move.b -0x29(a6), d0
        0x0064fa7a      b03ad5c4       cmp.b 0x64d040(pc), d0
    > 0x0064fa7e      6728           beq.b 0x64faa8
        0x0064fa80      487ad5c0       pea.l 0x64d042(pc)
        0x0064fa84      48780020       pea.l 0x20
        0x0064fa88      2f17           move.l (a7), -(a7)
        0x0064fa8a      4eb9004047ea   jsr p_wts_o
        0x0064fa90      dec5           adda.w d5, a7
        0x0064fa92      4851           pea.l (a1)
        0x0064fa94      48780002       pea.l 0x2
        0x0064fa98      2f17           move.l (a7), -(a7)
        0x0064fa9a      4eb9004047ea   jsr p_wts_o
        0x0064faa0      dec5           adda.w d5, a7
        0x0064faa2      4eb900404946   jsr p_wtln_o
    > 0x0064faa8      4cdf1f3f       movem.l (a7)+, d0-d5/a0-a4
          0x0064faac      4e5e           unlk a6
          0x0064faae      4e75           rts
 558: K91_LIBOPS.do_save_logo ();
          ; var int32_t var_eh @ a6-0xe
          ; var int32_t var_ah @ a6-0xa
          0x0064fab0      4e56ff6e       link.w a6, 0xff6e
          0x0064fab4      bfd5           cmpa.l (a5), a7
      < 0x0064fab6      6206           bhi.b 0x64fabe
         0x0064fab8      44fc0002       move.w 0x2, ccr
         0x0064fabc      4e76           trapv
      > 0x0064fabe      defc0064       adda.w 0x64, a7
          0x0064fac2      48e7fff8       movem.l d0-d7/a0-a4, -(a7)
          0x0064fac6      43eeffd2       lea.l -0x2e(a6), a1
          0x0064faca      45f900408686   lea.l fcn.00408686, a2
          0x0064fad0      47eeffd4       lea.l -0x2c(a6), a3
          0x0064fad4      49eeffe4       lea.l -0x1c(a6), a4
          0x0064fad8      2a3cffff8000   move.l 0xffff8000, d5
          0x0064fade      7c01           moveq 0x1, d6
          0x0064fae0      7e0c           moveq 0xc, d7
          0x0064fae2      2686           move.l d6, (a3)
          0x0064fae4      4853           pea.l (a3)
          0x0064fae6      4eb900670ae0   jsr PASTECOM.get_ct_file
          0x0064faec      584f           addq.w 0x4, a7
          0x0064faee      2053           movea.l (a3), a0
          0x0064faf0      b0c6           cmpa.w d6, a0
      < 0x0064faf2      6608           bne.b 0x64fafc
         0x0064faf4      32bad57a       move.w 0x64d070(pc), (a1)
     < 0x0064faf8      600001d8       bra.w 0x64fcd2
     > 0x0064fafc      594f           subq.w 0x4, a7
         0x0064fafe      4eb900633bb2   jsr HANDCOM.get_pixel_aspec
         0x0064fb04      2d57ffe0       move.l (a7), -0x20(a6)
         0x0064fb08      544f           addq.w 0x2, a7
         0x0064fb0a      4853           pea.l (a3)
         0x0064fb0c      4227           clr.b -(a7)
         0x0064fb0e      486effee       pea.l -0x12(a6)
         0x0064fb12      486effd8       pea.l -0x28(a6)
         0x0064fb16      4eb9005a29ec   jsr K04_FILEROPS.k_get_aspect_si
         0x0064fb1c      defc000e       adda.w 0xe, a7
         0x0064fb20      329f           move.w (a7)+, (a1)
         0x0064fb22      28aeffee       move.l -0x12(a6), (a4)
         0x0064fb26      2d6efff2ffe8   move.l -0xe(a6), -0x18(a6)
         0x0064fb2c      3d6efff6ffec   move.w -0xa(a6), -0x14(a6)
         0x0064fb32      382effe0       move.w -0x20(a6), d4
         0x0064fb36      48c4           ext.l d4
         0x0064fb38      4e92           jsr (a2)                    ; fcn.00000009+0x2
         0x0064fb3a      2f04           move.l d4, -(a7)
         0x0064fb3c      382effd8       move.w -0x28(a6), d4
         0x0064fb40      48c4           ext.l d4
         0x0064fb42      4e92           jsr (a2)                    ; fcn.00000009+0x2
         0x0064fb44      2604           move.l d4, d3
         0x0064fb46      2017           move.l (a7), d0
         0x0064fb48      2800           move.l d0, d4
         0x0064fb4a      4eb900407ff8   jsr fcn.00407ff8
         0x0064fb50      2d44fff8       move.l d4, -0x8(a6)
         0x0064fb54      382effe2       move.w -0x1e(a6), d4
         0x0064fb58      48c4           ext.l d4
         0x0064fb5a      4e92           jsr (a2)                    ; fcn.00000009+0x2
         0x0064fb5c      2f04           move.l d4, -(a7)
         0x0064fb5e      382effda       move.w -0x26(a6), d4
         0x0064fb62      48c4           ext.l d4
         0x0064fb64      4e92           jsr (a2)                    ; fcn.00000009+0x2
         0x0064fb66      2604           move.l d4, d3
         0x0064fb68      2217           move.l (a7), d1
         0x0064fb6a      2801           move.l d1, d4
         0x0064fb6c      4eb900407ff8   jsr fcn.00407ff8
         0x0064fb72      2d44fffc       move.l d4, -0x4(a6)
         0x0064fb76      2f04           move.l d4, -(a7)
         0x0064fb78      382effee       move.w -0x12(a6), d4
         0x0064fb7c      48c4           ext.l d4
         0x0064fb7e      4e92           jsr (a2)                    ; fcn.00000009+0x2
         0x0064fb80      262efff8       move.l -0x8(a6), d3
         0x0064fb84      4eb900407e92   jsr fcn.00407e92
         0x0064fb8a      4eb900408224   jsr fcn.00408224
         0x0064fb90      9885           sub.l d5, d4
         0x0064fb92      0c840000ffff   cmpi.l 0xffff, d4
     < 0x0064fb98      6302           bls.b 0x64fb9c
        0x0064fb9a      4e4f           trap 0xf
     > 0x0064fb9c      d885           add.l d5, d4
         0x0064fb9e      3884           move.w d4, (a4)
         0x0064fba0      382efff0       move.w -0x10(a6), d4
         0x0064fba4      48c4           ext.l d4
         0x0064fba6      4e92           jsr (a2)                    ; fcn.00000009+0x2
         0x0064fba8      2617           move.l (a7), d3
         0x0064fbaa      4eb900407e92   jsr fcn.00407e92
         0x0064fbb0      584f           addq.w 0x4, a7
         0x0064fbb2      4eb900408224   jsr fcn.00408224
         0x0064fbb8      9885           sub.l d5, d4
         0x0064fbba      0c840000ffff   cmpi.l 0xffff, d4
     < 0x0064fbc0      6302           bls.b 0x64fbc4
        0x0064fbc2      4e4f           trap 0xf
     > 0x0064fbc4      d885           add.l d5, d4
         0x0064fbc6      3d44ffe6       move.w d4, -0x1a(a6)
         0x0064fbca      1411           move.b (a1), d2
         0x0064fbcc      b43ad4a5       cmp.b 0x64d073(pc), d2
     < 0x0064fbd0      6608           bne.b 0x64fbda
        0x0064fbd2      142effd3       move.b -0x2d(a6), d2
        0x0064fbd6      b43ad49c       cmp.b 0x64d074(pc), d2
    > 0x0064fbda      660000ae       bne.w 0x64fc8a
        0x0064fbde      594f           subq.w 0x4, a7
        0x0064fbe0      2f2effe0       move.l -0x20(a6), -(a7)
        0x0064fbe4      2f14           move.l (a4), -(a7)
        0x0064fbe6      4ebafae2       jsr K91_LIBOPS.calc_camlogo_as(pc)
        0x0064fbea      504f           addq.w 0x8, a7
        0x0064fbec      2d5fffdc       move.l (a7)+, -0x24(a6)
        0x0064fbf0      342effdc       move.w -0x24(a6), d2
        0x0064fbf4      c5d4           muls.w (a4), d2
        0x0064fbf6      2802           move.l d2, d4
        0x0064fbf8      4e92           jsr (a2)                    ; fcn.00000009+0x2
        0x0064fbfa      2600           move.l d0, d3
        0x0064fbfc      4eb900407ff8   jsr fcn.00407ff8
        0x0064fc02      4eb900408224   jsr fcn.00408224
        0x0064fc08      02840000fffe   andi.l 0xfffe, d4
        0x0064fc0e      3884           move.w d4, (a4)
        0x0064fc10      342effde       move.w -0x22(a6), d2
        0x0064fc14      c5eeffe6       muls.w -0x1a(a6), d2
        0x0064fc18      2802           move.l d2, d4
        0x0064fc1a      4e92           jsr (a2)                    ; fcn.00000009+0x2
        0x0064fc1c      2601           move.l d1, d3
        0x0064fc1e      4eb900407ff8   jsr fcn.00407ff8
        0x0064fc24      4eb900408224   jsr fcn.00408224
        0x0064fc2a      02840000fffe   andi.l 0xfffe, d4
        0x0064fc30      3d44ffe6       move.w d4, -0x1a(a6)
        0x0064fc34      2f2effdc       move.l -0x24(a6), -(a7)
        0x0064fc38      4eb900595f10   jsr K0_DISKMGR.k_set_overridin
        0x0064fc3e      584f           addq.w 0x4, a7
        0x0064fc40      342effe8       move.w -0x18(a6), d2
        0x0064fc44      0c420002       cmpi.w 0x2, d2
    < 0x0064fc48      660e           bne.b 0x64fc58
       0x0064fc4a      4a2e0008       tst.b 0x8(a6)
   < 0x0064fc4e      6708           beq.b 0x64fc58
      0x0064fc50      1d7c000f005f   move.b 0xf, 0x5f(a6)
  < 0x0064fc56      6006           bra.b 0x64fc5e
  > 0x0064fc58      1d7c0010005f   move.b 0x10, 0x5f(a6)
  > 0x0064fc5e      554f           subq.w 0x2, a7
        0x0064fc60      4853           pea.l (a3)
        0x0064fc62      206e000a       movea.l 0xa(a6), a0
        0x0064fc66      4850           pea.l (a0)
        0x0064fc68      4854           pea.l (a4)
        0x0064fc6a      486e000e       pea.l 0xe(a6)
        0x0064fc6e      2f3ad42a       move.l 0x64d09a(pc), -(a7)
        0x0064fc72      2f3ad422       move.l 0x64d096(pc), -(a7)
        0x0064fc76      2f3ad00a       move.l 0x64cc82(pc), -(a7)
        0x0064fc7a      2f3ad002       move.l 0x64cc7e(pc), -(a7)
        0x0064fc7e      4227           clr.b -(a7)
        0x0064fc80      4ebad89a       jsr K91_LIBOPS.create_and_copy(pc)
        0x0064fc84      defc0022       adda.w 0x22, a7
        0x0064fc88      329f           move.w (a7)+, (a1)
    > 0x0064fc8a      5c4f           addq.w 0x6, a7
         0x0064fc8c      4853           pea.l (a3)
         0x0064fc8e      4eb900594e02   jsr K0_DISKMGR.k_lose_ref
         0x0064fc94      584f           addq.w 0x4, a7
         0x0064fc96      329f           move.w (a7)+, (a1)
         0x0064fc98      1011           move.b (a1), d0
         0x0064fc9a      b03ad403       cmp.b 0x64d09f(pc), d0
     < 0x0064fc9e      6608           bne.b 0x64fca8
        0x0064fca0      102effd3       move.b -0x2d(a6), d0
        0x0064fca4      b03ad3fa       cmp.b 0x64d0a0(pc), d0
    > 0x0064fca8      6728           beq.b 0x64fcd2
        0x0064fcaa      487ad3f6       pea.l 0x64d0a2(pc)
        0x0064fcae      48780020       pea.l 0x20
        0x0064fcb2      2f17           move.l (a7), -(a7)
        0x0064fcb4      4eb9004047ea   jsr p_wts_o
        0x0064fcba      dec7           adda.w d7, a7
        0x0064fcbc      4851           pea.l (a1)
        0x0064fcbe      48780002       pea.l 0x2
        0x0064fcc2      2f17           move.l (a7), -(a7)
        0x0064fcc4      4eb9004047ea   jsr p_wts_o
        0x0064fcca      dec7           adda.w d7, a7
        0x0064fccc      4eb900404946   jsr p_wtln_o
    > 0x0064fcd2      3d510062       move.w (a1), 0x62(a6)
          0x0064fcd6      4cdf1fff       movem.l (a7)+, d0-d7/a0-a4
          0x0064fcda      4e5e           unlk a6
          0x0064fcdc      4e75           rts
 178: K91_LIBOPS.save_colour_cur ();
          0x0064fcde      4e56fa68       link.w a6, 0xfa68
          0x0064fce2      bfd5           cmpa.l (a5), a7
      < 0x0064fce4      6206           bhi.b 0x64fcec
         0x0064fce6      44fc0002       move.w 0x2, ccr
         0x0064fcea      4e76           trapv
      > 0x0064fcec      defc003e       adda.w 0x3e, a7
          0x0064fcf0      48e780e0       movem.l d0/a0-a2, -(a7)
          0x0064fcf4      45eefffe       lea.l -0x2(a6), a2
          0x0064fcf8      426efff4       clr.w -0xc(a6)
          0x0064fcfc      426efff6       clr.w -0xa(a6)
          0x0064fd00      426efff8       clr.w -0x8(a6)
          0x0064fd04      2d7c0000054e.  move.l 0x54e, -0x6(a6)
          0x0064fd0c      486efaa6       pea.l -0x55a(a6)
          0x0064fd10      4eb900749b16   jsr MENUFETTLECOM.get_colour_curv
          0x0064fd16      584f           addq.w 0x4, a7
          0x0064fd18      206e0008       movea.l 0x8(a6), a0
          0x0064fd1c      554f           subq.w 0x2, a7
          0x0064fd1e      4850           pea.l (a0)
          0x0064fd20      2f2efffa       move.l -0x6(a6), -(a7)
          0x0064fd24      2f2efff6       move.l -0xa(a6), -(a7)
          0x0064fd28      3f2efff4       move.w -0xc(a6), -(a7)
          0x0064fd2c      486e000c       pea.l 0xc(a6)
          0x0064fd30      2f3ad394       move.l 0x64d0c6(pc), -(a7)
          0x0064fd34      2f3ad38c       move.l 0x64d0c2(pc), -(a7)
          0x0064fd38      2f3acf48       move.l 0x64cc82(pc), -(a7)
          0x0064fd3c      2f3acf40       move.l 0x64cc7e(pc), -(a7)
          0x0064fd40      3f3cffff       move.w 0xffff, -(a7)
          0x0064fd44      4eb900595808   jsr K0_DISKMGR.k_create_file
          0x0064fd4a      defc0024       adda.w 0x24, a7
          0x0064fd4e      349f           move.w (a7)+, (a2)
          0x0064fd50      1012           move.b (a2), d0
          0x0064fd52      b03ad377       cmp.b 0x64d0cb(pc), d0
      < 0x0064fd56      6608           bne.b 0x64fd60
         0x0064fd58      102effff       move.b -0x1(a6), d0
         0x0064fd5c      b03ad36e       cmp.b 0x64d0cc(pc), d0
     > 0x0064fd60      6622           bne.b 0x64fd84
         0x0064fd62      554f           subq.w 0x2, a7
         0x0064fd64      4850           pea.l (a0)
         0x0064fd66      48780000       pea.l 0x0
         0x0064fd6a      43eefaa6       lea.l -0x55a(a6), a1
         0x0064fd6e      2f09           move.l a1, -(a7)
         0x0064fd70      4878054e       pea.l 0x54e
         0x0064fd74      1f3c0001       move.b 0x1, -(a7)
         0x0064fd78      4eb9005a2cdc   jsr K04_FILEROPS.k_write_mem_fil
         0x0064fd7e      defc0012       adda.w 0x12, a7
         0x0064fd82      349f           move.w (a7)+, (a2)
     > 0x0064fd84      3d520060       move.w (a2), 0x60(a6)
          0x0064fd88      4cdf0701       movem.l (a7)+, d0/a0-a2
          0x0064fd8c      4e5e           unlk a6
          0x0064fd8e      4e75           rts
 38: K91_LIBOPS.save_scanner ();
          ; var int32_t var_2ce0h @ a6-0x2ce0
          0x0064fd90      4e56ffe6       link.w a6, 0xffe6
          0x0064fd94      bfd5           cmpa.l (a5), a7
      < 0x0064fd96      6206           bhi.b 0x64fd9e
         0x0064fd98      44fc0002       move.w 0x2, ccr
         0x0064fd9c      4e76           trapv
      > 0x0064fd9e      defc0006       adda.w 0x6, a7
          0x0064fda2      4227           clr.b -(a7)
          0x0064fda4      4eb90040452a   jsr p_Assert
          0x0064fdaa      544f           addq.w 0x2, a7
          0x0064fdac      3d7ad3200060   move.w 0x64d0ce(pc), 0x60(a6)
          0x0064fdb2      4e5e           unlk a6
          0x0064fdb4      4e75           rts
 164: K91_LIBOPS.save_grid ();
          0x0064fdb6      4e56fed6       link.w a6, 0xfed6
          0x0064fdba      bfd5           cmpa.l (a5), a7
      < 0x0064fdbc      6206           bhi.b 0x64fdc4
         0x0064fdbe      44fc0002       move.w 0x2, ccr
         0x0064fdc2      4e76           trapv
      > 0x0064fdc4      defc003a       adda.w 0x3a, a7
          0x0064fdc8      48e780c0       movem.l d0/a0-a1, -(a7)
          0x0064fdcc      43eefffe       lea.l -0x2(a6), a1
          0x0064fdd0      426efff4       clr.w -0xc(a6)
          0x0064fdd4      426efff6       clr.w -0xa(a6)
          0x0064fdd8      426efff8       clr.w -0x8(a6)
          0x0064fddc      42aefffa       clr.l -0x6(a6)
          0x0064fde0      486eff10       pea.l -0xf0(a6)
          0x0064fde4      4eb9004ff5ee   jsr MENUGRIDCOM.get_grid
          0x0064fdea      584f           addq.w 0x4, a7
          0x0064fdec      206e0008       movea.l 0x8(a6), a0
          0x0064fdf0      554f           subq.w 0x2, a7
          0x0064fdf2      4850           pea.l (a0)
          0x0064fdf4      2f2efffa       move.l -0x6(a6), -(a7)
          0x0064fdf8      2f2efff6       move.l -0xa(a6), -(a7)
          0x0064fdfc      3f2efff4       move.w -0xc(a6), -(a7)
          0x0064fe00      486e000c       pea.l 0xc(a6)
          0x0064fe04      2f3ad2ce       move.l 0x64d0d4(pc), -(a7)
          0x0064fe08      2f3ad2c6       move.l 0x64d0d0(pc), -(a7)
          0x0064fe0c      2f3ace74       move.l 0x64cc82(pc), -(a7)
          0x0064fe10      2f3ace6c       move.l 0x64cc7e(pc), -(a7)
          0x0064fe14      3f3cffff       move.w 0xffff, -(a7)
          0x0064fe18      4eb900595808   jsr K0_DISKMGR.k_create_file
          0x0064fe1e      defc0024       adda.w 0x24, a7
          0x0064fe22      329f           move.w (a7)+, (a1)
          0x0064fe24      1011           move.b (a1), d0
          0x0064fe26      b03ad2b1       cmp.b 0x64d0d9(pc), d0
      < 0x0064fe2a      6608           bne.b 0x64fe34
         0x0064fe2c      102effff       move.b -0x1(a6), d0
         0x0064fe30      b03ad2a8       cmp.b 0x64d0da(pc), d0
     > 0x0064fe34      6618           bne.b 0x64fe4e
         0x0064fe36      554f           subq.w 0x2, a7
         0x0064fe38      1f3c0001       move.b 0x1, -(a7)
         0x0064fe3c      4850           pea.l (a0)
         0x0064fe3e      486eff10       pea.l -0xf0(a6)
         0x0064fe42      4eb9005a1fc4   jsr K04_FILEROPS.k_grid_data
         0x0064fe48      defc000a       adda.w 0xa, a7
         0x0064fe4c      329f           move.w (a7)+, (a1)
     > 0x0064fe4e      3d510060       move.w (a1), 0x60(a6)
          0x0064fe52      4cdf0301       movem.l (a7)+, d0/a0-a1
          0x0064fe56      4e5e           unlk a6
          0x0064fe58      4e75           rts
 198: K91_LIBOPS.save_effects_se ();
          0x0064fe5a      4e56fbc2       link.w a6, 0xfbc2
          0x0064fe5e      bfd5           cmpa.l (a5), a7
      < 0x0064fe60      6206           bhi.b 0x64fe68
         0x0064fe62      44fc0002       move.w 0x2, ccr
         0x0064fe66      4e76           trapv
      > 0x0064fe68      defc0046       adda.w 0x46, a7
          0x0064fe6c      48e7c0e0       movem.l d0-d1/a0-a2, -(a7)
          0x0064fe70      45eefffe       lea.l -0x2(a6), a2
          0x0064fe74      7201           moveq 0x1, d1
          0x0064fe76      426efff4       clr.w -0xc(a6)
          0x0064fe7a      426efff6       clr.w -0xa(a6)
          0x0064fe7e      426efff8       clr.w -0x8(a6)
          0x0064fe82      2d7c000003ec.  move.l 0x3ec, -0x6(a6)
          0x0064fe8a      206e000c       movea.l 0xc(a6), a0
          0x0064fe8e      10280051       move.b 0x51(a0), d0
          0x0064fe92      0c00004b       cmpi.b 0x4b, d0
      < 0x0064fe96      6604           bne.b 0x64fe9c
         0x0064fe98      3f01           move.w d1, -(a7)
     < 0x0064fe9a      6004           bra.b 0x64fea0
     > 0x0064fe9c      3f3c0002       move.w 0x2, -(a7)
     > 0x0064fea0      486efc08       pea.l -0x3f8(a6)
          0x0064fea4      4eb90074413e   jsr MENUEFFECTCOM.get_eff_data
          0x0064feaa      5c4f           addq.w 0x6, a7
          0x0064feac      226e0008       movea.l 0x8(a6), a1
          0x0064feb0      554f           subq.w 0x2, a7
          0x0064feb2      4851           pea.l (a1)
          0x0064feb4      2f2efffa       move.l -0x6(a6), -(a7)
          0x0064feb8      2f2efff6       move.l -0xa(a6), -(a7)
          0x0064febc      3f2efff4       move.w -0xc(a6), -(a7)
          0x0064fec0      4850           pea.l (a0)
          0x0064fec2      2f3ad21c       move.l 0x64d0e0(pc), -(a7)
          0x0064fec6      2f3ad214       move.l 0x64d0dc(pc), -(a7)
          0x0064feca      2f3acdb6       move.l 0x64cc82(pc), -(a7)
          0x0064fece      2f3acdae       move.l 0x64cc7e(pc), -(a7)
          0x0064fed2      3f3cffff       move.w 0xffff, -(a7)
          0x0064fed6      4eb900595808   jsr K0_DISKMGR.k_create_file
          0x0064fedc      defc0024       adda.w 0x24, a7
          0x0064fee0      349f           move.w (a7)+, (a2)
          0x0064fee2      1012           move.b (a2), d0
          0x0064fee4      b03ad1ff       cmp.b 0x64d0e5(pc), d0
      < 0x0064fee8      6608           bne.b 0x64fef2
         0x0064feea      102effff       move.b -0x1(a6), d0
         0x0064feee      b03ad1f6       cmp.b 0x64d0e6(pc), d0
     > 0x0064fef2      6620           bne.b 0x64ff14
         0x0064fef4      554f           subq.w 0x2, a7
         0x0064fef6      4851           pea.l (a1)
         0x0064fef8      48780000       pea.l 0x0
         0x0064fefc      41eefc08       lea.l -0x3f8(a6), a0
         0x0064ff00      2f08           move.l a0, -(a7)
         0x0064ff02      487803ec       pea.l 0x3ec
         0x0064ff06      1f01           move.b d1, -(a7)
         0x0064ff08      4eb9005a2cdc   jsr K04_FILEROPS.k_write_mem_fil
         0x0064ff0e      defc0012       adda.w 0x12, a7
         0x0064ff12      349f           move.w (a7)+, (a2)
     > 0x0064ff14      3d520010       move.w (a2), 0x10(a6)
          0x0064ff18      4cdf0703       movem.l (a7)+, d0-d1/a0-a2
          0x0064ff1c      4e5e           unlk a6
          0x0064ff1e      4e75           rts
 242: K91_LIBOPS.do_save_stack ();
          0x0064ff20      4e56ffac       link.w a6, 0xffac
          0x0064ff24      bfd5           cmpa.l (a5), a7
      < 0x0064ff26      6206           bhi.b 0x64ff2e
         0x0064ff28      44fc0002       move.w 0x2, ccr
         0x0064ff2c      4e76           trapv
      > 0x0064ff2e      defc0044       adda.w 0x44, a7
          0x0064ff32      48e7e0f0       movem.l d0-d2/a0-a3, -(a7)
          0x0064ff36      43eefff4       lea.l -0xc(a6), a1
          0x0064ff3a      45eefff0       lea.l -0x10(a6), a2
          0x0064ff3e      47f9004047ea   lea.l p_wts_o, a3
          0x0064ff44      7201           moveq 0x1, d1
          0x0064ff46      740c           moveq 0xc, d2
          0x0064ff48      2481           move.l d1, (a2)
          0x0064ff4a      4852           pea.l (a2)
          0x0064ff4c      4eb9004c0302   jsr MENUCELLCOM.get_stack
          0x0064ff52      584f           addq.w 0x4, a7
          0x0064ff54      2052           movea.l (a2), a0
          0x0064ff56      b0c1           cmpa.w d1, a0
      < 0x0064ff58      6606           bne.b 0x64ff60
         0x0064ff5a      32bad18c       move.w 0x64d0e8(pc), (a1)
     < 0x0064ff5e      6052           bra.b 0x64ffb2
     > 0x0064ff60      554f           subq.w 0x2, a7
         0x0064ff62      4852           pea.l (a2)
         0x0064ff64      486efff6       pea.l -0xa(a6)
         0x0064ff68      4eb9005a2894   jsr K04_FILEROPS.k_get_file_size
         0x0064ff6e      504f           addq.w 0x8, a7
         0x0064ff70      329f           move.w (a7)+, (a1)
         0x0064ff72      1011           move.b (a1), d0
         0x0064ff74      b03ad175       cmp.b 0x64d0eb(pc), d0
     < 0x0064ff78      6608           bne.b 0x64ff82
        0x0064ff7a      102efff5       move.b -0xb(a6), d0
        0x0064ff7e      b03ad16c       cmp.b 0x64d0ec(pc), d0
    > 0x0064ff82      662e           bne.b 0x64ffb2
        0x0064ff84      554f           subq.w 0x2, a7
        0x0064ff86      4852           pea.l (a2)
        0x0064ff88      206e0008       movea.l 0x8(a6), a0
        0x0064ff8c      4850           pea.l (a0)
        0x0064ff8e      486efff6       pea.l -0xa(a6)
        0x0064ff92      486e000c       pea.l 0xc(a6)
        0x0064ff96      2f3ad15a       move.l 0x64d0f2(pc), -(a7)
        0x0064ff9a      2f3ad152       move.l 0x64d0ee(pc), -(a7)
        0x0064ff9e      2f3acce2       move.l 0x64cc82(pc), -(a7)
        0x0064ffa2      2f3accda       move.l 0x64cc7e(pc), -(a7)
        0x0064ffa6      4227           clr.b -(a7)
        0x0064ffa8      4ebad572       jsr K91_LIBOPS.create_and_copy(pc)
        0x0064ffac      defc0022       adda.w 0x22, a7
        0x0064ffb0      329f           move.w (a7)+, (a1)
    > 0x0064ffb2      3d510060       move.w (a1), 0x60(a6)
          0x0064ffb6      2052           movea.l (a2), a0
          0x0064ffb8      b0c1           cmpa.w d1, a0
      < 0x0064ffba      670e           beq.b 0x64ffca
         0x0064ffbc      554f           subq.w 0x2, a7
         0x0064ffbe      4852           pea.l (a2)
         0x0064ffc0      4eb900594e02   jsr K0_DISKMGR.k_lose_ref
         0x0064ffc6      584f           addq.w 0x4, a7
         0x0064ffc8      329f           move.w (a7)+, (a1)
      > 0x0064ffca      1011           move.b (a1), d0
          0x0064ffcc      b03ad129       cmp.b 0x64d0f7(pc), d0
      < 0x0064ffd0      6608           bne.b 0x64ffda
         0x0064ffd2      102efff5       move.b -0xb(a6), d0
         0x0064ffd6      b03ad120       cmp.b 0x64d0f8(pc), d0
     > 0x0064ffda      672e           beq.b 0x65000a
         0x0064ffdc      487ad11c       pea.l 0x64d0fa(pc)
         0x0064ffe0      48780007       pea.l 0x7
         0x0064ffe4      2f17           move.l (a7), -(a7)
         0x0064ffe6      4e93           jsr (a3)                    ; fcn.0000000c
         0x0064ffe8      dec2           adda.w d2, a7
         0x0064ffea      4851           pea.l (a1)
         0x0064ffec      48780002       pea.l 0x2
         0x0064fff0      2f17           move.l (a7), -(a7)
         0x0064fff2      4e93           jsr (a3)                    ; fcn.0000000c
         0x0064fff4      dec2           adda.w d2, a7
         0x0064fff6      487ad10a       pea.l 0x64d102(pc)
         0x0064fffa      48780012       pea.l 0x12
         0x0064fffe      2f17           move.l (a7), -(a7)
         0x00650000      4e93           jsr (a3)                    ; fcn.0000000c
         0x00650002      dec2           adda.w d2, a7
         0x00650004      4eb900404946   jsr p_wtln_o
     > 0x0065000a      4cdf0f07       movem.l (a7)+, d0-d2/a0-a3
          0x0065000e      4e5e           unlk a6
          0x00650010      4e75           rts
 348: K91_LIBOPS.save_macro ();
          0x00650012      4e56ff96       link.w a6, 0xff96
          0x00650016      bfd5           cmpa.l (a5), a7
      < 0x00650018      6206           bhi.b 0x650020
         0x0065001a      44fc0002       move.w 0x2, ccr
         0x0065001e      4e76           trapv
      > 0x00650020      defc004e       adda.w 0x4e, a7
          0x00650024      48e7e0f8       movem.l d0-d2/a0-a4, -(a7)
          0x00650028      45eeffee       lea.l -0x12(a6), a2
          0x0065002c      47eefff4       lea.l -0xc(a6), a3
          0x00650030      49f9004047ea   lea.l p_wts_o, a4
          0x00650036      720c           moveq 0xc, d1
          0x00650038      7401           moveq 0x1, d2
          0x0065003a      426effe4       clr.w -0x1c(a6)
          0x0065003e      426effe6       clr.w -0x1a(a6)
          0x00650042      426effe8       clr.w -0x18(a6)
          0x00650046      42aefff8       clr.l -0x8(a6)
          0x0065004a      486efff0       pea.l -0x10(a6)
          0x0065004e      4853           pea.l (a3)
          0x00650050      486efff8       pea.l -0x8(a6)
          0x00650054      4eb9004cede0   jsr MACROLIBCOM.get_macro
          0x0065005a      dec1           adda.w d1, a7
          0x0065005c      487ad0b7       pea.l 0x64d115(pc)
          0x00650060      48780013       pea.l 0x13
          0x00650064      2f17           move.l (a7), -(a7)
          0x00650066      4e94           jsr (a4)                    ; fcn.0000000d
          0x00650068      504f           addq.w 0x8, a7
          0x0065006a      2e93           move.l (a3), (a7)
          0x0065006c      48780000       pea.l 0x0
          0x00650070      4eb9004070e4   jsr p_wti_o
          0x00650076      504f           addq.w 0x8, a7
          0x00650078      4eb900404946   jsr p_wtln_o
          0x0065007e      2d53ffea       move.l (a3), -0x16(a6)
          0x00650082      206e0008       movea.l 0x8(a6), a0
          0x00650086      554f           subq.w 0x2, a7
          0x00650088      4850           pea.l (a0)
          0x0065008a      2f2effea       move.l -0x16(a6), -(a7)
          0x0065008e      2f2effe6       move.l -0x1a(a6), -(a7)
          0x00650092      3f2effe4       move.w -0x1c(a6), -(a7)
          0x00650096      486e000c       pea.l 0xc(a6)
          0x0065009a      2f3ad090       move.l 0x64d12c(pc), -(a7)
          0x0065009e      2f3ad088       move.l 0x64d128(pc), -(a7)
          0x006500a2      2f3acbde       move.l 0x64cc82(pc), -(a7)
          0x006500a6      2f3acbd6       move.l 0x64cc7e(pc), -(a7)
          0x006500aa      3f3cffff       move.w 0xffff, -(a7)
          0x006500ae      4eb900595808   jsr K0_DISKMGR.k_create_file
          0x006500b4      defc0024       adda.w 0x24, a7
          0x006500b8      349f           move.w (a7)+, (a2)
          0x006500ba      1012           move.b (a2), d0
          0x006500bc      b03ad073       cmp.b 0x64d131(pc), d0
      < 0x006500c0      6608           bne.b 0x6500ca
         0x006500c2      102effef       move.b -0x11(a6), d0
         0x006500c6      b03ad06a       cmp.b 0x64d132(pc), d0
     > 0x006500ca      6648           bne.b 0x650114
         0x006500cc      554f           subq.w 0x2, a7
         0x006500ce      4850           pea.l (a0)
         0x006500d0      48780000       pea.l 0x0
         0x006500d4      2f2efff0       move.l -0x10(a6), -(a7)
         0x006500d8      2f13           move.l (a3), -(a7)
         0x006500da      1f02           move.b d2, -(a7)
         0x006500dc      4eb9005a2cdc   jsr K04_FILEROPS.k_write_mem_fil
         0x006500e2      defc0012       adda.w 0x12, a7
         0x006500e6      349f           move.w (a7)+, (a2)
         0x006500e8      3012           move.w (a2), d0
         0x006500ea      b07ad048       cmp.w 0x64d134(pc), d0
     < 0x006500ee      6624           bne.b 0x650114
        0x006500f0      2d53fffc       move.l (a3), -0x4(a6)
        0x006500f4      554f           subq.w 0x2, a7
        0x006500f6      1f02           move.b d2, -(a7)
        0x006500f8      4850           pea.l (a0)
        0x006500fa      1f3c001b       move.b 0x1b, -(a7)
        0x006500fe      43eefffc       lea.l -0x4(a6), a1
        0x00650102      2f09           move.l a1, -(a7)
        0x00650104      48780004       pea.l 0x4
        0x00650108      4eb9005a2072   jsr K04_FILEROPS.k_data
        0x0065010e      defc0010       adda.w 0x10, a7
        0x00650112      349f           move.w (a7)+, (a2)
     > 0x00650114      487ad021       pea.l 0x64d137(pc)
          0x00650118      48780013       pea.l 0x13
          0x0065011c      2f17           move.l (a7), -(a7)
          0x0065011e      4e94           jsr (a4)                    ; fcn.0000000d
          0x00650120      504f           addq.w 0x8, a7
          0x00650122      2eaefffc       move.l -0x4(a6), (a7)
          0x00650126      48780000       pea.l 0x0
          0x0065012a      4eb9004070e4   jsr p_wti_o
          0x00650130      504f           addq.w 0x8, a7
          0x00650132      487ad017       pea.l 0x64d14b(pc)
          0x00650136      48780002       pea.l 0x2
          0x0065013a      2f17           move.l (a7), -(a7)
          0x0065013c      4e94           jsr (a4)                    ; fcn.0000000d
          0x0065013e      dec1           adda.w d1, a7
          0x00650140      4852           pea.l (a2)
          0x00650142      48780002       pea.l 0x2
          0x00650146      2f17           move.l (a7), -(a7)
          0x00650148      4e94           jsr (a4)                    ; fcn.0000000d
          0x0065014a      dec1           adda.w d1, a7
          0x0065014c      4eb900404946   jsr p_wtln_o
          0x00650152      486efff0       pea.l -0x10(a6)
          0x00650156      2f2efff8       move.l -0x8(a6), -(a7)
          0x0065015a      4eb900403b98   jsr p_Dispos
          0x00650160      504f           addq.w 0x8, a7
          0x00650162      3d520060       move.w (a2), 0x60(a6)
          0x00650166      4cdf1f07       movem.l (a7)+, d0-d2/a0-a4
          0x0065016a      4e5e           unlk a6
          0x0065016c      4e75           rts
 338: K91_LIBOPS.save_kbd_map ();
          0x0065016e      4e56ff98       link.w a6, 0xff98
          0x00650172      bfd5           cmpa.l (a5), a7
      < 0x00650174      6206           bhi.b 0x65017c
         0x00650176      44fc0002       move.w 0x2, ccr
         0x0065017a      4e76           trapv
      > 0x0065017c      defc004e       adda.w 0x4e, a7
          0x00650180      48e7e0f8       movem.l d0-d2/a0-a4, -(a7)
          0x00650184      45eefff0       lea.l -0x10(a6), a2
          0x00650188      47eefff6       lea.l -0xa(a6), a3
          0x0065018c      49f9004047ea   lea.l p_wts_o, a4
          0x00650192      7201           moveq 0x1, d1
          0x00650194      740c           moveq 0xc, d2
          0x00650196      426effe6       clr.w -0x1a(a6)
          0x0065019a      426effe8       clr.w -0x18(a6)
          0x0065019e      426effea       clr.w -0x16(a6)
          0x006501a2      486efff2       pea.l -0xe(a6)
          0x006501a6      4853           pea.l (a3)
          0x006501a8      4eb9004a7e7a   jsr MENUKEYBDCOM.get_kbd_map
          0x006501ae      504f           addq.w 0x8, a7
          0x006501b0      487acf9c       pea.l 0x64d14e(pc)
          0x006501b4      48780015       pea.l 0x15
          0x006501b8      2f17           move.l (a7), -(a7)
          0x006501ba      4e94           jsr (a4)                    ; fcn.0000000d
          0x006501bc      504f           addq.w 0x8, a7
          0x006501be      2e93           move.l (a3), (a7)
          0x006501c0      48780000       pea.l 0x0
          0x006501c4      4eb9004070e4   jsr p_wti_o
          0x006501ca      504f           addq.w 0x8, a7
          0x006501cc      4eb900404946   jsr p_wtln_o
          0x006501d2      2d53ffec       move.l (a3), -0x14(a6)
          0x006501d6      206e0008       movea.l 0x8(a6), a0
          0x006501da      554f           subq.w 0x2, a7
          0x006501dc      4850           pea.l (a0)
          0x006501de      2f2effec       move.l -0x14(a6), -(a7)
          0x006501e2      2f2effe8       move.l -0x18(a6), -(a7)
          0x006501e6      3f2effe6       move.w -0x1a(a6), -(a7)
          0x006501ea      486e000c       pea.l 0xc(a6)
          0x006501ee      2f3acf78       move.l 0x64d168(pc), -(a7)
          0x006501f2      2f3acf70       move.l 0x64d164(pc), -(a7)
          0x006501f6      2f3aca8a       move.l 0x64cc82(pc), -(a7)
          0x006501fa      2f3aca82       move.l 0x64cc7e(pc), -(a7)
          0x006501fe      3f3cffff       move.w 0xffff, -(a7)
          0x00650202      4eb900595808   jsr K0_DISKMGR.k_create_file
          0x00650208      defc0024       adda.w 0x24, a7
          0x0065020c      349f           move.w (a7)+, (a2)
          0x0065020e      1012           move.b (a2), d0
          0x00650210      b03acf5b       cmp.b 0x64d16d(pc), d0
      < 0x00650214      6608           bne.b 0x65021e
         0x00650216      102efff1       move.b -0xf(a6), d0
         0x0065021a      b03acf52       cmp.b 0x64d16e(pc), d0
     > 0x0065021e      6648           bne.b 0x650268
         0x00650220      554f           subq.w 0x2, a7
         0x00650222      4850           pea.l (a0)
         0x00650224      48780000       pea.l 0x0
         0x00650228      2f2efff2       move.l -0xe(a6), -(a7)
         0x0065022c      2f13           move.l (a3), -(a7)
         0x0065022e      1f01           move.b d1, -(a7)
         0x00650230      4eb9005a2cdc   jsr K04_FILEROPS.k_write_mem_fil
         0x00650236      defc0012       adda.w 0x12, a7
         0x0065023a      349f           move.w (a7)+, (a2)
         0x0065023c      3012           move.w (a2), d0
         0x0065023e      b07acf30       cmp.w 0x64d170(pc), d0
     < 0x00650242      6624           bne.b 0x650268
        0x00650244      2d53fffc       move.l (a3), -0x4(a6)
        0x00650248      554f           subq.w 0x2, a7
        0x0065024a      1f01           move.b d1, -(a7)
        0x0065024c      4850           pea.l (a0)
        0x0065024e      1f3c0008       move.b 0x8, -(a7)
        0x00650252      43eefffc       lea.l -0x4(a6), a1
        0x00650256      2f09           move.l a1, -(a7)
        0x00650258      48780004       pea.l 0x4
        0x0065025c      4eb9005a2072   jsr K04_FILEROPS.k_data
        0x00650262      defc0010       adda.w 0x10, a7
        0x00650266      349f           move.w (a7)+, (a2)
     > 0x00650268      487acf09       pea.l 0x64d173(pc)
          0x0065026c      48780013       pea.l 0x13
          0x00650270      2f17           move.l (a7), -(a7)
          0x00650272      4e94           jsr (a4)                    ; fcn.0000000d
          0x00650274      504f           addq.w 0x8, a7
          0x00650276      2eaefffc       move.l -0x4(a6), (a7)
          0x0065027a      48780000       pea.l 0x0
          0x0065027e      4eb9004070e4   jsr p_wti_o
          0x00650284      504f           addq.w 0x8, a7
          0x00650286      487aceff       pea.l 0x64d187(pc)
          0x0065028a      48780002       pea.l 0x2
          0x0065028e      2f17           move.l (a7), -(a7)
          0x00650290      4e94           jsr (a4)                    ; fcn.0000000d
          0x00650292      dec2           adda.w d2, a7
          0x00650294      4852           pea.l (a2)
          0x00650296      48780002       pea.l 0x2
          0x0065029a      2f17           move.l (a7), -(a7)
          0x0065029c      4e94           jsr (a4)                    ; fcn.0000000d
          0x0065029e      dec2           adda.w d2, a7
          0x006502a0      4eb900404946   jsr p_wtln_o
          0x006502a6      486efff2       pea.l -0xe(a6)
          0x006502aa      2f13           move.l (a3), -(a7)
          0x006502ac      4eb900403b98   jsr p_Dispos
          0x006502b2      504f           addq.w 0x8, a7
          0x006502b4      3d520060       move.w (a2), 0x60(a6)
          0x006502b8      4cdf1f07       movem.l (a7)+, d0-d2/a0-a4
          0x006502bc      4e5e           unlk a6
          0x006502be      4e75           rts
           ; CALL XREF from MENUGRIDCOM.hit_save_grid @ 0x501d00
           ; CALL XREF from K95_CARDS.k9_save @ 0x6636c6
 434: K91_LIBOPS.k91_save ();
          0x006502c0      4e56feae       link.w a6, 0xfeae
          0x006502c4      bfd5           cmpa.l (a5), a7
      < 0x006502c6      6206           bhi.b 0x6502ce
         0x006502c8      44fc0002       move.w 0x2, ccr
         0x006502cc      4e76           trapv
      > 0x006502ce      defc0146       adda.w 0x146, a7
          0x006502d2      48e7fff8       movem.l d0-d7/a0-a4, -(a7)
          0x006502d6      43ee000a       lea.l 0xa(a6), a1
          0x006502da      45ee0062       lea.l 0x62(a6), a2
          0x006502de      47eefff8       lea.l -0x8(a6), a3
          0x006502e2      49eefffe       lea.l -0x2(a6), a4
          0x006502e6      243cffff8000   move.l 0xffff8000, d2
          0x006502ec      7a07           moveq 0x7, d5
          0x006502ee      7c01           moveq 0x1, d6
          0x006502f0      7e58           moveq 0x58, d7
          0x006502f2      1f2e0008       move.b 0x8(a6), -(a7)
          0x006502f6      4417           neg.b (a7)
          0x006502f8      5217           addq.b 0x1, (a7)
          0x006502fa      4eb9005bfe48   jsr AFS_FILER.afs_format_code
          0x00650300      544f           addq.w 0x2, a7
          0x00650302      4a2e0008       tst.b 0x8(a6)
      < 0x00650306      670000ac       beq.w 0x6503b4
         0x0065030a      514f           subq.w 0x8, a7
         0x0065030c      4eb90050050a   jsr MENUGRIDCOM.crnt_grid_area
         0x00650312      2d5ffff4       move.l (a7)+, -0xc(a6)
         0x00650316      269f           move.l (a7)+, (a3)
         0x00650318      302efff6       move.w -0xa(a6), d0
         0x0065031c      48c0           ext.l d0
         0x0065031e      068000000080   addi.l 0x80, d0
         0x00650324      9082           sub.l d2, d0
         0x00650326      0c800000ffff   cmpi.l 0xffff, d0
     < 0x0065032c      6302           bls.b 0x650330
        0x0065032e      4e4f           trap 0xf
     > 0x00650330      d082           add.l d2, d0
         0x00650332      3d40fff6       move.w d0, -0xa(a6)
         0x00650336      3d53fffc       move.w (a3), -0x4(a6)
         0x0065033a      cb6efffc       and.w d5, -0x4(a6)
         0x0065033e      446efffc       neg.w -0x4(a6)
         0x00650342      506efffc       addq.w 0x8, -0x4(a6)
         0x00650346      cb6efffc       and.w d5, -0x4(a6)
         0x0065034a      3013           move.w (a3), d0
         0x0065034c      48c0           ext.l d0
         0x0065034e      322efffc       move.w -0x4(a6), d1
         0x00650352      48c1           ext.l d1
         0x00650354      d280           add.l d0, d1
         0x00650356      9282           sub.l d2, d1
         0x00650358      0c810000ffff   cmpi.l 0xffff, d1
     < 0x0065035e      6302           bls.b 0x650362
        0x00650360      4e4f           trap 0xf
     > 0x00650362      d282           add.l d2, d1
         0x00650364      3681           move.w d1, (a3)
         0x00650366      2079008486c4   movea.l 0x8486c4, a0
         0x0065036c      4a280001       tst.b 0x1(a0)
     < 0x00650370      6750           beq.b 0x6503c2
        0x00650372      302efff4       move.w -0xc(a6), d0
        0x00650376      c045           and.w d5, d0
    < 0x00650378      6704           beq.b 0x65037e
       0x0065037a      594f           subq.w 0x4, a7
   < 0x0065037c      6026           bra.b 0x6503a4
   > 0x0065037e      594f           subq.w 0x4, a7
       0x00650380      3f3c0057       move.w 0x57, -(a7)
       0x00650384      4eb90048d992   jsr MENU2COM.get_numeric_val
       0x0065038a      544f           addq.w 0x2, a7
       0x0065038c      7864           moveq 0x64, d4
       0x0065038e      4eb900408686   jsr fcn.00408686
       0x00650394      2604           move.l d4, d3
       0x00650396      2817           move.l (a7), d4
       0x00650398      4eb900407dd4   jsr fcn.00407dd4
   < 0x0065039e      6604           bne.b 0x6503a4
      0x006503a0      584f           addq.w 0x4, a7
  < 0x006503a2      601e           bra.b 0x6503c2
  > 0x006503a4      4eb900518f96   jsr OUTCOM.normal_set_out
       0x006503aa      4eb90064ba94   jsr K9_LIBRARY.k9_store_corrup
       0x006503b0      584f           addq.w 0x4, a7
   < 0x006503b2      600e           bra.b 0x6503c2
   > 0x006503b4      514f           subq.w 0x8, a7
       0x006503b6      4eb9006339f2   jsr HANDCOM.get_picture_are
       0x006503bc      2d5ffff4       move.l (a7)+, -0xc(a6)
       0x006503c0      269f           move.l (a7)+, (a3)
  > 0x006503c2      4a2e0008       tst.b 0x8(a6)
      < 0x006503c6      6604           bne.b 0x6503cc
         0x006503c8      594f           subq.w 0x4, a7
     < 0x006503ca      606a           bra.b 0x650436
     > 0x006503cc      594f           subq.w 0x4, a7
         0x006503ce      3f3c0057       move.w 0x57, -(a7)
         0x006503d2      4eb90048d992   jsr MENU2COM.get_numeric_val
         0x006503d8      544f           addq.w 0x2, a7
         0x006503da      7864           moveq 0x64, d4
         0x006503dc      4eb900408686   jsr fcn.00408686
         0x006503e2      2604           move.l d4, d3
         0x006503e4      2817           move.l (a7), d4
         0x006503e6      4eb900407dd4   jsr fcn.00407dd4
     < 0x006503ec      6748           beq.b 0x650436
        0x006503ee      102e005f       move.b 0x5f(a6), d0
        0x006503f2      4880           ext.w d0
        0x006503f4      41facd94       lea.l 0x64d18a(pc), a0
        0x006503f8      3200           move.w d0, d1
        0x006503fa      e649           lsr.w 0x3, d1
        0x006503fc      01301000       btst.l d0, (a0, d1.w)
    < 0x00650400      6734           beq.b 0x650436
       0x00650402      554f           subq.w 0x2, a7
       0x00650404      1f12           move.b (a2), -(a7)
       0x00650406      204a           movea.l a2, a0
       0x00650408      7014           moveq 0x14, d0
   > 0x0065040a      2f20           move.l -(a0), -(a7)
   < 0x0065040c      51c8fffc       dbra d0, 0x65040a
       0x00650410      2051           movea.l (a1), a0
       0x00650412      4850           pea.l (a0)
       0x00650414      2f13           move.l (a3), -(a7)
       0x00650416      2f2efff4       move.l -0xc(a6), -(a7)
       0x0065041a      4227           clr.b -(a7)
       0x0065041c      2f3ac864       move.l 0x64cc82(pc), -(a7)
       0x00650420      2f3ac85c       move.l 0x64cc7e(pc), -(a7)
       0x00650424      4227           clr.b -(a7)
       0x00650426      4eb900665790   jsr K96_LIB2OPS.k96_save_sized_
   > 0x0065042c      defc006e       adda.w 0x6e, a7
      ; CODE XREF from K91_LIBOPS @ +0x3c7e
 > 0x00650430      389f           move.w (a7)+, (a4)
 < 0x00650432      6000030c       bra.w loc.00650740
 > 0x00650436      102e005f       move.b 0x5f(a6), d0
       0x0065043a      0c000035       cmpi.b 0x35, d0
   < 0x0065043e      6c18           bge.b 0x650458
      0x00650440      0c000029       cmpi.b 0x29, d0
  < 0x00650444      6d70           blt.b 0x6504b6
     0x00650446      0c000029       cmpi.b 0x29, d0
 < 0x0065044a      67000168       beq.w 0x6505b4
    0x0065044e      0c000032       cmpi.b 0x32, d0
 < 0x00650452      670001f2       beq.w 0x650646
    0x00650456      4e4e           trap 0xe
 > 0x00650458      4880           ext.w d0
     0x0065045a      3200           move.w d0, d1
     0x0065045c      04410035       subi.w 0x35, d1
     0x00650460      0c410021       cmpi.w 0x21, d1
 < 0x00650464      6302           bls.b 0x650468
    0x00650466      4e4e           trap 0xe
 > 0x00650468      d241           add.w d1, d1
     0x0065046a      323b1006       move.w 0x650472(pc, d1.w), d1
     0x0065046e      4efb1002       jmp 0x650472(pc, d1.w)
      0x00650472      0228fff4fff4   andi.b 0xf4, -0xc(a0)
      0x00650478      0142           bchg.b d0, d2
      0x0065047a      0142           bchg.b d0, d2
      0x0065047c      fff4           invalid
      0x0065047e      0142           bchg.b d0, d2
      0x00650480      0142           bchg.b d0, d2
      0x00650482      0142           bchg.b d0, d2
      0x00650484      fff4           invalid
      0x00650486      02400142       andi.w 0x142, d0
      0x0065048a      fff4           invalid
      0x0065048c      02580258       andi.w 0x258, (a0)+
      0x00650490      02580258       andi.w 0x258, (a0)+
      0x00650494      02580142       andi.w 0x142, (a0)+
      0x00650498      0142           bchg.b d0, d2
      0x0065049a      0142           bchg.b d0, d2
      0x0065049c      027202720142.  andi.w 0x272, ([a2], 0x142)
      0x006504a4      02840284028a   andi.l 0x284028a, d4
      0x006504aa      029efff4fff4   andi.l 0xfff4fff4, (a6)+
      0x006504b0      fff4           invalid
      0x006504b2      fff4           invalid
      0x006504b4      02b648805540.  andi.l 0x48805540, 0x40(a6, d0.l)
       0x006504bc      000e6302       
       0x006504bd      0e63024e       
   < 0x006504be      6302           bls.b 0x6504c2
      0x006504c0      4e4e           trap 0xe
   > 0x006504c2      d040           add.w d0, d0
       0x006504c4      303b0006       move.w 0x6504cc(pc, d0.w), d0
       0x006504c8      4efb0002       jmp 0x6504cc(pc, d0.w)
       0x006504cc      001e004a       ori.b 0x4a, (a6)+
       0x006504d0      0066fff4       ori.w 0xfff4, -(a6)
       0x006504d4      0080009600bc   ori.l 0x9600bc, d0
       0x006504da      00d2fff4       
       0x006504db      d2fff4ff       
       0x006504dc      fff4           invalid
       0x006504de      fff4           invalid
       0x006504e0      018efff4       movep.w d0, -0xc(a6)
       0x006504e4      fff4           invalid
       0x006504e6      01ba019c       
       0x006504e7      ba01           cmp.b d1, d5
       0x006504e9      9c55           sub.w (a5), d6
       0x006504eb      4f1f           chk.l (a7)+, d7
       0x006504ed      1220           move.b -(a0), d1
       0x006504ef      4a70142f       tst.w 0x2f(a0, d1.w)
       0x006504f3      2051           movea.l (a1), a0
       0x006504f5      c8fffc20       
       0x006504f6      fffc           invalid
       0x006504f8      2051           movea.l (a1), a0
       0x006504fa      4850           pea.l (a0)
       0x006504fc      2f13           move.l (a3), -(a7)
       0x006504fe      2f2efff4       move.l -0xc(a6), -(a7)
   > 0x00650502      4227           clr.b -(a7)
  > 0x00650504      2f3ac77c       move.l 0x64cc82(pc), -(a7)
     0x00650508      2f3ac774       move.l 0x64cc7e(pc), -(a7)
     0x0065050c      4227           clr.b -(a7)
     0x0065050e      4ebaf314       jsr K91_LIBOPS.save_thing(pc)
  < 0x00650512      6000ff18       bra.w 0x65042c              ; K91_LIBOPS.k91_save+0x16c
      0x00650516      554f           subq.w 0x2, a7
      0x00650518      1f12           move.b (a2), -(a7)
      0x0065051a      204a           movea.l a2, a0
      0x0065051c      7014           moveq 0x14, d0
  > 0x0065051e      2f20           move.l -(a0), -(a7)
  < 0x00650520      51c8fffc       dbra d0, 0x65051e
      0x00650524      2051           movea.l (a1), a0
      0x00650526      4850           pea.l (a0)
      0x00650528      2f13           move.l (a3), -(a7)
      0x0065052a      2f2efff4       move.l -0xc(a6), -(a7)
      0x0065052e      1f06           move.b d6, -(a7)
   < 0x00650530      60d2           bra.b 0x650504
       0x00650532      554f           subq.w 0x2, a7
       0x00650534      204a           movea.l a2, a0
       0x00650536      7014           moveq 0x14, d0
   > 0x00650538      2f20           move.l -(a0), -(a7)
   < 0x0065053a      51c8fffc       dbra d0, 0x650538
       0x0065053e      2051           movea.l (a1), a0
       0x00650540      4850           pea.l (a0)
       0x00650542      4ebaf3bc       jsr K91_LIBOPS.do_save_cutout(pc)
  > 0x00650546      dec7           adda.w d7, a7
  < 0x00650548      6000fee6       bra.w 0x650430              ; K91_LIBOPS.k91_save+0x170
     0x0065054c      554f           subq.w 0x2, a7
     0x0065054e      204a           movea.l a2, a0
     0x00650550      7014           moveq 0x14, d0
  > 0x00650552      2f20           move.l -(a0), -(a7)
  < 0x00650554      51c8fffc       dbra d0, 0x650552
     0x00650558      2051           movea.l (a1), a0
     0x0065055a      4850           pea.l (a0)
     0x0065055c      4ebaf858       jsr K91_LIBOPS.save_grid(pc)
  < 0x00650560      60e4           bra.b 0x650546
     0x00650562      4eb9006384b2   jsr PALETCOM.pal_set_save
     0x00650568      554f           subq.w 0x2, a7
     0x0065056a      1f3c0002       move.b 0x2, -(a7)
     0x0065056e      204a           movea.l a2, a0
     0x00650570      7014           moveq 0x14, d0
  > 0x00650572      2f20           move.l -(a0), -(a7)
  < 0x00650574      51c8fffc       dbra d0, 0x650572
     0x00650578      2051           movea.l (a1), a0
     0x0065057a      4850           pea.l (a0)
     0x0065057c      514f           subq.w 0x8, a7
     0x0065057e      4eb90063399c   jsr HANDCOM.get_palette_are
  < 0x00650584      6000ff7c       bra.w 0x650502
      0x00650588      554f           subq.w 0x2, a7
      0x0065058a      204a           movea.l a2, a0
      0x0065058c      7014           moveq 0x14, d0
  > 0x0065058e      2f20           move.l -(a0), -(a7)
  < 0x00650590      51c8fffc       dbra d0, 0x65058e
      0x00650594      2051           movea.l (a1), a0
      0x00650596      4850           pea.l (a0)
      0x00650598      4ebaf986       jsr K91_LIBOPS.do_save_stack(pc)
  < 0x0065059c      60a8           bra.b 0x650546
      0x0065059e      554f           subq.w 0x2, a7
      0x006505a0      2051           movea.l (a1), a0
      0x006505a2      4850           pea.l (a0)
      0x006505a4      486e000e       pea.l 0xe(a6)
      0x006505a8      4eb900689df0   jsr SEQUENCECOM.save_sequence
      ; CODE XREF from K91_LIBOPS @ +0x3d24
  > 0x006505ae      504f           addq.w 0x8, a7
  < 0x006505b0      6000fe7e       bra.w 0x650430              ; K91_LIBOPS.k91_save+0x170
   > 0x006505b4      554f           subq.w 0x2, a7
       0x006505b6      4eb900475a98   jsr CONFIG.cfg_clipbox
       0x006505bc      4a1f           tst.b (a7)+
   < 0x006505be      6768           beq.b 0x650628
      0x006505c0      4a39008487c8   tst.b 0x8487c8
  < 0x006505c6      6734           beq.b 0x6505fc
     0x006505c8      9efc00fc       suba.w 0xfc, a7
     0x006505cc      2f3acbc8       move.l 0x64d196(pc), -(a7)
     0x006505d0      2f7acbc80004   move.l 0x64d19a(pc), 0x4(a7)
     0x006505d6      2f7acbc60008   move.l 0x64d19e(pc), 0x8(a7)
     0x006505dc      3f7acbc4000c   move.w 0x64d1a2(pc), 0xc(a7)
     0x006505e2      1f7acbc0000e   move.b 0x64d1a4(pc), 0xe(a7)
     0x006505e8      48780001       pea.l 0x1
     0x006505ec      4eb900408e0e   jsr p_error
     0x006505f2      defc0104       adda.w 0x104, a7
     0x006505f6      38bacbae       move.w 0x64d1a6(pc), (a4)
  < 0x006505fa      6046           bra.b 0x650642
  > 0x006505fc      4227           clr.b -(a7)
      0x006505fe      4eb9005bda08   jsr mark_cb_lib_val
      0x00650604      204a           movea.l a2, a0
      0x00650606      7014           moveq 0x14, d0
  > 0x00650608      2f20           move.l -(a0), -(a7)
  < 0x0065060a      51c8fffc       dbra d0, 0x650608
      0x0065060e      2051           movea.l (a1), a0
      0x00650610      4850           pea.l (a0)
      0x00650612      4eb900707a46   jsr VIDOUTDOU_DUMMY.save_clip
      0x00650618      dec7           adda.w d7, a7
      0x0065061a      389f           move.w (a7)+, (a4)
      0x0065061c      1f06           move.b d6, -(a7)
      0x0065061e      4eb9005bda08   jsr mark_cb_lib_val
      0x00650624      544f           addq.w 0x2, a7
  < 0x00650626      601a           bra.b 0x650642
  > 0x00650628      554f           subq.w 0x2, a7
      0x0065062a      204a           movea.l a2, a0
      0x0065062c      7014           moveq 0x14, d0
  > 0x0065062e      2f20           move.l -(a0), -(a7)
  < 0x00650630      51c8fffc       dbra d0, 0x65062e
      0x00650634      2051           movea.l (a1), a0
      0x00650636      4850           pea.l (a0)
      0x00650638      4eb900707a46   jsr VIDOUTDOU_DUMMY.save_clip
      0x0065063e      dec7           adda.w d7, a7
      0x00650640      389f           move.w (a7)+, (a4)
      ; CODE XREFS from K91_LIBOPS @ +0x3cc8, +0x3cf4
  < 0x00650642      600000fc       bra.w loc.00650740
  > 0x00650646      554f           subq.w 0x2, a7
      0x00650648      2051           movea.l (a1), a0
      0x0065064a      4850           pea.l (a0)
      0x0065064c      486e000e       pea.l 0xe(a6)
      0x00650650      4eb900762736   jsr MENUKEYFRMCOM.save_keyfrms
  < 0x00650656      6000ff56       bra.w 0x6505ae
      0x0065065a      18bacb4d       move.b 0x64d1a9(pc), (a4)
      0x0065065e      1d7acb4affff   move.b 0x64d1aa(pc), -0x1(a6)
  < 0x00650664      600000da       bra.w loc.00650740
     0x00650668      554f           subq.w 0x2, a7
     0x0065066a      204a           movea.l a2, a0
     0x0065066c      7014           moveq 0x14, d0
  > 0x0065066e      2f20           move.l -(a0), -(a7)
  < 0x00650670      51c8fffc       dbra d0, 0x65066e
     0x00650674      2051           movea.l (a1), a0
     0x00650676      4850           pea.l (a0)
     0x00650678      4227           clr.b -(a7)
  > 0x0065067a      4ebaf434       jsr K91_LIBOPS.do_save_logo(pc)
     0x0065067e      defc005a       adda.w 0x5a, a7
  < 0x00650682      6000fdac       bra.w 0x650430              ; K91_LIBOPS.k91_save+0x170
      0x00650686      554f           subq.w 0x2, a7
      0x00650688      204a           movea.l a2, a0
      0x0065068a      7014           moveq 0x14, d0
  > 0x0065068c      2f20           move.l -(a0), -(a7)
  < 0x0065068e      51c8fffc       dbra d0, 0x65068c
      0x00650692      2051           movea.l (a1), a0
      0x00650694      4850           pea.l (a0)
      0x00650696      1f06           move.b d6, -(a7)
  < 0x00650698      60e0           bra.b 0x65067a
      0x0065069a      554f           subq.w 0x2, a7
      0x0065069c      204a           movea.l a2, a0
      0x0065069e      7014           moveq 0x14, d0
  > 0x006506a0      2f20           move.l -(a0), -(a7)
  < 0x006506a2      51c8fffc       dbra d0, 0x6506a0
      0x006506a6      2051           movea.l (a1), a0
      0x006506a8      4850           pea.l (a0)
      0x006506aa      4ebaf632       jsr K91_LIBOPS.save_colour_cur(pc)
  < 0x006506ae      6000fe96       bra.w 0x650546
      0x006506b2      554f           subq.w 0x2, a7
      0x006506b4      204a           movea.l a2, a0
      0x006506b6      7014           moveq 0x14, d0
  > 0x006506b8      2f20           move.l -(a0), -(a7)
  < 0x006506ba      51c8fffc       dbra d0, 0x6506b8
      0x006506be      2051           movea.l (a1), a0
      0x006506c0      4850           pea.l (a0)
      0x006506c2      4ebaf6cc       jsr K91_LIBOPS.save_scanner(pc)
  < 0x006506c6      6000fe7e       bra.w 0x650546
      0x006506ca      554f           subq.w 0x2, a7
      0x006506cc      204a           movea.l a2, a0
      0x006506ce      7014           moveq 0x14, d0
  > 0x006506d0      2f20           move.l -(a0), -(a7)
  < 0x006506d2      51c8fffc       dbra d0, 0x6506d0
      0x006506d6      2051           movea.l (a1), a0
      0x006506d8      4850           pea.l (a0)
      0x006506da      4eb9005b7d96   jsr HENRY_DUMMY.save_blender_se
  < 0x006506e0      6000fe64       bra.w 0x650546
      0x006506e4      554f           subq.w 0x2, a7
      0x006506e6      486e000e       pea.l 0xe(a6)
      0x006506ea      2051           movea.l (a1), a0
      0x006506ec      4850           pea.l (a0)
      0x006506ee      4ebaf76a       jsr K91_LIBOPS.save_effects_se(pc)
  < 0x006506f2      6000feba       bra.w 0x6505ae
      0x006506f6      38bacab4       move.w 0x64d1ac(pc), (a4)
  < 0x006506fa      6044           bra.b loc.00650740
     0x006506fc      554f           subq.w 0x2, a7
     0x006506fe      2051           movea.l (a1), a0
     0x00650700      4850           pea.l (a0)
     0x00650702      486e000e       pea.l 0xe(a6)
     0x00650706      4eb900707ffc   jsr GORDON_DUMMY.save_audio
  < 0x0065070c      6000fea0       bra.w 0x6505ae
      0x00650710      554f           subq.w 0x2, a7
      0x00650712      204a           movea.l a2, a0
      0x00650714      7014           moveq 0x14, d0
  > 0x00650716      2f20           move.l -(a0), -(a7)
  < 0x00650718      51c8fffc       dbra d0, 0x650716
      0x0065071c      2051           movea.l (a1), a0
      0x0065071e      4850           pea.l (a0)
      0x00650720      4ebaf8f0       jsr K91_LIBOPS.save_macro(pc)
  < 0x00650724      6000fe20       bra.w 0x650546
       0x00650728      554f           subq.w 0x2, a7
       0x0065072a      204a           movea.l a2, a0
       0x0065072c      7014           moveq 0x14, d0
   > 0x0065072e      2f20           move.l -(a0), -(a7)
   < 0x00650730      51c8fffc       dbra d0, 0x65072e
       0x00650734      2051           movea.l (a1), a0
       0x00650736      4850           pea.l (a0)
       0x00650738      4ebafa34       jsr K91_LIBOPS.save_kbd_map(pc)
   < 0x0065073c      6000fe08       bra.w 0x650546
        ; CODE XREF from K91_LIBOPS.k91_save @ 0x650432
        ; CODE XREF from K91_LIBOPS @ +0x3d10
 14: loc.00650740 ();
 > 0x00650740      584f           addq.w 0x4, a7
          0x00650742      3d540064       move.w (a4), 0x64(a6)
          0x00650746      4cdf1fff       movem.l (a7)+, d0-d7/a0-a4
          0x0065074a      4e5e           unlk a6
          0x0065074c      4e75           rts
 60: K91_LIBOPS.report ();
          0x0065074e      4e56fef0       link.w a6, 0xfef0
          0x00650752      bfd5           cmpa.l (a5), a7
      < 0x00650754      6206           bhi.b 0x65075c
         0x00650756      44fc0002       move.w 0x2, ccr
         0x0065075a      4e76           trapv
      > 0x0065075c      defc0110       adda.w 0x110, a7
          0x00650760      48e780c0       movem.l d0/a0-a1, -(a7)
          0x00650764      206e0008       movea.l 0x8(a6), a0
          0x00650768      9efc0100       suba.w 0x100, a7
          0x0065076c      224f           movea.l a7, a1
          0x0065076e      303c00ff       move.w 0xff, d0
      > 0x00650772      12d8           move.b (a0)+, (a1)+
      < 0x00650774      51c8fffc       dbra d0, 0x650772
          0x00650778      4eb90048e764   jsr MENUINITCOM.report_countdow
          0x0065077e      defc0100       adda.w 0x100, a7
          0x00650782      4cdf0301       movem.l (a7)+, d0/a0-a1
          0x00650786      4e5e           unlk a6
          0x00650788      4e75           rts
 58: K91_LIBOPS.defeat_optimise ();
          0x0065078a      4e56fff4       link.w a6, 0xfff4
          0x0065078e      bfd5           cmpa.l (a5), a7
      < 0x00650790      6206           bhi.b 0x650798
         0x00650792      44fc0002       move.w 0x2, ccr
         0x00650796      4e76           trapv
      > 0x00650798      defc000c       adda.w 0xc, a7
          0x0065079c      48e78080       movem.l d0/a0, -(a7)
          0x006507a0      102c0004       move.b 0x4(a4), d0
          0x006507a4      b03aca09       cmp.b 0x64d1af(pc), d0
      < 0x006507a8      6608           bne.b 0x6507b2
         0x006507aa      102c0005       move.b 0x5(a4), d0
         0x006507ae      b03aca00       cmp.b 0x64d1b0(pc), d0
      > 0x006507b2      4a2c0104       tst.b 0x104(a4)
          0x006507b6      2054           movea.l (a4), a0
          0x006507b8      b0fc0001       cmpa.w 0x1, a0
          0x006507bc      4cdf0101       movem.l (a7)+, d0/a0
          0x006507c0      4e5e           unlk a6
          0x006507c2      4e75           rts
 570: K91_LIBOPS.k91_mail ();
          ; var int32_t var_364ah @ a6-0x364a
          ; var int32_t var_363eh @ a6-0x363e
          ; var int32_t var_3639h @ a6-0x3639
          0x006507c4      4e56fd42       link.w a6, 0xfd42
          0x006507c8      bfd5           cmpa.l (a5), a7
      < 0x006507ca      6206           bhi.b 0x6507d2
         0x006507cc      44fc0002       move.w 0x2, ccr
         0x006507d0      4e76           trapv
      > 0x006507d2      defc0090       adda.w 0x90, a7
          0x006507d6      48e7fff0       movem.l d0-d7/a0-a3, -(a7)
          0x006507da      47eefdd6       lea.l -0x22a(a6), a3
          0x006507de      7810           moveq 0x10, d4
          0x006507e0      7a02           moveq 0x2, d5
          0x006507e2      7c50           moveq 0x50, d6
          0x006507e4      7e58           moveq 0x58, d7
          0x006507e6      206e0008       movea.l 0x8(a6), a0
          0x006507ea      10bac9c5       move.b 0x64d1b1(pc), (a0)
          0x006507ee      102e0012       move.b 0x12(a6), d0
          0x006507f2      4880           ext.w d0
          0x006507f4      43fac9bc       lea.l 0x64d1b2(pc), a1
          0x006507f8      3200           move.w d0, d1
          0x006507fa      e649           lsr.w 0x3, d1
          0x006507fc      01311000       btst.l d0, (a1, d1.w)
      < 0x00650800      670001e8       beq.w 0x6509ea
         0x00650804      16bac9b9       move.b 0x64d1bf(pc), (a3)
         0x00650808      1d7ac9b6fdd7   move.b 0x64d1c0(pc), -0x229(a6)
         0x0065080e      554f           subq.w 0x2, a7
         0x00650810      486efdda       pea.l -0x226(a6)
         0x00650814      4eb900404434   jsr fcn.00404434
         0x0065081a      584f           addq.w 0x4, a7
         0x0065081c      4a1f           tst.b (a7)+
     < 0x0065081e      67000198       beq.w 0x6509b8
        0x00650822      226e000c       movea.l 0xc(a6), a1
        0x00650826      4851           pea.l (a1)
        0x00650828      486eff0c       pea.l -0xf4(a6)
        0x0065082c      486eff16       pea.l -0xea(a6)
        0x00650830      4853           pea.l (a3)
        0x00650832      4eb900598736   jsr K0_DISKMGR.k_gen_fid
        0x00650838      dec4           adda.w d4, a7
        0x0065083a      3013           move.w (a3), d0
        0x0065083c      b07ac984       cmp.w 0x64d1c2(pc), d0
    < 0x00650840      670c           beq.b 0x65084e
       0x00650842      486efdda       pea.l -0x226(a6)
       0x00650846      4eb900404468   jsr fcn.00404468
       0x0065084c      584f           addq.w 0x4, a7
    > 0x0065084e      554f           subq.w 0x2, a7
        0x00650850      4851           pea.l (a1)
        0x00650852      486efed8       pea.l -0x128(a6)
        0x00650856      4eb9005a19a6   jsr K04_FILEROPS.k_get_number
        0x0065085c      504f           addq.w 0x8, a7
        0x0065085e      369f           move.w (a7)+, (a3)
        0x00650860      1013           move.b (a3), d0
        0x00650862      b03ac961       cmp.b 0x64d1c5(pc), d0
    < 0x00650866      6608           bne.b 0x650870
       0x00650868      102efdd7       move.b -0x229(a6), d0
       0x0065086c      b03ac958       cmp.b 0x64d1c6(pc), d0
   > 0x00650870      670c           beq.b 0x65087e
       0x00650872      486efdda       pea.l -0x226(a6)
       0x00650876      4eb900404468   jsr fcn.00404468
       0x0065087c      584f           addq.w 0x4, a7
   > 0x0065087e      3f2efed8       move.w -0x128(a6), -(a7)
        0x00650882      3f39008487ca   move.w 0x8487ca, -(a7)
        0x00650888      1f3c0001       move.b 0x1, -(a7)
        0x0065088c      486efeda       pea.l -0x126(a6)
        0x00650890      486efffe       pea.l -0x2(a6)
        0x00650894      4eb90048e12e   jsr MENU2COM.calc_dest_num
        0x0065089a      504f           addq.w 0x8, a7
        0x0065089c      2eaeff12       move.l -0xee(a6), (a7)
        0x006508a0      2f2eff0e       move.l -0xf2(a6), -(a7)
        0x006508a4      3f2eff0c       move.w -0xf4(a6), -(a7)
        0x006508a8      3f2efeda       move.w -0x126(a6), -(a7)
        0x006508ac      102efffe       move.b -0x2(a6), d0
        0x006508b0      4880           ext.w d0
        0x006508b2      4185           chk.w d5, d0
        0x006508b4      1f00           move.b d0, -(a7)
        0x006508b6      4227           clr.b -(a7)
        0x006508b8      4eb9004f8422   jsr MAIL_QUEUE.add_to_mail_que
        0x006508be      dec4           adda.w d4, a7
        0x006508c0      4a1f           tst.b (a7)+
    < 0x006508c2      6610           bne.b 0x6508d4
       0x006508c4      36bac902       move.w 0x64d1c8(pc), (a3)
       0x006508c8      486efdda       pea.l -0x226(a6)
       0x006508cc      4eb900404468   jsr fcn.00404468
       0x006508d2      584f           addq.w 0x4, a7
    > 0x006508d4      4280           clr.l d0
        0x006508d6      302efeda       move.w -0x126(a6), d0
        0x006508da      0c800000ffff   cmpi.l 0xffff, d0
    < 0x006508e0      6610           bne.b 0x6508f2
       0x006508e2      2248           movea.l a0, a1
       0x006508e4      45fac8f9       lea.l 0x64d1df(pc), a2
       0x006508e8      7205           moveq 0x5, d1
   > 0x006508ea      12da           move.b (a2)+, (a1)+
   < 0x006508ec      51c9fffc       dbra d1, 0x6508ea
   < 0x006508f0      6064           bra.b 0x650956
   > 0x006508f2      2f00           move.l d0, -(a7)
       0x006508f4      48780004       pea.l 0x4
       0x006508f8      4850           pea.l (a0)
       0x006508fa      3f06           move.w d6, -(a7)
       0x006508fc      4eb900406e56   jsr p_strI1
       0x00650902      defc000e       adda.w 0xe, a7
       0x00650906      4a2efffe       tst.b -0x2(a6)
   < 0x0065090a      6622           bne.b 0x65092e
      0x0065090c      4241           clr.w d1
      0x0065090e      1210           move.b (a0), d1
      0x00650910      43f01001       lea.l 0x1(a0, d1.w), a1
      0x00650914      7401           moveq 0x1, d2
      0x00650916      7650           moveq 0x50, d3
      0x00650918      9641           sub.w d1, d3
      0x0065091a      b443           cmp.w d3, d2
  < 0x0065091c      6302           bls.b 0x650920
     0x0065091e      3403           move.w d3, d2
  > 0x00650920      d510           add.b d2, (a0)
      0x00650922      45fac8c2       lea.l 0x64d1e6(pc), a2
  > 0x00650926      12da           move.b (a2)+, (a1)+
  < 0x00650928      51cafffc       dbra d2, 0x650926
  < 0x0065092c      6028           bra.b 0x650956
  > 0x0065092e      122efffe       move.b -0x2(a6), d1
      0x00650932      b205           cmp.b d5, d1
  < 0x00650934      6620           bne.b 0x650956
     0x00650936      4241           clr.w d1
     0x00650938      1210           move.b (a0), d1
     0x0065093a      43f01001       lea.l 0x1(a0, d1.w), a1
     0x0065093e      7401           moveq 0x1, d2
     0x00650940      7650           moveq 0x50, d3
     0x00650942      9641           sub.w d1, d3
     0x00650944      b443           cmp.w d3, d2
 < 0x00650946      6302           bls.b 0x65094a
    0x00650948      3403           move.w d3, d2
 > 0x0065094a      d510           add.b d2, (a0)
     0x0065094c      45fac89a       lea.l 0x64d1e8(pc), a2
 > 0x00650950      12da           move.b (a2)+, (a1)+
 < 0x00650952      51cafffc       dbra d2, 0x650950
  > 0x00650956      9ec7           suba.w d7, a7
        0x00650958      7005           moveq 0x5, d0
        0x0065095a      43ef0001       lea.l 0x1(a7), a1
        0x0065095e      45fac88a       lea.l 0x64d1ea(pc), a2
    > 0x00650962      12da           move.b (a2)+, (a1)+
    < 0x00650964      51c8fffc       dbra d0, 0x650962
        0x00650968      4240           clr.w d0
        0x0065096a      1010           move.b (a0), d0
        0x0065096c      7256           moveq 0x56, d1
        0x0065096e      5d41           subq.w 0x6, d1
        0x00650970      b041           cmp.w d1, d0
    < 0x00650972      6302           bls.b 0x650976
       0x00650974      3001           move.w d1, d0
    > 0x00650976      1ebc0006       move.b 0x6, (a7)
        0x0065097a      d117           add.b d0, (a7)
        0x0065097c      5300           subq.b 0x1, d0
    < 0x0065097e      650a           bcs.b 0x65098a
       0x00650980      45e80001       lea.l 0x1(a0), a2
   > 0x00650984      12da           move.b (a2)+, (a1)+
   < 0x00650986      51c8fffc       dbra d0, 0x650984
    > 0x0065098a      4240           clr.w d0
        0x0065098c      1017           move.b (a7), d0
        0x0065098e      b006           cmp.b d6, d0
    < 0x00650990      6302           bls.b 0x650994
       0x00650992      7050           moveq 0x50, d0
    > 0x00650994      1080           move.b d0, (a0)
        0x00650996      5300           subq.b 0x1, d0
    < 0x00650998      650e           bcs.b 0x6509a8
       0x0065099a      43e80001       lea.l 0x1(a0), a1
       0x0065099e      45ef0001       lea.l 0x1(a7), a2
   > 0x006509a2      12da           move.b (a2)+, (a1)+
   < 0x006509a4      51c8fffc       dbra d0, 0x6509a2
    > 0x006509a8      dec7           adda.w d7, a7
        0x006509aa      4878000a       pea.l 0xa
        0x006509ae      4eb900402e42   jsr p_Delay
        0x006509b4      584f           addq.w 0x4, a7
    < 0x006509b6      602c           bra.b 0x6509e4
    > 0x006509b8      487ac837       pea.l 0x64d1f1(pc)
        0x006509bc      4878000f       pea.l 0xf
        0x006509c0      2f17           move.l (a7), -(a7)
        0x006509c2      4eb9004047ea   jsr p_wts_o
        0x006509c8      defc000c       adda.w 0xc, a7
        0x006509cc      4853           pea.l (a3)
        0x006509ce      48780002       pea.l 0x2
        0x006509d2      2f17           move.l (a7), -(a7)
        0x006509d4      4eb9004047ea   jsr p_wts_o
        0x006509da      defc000c       adda.w 0xc, a7
        0x006509de      4eb900404946   jsr p_wtln_o
    > 0x006509e4      3d530014       move.w (a3), 0x14(a6)
     < 0x006509e8      600c           bra.b 0x6509f6
     > 0x006509ea      1d7ac9c70014   move.b 0x64d3b3(pc), 0x14(a6)
         0x006509f0      1d7ac9c20015   move.b 0x64d3b4(pc), 0x15(a6)
     > 0x006509f6      4cdf0fff       movem.l (a7)+, d0-d7/a0-a3
          0x006509fa      4e5e           unlk a6
          0x006509fc      4e75           rts
           ; CALL XREFS from K9_LIBRARY.k9_act @ 0x646b28, 0x646dd6
 46: K91_LIBOPS.k91_set_print ();
          0x006509fe      4e56ffe8       link.w a6, 0xffe8
          0x00650a02      bfd5           cmpa.l (a5), a7
      < 0x00650a04      6206           bhi.b 0x650a0c
         0x00650a06      44fc0002       move.w 0x2, ccr
         0x00650a0a      4e76           trapv
      > 0x00650a0c      defc0016       adda.w 0x16, a7
          0x00650a10      48e7c100       movem.l d0-d1/d7, -(a7)
          0x00650a14      7203           moveq 0x3, d1
          0x00650a16      102e0008       move.b 0x8(a6), d0
          0x00650a1a      4880           ext.w d0
          0x00650a1c      b041           cmp.w d1, d0
      < 0x00650a1e      6302           bls.b 0x650a22
         0x00650a20      4e4e           trap 0xe
      > 0x00650a22      d040           add.w d0, d0
          0x00650a24      303b0006       move.w 0x650a2c(pc, d0.w), d0
          0x00650a28      4efb0002       jmp 0x650a2c(pc, d0.w)
           0x00650a2c      0008000c       
           0x00650a2d      08000c00       
           0x00650a2e      000c0010       
           0x00650a2f      0c001000       cmpi.b 0x0, d0
           0x00650a33      147e0060       
           0x00650a34      7e00           moveq 0x0, d7
       < 0x00650a36      600a           bra.b 0x650a42
          0x00650a38      7e01           moveq 0x1, d7
      < 0x00650a3a      6006           bra.b 0x650a42
         0x00650a3c      7e02           moveq 0x2, d7
     < 0x00650a3e      6002           bra.b 0x650a42
        0x00650a40      7e03           moveq 0x3, d7
     > 0x00650a42      4a2e000c       tst.b 0xc(a6)
       < 0x00650a46      6714           beq.b 0x650a5c
          0x00650a48      554f           subq.w 0x2, a7
          0x00650a4a      1f2e000a       move.b 0xa(a6), -(a7)
          0x00650a4e      4887           ext.w d7
          0x00650a50      4f81           chk.w d1, d7
          0x00650a52      1f07           move.b d7, -(a7)
          0x00650a54      4eb90065b3c2   jsr K93_PRINTSORT.k93_start_print
      < 0x00650a5a      6012           bra.b 0x650a6e
      > 0x00650a5c      554f           subq.w 0x2, a7
          0x00650a5e      1f2e000a       move.b 0xa(a6), -(a7)
          0x00650a62      4887           ext.w d7
          0x00650a64      4f81           chk.w d1, d7
          0x00650a66      1f07           move.b d7, -(a7)
          0x00650a68      4eb90065d81a   jsr K93_PRINTSORT.k93_end_print
      > 0x00650a6e      584f           addq.w 0x4, a7
           0x00650a70      101f           move.b (a7)+, d0
           0x00650a72      4880           ext.w d0
           0x00650a74      41bc0001       chk.w 0x1, d0
           0x00650a78      1d40000e       move.b d0, 0xe(a6)
           0x00650a7c      4cdf0083       movem.l (a7)+, d0-d1/d7
           0x00650a80      4e5e           unlk a6
           0x00650a82      4e75           rts
 46: K91_LIBOPS.k91_print ();
          0x00650a84      4e56ffda       link.w a6, 0xffda
          0x00650a88      bfd5           cmpa.l (a5), a7
      < 0x00650a8a      6206           bhi.b 0x650a92
         0x00650a8c      44fc0002       move.w 0x2, ccr
         0x00650a90      4e76           trapv
      > 0x00650a92      defc0024       adda.w 0x24, a7
          0x00650a96      48e7c100       movem.l d0-d1/d7, -(a7)
          0x00650a9a      7203           moveq 0x3, d1
          0x00650a9c      102e0008       move.b 0x8(a6), d0
          0x00650aa0      4880           ext.w d0
          0x00650aa2      b041           cmp.w d1, d0
      < 0x00650aa4      6302           bls.b 0x650aa8
         0x00650aa6      4e4e           trap 0xe
      > 0x00650aa8      d040           add.w d0, d0
          0x00650aaa      303b0006       move.w 0x650ab2(pc, d0.w), d0
          0x00650aae      4efb0002       jmp 0x650ab2(pc, d0.w)
           0x00650ab2      0008000c       
           0x00650ab3      08000c00       
           0x00650ab4      000c0010       
           0x00650ab5      0c001000       cmpi.b 0x0, d0
           0x00650ab9      147e0060       
           0x00650aba      7e00           moveq 0x0, d7
       < 0x00650abc      600a           bra.b 0x650ac8
          0x00650abe      7e01           moveq 0x1, d7
      < 0x00650ac0      6006           bra.b 0x650ac8
         0x00650ac2      7e02           moveq 0x2, d7
     < 0x00650ac4      6002           bra.b 0x650ac8
        0x00650ac6      7e03           moveq 0x3, d7
     > 0x00650ac8      554f           subq.w 0x2, a7
           0x00650aca      2f2e0016       move.l 0x16(a6), -(a7)
           0x00650ace      2f2e0012       move.l 0x12(a6), -(a7)
           0x00650ad2      3f2e0010       move.w 0x10(a6), -(a7)
           0x00650ad6      2f2e000c       move.l 0xc(a6), -(a7)
           0x00650ada      1f2e000a       move.b 0xa(a6), -(a7)
           0x00650ade      4887           ext.w d7
           0x00650ae0      4f81           chk.w d1, d7
           0x00650ae2      1f07           move.b d7, -(a7)
           0x00650ae4      4eb90065cb76   jsr K93_PRINTSORT.k93_print_item
           0x00650aea      defc0012       adda.w 0x12, a7
           0x00650aee      101f           move.b (a7)+, d0
           0x00650af0      4880           ext.w d0
           0x00650af2      41bc0001       chk.w 0x1, d0
           0x00650af6      1d40001a       move.b d0, 0x1a(a6)
           0x00650afa      4cdf0083       movem.l (a7)+, d0-d1/d7
           0x00650afe      4e5e           unlk a6
           0x00650b00      4e75           rts
           ; CALL XREF from K9_LIBRARY.k9_in_grid_offs @ 0x64bf8c
 50: K91_LIBOPS.k91_set_in_grid ();
          0x00650b02      4e56fff4       link.w a6, 0xfff4
          0x00650b06      bfd5           cmpa.l (a5), a7
      < 0x00650b08      6206           bhi.b 0x650b10
         0x00650b0a      44fc0002       move.w 0x2, ccr
         0x00650b0e      4e76           trapv
      > 0x00650b10      defc000c       adda.w 0xc, a7
          0x00650b14      48e70080       movem.l a0, -(a7)
          0x00650b18      41f9008486c0   lea.l 0x8486c0, a0
          0x00650b1e      20ae0008       move.l 0x8(a6), (a0)
          0x00650b22      2f10           move.l (a0), -(a7)
          0x00650b24      4eb9005a9052   jsr K05_LOADSAVE.k_pos_in_grid
          0x00650b2a      584f           addq.w 0x4, a7
          0x00650b2c      4cdf0100       movem.l (a7)+, a0
          0x00650b30      4e5e           unlk a6
          0x00650b32      4e75           rts
           ; CALL XREF from K9_LIBRARY.k9_fetch_grid_w @ 0x64bfd4
 38: K91_LIBOPS.k91_fetch_grid_ ();
          0x00650b34      4e56fffc       link.w a6, 0xfffc
          0x00650b38      bfd5           cmpa.l (a5), a7
      < 0x00650b3a      6206           bhi.b 0x650b42
         0x00650b3c      44fc0002       move.w 0x2, ccr
         0x00650b40      4e76           trapv
      > 0x00650b42      defc0004       adda.w 0x4, a7
          0x00650b46      13ee00080084.  move.b 0x8(a6), 0x8486be.l
          0x00650b4e      23fac8660084.  move.l 0x64d3b6(pc), 0x8486c0.l
          0x00650b56      4e5e           unlk a6
          0x00650b58      4e75           rts
           ; CALL XREFS from MENULIBFNDCOM.hit_action_sele @ 0x758dea, 0x758e18
 30: K91_LIBOPS.k9_use_number_b ();
          0x00650b5a      4e56fffc       link.w a6, 0xfffc
          0x00650b5e      bfd5           cmpa.l (a5), a7
      < 0x00650b60      6206           bhi.b 0x650b68
         0x00650b62      44fc0002       move.w 0x2, ccr
         0x00650b66      4e76           trapv
      > 0x00650b68      defc0004       adda.w 0x4, a7
          0x00650b6c      33ee00080084.  move.w 0x8(a6), 0x8487ca.l
          0x00650b74      4e5e           unlk a6
          0x00650b76      4e75           rts
           ; CALL XREF from K9_LIBRARY.k9_init @ 0x64c8f4
 126: K91_LIBOPS.k91_init ();
          0x00650b78      4e56fff0       link.w a6, 0xfff0
          0x00650b7c      bfd5           cmpa.l (a5), a7
      < 0x00650b7e      6206           bhi.b 0x650b86
         0x00650b80      44fc0002       move.w 0x2, ccr
         0x00650b84      4e76           trapv
      > 0x00650b86      defc0010       adda.w 0x10, a7
          0x00650b8a      48e70080       movem.l a0, -(a7)
          0x00650b8e      41f9005ab394   lea.l K05_LOADSAVE.k05_dtpb_set_ta, a0
          0x00650b94      4eb90065d946   jsr K93_PRINTSORT.k93_init
          0x00650b9a      514f           subq.w 0x8, a7
          0x00650b9c      4eb9006339f2   jsr HANDCOM.get_picture_are
          0x00650ba2      23df008486b6   move.l (a7)+, 0x8486b6
          0x00650ba8      23df008486ba   move.l (a7)+, 0x8486ba
          0x00650bae      23fac80a0084.  move.l 0x64d3ba(pc), 0x8486c0.l
          0x00650bb6      4227           clr.b -(a7)
          0x00650bb8      4e90           jsr (a0)                    ; fcn.00000009
          0x00650bba      1ebc0001       move.b 0x1, (a7)
          0x00650bbe      4e90           jsr (a0)                    ; fcn.00000009
          0x00650bc0      1ebc0002       move.b 0x2, (a7)
          0x00650bc4      4e90           jsr (a0)                    ; fcn.00000009
          0x00650bc6      1ebc0003       move.b 0x3, (a7)
          0x00650bca      4e90           jsr (a0)                    ; fcn.00000009
          0x00650bcc      544f           addq.w 0x2, a7
          0x00650bce      4239008486be   clr.b 0x8486be
          0x00650bd4      594f           subq.w 0x4, a7
          0x00650bd6      4eb9006336cc   jsr HANDCOM.get_hugeness_pt
          0x00650bdc      23df008486c4   move.l (a7)+, 0x8486c4
          0x00650be2      4239008487c8   clr.b 0x8487c8
          0x00650be8      4279008487ca   clr.w 0x8487ca
          0x00650bee      4cdf0100       movem.l (a7)+, a0
          0x00650bf2      4e5e           unlk a6
