            ;-- K9_LIBRARY:
            0x00641848      .byte 0x00
            0x00641849      .byte 0x88
            0x0064184a      .byte 0x00
            0x0064184b      .byte 0x46
            0x0064184c      .byte 0x00
            0x0064184d      .byte 0xd2
            0x0064184e      .byte 0x00
            0x0064184f      .byte 0x51
            0x00641850      .byte 0x00
            0x00641851      .byte 0x80
            0x00641852      .byte 0x00
            0x00641853      .byte 0x80
            0x00641854      .byte 0x00
            0x00641855      .byte 0x3c
            0x00641856      .byte 0x00
            0x00641857      .byte 0x80
            0x00641858      .byte 0x00
            0x00641859      .byte 0x80
            0x0064185a      .byte 0x00
            0x0064185b      .byte 0x32
            0x0064185c      .byte 0x00
            0x0064185d      .byte 0x80
            0x0064185e      .byte 0x00
            0x0064185f      .byte 0x80
            0x00641860      .byte 0x00
            0x00641861      .byte 0x10
            0x00641862      .byte 0x00
            0x00641863      .byte 0x80
            0x00641864      .byte 0x00
            0x00641865      .byte 0x80
            0x00641866      .byte 0x00
            0x00641867      .byte 0xa7
            0x00641868      .byte 0x00
            0x00641869      .byte 0x72
            0x0064186a      .byte 0x00
            0x0064186b      .byte 0x9e
            0x0064186c      .byte 0x00
            0x0064186d      .byte 0xbf
            0x0064186e      .byte 0x00
            0x0064186f      .byte 0x80
            0x00641870      .byte 0x00
            0x00641871      .byte 0x80
            0x00641872      .byte 0x00
            0x00641873      .byte 0xa0
            0x00641874      .byte 0x00
            0x00641875      .byte 0x96
            0x00641876      .byte 0x00
            0x00641877      .byte 0x74
            0x00641878      .byte 0x00
            0x00641879      .byte 0x23
            0x0064187a      .byte 0x00
            0x0064187b      .byte 0xf0
            0x0064187c      .byte 0x00
            0x0064187d      .byte 0x6e
            0x0064187e      .byte 0x00
            0x0064187f      .byte 0x8c
            0x00641880      .byte 0x00
            0x00641881      .byte 0x6e
            0x00641882      .byte 0x00
            0x00641883      .byte 0x6e
            0x00641884      .byte 0x00
            0x00641885      .byte 0xc4
            0x00641886      .byte 0x00
            0x00641887      .byte 0x31
            0x00641888      .byte 0x00
            0x00641889      .byte 0x8c
            0x0064188a      .byte 0x00
            0x0064188b      .byte 0xa8
            0x0064188c      .byte 0x00
            0x0064188d      .byte 0x28
            0x0064188e      .byte 0x00
            0x0064188f      .byte 0xb1
            0x00641890      .byte 0x00
            0x00641891      .byte 0x00
            0x00641892      .byte 0x00
            0x00641893      .byte 0x80
            0x00641894      .byte 0x00
            0x00641895      .byte 0x80
            0x00641896      .byte 0x00
            0x00641897      .byte 0xff
            0x00641898      .byte 0x00
            0x00641899      .byte 0x80
            0x0064189a      .byte 0x00
            0x0064189b      .byte 0x80
            0x0064189c      .byte 0x00
            0x0064189d      .byte 0xcc
            0x0064189e      .byte 0x00
            0x0064189f      .byte 0x80
            0x006418a0      .byte 0x00
            0x006418a1      .byte 0x80
            0x006418a2      .byte 0x00
            0x006418a3      .byte 0xad
            0x006418a4      .byte 0x00
            0x006418a5      .byte 0x80
            0x006418a6      .byte 0x00
            0x006418a7      .byte 0x80
            0x006418a8      .byte 0x00
            0x006418a9      .byte 0xeb
            0x006418aa      .byte 0x00
            0x006418ab      .byte 0x80
            0x006418ac      .byte 0x00
            0x006418ad      .byte 0x80
            0x006418ae      .byte 0x00
            0x006418af      .byte 0x10
            0x006418b0      .byte 0x00
            0x006418b1      .byte 0x80
            0x006418b2      .byte 0x00
            0x006418b3      .byte 0x80
            0x006418b4      .byte 0x00
            0x006418b5      .byte 0x80
            0x006418b6      .byte 0x00
            0x006418b7      .byte 0x80
            0x006418b8      .byte 0x00
            0x006418b9      .byte 0x80
            0x006418ba      .byte 0x00
            0x006418bb      .byte 0x51
            0x006418bc      .byte 0x00
            0x006418bd      .byte 0x5a
            0x006418be      .byte 0x00
            0x006418bf      .byte 0xf0
            0x006418c0      .byte 0x00
            0x006418c1      .byte 0xd2
            0x006418c2      .byte 0x00
            0x006418c3      .byte 0x10
            0x006418c4      .byte 0x00
            0x006418c5      .byte 0x92
            0x006418c6      .byte 0x00
            0x006418c7      .byte 0x29
            0x006418c8      .byte 0x00
            0x006418c9      .byte 0xf0
            0x006418ca      .byte 0x00
            0x006418cb      .byte 0x6e
            0x006418cc      .byte 0x00
            0x006418cd      .byte 0x91
            0x006418ce      .byte 0x00
            0x006418cf      .byte 0x36
            0x006418d0      .byte 0x00
            0x006418d1      .byte 0x22
            0x006418d2      .byte 0x00
            0x006418d3      .byte 0xa2
            0x006418d4      .byte 0x00
            0x006418d5      .byte 0x2c
            0x006418d6      .byte 0x00
            0x006418d7      .byte 0x8e
            0x006418d8      .byte 0x00
            0x006418d9      .byte 0x83
            0x006418da      .byte 0x00
            0x006418db      .byte 0x9c
            0x006418dc      .byte 0x00
            0x006418dd      .byte 0x2c
            0x006418de      .byte 0x00
            0x006418df      .byte 0x70
            0x006418e0      .byte 0x00
            0x006418e1      .byte 0x48
            0x006418e2      .byte 0x00
            0x006418e3      .byte 0x3a
            0x006418e4      .byte 0x00
            0x006418e5      .byte 0x54
            0x006418e6      .byte 0x00
            0x006418e7      .byte 0xb8
            0x006418e8      .byte 0x00
            0x006418e9      .byte 0xc6
            0x006418ea      .byte 0x00
            0x006418eb      .byte 0x41
            0x006418ec      .byte 0x00
            0x006418ed      .byte 0x64
            0x006418ee      .byte 0x00
            0x006418ef      .byte 0xd4
            0x006418f0      .byte 0x00
            0x006418f1      .byte 0x23
            0x006418f2      .byte 0x00
            0x006418f3      .byte 0xd4
            0x006418f4      .byte 0x00
            0x006418f5      .byte 0x72
            0x006418f6      .byte 0x00
            0x006418f7      .byte 0xd2
            0x006418f8      .byte 0x00
            0x006418f9      .byte 0x10
            0x006418fa      .byte 0x00
            0x006418fb      .byte 0x92
            0x006418fc      .byte 0x00
            0x006418fd      .byte 0xaa
            0x006418fe      .byte 0x00
            0x006418ff      .byte 0xa6
            0x00641900      .byte 0x00
            0x00641901      .byte 0x10
            0x00641902      .byte 0x00
            0x00641903      .byte 0x91
            0x00641904      .byte 0x00
            0x00641905      .byte 0x36
            0x00641906      .byte 0x00
            0x00641907      .byte 0x22
            0x00641908      .byte 0x00
            0x00641909      .byte 0x6a
            0x0064190a      .byte 0x00
            0x0064190b      .byte 0xca
            0x0064190c      .byte 0x00
            0x0064190d      .byte 0xde
            0x0064190e      .byte 0x00
            0x0064190f      .byte 0x51
            0x00641910      .byte 0x00
            0x00641911      .byte 0x5a
            0x00641912      .byte 0x00
            0x00641913      .byte 0xf0
            0x00641914      .byte 0x00
            0x00641915      .byte 0x29
            0x00641916      .byte 0x00
            0x00641917      .byte 0xf0
            0x00641918      .byte 0x00
            0x00641919      .byte 0x6e
            0x0064191a      .byte 0x02
            0x0064191b      .byte 0xc7
            0x0064191c      .byte 0x01
            0x0064191d      .byte 0xe5
            0x0064191e      .byte 0x03
            0x0064191f      .byte 0x00
            0x00641920      .byte 0x01
            0x00641921      .byte 0xe4
            0x00641922      .byte 0x02
            0x00641923      .byte 0xbd
            0x00641924      .byte 0x02
            0x00641925      .byte 0x3f
            0x00641926      .byte 0x00
            0x00641927      .byte 0x2a
            0x00641928      .byte 0x01
            0x00641929      .byte 0x00
            0x0064192a      .byte 0x00
            0x0064192b      .byte 0x36
            0x0064192c      .byte 0x01
            0x0064192d      .byte 0x00
            0x0064192e      .byte 0x00
            0x0064192f      .byte 0x1d
            0x00641930      .byte 0x02
            0x00641931      .byte 0x00
            0x00641932      .byte 0x00
            0x00641933      .byte 0x00
            0x00641934      .byte 0x00
            0x00641935      .byte 0x00
            0x00641936      .byte 0x00
            0x00641937      .byte 0x00
            0x00641938      .byte 0x00
            0x00641939      .byte 0x00
            0x0064193a      .byte 0x00
            0x0064193b      .byte 0x00
            0x0064193c      .byte 0x3f
            0x0064193d      .byte 0x80
            0x0064193e      .byte 0x00
            0x0064193f      .byte 0x00
            0x00641940      .byte 0x3f
            0x00641941      .byte 0x80
            0x00641942      .byte 0x00
            0x00641943      .byte 0x00
            0x00641944      .byte 0x00
            0x00641945      .byte 0x00
            0x00641946      .byte 0x00
            0x00641947      .byte 0x00
            0x00641948      .byte 0x00
            0x00641949      .byte 0x00
            0x0064194a      .byte 0x00
            0x0064194b      .byte 0x00
            0x0064194c      .byte 0x00
            0x0064194d      .byte 0x00
            0x0064194e      .byte 0x00
            0x0064194f      .byte 0x00
            0x00641950      .byte 0x00
            0x00641951      .byte 0x00
            0x00641952      .byte 0x00
            0x00641953      .byte 0x00
            0x00641954      .byte 0x00
            0x00641955      .byte 0x00
            0x00641956      .byte 0x00
            0x00641957      .byte 0x02
            0x00641958      .byte 0x00
            0x00641959      .byte 0x00
            0x0064195a      .byte 0x3f
            0x0064195b      .byte 0x80
            0x0064195c      .byte 0x00
            0x0064195d      .byte 0x00
            0x0064195e      .byte 0x3f
            0x0064195f      .byte 0x80
            0x00641960      .byte 0x00
            0x00641961      .byte 0x00
            0x00641962      .byte 0x00
            0x00641963      .byte 0x00
            0x00641964      .byte 0x00
            0x00641965      .byte 0x00
            0x00641966      .byte 0x00
            0x00641967      .byte 0x00
            0x00641968      .byte 0x00
            0x00641969      .byte 0x00
            0x0064196a      .byte 0x3f
            0x0064196b      .byte 0x80
            0x0064196c      .byte 0x00
            0x0064196d      .byte 0x00
            0x0064196e      .byte 0x3f
            0x0064196f      .byte 0x80
            0x00641970      .byte 0x00
            0x00641971      .byte 0x00
            0x00641972      .byte 0x00
            0x00641973      .byte 0x00
            0x00641974      .byte 0x00
            0x00641975      .byte 0x00
            0x00641976      .byte 0x00
            0x00641977      .byte 0x00
            0x00641978      .byte 0x00
            0x00641979      .byte 0x00
            0x0064197a      .byte 0x00
            0x0064197b      .byte 0x00
            0x0064197c      .byte 0x00
            0x0064197d      .byte 0x00
            0x0064197e      .byte 0x00
            0x0064197f      .byte 0x00
            0x00641980      .byte 0x00
            0x00641981      .byte 0x00
            0x00641982      .byte 0x00
            0x00641983      .byte 0x00
            0x00641984      .byte 0x00
            0x00641985      .byte 0x01
            0x00641986      .byte 0x00
            0x00641987      .byte 0x00
            0x00641988      .byte 0x00
            0x00641989      .byte 0x00
            0x0064198a      .byte 0x00
            0x0064198b      .byte 0x00
            0x0064198c      .byte 0x00
            0x0064198d      .byte 0x00
            0x0064198e      .byte 0x00
            0x0064198f      .byte 0x00
            0x00641990      .byte 0x00
            0x00641991      .byte 0x00
            0x00641992      .byte 0x00
            0x00641993      .byte 0x00
            0x00641994      .byte 0x00
            0x00641995      .byte 0x00
            0x00641996      .byte 0x00
            0x00641997      .byte 0x00
            0x00641998      .byte 0x09
            0x00641999     .string "$lib_save" ; len=9
            0x006419a2      .byte 0x07
            0x006419a3     .string "$search" ; len=7
            0x006419aa      .byte 0x05
            0x006419ab     .string "$keep" ; len=5
            0x006419b0      .byte 0x05
            0x006419b1     .string "$lose" ; len=5
            0x006419b6      .byte 0x07
            0x006419b7     .string "$recall" ; len=7
            0x006419be      .byte 0x01
            0x006419bf      .byte 0x50
            0x006419c0      .byte 0x00
            0x006419c1      .byte 0x0f
            0x006419c2     .string "show_header. n " ; len=15
            0x006419d1      .byte 0x08
            0x006419d2     .string ", start " ; len=8
            0x006419da      .byte 0x0c
            0x006419db     .string ", uncertain " ; len=12
            0x006419e7      .byte 0x0e
            0x006419e8     .string ", display_max " ; len=14
            0x006419f6      .byte 0x0e
            0x006419f7     .string ", header_str <" ; len=14
            0x00641a05      .byte 0x08
            0x00641a06     .string "At start" ; len=8
            0x00641a0e      .byte 0x06
            0x00641a0f     .string "At end" ; len=6
            0x00641a15      .byte 0x06
            0x00641a16     .string "At end" ; len=6
            0x00641a1c      .byte 0x03
            0x00641a1d      .byte 0x41
            0x00641a1e      .byte 0x74
            0x00641a1f      .byte 0x20
            0x00641a20      .byte 0x09
            0x00641a21     .string " from end" ; len=9
            0x00641a2a      .byte 0x00
            0x00641a2b      .byte 0x09
            0x00641a2c     .string "at least " ; len=9
            0x00641a35      .byte 0x03
            0x00641a36      .byte 0x20
            0x00641a37      .byte 0x6f
            0x00641a38      .byte 0x6e
            0x00641a39      .byte 0x09
            0x00641a3a     .string "Searching" ; len=9
            0x00641a43      .byte 0x11
            0x00641a44     .string "No files found on" ; len=17
            0x00641a55      .byte 0x04
            0x00641a56      .byte 0x20
            0x00641a57      .byte 0x6f
            0x00641a58      .byte 0x66
            0x00641a59      .byte 0x20
            0x00641a5a      .byte 0x00
            0x00641a5b      .byte 0x01
            0x00641a5c      .byte 0x20
            0x00641a5d      .byte 0x00
            0x00641a5e      .byte 0x01
            0x00641a5f      .byte 0x13
            0x00641a60      .byte 0x01
            0x00641a61      .byte 0x20
            0x00641a62      .byte 0x01
            0x00641a63      .byte 0x17
            0x00641a64      .byte 0x01
            0x00641a65      .byte 0x20
            0x00641a66      .byte 0x03
            0x00641a67      .byte 0x75
            0x00641a68      .byte 0x70
            0x00641a69      .byte 0x20
            0x00641a6a      .byte 0x04
            0x00641a6b      .byte 0x64
            0x00641a6c      .byte 0x6f
            0x00641a6d      .byte 0x77
            0x00641a6e      .byte 0x6e
            0x00641a6f      .byte 0x00
            0x00641a70      .byte 0xff
            0x00641a71      .byte 0xff
            0x00641a72      .byte 0xff
            0x00641a73      .byte 0xff
            0x00641a74      .byte 0xa2
            0x00641a75      .byte 0x80
            0x00641a76      .byte 0x05
            0x00641a77      .byte 0x00
            0x00641a78      .byte 0xa2
            0x00641a79      .byte 0x00
            0x00641a7a      .byte 0x00
            0x00641a7b      .byte 0x00
            0x00641a7c      .byte 0xbe
            0x00641a7d      .byte 0x82
            0x00641a7e      .byte 0x27
            0x00641a7f      .byte 0x00
            0x00641a80      .byte 0xbe
            0x00641a81      .byte 0xfb
            0x00641a82      .byte 0x3f
            0x00641a83      .byte 0x00
            0x00641a84      .byte 0x00
            0x00641a85      .byte 0x00
            0x00641a86      .byte 0x00
            0x00641a87      .byte 0x00
            0x00641a88      .byte 0x00
            0x00641a89      .byte 0x00
            0x00641a8a      .byte 0x00
            0x00641a8b      .byte 0x00
            0x00641a8c      .byte 0x00
            0x00641a8d      .byte 0x00
            0x00641a8e      .byte 0x00
            0x00641a8f      .byte 0x00
            0x00641a90      .byte 0x00
            0x00641a91      .byte 0x00
            0x00641a92      .byte 0x00
            0x00641a93      .byte 0x00
            0x00641a94      .byte 0x00
            0x00641a95      .byte 0x00
            0x00641a96      .byte 0x00
            0x00641a97      .byte 0x00
            0x00641a98      .byte 0x00
            0x00641a99      .byte 0x00
            0x00641a9a      .byte 0x00
            0x00641a9b      .byte 0x00
            0x00641a9c      .byte 0x00
            0x00641a9d      .byte 0x00
            0x00641a9e      .byte 0x00
            0x00641a9f      .byte 0x00
            0x00641aa0      .byte 0x00
            0x00641aa1      .byte 0x00
            0x00641aa2      .byte 0x00
            0x00641aa3      .byte 0x00
            0x00641aa4      .byte 0x00
            0x00641aa5      .byte 0x00
            0x00641aa6      .byte 0x20
            0x00641aa7      .byte 0x00
            0x00641aa8      .byte 0x06
            0x00641aa9     .string "none, " ; len=6
            0x00641aaf      .byte 0x07
            0x00641ab0     .string "title, " ; len=7
            0x00641ab7      .byte 0x06
            0x00641ab8     .string "cats, " ; len=6
            0x00641abe      .byte 0x07
            0x00641abf     .string "owner, " ; len=7
            0x00641ac6      .byte 0x06
            0x00641ac7     .string "time, " ; len=6
            0x00641acd      .byte 0x06
            0x00641ace     .string "type, " ; len=6
            0x00641ad4      .byte 0x08
            0x00641ad5     .string "volume, " ; len=8
            0x00641add      .byte 0x08
            0x00641ade     .string "number, " ; len=8
            0x00641ae6      .byte 0x06
            0x00641ae7     .string "desc, " ; len=6
            0x00641aed      .byte 0x08
            0x00641aee     .string "f_disk, " ; len=8
            0x00641af6      .byte 0x09
            0x00641af7     .string "prewipe, " ; len=9
            0x00641b00      .byte 0x08
            0x00641b01     .string "xtra_1, " ; len=8
            0x00641b09      .byte 0x08
            0x00641b0a     .string "xtra_2, " ; len=8
            0x00641b12      .byte 0x08
            0x00641b13     .string "xtra_3, " ; len=8
            0x00641b1b      .byte 0x08
            0x00641b1c     .string "xtra_4, " ; len=8
            0x00641b24      .byte 0x0d
            0x00641b25     .string "tv standard, " ; len=13
            0x00641b32      .byte 0x0d
            0x00641b33     .string "tape number, " ; len=13
            0x00641b40      .byte 0x0a
            0x00641b41     .string "start tc, " ; len=10
            0x00641b4b      .byte 0x08
            0x00641b4c     .string "frames, " ; len=8
            0x00641b54      .byte 0x08
            0x00641b55     .string "origin, " ; len=8
            0x00641b5d      .byte 0x0c
            0x00641b5e     .string "origin str, " ; len=12
            0x00641b6a      .byte 0x0b
            0x00641b6b     .string "image str, " ; len=11
            0x00641b76      .byte 0x04
            0x00641b77      .byte 0x69
            0x00641b78      .byte 0x6e
            0x00641b79      .byte 0x66
            0x00641b7a      .byte 0x6f
            0x00641b7b      .byte 0x14
            0x00641b7c     .string "make_file_info_entry" ; len=20
            0x00641b90      .byte 0x06
            0x00641b91     .string "req : " ; len=6
            0x00641b97      .byte 0x06
            0x00641b98     .string "got : " ; len=6
            0x00641b9e      .byte 0x06
            0x00641b9f     .string "now : " ; len=6
            0x00641ba5      .byte 0x02
            0x00641ba6      .byte 0x4e
            0x00641ba7      .byte 0x44
            0x00641ba8      .byte 0x02
            0x00641ba9      .byte 0x4f
            0x00641baa      .byte 0x4b
            0x00641bab      .byte 0x11
            0x00641bac     .string "@D00>>>>x>>>>@D!0" ; len=17
            0x00641bbd      .byte 0x0c
            0x00641bbe     .string "Unobtainable" ; len=12
            0x00641bca      .byte 0x02
            0x00641bcb      .byte 0x4f
            0x00641bcc      .byte 0x4b
            0x00641bcd      .byte 0x10
            0x00641bce     .string "lose ref result " ; len=16
            0x00641bde      .byte 0x11
            0x00641bdf     .string "display_title_b, " ; len=17
            0x00641bf0      .byte 0x08
            0x00641bf1     .string "changed " ; len=8
            0x00641bf9      .byte 0x11
            0x00641bfa     .string ", item_displayed " ; len=17
            0x00641c0b      .byte 0x0b
            0x00641c0c     .string ", selected " ; len=11
            0x00641c17      .byte 0x0c
            0x00641c18     .string ", selection " ; len=12
            0x00641c24      .byte 0x10
            0x00641c25     .string ", display state " ; len=16
            0x00641c35      .byte 0x16
            0x00641c36     .string ", selection_displayed " ; len=22
            0x00641c4c      .byte 0x05
            0x00641c4d      .byte 0x00
            0x00641c4e      .byte 0x0c
            0x00641c4f      .byte 0x00
            0x00641c50      .byte 0x11
            0x00641c51     .string "count_files. vol " ; len=17
            0x00641c62      .byte 0x11
            0x00641c63     .string "after count. fwd " ; len=17
            0x00641c74      .byte 0x06
            0x00641c75     .string ", bwd " ; len=6
            0x00641c7b      .byte 0x0c
            0x00641c7c     .string ", start fwd " ; len=12
            0x00641c88      .byte 0x06
            0x00641c89     .string ", bwd " ; len=6
            0x00641c8f      .byte 0x18
            0x00641c90     .string "File counting error (1)." ; len=24
            0x00641ca8      .byte 0x18
            0x00641ca9     .string "File counting error (2)." ; len=24
            0x00641cc1      .byte 0x18
            0x00641cc2     .string "File counting error (3)." ; len=24
            0x00641cda      .byte 0x18
            0x00641cdb     .string "File counting error (4)." ; len=24
            0x00641cf3      .byte 0x18
            0x00641cf4     .string "File counting error (5)." ; len=24
            0x00641d0c      .byte 0x18
            0x00641d0d     .string "File counting error (6)." ; len=24
            0x00641d25      .byte 0x18
            0x00641d26     .string "File counting error (7)." ; len=24
            0x00641d3e      .byte 0x1a
            0x00641d3f     .string "count_files returning num " ; len=26
            0x00641d59      .byte 0x0e
            0x00641d5a     .string ", given entry " ; len=14
            0x00641d68      .byte 0x0b
            0x00641d69     .string ", at_least " ; len=11
            0x00641d74      .byte 0x15
            0x00641d75     .string "check limit reached. " ; len=21
            0x00641d8a      .byte 0x12
            0x00641d8b     .string "check entry step. " ; len=18
            0x00641d9d      .byte 0x0b
            0x00641d9e     .string "NIL entry. " ; len=11
            0x00641da9      .byte 0x0d
            0x00641daa     .string "can_continue " ; len=13
            0x00641db7      .byte 0x21
            0x00641db8     .string "AHEM !!! display with no volumes." ; len=33
            0x00641dd9      .byte 0x14
            0x00641dda     .string "display limit. head " ; len=20
            0x00641dee      .byte 0x07
            0x00641def     .string ", tail " ; len=7
            0x00641df6      .byte 0x11
            0x00641df7     .string "more displays up " ; len=17
            0x00641e08      .byte 0x07
            0x00641e09     .string ", down " ; len=7
            0x00641e10      .byte 0x0c
            0x00641e11     .string "head vol nil" ; len=12
            0x00641e1d      .byte 0x0d
            0x00641e1e     .string "Tail vol fwd " ; len=13
            0x00641e2b      .byte 0x0f
            0x00641e2c     .string ", Head vol bwd " ; len=15
            0x00641e3b      .byte 0x11
            0x00641e3c     .string "files counted. n " ; len=17
            0x00641e4d      .byte 0x0c
            0x00641e4e     .string ", start fwd " ; len=12
            0x00641e5a      .byte 0x06
            0x00641e5b     .string ", bwd " ; len=6
            0x00641e61      .byte 0x0c
            0x00641e62     .string ", uncertain " ; len=12
            0x00641e6e      .byte 0x0c
            0x00641e6f     .string "can_page up " ; len=12
            0x00641e7b      .byte 0x07
            0x00641e7c     .string ", down " ; len=7
            0x00641e83      .byte 0x0d
            0x00641e84     .string ", can_one up " ; len=13
            0x00641e91      .byte 0x07
            0x00641e92     .string ", down " ; len=7
            0x00641e99      .byte 0x0e
            0x00641e9a     .string "more_disks up " ; len=14
            0x00641ea8      .byte 0x07
            0x00641ea9     .string ", down " ; len=7
            0x00641eb0      .byte 0x0c
            0x00641eb1     .string ", uncertain " ; len=12
            0x00641ebd      .byte 0x11
            0x00641ebe     .string ", display_starts " ; len=17
            0x00641ecf      .byte 0x09
            0x00641ed0     .string ", nfiles " ; len=9
            0x00641ed9      .byte 0x0f
            0x00641eda     .string "No Search Done." ; len=15
            0x00641ee9      .byte 0x00
            0x00641eea      .byte 0x00
            0x00641eeb      .byte 0x00
            0x00641eec      .byte 0xfe
            0x00641eed      .byte 0x1f
            0x00641eee      .byte 0x00
            0x00641eef      .byte 0x00
            0x00641ef0      .byte 0x00
            0x00641ef1      .byte 0x00
            0x00641ef2      .byte 0x00
            0x00641ef3      .byte 0x00
            0x00641ef4      .byte 0x00
            0x00641ef5      .byte 0x00
            0x00641ef6      .byte 0x00
            0x00641ef7      .byte 0x00
            0x00641ef8      .byte 0x00
            0x00641ef9      .byte 0x00
            0x00641efa      .byte 0x00
            0x00641efb      .byte 0x00
            0x00641efc      .byte 0x00
            0x00641efd      .byte 0x00
            0x00641efe      .byte 0x00
            0x00641eff      .byte 0x00
            0x00641f00      .byte 0x00
            0x00641f01      .byte 0x00
            0x00641f02      .byte 0x00
            0x00641f03      .byte 0x00
            0x00641f04      .byte 0x00
            0x00641f05      .byte 0x00
            0x00641f06      .byte 0x00
            0x00641f07      .byte 0x00
            0x00641f08      .byte 0x00
            0x00641f09      .byte 0x00
            0x00641f0a      .byte 0x00
            0x00641f0b      .byte 0x00
            0x00641f0c      .byte 0x00
            0x00641f0d      .byte 0x00
            0x00641f0e      .byte 0xfe
            0x00641f0f      .byte 0x1f
            0x00641f10      .byte 0x00
            0x00641f11      .byte 0x00
            0x00641f12      .byte 0x00
            0x00641f13      .byte 0x00
            0x00641f14      .byte 0x00
            0x00641f15      .byte 0x00
            0x00641f16      .byte 0x00
            0x00641f17      .byte 0x00
            0x00641f18      .byte 0x00
            0x00641f19      .byte 0x00
            0x00641f1a      .byte 0x00
            0x00641f1b      .byte 0x00
            0x00641f1c      .byte 0x00
            0x00641f1d      .byte 0x00
            0x00641f1e      .byte 0x00
            0x00641f1f      .byte 0x00
            0x00641f20      .byte 0x00
            0x00641f21      .byte 0x00
            0x00641f22      .byte 0x00
            0x00641f23      .byte 0x00
            0x00641f24      .byte 0x00
            0x00641f25      .byte 0x00
            0x00641f26      .byte 0x00
            0x00641f27      .byte 0x00
            0x00641f28      .byte 0x00
            0x00641f29      .byte 0x00
            0x00641f2a      .byte 0x00
            0x00641f2b      .byte 0x00
            0x00641f2c      .byte 0x00
            0x00641f2d      .byte 0x00
            0x00641f2e      .byte 0x13
            0x00641f2f     .string " display entry for " ; len=19
            0x00641f42      .byte 0x2a
            0x00641f43     .string " has displaced number - flag for re-check " ; len=42
            0x00641f6d      .byte 0x00
            0x00641f6e      .byte 0x80
            0x00641f6f      .byte 0x00
            0x00641f70      .byte 0x00
            0x00641f71      .byte 0x00
            0x00641f72     .string "'updating numbered entry at display pos " ; len=40
            0x00641f9a      .byte 0x80
            0x00641f9b      .byte 0x00
            0x00641f9c      .byte 0x00
            0x00641f9d      .byte 0x00
            0x00641f9e      .byte 0x03
            0x00641f9f      .byte 0x00
            0x00641fa0      .byte 0x00
            0x00641fa1      .byte 0x00
            0x00641fa2      .byte 0x00
            0x00641fa3      .byte 0x00
            0x00641fa4     .string "%Can't act on deleted or unknown file." ; len=38
            0x00641fca      .byte 0x02
            0x00641fcb      .byte 0x42
            0x00641fcc      .byte 0x46
            0x00641fcd      .byte 0x02
            0x00641fce      .byte 0x4f
            0x00641fcf      .byte 0x4b
            0x00641fd0      .byte 0x6a
            0x00641fd1      .byte 0xfa
            0x00641fd2      .byte 0x03
            0x00641fd3      .byte 0x00
            0x00641fd4      .byte 0x04
            0x00641fd5      .byte 0x00
            0x00641fd6      .byte 0x00
            0x00641fd7      .byte 0x00
            0x00641fd8      .byte 0x80
            0x00641fd9      .byte 0x01
            0x00641fda      .byte 0x00
            0x00641fdb      .byte 0x00
            0x00641fdc      .byte 0x02
            0x00641fdd      .byte 0x4f
            0x00641fde      .byte 0x4b
            0x00641fdf      .byte 0x02
            0x00641fe0      .byte 0x49
            0x00641fe1      .byte 0x50
            0x00641fe2      .byte 0x11
            0x00641fe3     .string "privilege result " ; len=17
            0x00641ff4      .byte 0x02
            0x00641ff5      .byte 0x4f
            0x00641ff6      .byte 0x4b
            0x00641ff7      .byte 0x02
            0x00641ff8      .byte 0x50
            0x00641ff9      .byte 0x52
            0x00641ffa      .byte 0x02
            0x00641ffb      .byte 0x4f
            0x00641ffc      .byte 0x4b
            0x00641ffd      .byte 0x02
            0x00641ffe      .byte 0x4f
            0x00641fff      .byte 0x4b
            0x00642000      .byte 0x18
            0x00642001     .string "lose HD crop ref result " ; len=24
            0x00642019      .byte 0x02
            0x0064201a      .byte 0x4f
            0x0064201b      .byte 0x4b
            0x0064201c      .byte 0x02
            0x0064201d      .byte 0x4f
            0x0064201e      .byte 0x4b
            0x0064201f      .byte 0x00
            0x00642020      .byte 0x02
            0x00642021      .byte 0x41
            0x00642022      .byte 0x58
            0x00642023      .byte 0x02
            0x00642024      .byte 0x4f
            0x00642025      .byte 0x4b
            0x00642026      .byte 0x00
            0x00642027      .byte 0x02
            0x00642028      .byte 0x4f
            0x00642029      .byte 0x4b
            0x0064202a      .byte 0x0b
            0x0064202b     .string "temp cutout" ; len=11
            0x00642036      .byte 0x02
            0x00642037      .byte 0x42
            0x00642038      .byte 0x46
            0x00642039      .byte 0x00
            0x0064203a      .byte 0x00
            0x0064203b      .byte 0x00
            0x0064203c      .byte 0x00
            0x0064203d      .byte 0x00
            0x0064203e      .byte 0x00
            0x0064203f      .byte 0x02
            0x00642040      .byte 0x00
            0x00642041      .byte 0x3b
            0x00642042      .byte 0x81
            0x00642043      .byte 0x03
            0x00642044      .byte 0x00
            0x00642045      .byte 0x00
            0x00642046      .byte 0x02
            0x00642047      .byte 0x4e
            0x00642048      .byte 0x41
            0x00642049      .byte 0x02
            0x0064204a      .byte 0x4f
            0x0064204b      .byte 0x4b
            0x0064204c      .byte 0x14
            0x0064204d      .byte 0x00
            0x0064204e      .byte 0x00
            0x0064204f      .byte 0x00
            0x00642050      .byte 0x02
            0x00642051      .byte 0x44
            0x00642052      .byte 0x49
            0x00642053      .byte 0x02
            0x00642054      .byte 0x4f
            0x00642055      .byte 0x4b
            0x00642056      .byte 0x02
            0x00642057      .byte 0x4f
            0x00642058      .byte 0x4b
            0x00642059      .byte 0x02
            0x0064205a      .byte 0x4f
            0x0064205b      .byte 0x4b
            0x0064205c      .byte 0x02
            0x0064205d      .byte 0x4f
            0x0064205e      .byte 0x4b
            0x0064205f      .byte 0x10
            0x00642060     .string "lose ref result " ; len=16
            0x00642070      .byte 0x02
            0x00642071      .byte 0x4f
            0x00642072      .byte 0x4b
            0x00642073      .byte 0x00
            0x00642074      .byte 0x02
            0x00642075      .byte 0x40
            0x00642076      .byte 0x00
            0x00642077      .byte 0x00
            0x00642078      .byte 0x20
            0x00642079      .byte 0x50
            0x0064207a      .byte 0xe0
            0x0064207b      .byte 0x0b
            0x0064207c      .byte 0xfc
            0x0064207d      .byte 0x37
            0x0064207e      .byte 0x62
            0x0064207f      .byte 0x52
            0x00642080      .byte 0x00
            0x00642081      .byte 0x00
            0x00642082      .byte 0x02
            0x00642083      .byte 0x4f
            0x00642084      .byte 0x4b
            0x00642085      .byte 0x00
            0x00642086      .byte 0x80
            0x00642087      .byte 0x01
            0x00642088      .byte 0x00
            0x00642089      .byte 0x00
            0x0064208a      .byte 0x80
            0x0064208b      .byte 0x04
            0x0064208c      .byte 0x00
            0x0064208d      .byte 0x00
            0x0064208e      .byte 0x04
            0x0064208f      .byte 0x00
            0x00642090      .byte 0x00
            0x00642091      .byte 0x00
            0x00642092      .byte 0x0e
            0x00642093     .string "joining lists." ; len=14
            0x006420a1      .byte 0x1e
            0x006420a2     .string "display_existing_entries from " ; len=30
            0x006420c0      .byte 0x03
            0x006420c1      .byte 0x4e
            0x006420c2      .byte 0x49
            0x006420c3      .byte 0x4c
            0x006420c4      .byte 0x0b
            0x006420c5     .string ", $forwards" ; len=11
            0x006420d0      .byte 0x0c
            0x006420d1     .string ", $backwards" ; len=12
            0x006420dd      .byte 0x12
            0x006420de     .string "display full abort" ; len=18
            0x006420f0      .byte 0x0a
            0x006420f1     .string " added at " ; len=10
            0x006420fb      .byte 0x0c
            0x006420fc     .string "manual abort" ; len=12
            0x00642108      .byte 0x0e
            0x00642109     .string "page_start NIL" ; len=14
            0x00642117      .byte 0x0b
            0x00642118     .string "page_start " ; len=11
            0x00642123      .byte 0x10
            0x00642124     .string "do_search loop: " ; len=16
            0x00642134      .byte 0x0f
            0x00642135     .string ", vol_searched " ; len=15
            0x00642144      .byte 0x0d
            0x00642145     .string ", first_time " ; len=13
            0x00642152      .byte 0x0c
            0x00642153     .string ", diskstart " ; len=12
            0x0064215f      .byte 0x0d
            0x00642160     .string "head reached " ; len=13
            0x0064216d      .byte 0x0f
            0x0064216e     .string ", tail reached " ; len=15
            0x0064217d      .byte 0x10
            0x0064217e     .string "no_more_in_list " ; len=16
            0x0064218e      .byte 0x0a
            0x0064218f     .string ", aborted " ; len=10
            0x00642199      .byte 0x0c
            0x0064219a     .string ", page_full " ; len=12
            0x006421a6      .byte 0x0c
            0x006421a7     .string "search from " ; len=12
            0x006421b3      .byte 0x0b
            0x006421b4     .string ", $forwards" ; len=11
            0x006421bf      .byte 0x0c
            0x006421c0     .string ", $backwards" ; len=12
            0x006421cc      .byte 0x0d
            0x006421cd     .string ", first_time " ; len=13
            0x006421da      .byte 0x0c
            0x006421db     .string ", diskstart " ; len=12
            0x006421e7      .byte 0x0f
            0x006421e8     .string ", head reached " ; len=15
            0x006421f7      .byte 0x0f
            0x006421f8     .string ", tail reached " ; len=15
            0x00642207      .byte 0x22
            0x00642208     .string "after lib_search. no_more_on_disk " ; len=34
            0x0064222a      .byte 0x0f
            0x0064222b     .string "no more at fid " ; len=15
            0x0064223a      .byte 0x19
            0x0064223b     .string "real limit reached (NIL)." ; len=25
            0x00642254      .byte 0x13
            0x00642255     .string "real limit reached." ; len=19
            0x00642268      .byte 0x1f
            0x00642269     .string "after lib_search. head reached " ; len=31
            0x00642288      .byte 0x0f
            0x00642289     .string ", tail reached " ; len=15
            0x00642298      .byte 0x0a
            0x00642299     .string "join lists" ; len=10
            0x006422a3      .byte 0x0c
            0x006422a4     .string "lists joined" ; len=12
            0x006422b0      .byte 0x00
            0x006422b1      .byte 0x08
            0x006422b2     .string "aborted " ; len=8
            0x006422ba      .byte 0x0c
            0x006422bb     .string ", page full " ; len=12
            0x006422c7      .byte 0x12
            0x006422c8     .string "leaving do_search." ; len=18
            0x006422da      .byte 0x13
            0x006422db     .string "choose_display cmd " ; len=19
            0x006422ee      .byte 0x0a
            0x006422ef     .string "$page_down" ; len=10
            0x006422f9      .byte 0x08
            0x006422fa     .string "$page_up" ; len=8
            0x00642302      .byte 0x09
            0x00642303     .string "$one_down" ; len=9
            0x0064230c      .byte 0x07
            0x0064230d     .string "$one_up" ; len=7
            0x00642314      .byte 0x08
            0x00642315     .string "$vol_top" ; len=8
            0x0064231d      .byte 0x0b
            0x0064231e     .string "$vol_bottom" ; len=11
            0x00642329      .byte 0x09
            0x0064232a     .string "$next_vol" ; len=9
            0x00642333      .byte 0x09
            0x00642334     .string "$prev_vol" ; len=9
            0x0064233d      .byte 0x0a
            0x0064233e     .string "$first_vol" ; len=10
            0x00642348      .byte 0x09
            0x00642349     .string "$last_vol" ; len=9
            0x00642352      .byte 0x0d
            0x00642353     .string "$goto_entry_n" ; len=13
            0x00642360      .byte 0x0c
            0x00642361     .string "$reshow_page" ; len=12
            0x0064236d      .byte 0x0d
            0x0064236e     .string "$rest_of_page" ; len=13
            0x0064237b      .byte 0x0f
            0x0064237c     .string ", display in = " ; len=15
            0x0064238b      .byte 0x10
            0x0064238c     .string "bottom of a vol." ; len=16
            0x0064239c      .byte 0x0d
            0x0064239d     .string "top of a vol." ; len=13
            0x006423aa      .byte 0x0c
            0x006423ab     .string "reshow page." ; len=12
            0x006423b7      .byte 0x0d
            0x006423b8     .string "rest of page." ; len=13
            0x006423c5      .byte 0x00
            0x006423c6      .byte 0x05
            0x006423c7      .byte 0x04
            0x006423c8      .byte 0x12
            0x006423c9     .string "up/down etc. down " ; len=18
            0x006423db      .byte 0x02
            0x006423dc      .byte 0x2c
            0x006423dd      .byte 0x20
            0x006423de      .byte 0x0c
            0x006423df      .byte 0x00
            0x006423e0      .byte 0x06
            0x006423e1     .string "case 1" ; len=6
            0x006423e7      .byte 0x06
            0x006423e8     .string "case 2" ; len=6
            0x006423ee      .byte 0x06
            0x006423ef     .string "case 3" ; len=6
            0x006423f5      .byte 0x06
            0x006423f6     .string "case 4" ; len=6
            0x006423fc      .byte 0x04
            0x006423fd     .string ", n " ; len=4
            0x00642401      .byte 0x22
            0x00642402     .string "leaving choose_display. vol out = " ; len=34
            0x00642424      .byte 0x04
            0x00642425      .byte 0x4e
            0x00642426      .byte 0x49
            0x00642427      .byte 0x4c
            0x00642428      .byte 0x2e
            0x00642429      .byte 0x13
            0x0064242a     .string "display_page_start " ; len=19
            0x0064243d      .byte 0x0f
            0x0064243e     .string ", page_start = " ; len=15
            0x0064244d      .byte 0x04
            0x0064244e      .byte 0x4e
            0x0064244f      .byte 0x49
            0x00642450      .byte 0x4c
            0x00642451      .byte 0x2e
            0x00642452      .byte 0x06
            0x00642453     .string "alloc " ; len=6
            0x00642459      .byte 0x0c
            0x0064245a     .string ", dis = NIL " ; len=12
            0x00642466      .byte 0x0a
            0x00642467     .string ", aborted " ; len=10
            0x00642471      .byte 0x06
            0x00642472     .string ", new " ; len=6
            0x00642478      .byte 0x0e
            0x00642479     .string ", any AND new " ; len=14
            0x00642487      .byte 0x13
            0x00642488     .string ", NOT auto AND new " ; len=19
            0x0064249b      .byte 0x11
            0x0064249c     .string "cmd_handler. cmd " ; len=17
            0x006424ad      .byte 0x12
            0x006424ae     .string "Nothing to search." ; len=18
            0x006424c0      .byte 0x00
            0x006424c1      .byte 0x00
            0x006424c2      .byte 0x2a
            0x006424c3      .byte 0x00
            0x006424c4      .byte 0x00
            0x006424c5      .byte 0x00
            0x006424c6      .byte 0x06
            0x006424c7      .byte 0x14
            0x006424c8     .string "print spooler failed" ; len=20
            0x006424dc      .byte 0x00
            0x006424dd      .byte 0x00
            0x006424de      .byte 0x00
            0x006424df      .byte 0x00
            0x006424e0      .byte 0x80
            0x006424e1      .byte 0x0b
            0x006424e2      .byte 0x1c
            0x006424e3      .byte 0x00
            0x006424e4      .byte 0xe2
            0x006424e5      .byte 0xf3
            0x006424e6      .byte 0x02
            0x006424e7      .byte 0x00
            0x006424e8      .byte 0x00
            0x006424e9      .byte 0x00
            0x006424ea      .byte 0x00
            0x006424eb      .byte 0x00
            0x006424ec      .byte 0x06
            0x006424ed      .byte 0x0c
            0x006424ee     .string "k9_act took " ; len=12
            0x006424fa      .byte 0x9f
            0x006424fb      .byte 0x00
            0x006424fc      .byte 0x08
            0x006424fd      .byte 0x00
            0x006424fe      .byte 0x0e
            0x006424ff      .byte 0x7b
            0x00642500      .byte 0x30
            0x00642501      .byte 0x00
            0x00642502      .byte 0x00
            0x00642503      .byte 0x00
            0x00642504      .byte 0x84
            0x00642505      .byte 0x01
            0x00642506      .byte 0x00
            0x00642507      .byte 0x00
            0x00642508      .byte 0x0d
            0x00642509     .string "display_item " ; len=13
            0x00642516      .byte 0x07
            0x00642517     .string " entry " ; len=7
            0x0064251e      .byte 0x02
            0x0064251f      .byte 0x2c
            0x00642520      .byte 0x20
            0x00642521      .byte 0x00
            0x00642522      .byte 0x15
            0x00642523     .string "Heap full allocating " ; len=21
            0x00642538      .byte 0x08
            0x00642539     .string " bytes (" ; len=8
            0x00642541      .byte 0x1b
            0x00642542     .string "). Expect crash imminently." ; len=27
            0x0064255d      .byte 0x00
            0x0064255e      .byte 0x01
            0x0064255f      .byte 0x73
            0x00642560      .byte 0x01
            0x00642561      .byte 0x74
            0x00642562      .byte 0x01
            0x00642563      .byte 0x70
            0x00642564      .byte 0x00
            0x00642565      .byte 0x04
            0x00642566      .byte 0x73
            0x00642567      .byte 0x6f
            0x00642568      .byte 0x72
            0x00642569      .byte 0x74
            0x0064256a      .byte 0x1b
            0x0064256b     .string "fid already in list  entry " ; len=27
            0x00642586      .byte 0x10
            0x00642587     .string "lose new record " ; len=16
            0x00642597      .byte 0x0e
            0x00642598     .string "joining lists " ; len=14
            0x006425a6      .byte 0x0a
            0x006425a7     .string "add_title " ; len=10
            0x006425b1      .byte 0x0d
            0x006425b2     .string "k9_new_title " ; len=13
            0x006425bf      .byte 0x15
            0x006425c0     .string "Heap full allocating " ; len=21
            0x006425d5      .byte 0x28
            0x006425d6     .string " bytes (entry). Expect crash imminently." ; len=40
            0x006425fe      .byte 0x00
            0x006425ff      .byte 0x00
            0x00642600      .byte 0x00
            0x00642601      .byte 0x00
            0x00642602      .byte 0x00
            0x00642603      .byte 0x00
            0x00642604      .byte 0x00
            0x00642605      .byte 0x00
            0x00642606      .byte 0x07
            0x00642607     .string " entry " ; len=7
            0x0064260e      .byte 0x00
            0x0064260f      .byte 0x15
            0x00642610     .string "Heap full allocating " ; len=21
            0x00642625      .byte 0x08
            0x00642626     .string " bytes (" ; len=8
            0x0064262e      .byte 0x1b
            0x0064262f     .string "). Expect crash imminently." ; len=27
            0x0064264a      .byte 0x13
            0x0064264b     .string "description length " ; len=19
            0x0064265e      .byte 0x1f
            0x0064265f     .string "? description illegal value at " ; len=31
            0x0064267e      .byte 0x15
            0x0064267f     .string "Heap full allocating " ; len=21
            0x00642694      .byte 0x08
            0x00642695     .string " bytes (" ; len=8
            0x0064269d      .byte 0x1b
            0x0064269e     .string "). Expect crash imminently." ; len=27
            0x006426b9      .byte 0x00
            0x006426ba      .byte 0x0a
            0x006426bb     .string "Set field " ; len=10
            0x006426c5      .byte 0x07
            0x006426c6     .string ", type " ; len=7
            0x006426cd      .byte 0x08
            0x006426ce     .string ", name <" ; len=8
            0x006426d6      .byte 0x0c
            0x006426d7     .string ">, sys type " ; len=12
            0x006426e3      .byte 0x2c
            0x006426e4     .string "Set field for retitle entry. change allowed " ; len=44
            0x00642710      .byte 0x00
            0x00642711      .byte 0x78
            0x00642712      .byte 0x00
            0x00642713      .byte 0x00
            0x00642714      .byte 0x18
            0x00642715     .string "Ok to set retitle field " ; len=24
            0x0064272d      .byte 0x14
            0x0064272e     .string " to unexpected type " ; len=20
            0x00642742      .byte 0x15
            0x00642743     .string "Attempt to set field " ; len=21
            0x00642758      .byte 0x13
            0x00642759     .string " to unallowed type " ; len=19
            0x0064276c      .byte 0x00
            0x0064276d      .byte 0x78
            0x0064276e      .byte 0x00
            0x0064276f      .byte 0x00
            0x00642770      .byte 0x0a
            0x00642771     .string "sys name <" ; len=10
            0x0064277b      .byte 0x16
            0x0064277c     .string "Names match. Set type." ; len=22
            0x00642792      .byte 0x34
            0x00642793     .string "Names mismatch but retitle change allowed. Set type." ; len=52
            0x006427c7      .byte 0x15
            0x006427c8     .string "Attempt to set field " ; len=21
            0x006427dd      .byte 0x13
            0x006427de     .string " to unallowed name " ; len=19
            0x006427f1      .byte 0x0b
            0x006427f2     .string "k9_set_str " ; len=11
            0x006427fd      .byte 0x02
            0x006427fe      .byte 0x2c
            0x006427ff      .byte 0x20
            0x00642800      .byte 0x02
            0x00642801      .byte 0x2c
            0x00642802      .byte 0x20
            0x00642803      .byte 0x0d
            0x00642804     .string ", reallocate " ; len=13
            0x00642811      .byte 0x05
            0x00642812     .string "title" ; len=5
            0x00642817      .byte 0x04
            0x00642818      .byte 0x63
            0x00642819      .byte 0x61
            0x0064281a      .byte 0x74
            0x0064281b      .byte 0x73
            0x0064281c      .byte 0x05
            0x0064281d     .string "owner" ; len=5
            0x00642822      .byte 0x04
            0x00642823      .byte 0x64
            0x00642824      .byte 0x69
            0x00642825      .byte 0x73
            0x00642826      .byte 0x6b
            0x00642827      .byte 0x06
            0x00642828     .string "origin" ; len=6
            0x0064282e      .byte 0x05
            0x0064282f     .string "image" ; len=5
            0x00642834      .byte 0x05
            0x00642835     .string "extra" ; len=5
            0x0064283a      .byte 0x06
            0x0064283b     .string "Field " ; len=6
            0x00642841      .byte 0x16
            0x00642842     .string " is not required type." ; len=22
            0x00642858      .byte 0x02
            0x00642859      .byte 0x4f
            0x0064285a      .byte 0x4b
            0x0064285b      .byte 0x07
            0x0064285c     .string "Result " ; len=7
            0x00642863      .byte 0x1a
            0x00642864     .string " getting label for volume " ; len=26
            0x0064287e      .byte 0x00
            0x0064287f      .byte 0x0c
            0x00642880     .string "k9_read_str " ; len=12
            0x0064288c      .byte 0x02
            0x0064288d      .byte 0x2c
            0x0064288e      .byte 0x20
            0x0064288f      .byte 0x0d
            0x00642890     .string ", reallocate " ; len=13
            0x0064289d      .byte 0x02
            0x0064289e      .byte 0x20
            0x0064289f      .byte 0x22
            0x006428a0      .byte 0x01
            0x006428a1      .byte 0x22
            0x006428a2      .byte 0x00
            0x006428a3      .byte 0x03
            0x006428a4      .byte 0x20
            0x006428a5      .byte 0x2d
            0x006428a6      .byte 0x20
            0x006428a7      .byte 0x0a
            0x006428a8     .string "read type " ; len=10
            0x006428b2      .byte 0x0c
            0x006428b3     .string ", field ptr " ; len=12
            0x006428bf      .byte 0x00
            0x006428c0      .byte 0x19
            0x006428c1     .string "Field not held as string." ; len=25
            0x006428da      .byte 0x19
            0x006428db     .string "Field not held as string." ; len=25
            0x006428f4      .byte 0x0d
            0x006428f5     .string "k9_set_block " ; len=13
            0x00642902      .byte 0x02
            0x00642903      .byte 0x2c
            0x00642904      .byte 0x20
            0x00642905      .byte 0x02
            0x00642906      .byte 0x2c
            0x00642907      .byte 0x20
            0x00642908      .byte 0x0d
            0x00642909     .string ", reallocate " ; len=13
            0x00642916      .byte 0x04
            0x00642917      .byte 0x64
            0x00642918      .byte 0x65
            0x00642919      .byte 0x73
            0x0064291a      .byte 0x63
            0x0064291b      .byte 0x0e
            0x0064291c     .string "k9_read_block " ; len=14
            0x0064292a      .byte 0x02
            0x0064292b      .byte 0x2c
            0x0064292c      .byte 0x20
            0x0064292d      .byte 0x0d
            0x0064292e     .string ", reallocate " ; len=13
            0x0064293b      .byte 0x13
            0x0064293c     .string "description length " ; len=19
            0x0064294f      .byte 0x1f
            0x00642950     .string "? description illegal value at " ; len=31
            0x0064296f      .byte 0x0e
            0x00642970     .string "k9_read_block " ; len=14
            0x0064297e      .byte 0x12
            0x0064297f     .string "k9_read_ptr_block " ; len=18
            0x00642991      .byte 0x02
            0x00642992      .byte 0x2c
            0x00642993      .byte 0x20
            0x00642994      .byte 0x0d
            0x00642995     .string ", reallocate " ; len=13
            0x006429a2      .byte 0x12
            0x006429a3     .string "k9_read_ptr_block " ; len=18
            0x006429b5      .byte 0x0c
            0x006429b6     .string "k9_set_time " ; len=12
            0x006429c2      .byte 0x02
            0x006429c3      .byte 0x2c
            0x006429c4      .byte 0x20
            0x006429c5      .byte 0x05
            0x006429c6     .string "Extra" ; len=5
            0x006429cb      .byte 0x06
            0x006429cc     .string "Field " ; len=6
            0x006429d2      .byte 0x16
            0x006429d3     .string " is not required type." ; len=22
            0x006429e9      .byte 0x0e
            0x006429ea     .string "k9_set_2times " ; len=14
            0x006429f8      .byte 0x02
            0x006429f9      .byte 0x2c
            0x006429fa      .byte 0x20
            0x006429fb      .byte 0x00
            0x006429fc      .byte 0x00
            0x006429fd      .byte 0x00
            0x006429fe      .byte 0x00
            0x006429ff      .byte 0x00
            0x00642a00      .byte 0x00
            0x00642a01      .byte 0x00
            0x00642a02      .byte 0x00
            0x00642a03      .byte 0x17
            0x00642a04     .string "Field not held as time." ; len=23
            0x00642a1b      .byte 0x00
            0x00642a1c      .byte 0x00
            0x00642a1d      .byte 0x00
            0x00642a1e      .byte 0x00
            0x00642a1f      .byte 0x00
            0x00642a20      .byte 0x00
            0x00642a21      .byte 0x00
            0x00642a22      .byte 0x00
            0x00642a23      .byte 0x17
            0x00642a24     .string "Field not held as time." ; len=23
            0x00642a3b      .byte 0x00
            0x00642a3c      .byte 0x00
            0x00642a3d      .byte 0x00
            0x00642a3e      .byte 0x00
            0x00642a3f      .byte 0x00
            0x00642a40      .byte 0x00
            0x00642a41      .byte 0x00
            0x00642a42      .byte 0x00
            0x00642a43      .byte 0x00
            0x00642a44      .byte 0x00
            0x00642a45      .byte 0x00
            0x00642a46      .byte 0x00
            0x00642a47      .byte 0x00
            0x00642a48      .byte 0x00
            0x00642a49      .byte 0x00
            0x00642a4a      .byte 0x00
            0x00642a4b      .byte 0x0c
            0x00642a4c     .string "k9_set_type " ; len=12
            0x00642a58      .byte 0x02
            0x00642a59      .byte 0x2c
            0x00642a5a      .byte 0x20
            0x00642a5b      .byte 0x02
            0x00642a5c      .byte 0x2c
            0x00642a5d      .byte 0x20
            0x00642a5e      .byte 0x0e
            0x00642a5f     .string "k9_set_number " ; len=14
            0x00642a6d      .byte 0x02
            0x00642a6e      .byte 0x2c
            0x00642a6f      .byte 0x20
            0x00642a70      .byte 0x02
            0x00642a71      .byte 0x2c
            0x00642a72      .byte 0x20
            0x00642a73      .byte 0x05
            0x00642a74     .string "Extra" ; len=5
            0x00642a79      .byte 0x06
            0x00642a7a     .string "Field " ; len=6
            0x00642a80      .byte 0x16
            0x00642a81     .string " is not required type." ; len=22
            0x00642a97      .byte 0x10
            0x00642a98     .string "k9_set_2numbers " ; len=16
            0x00642aa8      .byte 0x02
            0x00642aa9      .byte 0x2c
            0x00642aaa      .byte 0x20
            0x00642aab      .byte 0x02
            0x00642aac      .byte 0x2c
            0x00642aad      .byte 0x20
            0x00642aae      .byte 0x02
            0x00642aaf      .byte 0x2c
            0x00642ab0      .byte 0x20
            0x00642ab1      .byte 0x19
            0x00642ab2     .string "Field not held as number." ; len=25
            0x00642acb      .byte 0x19
            0x00642acc     .string "Field not held as number." ; len=25
            0x00642ae5      .byte 0x0f
            0x00642ae6     .string "k9.field_blank " ; len=15
            0x00642af5      .byte 0x02
            0x00642af6      .byte 0x2c
            0x00642af7      .byte 0x20
            0x00642af8      .byte 0x05
            0x00642af9     .string "title" ; len=5
            0x00642afe      .byte 0x04
            0x00642aff      .byte 0x63
            0x00642b00      .byte 0x61
            0x00642b01      .byte 0x74
            0x00642b02      .byte 0x73
            0x00642b03      .byte 0x05
            0x00642b04     .string "owner" ; len=5
            0x00642b09      .byte 0x06
            0x00642b0a     .string "f disk" ; len=6
            0x00642b10      .byte 0x06
            0x00642b11     .string "origin" ; len=6
            0x00642b17      .byte 0x05
            0x00642b18     .string "image" ; len=5
            0x00642b1d      .byte 0x04
            0x00642b1e      .byte 0x20
            0x00642b1f      .byte 0x6f
            0x00642b20      .byte 0x66
            0x00642b21      .byte 0x20
            0x00642b22      .byte 0x05
            0x00642b23     .string "found" ; len=5
            0x00642b28      .byte 0x00
            0x00642b29      .byte 0x1a
            0x00642b2a     .string "Get missing fields from k." ; len=26
            0x00642b44      .byte 0x23
            0x00642b45     .string "--- purge_library - releasing heap " ; len=35
            0x00642b68      .byte 0x15
            0x00642b69     .string "Heap full allocating " ; len=21
            0x00642b7e      .byte 0x2a
            0x00642b7f     .string " bytes (display). Expect crash imminently." ; len=42
            0x00642ba9      .byte 0x15
            0x00642baa     .string "Heap full allocating " ; len=21
            0x00642bbf      .byte 0x2a
            0x00642bc0     .string " bytes (display). Expect crash imminently." ; len=42
            0x00642bea      .byte 0x05
            0x00642beb     .string "SKLR " ; len=5
            0x00642bf0      .byte 0x0a
            0x00642bf1     .string "sklr took " ; len=10
            0x00642bfb      .byte 0x00
            0x00642bfc      .byte 0x07
            0x00642bfd     .string "cursor " ; len=7
            0x00642c04      .byte 0x10
            0x00642c05     .string "cursor moved to " ; len=16
            0x00642c15      .byte 0x28
            0x00642c16     .string "called k9_key_retitle in fetched display" ; len=40
            0x00642c3e      .byte 0x26
            0x00642c3f     .string "called k9_key_retitle in found display" ; len=38
            0x00642c65      .byte 0x27
            0x00642c66     .string "called k9_key_retitle in search display" ; len=39
            0x00642c8d      .byte 0x25
            0x00642c8e     .string "called k9_key_retitle in save display" ; len=37
            0x00642cb3      .byte 0x25
            0x00642cb4     .string "called k9_key_retitle in keep display" ; len=37
            0x00642cd9      .byte 0x25
            0x00642cda     .string "called k9_key_retitle in lose display" ; len=37
            0x00642cff      .byte 0x14
            0x00642d00     .string "k9_key_retitle. key " ; len=20
            0x00642d14      .byte 0x02
            0x00642d15      .byte 0x2c
            0x00642d16      .byte 0x20
            0x00642d17      .byte 0x08
            0x00642d18     .string ", field " ; len=8
            0x00642d20      .byte 0x02
            0x00642d21      .byte 0x4f
            0x00642d22      .byte 0x4b
            0x00642d23      .byte 0x0d
            0x00642d24     .string "string field " ; len=13
            0x00642d31      .byte 0x08
            0x00642d32     .string " changed" ; len=8
            0x00642d3a      .byte 0x02
            0x00642d3b      .byte 0x4f
            0x00642d3c      .byte 0x4b
            0x00642d3d      .byte 0x0c
            0x00642d3e     .string "block field " ; len=12
            0x00642d4a      .byte 0x08
            0x00642d4b     .string " changed" ; len=8
            0x00642d53      .byte 0x02
            0x00642d54      .byte 0x4f
            0x00642d55      .byte 0x4b
            0x00642d56      .byte 0x0a
            0x00642d57     .string "udf field " ; len=10
            0x00642d61      .byte 0x08
            0x00642d62     .string " changed" ; len=8
            0x00642d6a      .byte 0x38
            0x00642d6b     .string "!!!!!! k9_Retitle field is not currently sys type !!!!!!" ; len=56
            0x00642da3      .byte 0x00
            0x00642da4      .byte 0x00
            0x00642da5      .byte 0x02
            0x00642da6      .byte 0x4f
            0x00642da7      .byte 0x4b
            0x00642da8      .byte 0x02
            0x00642da9      .byte 0x4f
            0x00642daa      .byte 0x4b
            0x00642dab      .byte 0x02
            0x00642dac      .byte 0x4f
            0x00642dad      .byte 0x4b
            0x00642dae      .byte 0x02
            0x00642daf      .byte 0x49
            0x00642db0      .byte 0x50
            0x00642db1      .byte 0x11
            0x00642db2     .string "privilege result " ; len=17
            0x00642dc3      .byte 0x02
            0x00642dc4     .string "OK" ; len=2
            0x00642dc6      .byte 0x21
            0x00642dc7     .string "owner field changed. check owner." ; len=33
            0x00642de8      .byte 0x02
            0x00642de9      .byte 0x4f
            0x00642dea      .byte 0x4b
            0x00642deb      .byte 0x07
            0x00642dec     .string "Owner <" ; len=7
            0x00642df3      .byte 0x1f
            0x00642df4     .string "> not permitted during retitle." ; len=31
            0x00642e13      .byte 0x02
            0x00642e14      .byte 0x4f
            0x00642e15      .byte 0x4b
            0x00642e16      .byte 0x02
            0x00642e17      .byte 0x4f
            0x00642e18      .byte 0x4b
            0x00642e19      .byte 0x02
            0x00642e1a      .byte 0x4f
            0x00642e1b      .byte 0x4b
            0x00642e1c      .byte 0x02
            0x00642e1d      .byte 0x4f
            0x00642e1e      .byte 0x4b
            0x00642e1f      .byte 0x02
            0x00642e20      .byte 0x4f
            0x00642e21      .byte 0x4b
            0x00642e22      .byte 0x02
            0x00642e23      .byte 0x4f
            0x00642e24      .byte 0x4b
            0x00642e25      .byte 0x02
            0x00642e26      .byte 0x4f
            0x00642e27      .byte 0x4b
            0x00642e28      .byte 0x02
            0x00642e29      .byte 0x4f
            0x00642e2a      .byte 0x4b
            0x00642e2b      .byte 0x02
            0x00642e2c      .byte 0x4f
            0x00642e2d      .byte 0x4b
            0x00642e2e      .byte 0x02
            0x00642e2f      .byte 0x4f
            0x00642e30      .byte 0x4b
            0x00642e31      .byte 0x02
            0x00642e32      .byte 0x4f
            0x00642e33      .byte 0x4b
            0x00642e34      .byte 0x02
            0x00642e35      .byte 0x4f
            0x00642e36      .byte 0x4b
            0x00642e37      .byte 0x04
            0x00642e38      .byte 0x47
            0x00642e39      .byte 0x6f
            0x00642e3a      .byte 0x74
            0x00642e3b      .byte 0x20
            0x00642e3c      .byte 0x0e
            0x00642e3d     .string " in k9_retitle" ; len=14
            0x00642e4b      .byte 0x02
            0x00642e4c      .byte 0x4f
            0x00642e4d      .byte 0x4b
            0x00642e4e      .byte 0x02
            0x00642e4f      .byte 0x4f
            0x00642e50      .byte 0x4b
            0x00642e51      .byte 0x02
            0x00642e52      .byte 0x4f
            0x00642e53      .byte 0x4b
            0x00642e54      .byte 0x04
            0x00642e55      .byte 0x47
            0x00642e56      .byte 0x6f
            0x00642e57      .byte 0x74
            0x00642e58      .byte 0x20
            0x00642e59      .byte 0x17
            0x00642e5a     .string " rekeying in k9_retitle" ; len=23
            0x00642e71      .byte 0x00
            0x00642e72      .byte 0x03
            0x00642e73      .byte 0x00
            0x00642e74      .byte 0x0a
            0x00642e75     .string "set field " ; len=10
            0x00642e7f      .byte 0x10
            0x00642e80     .string " to system type " ; len=16
            0x00642e90      .byte 0x00
            0x00642e91      .byte 0x00
            0x00642e92      .byte 0x00
            0x00642e93      .byte 0x00
            0x00642e94      .byte 0x00
            0x00642e95      .byte 0x00
            0x00642e96      .byte 0x00
            0x00642e97      .byte 0x00
            0x00642e98      .byte 0x00
            0x00642e99      .byte 0x06
            0x00642e9a     .string "field " ; len=6
            0x00642ea0      .byte 0x06
            0x00642ea1     .string " type " ; len=6
            0x00642ea7      .byte 0x0a
            0x00642ea8     .string " not none." ; len=10
            0x00642eb2      .byte 0x00
            0x00642eb3      .byte 0x11
            0x00642eb4     .string "k9_start_retitle " ; len=17
            0x00642ec5      .byte 0x00
            0x00642ec6      .byte 0x00
            0x00642ec7      .byte 0x00
            0x00642ec8      .byte 0x00
            0x00642ec9      .byte 0x00
            0x00642eca      .byte 0x03
            0x00642ecb      .byte 0x26
            0x00642ecc     .string "search/save/keep/lose/retitle display." ; len=38
            0x00642ef2      .byte 0x14
            0x00642ef3     .string "k9_set_display_mode " ; len=20
            0x00642f07      .byte 0x22
            0x00642f08     .string "Changing mode. Display from start." ; len=34
            0x00642f2a      .byte 0x2f
            0x00642f2b     .string "Same mode. Continue display after existing end." ; len=47
            0x00642f5a      .byte 0x2d
            0x00642f5b     .string "? k9_field_area: field area larger than card." ; len=45
            0x00642f88      .byte 0x0c
            0x00642f89     .string "card_area: (" ; len=12
            0x00642f95      .byte 0x02
            0x00642f96      .byte 0x2c
            0x00642f97      .byte 0x20
            0x00642f98      .byte 0x02
            0x00642f99      .byte 0x2c
            0x00642f9a      .byte 0x20
            0x00642f9b      .byte 0x02
            0x00642f9c      .byte 0x2c
            0x00642f9d      .byte 0x20
            0x00642f9e      .byte 0x0d
            0x00642f9f     .string "field_area: (" ; len=13
            0x00642fac      .byte 0x02
            0x00642fad      .byte 0x2c
            0x00642fae      .byte 0x20
            0x00642faf      .byte 0x02
            0x00642fb0      .byte 0x2c
            0x00642fb1      .byte 0x20
            0x00642fb2      .byte 0x02
            0x00642fb3      .byte 0x2c
            0x00642fb4      .byte 0x20
            0x00642fb5      .byte 0x00
            0x00642fb6      .byte 0x00
            0x00642fb7      .byte 0x00
            0x00642fb8      .byte 0x00
            0x00642fb9      .byte 0x00
            0x00642fba      .byte 0x80
            0x00642fbb      .byte 0x07
            0x00642fbc      .byte 0x00
            0x00642fbd      .byte 0x00
            0x00642fbe      .byte 0x00
            0x00642fbf      .byte 0x00
            0x00642fc0      .byte 0x00
            0x00642fc1      .byte 0x06
            0x00642fc2      .byte 0x0d
            0x00642fc3      .byte 0x00
            0x00642fc4      .byte 0x00
            0x00642fc5      .byte 0x00
            0x00642fc6      .byte 0x00
            0x00642fc7      .byte 0x00
            0x00642fc8      .byte 0x80
            0x00642fc9      .byte 0x01
            0x00642fca      .byte 0x0c
            0x00642fcb      .byte 0x00
            0x00642fcc      .byte 0x00
            0x00642fcd      .byte 0x00
            0x00642fce      .byte 0x00
            0x00642fcf      .byte 0x00
            0x00642fd0      .byte 0x80
            0x00642fd1      .byte 0x07
            0x00642fd2      .byte 0x08
            0x00642fd3      .byte 0x00
            0x00642fd4      .byte 0x00
            0x00642fd5      .byte 0x00
            0x00642fd6      .byte 0x00
            0x00642fd7      .byte 0x00
            0x00642fd8      .byte 0x80
            0x00642fd9      .byte 0x07
            0x00642fda      .byte 0x0d
            0x00642fdb      .byte 0x00
            0x00642fdc      .byte 0x0c
            0x00642fdd      .byte 0x00
            0x00642fde      .byte 0xbc
            0x00642fdf      .byte 0x03
            0x00642fe0      .byte 0x00
            0x00642fe1      .byte 0x00
            0x00642fe2      .byte 0x00
            0x00642fe3      .byte 0x00
            0x00642fe4      .byte 0x00
            0x00642fe5      .byte 0x00
            0x00642fe6      .byte 0x00
            0x00642fe7      .byte 0x00
            0x00642fe8      .byte 0x80
            0x00642fe9      .byte 0x07
            0x00642fea      .byte 0x03
            0x00642feb      .byte 0x00
            0x00642fec      .byte 0x00
            0x00642fed      .byte 0x00
            0x00642fee      .byte 0x00
            0x00642fef      .byte 0x00
            0x00642ff0      .byte 0x15
            0x00642ff1     .string "Heap full allocating " ; len=21
            0x00643006      .byte 0x1a
            0x00643007     .string ". Expect crash imminently." ; len=26
            0x00643021      .byte 0x00
            0x00643022      .byte 0x15
            0x00643023     .string "Heap full allocating " ; len=21
            0x00643038      .byte 0x1a
            0x00643039     .string ". Expect crash imminently." ; len=26
            0x00643053      .byte 0x3b
            0x00643054     .string "Heap full allocating retitle info. Expect crash imminently." ; len=59
            0x0064308f      .byte 0x05
            0x00643090     .string "title" ; len=5
            0x00643095      .byte 0x0a
            0x00643096     .string "categories" ; len=10
            0x006430a0      .byte 0x05
            0x006430a1     .string "owner" ; len=5
            0x006430a6      .byte 0x06
            0x006430a7     .string "origin" ; len=6
            0x006430ad      .byte 0x05
            0x006430ae     .string "image" ; len=5
            0x006430b3      .byte 0x0b
            0x006430b4     .string "description" ; len=11
            0x006430bf      .byte 0x06
            0x006430c0      .byte 0x66
            0x006430c1      .byte 0x5f
            0x006430c2      .byte 0x64
            0x006430c3      .byte 0x69
            0x006430c4      .byte 0x73
            0x006430c5      .byte 0x6b
            0x006430c6      .byte 0x3b
            0x006430c7      .byte 0x48
            0x006430c8      .byte 0x65
            0x006430c9      .byte 0x61
            0x006430ca      .byte 0x70
            0x006430cb      .byte 0x20
            0x006430cc      .byte 0x66
            0x006430cd      .byte 0x75
            0x006430ce      .byte 0x6c
            0x006430cf      .byte 0x6c
            0x006430d0      .byte 0x20
            0x006430d1      .byte 0x61
            0x006430d2      .byte 0x6c
            0x006430d3      .byte 0x6c
            0x006430d4      .byte 0x6f
            0x006430d5      .byte 0x63
            0x006430d6      .byte 0x61
            0x006430d7      .byte 0x74
            0x006430d8      .byte 0x69
            0x006430d9      .byte 0x6e
            0x006430da      .byte 0x67
            0x006430db      .byte 0x20
            0x006430dc      .byte 0x73
            0x006430dd      .byte 0x70
            0x006430de      .byte 0x61
            0x006430df      .byte 0x72
            0x006430e0      .byte 0x65
            0x006430e1      .byte 0x5f
            0x006430e2      .byte 0x64
            0x006430e3      .byte 0x65
            0x006430e4      .byte 0x73
            0x006430e5      .byte 0x63
            0x006430e6      .byte 0x5f
            0x006430e7      .byte 0x31
            0x006430e8      .byte 0x2e
            0x006430e9      .byte 0x20
            0x006430ea      .byte 0x45
            0x006430eb      .byte 0x78
            0x006430ec      .byte 0x70
            0x006430ed      .byte 0x65
            0x006430ee      .byte 0x63
            0x006430ef      .byte 0x74
            0x006430f0      .byte 0x20
            0x006430f1      .byte 0x63
            0x006430f2      .byte 0x72
            0x006430f3      .byte 0x61
            0x006430f4      .byte 0x73
            0x006430f5      .byte 0x68
            0x006430f6      .byte 0x20
            0x006430f7      .byte 0x69
            0x006430f8      .byte 0x6d
            0x006430f9      .byte 0x6d
            0x006430fa      .byte 0x69
            0x006430fb      .byte 0x6e
            0x006430fc      .byte 0x65
            0x006430fd      .byte 0x6e
            0x006430fe      .byte 0x74
            0x006430ff      .byte 0x6c
            0x00643100      .byte 0x79
            0x00643101      .byte 0x2e
            ; CALL XREF from MENULIBCOM.select_library @ 0x751f22
 42: K9_LIBRARY.k9_select_libra ();
           0x00643102      4e56fffa       link.w a6, 0xfffa
           0x00643106      bfd5           cmpa.l (a5), a7
       < 0x00643108      6206           bhi.b 0x643110
          0x0064310a      44fc0002       move.w 0x2, ccr
          0x0064310e      4e76           trapv
       > 0x00643110      defc0006       adda.w 0x6, a7
           0x00643114      13ee00080084.  move.b 0x8(a6), 0x847e42.l
           0x0064311c      1f2e0008       move.b 0x8(a6), -(a7)
           0x00643120      4eb90065ffa2   jsr K95_CARDS.k95_select_libr
           0x00643126      544f           addq.w 0x2, a7
           0x00643128      4e5e           unlk a6
           0x0064312a      4e75           rts
 54: K9_LIBRARY.op_str ();
           0x0064312c      4e56fff0       link.w a6, 0xfff0
           0x00643130      bfd5           cmpa.l (a5), a7
       < 0x00643132      6206           bhi.b 0x64313a
          0x00643134      44fc0002       move.w 0x2, ccr
          0x00643138      4e76           trapv
       > 0x0064313a      defc0010       adda.w 0x10, a7
           0x0064313e      48e780c0       movem.l d0/a0-a1, -(a7)
           0x00643142      41ee000a       lea.l 0xa(a6), a0
           0x00643146      43ee000e       lea.l 0xe(a6), a1
           0x0064314a      102e0008       move.b 0x8(a6), d0
           0x0064314e      4880           ext.w d0
           0x00643150      0c400004       cmpi.w 0x4, d0
       < 0x00643154      6302           bls.b 0x643158
          0x00643156      4e4e           trap 0xe
       > 0x00643158      d040           add.w d0, d0
           0x0064315a      303b0006       move.w 0x643162(pc, d0.w), d0
           0x0064315e      4efb0002       jmp 0x643162(pc, d0.w)
            0x00643162      000a001a       
            0x00643163      0a001a00       eori.b 0x0, d0
            0x00643167      2400           move.l d0, d2
            0x00643169      2e00           move.l d0, d7
            0x0064316b      3820           move.w -(a0), d4
            0x0064316d      bae82a22       cmpa.w 0x2a22(a0), a5
            0x00643171      bae82a3d       cmpa.w 0x2a3d(a0), a5
            0x00643175      7ae8           moveq 0xe8, d5
            0x00643177      2a00           move.l d0, d5
            0x00643179      12602620       
        < 0x0064317a      6026           bra.b 0x6431a2
           0x0064317c      20bae824       move.l 0x6419a2(pc), (a0)
           0x00643180      22bae824       move.l 0x6419a6(pc), (a1)
       < 0x00643184      601c           bra.b 0x6431a2
          0x00643186      20bae822       move.l 0x6419aa(pc), (a0)
          0x0064318a      32bae822       move.w 0x6419ae(pc), (a1)
      < 0x0064318e      6012           bra.b 0x6431a2
         0x00643190      20bae81e       move.l 0x6419b0(pc), (a0)
         0x00643194      32bae81e       move.w 0x6419b4(pc), (a1)
     < 0x00643198      6008           bra.b 0x6431a2
        0x0064319a      20bae81a       move.l 0x6419b6(pc), (a0)
        0x0064319e      22bae81a       move.l 0x6419ba(pc), (a1)
     > 0x006431a2      4cdf0301       movem.l (a7)+, d0/a0-a1
            0x006431a6      4e5e           unlk a6
            0x006431a8      4e75           rts
            ; CALL XREF from K9_LIBRARY.display_title_b @ 0x644098
            ; CALL XREF from K9_LIBRARY.info_filecard @ 0x64b966
 150: K9_LIBRARY.pick_message ();
           0x006431aa      4e56fed6       link.w a6, 0xfed6
           0x006431ae      bfd5           cmpa.l (a5), a7
       < 0x006431b0      6206           bhi.b 0x6431b8
          0x006431b2      44fc0002       move.w 0x2, ccr
          0x006431b6      4e76           trapv
       > 0x006431b8      defc002a       adda.w 0x2a, a7
           0x006431bc      48e7c0f0       movem.l d0-d1/a0-a3, -(a7)
           0x006431c0      45eeff00       lea.l -0x100(a6), a2
           0x006431c4      47ee000c       lea.l 0xc(a6), a3
           0x006431c8      554f           subq.w 0x2, a7
           0x006431ca      4eb9004755c2   jsr CONFIG.cfg_gender
           0x006431d0      101f           move.b (a7)+, d0
           0x006431d2      0c000003       cmpi.b 0x3, d0
       < 0x006431d6      665c           bne.b 0x643234
          0x006431d8      2f2e0008       move.l 0x8(a6), -(a7)
          0x006431dc      48780000       pea.l 0x0
          0x006431e0      4852           pea.l (a2)
          0x006431e2      3f3c00ff       move.w 0xff, -(a7)
          0x006431e6      4eb900406e56   jsr p_strI1
          0x006431ec      defc000e       adda.w 0xe, a7
          0x006431f0      7000           moveq 0x0, d0
          0x006431f2      41ee000d       lea.l 0xd(a6), a0
          0x006431f6      43fae7c7       lea.l 0x6419bf(pc), a1
      > 0x006431fa      10d9           move.b (a1)+, (a0)+
      < 0x006431fc      51c8fffc       dbra d0, 0x6431fa
          0x00643200      4240           clr.w d0
          0x00643202      1012           move.b (a2), d0
          0x00643204      5200           addq.b 0x1, d0
      < 0x00643206      6406           bcc.b 0x64320e
         0x00643208      4eb900406c8a   jsr p_strovr
      > 0x0064320e      4240           clr.w d0
          0x00643210      1012           move.b (a2), d0
          0x00643212      323c00ff       move.w 0xff, d1
          0x00643216      5341           subq.w 0x1, d1
          0x00643218      b041           cmp.w d1, d0
      < 0x0064321a      6302           bls.b 0x64321e
         0x0064321c      3001           move.w d1, d0
      > 0x0064321e      16bc0001       move.b 0x1, (a3)
          0x00643222      d113           add.b d0, (a3)
          0x00643224      5300           subq.b 0x1, d0
      < 0x00643226      650a           bcs.b 0x643232
         0x00643228      43eeff01       lea.l -0xff(a6), a1
     > 0x0064322c      10d9           move.b (a1)+, (a0)+
     < 0x0064322e      51c8fffc       dbra d0, 0x64322c
     > 0x00643232      6004           bra.b 0x643238
      > 0x00643234      16bae78a       move.b 0x6419c0(pc), (a3)
     > 0x00643238      4cdf0f03       movem.l (a7)+, d0-d1/a0-a3
           0x0064323c      4e5e           unlk a6
           0x0064323e      4e75           rts
            ; CALL XREF from K9_LIBRARY.display_max @ 0x6432cc
            ; CALL XREF from K9_LIBRARY.k9_clear_screen @ 0x64b7de
 52: K9_LIBRARY.get_display_max ();
           0x00643240      4e56ffec       link.w a6, 0xffec
           0x00643244      bfd5           cmpa.l (a5), a7
       < 0x00643246      6206           bhi.b 0x64324e
          0x00643248      44fc0002       move.w 0x2, ccr
          0x0064324c      4e76           trapv
       > 0x0064324e      defc0014       adda.w 0x14, a7
           0x00643252      48e7e080       movem.l d0-d2/a0, -(a7)
           0x00643256      41ee000a       lea.l 0xa(a6), a0
           0x0064325a      7203           moveq 0x3, d1
           0x0064325c      740c           moveq 0xc, d2
           0x0064325e      102e0008       move.b 0x8(a6), d0
           0x00643262      4880           ext.w d0
           0x00643264      b041           cmp.w d1, d0
       < 0x00643266      6302           bls.b 0x64326a
          0x00643268      4e4e           trap 0xe
       > 0x0064326a      d040           add.w d0, d0
           0x0064326c      303b0006       move.w 0x643274(pc, d0.w), d0
           0x00643270      4efb0002       jmp 0x643274(pc, d0.w)
            0x00643274      0008000c       
            0x00643275      08000c00       
            0x00643276      000c0010       
            0x00643277      0c001000       cmpi.b 0x0, d0
            0x0064327b      1420           move.b -(a0), d2
            0x0064327d      8260           or.w -(a0), d1
            0x0064327f      0e208260       
            0x00643280      2082           move.l d2, (a0)
        < 0x00643282      600a           bra.b 0x64328e
           0x00643284      2081           move.l d1, (a0)
       < 0x00643286      6006           bra.b 0x64328e
          0x00643288      20bc00000001   move.l 0x1, (a0)
       > 0x0064328e      4cdf0107       movem.l (a7)+, d0-d2/a0
            0x00643292      4e5e           unlk a6
            0x00643294      4e75           rts
            ; XREFS: CALL 0x006433c6  CALL 0x006433f6  CALL 0x00643960  
            ; XREFS: CALL 0x00643d30  CALL 0x00643fe2  CALL 0x0064443e  
            ; XREFS: CALL 0x00644448  CALL 0x006444c8  CALL 0x006444d4  
            ; XREFS: CALL 0x00644d60  CALL 0x00645052  CALL 0x00646f4e  
            ; XREFS: CALL 0x00647168  
 72: K9_LIBRARY.display_max ();
           0x00643296      4e56ffe8       link.w a6, 0xffe8
           0x0064329a      bfd5           cmpa.l (a5), a7
       < 0x0064329c      6206           bhi.b 0x6432a4
          0x0064329e      44fc0002       move.w 0x2, ccr
          0x006432a2      4e76           trapv
       > 0x006432a4      defc0018       adda.w 0x18, a7
           0x006432a8      48e7c080       movem.l d0-d1/a0, -(a7)
           0x006432ac      103900847e42   move.b 0x847e42, d0
           0x006432b2      4880           ext.w d0
           0x006432b4      c1fc02d0       muls.w 0x2d0, d0
           0x006432b8      594f           subq.w 0x4, a7
           0x006432ba      41f900847e32   lea.l 0x847e32, a0
           0x006432c0      12300032       move.b 0x32(a0, d0.w), d1
           0x006432c4      4881           ext.w d1
           0x006432c6      43bc0003       chk.w 0x3, d1
           0x006432ca      1f01           move.b d1, -(a7)
           0x006432cc      4ebaff72       jsr K9_LIBRARY.get_display_max(pc)
           0x006432d0      544f           addq.w 0x2, a7
           0x006432d2      2d5f0008       move.l (a7)+, 0x8(a6)
           0x006432d6      4cdf0103       movem.l (a7)+, d0-d1/a0
           0x006432da      4e5e           unlk a6
           0x006432dc      4e75           rts
            ; CALL XREF from K9_LIBRARY.show_header @ 0x6437d8
            ; CALL XREF from K9_LIBRARY.k9_redisplay @ 0x644d26
            ; CALL XREF from K9_LIBRARY.cmd_handler @ 0x646834
            ; CALL XREF from K9_LIBRARY.k9_show_title @ 0x649972
 134: K9_LIBRARY.header ();
           0x006432de      4e56fdcc       link.w a6, 0xfdcc
           0x006432e2      bfd5           cmpa.l (a5), a7
       < 0x006432e4      6206           bhi.b 0x6432ec
          0x006432e6      44fc0002       move.w 0x2, ccr
          0x006432ea      4e76           trapv
       > 0x006432ec      defc0234       adda.w 0x234, a7
           0x006432f0      48e7c0e0       movem.l d0-d1/a0-a2, -(a7)
           0x006432f4      103900847e42   move.b 0x847e42, d0
           0x006432fa      4880           ext.w d0
           0x006432fc      c1fc02d0       muls.w 0x2d0, d0
           0x00643300      41f900847e32   lea.l 0x847e32, a0
           0x00643306      4a300034       tst.b 0x34(a0, d0.w)
       < 0x0064330a      6650           bne.b 0x64335c
          0x0064330c      12300032       move.b 0x32(a0, d0.w), d1
          0x00643310      4881           ext.w d1
          0x00643312      43bc0003       chk.w 0x3, d1
          0x00643316      1f01           move.b d1, -(a7)
          0x00643318      514f           subq.w 0x8, a7
          0x0064331a      1f01           move.b d1, -(a7)
          0x0064331c      4eb900660644   jsr K95_CARDS.k95_header_area
          0x00643322      5d4f           subq.w 0x6, a7
          0x00643324      4eb900660086   jsr K95_CARDS.k95_underline_a
          0x0064332a      9efc0100       suba.w 0x100, a7
          0x0064332e      224f           movea.l a7, a1
          0x00643330      45ee010a       lea.l 0x10a(a6), a2
          0x00643334      723f           moveq 0x3f, d1
      > 0x00643336      22da           move.l (a2)+, (a1)+
      < 0x00643338      51c9fffc       dbra d1, 0x643336
          0x0064333c      9efc0100       suba.w 0x100, a7
          0x00643340      224f           movea.l a7, a1
          0x00643342      45ee000a       lea.l 0xa(a6), a2
          0x00643346      723f           moveq 0x3f, d1
      > 0x00643348      22da           move.l (a2)+, (a1)+
      < 0x0064334a      51c9fffc       dbra d1, 0x643348
          0x0064334e      1f2e0008       move.b 0x8(a6), -(a7)
          0x00643352      4eb90065a468   jsr K92_DISPLAY.k92_header
          0x00643358      defc0214       adda.w 0x214, a7
       > 0x0064335c      4cdf0703       movem.l (a7)+, d0-d1/a0-a2
           0x00643360      4e5e           unlk a6
           0x00643362      4e75           rts
            ; CALL XREF from K9_LIBRARY.continuation_he @ 0x644cc8
            ; CALL XREF from K9_LIBRARY.everything_cont @ 0x6471c2
 1156: K9_LIBRARY.show_header ();
           ; var int32_t var_19cah @ a6-0x19ca
           ; var int32_t var_19c6h @ a6-0x19c6
           0x00643364      4e56fac6       link.w a6, 0xfac6
           0x00643368      bfd5           cmpa.l (a5), a7
       < 0x0064336a      6206           bhi.b 0x643372
          0x0064336c      44fc0002       move.w 0x2, ccr
          0x00643370      4e76           trapv
       > 0x00643372      defc023a       adda.w 0x23a, a7
           0x00643376      48e7fff8       movem.l d0-d7/a0-a4, -(a7)
           0x0064337a      45eefe00       lea.l -0x200(a6), a2
           0x0064337e      47eeff00       lea.l -0x100(a6), a3
           0x00643382      49f900406c8a   lea.l p_strovr, a4
           0x00643388      383c00ff       move.w 0xff, d4
           0x0064338c      3a3c0100       move.w 0x100, d5
           0x00643390      7c09           moveq 0x9, d6
           0x00643392      7e0e           moveq 0xe, d7
           0x00643394      202e0114       move.l 0x114(a6), d0
           0x00643398      0c8000000001   cmpi.l 0x1, d0
       < 0x0064339e      6612           bne.b 0x6433b2
          0x006433a0      204a           movea.l a2, a0
          0x006433a2      43fae661       lea.l 0x641a05(pc), a1
          0x006433a6      7208           moveq 0x8, d1
      > 0x006433a8      10d9           move.b (a1)+, (a0)+
      < 0x006433aa      51c9fffc       dbra d1, 0x6433a8
      < 0x006433ae      600000e2       bra.w 0x643492
      > 0x006433b2      4a2e0008       tst.b 0x8(a6)
      < 0x006433b6      662e           bne.b 0x6433e6
         0x006433b8      4aae0118       tst.l 0x118(a6)
     < 0x006433bc      6f28           ble.b 0x6433e6
        0x006433be      222e0118       move.l 0x118(a6), d1
        0x006433c2      9280           sub.l d0, d1
        0x006433c4      594f           subq.w 0x4, a7
        0x006433c6      4ebafece       jsr K9_LIBRARY.display_max(pc)
        0x006433ca      241f           move.l (a7)+, d2
        0x006433cc      5382           subq.l 0x1, d2
        0x006433ce      b282           cmp.l d2, d1
    < 0x006433d0      6e14           bgt.b 0x6433e6
       0x006433d2      24bae63a       move.l 0x641a0e(pc), (a2)
       0x006433d6      3d7ae63afe04   move.w 0x641a12(pc), -0x1fc(a6)
       0x006433dc      1d7ae636fe06   move.b 0x641a14(pc), -0x1fa(a6)
   < 0x006433e2      600000ae       bra.w 0x643492
   > 0x006433e6      4a2e0008       tst.b 0x8(a6)
     < 0x006433ea      6724           beq.b 0x643410
        0x006433ec      4a80           tst.l d0
    < 0x006433ee      6c20           bge.b 0x643410
       0x006433f0      2200           move.l d0, d1
       0x006433f2      4481           neg.l d1
       0x006433f4      594f           subq.w 0x4, a7
       0x006433f6      4ebafe9e       jsr K9_LIBRARY.display_max(pc)
       0x006433fa      b29f           cmp.l (a7)+, d1
   < 0x006433fc      6e12           bgt.b 0x643410
      0x006433fe      204a           movea.l a2, a0
      0x00643400      43fae613       lea.l 0x641a15(pc), a1
      0x00643404      7206           moveq 0x6, d1
  > 0x00643406      10d9           move.b (a1)+, (a0)+
  < 0x00643408      51c9fffc       dbra d1, 0x643406
  < 0x0064340c      60000084       bra.w 0x643492
  > 0x00643410      2200           move.l d0, d1
    < 0x00643412      6a02           bpl.b 0x643416
       0x00643414      4481           neg.l d1
    > 0x00643416      2f01           move.l d1, -(a7)
        0x00643418      48780000       pea.l 0x0
        0x0064341c      4853           pea.l (a3)
        0x0064341e      3f04           move.w d4, -(a7)
        0x00643420      4eb900406e56   jsr p_strI1
        0x00643426      dec7           adda.w d7, a7
        0x00643428      7202           moveq 0x2, d1
        0x0064342a      41eefe01       lea.l -0x1ff(a6), a0
        0x0064342e      43fae5ed       lea.l 0x641a1d(pc), a1
    > 0x00643432      10d9           move.b (a1)+, (a0)+
    < 0x00643434      51c9fffc       dbra d1, 0x643432
        0x00643438      4241           clr.w d1
        0x0064343a      1213           move.b (a3), d1
        0x0064343c      5601           addq.b 0x3, d1
    < 0x0064343e      6402           bcc.b 0x643442
       0x00643440      4e94           jsr (a4)                    ; fcn.0000000d
    > 0x00643442      4241           clr.w d1
        0x00643444      1213           move.b (a3), d1
        0x00643446      3404           move.w d4, d2
        0x00643448      5742           subq.w 0x3, d2
        0x0064344a      b242           cmp.w d2, d1
    < 0x0064344c      6302           bls.b 0x643450
       0x0064344e      3202           move.w d2, d1
    > 0x00643450      14bc0003       move.b 0x3, (a2)
        0x00643454      d312           add.b d1, (a2)
        0x00643456      5301           subq.b 0x1, d1
    < 0x00643458      650a           bcs.b 0x643464
       0x0064345a      43eeff01       lea.l -0xff(a6), a1
   > 0x0064345e      10d9           move.b (a1)+, (a0)+
   < 0x00643460      51c9fffc       dbra d1, 0x64345e
    > 0x00643464      4a80           tst.l d0
    < 0x00643466      6c2a           bge.b 0x643492
       0x00643468      4241           clr.w d1
       0x0064346a      1212           move.b (a2), d1
       0x0064346c      41eefe01       lea.l -0x1ff(a6), a0
       0x00643470      d0c1           adda.w d1, a0
       0x00643472      7409           moveq 0x9, d2
       0x00643474      d401           add.b d1, d2
   < 0x00643476      6402           bcc.b 0x64347a
      0x00643478      4e94           jsr (a4)                    ; fcn.0000000d
   > 0x0064347a      7409           moveq 0x9, d2
       0x0064347c      3604           move.w d4, d3
       0x0064347e      9641           sub.w d1, d3
       0x00643480      b443           cmp.w d3, d2
   < 0x00643482      6302           bls.b 0x643486
      0x00643484      3403           move.w d3, d2
   > 0x00643486      d512           add.b d2, (a2)
       0x00643488      43fae597       lea.l 0x641a21(pc), a1
   > 0x0064348c      10d9           move.b (a1)+, (a0)+
   < 0x0064348e      51cafffc       dbra d2, 0x64348c
  > 0x00643492      4aae0118       tst.l 0x118(a6)
       < 0x00643496      660e           bne.b 0x6434a6
          0x00643498      4a2e0008       tst.b 0x8(a6)
      < 0x0064349c      6708           beq.b 0x6434a6
         0x0064349e      16bae58a       move.b 0x641a2a(pc), (a3)
     < 0x006434a2      600000de       bra.w 0x643582
     > 0x006434a6      2f2e0118       move.l 0x118(a6), -(a7)
          0x006434aa      48780000       pea.l 0x0
          0x006434ae      4853           pea.l (a3)
          0x006434b0      3f04           move.w d4, -(a7)
          0x006434b2      4eb900406e56   jsr p_strI1
          0x006434b8      dec7           adda.w d7, a7
          0x006434ba      4a2e0008       tst.b 0x8(a6)
      < 0x006434be      6746           beq.b 0x643506
         0x006434c0      9ec5           suba.w d5, a7
         0x006434c2      7008           moveq 0x8, d0
         0x006434c4      41ef0001       lea.l 0x1(a7), a0
         0x006434c8      43fae562       lea.l 0x641a2c(pc), a1
     > 0x006434cc      10d9           move.b (a1)+, (a0)+
     < 0x006434ce      51c8fffc       dbra d0, 0x6434cc
         0x006434d2      4240           clr.w d0
         0x006434d4      1013           move.b (a3), d0
         0x006434d6      d006           add.b d6, d0
     < 0x006434d8      6402           bcc.b 0x6434dc
        0x006434da      4e94           jsr (a4)                    ; fcn.0000000d
     > 0x006434dc      4240           clr.w d0
         0x006434de      1013           move.b (a3), d0
         0x006434e0      3204           move.w d4, d1
         0x006434e2      9246           sub.w d6, d1
         0x006434e4      b041           cmp.w d1, d0
     < 0x006434e6      6302           bls.b 0x6434ea
        0x006434e8      3001           move.w d1, d0
     > 0x006434ea      1e86           move.b d6, (a7)
         0x006434ec      d117           add.b d0, (a7)
         0x006434ee      5300           subq.b 0x1, d0
     < 0x006434f0      650a           bcs.b 0x6434fc
        0x006434f2      43eeff01       lea.l -0xff(a6), a1
    > 0x006434f6      10d9           move.b (a1)+, (a0)+
    < 0x006434f8      51c8fffc       dbra d0, 0x6434f6
     > 0x006434fc      204b           movea.l a3, a0
         0x006434fe      703f           moveq 0x3f, d0
     > 0x00643500      20df           move.l (a7)+, (a0)+
     < 0x00643502      51c8fffc       dbra d0, 0x643500
      > 0x00643506      554f           subq.w 0x2, a7
          0x00643508      4eb900475a5a   jsr CONFIG.cfg_dougal
          0x0064350e      4a1f           tst.b (a7)+
      < 0x00643510      6746           beq.b 0x643558
         0x00643512      102e0014       move.b 0x14(a6), d0
         0x00643516      0c000014       cmpi.b 0x14, d0
     < 0x0064351a      643c           bcc.b 0x643558
        0x0064351c      9ec5           suba.w d5, a7
        0x0064351e      4eb9005b7cfa   jsr HENRY_DUMMY.clip_location_t
        0x00643524      4240           clr.w d0
        0x00643526      1013           move.b (a3), d0
        0x00643528      41eeff01       lea.l -0xff(a6), a0
        0x0064352c      d0c0           adda.w d0, a0
        0x0064352e      4241           clr.w d1
        0x00643530      1217           move.b (a7), d1
        0x00643532      d200           add.b d0, d1
    < 0x00643534      6402           bcc.b 0x643538
       0x00643536      4e94           jsr (a4)                    ; fcn.0000000d
    > 0x00643538      4241           clr.w d1
        0x0064353a      1217           move.b (a7), d1
        0x0064353c      3404           move.w d4, d2
        0x0064353e      9440           sub.w d0, d2
        0x00643540      b242           cmp.w d2, d1
    < 0x00643542      6302           bls.b 0x643546
       0x00643544      3202           move.w d2, d1
    > 0x00643546      d313           add.b d1, (a3)
        0x00643548      5301           subq.b 0x1, d1
    < 0x0064354a      650a           bcs.b 0x643556
       0x0064354c      43ef0001       lea.l 0x1(a7), a1
   > 0x00643550      10d9           move.b (a1)+, (a0)+
   < 0x00643552      51c9fffc       dbra d1, 0x643550
    > 0x00643556      dec5           adda.w d5, a7
     > 0x00643558      4240           clr.w d0
          0x0064355a      1013           move.b (a3), d0
          0x0064355c      41eeff01       lea.l -0xff(a6), a0
          0x00643560      d0c0           adda.w d0, a0
          0x00643562      7203           moveq 0x3, d1
          0x00643564      d200           add.b d0, d1
      < 0x00643566      6402           bcc.b 0x64356a
         0x00643568      4e94           jsr (a4)                    ; fcn.0000000d
      > 0x0064356a      7203           moveq 0x3, d1
          0x0064356c      3404           move.w d4, d2
          0x0064356e      9440           sub.w d0, d2
          0x00643570      b242           cmp.w d2, d1
      < 0x00643572      6302           bls.b 0x643576
         0x00643574      3202           move.w d2, d1
      > 0x00643576      d313           add.b d1, (a3)
          0x00643578      43fae4bc       lea.l 0x641a36(pc), a1
      > 0x0064357c      10d9           move.b (a1)+, (a0)+
      < 0x0064357e      51c9fffc       dbra d1, 0x64357c
     > 0x00643582      4a2e0012       tst.b 0x12(a6)
       < 0x00643586      6714           beq.b 0x64359c
          0x00643588      41eefd00       lea.l -0x300(a6), a0
          0x0064358c      43fae4ab       lea.l 0x641a39(pc), a1
          0x00643590      7009           moveq 0x9, d0
      > 0x00643592      10d9           move.b (a1)+, (a0)+
      < 0x00643594      51c8fffc       dbra d0, 0x643592
      < 0x00643598      60000094       bra.w 0x64362e
      > 0x0064359c      4aae0118       tst.l 0x118(a6)
      < 0x006435a0      6618           bne.b 0x6435ba
         0x006435a2      4a2e0008       tst.b 0x8(a6)
     < 0x006435a6      6612           bne.b 0x6435ba
        0x006435a8      41eefd00       lea.l -0x300(a6), a0
        0x006435ac      43fae495       lea.l 0x641a43(pc), a1
        0x006435b0      7011           moveq 0x11, d0
    > 0x006435b2      10d9           move.b (a1)+, (a0)+
    < 0x006435b4      51c8fffc       dbra d0, 0x6435b2
    < 0x006435b8      6074           bra.b 0x64362e
    > 0x006435ba      4240           clr.w d0
         0x006435bc      1012           move.b (a2), d0
         0x006435be      3200           move.w d0, d1
         0x006435c0      41eefd01       lea.l -0x2ff(a6), a0
         0x006435c4      5301           subq.b 0x1, d1
     < 0x006435c6      650a           bcs.b 0x6435d2
        0x006435c8      43eefe01       lea.l -0x1ff(a6), a1
    > 0x006435cc      10d9           move.b (a1)+, (a0)+
    < 0x006435ce      51c9fffc       dbra d1, 0x6435cc
     > 0x006435d2      7204           moveq 0x4, d1
         0x006435d4      d200           add.b d0, d1
     < 0x006435d6      6402           bcc.b 0x6435da
        0x006435d8      4e94           jsr (a4)                    ; fcn.0000000d
     > 0x006435da      7204           moveq 0x4, d1
         0x006435dc      3404           move.w d4, d2
         0x006435de      9440           sub.w d0, d2
         0x006435e0      b242           cmp.w d2, d1
     < 0x006435e2      6302           bls.b 0x6435e6
        0x006435e4      3202           move.w d2, d1
     > 0x006435e6      1d40fd00       move.b d0, -0x300(a6)
         0x006435ea      d32efd00       add.b d1, -0x300(a6)
         0x006435ee      43fae466       lea.l 0x641a56(pc), a1
     > 0x006435f2      10d9           move.b (a1)+, (a0)+
     < 0x006435f4      51c9fffc       dbra d1, 0x6435f2
         0x006435f8      4240           clr.w d0
         0x006435fa      102efd00       move.b -0x300(a6), d0
         0x006435fe      41eefd01       lea.l -0x2ff(a6), a0
         0x00643602      d0c0           adda.w d0, a0
         0x00643604      4241           clr.w d1
         0x00643606      1213           move.b (a3), d1
         0x00643608      d200           add.b d0, d1
     < 0x0064360a      6402           bcc.b 0x64360e
        0x0064360c      4e94           jsr (a4)                    ; fcn.0000000d
     > 0x0064360e      4241           clr.w d1
         0x00643610      1213           move.b (a3), d1
         0x00643612      3404           move.w d4, d2
         0x00643614      9440           sub.w d0, d2
         0x00643616      b242           cmp.w d2, d1
     < 0x00643618      6302           bls.b 0x64361c
        0x0064361a      3202           move.w d2, d1
     > 0x0064361c      d32efd00       add.b d1, -0x300(a6)
         0x00643620      5301           subq.b 0x1, d1
     < 0x00643622      650a           bcs.b 0x64362e
        0x00643624      43eeff01       lea.l -0xff(a6), a1
    > 0x00643628      10d9           move.b (a1)+, (a0)+
    < 0x0064362a      51c9fffc       dbra d1, 0x643628
    > 0x0064362e      554f           subq.w 0x2, a7
           0x00643630      4eb900475a5a   jsr CONFIG.cfg_dougal
           0x00643636      4a1f           tst.b (a7)+
       < 0x00643638      670c           beq.b 0x643646
          0x0064363a      4852           pea.l (a2)
          0x0064363c      4eb9005b7d16   jsr HENRY_DUMMY.get_free_string
          0x00643642      584f           addq.w 0x4, a7
      < 0x00643644      6004           bra.b 0x64364a
      > 0x00643646      14bae412       move.b 0x641a5a(pc), (a2)
      > 0x0064364a      4240           clr.w d0
           0x0064364c      102efd00       move.b -0x300(a6), d0
           0x00643650      41eefd01       lea.l -0x2ff(a6), a0
           0x00643654      d0c0           adda.w d0, a0
           0x00643656      7201           moveq 0x1, d1
           0x00643658      3404           move.w d4, d2
           0x0064365a      9440           sub.w d0, d2
           0x0064365c      b242           cmp.w d2, d1
       < 0x0064365e      6302           bls.b 0x643662
          0x00643660      3202           move.w d2, d1
       > 0x00643662      d32efd00       add.b d1, -0x300(a6)
           0x00643666      43fae3f4       lea.l 0x641a5c(pc), a1
       > 0x0064366a      10d9           move.b (a1)+, (a0)+
       < 0x0064366c      51c9fffc       dbra d1, 0x64366a
           0x00643670      4240           clr.w d0
           0x00643672      102efd00       move.b -0x300(a6), d0
           0x00643676      41eefd01       lea.l -0x2ff(a6), a0
           0x0064367a      d0c0           adda.w d0, a0
           0x0064367c      4241           clr.w d1
           0x0064367e      122e0014       move.b 0x14(a6), d1
           0x00643682      d200           add.b d0, d1
       < 0x00643684      6402           bcc.b 0x643688
          0x00643686      4e94           jsr (a4)                    ; fcn.0000000d
       > 0x00643688      4241           clr.w d1
           0x0064368a      122e0014       move.b 0x14(a6), d1
           0x0064368e      3404           move.w d4, d2
           0x00643690      9440           sub.w d0, d2
           0x00643692      b242           cmp.w d2, d1
       < 0x00643694      6302           bls.b 0x643698
          0x00643696      3202           move.w d2, d1
       > 0x00643698      d32efd00       add.b d1, -0x300(a6)
           0x0064369c      5301           subq.b 0x1, d1
       < 0x0064369e      650a           bcs.b 0x6436aa
          0x006436a0      43ee0015       lea.l 0x15(a6), a1
      > 0x006436a4      10d9           move.b (a1)+, (a0)+
      < 0x006436a6      51c9fffc       dbra d1, 0x6436a4
       > 0x006436aa      4240           clr.w d0
           0x006436ac      102efd00       move.b -0x300(a6), d0
           0x006436b0      41eefd01       lea.l -0x2ff(a6), a0
           0x006436b4      d0c0           adda.w d0, a0
           0x006436b6      4241           clr.w d1
           0x006436b8      1212           move.b (a2), d1
           0x006436ba      d200           add.b d0, d1
       < 0x006436bc      6402           bcc.b 0x6436c0
          0x006436be      4e94           jsr (a4)                    ; fcn.0000000d
       > 0x006436c0      4241           clr.w d1
           0x006436c2      1212           move.b (a2), d1
           0x006436c4      3404           move.w d4, d2
           0x006436c6      9440           sub.w d0, d2
           0x006436c8      b242           cmp.w d2, d1
       < 0x006436ca      6302           bls.b 0x6436ce
          0x006436cc      3202           move.w d2, d1
       > 0x006436ce      d32efd00       add.b d1, -0x300(a6)
           0x006436d2      5301           subq.b 0x1, d1
       < 0x006436d4      650a           bcs.b 0x6436e0
          0x006436d6      43eefe01       lea.l -0x1ff(a6), a1
      > 0x006436da      10d9           move.b (a1)+, (a0)+
      < 0x006436dc      51c9fffc       dbra d1, 0x6436da
       > 0x006436e0      14bae37b       move.b 0x641a5d(pc), (a2)
           0x006436e4      4a2e000c       tst.b 0xc(a6)
       < 0x006436e8      6606           bne.b 0x6436f0
          0x006436ea      4a2e0010       tst.b 0x10(a6)
      < 0x006436ee      6724           beq.b 0x643714
      > 0x006436f0      4240           clr.w d0
          0x006436f2      1012           move.b (a2), d0
          0x006436f4      41eefe01       lea.l -0x1ff(a6), a0
          0x006436f8      d0c0           adda.w d0, a0
          0x006436fa      7201           moveq 0x1, d1
          0x006436fc      3404           move.w d4, d2
          0x006436fe      9440           sub.w d0, d2
          0x00643700      b242           cmp.w d2, d1
      < 0x00643702      6302           bls.b 0x643706
         0x00643704      3202           move.w d2, d1
      > 0x00643706      d312           add.b d1, (a2)
          0x00643708      43fae355       lea.l 0x641a5f(pc), a1
      > 0x0064370c      10d9           move.b (a1)+, (a0)+
      < 0x0064370e      51c9fffc       dbra d1, 0x64370c
      < 0x00643712      6022           bra.b 0x643736
      > 0x00643714      4240           clr.w d0
          0x00643716      1012           move.b (a2), d0
          0x00643718      41eefe01       lea.l -0x1ff(a6), a0
          0x0064371c      d0c0           adda.w d0, a0
          0x0064371e      7201           moveq 0x1, d1
          0x00643720      3404           move.w d4, d2
          0x00643722      9440           sub.w d0, d2
          0x00643724      b242           cmp.w d2, d1
      < 0x00643726      6302           bls.b 0x64372a
         0x00643728      3202           move.w d2, d1
      > 0x0064372a      d312           add.b d1, (a2)
          0x0064372c      43fae333       lea.l 0x641a61(pc), a1
      > 0x00643730      10d9           move.b (a1)+, (a0)+
      < 0x00643732      51c9fffc       dbra d1, 0x643730
       > 0x00643736      4a2e000a       tst.b 0xa(a6)
       < 0x0064373a      6606           bne.b 0x643742
          0x0064373c      4a2e000e       tst.b 0xe(a6)
      < 0x00643740      6724           beq.b 0x643766
      > 0x00643742      4240           clr.w d0
          0x00643744      1012           move.b (a2), d0
          0x00643746      41eefe01       lea.l -0x1ff(a6), a0
          0x0064374a      d0c0           adda.w d0, a0
          0x0064374c      7201           moveq 0x1, d1
          0x0064374e      3404           move.w d4, d2
          0x00643750      9440           sub.w d0, d2
          0x00643752      b242           cmp.w d2, d1
      < 0x00643754      6302           bls.b 0x643758
         0x00643756      3202           move.w d2, d1
      > 0x00643758      d312           add.b d1, (a2)
          0x0064375a      43fae307       lea.l 0x641a63(pc), a1
      > 0x0064375e      10d9           move.b (a1)+, (a0)+
      < 0x00643760      51c9fffc       dbra d1, 0x64375e
      < 0x00643764      6022           bra.b 0x643788
      > 0x00643766      4240           clr.w d0
          0x00643768      1012           move.b (a2), d0
          0x0064376a      41eefe01       lea.l -0x1ff(a6), a0
          0x0064376e      d0c0           adda.w d0, a0
          0x00643770      7201           moveq 0x1, d1
          0x00643772      3404           move.w d4, d2
          0x00643774      9440           sub.w d0, d2
          0x00643776      b242           cmp.w d2, d1
      < 0x00643778      6302           bls.b 0x64377c
         0x0064377a      3202           move.w d2, d1
      > 0x0064377c      d312           add.b d1, (a2)
          0x0064377e      43fae2e5       lea.l 0x641a65(pc), a1
      > 0x00643782      10d9           move.b (a1)+, (a0)+
      < 0x00643784      51c9fffc       dbra d1, 0x643782
       > 0x00643788      103900847e42   move.b 0x847e42, d0
           0x0064378e      4880           ext.w d0
           0x00643790      c1fc02d0       muls.w 0x2d0, d0
           0x00643794      41f900847e32   lea.l 0x847e32, a0
           0x0064379a      4a300034       tst.b 0x34(a0, d0.w)
       < 0x0064379e      6640           bne.b 0x6437e0
          0x006437a0      9ec5           suba.w d5, a7
          0x006437a2      204f           movea.l a7, a0
          0x006437a4      43eefd00       lea.l -0x300(a6), a1
          0x006437a8      703f           moveq 0x3f, d0
      > 0x006437aa      20d9           move.l (a1)+, (a0)+
      < 0x006437ac      51c8fffc       dbra d0, 0x6437aa
          0x006437b0      9ec5           suba.w d5, a7
          0x006437b2      204f           movea.l a7, a0
          0x006437b4      224a           movea.l a2, a1
          0x006437b6      703f           moveq 0x3f, d0
      > 0x006437b8      20d9           move.l (a1)+, (a0)+
      < 0x006437ba      51c8fffc       dbra d0, 0x6437b8
          0x006437be      4227           clr.b -(a7)
          0x006437c0      4a2e0012       tst.b 0x12(a6)
      < 0x006437c4      6610           bne.b 0x6437d6
         0x006437c6      4aae0118       tst.l 0x118(a6)
     < 0x006437ca      660c           bne.b 0x6437d8
        0x006437cc      102e0008       move.b 0x8(a6), d0
        0x006437d0      4400           neg.b d0
        0x006437d2      5200           addq.b 0x1, d0
    < 0x006437d4      6702           beq.b 0x6437d8
    > 0x006437d6      5217           addq.b 0x1, (a7)
    > 0x006437d8      4ebafb04       jsr K9_LIBRARY.header(pc)
          0x006437dc      defc0202       adda.w 0x202, a7
       > 0x006437e0      4cdf1fff       movem.l (a7)+, d0-d7/a0-a4
           0x006437e4      4e5e           unlk a6
           0x006437e6      4e75           rts
            ; CALL XREFS from K9_LIBRARY.k9_pick @ 0x6439d2, 0x643a1a
 260: K9_LIBRARY.inside ();
           0x006437e8      4e56ffd2       link.w a6, 0xffd2
           0x006437ec      bfd5           cmpa.l (a5), a7
       < 0x006437ee      6206           bhi.b 0x6437f6
          0x006437f0      44fc0002       move.w 0x2, ccr
          0x006437f4      4e76           trapv
       > 0x006437f6      defc002e       adda.w 0x2e, a7
           0x006437fa      48e7f8f0       movem.l d0-d4/a0-a3, -(a7)
           0x006437fe      43ee0008       lea.l 0x8(a6), a1
           0x00643802      45ee000a       lea.l 0xa(a6), a2
           0x00643806      47ee0014       lea.l 0x14(a6), a3
           0x0064380a      263cffff8000   move.l 0xffff8000, d3
           0x00643810      283c0000ffff   move.l 0xffff, d4
           0x00643816      3011           move.w (a1), d0
           0x00643818      48c0           ext.l d0
           0x0064381a      323900847e32   move.w 0x847e32, d1
           0x00643820      48c1           ext.l d1
           0x00643822      4481           neg.l d1
           0x00643824      d280           add.l d0, d1
           0x00643826      9283           sub.l d3, d1
           0x00643828      b284           cmp.l d4, d1
       < 0x0064382a      6302           bls.b 0x64382e
          0x0064382c      4e4f           trap 0xf
       > 0x0064382e      d283           add.l d3, d1
           0x00643830      3281           move.w d1, (a1)
           0x00643832      3012           move.w (a2), d0
           0x00643834      48c0           ext.l d0
           0x00643836      323900847e34   move.w 0x847e34, d1
           0x0064383c      48c1           ext.l d1
           0x0064383e      4481           neg.l d1
           0x00643840      d280           add.l d0, d1
           0x00643842      068100000080   addi.l 0x80, d1
           0x00643848      9283           sub.l d3, d1
           0x0064384a      b284           cmp.l d4, d1
       < 0x0064384c      6302           bls.b 0x643850
          0x0064384e      4e4f           trap 0xf
       > 0x00643850      d283           add.l d3, d1
           0x00643852      3481           move.w d1, (a2)
           0x00643854      422e0016       clr.b 0x16(a6)
           0x00643858      302e0012       move.w 0x12(a6), d0
           0x0064385c      b051           cmp.w (a1), d0
       < 0x0064385e      6d000084       blt.w 0x6438e4
          0x00643862      3211           move.w (a1), d1
          0x00643864      48c1           ext.l d1
          0x00643866      342e000c       move.w 0xc(a6), d2
          0x0064386a      48c2           ext.l d2
          0x0064386c      d481           add.l d1, d2
          0x0064386e      48c0           ext.l d0
          0x00643870      b082           cmp.l d2, d0
      < 0x00643872      6c70           bge.b 0x6438e4
         0x00643874      3212           move.w (a2), d1
         0x00643876      48c1           ext.l d1
         0x00643878      342e0010       move.w 0x10(a6), d2
         0x0064387c      48c2           ext.l d2
         0x0064387e      d481           add.l d1, d2
         0x00643880      3213           move.w (a3), d1
         0x00643882      48c1           ext.l d1
         0x00643884      b282           cmp.l d2, d1
     < 0x00643886      6d5c           blt.b 0x6438e4
        0x00643888      3212           move.w (a2), d1
        0x0064388a      48c1           ext.l d1
        0x0064388c      342e000e       move.w 0xe(a6), d2
        0x00643890      48c2           ext.l d2
        0x00643892      d481           add.l d1, d2
        0x00643894      322e0010       move.w 0x10(a6), d1
        0x00643898      48c1           ext.l d1
        0x0064389a      d282           add.l d2, d1
        0x0064389c      3413           move.w (a3), d2
        0x0064389e      48c2           ext.l d2
        0x006438a0      b481           cmp.l d1, d2
    < 0x006438a2      6c40           bge.b 0x6438e4
       0x006438a4      1d7c00010016   move.b 0x1, 0x16(a6)
       0x006438aa      206c001a       movea.l 0x1a(a4), a0
       0x006438ae      48c0           ext.l d0
       0x006438b0      3211           move.w (a1), d1
       0x006438b2      48c1           ext.l d1
       0x006438b4      4481           neg.l d1
       0x006438b6      d280           add.l d0, d1
       0x006438b8      9283           sub.l d3, d1
       0x006438ba      b284           cmp.l d4, d1
   < 0x006438bc      6302           bls.b 0x6438c0
      0x006438be      4e4f           trap 0xf
   > 0x006438c0      d283           add.l d3, d1
       0x006438c2      3081           move.w d1, (a0)
       0x006438c4      3213           move.w (a3), d1
       0x006438c6      48c1           ext.l d1
       0x006438c8      3412           move.w (a2), d2
       0x006438ca      48c2           ext.l d2
       0x006438cc      4482           neg.l d2
       0x006438ce      d481           add.l d1, d2
       0x006438d0      068200000080   addi.l 0x80, d2
       0x006438d6      9483           sub.l d3, d2
       0x006438d8      b484           cmp.l d4, d2
   < 0x006438da      6302           bls.b 0x6438de
      0x006438dc      4e4f           trap 0xf
   > 0x006438de      d483           add.l d3, d2
       0x006438e0      31420002       move.w d2, 0x2(a0)
    > 0x006438e4      4cdf0f1f       movem.l (a7)+, d0-d4/a0-a3
           0x006438e8      4e5e           unlk a6
           0x006438ea      4e75           rts
            ; CALL XREF from MENULIBFNDCOM.found_display_p @ 0x759e00
 394: K9_LIBRARY.k9_pick ();
           0x006438ec      4e56ff98       link.w a6, 0xff98
           0x006438f0      bfd5           cmpa.l (a5), a7
       < 0x006438f2      6206           bhi.b 0x6438fa
          0x006438f4      44fc0002       move.w 0x2, ccr
          0x006438f8      4e76           trapv
       > 0x006438fa      defc0056       adda.w 0x56, a7
           0x006438fe      48e7fff8       movem.l d0-d7/a0-a4, -(a7)
           0x00643902      7401           moveq 0x1, d2
           0x00643904      2a3cffff8000   move.l 0xffff8000, d5
           0x0064390a      2c3c0000ffff   move.l 0xffff, d6
           0x00643910      206e0010       movea.l 0x10(a6), a0
           0x00643914      2082           move.l d2, (a0)
           0x00643916      7e00           moveq 0x0, d7
           0x00643918      554f           subq.w 0x2, a7
           0x0064391a      4eb900478be0   jsr CONFIGCOM.cfg_vo_type
           0x00643920      101f           move.b (a7)+, d0
           0x00643922      0c000006       cmpi.b 0x6, d0
       < 0x00643926      6616           bne.b 0x64393e
          0x00643928      302e0018       move.w 0x18(a6), d0
          0x0064392c      48c0           ext.l d0
          0x0064392e      e380           asl.l 0x1, d0
          0x00643930      9085           sub.l d5, d0
          0x00643932      b086           cmp.l d6, d0
      < 0x00643934      6302           bls.b 0x643938
         0x00643936      4e4f           trap 0xf
      > 0x00643938      d085           add.l d5, d0
          0x0064393a      3d400018       move.w d0, 0x18(a6)
       > 0x0064393e      103900847e42   move.b 0x847e42, d0
           0x00643944      4880           ext.w d0
           0x00643946      c1fc02d0       muls.w 0x2d0, d0
           0x0064394a      41f900847e32   lea.l 0x847e32, a0
           0x00643950      226e0008       movea.l 0x8(a6), a1
           0x00643954      246e0010       movea.l 0x10(a6), a2
       > 0x00643958      4a07           tst.b d7
      < 0x0064395a      660000d8       bne.w 0x643a34
         0x0064395e      594f           subq.w 0x4, a7
         0x00643960      4ebaf934       jsr K9_LIBRARY.display_max(pc)
         0x00643964      2212           move.l (a2), d1
         0x00643966      b29f           cmp.l (a7)+, d1
     < 0x00643968      6e0000ca       bgt.w 0x643a34
        0x0064396c      514f           subq.w 0x8, a7
        0x0064396e      12300032       move.b 0x32(a0, d0.w), d1
        0x00643972      4881           ext.w d1
        0x00643974      43bc0003       chk.w 0x3, d1
        0x00643978      1f01           move.b d1, -(a7)
        0x0064397a      2f12           move.l (a2), -(a7)
        0x0064397c      4227           clr.b -(a7)
        0x0064397e      4eb900660596   jsr K95_CARDS.k95_get_lib_ite
        0x00643984      504f           addq.w 0x8, a7
        0x00643986      2d5ffff0       move.l (a7)+, -0x10(a6)
        0x0064398a      2d57fff4       move.l (a7), -0xc(a6)
        0x0064398e      594f           subq.w 0x4, a7
        0x00643990      12300032       move.b 0x32(a0, d0.w), d1
        0x00643994      4881           ext.w d1
        0x00643996      43bc0003       chk.w 0x3, d1
        0x0064399a      1f01           move.b d1, -(a7)
        0x0064399c      2f12           move.l (a2), -(a7)
        0x0064399e      1f02           move.b d2, -(a7)
        0x006439a0      4eb900660596   jsr K95_CARDS.k95_get_lib_ite
        0x006439a6      504f           addq.w 0x8, a7
        0x006439a8      2d5ffff8       move.l (a7)+, -0x8(a6)
        0x006439ac      2d57fffc       move.l (a7), -0x4(a6)
        0x006439b0      544f           addq.w 0x2, a7
        0x006439b2      2f2e0018       move.l 0x18(a6), -(a7)
        0x006439b6      222e0014       move.l 0x14(a6), d1
        0x006439ba      9285           sub.l d5, d1
        0x006439bc      b286           cmp.l d6, d1
    < 0x006439be      6302           bls.b 0x6439c2
       0x006439c0      4e4f           trap 0xf
    > 0x006439c2      d285           add.l d5, d1
        0x006439c4      3f01           move.w d1, -(a7)
        0x006439c6      2f2efff4       move.l -0xc(a6), -(a7)
        0x006439ca      2f2efff0       move.l -0x10(a6), -(a7)
        0x006439ce      49eeffee       lea.l -0x12(a6), a4
        0x006439d2      4ebafe14       jsr K9_LIBRARY.inside(pc)
        0x006439d6      defc000e       adda.w 0xe, a7
        0x006439da      121f           move.b (a7)+, d1
        0x006439dc      4881           ext.w d1
        0x006439de      4382           chk.w d2, d1
        0x006439e0      1e01           move.b d1, d7
        0x006439e2      12bae08c       move.b 0x641a70(pc), (a1)
        0x006439e6      137ae0890001   move.b 0x641a71(pc), 0x1(a1)
        0x006439ec      137ae0840002   move.b 0x641a72(pc), 0x2(a1)
        0x006439f2      137ae07f0003   move.b 0x641a73(pc), 0x3(a1)
        0x006439f8      554f           subq.w 0x2, a7
        0x006439fa      2f2e0018       move.l 0x18(a6), -(a7)
        0x006439fe      222e0014       move.l 0x14(a6), d1
        0x00643a02      9285           sub.l d5, d1
        0x00643a04      b286           cmp.l d6, d1
    < 0x00643a06      6302           bls.b 0x643a0a
       0x00643a08      4e4f           trap 0xf
    > 0x00643a0a      d285           add.l d5, d1
        0x00643a0c      3f01           move.w d1, -(a7)
        0x00643a0e      2f2efffc       move.l -0x4(a6), -(a7)
        0x00643a12      2f2efff8       move.l -0x8(a6), -(a7)
        0x00643a16      49eeffee       lea.l -0x12(a6), a4
        0x00643a1a      4ebafdcc       jsr K9_LIBRARY.inside(pc)
        0x00643a1e      defc000e       adda.w 0xe, a7
        0x00643a22      1207           move.b d7, d1
        0x00643a24      821f           or.b (a7)+, d1
        0x00643a26      4881           ext.w d1
        0x00643a28      4382           chk.w d2, d1
        0x00643a2a      1e01           move.b d1, d7
    < 0x00643a2c      6602           bne.b 0x643a30
       0x00643a2e      5292           addq.l 0x1, (a2)
    < 0x00643a30      6000ff26       bra.w 0x643958
     > 0x00643a34      4a07           tst.b d7
       < 0x00643a36      672c           beq.b 0x643a64
          0x00643a38      226e000c       movea.l 0xc(a6), a1
          0x00643a3c      2212           move.l (a2), d1
          0x00643a3e      5381           subq.l 0x1, d1
          0x00643a40      0c810000000b   cmpi.l 0xb, d1
      < 0x00643a46      6302           bls.b 0x643a4a
         0x00643a48      4e4f           trap 0xf
      > 0x00643a4a      2801           move.l d1, d4
          0x00643a4c      761e           moveq 0x1e, d3
          0x00643a4e      4eb900406a74   jsr fcn.00406a74
          0x00643a54      47f00012       lea.l 0x12(a0, d0.w), a3
          0x00643a58      12334860       move.b 0x60(a3, d4.l), d1
          0x00643a5c      4881           ext.w d1
          0x00643a5e      4382           chk.w d2, d1
          0x00643a60      1281           move.b d1, (a1)
      < 0x00643a62      6006           bra.b 0x643a6a
      > 0x00643a64      226e000c       movea.l 0xc(a6), a1
          0x00643a68      4211           clr.b (a1)
      > 0x00643a6a      1d47001c       move.b d7, 0x1c(a6)
           0x00643a6e      4cdf1fff       movem.l (a7)+, d0-d7/a0-a4
           0x00643a72      4e5e           unlk a6
           0x00643a74      4e75           rts
            ; CALL XREF from K9_LIBRARY.display_title_b @ 0x644012
            ; CALL XREF from K9_LIBRARY.do_action @ 0x645962
            ; CALL XREFS from K9_LIBRARY.k9_retitle @ 0x459e, 0x64b086
            ; CALL XREF from K9_LIBRARY.k9_start_retitl @ 0x64b3be
 50: K9_LIBRARY.required_fields ();
           0x00643a76      4e56ffda       link.w a6, 0xffda
           0x00643a7a      bfd5           cmpa.l (a5), a7
       < 0x00643a7c      6206           bhi.b 0x643a84
          0x00643a7e      44fc0002       move.w 0x2, ccr
          0x00643a82      4e76           trapv
       > 0x00643a84      defc0022       adda.w 0x22, a7
           0x00643a88      48e7c0c0       movem.l d0-d1/a0-a1, -(a7)
           0x00643a8c      43eefffc       lea.l -0x4(a6), a1
           0x00643a90      102e0008       move.b 0x8(a6), d0
           0x00643a94      4880           ext.w d0
           0x00643a96      0c400003       cmpi.w 0x3, d0
       < 0x00643a9a      6302           bls.b 0x643a9e
          0x00643a9c      4e4e           trap 0xe
       > 0x00643a9e      d040           add.w d0, d0
           0x00643aa0      303b0006       move.w 0x643aa8(pc, d0.w), d0
           0x00643aa4      4efb0002       jmp 0x643aa8(pc, d0.w)
            0x00643aa8      0008000e       
            0x00643aa9      08000e00       
            0x00643aaa      000e0014       
            0x00643aab      0e001400       
            0x00643aac      0014001a       ori.b 0x1a, (a4)
            0x00643ab0      22badfc2       move.l 0x641a74(pc), (a1)
        < 0x00643ab4      6010           bra.b 0x643ac6
           0x00643ab6      22badfc0       move.l 0x641a78(pc), (a1)
       < 0x00643aba      600a           bra.b 0x643ac6
          0x00643abc      22badfbe       move.l 0x641a7c(pc), (a1)
      < 0x00643ac0      6004           bra.b 0x643ac6
         0x00643ac2      22badfbc       move.l 0x641a80(pc), (a1)
      > 0x00643ac6      103900847e42   move.b 0x847e42, d0
            0x00643acc      4880           ext.w d0
            0x00643ace      c1fc02d0       muls.w 0x2d0, d0
            0x00643ad2      41f900847e32   lea.l 0x847e32, a0
            0x00643ad8      41f00000       lea.l (a0, d0.w), a0
            0x00643adc      2f3adfa6       move.l 0x641a84(pc), -(a7)
            0x00643ae0      102802e1       move.b 0x2e1(a0), d0
            0x00643ae4      4880           ext.w d0
            0x00643ae6      3200           move.w d0, d1
            0x00643ae8      e649           lsr.w 0x3, d1
            0x00643aea      01f71000       bset.b d0, (a7, d1.w)
            0x00643aee      2011           move.l (a1), d0
            0x00643af0      809f           or.l (a7)+, d0
            0x00643af2      2280           move.l d0, (a1)
            0x00643af4      4a2801da       tst.b 0x1da(a0)
        < 0x00643af8      6708           beq.b 0x643b02
           0x00643afa      2280           move.l d0, (a1)
           0x00643afc      009100002000   ori.l 0x2000, (a1)
        > 0x00643b02      2d51000a       move.l (a1), 0xa(a6)
            0x00643b06      4cdf0303       movem.l (a7)+, d0-d1/a0-a1
            0x00643b0a      4e5e           unlk a6
            0x00643b0c      4e75           rts
 62: K9_LIBRARY.write_field_set ();
           0x00643b0e      4e56ffe2       link.w a6, 0xffe2
           0x00643b12      bfd5           cmpa.l (a5), a7
       < 0x00643b14      6206           bhi.b 0x643b1c
          0x00643b16      44fc0002       move.w 0x2, ccr
          0x00643b1a      4e76           trapv
       > 0x00643b1c      defc001c       adda.w 0x1c, a7
           0x00643b20      48e7c100       movem.l d0-d1/d7, -(a7)
           0x00643b24      720c           moveq 0xc, d1
           0x00643b26      7e00           moveq 0x0, d7
       > 0x00643b28      4887           ext.w d7
          0x00643b2a      3007           move.w d7, d0
          0x00643b2c      e648           lsr.w 0x3, d0
          0x00643b2e      0f360008       btst.l d7, 0x8(a6, d0.w)
      < 0x00643b32      6700011c       beq.w 0x643c50
         0x00643b36      4887           ext.w d7
         0x00643b38      3007           move.w d7, d0
         0x00643b3a      0c400015       cmpi.w 0x15, d0
     < 0x00643b3e      620000ee       bhi.w 0x643c2e
        0x00643b42      d040           add.w d0, d0
        0x00643b44      303b0006       move.w 0x643b4c(pc, d0.w), d0
        0x00643b48      4efb0002       jmp 0x643b4c(pc, d0.w)
         0x00643b4c      002c0042004c   ori.b 0x42, 0x4c(a4)
         0x00643b52      00520058       ori.w 0x58, (a2)
         0x00643b56      005e0064       ori.w 0x64, (a6)+
         0x00643b5a      006e0074007a   ori.w 0x74, 0x7a(a6)
         0x00643b60      0080008a0090   ori.l 0x8a0090, d0
         0x00643b66      0096009c00a2   ori.l 0x9c00a2, (a6)
         0x00643b6c      00ac00b200be.  ori.l 0xb200be, 0xc4(a4)
         0x00643b74      00ca00d6       
         0x00643b75      ca00           and.b d0, d5
         0x00643b77      d648           add.w a0, d3
         0x00643b79      7adf           moveq 0xdf, d5
         0x00643b7b      2f487800       move.l a0, 0x7800(a7)
     0x00643b7f      062f174eb900   addi.b 0x4e, -0x4700(a7)
     0x00643b85      4047           negx.w d7
     0x00643b87      eadec160       
     0x00643b88      dec1           adda.w d1, a7
  < 0x00643b8a      600000c4       bra.w 0x643c50
     0x00643b8e      487adf20       pea.l 0x641ab0(pc)
  > 0x00643b92      48780007       pea.l 0x7
  < 0x00643b96      60e8           bra.b 0x643b80
     0x00643b98      487adf1e       pea.l 0x641ab8(pc)
  < 0x00643b9c      60de           bra.b 0x643b7c
      0x00643b9e      487adf1f       pea.l 0x641abf(pc)
  < 0x00643ba2      60ee           bra.b 0x643b92
      0x00643ba4      487adf21       pea.l 0x641ac7(pc)
   < 0x00643ba8      60d2           bra.b 0x643b7c
       0x00643baa      487adf22       pea.l 0x641ace(pc)
    < 0x00643bae      60cc           bra.b 0x643b7c
        0x00643bb0      487adf23       pea.l 0x641ad5(pc)
  > 0x00643bb4      48780008       pea.l 0x8
  < 0x00643bb8      60c6           bra.b 0x643b80
     0x00643bba      487adf22       pea.l 0x641ade(pc)
  < 0x00643bbe      60f4           bra.b 0x643bb4
     0x00643bc0      487adf25       pea.l 0x641ae7(pc)
  < 0x00643bc4      60b6           bra.b 0x643b7c
      0x00643bc6      487adf26       pea.l 0x641aee(pc)
  < 0x00643bca      60e8           bra.b 0x643bb4
      0x00643bcc      487adf29       pea.l 0x641af7(pc)
      0x00643bd0      48780009       pea.l 0x9
  < 0x00643bd4      60aa           bra.b 0x643b80
      0x00643bd6      487adf29       pea.l 0x641b01(pc)
  < 0x00643bda      60d8           bra.b 0x643bb4
      0x00643bdc      487adf2c       pea.l 0x641b0a(pc)
  < 0x00643be0      60d2           bra.b 0x643bb4
      0x00643be2      487adf2f       pea.l 0x641b13(pc)
  < 0x00643be6      60cc           bra.b 0x643bb4
      0x00643be8      487adf32       pea.l 0x641b1c(pc)
  < 0x00643bec      60c6           bra.b 0x643bb4
       0x00643bee      487adf35       pea.l 0x641b25(pc)
   > 0x00643bf2      4878000d       pea.l 0xd
  < 0x00643bf6      6088           bra.b 0x643b80
      0x00643bf8      487adf39       pea.l 0x641b33(pc)
   < 0x00643bfc      60f4           bra.b 0x643bf2
       0x00643bfe      487adf41       pea.l 0x641b41(pc)
       0x00643c02      4878000a       pea.l 0xa
  < 0x00643c06      6000ff78       bra.w 0x643b80
       0x00643c0a      487adf40       pea.l 0x641b4c(pc)
   < 0x00643c0e      60a4           bra.b 0x643bb4
        0x00643c10      487adf43       pea.l 0x641b55(pc)
    < 0x00643c14      609e           bra.b 0x643bb4
         0x00643c16      487adf46       pea.l 0x641b5e(pc)
         0x00643c1a      4878000c       pea.l 0xc
  < 0x00643c1e      6000ff60       bra.w 0x643b80
         0x00643c22      487adf47       pea.l 0x641b6b(pc)
         0x00643c26      4878000b       pea.l 0xb
  < 0x00643c2a      6000ff54       bra.w 0x643b80
      > 0x00643c2e      487adf47       pea.l 0x641b77(pc)
          0x00643c32      48780004       pea.l 0x4
          0x00643c36      2f17           move.l (a7), -(a7)
          0x00643c38      4eb9004047ea   jsr p_wts_o
          0x00643c3e      dec1           adda.w d1, a7
          0x00643c40      48c7           ext.l d7
          0x00643c42      2f07           move.l d7, -(a7)
          0x00643c44      48780001       pea.l 0x1
          0x00643c48      4eb9004070e4   jsr p_wti_o
          0x00643c4e      504f           addq.w 0x8, a7
  > 0x00643c50      5207           addq.b 0x1, d7
           0x00643c52      0c070019       cmpi.b 0x19, d7
        < 0x00643c56      6f00fed0       ble.w 0x643b28              ; K9_LIBRARY.write_field_set+0x1a
            0x00643c5a      4cdf0083       movem.l (a7)+, d0-d1/d7
            0x00643c5e      4e5e           unlk a6
            0x00643c60      4e75           rts
            ; CALL XREF from K9_LIBRARY.display_title_b @ 0x644032
            ; CALL XREF from K9_LIBRARY.do_action @ 0x645970
            ; CALL XREF from K9_LIBRARY.k9_get_fdata @ 0x649a10
            ; CALL XREF from K9_LIBRARY.k9_retitle @ 0x64b094
            ; CALL XREF from K9_LIBRARY.k9_start_retitl @ 0x64b3cc
 114: K9_LIBRARY.make_file_info_ ();
           ; var int32_t var_15h @ a7+0x15
           ; var int32_t var_16h @ a7+0x16
           ; var int32_t var_17h @ a7+0x17
           0x00643c62      4e56ffda       link.w a6, 0xffda
           0x00643c66      bfd5           cmpa.l (a5), a7
       < 0x00643c68      6206           bhi.b 0x643c70
          0x00643c6a      44fc0002       move.w 0x2, ccr
          0x00643c6e      4e76           trapv
       > 0x00643c70      defc0026       adda.w 0x26, a7
           0x00643c74      48e780c0       movem.l d0/a0-a1, -(a7)
           0x00643c78      206e000c       movea.l 0xc(a6), a0
           0x00643c7c      b1e8fffc       cmpa.l -0x4(a0), a0
       < 0x00643c80      6702           beq.b 0x643c84
          0x00643c82      4e4d           trap 0xd
       > 0x00643c84      9efc000a       suba.w 0xa, a7
           0x00643c88      224f           movea.l a7, a1
           0x00643c8a      41e80008       lea.l 0x8(a0), a0
           0x00643c8e      7009           moveq 0x9, d0
       > 0x00643c90      12d8           move.b (a0)+, (a1)+
       < 0x00643c92      51c8fffc       dbra d0, 0x643c90
           0x00643c96      2f2e0010       move.l 0x10(a6), -(a7)
           0x00643c9a      206e0008       movea.l 0x8(a6), a0
           0x00643c9e      b1e8fffc       cmpa.l -0x4(a0), a0
       < 0x00643ca2      6702           beq.b 0x643ca6
          0x00643ca4      4e4d           trap 0xd
       > 0x00643ca6      594f           subq.w 0x4, a7
           0x00643ca8      1ea80014       move.b 0x14(a0), (a7)
           0x00643cac      1f6800150001   move.b 0x15(a0), 0x1(a7)
           0x00643cb2      1f6800160002   move.b 0x16(a0), 0x2(a7)
           0x00643cb8      1f6800170003   move.b 0x17(a0), 0x3(a7)
           0x00643cbe      2f2e0008       move.l 0x8(a6), -(a7)
           0x00643cc2      4eb9005a2f10   jsr K04_FILEROPS.k_get_fdata
           0x00643cc8      defc0016       adda.w 0x16, a7
           0x00643ccc      4cdf0301       movem.l (a7)+, d0/a0-a1
           0x00643cd0      4e5e           unlk a6
           0x00643cd2      4e75           rts
 612: K9_LIBRARY.old_k9_sizes_di ();
           0x00643cd4      4e56fd80       link.w a6, 0xfd80
           0x00643cd8      bfd5           cmpa.l (a5), a7
       < 0x00643cda      6206           bhi.b 0x643ce2
          0x00643cdc      44fc0002       move.w 0x2, ccr
          0x00643ce0      4e76           trapv
       > 0x00643ce2      defc0164       adda.w 0x164, a7
           0x00643ce6      48e7fff8       movem.l d0-d7/a0-a4, -(a7)
           0x00643cea      49eefffa       lea.l -0x6(a6), a4
           0x00643cee      7a01           moveq 0x1, d5
           0x00643cf0      554f           subq.w 0x2, a7
           0x00643cf2      4eb900478be0   jsr CONFIGCOM.cfg_vo_type
           0x00643cf8      101f           move.b (a7)+, d0
           0x00643cfa      0c000006       cmpi.b 0x6, d0
       < 0x00643cfe      6606           bne.b 0x643d06
          0x00643d00      3e3c00e6       move.w 0xe6, d7
      < 0x00643d04      6002           bra.b 0x643d08
      > 0x00643d06      7e73           moveq 0x73, d7
      > 0x00643d08      2d45fffc       move.l d5, -0x4(a6)
           0x00643d0c      103900847e42   move.b 0x847e42, d0
           0x00643d12      4880           ext.w d0
           0x00643d14      c1fc02d0       muls.w 0x2d0, d0
           0x00643d18      41f900847e32   lea.l 0x847e32, a0
           0x00643d1e      4a300034       tst.b 0x34(a0, d0.w)
       < 0x00643d22      6600020c       bne.w 0x643f30
          0x00643d26      4a300032       tst.b 0x32(a0, d0.w)
      < 0x00643d2a      66000204       bne.w 0x643f30
         0x00643d2e      594f           subq.w 0x4, a7
         0x00643d30      4ebaf564       jsr K9_LIBRARY.display_max(pc)
         0x00643d34      7c01           moveq 0x1, d6
         0x00643d36      bc97           cmp.l (a7), d6
     < 0x00643d38      6e0c           bgt.b 0x643d46
        0x00643d3a      2217           move.l (a7), d1
        0x00643d3c      0c8100007fff   cmpi.l 0x7fff, d1
    < 0x00643d42      6f02           ble.b 0x643d46
       0x00643d44      4e4f           trap 0xf
   > 0x00643d46      bc6f0002       cmp.w 0x2(a7), d6
    < 0x00643d4a      6e0001e2       bgt.w 0x643f2e
       0x00643d4e      48c6           ext.l d6
       0x00643d50      2206           move.l d6, d1
       0x00643d52      5381           subq.l 0x1, d1
       0x00643d54      0c810000000b   cmpi.l 0xb, d1
   < 0x00643d5a      6302           bls.b 0x643d5e
      0x00643d5c      4e4f           trap 0xf
   > 0x00643d5e      2801           move.l d1, d4
       0x00643d60      761e           moveq 0x1e, d3
       0x00643d62      4eb900406a74   jsr fcn.00406a74
       0x00643d68      43f00012       lea.l 0x12(a0, d0.w), a1
       0x00643d6c      4a31485f       tst.b 0x5f(a1, d4.l)
   < 0x00643d70      670001b6       beq.w 0x643f28
      0x00643d74      38bade30       move.w 0x641ba6(pc), (a4)
      0x00643d78      24714846       movea.l 0x46(a1, d4.l), a2
      0x00643d7c      b5eafffc       cmpa.l -0x4(a2), a2
  < 0x00643d80      6702           beq.b 0x643d84
     0x00643d82      4e4d           trap 0xd
  > 0x00643d84      9efc000a       suba.w 0xa, a7
      0x00643d88      264f           movea.l a7, a3
      0x00643d8a      45ea0008       lea.l 0x8(a2), a2
      0x00643d8e      7209           moveq 0x9, d1
  > 0x00643d90      16da           move.b (a2)+, (a3)+
  < 0x00643d92      51c9fffc       dbra d1, 0x643d90
      0x00643d96      486efffc       pea.l -0x4(a6)
      0x00643d9a      4eb90059866e   jsr K0_DISKMGR.k_gen_file
      0x00643da0      defc000a       adda.w 0xa, a7
      0x00643da4      4217           clr.b (a7)
      0x00643da6      486efffc       pea.l -0x4(a6)
      0x00643daa      1f3c000b       move.b 0xb, -(a7)
      0x00643dae      45eefee8       lea.l -0x118(a6), a2
      0x00643db2      2f0a           move.l a2, -(a7)
      0x00643db4      4878000a       pea.l 0xa
      0x00643db8      4eb9005a2072   jsr K04_FILEROPS.k_data
      0x00643dbe      defc0010       adda.w 0x10, a7
      0x00643dc2      389f           move.w (a7)+, (a4)
      0x00643dc4      1214           move.b (a4), d1
      0x00643dc6      b23adde1       cmp.b 0x641ba9(pc), d1
  < 0x00643dca      6608           bne.b 0x643dd4
     0x00643dcc      122efffb       move.b -0x5(a6), d1
     0x00643dd0      b23addd8       cmp.b 0x641baa(pc), d1
 > 0x00643dd4      6672           bne.b 0x643e48
     0x00643dd6      4eb900404154   jsr p_Link
     0x00643ddc      322efee8       move.w -0x118(a6), d1
     0x00643de0      48c1           ext.l d1
     0x00643de2      2f01           move.l d1, -(a7)
     0x00643de4      4eb900404012   jsr p_Push
     0x00643dea      584f           addq.w 0x4, a7
     0x00643dec      322efeea       move.w -0x116(a6), d1
     0x00643df0      48c1           ext.l d1
     0x00643df2      2f01           move.l d1, -(a7)
     0x00643df4      4eb900404012   jsr p_Push
     0x00643dfa      9efc000a       suba.w 0xa, a7
     0x00643dfe      2f3addac       move.l 0x641bac(pc), -(a7)
     0x00643e02      2f7addac0004   move.l 0x641bb0(pc), 0x4(a7)
     0x00643e08      2f7addaa0008   move.l 0x641bb4(pc), 0x8(a7)
     0x00643e0e      2f7adda8000c   move.l 0x641bb8(pc), 0xc(a7)
     0x00643e14      1f7adda60010   move.b 0x641bbc(pc), 0x10(a7)
     0x00643e1a      9efc0100       suba.w 0x100, a7
     0x00643e1e      486f0100       pea.l 0x100(a7)
     0x00643e22      3f05           move.w d5, -(a7)
     0x00643e24      3f3c0011       move.w 0x11, -(a7)
     0x00643e28      4eb900408dda   jsr p_format
     0x00643e2e      504f           addq.w 0x8, a7
     0x00643e30      45eefef2       lea.l -0x10e(a6), a2
     0x00643e34      723f           moveq 0x3f, d1
 > 0x00643e36      24df           move.l (a7)+, (a2)+
 < 0x00643e38      51c9fffc       dbra d1, 0x643e36
     0x00643e3c      defc0012       adda.w 0x12, a7
     0x00643e40      4eb900404188   jsr p_Unlink
 < 0x00643e46      6010           bra.b 0x643e58
 > 0x00643e48      45eefef2       lea.l -0x10e(a6), a2
     0x00643e4c      47fadd6f       lea.l 0x641bbd(pc), a3
     0x00643e50      720c           moveq 0xc, d1
 > 0x00643e52      14db           move.b (a3)+, (a2)+
 < 0x00643e54      51c9fffc       dbra d1, 0x643e52
  > 0x00643e58      246efffc       movea.l -0x4(a6), a2
      0x00643e5c      b4c5           cmpa.w d5, a2
  < 0x00643e5e      6710           beq.b 0x643e70
     0x00643e60      554f           subq.w 0x2, a7
     0x00643e62      486efffc       pea.l -0x4(a6)
     0x00643e66      4eb900594e02   jsr K0_DISKMGR.k_lose_ref
     0x00643e6c      584f           addq.w 0x4, a7
     0x00643e6e      389f           move.w (a7)+, (a4)
  > 0x00643e70      1214           move.b (a4), d1
      0x00643e72      b23add57       cmp.b 0x641bcb(pc), d1
  < 0x00643e76      6608           bne.b 0x643e80
     0x00643e78      122efffb       move.b -0x5(a6), d1
     0x00643e7c      b23add4e       cmp.b 0x641bcc(pc), d1
 > 0x00643e80      672c           beq.b 0x643eae
     0x00643e82      487add4a       pea.l 0x641bce(pc)
     0x00643e86      48780010       pea.l 0x10
     0x00643e8a      2f17           move.l (a7), -(a7)
     0x00643e8c      4eb9004047ea   jsr p_wts_o
     0x00643e92      defc000c       adda.w 0xc, a7
     0x00643e96      4854           pea.l (a4)
     0x00643e98      48780002       pea.l 0x2
     0x00643e9c      2f17           move.l (a7), -(a7)
     0x00643e9e      4eb9004047ea   jsr p_wts_o
     0x00643ea4      defc000c       adda.w 0xc, a7
     0x00643ea8      4eb900404946   jsr p_wtln_o
 > 0x00643eae      514f           subq.w 0x8, a7
      0x00643eb0      12300032       move.b 0x32(a0, d0.w), d1
      0x00643eb4      4881           ext.w d1
      0x00643eb6      43bc0003       chk.w 0x3, d1
      0x00643eba      1f01           move.b d1, -(a7)
      0x00643ebc      48c6           ext.l d6
      0x00643ebe      2f06           move.l d6, -(a7)
      0x00643ec0      4227           clr.b -(a7)
      0x00643ec2      4eb900660596   jsr K95_CARDS.k95_get_lib_ite
      0x00643ec8      504f           addq.w 0x8, a7
      0x00643eca      2d5ffff2       move.l (a7)+, -0xe(a6)
      0x00643ece      2d5ffff6       move.l (a7)+, -0xa(a6)
      0x00643ed2      322efff2       move.w -0xe(a6), d1
      0x00643ed6      48c1           ext.l d1
      0x00643ed8      342efff6       move.w -0xa(a6), d2
      0x00643edc      48c2           ext.l d2
      0x00643ede      d481           add.l d1, d2
      0x00643ee0      48c7           ext.l d7
      0x00643ee2      9487           sub.l d7, d2
      0x00643ee4      0482ffff8000   subi.l 0xffff8000, d2
      0x00643eea      0c820000ffff   cmpi.l 0xffff, d2
  < 0x00643ef0      6302           bls.b 0x643ef4
     0x00643ef2      4e4f           trap 0xf
  > 0x00643ef4      0682ffff8000   addi.l 0xffff8000, d2
      0x00643efa      3d42fff2       move.w d2, -0xe(a6)
      0x00643efe      3d47fff6       move.w d7, -0xa(a6)
      0x00643f02      2f2efff6       move.l -0xa(a6), -(a7)
      0x00643f06      2f2efff2       move.l -0xe(a6), -(a7)
      0x00643f0a      9efc0100       suba.w 0x100, a7
      0x00643f0e      244f           movea.l a7, a2
      0x00643f10      47eefef2       lea.l -0x10e(a6), a3
      0x00643f14      723f           moveq 0x3f, d1
  > 0x00643f16      24db           move.l (a3)+, (a2)+
  < 0x00643f18      51c9fffc       dbra d1, 0x643f16
      0x00643f1c      2f07           move.l d7, -(a7)
      0x00643f1e      4eb90065aaaa   jsr K92_DISPLAY.k92_write_size
      0x00643f24      defc010c       adda.w 0x10c, a7
   > 0x00643f28      5246           addq.w 0x1, d6
   < 0x00643f2a      6800fe1a       bvc.w 0x643d46
     > 0x00643f2e      584f           addq.w 0x4, a7
      > 0x00643f30      4cdf1fff       movem.l (a7)+, d0-d7/a0-a4
           0x00643f34      4e5e           unlk a6
           0x00643f36      4e75           rts
            ; XREFS: CALL 0x00644302  CALL 0x0064432a  CALL 0x006443dc  
            ; XREFS: CALL 0x00644404  CALL 0x00644d86  CALL 0x00644eb0  
            ; XREFS: CALL 0x00644f52  CALL 0x006450e2  CALL 0x0064733a  
 504: K9_LIBRARY.display_title_b ();
           ; var int32_t var_47h @ a7+0x47
           ; var int32_t var_48h @ a7+0x48
           ; var int32_t var_49h @ a7+0x49
           0x00643f38      4e56fe88       link.w a6, 0xfe88
           0x00643f3c      bfd5           cmpa.l (a5), a7
       < 0x00643f3e      6206           bhi.b 0x643f46
          0x00643f40      44fc0002       move.w 0x2, ccr
          0x00643f44      4e76           trapv
       > 0x00643f46      defc0170       adda.w 0x170, a7
           0x00643f4a      48e7fff8       movem.l d0-d7/a0-a4, -(a7)
           0x00643f4e      7a01           moveq 0x1, d5
           0x00643f50      2c3cffff8000   move.l 0xffff8000, d6
           0x00643f56      103900847e42   move.b 0x847e42, d0
           0x00643f5c      4880           ext.w d0
           0x00643f5e      c1fc02d0       muls.w 0x2d0, d0
           0x00643f62      41f900847e32   lea.l 0x847e32, a0
           0x00643f68      222e000a       move.l 0xa(a6), d1
           0x00643f6c      5381           subq.l 0x1, d1
           0x00643f6e      0c810000000b   cmpi.l 0xb, d1
       < 0x00643f74      6302           bls.b 0x643f78
          0x00643f76      4e4f           trap 0xf
       > 0x00643f78      2801           move.l d1, d4
           0x00643f7a      761e           moveq 0x1e, d3
           0x00643f7c      4eb900406a74   jsr fcn.00406a74
           0x00643f82      43f00012       lea.l 0x12(a0, d0.w), a1
           0x00643f86      24714846       movea.l 0x46(a1, d4.l), a2
           0x00643f8a      b4c5           cmpa.w d5, a2
       < 0x00643f8c      67000352       beq.w 0x6442e0
          0x00643f90      7e00           moveq 0x0, d7
          0x00643f92      4a314861       tst.b 0x61(a1, d4.l)
      < 0x00643f96      6702           beq.b 0x643f9a
     < 0x00643f98      603a           bra.b 0x643fd4
     > 0x00643f9a      4a31485f       tst.b 0x5f(a1, d4.l)
     < 0x00643f9e      6602           bne.b 0x643fa2
    < 0x00643fa0      6032           bra.b 0x643fd4
    > 0x00643fa2      4a314860       tst.b 0x60(a1, d4.l)
    < 0x00643fa6      6614           bne.b 0x643fbc
       0x00643fa8      4a314862       tst.b 0x62(a1, d4.l)
   < 0x00643fac      670e           beq.b 0x643fbc
      0x00643fae      122e0008       move.b 0x8(a6), d1
      0x00643fb2      4881           ext.w d1
      0x00643fb4      033adc96       btst.l d1, 0x641c4c(pc)
  < 0x00643fb8      6702           beq.b 0x643fbc
 < 0x00643fba      6018           bra.b 0x643fd4
 > 0x00643fbc      4a314860       tst.b 0x60(a1, d4.l)
   < 0x00643fc0      6714           beq.b 0x643fd6
      0x00643fc2      4a314862       tst.b 0x62(a1, d4.l)
  < 0x00643fc6      670e           beq.b 0x643fd6
     0x00643fc8      122e0008       move.b 0x8(a6), d1
     0x00643fcc      4881           ext.w d1
     0x00643fce      033adc7e       btst.l d1, 0x641c4e(pc)
 < 0x00643fd2      6702           beq.b 0x643fd6
 > 0x00643fd4      7e01           moveq 0x1, d7
  > 0x00643fd6      42314861       clr.b 0x61(a1, d4.l)
          0x00643fda      4a07           tst.b d7
      < 0x00643fdc      67000130       beq.w 0x64410e
         0x00643fe0      594f           subq.w 0x4, a7
         0x00643fe2      4ebaf2b2       jsr K9_LIBRARY.display_max(pc)
         0x00643fe6      222e000a       move.l 0xa(a6), d1
         0x00643fea      b29f           cmp.l (a7)+, d1
     < 0x00643fec      6e000120       bgt.w 0x64410e
        0x00643ff0      4a290022       tst.b 0x22(a1)
    < 0x00643ff4      66000118       bne.w 0x64410e
       0x00643ff8      24714846       movea.l 0x46(a1, d4.l), a2
       0x00643ffc      b5eafffc       cmpa.l -0x4(a2), a2
   < 0x00644000      6702           beq.b 0x644004
      0x00644002      4e4d           trap 0xd
   > 0x00644004      594f           subq.w 0x4, a7
       0x00644006      12290020       move.b 0x20(a1), d1
       0x0064400a      4881           ext.w d1
       0x0064400c      43bc0003       chk.w 0x3, d1
       0x00644010      1f01           move.b d1, -(a7)
       0x00644012      4ebafa62       jsr K9_LIBRARY.required_fields(pc)
       0x00644016      544f           addq.w 0x2, a7
       0x00644018      221f           move.l (a7)+, d1
       0x0064401a      2d41fffc       move.l d1, -0x4(a6)
       0x0064401e      242a0014       move.l 0x14(a2), d2
       0x00644022      c481           and.l d1, d2
       0x00644024      b481           cmp.l d1, d2
   < 0x00644026      6712           beq.b 0x64403a
      0x00644028      2f01           move.l d1, -(a7)
      0x0064402a      2f314846       move.l 0x46(a1, d4.l), -(a7)
      0x0064402e      2f314846       move.l 0x46(a1, d4.l), -(a7)
      0x00644032      4ebafc2e       jsr K9_LIBRARY.make_file_info_(pc)
      0x00644036      defc000c       adda.w 0xc, a7
   > 0x0064403a      12290020       move.b 0x20(a1), d1
       0x0064403e      4881           ext.w d1
       0x00644040      43bc0003       chk.w 0x3, d1
       0x00644044      1f01           move.b d1, -(a7)
       0x00644046      594f           subq.w 0x4, a7
       0x00644048      1eb14846       move.b 0x46(a1, d4.l), (a7)
       0x0064404c      1f7148470001   move.b 0x47(a1, d4.l), 0x1(a7)
       0x00644052      1f7148480002   move.b 0x48(a1, d4.l), 0x2(a7)
       0x00644058      1f7148490003   move.b 0x49(a1, d4.l), 0x3(a7)
       0x0064405e      514f           subq.w 0x8, a7
       0x00644060      1f01           move.b d1, -(a7)
       0x00644062      2f2e000a       move.l 0xa(a6), -(a7)
       0x00644066      1f05           move.b d5, -(a7)
       0x00644068      4eb900660596   jsr K95_CARDS.k95_get_lib_ite
       0x0064406e      12290020       move.b 0x20(a1), d1
       0x00644072      4881           ext.w d1
       0x00644074      43bc0003       chk.w 0x3, d1
       0x00644078      1f01           move.b d1, -(a7)
       0x0064407a      2f2e000a       move.l 0xa(a6), -(a7)
       0x0064407e      4227           clr.b -(a7)
       0x00644080      4eb900660596   jsr K95_CARDS.k95_get_lib_ite
       0x00644086      3ebc002a       move.w 0x2a, (a7)
       0x0064408a      4eb900481196   jsr MENUCOM.get_boxcol
       0x00644090      9efc00fe       suba.w 0xfe, a7
       0x00644094      2f2e000a       move.l 0xa(a6), -(a7)
       0x00644098      4ebaf110       jsr K9_LIBRARY.pick_message(pc)
       0x0064409c      584f           addq.w 0x4, a7
       0x0064409e      4eb900659e8e   jsr K92_DISPLAY.k92_show
       0x006440a4      defc011c       adda.w 0x11c, a7
       0x006440a8      42314862       clr.b 0x62(a1, d4.l)
       0x006440ac      1385485f       move.b d5, 0x5f(a1, d4.l)
       0x006440b0      4a290020       tst.b 0x20(a1)
   < 0x006440b4      6658           bne.b 0x64410e
      0x006440b6      4241           clr.w d1
      0x006440b8      1231484e       move.b 0x4e(a1, d4.l), d1
  < 0x006440bc      6302           bls.b 0x6440c0
     0x006440be      7200           moveq 0x0, d1
  > 0x006440c0      5301           subq.b 0x1, d1
  < 0x006440c2      6510           bcs.b 0x6440d4
     0x006440c4      47f1484f       lea.l 0x4f(a1, d4.l), a3
     0x006440c8      49fadb86       lea.l 0x641c50(pc), a4
 > 0x006440cc      b70c           cmpm.b (a4)+, (a3)+
 < 0x006440ce      56c9fffc       dbne d1, 0x6440cc
 < 0x006440d2      6604           bne.b 0x6440d8
 > 0x006440d4      1231484e       move.b 0x4e(a1, d4.l), d1
 < 0x006440d8      6734           beq.b 0x64410e
     0x006440da      222e000a       move.l 0xa(a6), d1
     0x006440de      0c810000ffff   cmpi.l 0xffff, d1
 < 0x006440e4      6302           bls.b 0x6440e8
    0x006440e6      4e4f           trap 0xf
 > 0x006440e8      3f01           move.w d1, -(a7)
     0x006440ea      2f3ad7dc       move.l 0x6418c8(pc), -(a7)
     0x006440ee      3f3ad7d6       move.w 0x6418c6(pc), -(a7)
     0x006440f2      9efc0052       suba.w 0x52, a7
     0x006440f6      264f           movea.l a7, a3
     0x006440f8      49f1484e       lea.l 0x4e(a1, d4.l), a4
     0x006440fc      7210           moveq 0x10, d1
 > 0x006440fe      16dc           move.b (a4)+, (a3)+
 < 0x00644100      51c9fffc       dbra d1, 0x6440fe
     0x00644104      4eb900659fd6   jsr K92_DISPLAY.k92_tag_title
     0x0064410a      defc005a       adda.w 0x5a, a7
  > 0x0064410e      12314860       move.b 0x60(a1, d4.l), d1
          0x00644112      4881           ext.w d1
          0x00644114      4385           chk.w d5, d1
          0x00644116      1e01           move.b d1, d7
          0x00644118      142e0008       move.b 0x8(a6), d2
          0x0064411c      4882           ext.w d2
          0x0064411e      0c420003       cmpi.w 0x3, d2
      < 0x00644122      6302           bls.b 0x644126
         0x00644124      4e4e           trap 0xe
      > 0x00644126      d442           add.w d2, d2
          0x00644128      343b2006       move.w 0x644130(pc, d2.w), d2
          0x0064412c      4efb2002       jmp 0x644130(pc, d2.w)
           0x00644130      00220008       ori.b 0x8, -(a2)
           0x00644134      000e0014       
           0x00644135      0e001413       
           0x00644136      00141385       ori.b 0x85, (a4)
           0x0064413a      48606014       
       < 0x0064413b      6060           bra.b 0x64419d
          0x0064413d      14423148       
          0x0064413e      42314860       clr.b 0x60(a1, d4.l)
      < 0x00644142      600e           bra.b 0x644152
         0x00644144      1401           move.b d1, d2
         0x00644146      4402           neg.b d2
         0x00644148      5202           addq.b 0x1, d2
         0x0064414a      4882           ext.w d2
         0x0064414c      4585           chk.w d5, d2
         0x0064414e      13824860       move.b d2, 0x60(a1, d4.l)
      > 0x00644152      be314860       cmp.b 0x60(a1, d4.l), d7
      < 0x00644156      6700012e       beq.w 0x644286
         0x0064415a      4a314860       tst.b 0x60(a1, d4.l)
     < 0x0064415e      675e           beq.b 0x6441be
        0x00644160      322901ae       move.w 0x1ae(a1), d1
        0x00644164      48c1           ext.l d1
        0x00644166      5281           addq.l 0x1, d1
        0x00644168      9286           sub.l d6, d1
        0x0064416a      0c810000ffff   cmpi.l 0xffff, d1
    < 0x00644170      6302           bls.b 0x644174
       0x00644172      4e4f           trap 0xf
    > 0x00644174      d286           add.l d6, d1
        0x00644176      334101ae       move.w d1, 0x1ae(a1)
        0x0064417a      4227           clr.b -(a7)
        0x0064417c      0c41000c       cmpi.w 0xc, d1
    < 0x00644180      6e02           bgt.b 0x644184
       0x00644182      5217           addq.b 0x1, (a7)
    > 0x00644184      4eb90040452a   jsr p_Assert
        0x0064418a      544f           addq.w 0x2, a7
        0x0064418c      322901ae       move.w 0x1ae(a1), d1
        0x00644190      48c1           ext.l d1
        0x00644192      5381           subq.l 0x1, d1
        0x00644194      0c810000000b   cmpi.l 0xb, d1
    < 0x0064419a      6302           bls.b 0x64419e
       0x0064419c      4e4f           trap 0xf
    > 0x0064419e      e381           asl.l 0x1, d1
         0x006441a0      45f11800       lea.l (a1, d1.l), a2
         0x006441a4      222e000a       move.l 0xa(a6), d1
         0x006441a8      9286           sub.l d6, d1
         0x006441aa      0c810000ffff   cmpi.l 0xffff, d1
     < 0x006441b0      6302           bls.b 0x6441b4
        0x006441b2      4e4f           trap 0xf
     > 0x006441b4      d286           add.l d6, d1
         0x006441b6      354101b0       move.w d1, 0x1b0(a2)
     < 0x006441ba      600000ca       bra.w 0x644286
     > 0x006441be      322901ae       move.w 0x1ae(a1), d1
         0x006441c2      48c1           ext.l d1
         0x006441c4      5381           subq.l 0x1, d1
         0x006441c6      9286           sub.l d6, d1
         0x006441c8      0c810000ffff   cmpi.l 0xffff, d1
     < 0x006441ce      6302           bls.b 0x6441d2
        0x006441d0      4e4f           trap 0xf
     > 0x006441d2      d286           add.l d6, d1
         0x006441d4      334101ae       move.w d1, 0x1ae(a1)
         0x006441d8      4227           clr.b -(a7)
         0x006441da      4a41           tst.w d1
     < 0x006441dc      6d02           blt.b 0x6441e0
        0x006441de      5217           addq.b 0x1, (a7)
     > 0x006441e0      4eb90040452a   jsr p_Assert
         0x006441e6      544f           addq.w 0x2, a7
         0x006441e8      7e01           moveq 0x1, d7
     > 0x006441ea      48c7           ext.l d7
        0x006441ec      2207           move.l d7, d1
        0x006441ee      5381           subq.l 0x1, d1
        0x006441f0      0c810000000b   cmpi.l 0xb, d1
    < 0x006441f6      6302           bls.b 0x6441fa
       0x006441f8      4e4f           trap 0xf
    > 0x006441fa      e381           asl.l 0x1, d1
        0x006441fc      45f11800       lea.l (a1, d1.l), a2
        0x00644200      322a01b0       move.w 0x1b0(a2), d1
        0x00644204      48c1           ext.l d1
        0x00644206      b2ae000a       cmp.l 0xa(a6), d1
    < 0x0064420a      671c           beq.b 0x644228
       0x0064420c      0c47000c       cmpi.w 0xc, d7
   < 0x00644210      6c16           bge.b 0x644228
      0x00644212      2407           move.l d7, d2
      0x00644214      5282           addq.l 0x1, d2
      0x00644216      9486           sub.l d6, d2
      0x00644218      0c820000ffff   cmpi.l 0xffff, d2
  < 0x0064421e      6302           bls.b 0x644222
     0x00644220      4e4f           trap 0xf
  > 0x00644222      d486           add.l d6, d2
      0x00644224      3e02           move.w d2, d7
   < 0x00644226      60c2           bra.b 0x6441ea
   > 0x00644228      4227           clr.b -(a7)
         0x0064422a      b2ae000a       cmp.l 0xa(a6), d1
     < 0x0064422e      6602           bne.b 0x644232
        0x00644230      5217           addq.b 0x1, (a7)
     > 0x00644232      4eb90040452a   jsr p_Assert
         0x00644238      544f           addq.w 0x2, a7
     > 0x0064423a      be6901ae       cmp.w 0x1ae(a1), d7
    < 0x0064423e      6e46           bgt.b 0x644286
       0x00644240      48c7           ext.l d7
       0x00644242      2207           move.l d7, d1
       0x00644244      5381           subq.l 0x1, d1
       0x00644246      0c810000000b   cmpi.l 0xb, d1
   < 0x0064424c      6302           bls.b 0x644250
      0x0064424e      4e4f           trap 0xf
   > 0x00644250      e381           asl.l 0x1, d1
       0x00644252      45f11800       lea.l (a1, d1.l), a2
       0x00644256      2207           move.l d7, d1
       0x00644258      5281           addq.l 0x1, d1
       0x0064425a      2401           move.l d1, d2
       0x0064425c      5382           subq.l 0x1, d2
       0x0064425e      0c820000000b   cmpi.l 0xb, d2
   < 0x00644264      6302           bls.b 0x644268
      0x00644266      4e4f           trap 0xf
   > 0x00644268      e382           asl.l 0x1, d2
       0x0064426a      47f12800       lea.l (a1, d2.l), a3
       0x0064426e      356b01b001b0   move.w 0x1b0(a3), 0x1b0(a2)
       0x00644274      9286           sub.l d6, d1
       0x00644276      0c810000ffff   cmpi.l 0xffff, d1
   < 0x0064427c      6302           bls.b 0x644280
      0x0064427e      4e4f           trap 0xf
   > 0x00644280      d286           add.l d6, d1
       0x00644282      3e01           move.w d1, d7
    < 0x00644284      60b4           bra.b 0x64423a
    > 0x00644286      4a290022       tst.b 0x22(a1)
       < 0x0064428a      6654           bne.b 0x6442e0
          0x0064428c      4a314860       tst.b 0x60(a1, d4.l)
      < 0x00644290      674e           beq.b 0x6442e0
         0x00644292      4a314862       tst.b 0x62(a1, d4.l)
     < 0x00644296      6648           bne.b 0x6442e0
        0x00644298      594f           subq.w 0x4, a7
        0x0064429a      4ebaeffa       jsr K9_LIBRARY.display_max(pc)
        0x0064429e      222e000a       move.l 0xa(a6), d1
        0x006442a2      b297           cmp.l (a7), d1
    < 0x006442a4      6f04           ble.b 0x6442aa
       0x006442a6      584f           addq.w 0x4, a7
   < 0x006442a8      6036           bra.b 0x6442e0
   > 0x006442aa      14290020       move.b 0x20(a1), d2
       0x006442ae      4882           ext.w d2
       0x006442b0      45bc0003       chk.w 0x3, d2
       0x006442b4      1f02           move.b d2, -(a7)
       0x006442b6      16290021       move.b 0x21(a1), d3
       0x006442ba      4883           ext.w d3
       0x006442bc      4785           chk.w d5, d3
       0x006442be      1f03           move.b d3, -(a7)
       0x006442c0      514f           subq.w 0x8, a7
       0x006442c2      1f02           move.b d2, -(a7)
       0x006442c4      2f01           move.l d1, -(a7)
       0x006442c6      1f05           move.b d5, -(a7)
       0x006442c8      4eb900660596   jsr K95_CARDS.k95_get_lib_ite
       0x006442ce      504f           addq.w 0x8, a7
       0x006442d0      4eb90065a0e4   jsr K92_DISPLAY.k92_draw_select
       0x006442d6      defc000c       adda.w 0xc, a7
       0x006442da      13854862       move.b d5, 0x62(a1, d4.l)
       0x006442de      584f           addq.w 0x4, a7
   > 0x006442e0      4cdf1fff       movem.l (a7)+, d0-d7/a0-a4
            0x006442e4      4e5e           unlk a6
            0x006442e6      4e75           rts
            ; CALL XREF from MENULIBFNDCOM.hit_item @ 0x759a2c
 36: K9_LIBRARY.k9_select ();
           0x006442e8      4e56fff6       link.w a6, 0xfff6
           0x006442ec      bfd5           cmpa.l (a5), a7
       < 0x006442ee      6206           bhi.b 0x6442f6
          0x006442f0      44fc0002       move.w 0x2, ccr
          0x006442f4      4e76           trapv
       > 0x006442f6      defc000a       adda.w 0xa, a7
           0x006442fa      2f2e0008       move.l 0x8(a6), -(a7)
           0x006442fe      1f3c0003       move.b 0x3, -(a7)
           0x00644302      4ebafc34       jsr K9_LIBRARY.display_title_b(pc)
           0x00644306      5c4f           addq.w 0x6, a7
           0x00644308      4e5e           unlk a6
           0x0064430a      4e75           rts
 54: K9_LIBRARY.k9_all_select ();
           0x0064430c      4e56ffee       link.w a6, 0xffee
           0x00644310      bfd5           cmpa.l (a5), a7
       < 0x00644312      6206           bhi.b 0x64431a
          0x00644314      44fc0002       move.w 0x2, ccr
          0x00644318      4e76           trapv
       > 0x0064431a      defc000e       adda.w 0xe, a7
           0x0064431e      48e70100       movem.l d7, -(a7)
           0x00644322      7e01           moveq 0x1, d7
       > 0x00644324      2f07           move.l d7, -(a7)
          0x00644326      1f3c0001       move.b 0x1, -(a7)
          0x0064432a      4ebafc0c       jsr K9_LIBRARY.display_title_b(pc)
          0x0064432e      5c4f           addq.w 0x6, a7
          0x00644330      5287           addq.l 0x1, d7
          0x00644332      0c870000000c   cmpi.l 0xc, d7
       < 0x00644338      6fea           ble.b 0x644324
           0x0064433a      4cdf0080       movem.l (a7)+, d7
           0x0064433e      4e5e           unlk a6
           0x00644340      4e75           rts
            ; CALL XREF from K92_DISPLAY.display_browse @ 0x653e78
 128: K9_LIBRARY.k9_slot (int32_t arg_59h, int32_t arg_5ah, int32_t arg_5bh);
           ; arg int32_t arg_59h @ a7+0x59
           ; arg int32_t arg_5ah @ a7+0x5a
           ; arg int32_t arg_5bh @ a7+0x5b
           0x00644342      4e56ffd2       link.w a6, 0xffd2
           0x00644346      bfd5           cmpa.l (a5), a7
       < 0x00644348      6206           bhi.b 0x644350
          0x0064434a      44fc0002       move.w 0x2, ccr
          0x0064434e      4e76           trapv
       > 0x00644350      defc002a       adda.w 0x2a, a7
           0x00644354      48e7d9c0       movem.l d0-d1/d3-d4/d7/a0-a1, -(a7)
           0x00644358      42ae000c       clr.l 0xc(a6)
           0x0064435c      103900847e42   move.b 0x847e42, d0
           0x00644362      4880           ext.w d0
           0x00644364      c1fc02d0       muls.w 0x2d0, d0
           0x00644368      41f900847e32   lea.l 0x847e32, a0
           0x0064436e      7e01           moveq 0x1, d7
       > 0x00644370      2207           move.l d7, d1
          0x00644372      5381           subq.l 0x1, d1
          0x00644374      0c810000000b   cmpi.l 0xb, d1
      < 0x0064437a      6302           bls.b 0x64437e
         0x0064437c      4e4f           trap 0xf
      > 0x0064437e      2801           move.l d1, d4
          0x00644380      761e           moveq 0x1e, d3
          0x00644382      4eb900406a74   jsr fcn.00406a74
          0x00644388      43f00000       lea.l (a0, d0.w), a1
          0x0064438c      594f           subq.w 0x4, a7
          0x0064438e      1eb14858       move.b 0x58(a1, d4.l), (a7)
          0x00644392      1f7148590001   move.b 0x59(a1, d4.l), 0x1(a7)
          0x00644398      1f71485a0002   move.b 0x5a(a1, d4.l), 0x2(a7)
          0x0064439e      1f71485b0003   move.b 0x5b(a1, d4.l), 0x3(a7)
          0x006443a4      225f           movea.l (a7)+, a1
          0x006443a6      b3ee0008       cmpa.l 0x8(a6), a1
      < 0x006443aa      6604           bne.b 0x6443b0
         0x006443ac      2d47000c       move.l d7, 0xc(a6)
      > 0x006443b0      5287           addq.l 0x1, d7
          0x006443b2      0c870000000c   cmpi.l 0xc, d7
       < 0x006443b8      6fb6           ble.b 0x644370
           0x006443ba      4cdf039b       movem.l (a7)+, d0-d1/d3-d4/d7/a0-a1
           0x006443be      4e5e           unlk a6
           0x006443c0      4e75           rts
            ; CALL XREFS from K9_LIBRARY.k9_act @ 0x646cac, 0x646d56
 36: K9_LIBRARY.k9_deselect ();
           0x006443c2      4e56fff6       link.w a6, 0xfff6
           0x006443c6      bfd5           cmpa.l (a5), a7
       < 0x006443c8      6206           bhi.b 0x6443d0
          0x006443ca      44fc0002       move.w 0x2, ccr
          0x006443ce      4e76           trapv
       > 0x006443d0      defc000a       adda.w 0xa, a7
           0x006443d4      2f2e0008       move.l 0x8(a6), -(a7)
           0x006443d8      1f3c0002       move.b 0x2, -(a7)
           0x006443dc      4ebafb5a       jsr K9_LIBRARY.display_title_b(pc)
           0x006443e0      5c4f           addq.w 0x6, a7
           0x006443e2      4e5e           unlk a6
           0x006443e4      4e75           rts
            ; CALL XREFS from MENULIBFNDCOM.hit_action_sele @ 0x758d00, 0x758f7e
            ; CALL XREF from MENULIBFNDCOM.hit_ignore @ 0x75933e
            ; CALL XREF from MENULIBFNDCOM.hit_confirm @ 0x75962e
 54: K9_LIBRARY.k9_all_deselect ();
           0x006443e6      4e56ffee       link.w a6, 0xffee
           0x006443ea      bfd5           cmpa.l (a5), a7
       < 0x006443ec      6206           bhi.b 0x6443f4
          0x006443ee      44fc0002       move.w 0x2, ccr
          0x006443f2      4e76           trapv
       > 0x006443f4      defc000e       adda.w 0xe, a7
           0x006443f8      48e70100       movem.l d7, -(a7)
           0x006443fc      7e01           moveq 0x1, d7
       > 0x006443fe      2f07           move.l d7, -(a7)
          0x00644400      1f3c0002       move.b 0x2, -(a7)
          0x00644404      4ebafb32       jsr K9_LIBRARY.display_title_b(pc)
          0x00644408      5c4f           addq.w 0x6, a7
          0x0064440a      5287           addq.l 0x1, d7
          0x0064440c      0c870000000c   cmpi.l 0xc, d7
       < 0x00644412      6fea           ble.b 0x6443fe
           0x00644414      4cdf0080       movem.l (a7)+, d7
           0x00644418      4e5e           unlk a6
           0x0064441a      4e75           rts
            ; CALL XREF from K9_LIBRARY.can_continue @ 0x6447c8
            ; CALL XREFS from K9_LIBRARY.get_continuatio @ 0x644992, 0x6449b8, 0x644ac2
 130: K9_LIBRARY.display_limit ();
           0x0064441c      4e56ffc2       link.w a6, 0xffc2
           0x00644420      bfd5           cmpa.l (a5), a7
       < 0x00644422      6206           bhi.b 0x64442a
          0x00644424      44fc0002       move.w 0x2, ccr
          0x00644428      4e76           trapv
       > 0x0064442a      defc0032       adda.w 0x32, a7
           0x0064442e      48e7dfc0       movem.l d0-d1/d3-d7/a0-a1, -(a7)
           0x00644432      4a2e0008       tst.b 0x8(a6)
       < 0x00644436      660e           bne.b 0x644446
          0x00644438      7e00           moveq 0x0, d7
          0x0064443a      7c01           moveq 0x1, d6
          0x0064443c      594f           subq.w 0x4, a7
          0x0064443e      4ebaee56       jsr K9_LIBRARY.display_max(pc)
          0x00644442      2a1f           move.l (a7)+, d5
      < 0x00644444      600e           bra.b 0x644454
      > 0x00644446      594f           subq.w 0x4, a7
          0x00644448      4ebaee4c       jsr K9_LIBRARY.display_max(pc)
          0x0064444c      2e1f           move.l (a7)+, d7
          0x0064444e      5287           addq.l 0x1, d7
          0x00644450      7cff           moveq 0xff, d6
          0x00644452      7a01           moveq 0x1, d5
      > 0x00644454      103900847e42   move.b 0x847e42, d0
           0x0064445a      4880           ext.w d0
           0x0064445c      c1fc02d0       muls.w 0x2d0, d0
           0x00644460      41f900847e32   lea.l 0x847e32, a0
       > 0x00644466      de86           add.l d6, d7
          0x00644468      2207           move.l d7, d1
          0x0064446a      5381           subq.l 0x1, d1
          0x0064446c      0c810000000b   cmpi.l 0xb, d1
      < 0x00644472      6302           bls.b 0x644476
         0x00644474      4e4f           trap 0xf
      > 0x00644476      2801           move.l d1, d4
          0x00644478      761e           moveq 0x1e, d3
          0x0064447a      4eb900406a74   jsr fcn.00406a74
          0x00644480      be85           cmp.l d5, d7
      < 0x00644482      670e           beq.b 0x644492
         0x00644484      43f00000       lea.l (a0, d0.w), a1
         0x00644488      22714858       movea.l 0x58(a1, d4.l), a1
         0x0064448c      b2fc0001       cmpa.w 0x1, a1
      < 0x00644490      67d4           beq.b 0x644466
      > 0x00644492      2d47000a       move.l d7, 0xa(a6)
           0x00644496      4cdf03fb       movem.l (a7)+, d0-d1/d3-d7/a0-a1
           0x0064449a      4e5e           unlk a6
           0x0064449c      4e75           rts
            ; XREFS: CALL 0x00645bbe  CALL 0x00645cfa  CALL 0x00645f0e  
            ; XREFS: CALL 0x0064671e  CALL 0x00646762  CALL 0x006471fc  
            ; XREFS: CALL 0x00647252  
 152: K9_LIBRARY.alloc_display ();
           0x0064449e      4e56ffb2       link.w a6, 0xffb2
           0x006444a2      bfd5           cmpa.l (a5), a7
       < 0x006444a4      6206           bhi.b 0x6444ac
          0x006444a6      44fc0002       move.w 0x2, ccr
          0x006444aa      4e76           trapv
       > 0x006444ac      defc0046       adda.w 0x46, a7
           0x006444b0      48e7fbf8       movem.l d0-d4/d6-d7/a0-a4, -(a7)
           0x006444b4      49ee0008       lea.l 0x8(a6), a4
           0x006444b8      7401           moveq 0x1, d2
           0x006444ba      4a2e000c       tst.b 0xc(a6)
       < 0x006444be      6610           bne.b 0x6444d0
          0x006444c0      2054           movea.l (a4), a0
          0x006444c2      4290           clr.l (a0)
          0x006444c4      7e01           moveq 0x1, d7
          0x006444c6      594f           subq.w 0x4, a7
          0x006444c8      4ebaedcc       jsr K9_LIBRARY.display_max(pc)
          0x006444cc      2c1f           move.l (a7)+, d6
      < 0x006444ce      6010           bra.b 0x6444e0
      > 0x006444d0      2054           movea.l (a4), a0
          0x006444d2      594f           subq.w 0x4, a7
          0x006444d4      4ebaedc0       jsr K9_LIBRARY.display_max(pc)
          0x006444d8      209f           move.l (a7)+, (a0)
          0x006444da      5290           addq.l 0x1, (a0)
          0x006444dc      7eff           moveq 0xff, d7
          0x006444de      7c01           moveq 0x1, d6
      > 0x006444e0      2054           movea.l (a4), a0
           0x006444e2      103900847e42   move.b 0x847e42, d0
           0x006444e8      4880           ext.w d0
           0x006444ea      c1fc02d0       muls.w 0x2d0, d0
           0x006444ee      43f900847e32   lea.l 0x847e32, a1
       > 0x006444f4      df90           add.l d7, (a0)
          0x006444f6      2210           move.l (a0), d1
          0x006444f8      5381           subq.l 0x1, d1
          0x006444fa      0c810000000b   cmpi.l 0xb, d1
      < 0x00644500      6302           bls.b 0x644504
         0x00644502      4e4f           trap 0xf
      > 0x00644504      2801           move.l d1, d4
          0x00644506      761e           moveq 0x1e, d3
          0x00644508      4eb900406a74   jsr fcn.00406a74
          0x0064450e      45f10000       lea.l (a1, d0.w), a2
          0x00644512      bc90           cmp.l (a0), d6
      < 0x00644514      6708           beq.b 0x64451e
         0x00644516      26724858       movea.l 0x58(a2, d4.l), a3
         0x0064451a      b6c2           cmpa.w d2, a3
      < 0x0064451c      66d6           bne.b 0x6444f4
      > 0x0064451e      422e000e       clr.b 0xe(a6)
           0x00644522      20724858       movea.l 0x58(a2, d4.l), a0
           0x00644526      b0c2           cmpa.w d2, a0
       < 0x00644528      6604           bne.b 0x64452e
          0x0064452a      522e000e       addq.b 0x1, 0xe(a6)
       > 0x0064452e      4cdf1fdf       movem.l (a7)+, d0-d4/d6-d7/a0-a4
           0x00644532      4e5e           unlk a6
           0x00644534      4e75           rts
            ; XREFS: CALL 0x00644646  CALL 0x00644704  CALL 0x00645132  
            ; XREFS: CALL 0x00645e78  CALL 0x00645eac  CALL 0x0064735c  
            ; XREFS: CALL 0x00647b06  CALL 0x00649be6  
 84: K9_LIBRARY.lists_joined ();
           0x00644536      4e56ffe4       link.w a6, 0xffe4
           0x0064453a      bfd5           cmpa.l (a5), a7
       < 0x0064453c      6206           bhi.b 0x644544
          0x0064453e      44fc0002       move.w 0x2, ccr
          0x00644542      4e76           trapv
       > 0x00644544      defc001c       adda.w 0x1c, a7
           0x00644548      48e780e0       movem.l d0/a0-a2, -(a7)
           0x0064454c      7001           moveq 0x1, d0
           0x0064454e      206e0008       movea.l 0x8(a6), a0
           0x00644552      b1e8fffc       cmpa.l -0x4(a0), a0
       < 0x00644556      6702           beq.b 0x64455a
          0x00644558      4e4d           trap 0xd
       > 0x0064455a      422e000c       clr.b 0xc(a6)
           0x0064455e      22680008       movea.l 0x8(a0), a1
           0x00644562      b2c0           cmpa.w d0, a1
       < 0x00644564      671c           beq.b 0x644582
          0x00644566      2468000c       movea.l 0xc(a0), a2
          0x0064456a      b4c0           cmpa.w d0, a2
      < 0x0064456c      6714           beq.b 0x644582
         0x0064456e      b3e80010       cmpa.l 0x10(a0), a1
     < 0x00644572      660e           bne.b 0x644582
        0x00644574      2268000c       movea.l 0xc(a0), a1
        0x00644578      b3e80014       cmpa.l 0x14(a0), a1
    < 0x0064457c      6604           bne.b 0x644582
       0x0064457e      522e000c       addq.b 0x1, 0xc(a6)
    > 0x00644582      4cdf0701       movem.l (a7)+, d0/a0-a2
           0x00644586      4e5e           unlk a6
           0x00644588      4e75           rts
            ; CALL XREF from K9_LIBRARY.get_continuatio @ 0x644af8
 544: K9_LIBRARY.count_files ();
           ; var int32_t var_8h @ a6-0x8
           ; var int32_t var_4h @ a6-0x4
           0x0064458a      4e56ffa4       link.w a6, 0xffa4
           0x0064458e      bfd5           cmpa.l (a5), a7
       < 0x00644590      6206           bhi.b 0x644598
          0x00644592      44fc0002       move.w 0x2, ccr
          0x00644596      4e76           trapv
       > 0x00644598      defc0048       adda.w 0x48, a7
           0x0064459c      48e7f0f8       movem.l d0-d3/a0-a4, -(a7)
           0x006445a0      720c           moveq 0xc, d1
           0x006445a2      7401           moveq 0x1, d2
           0x006445a4      76ff           moveq 0xff, d3
           0x006445a6      206e0018       movea.l 0x18(a6), a0
           0x006445aa      b1e8fffc       cmpa.l -0x4(a0), a0
       < 0x006445ae      6702           beq.b 0x6445b2
          0x006445b0      4e4d           trap 0xd
       > 0x006445b2      28680008       movea.l 0x8(a0), a4
           0x006445b6      42aefff8       clr.l -0x8(a6)
           0x006445ba      42aefff0       clr.l -0x10(a6)
       > 0x006445be      b8c2           cmpa.w d2, a4
      < 0x006445c0      671c           beq.b 0x6445de
         0x006445c2      52aefff8       addq.l 0x1, -0x8(a6)
         0x006445c6      b9ee0014       cmpa.l 0x14(a6), a4
     < 0x006445ca      6606           bne.b 0x6445d2
        0x006445cc      2d6efff8fff0   move.l -0x8(a6), -0x10(a6)
     > 0x006445d2      b9ecfffc       cmpa.l -0x4(a4), a4
     < 0x006445d6      6702           beq.b 0x6445da
        0x006445d8      4e4d           trap 0xd
     > 0x006445da      2854           movea.l (a4), a4
      < 0x006445dc      60e0           bra.b 0x6445be
      > 0x006445de      206e0018       movea.l 0x18(a6), a0
           0x006445e2      b1e8fffc       cmpa.l -0x4(a0), a0
       < 0x006445e6      6702           beq.b 0x6445ea
          0x006445e8      4e4d           trap 0xd
       > 0x006445ea      28680014       movea.l 0x14(a0), a4
           0x006445ee      42aefffc       clr.l -0x4(a6)
           0x006445f2      42aefff4       clr.l -0xc(a6)
       > 0x006445f6      b8c2           cmpa.w d2, a4
      < 0x006445f8      671e           beq.b 0x644618
         0x006445fa      52aefffc       addq.l 0x1, -0x4(a6)
         0x006445fe      b9ee0014       cmpa.l 0x14(a6), a4
     < 0x00644602      6606           bne.b 0x64460a
        0x00644604      2d6efffcfff4   move.l -0x4(a6), -0xc(a6)
     > 0x0064460a      b9ecfffc       cmpa.l -0x4(a4), a4
     < 0x0064460e      6702           beq.b 0x644612
        0x00644610      4e4d           trap 0xd
     > 0x00644612      286c0004       movea.l 0x4(a4), a4
      < 0x00644616      60de           bra.b 0x6445f6
      > 0x00644618      206e0008       movea.l 0x8(a6), a0
           0x0064461c      4210           clr.b (a0)
           0x0064461e      226e000c       movea.l 0xc(a6), a1
           0x00644622      4291           clr.l (a1)
           0x00644624      246e0010       movea.l 0x10(a6), a2
           0x00644628      2483           move.l d3, (a2)
           0x0064462a      266e0018       movea.l 0x18(a6), a3
           0x0064462e      b7ebfffc       cmpa.l -0x4(a3), a3
       < 0x00644632      6702           beq.b 0x644636
          0x00644634      4e4d           trap 0xd
       > 0x00644636      202b0020       move.l 0x20(a3), d0
           0x0064463a      b083           cmp.l d3, d0
       < 0x0064463c      660000c0       bne.w 0x6446fe
          0x00644640      554f           subq.w 0x2, a7
          0x00644642      2f2e0018       move.l 0x18(a6), -(a7)
          0x00644646      4ebafeee       jsr K9_LIBRARY.lists_joined(pc)
          0x0064464a      584f           addq.w 0x4, a7
          0x0064464c      4a1f           tst.b (a7)+
      < 0x0064464e      67000088       beq.w 0x6446d8
         0x00644652      202efff8       move.l -0x8(a6), d0
         0x00644656      b0aefffc       cmp.l -0x4(a6), d0
     < 0x0064465a      6606           bne.b 0x644662
        0x0064465c      27400020       move.l d0, 0x20(a3)
    < 0x00644660      6018           bra.b 0x64467a
    > 0x00644662      487ad62c       pea.l 0x641c90(pc)
        0x00644666      48780018       pea.l 0x18
        0x0064466a      2f17           move.l (a7), -(a7)
        0x0064466c      4eb9004047ea   jsr p_wts_o
        0x00644672      dec1           adda.w d1, a7
        0x00644674      4eb900404946   jsr p_wtln_o
    > 0x0064467a      24ab0020       move.l 0x20(a3), (a2)
         0x0064467e      4aaefff0       tst.l -0x10(a6)
     < 0x00644682      6730           beq.b 0x6446b4
        0x00644684      202efffc       move.l -0x4(a6), d0
        0x00644688      5280           addq.l 0x1, d0
        0x0064468a      90aefff0       sub.l -0x10(a6), d0
        0x0064468e      b0aefff4       cmp.l -0xc(a6), d0
    < 0x00644692      6718           beq.b 0x6446ac
       0x00644694      487ad613       pea.l 0x641ca9(pc)
       0x00644698      48780018       pea.l 0x18
       0x0064469c      2f17           move.l (a7), -(a7)
       0x0064469e      4eb9004047ea   jsr p_wts_o
       0x006446a4      dec1           adda.w d1, a7
       0x006446a6      4eb900404946   jsr p_wtln_o
 > 0x006446ac      22aefff0       move.l -0x10(a6), (a1)
 < 0x006446b0      600000f0       bra.w 0x6447a2
 > 0x006446b4      4aaefff4       tst.l -0xc(a6)
 < 0x006446b8      670000e8       beq.w 0x6447a2
    0x006446bc      487ad604       pea.l 0x641cc2(pc)
 > 0x006446c0      48780018       pea.l 0x18
    0x006446c4      2f17           move.l (a7), -(a7)
    0x006446c6      4eb9004047ea   jsr p_wts_o
    0x006446cc      dec1           adda.w d1, a7
    0x006446ce      4eb900404946   jsr p_wtln_o
 < 0x006446d4      600000cc       bra.w 0x6447a2
 > 0x006446d8      202efff8       move.l -0x8(a6), d0
     0x006446dc      d0aefffc       add.l -0x4(a6), d0
     0x006446e0      2480           move.l d0, (a2)
     0x006446e2      1082           move.b d2, (a0)
     0x006446e4      4aaefff0       tst.l -0x10(a6)
 < 0x006446e8      6702           beq.b 0x6446ec
 < 0x006446ea      60c0           bra.b 0x6446ac
  > 0x006446ec      4aaefff4       tst.l -0xc(a6)
  < 0x006446f0      670000b0       beq.w 0x6447a2
     0x006446f4      22aefff4       move.l -0xc(a6), (a1)
     0x006446f8      4491           neg.l (a1)
 < 0x006446fa      600000a6       bra.w 0x6447a2
 > 0x006446fe      554f           subq.w 0x2, a7
     0x00644700      2f2e0018       move.l 0x18(a6), -(a7)
     0x00644704      4ebafe30       jsr K9_LIBRARY.lists_joined(pc)
     0x00644708      584f           addq.w 0x4, a7
     0x0064470a      4a1f           tst.b (a7)+
 < 0x0064470c      6772           beq.b 0x644780
    0x0064470e      202efff8       move.l -0x8(a6), d0
    0x00644712      b0aefffc       cmp.l -0x4(a6), d0
 < 0x00644716      6706           beq.b 0x64471e
    0x00644718      487ad5c1       pea.l 0x641cdb(pc)
 < 0x0064471c      600a           bra.b 0x644728
 > 0x0064471e      b0ab0020       cmp.l 0x20(a3), d0
 < 0x00644722      6718           beq.b 0x64473c
    0x00644724      487ad5ce       pea.l 0x641cf4(pc)
 > 0x00644728      48780018       pea.l 0x18
    0x0064472c      2f17           move.l (a7), -(a7)
    0x0064472e      4eb9004047ea   jsr p_wts_o
    0x00644734      dec1           adda.w d1, a7
    0x00644736      4eb900404946   jsr p_wtln_o
 > 0x0064473c      24ab0020       move.l 0x20(a3), (a2)
    0x00644740      4aaefff0       tst.l -0x10(a6)
 < 0x00644744      672c           beq.b 0x644772
    0x00644746      202efffc       move.l -0x4(a6), d0
    0x0064474a      5280           addq.l 0x1, d0
    0x0064474c      90aefff0       sub.l -0x10(a6), d0
    0x00644750      b0aefff4       cmp.l -0xc(a6), d0
 < 0x00644754      6718           beq.b 0x64476e
    0x00644756      487ad5b5       pea.l 0x641d0d(pc)
    0x0064475a      48780018       pea.l 0x18
    0x0064475e      2f17           move.l (a7), -(a7)
    0x00644760      4eb9004047ea   jsr p_wts_o
    0x00644766      dec1           adda.w d1, a7
    0x00644768      4eb900404946   jsr p_wtln_o
 < 0x0064476e      6000ff3c       bra.w 0x6446ac
 > 0x00644772      4aaefff4       tst.l -0xc(a6)
 < 0x00644776      672a           beq.b 0x6447a2
    0x00644778      487ad5ac       pea.l 0x641d26(pc)
 < 0x0064477c      6000ff42       bra.w 0x6446c0
 > 0x00644780      24ab0020       move.l 0x20(a3), (a2)
     0x00644784      4aaefff0       tst.l -0x10(a6)
 < 0x00644788      6704           beq.b 0x64478e
 < 0x0064478a      6000ff20       bra.w 0x6446ac
  > 0x0064478e      4aaefff4       tst.l -0xc(a6)
  < 0x00644792      670e           beq.b 0x6447a2
     0x00644794      22ab0020       move.l 0x20(a3), (a1)
     0x00644798      5291           addq.l 0x1, (a1)
     0x0064479a      2011           move.l (a1), d0
     0x0064479c      90aefff4       sub.l -0xc(a6), d0
     0x006447a0      2280           move.l d0, (a1)
 > 0x006447a2      4cdf1f0f       movem.l (a7)+, d0-d3/a0-a4
           0x006447a6      4e5e           unlk a6
           0x006447a8      4e75           rts
            ; CALL XREFS from K9_LIBRARY.get_continuatio @ 0x644b78, 0x644b92, 0x644bac, 0x644bc6
 192: K9_LIBRARY.can_continue ();
           0x006447aa      4e56ffba       link.w a6, 0xffba
           0x006447ae      bfd5           cmpa.l (a5), a7
       < 0x006447b0      6206           bhi.b 0x6447b8
          0x006447b2      44fc0002       move.w 0x2, ccr
          0x006447b6      4e76           trapv
       > 0x006447b8      defc0044       adda.w 0x44, a7
           0x006447bc      48e7fdf0       movem.l d0-d5/d7/a0-a3, -(a7)
           0x006447c0      7a01           moveq 0x1, d5
           0x006447c2      594f           subq.w 0x4, a7
           0x006447c4      1f2e000a       move.b 0xa(a6), -(a7)
           0x006447c8      4ebafc52       jsr K9_LIBRARY.display_limit(pc)
           0x006447cc      544f           addq.w 0x2, a7
           0x006447ce      201f           move.l (a7)+, d0
           0x006447d0      5380           subq.l 0x1, d0
           0x006447d2      0c800000000b   cmpi.l 0xb, d0
       < 0x006447d8      6302           bls.b 0x6447dc
          0x006447da      4e4f           trap 0xf
       > 0x006447dc      2800           move.l d0, d4
           0x006447de      761e           moveq 0x1e, d3
           0x006447e0      4eb900406a74   jsr fcn.00406a74
           0x006447e6      103900847e42   move.b 0x847e42, d0
           0x006447ec      4880           ext.w d0
           0x006447ee      c1fc02d0       muls.w 0x2d0, d0
           0x006447f2      41f900847e32   lea.l 0x847e32, a0
           0x006447f8      41f00000       lea.l (a0, d0.w), a0
           0x006447fc      2270485c       movea.l 0x5c(a0, d4.l), a1
           0x00644800      b3e9fffc       cmpa.l -0x4(a1), a1
       < 0x00644804      6702           beq.b 0x644808
          0x00644806      4e4d           trap 0xd
       > 0x00644808      102e000c       move.b 0xc(a6), d0
           0x0064480c      4880           ext.w d0
           0x0064480e      3200           move.w d0, d1
           0x00644810      e541           asl.w 0x2, d1
           0x00644812      142e0008       move.b 0x8(a6), d2
           0x00644816      4882           ext.w d2
           0x00644818      3602           move.w d2, d3
           0x0064481a      e743           asl.w 0x3, d3
           0x0064481c      45f13000       lea.l (a1, d3.w), a2
           0x00644820      26704858       movea.l 0x58(a0, d4.l), a3
           0x00644824      b7f21008       cmpa.l 0x8(a2, d1.w), a3
       < 0x00644828      6610           bne.b 0x64483a
          0x0064482a      1231001c       move.b 0x1c(a1, d0.w), d1
          0x0064482e      4401           neg.b d1
          0x00644830      5201           addq.b 0x1, d1
          0x00644832      4881           ext.w d1
          0x00644834      4385           chk.w d5, d1
          0x00644836      1e01           move.b d1, d7
      < 0x00644838      6020           bra.b 0x64485a
      > 0x0064483a      b6c5           cmpa.w d5, a3
      < 0x0064483c      671a           beq.b 0x644858
         0x0064483e      7e00           moveq 0x0, d7
         0x00644840      3002           move.w d2, d0
         0x00644842      e540           asl.w 0x2, d0
         0x00644844      b7ebfffc       cmpa.l -0x4(a3), a3
     < 0x00644848      6702           beq.b 0x64484c
        0x0064484a      4e4d           trap 0xd
     > 0x0064484c      22730000       movea.l (a3, d0.w), a1
         0x00644850      b2c5           cmpa.w d5, a1
     < 0x00644852      6702           beq.b 0x644856
        0x00644854      5207           addq.b 0x1, d7
    > 0x00644856      6002           bra.b 0x64485a
     > 0x00644858      7e00           moveq 0x0, d7
    > 0x0064485a      4887           ext.w d7
           0x0064485c      4f85           chk.w d5, d7
           0x0064485e      1d47000e       move.b d7, 0xe(a6)
           0x00644862      4cdf0fbf       movem.l (a7)+, d0-d5/d7/a0-a3
           0x00644866      4e5e           unlk a6
           0x00644868      4e75           rts
            ; CALL XREFS from K9_LIBRARY.get_continuatio @ 0x644a4e, 0x644a6e
 98: K9_LIBRARY.files_this_way ();
           0x0064486a      4e56ffdc       link.w a6, 0xffdc
           0x0064486e      bfd5           cmpa.l (a5), a7
       < 0x00644870      6206           bhi.b 0x644878
          0x00644872      44fc0002       move.w 0x2, ccr
          0x00644876      4e76           trapv
       > 0x00644878      defc0020       adda.w 0x20, a7
           0x0064487c      48e7c0c8       movem.l d0-d1/a0-a1/a4, -(a7)
           0x00644880      43ee000e       lea.l 0xe(a6), a1
           0x00644884      7201           moveq 0x1, d1
           0x00644886      4211           clr.b (a1)
           0x00644888      206e000a       movea.l 0xa(a6), a0
           0x0064488c      b0c1           cmpa.w d1, a0
       < 0x0064488e      6604           bne.b 0x644894
          0x00644890      4211           clr.b (a1)
      < 0x00644892      6030           bra.b 0x6448c4
      > 0x00644894      2848           movea.l a0, a4
      > 0x00644896      b8c1           cmpa.w d1, a4
     < 0x00644898      672a           beq.b 0x6448c4
        0x0064489a      b9ecfffc       cmpa.l -0x4(a4), a4
    < 0x0064489e      6702           beq.b 0x6448a2
       0x006448a0      4e4d           trap 0xd
    > 0x006448a2      4a2c001e       tst.b 0x1e(a4)
    < 0x006448a6      6606           bne.b 0x6448ae
   > 0x006448a8      1281           move.b d1, (a1)
      0x006448aa      3841           movea.w d1, a4
  < 0x006448ac      6014           bra.b 0x6448c2
  > 0x006448ae      4aac0020       tst.l 0x20(a4)
  < 0x006448b2      6f02           ble.b 0x6448b6
  < 0x006448b4      60f2           bra.b 0x6448a8
   > 0x006448b6      102e0008       move.b 0x8(a6), d0
       0x006448ba      4880           ext.w d0
       0x006448bc      e540           asl.w 0x2, d0
       0x006448be      28740000       movea.l (a4, d0.w), a4
  < 0x006448c2      60d2           bra.b 0x644896
     > 0x006448c4      4cdf1303       movem.l (a7)+, d0-d1/a0-a1/a4
           0x006448c8      4e5e           unlk a6
           0x006448ca      4e75           rts
            ; CALL XREF from K9_LIBRARY.k9_get_continua @ 0x644c24
            ; CALL XREF from K9_LIBRARY.continuation_he @ 0x644c6e
            ; CALL XREF from K9_LIBRARY.everything_cont @ 0x647160
 786: K9_LIBRARY.get_continuatio (int32_t arg_4ah);
           ; var int32_t var_1eh @ a6-0x1e
           ; arg int32_t arg_4ah @ a6+0x4a
           0x006448cc      4e56ff5e       link.w a6, 0xff5e
           0x006448d0      bfd5           cmpa.l (a5), a7
       < 0x006448d2      6206           bhi.b 0x6448da
          0x006448d4      44fc0002       move.w 0x2, ccr
          0x006448d8      4e76           trapv
       > 0x006448da      defc0078       adda.w 0x78, a7
           0x006448de      48e7fff8       movem.l d0-d7/a0-a4, -(a7)
           0x006448e2      7a01           moveq 0x1, d5
           0x006448e4      7c0b           moveq 0xb, d6
           0x006448e6      103900847e42   move.b 0x847e42, d0
           0x006448ec      4880           ext.w d0
           0x006448ee      c1fc02d0       muls.w 0x2d0, d0
           0x006448f2      41f900847e32   lea.l 0x847e32, a0
           0x006448f8      2f08           move.l a0, -(a7)
           0x006448fa      2270001e       movea.l 0x1e(a0, d0.w), a1
           0x006448fe      b2c5           cmpa.w d5, a1
       < 0x00644900      6628           bne.b 0x64492a
          0x00644902      246e0028       movea.l 0x28(a6), a2
          0x00644906      4212           clr.b (a2)
          0x00644908      246e0024       movea.l 0x24(a6), a2
          0x0064490c      4212           clr.b (a2)
          0x0064490e      246e0020       movea.l 0x20(a6), a2
          0x00644912      4212           clr.b (a2)
          0x00644914      246e001c       movea.l 0x1c(a6), a2
          0x00644918      4212           clr.b (a2)
          0x0064491a      246e0018       movea.l 0x18(a6), a2
          0x0064491e      4212           clr.b (a2)
          0x00644920      246e0014       movea.l 0x14(a6), a2
          0x00644924      4212           clr.b (a2)
      < 0x00644926      600002ac       bra.w 0x644bd4
      > 0x0064492a      b3e9fffc       cmpa.l -0x4(a1), a1
      < 0x0064492e      6702           beq.b 0x644932
         0x00644930      4e4d           trap 0xd
      > 0x00644932      24690008       movea.l 0x8(a1), a2
          0x00644936      b4c5           cmpa.w d5, a2
      < 0x00644938      6654           bne.b 0x64498e
         0x0064493a      487ad47c       pea.l 0x641db8(pc)
         0x0064493e      48780021       pea.l 0x21
         0x00644942      2f17           move.l (a7), -(a7)
         0x00644944      4eb9004047ea   jsr p_wts_o
         0x0064494a      defc000c       adda.w 0xc, a7
         0x0064494e      4eb900404946   jsr p_wtln_o
         0x00644954      246e0028       movea.l 0x28(a6), a2
         0x00644958      4212           clr.b (a2)
         0x0064495a      246e0024       movea.l 0x24(a6), a2
         0x0064495e      4212           clr.b (a2)
         0x00644960      246e0020       movea.l 0x20(a6), a2
         0x00644964      4212           clr.b (a2)
         0x00644966      246e001c       movea.l 0x1c(a6), a2
         0x0064496a      4212           clr.b (a2)
         0x0064496c      246e0014       movea.l 0x14(a6), a2
         0x00644970      4212           clr.b (a2)
         0x00644972      2051           movea.l (a1), a0
         0x00644974      b0c5           cmpa.w d5, a0
     < 0x00644976      6702           beq.b 0x64497a
        0x00644978      5212           addq.b 0x1, (a2)
     > 0x0064497a      206e0018       movea.l 0x18(a6), a0
         0x0064497e      4210           clr.b (a0)
         0x00644980      24690004       movea.l 0x4(a1), a2
         0x00644984      b4c5           cmpa.w d5, a2
     < 0x00644986      6702           beq.b 0x64498a
        0x00644988      5210           addq.b 0x1, (a0)
    > 0x0064498a      60000248       bra.w 0x644bd4
     > 0x0064498e      594f           subq.w 0x4, a7
         0x00644990      4227           clr.b -(a7)
         0x00644992      4ebafa88       jsr K9_LIBRARY.display_limit(pc)
         0x00644996      544f           addq.w 0x2, a7
         0x00644998      221f           move.l (a7)+, d1
         0x0064499a      5381           subq.l 0x1, d1
         0x0064499c      b286           cmp.l d6, d1
     < 0x0064499e      6302           bls.b 0x6449a2
        0x006449a0      4e4f           trap 0xf
     > 0x006449a2      2801           move.l d1, d4
         0x006449a4      761e           moveq 0x1e, d3
         0x006449a6      4eb900406a74   jsr fcn.00406a74
         0x006449ac      45f00012       lea.l 0x12(a0, d0.w), a2
         0x006449b0      2672484a       movea.l 0x4a(a2, d4.l), a3
         0x006449b4      594f           subq.w 0x4, a7
         0x006449b6      1f05           move.b d5, -(a7)
         0x006449b8      4ebafa62       jsr K9_LIBRARY.display_limit(pc)
         0x006449bc      544f           addq.w 0x2, a7
         0x006449be      221f           move.l (a7)+, d1
         0x006449c0      5381           subq.l 0x1, d1
         0x006449c2      b286           cmp.l d6, d1
     < 0x006449c4      6302           bls.b 0x6449c8
        0x006449c6      4e4f           trap 0xf
     > 0x006449c8      2801           move.l d1, d4
         0x006449ca      761e           moveq 0x1e, d3
         0x006449cc      4eb900406a74   jsr fcn.00406a74
         0x006449d2      2d72484afff2   move.l 0x4a(a2, d4.l), -0xe(a6)
         0x006449d8      246e0014       movea.l 0x14(a6), a2
         0x006449dc      4212           clr.b (a2)
         0x006449de      2051           movea.l (a1), a0
         0x006449e0      b0c5           cmpa.w d5, a0
     < 0x006449e2      6702           beq.b 0x6449e6
        0x006449e4      5212           addq.b 0x1, (a2)
     > 0x006449e6      206e0018       movea.l 0x18(a6), a0
         0x006449ea      4210           clr.b (a0)
         0x006449ec      22690004       movea.l 0x4(a1), a1
         0x006449f0      b2c5           cmpa.w d5, a1
     < 0x006449f2      6702           beq.b 0x6449f6
        0x006449f4      5210           addq.b 0x1, (a0)
     > 0x006449f6      b6c5           cmpa.w d5, a3
     < 0x006449f8      6642           bne.b 0x644a3c
        0x006449fa      4227           clr.b -(a7)
        0x006449fc      226efff2       movea.l -0xe(a6), a1
        0x00644a00      b2c5           cmpa.w d5, a1
    < 0x00644a02      6602           bne.b 0x644a06
       0x00644a04      5217           addq.b 0x1, (a7)
    > 0x00644a06      4eb90040452a   jsr p_Assert
        0x00644a0c      544f           addq.w 0x2, a7
        0x00644a0e      226e0028       movea.l 0x28(a6), a1
        0x00644a12      4211           clr.b (a1)
        0x00644a14      226e0024       movea.l 0x24(a6), a1
        0x00644a18      4211           clr.b (a1)
        0x00644a1a      226e0020       movea.l 0x20(a6), a1
        0x00644a1e      4211           clr.b (a1)
        0x00644a20      226e001c       movea.l 0x1c(a6), a1
        0x00644a24      4211           clr.b (a1)
        0x00644a26      226e000c       movea.l 0xc(a6), a1
        0x00644a2a      4291           clr.l (a1)
        0x00644a2c      226e0008       movea.l 0x8(a6), a1
        0x00644a30      4291           clr.l (a1)
        0x00644a32      226e0010       movea.l 0x10(a6), a1
        0x00644a36      4211           clr.b (a1)
    < 0x00644a38      6000019a       bra.w 0x644bd4
    > 0x00644a3c      554f           subq.w 0x2, a7
        0x00644a3e      226efff2       movea.l -0xe(a6), a1
        0x00644a42      b3e9fffc       cmpa.l -0x4(a1), a1
    < 0x00644a46      6702           beq.b 0x644a4a
       0x00644a48      4e4d           trap 0xd
    > 0x00644a4a      2f11           move.l (a1), -(a7)
        0x00644a4c      4227           clr.b -(a7)
        0x00644a4e      4ebafe1a       jsr K9_LIBRARY.files_this_way(pc)
        0x00644a52      5c4f           addq.w 0x6, a7
        0x00644a54      1212           move.b (a2), d1
        0x00644a56      821f           or.b (a7)+, d1
        0x00644a58      4881           ext.w d1
        0x00644a5a      4385           chk.w d5, d1
        0x00644a5c      1481           move.b d1, (a2)
        0x00644a5e      554f           subq.w 0x2, a7
        0x00644a60      b7ebfffc       cmpa.l -0x4(a3), a3
    < 0x00644a64      6702           beq.b 0x644a68
       0x00644a66      4e4d           trap 0xd
    > 0x00644a68      2f2b0004       move.l 0x4(a3), -(a7)
        0x00644a6c      1f05           move.b d5, -(a7)
        0x00644a6e      4ebafdfa       jsr K9_LIBRARY.files_this_way(pc)
        0x00644a72      5c4f           addq.w 0x6, a7
        0x00644a74      1210           move.b (a0), d1
        0x00644a76      821f           or.b (a7)+, d1
        0x00644a78      4881           ext.w d1
        0x00644a7a      4385           chk.w d5, d1
        0x00644a7c      1081           move.b d1, (a0)
        0x00644a7e      226e0010       movea.l 0x10(a6), a1
        0x00644a82      4211           clr.b (a1)
        0x00644a84      7e00           moveq 0x0, d7
        0x00644a86      42aeffe6       clr.l -0x1a(a6)
        0x00644a8a      42aeffea       clr.l -0x16(a6)
        0x00644a8e      2257           movea.l (a7), a1
        0x00644a90      2271001e       movea.l 0x1e(a1, d0.w), a1
        0x00644a94      b3e9fffc       cmpa.l -0x4(a1), a1
    < 0x00644a98      6702           beq.b 0x644a9c
       0x00644a9a      4e4d           trap 0xd
    > 0x00644a9c      28690008       movea.l 0x8(a1), a4
        0x00644aa0      226e0010       movea.l 0x10(a6), a1
        0x00644aa4      2f08           move.l a0, -(a7)
    > 0x00644aa6      2057           movea.l (a7), a0
       0x00644aa8      b8c5           cmpa.w d5, a4
   < 0x00644aaa      6606           bne.b 0x644ab2
      0x00644aac      584f           addq.w 0x4, a7
  < 0x00644aae      600000a0       bra.w 0x644b50
  > 0x00644ab2      123900847e42   move.b 0x847e42, d1
      0x00644ab8      4881           ext.w d1
      0x00644aba      c3fc02d0       muls.w 0x2d0, d1
      0x00644abe      594f           subq.w 0x4, a7
      0x00644ac0      4227           clr.b -(a7)
      0x00644ac2      4ebaf958       jsr K9_LIBRARY.display_limit(pc)
      0x00644ac6      544f           addq.w 0x2, a7
      0x00644ac8      241f           move.l (a7)+, d2
      0x00644aca      5382           subq.l 0x1, d2
      0x00644acc      b486           cmp.l d6, d2
  < 0x00644ace      6302           bls.b 0x644ad2
     0x00644ad0      4e4f           trap 0xf
  > 0x00644ad2      2802           move.l d2, d4
      0x00644ad4      761e           moveq 0x1e, d3
      0x00644ad6      4eb900406a74   jsr fcn.00406a74
      0x00644adc      2f0c           move.l a4, -(a7)
      0x00644ade      41f900847e32   lea.l 0x847e32, a0
      0x00644ae4      41f01000       lea.l (a0, d1.w), a0
      0x00644ae8      2f304858       move.l 0x58(a0, d4.l), -(a7)
      0x00644aec      486effda       pea.l -0x26(a6)
      0x00644af0      486effe2       pea.l -0x1e(a6)
      0x00644af4      486efffe       pea.l -0x2(a6)
      0x00644af8      4ebafa90       jsr K9_LIBRARY.count_files(pc)
      0x00644afc      defc0014       adda.w 0x14, a7
      0x00644b00      4aaeffea       tst.l -0x16(a6)
  < 0x00644b04      6712           beq.b 0x644b18
     0x00644b06      4aaeffe2       tst.l -0x1e(a6)
 < 0x00644b0a      6d0c           blt.b 0x644b18
    0x00644b0c      222effea       move.l -0x16(a6), d1
    0x00644b10      92aeffda       sub.l -0x26(a6), d1
    0x00644b14      2d41ffea       move.l d1, -0x16(a6)
 > 0x00644b18      4aaeffe2       tst.l -0x1e(a6)
  < 0x00644b1c      6f0c           ble.b 0x644b2a
     0x00644b1e      2207           move.l d7, d1
     0x00644b20      d2aeffe2       add.l -0x1e(a6), d1
     0x00644b24      2d41ffe6       move.l d1, -0x1a(a6)
 < 0x00644b28      600c           bra.b 0x644b36
 > 0x00644b2a      4aaeffe2       tst.l -0x1e(a6)
 < 0x00644b2e      6c06           bge.b 0x644b36
    0x00644b30      2d6effe2ffea   move.l -0x1e(a6), -0x16(a6)
 > 0x00644b36      deaeffda       add.l -0x26(a6), d7
      0x00644b3a      4a2efffe       tst.b -0x2(a6)
  < 0x00644b3e      6702           beq.b 0x644b42
     0x00644b40      1285           move.b d5, (a1)
  > 0x00644b42      b9ecfffc       cmpa.l -0x4(a4), a4
  < 0x00644b46      6702           beq.b 0x644b4a
     0x00644b48      4e4d           trap 0xd
  > 0x00644b4a      2854           movea.l (a4), a4
   < 0x00644b4c      6000ff58       bra.w 0x644aa6
  > 0x00644b50      226e000c       movea.l 0xc(a6), a1
        0x00644b54      4291           clr.l (a1)
        0x00644b56      4aaeffe6       tst.l -0x1a(a6)
    < 0x00644b5a      6706           beq.b 0x644b62
       0x00644b5c      22aeffe6       move.l -0x1a(a6), (a1)
   < 0x00644b60      6004           bra.b 0x644b66
   > 0x00644b62      22aeffea       move.l -0x16(a6), (a1)
   > 0x00644b66      226e0008       movea.l 0x8(a6), a1
        0x00644b6a      2287           move.l d7, (a1)
        0x00644b6c      226e0024       movea.l 0x24(a6), a1
        0x00644b70      554f           subq.w 0x2, a7
        0x00644b72      1f05           move.b d5, -(a7)
        0x00644b74      1f05           move.b d5, -(a7)
        0x00644b76      4227           clr.b -(a7)
        0x00644b78      4ebafc30       jsr K9_LIBRARY.can_continue(pc)
        0x00644b7c      5c4f           addq.w 0x6, a7
        0x00644b7e      121f           move.b (a7)+, d1
        0x00644b80      4881           ext.w d1
        0x00644b82      4385           chk.w d5, d1
        0x00644b84      1281           move.b d1, (a1)
        0x00644b86      226e0028       movea.l 0x28(a6), a1
        0x00644b8a      554f           subq.w 0x2, a7
        0x00644b8c      4227           clr.b -(a7)
        0x00644b8e      4227           clr.b -(a7)
        0x00644b90      1f05           move.b d5, -(a7)
        0x00644b92      4ebafc16       jsr K9_LIBRARY.can_continue(pc)
        0x00644b96      5c4f           addq.w 0x6, a7
        0x00644b98      121f           move.b (a7)+, d1
        0x00644b9a      4881           ext.w d1
        0x00644b9c      4385           chk.w d5, d1
        0x00644b9e      1281           move.b d1, (a1)
        0x00644ba0      226e001c       movea.l 0x1c(a6), a1
        0x00644ba4      554f           subq.w 0x2, a7
        0x00644ba6      1f05           move.b d5, -(a7)
        0x00644ba8      4227           clr.b -(a7)
        0x00644baa      4227           clr.b -(a7)
        0x00644bac      4ebafbfc       jsr K9_LIBRARY.can_continue(pc)
        0x00644bb0      5c4f           addq.w 0x6, a7
        0x00644bb2      121f           move.b (a7)+, d1
        0x00644bb4      4881           ext.w d1
        0x00644bb6      4385           chk.w d5, d1
        0x00644bb8      1281           move.b d1, (a1)
        0x00644bba      226e0020       movea.l 0x20(a6), a1
        0x00644bbe      554f           subq.w 0x2, a7
        0x00644bc0      4227           clr.b -(a7)
        0x00644bc2      1f05           move.b d5, -(a7)
        0x00644bc4      1f05           move.b d5, -(a7)
        0x00644bc6      4ebafbe2       jsr K9_LIBRARY.can_continue(pc)
        0x00644bca      5c4f           addq.w 0x6, a7
        0x00644bcc      121f           move.b (a7)+, d1
        0x00644bce      4881           ext.w d1
        0x00644bd0      4385           chk.w d5, d1
        0x00644bd2      1281           move.b d1, (a1)
    > 0x00644bd4      584f           addq.w 0x4, a7
           0x00644bd6      4cdf1fff       movem.l (a7)+, d0-d7/a0-a4
           0x00644bda      4e5e           unlk a6
           0x00644bdc      4e75           rts
            ; CALL XREF from MENULIBFNDCOM.set_continuatio @ 0x757efe
 86: K9_LIBRARY.k9_get_continua ();
           0x00644bde      4e56ffca       link.w a6, 0xffca
           0x00644be2      bfd5           cmpa.l (a5), a7
       < 0x00644be4      6206           bhi.b 0x644bec
          0x00644be6      44fc0002       move.w 0x2, ccr
          0x00644bea      4e76           trapv
       > 0x00644bec      defc002c       adda.w 0x2c, a7
           0x00644bf0      48e70080       movem.l a0, -(a7)
           0x00644bf4      206e001c       movea.l 0x1c(a6), a0
           0x00644bf8      4850           pea.l (a0)
           0x00644bfa      206e0018       movea.l 0x18(a6), a0
           0x00644bfe      4850           pea.l (a0)
           0x00644c00      206e0014       movea.l 0x14(a6), a0
           0x00644c04      4850           pea.l (a0)
           0x00644c06      206e0010       movea.l 0x10(a6), a0
           0x00644c0a      4850           pea.l (a0)
           0x00644c0c      206e000c       movea.l 0xc(a6), a0
           0x00644c10      4850           pea.l (a0)
           0x00644c12      206e0008       movea.l 0x8(a6), a0
           0x00644c16      4850           pea.l (a0)
           0x00644c18      486efffe       pea.l -0x2(a6)
           0x00644c1c      486efff6       pea.l -0xa(a6)
           0x00644c20      486efffa       pea.l -0x6(a6)
           0x00644c24      4ebafca6       jsr K9_LIBRARY.get_continuatio(pc)
           0x00644c28      defc0024       adda.w 0x24, a7
           0x00644c2c      4cdf0100       movem.l (a7)+, a0
           0x00644c30      4e5e           unlk a6
           0x00644c32      4e75           rts
            ; CALL XREF from K9_LIBRARY.k9_redisplay @ 0x644d32
            ; CALL XREFS from K9_LIBRARY.search_loop @ 0x6466d6, 0x646794
            ; CALL XREFS from fcn.00646868 @ 0x6468b2, 0x646952
 164: K9_LIBRARY.continuation_he ();
           0x00644c34      4e56feca       link.w a6, 0xfeca
           0x00644c38      bfd5           cmpa.l (a5), a7
       < 0x00644c3a      6206           bhi.b 0x644c42
          0x00644c3c      44fc0002       move.w 0x2, ccr
          0x00644c40      4e76           trapv
       > 0x00644c42      defc0126       adda.w 0x126, a7
           0x00644c46      48e780c0       movem.l d0/a0-a1, -(a7)
           0x00644c4a      486efff9       pea.l -0x7(a6)
           0x00644c4e      486efffa       pea.l -0x6(a6)
           0x00644c52      486efffb       pea.l -0x5(a6)
           0x00644c56      486efffc       pea.l -0x4(a6)
           0x00644c5a      486efffd       pea.l -0x3(a6)
           0x00644c5e      486efffe       pea.l -0x2(a6)
           0x00644c62      486efff8       pea.l -0x8(a6)
           0x00644c66      486efff0       pea.l -0x10(a6)
           0x00644c6a      486efff4       pea.l -0xc(a6)
           0x00644c6e      4ebafc5c       jsr K9_LIBRARY.get_continuatio(pc)
           0x00644c72      defc0024       adda.w 0x24, a7
           0x00644c76      103900847e42   move.b 0x847e42, d0
           0x00644c7c      4880           ext.w d0
           0x00644c7e      c1fc02d0       muls.w 0x2d0, d0
           0x00644c82      2f2efff4       move.l -0xc(a6), -(a7)
           0x00644c86      2f2efff0       move.l -0x10(a6), -(a7)
           0x00644c8a      41f900847e32   lea.l 0x847e32, a0
           0x00644c90      2070001e       movea.l 0x1e(a0, d0.w), a0
           0x00644c94      b1e8fffc       cmpa.l -0x4(a0), a0
       < 0x00644c98      6702           beq.b 0x644c9c
          0x00644c9a      4e4d           trap 0xd
       > 0x00644c9c      9efc0100       suba.w 0x100, a7
           0x00644ca0      224f           movea.l a7, a1
           0x00644ca2      41e80010       lea.l 0x10(a0), a0
           0x00644ca6      303c00ff       move.w 0xff, d0
       > 0x00644caa      12d8           move.b (a0)+, (a1)+
       < 0x00644cac      51c8fffc       dbra d0, 0x644caa
           0x00644cb0      1f2e0008       move.b 0x8(a6), -(a7)
           0x00644cb4      1f2efff9       move.b -0x7(a6), -(a7)
           0x00644cb8      1f2efffa       move.b -0x6(a6), -(a7)
           0x00644cbc      1f2efffd       move.b -0x3(a6), -(a7)
           0x00644cc0      1f2efffe       move.b -0x2(a6), -(a7)
           0x00644cc4      1f2efff8       move.b -0x8(a6), -(a7)
           0x00644cc8      4ebae69a       jsr K9_LIBRARY.show_header(pc)
           0x00644ccc      defc0114       adda.w 0x114, a7
           0x00644cd0      4cdf0301       movem.l (a7)+, d0/a0-a1
           0x00644cd4      4e5e           unlk a6
           0x00644cd6      4e75           rts
            ; XREFS: CALL 0x00646f94  CALL 0x0074d944  CALL 0x0074da0c  
            ; XREFS: CALL 0x0074da90  CALL 0x00758db2  CALL 0x00758fea  
            ; XREFS: CALL 0x00759130  CALL 0x007592f4  CALL 0x0075956c  
            ; XREFS: CALL 0x007595e4  CALL 0x00759ac6  
 206: K9_LIBRARY.k9_redisplay ();
           0x00644cd8      4e56fd8a       link.w a6, 0xfd8a
           0x00644cdc      bfd5           cmpa.l (a5), a7
       < 0x00644cde      6206           bhi.b 0x644ce6
          0x00644ce0      44fc0002       move.w 0x2, ccr
          0x00644ce4      4e76           trapv
       > 0x00644ce6      defc0228       adda.w 0x228, a7
           0x00644cea      48e7e1e0       movem.l d0-d2/d7/a0-a2, -(a7)
           0x00644cee      7401           moveq 0x1, d2
           0x00644cf0      103900847e42   move.b 0x847e42, d0
           0x00644cf6      4880           ext.w d0
           0x00644cf8      c1fc02d0       muls.w 0x2d0, d0
           0x00644cfc      41f900847e32   lea.l 0x847e32, a0
           0x00644d02      2270001e       movea.l 0x1e(a0, d0.w), a1
           0x00644d06      b2c2           cmpa.w d2, a1
       < 0x00644d08      6626           bne.b 0x644d30
          0x00644d0a      9efc0100       suba.w 0x100, a7
          0x00644d0e      224f           movea.l a7, a1
          0x00644d10      45fad1c7       lea.l 0x641ed9(pc), a2
          0x00644d14      720f           moveq 0xf, d1
      > 0x00644d16      12da           move.b (a2)+, (a1)+
      < 0x00644d18      51c9fffc       dbra d1, 0x644d16
          0x00644d1c      9efc0100       suba.w 0x100, a7
          0x00644d20      1ebad1c7       move.b 0x641ee9(pc), (a7)
          0x00644d24      1f02           move.b d2, -(a7)
          0x00644d26      4ebae5b6       jsr K9_LIBRARY.header(pc)
          0x00644d2a      defc0202       adda.w 0x202, a7
      < 0x00644d2e      606e           bra.b 0x644d9e
      > 0x00644d30      4227           clr.b -(a7)
          0x00644d32      4ebaff00       jsr K9_LIBRARY.continuation_he(pc)
          0x00644d36      1e82           move.b d2, (a7)
          0x00644d38      3f3c0004       move.w 0x4, -(a7)
          0x00644d3c      4eb900456ede   jsr PAD.flag_on_abort
          0x00644d42      544f           addq.w 0x2, a7
          0x00644d44      4eb900402f52   jsr p_Flagged
          0x00644d4a      4a1f           tst.b (a7)+
          0x00644d4c      554f           subq.w 0x2, a7
          0x00644d4e      486effb6       pea.l -0x4a(a6)
          0x00644d52      4eb900404434   jsr fcn.00404434
          0x00644d58      584f           addq.w 0x4, a7
          0x00644d5a      4a1f           tst.b (a7)+
      < 0x00644d5c      6734           beq.b 0x644d92
         0x00644d5e      594f           subq.w 0x4, a7
         0x00644d60      4ebae534       jsr K9_LIBRARY.display_max(pc)
         0x00644d64      7e01           moveq 0x1, d7
     > 0x00644d66      be97           cmp.l (a7), d7
    < 0x00644d68      6e26           bgt.b 0x644d90
       0x00644d6a      554f           subq.w 0x2, a7
       0x00644d6c      4eb900402f52   jsr p_Flagged
       0x00644d72      4a1f           tst.b (a7)+
   < 0x00644d74      670c           beq.b 0x644d82
      0x00644d76      486effb6       pea.l -0x4a(a6)
      0x00644d7a      4eb900404468   jsr fcn.00404468
      0x00644d80      584f           addq.w 0x4, a7
   > 0x00644d82      2f07           move.l d7, -(a7)
       0x00644d84      4227           clr.b -(a7)
       0x00644d86      4ebaf1b0       jsr K9_LIBRARY.display_title_b(pc)
       0x00644d8a      5c4f           addq.w 0x6, a7
       0x00644d8c      5287           addq.l 0x1, d7
    < 0x00644d8e      68d6           bvc.b 0x644d66
    > 0x00644d90      584f           addq.w 0x4, a7
      > 0x00644d92      4227           clr.b -(a7)
          0x00644d94      4267           clr.w -(a7)
          0x00644d96      4eb900456ede   jsr PAD.flag_on_abort
          0x00644d9c      584f           addq.w 0x4, a7
      > 0x00644d9e      4cdf0787       movem.l (a7)+, d0-d2/d7/a0-a2
           0x00644da2      4e5e           unlk a6
           0x00644da4      4e75           rts
            ; CALL XREF from K9_LIBRARY.cmd_handler @ 0x6467f6
            ; CALL XREF from fcn.00646868 @ 0x64693e
            ; CALL XREF from K9_LIBRARY.everything_act_ @ 0x6469b2
            ; CALL XREF from K9_LIBRARY.display_item @ 0x647244
 128: K9_LIBRARY.clear_display ();
           0x00644da6      4e56ffca       link.w a6, 0xffca
           0x00644daa      bfd5           cmpa.l (a5), a7
       < 0x00644dac      6206           bhi.b 0x644db4
          0x00644dae      44fc0002       move.w 0x2, ccr
          0x00644db2      4e76           trapv
       > 0x00644db4      defc0032       adda.w 0x32, a7
           0x00644db8      48e7f9c0       movem.l d0-d4/d7/a0-a1, -(a7)
           0x00644dbc      7401           moveq 0x1, d2
           0x00644dbe      103900847e42   move.b 0x847e42, d0
           0x00644dc4      4880           ext.w d0
           0x00644dc6      c1fc02d0       muls.w 0x2d0, d0
           0x00644dca      41f900847e32   lea.l 0x847e32, a0
           0x00644dd0      7e01           moveq 0x1, d7
       > 0x00644dd2      2207           move.l d7, d1
          0x00644dd4      5381           subq.l 0x1, d1
          0x00644dd6      0c810000000b   cmpi.l 0xb, d1
      < 0x00644ddc      6302           bls.b 0x644de0
         0x00644dde      4e4f           trap 0xf
      > 0x00644de0      2801           move.l d1, d4
          0x00644de2      761e           moveq 0x1e, d3
          0x00644de4      4eb900406a74   jsr fcn.00406a74
          0x00644dea      43f00012       lea.l 0x12(a0, d0.w), a1
          0x00644dee      4231485f       clr.b 0x5f(a1, d4.l)
          0x00644df2      42314862       clr.b 0x62(a1, d4.l)
          0x00644df6      42314860       clr.b 0x60(a1, d4.l)
          0x00644dfa      42314861       clr.b 0x61(a1, d4.l)
          0x00644dfe      23824846       move.l d2, 0x46(a1, d4.l)
          0x00644e02      2382484a       move.l d2, 0x4a(a1, d4.l)
          0x00644e06      13bad0e2484e   move.b 0x641eea(pc), 0x4e(a1, d4.l)
          0x00644e0c      5287           addq.l 0x1, d7
          0x00644e0e      0c870000000c   cmpi.l 0xc, d7
       < 0x00644e14      6fbc           ble.b 0x644dd2
           0x00644e16      43f00012       lea.l 0x12(a0, d0.w), a1
           0x00644e1a      426901ae       clr.w 0x1ae(a1)
           0x00644e1e      4cdf039f       movem.l (a7)+, d0-d4/d7/a0-a1
           0x00644e22      4e5e           unlk a6
           0x00644e24      4e75           rts
            ; CALL XREF from K9_LIBRARY.display_existin @ 0x645bde
            ; CALL XREFS from K9_LIBRARY.display_item @ 0x647272, 0x647350
 152: K9_LIBRARY.add_to_display ();
           0x00644e26      4e56ffda       link.w a6, 0xffda
           0x00644e2a      bfd5           cmpa.l (a5), a7
       < 0x00644e2c      6206           bhi.b 0x644e34
          0x00644e2e      44fc0002       move.w 0x2, ccr
          0x00644e32      4e76           trapv
       > 0x00644e34      defc0026       adda.w 0x26, a7
           0x00644e38      48e7d880       movem.l d0-d1/d3-d4/a0, -(a7)
           0x00644e3c      302e000a       move.w 0xa(a6), d0
           0x00644e40      41fad0aa       lea.l 0x641eec(pc), a0
           0x00644e44      3200           move.w d0, d1
           0x00644e46      e649           lsr.w 0x3, d1
           0x00644e48      0c410020       cmpi.w 0x20, d1
       < 0x00644e4c      6d04           blt.b 0x644e52
          0x00644e4e      7200           moveq 0x0, d1
      < 0x00644e50      6004           bra.b 0x644e56
      > 0x00644e52      01301000       btst.l d0, (a0, d1.w)
      < 0x00644e56      675e           beq.b 0x644eb6
          0x00644e58      202e0008       move.l 0x8(a6), d0
          0x00644e5c      5380           subq.l 0x1, d0
          0x00644e5e      0c800000000b   cmpi.l 0xb, d0
      < 0x00644e64      6302           bls.b 0x644e68
         0x00644e66      4e4f           trap 0xf
      > 0x00644e68      2800           move.l d0, d4
          0x00644e6a      761e           moveq 0x1e, d3
          0x00644e6c      4eb900406a74   jsr fcn.00406a74
          0x00644e72      103900847e42   move.b 0x847e42, d0
          0x00644e78      4880           ext.w d0
          0x00644e7a      c1fc02d0       muls.w 0x2d0, d0
          0x00644e7e      41f900847e32   lea.l 0x847e32, a0
          0x00644e84      41f00000       lea.l (a0, d0.w), a0
          0x00644e88      42304871       clr.b 0x71(a0, d4.l)
          0x00644e8c      42304874       clr.b 0x74(a0, d4.l)
          0x00644e90      42304872       clr.b 0x72(a0, d4.l)
          0x00644e94      42304873       clr.b 0x73(a0, d4.l)
          0x00644e98      21ae00104858   move.l 0x10(a6), 0x58(a0, d4.l)
          0x00644e9e      21ae000c485c   move.l 0xc(a6), 0x5c(a0, d4.l)
          0x00644ea4      11bad0664860   move.b 0x641f0c(pc), 0x60(a0, d4.l)
          0x00644eaa      2f2e0008       move.l 0x8(a6), -(a7)
          0x00644eae      4227           clr.b -(a7)
          0x00644eb0      4ebaf086       jsr K9_LIBRARY.display_title_b(pc)
          0x00644eb4      5c4f           addq.w 0x6, a7
       > 0x00644eb6      4cdf011b       movem.l (a7)+, d0-d1/d3-d4/a0
           0x00644eba      4e5e           unlk a6
           0x00644ebc      4e75           rts
 162: K9_LIBRARY.set_tag ();
           0x00644ebe      4e56ffcc       link.w a6, 0xffcc
           0x00644ec2      bfd5           cmpa.l (a5), a7
       < 0x00644ec4      6206           bhi.b 0x644ecc
          0x00644ec6      44fc0002       move.w 0x2, ccr
          0x00644eca      4e76           trapv
       > 0x00644ecc      defc0034       adda.w 0x34, a7
           0x00644ed0      48e7d8e0       movem.l d0-d1/d3-d4/a0-a2, -(a7)
           0x00644ed4      302e005a       move.w 0x5a(a6), d0
           0x00644ed8      41fad034       lea.l 0x641f0e(pc), a0
           0x00644edc      3200           move.w d0, d1
           0x00644ede      e649           lsr.w 0x3, d1
           0x00644ee0      0c410020       cmpi.w 0x20, d1
       < 0x00644ee4      6d04           blt.b 0x644eea
          0x00644ee6      7200           moveq 0x0, d1
      < 0x00644ee8      6004           bra.b 0x644eee
      > 0x00644eea      01301000       btst.l d0, (a0, d1.w)
      < 0x00644eee      6768           beq.b 0x644f58
          0x00644ef0      02800000ffff   andi.l 0xffff, d0
          0x00644ef6      2200           move.l d0, d1
          0x00644ef8      5381           subq.l 0x1, d1
          0x00644efa      0c810000000b   cmpi.l 0xb, d1
      < 0x00644f00      6302           bls.b 0x644f04
         0x00644f02      4e4f           trap 0xf
      > 0x00644f04      2801           move.l d1, d4
          0x00644f06      761e           moveq 0x1e, d3
          0x00644f08      4eb900406a74   jsr fcn.00406a74
          0x00644f0e      123900847e42   move.b 0x847e42, d1
          0x00644f14      4881           ext.w d1
          0x00644f16      c3fc02d0       muls.w 0x2d0, d1
          0x00644f1a      41f900847e32   lea.l 0x847e32, a0
          0x00644f20      41f01000       lea.l (a0, d1.w), a0
          0x00644f24      11bc00014873   move.b 0x1, 0x73(a0, d4.l)
          0x00644f2a      4241           clr.w d1
          0x00644f2c      122e0008       move.b 0x8(a6), d1
          0x00644f30      0c010010       cmpi.b 0x10, d1
      < 0x00644f34      6302           bls.b 0x644f38
         0x00644f36      7210           moveq 0x10, d1
      > 0x00644f38      11814860       move.b d1, 0x60(a0, d4.l)
          0x00644f3c      5301           subq.b 0x1, d1
      < 0x00644f3e      650e           bcs.b 0x644f4e
         0x00644f40      43f04861       lea.l 0x61(a0, d4.l), a1
         0x00644f44      45ee0009       lea.l 0x9(a6), a2
     > 0x00644f48      12da           move.b (a2)+, (a1)+
     < 0x00644f4a      51c9fffc       dbra d1, 0x644f48
      > 0x00644f4e      2f00           move.l d0, -(a7)
          0x00644f50      4227           clr.b -(a7)
          0x00644f52      4ebaefe4       jsr K9_LIBRARY.display_title_b(pc)
          0x00644f56      5c4f           addq.w 0x6, a7
       > 0x00644f58      4cdf071b       movem.l (a7)+, d0-d1/d3-d4/a0-a2
           0x00644f5c      4e5e           unlk a6
           0x00644f5e      4e75           rts
            ; CALL XREFS from K9_LIBRARY.number_reused @ 0x64512a, 0x645146
 192: K9_LIBRARY.check_list ();
           ; var int32_t var_8h @ a7+0x8
           0x00644f60      4e56fed2       link.w a6, 0xfed2
           0x00644f64      bfd5           cmpa.l (a5), a7
       < 0x00644f66      6206           bhi.b 0x644f6e
          0x00644f68      44fc0002       move.w 0x2, ccr
          0x00644f6c      4e76           trapv
       > 0x00644f6e      defc012a       adda.w 0x12a, a7
           0x00644f72      48e7e0d0       movem.l d0-d2/a0-a1/a3, -(a7)
           0x00644f76      43f9004047ea   lea.l p_wts_o, a1
           0x00644f7c      740c           moveq 0xc, d2
           0x00644f7e      102e0008       move.b 0x8(a6), d0
           0x00644f82      4880           ext.w d0
           0x00644f84      e540           asl.w 0x2, d0
           0x00644f86      122e000a       move.b 0xa(a6), d1
           0x00644f8a      4881           ext.w d1
           0x00644f8c      e741           asl.w 0x3, d1
           0x00644f8e      206e000c       movea.l 0xc(a6), a0
           0x00644f92      b1e8fffc       cmpa.l -0x4(a0), a0
       < 0x00644f96      6702           beq.b 0x644f9a
          0x00644f98      4e4d           trap 0xd
       > 0x00644f9a      41f01000       lea.l (a0, d1.w), a0
           0x00644f9e      26700008       movea.l 0x8(a0, d0.w), a3
           0x00644fa2      102e000a       move.b 0xa(a6), d0
           0x00644fa6      4880           ext.w d0
           0x00644fa8      e540           asl.w 0x2, d0
       > 0x00644faa      b6fc0001       cmpa.w 0x1, a3
      < 0x00644fae      6768           beq.b 0x645018
         0x00644fb0      b7ebfffc       cmpa.l -0x4(a3), a3
     < 0x00644fb4      6702           beq.b 0x644fb8
        0x00644fb6      4e4d           trap 0xd
     > 0x00644fb8      4281           clr.l d1
         0x00644fba      322c0012       move.w 0x12(a4), d1
         0x00644fbe      b2ab004e       cmp.l 0x4e(a3), d1
     < 0x00644fc2      664e           bne.b 0x645012
        0x00644fc4      9efc0100       suba.w 0x100, a7
        0x00644fc8      486b0008       pea.l 0x8(a3)
        0x00644fcc      4eb9005ef416   jsr F2_UTILITY.f_fid_string
        0x00644fd2      584f           addq.w 0x4, a7
        0x00644fd4      487acf59       pea.l 0x641f2f(pc)
        0x00644fd8      48780013       pea.l 0x13
        0x00644fdc      2f17           move.l (a7), -(a7)
        0x00644fde      4e91           jsr (a1)                    ; fcn.0000000a
        0x00644fe0      dec2           adda.w d2, a7
        0x00644fe2      486f0001       pea.l 0x1(a7)
        0x00644fe6      42a7           clr.l -(a7)
        0x00644fe8      1f6f00080003   move.b 0x8(a7), 0x3(a7)
        0x00644fee      2f17           move.l (a7), -(a7)
        0x00644ff0      4e91           jsr (a1)                    ; fcn.0000000a
        0x00644ff2      defc010c       adda.w 0x10c, a7
        0x00644ff6      487acf4b       pea.l 0x641f43(pc)
        0x00644ffa      4878002a       pea.l 0x2a
        0x00644ffe      2f17           move.l (a7), -(a7)
        0x00645000      4e91           jsr (a1)                    ; fcn.0000000a
        0x00645002      dec2           adda.w d2, a7
        0x00645004      4eb900404946   jsr p_wtln_o
        0x0064500a      02ab7fffffff.  andi.l 0x7fffffff, 0x14(a3)
     > 0x00645012      26730000       movea.l (a3, d0.w), a3
      < 0x00645016      6092           bra.b 0x644faa
      > 0x00645018      4cdf0b07       movem.l (a7)+, d0-d2/a0-a1/a3
           0x0064501c      4e5e           unlk a6
           0x0064501e      4e75           rts
 338: K9_LIBRARY.number_reused (int32_t arg_16h);
           ; arg int32_t arg_16h @ a6+0x16
           0x00645020      4e56ff9c       link.w a6, 0xff9c
           0x00645024      bfd5           cmpa.l (a5), a7
       < 0x00645026      6206           bhi.b 0x64502e
          0x00645028      44fc0002       move.w 0x2, ccr
          0x0064502c      4e76           trapv
       > 0x0064502e      defc005a       adda.w 0x5a, a7
           0x00645032      48e7fdf8       movem.l d0-d5/d7/a0-a4, -(a7)
           0x00645036      7401           moveq 0x1, d2
           0x00645038      2a3c0000ffff   move.l 0xffff, d5
           0x0064503e      103900847e42   move.b 0x847e42, d0
           0x00645044      4880           ext.w d0
           0x00645046      c1fc02d0       muls.w 0x2d0, d0
           0x0064504a      41f900847e32   lea.l 0x847e32, a0
           0x00645050      594f           subq.w 0x4, a7
           0x00645052      4ebae242       jsr K9_LIBRARY.display_max(pc)
           0x00645056      7e01           moveq 0x1, d7
           0x00645058      be97           cmp.l (a7), d7
       < 0x0064505a      6208           bhi.b 0x645064
          0x0064505c      2217           move.l (a7), d1
          0x0064505e      b285           cmp.l d5, d1
      < 0x00645060      6302           bls.b 0x645064
         0x00645062      4e4f           trap 0xf
     > 0x00645064      be6f0002       cmp.w 0x2(a7), d7
      < 0x00645068      62000084       bhi.w 0x6450ee
         0x0064506c      ce85           and.l d5, d7
         0x0064506e      2207           move.l d7, d1
         0x00645070      5381           subq.l 0x1, d1
         0x00645072      0c810000000b   cmpi.l 0xb, d1
     < 0x00645078      6302           bls.b 0x64507c
        0x0064507a      4e4f           trap 0xf
     > 0x0064507c      2801           move.l d1, d4
         0x0064507e      761e           moveq 0x1e, d3
         0x00645080      4eb900406a74   jsr fcn.00406a74
         0x00645086      43f00012       lea.l 0x12(a0, d0.w), a1
         0x0064508a      24714846       movea.l 0x46(a1, d4.l), a2
         0x0064508e      b4c2           cmpa.w d2, a2
     < 0x00645090      6756           beq.b 0x6450e8
        0x00645092      b5eafffc       cmpa.l -0x4(a2), a2
    < 0x00645096      6702           beq.b 0x64509a
       0x00645098      4e4d           trap 0xd
    > 0x0064509a      4281           clr.l d1
        0x0064509c      322e0008       move.w 0x8(a6), d1
        0x006450a0      b2aa004e       cmp.l 0x4e(a2), d1
    < 0x006450a4      6642           bne.b 0x6450e8
       0x006450a6      487acecb       pea.l 0x641f73(pc)
       0x006450aa      48780027       pea.l 0x27
       0x006450ae      2f17           move.l (a7), -(a7)
       0x006450b0      4eb9004047ea   jsr p_wts_o
       0x006450b6      defc000c       adda.w 0xc, a7
       0x006450ba      ce85           and.l d5, d7
       0x006450bc      2f07           move.l d7, -(a7)
       0x006450be      48780001       pea.l 0x1
       0x006450c2      4eb9004070e4   jsr p_wti_o
       0x006450c8      504f           addq.w 0x8, a7
       0x006450ca      4eb900404946   jsr p_wtln_o
       0x006450d0      02aa7fffffff.  andi.l 0x7fffffff, 0x14(a2)
       0x006450d8      13824861       move.b d2, 0x61(a1, d4.l)
       0x006450dc      ce85           and.l d5, d7
       0x006450de      2f07           move.l d7, -(a7)
       0x006450e0      4227           clr.b -(a7)
       0x006450e2      4ebaee54       jsr K9_LIBRARY.display_title_b(pc)
       0x006450e6      5c4f           addq.w 0x6, a7
    > 0x006450e8      5247           addq.w 0x1, d7
     < 0x006450ea      6400ff78       bcc.w 0x645064
       > 0x006450ee      584f           addq.w 0x4, a7
           0x006450f0      123900847e42   move.b 0x847e42, d1
           0x006450f6      4881           ext.w d1
           0x006450f8      c3fc02d0       muls.w 0x2d0, d1
           0x006450fc      43f900847e32   lea.l 0x847e32, a1
           0x00645102      2d711016fff8   move.l 0x16(a1, d1.w), -0x8(a6)
       > 0x00645108      226efff8       movea.l -0x8(a6), a1
          0x0064510c      b2c2           cmpa.w d2, a1
      < 0x0064510e      675a           beq.b 0x64516a
         0x00645110      b3e9fffc       cmpa.l -0x4(a1), a1
     < 0x00645114      6702           beq.b 0x645118
        0x00645116      4e4d           trap 0xd
     > 0x00645118      26690008       movea.l 0x8(a1), a3
     > 0x0064511c      b6c2           cmpa.w d2, a3
    < 0x0064511e      6738           beq.b 0x645158
       0x00645120      2f0b           move.l a3, -(a7)
       0x00645122      4227           clr.b -(a7)
       0x00645124      4227           clr.b -(a7)
       0x00645126      49eefff6       lea.l -0xa(a6), a4
       0x0064512a      4ebafe34       jsr K9_LIBRARY.check_list(pc)
       0x0064512e      544f           addq.w 0x2, a7
       0x00645130      2e8b           move.l a3, (a7)
       0x00645132      4ebaf402       jsr K9_LIBRARY.lists_joined(pc)
       0x00645136      584f           addq.w 0x4, a7
       0x00645138      4a1f           tst.b (a7)+
   < 0x0064513a      6610           bne.b 0x64514c
      0x0064513c      2f0b           move.l a3, -(a7)
      0x0064513e      1f02           move.b d2, -(a7)
      0x00645140      1f02           move.b d2, -(a7)
      0x00645142      49eefff6       lea.l -0xa(a6), a4
      0x00645146      4ebafe18       jsr K9_LIBRARY.check_list(pc)
      0x0064514a      504f           addq.w 0x8, a7
   > 0x0064514c      b7ebfffc       cmpa.l -0x4(a3), a3
   < 0x00645150      6702           beq.b 0x645154
      0x00645152      4e4d           trap 0xd
   > 0x00645154      2653           movea.l (a3), a3
    < 0x00645156      60c4           bra.b 0x64511c
    > 0x00645158      246efff8       movea.l -0x8(a6), a2
         0x0064515c      b5eafffc       cmpa.l -0x4(a2), a2
     < 0x00645160      6702           beq.b 0x645164
        0x00645162      4e4d           trap 0xd
     > 0x00645164      2d52fff8       move.l (a2), -0x8(a6)
      < 0x00645168      609e           bra.b 0x645108
      > 0x0064516a      4cdf1fbf       movem.l (a7)+, d0-d5/d7/a0-a4
           0x0064516e      4e5e           unlk a6
           0x00645170      4e75           rts
            ; CALL XREF from K9_LIBRARY.do_action @ 0x6458e8
 392: K9_LIBRARY.f_action ();
           ; var int32_t var_36fch @ a6-0x36fc
           ; var int32_t var_36c2h @ a6-0x36c2
           ; var int32_t var_3260h @ a6-0x3260
           ; var int32_t var_3214h @ a6-0x3214
           ; var int32_t var_320fh @ a6-0x320f
           ; var int32_t var_1b4h @ a6-0x1b4
           ; var int32_t var_1b2h @ a6-0x1b2
           0x00645172      4e56fca6       link.w a6, 0xfca6
           0x00645176      bfd5           cmpa.l (a5), a7
       < 0x00645178      6206           bhi.b 0x645180
          0x0064517a      44fc0002       move.w 0x2, ccr
          0x0064517e      4e76           trapv
       > 0x00645180      defc01a0       adda.w 0x1a0, a7
           0x00645184      48e7fff8       movem.l d0-d7/a0-a4, -(a7)
           0x00645188      49eefe48       lea.l -0x1b8(a6), a4
           0x0064518c      7856           moveq 0x56, d4
           0x0064518e      7a0c           moveq 0xc, d5
           0x00645190      103900847e42   move.b 0x847e42, d0
           0x00645196      4880           ext.w d0
           0x00645198      c1fc02d0       muls.w 0x2d0, d0
           0x0064519c      41f900847e32   lea.l 0x847e32, a0
           0x006451a2      122e0008       move.b 0x8(a6), d1
           0x006451a6      4881           ext.w d1
           0x006451a8      43facdf4       lea.l 0x641f9e(pc), a1
           0x006451ac      3401           move.w d1, d2
           0x006451ae      e64a           lsr.w 0x3, d2
           0x006451b0      03312000       btst.l d1, (a1, d2.w)
       < 0x006451b4      6732           beq.b 0x6451e8
          0x006451b6      142e000a       move.b 0xa(a6), d2
          0x006451ba      0c020004       cmpi.b 0x4, d2
      < 0x006451be      6728           beq.b 0x6451e8
         0x006451c0      487acde3       pea.l 0x641fa5(pc)
         0x006451c4      48780025       pea.l 0x25
         0x006451c8      2f17           move.l (a7), -(a7)
         0x006451ca      4eb9004047ea   jsr p_wts_o
         0x006451d0      dec5           adda.w d5, a7
         0x006451d2      4eb900404946   jsr p_wtln_o
         0x006451d8      1d7acdf10012   move.b 0x641fcb(pc), 0x12(a6)
         0x006451de      1d7acdec0013   move.b 0x641fcc(pc), 0x13(a6)
     < 0x006451e4      600005ee       bra.w loc.006457d4
     > 0x006451e8      554f           subq.w 0x2, a7
          0x006451ea      1f01           move.b d1, -(a7)
          0x006451ec      4eb9005af700   jsr K2_TYPES.k2_get_ktype
          0x006451f2      544f           addq.w 0x2, a7
          0x006451f4      141f           move.b (a7)+, d2
          0x006451f6      4882           ext.w d2
          0x006451f8      4584           chk.w d4, d2
          0x006451fa      1e02           move.b d2, d7
          0x006451fc      28bc00000001   move.l 0x1, (a4)
          0x00645202      226e000e       movea.l 0xe(a6), a1
          0x00645206      b3e9fffc       cmpa.l -0x4(a1), a1
      < 0x0064520a      6702           beq.b 0x64520e
         0x0064520c      4e4d           trap 0xd
      > 0x0064520e      9efc000a       suba.w 0xa, a7
          0x00645212      244f           movea.l a7, a2
          0x00645214      47e90008       lea.l 0x8(a1), a3
          0x00645218      7409           moveq 0x9, d2
      > 0x0064521a      14db           move.b (a3)+, (a2)+
      < 0x0064521c      51cafffc       dbra d2, 0x64521a
          0x00645220      4854           pea.l (a4)
          0x00645222      4eb90059866e   jsr K0_DISKMGR.k_gen_file
          0x00645228      defc000e       adda.w 0xe, a7
          0x0064522c      3d7acda0fe4c   move.w 0x641fce(pc), -0x1b4(a6)
          0x00645232      142e000a       move.b 0xa(a6), d2
          0x00645236      4882           ext.w d2
          0x00645238      45facd96       lea.l 0x641fd0(pc), a2
          0x0064523c      3602           move.w d2, d3
          0x0064523e      e64b           lsr.w 0x3, d3
          0x00645240      05323000       btst.l d2, (a2, d3.w)
      < 0x00645244      670a           beq.b 0x645250
         0x00645246      554f           subq.w 0x2, a7
         0x00645248      4854           pea.l (a4)
         0x0064524a      1f3c0002       move.b 0x2, -(a7)
     < 0x0064524e      602c           bra.b 0x64527c
     > 0x00645250      45facd82       lea.l 0x641fd4(pc), a2
         0x00645254      3602           move.w d2, d3
         0x00645256      e64b           lsr.w 0x3, d3
         0x00645258      05323000       btst.l d2, (a2, d3.w)
     < 0x0064525c      6708           beq.b 0x645266
        0x0064525e      554f           subq.w 0x2, a7
        0x00645260      4854           pea.l (a4)
        0x00645262      4227           clr.b -(a7)
    < 0x00645264      6016           bra.b 0x64527c
    > 0x00645266      45facd70       lea.l 0x641fd8(pc), a2
        0x0064526a      3602           move.w d2, d3
        0x0064526c      e64b           lsr.w 0x3, d3
        0x0064526e      05323000       btst.l d2, (a2, d3.w)
    < 0x00645272      6714           beq.b 0x645288
       0x00645274      554f           subq.w 0x2, a7
       0x00645276      4854           pea.l (a4)
       0x00645278      1f3c0001       move.b 0x1, -(a7)
    > 0x0064527c      4eb9005a3058   jsr K04_FILEROPS.k_privilege
         0x00645282      5c4f           addq.w 0x6, a7
         0x00645284      3d5ffe4c       move.w (a7)+, -0x1b4(a6)
      > 0x00645288      162efe4c       move.b -0x1b4(a6), d3
          0x0064528c      b63acd4f       cmp.b 0x641fdd(pc), d3
      < 0x00645290      6608           bne.b 0x64529a
         0x00645292      162efe4d       move.b -0x1b3(a6), d3
         0x00645296      b63acd46       cmp.b 0x641fde(pc), d3
     > 0x0064529a      6734           beq.b 0x6452d0
         0x0064529c      362efe4c       move.w -0x1b4(a6), d3
         0x006452a0      b67acd3e       cmp.w 0x641fe0(pc), d3
     < 0x006452a4      672a           beq.b 0x6452d0
        0x006452a6      487acd3b       pea.l 0x641fe3(pc)
        0x006452aa      48780011       pea.l 0x11
        0x006452ae      2f17           move.l (a7), -(a7)
        0x006452b0      4eb9004047ea   jsr p_wts_o
        0x006452b6      dec5           adda.w d5, a7
        0x006452b8      486efe4c       pea.l -0x1b4(a6)
        0x006452bc      48780002       pea.l 0x2
        0x006452c0      2f17           move.l (a7), -(a7)
        0x006452c2      4eb9004047ea   jsr p_wts_o
        0x006452c8      dec5           adda.w d5, a7
        0x006452ca      4eb900404946   jsr p_wtln_o
     > 0x006452d0      162efe4c       move.b -0x1b4(a6), d3
          0x006452d4      b63acd1f       cmp.b 0x641ff5(pc), d3
      < 0x006452d8      6608           bne.b 0x6452e2
         0x006452da      162efe4d       move.b -0x1b3(a6), d3
         0x006452de      b63acd16       cmp.b 0x641ff6(pc), d3
     > 0x006452e2      66000426       bne.w 0x64570a
         0x006452e6      3602           move.w d2, d3
         0x006452e8      0c430011       cmpi.w 0x11, d3
     < 0x006452ec      6302           bls.b 0x6452f0
        0x006452ee      4e4e           trap 0xe
     > 0x006452f0      d643           add.w d3, d3
         0x006452f2      363b3006       move.w 0x6452fa(pc, d3.w), d3
         0x006452f6      4efb3002       jmp 0x6452fa(pc, d3.w)
          0x006452fa      00240028       ori.b 0x28, -(a4)
          0x006452fe      005c0108       ori.w 0x108, (a4)+
          0x00645302      0180           bclr.b d0, d0
          0x00645304      01d2           bset.b d0, (a2)
          0x00645306      01e6           bset.b d0, -(a6)
          0x00645308      0276034e0362.  andi.w 0x34e, ([0x3d4, a6], 0x376)
          0x00645312      03ac03e2       bclr.b d1, 0x3e2(a4)
          0x00645316      03c0           bset.b d1, d0
          0x00645318      03f601fe0046.  bset.b d1, ([0x466000])
          0x00645320      03ea554f       bset.b d1, 0x554f(a2)
          0x00645324      1f3c0002       move.b 0x2, -(a7)
          0x00645328      4887           ext.w d7
          0x0064532a      4f84           chk.w d4, d7
          0x0064532c      1f07           move.b d7, -(a7)
          0x0064532e      4854           pea.l (a4)
          0x00645330      4eb90064e476   jsr K91_LIBOPS.k91_fetch
    > 0x00645336      504f           addq.w 0x8, a7
       0x00645338      3d5ffe4c       move.w (a7)+, -0x1b4(a6)
   < 0x0064533c      600003cc       bra.w 0x64570a
      0x00645340      554f           subq.w 0x2, a7
      0x00645342      4854           pea.l (a4)
      0x00645344      4887           ext.w d7
      0x00645346      4f84           chk.w d4, d7
      0x00645348      1f07           move.b d7, -(a7)
      0x0064534a      1f3c0002       move.b 0x2, -(a7)
      0x0064534e      4eb90064e73c   jsr K91_LIBOPS.k91_desk_fetch
   < 0x00645354      60e0           bra.b 0x645336
       0x00645356      554f           subq.w 0x2, a7
       0x00645358      4854           pea.l (a4)
       0x0064535a      1f3c0025       move.b 0x25, -(a7)
       0x0064535e      4eb9005a12d4   jsr K04_FILEROPS.k_f_property_av
       0x00645364      5c4f           addq.w 0x6, a7
       0x00645366      4a1f           tst.b (a7)+
   < 0x00645368      6606           bne.b 0x645370
      0x0064536a      3d7acc8cfe4c   move.w 0x641ff8(pc), -0x1b4(a6)
   > 0x00645370      162efe4c       move.b -0x1b4(a6), d3
       0x00645374      b63acc85       cmp.b 0x641ffb(pc), d3
   < 0x00645378      6608           bne.b 0x645382
      0x0064537a      162efe4d       move.b -0x1b3(a6), d3
      0x0064537e      b63acc7c       cmp.b 0x641ffc(pc), d3
  > 0x00645382      665a           bne.b 0x6453de
      0x00645384      554f           subq.w 0x2, a7
      0x00645386      4854           pea.l (a4)
      0x00645388      48700052       pea.l 0x52(a0, d0.w)
      0x0064538c      4eb9005a25ac   jsr K04_FILEROPS.k_same_file
      0x00645392      504f           addq.w 0x8, a7
      0x00645394      4a1f           tst.b (a7)+
  < 0x00645396      6746           beq.b 0x6453de
     0x00645398      554f           subq.w 0x2, a7
     0x0064539a      48700052       pea.l 0x52(a0, d0.w)
     0x0064539e      4eb900594e02   jsr K0_DISKMGR.k_lose_ref
     0x006453a4      584f           addq.w 0x4, a7
     0x006453a6      3d5ffe4e       move.w (a7)+, -0x1b2(a6)
     0x006453aa      362efe4e       move.w -0x1b2(a6), d3
     0x006453ae      b67acc4e       cmp.w 0x641ffe(pc), d3
  < 0x006453b2      672a           beq.b 0x6453de
     0x006453b4      487acc4b       pea.l 0x642001(pc)
     0x006453b8      48780018       pea.l 0x18
     0x006453bc      2f17           move.l (a7), -(a7)
     0x006453be      4eb9004047ea   jsr p_wts_o
     0x006453c4      dec5           adda.w d5, a7
     0x006453c6      486efe4e       pea.l -0x1b2(a6)
     0x006453ca      48780002       pea.l 0x2
     0x006453ce      2f17           move.l (a7), -(a7)
     0x006453d0      4eb9004047ea   jsr p_wts_o
     0x006453d6      dec5           adda.w d5, a7
     0x006453d8      4eb900404946   jsr p_wtln_o
  > 0x006453de      362efe4c       move.w -0x1b4(a6), d3
       0x006453e2      b67acc36       cmp.w 0x64201a(pc), d3
   < 0x006453e6      6616           bne.b 0x6453fe
      0x006453e8      554f           subq.w 0x2, a7
      0x006453ea      4887           ext.w d7
      0x006453ec      4f84           chk.w d4, d7
      0x006453ee      1f07           move.b d7, -(a7)
      0x006453f0      4854           pea.l (a4)
      0x006453f2      4eb90064f44a   jsr K91_LIBOPS.k91_delete
  > 0x006453f8      5c4f           addq.w 0x6, a7
     0x006453fa      3d5ffe4c       move.w (a7)+, -0x1b4(a6)
  > 0x006453fe      6000030a       bra.w 0x64570a
      0x00645402      554f           subq.w 0x2, a7
      0x00645404      4854           pea.l (a4)
      0x00645406      4887           ext.w d7
      0x00645408      4f84           chk.w d4, d7
      0x0064540a      1f07           move.b d7, -(a7)
      0x0064540c      486effac       pea.l -0x54(a6)
      0x00645410      4eb90064f19c   jsr K91_LIBOPS.k91_archive
      0x00645416      defc000a       adda.w 0xa, a7
      0x0064541a      3d5ffe4c       move.w (a7)+, -0x1b4(a6)
      0x0064541e      162efe4c       move.b -0x1b4(a6), d3
      0x00645422      b63acbf9       cmp.b 0x64201d(pc), d3
  < 0x00645426      6608           bne.b 0x645430
     0x00645428      162efe4d       move.b -0x1b3(a6), d3
     0x0064542c      b63acbf0       cmp.b 0x64201e(pc), d3
  > 0x00645430      6644           bne.b 0x645476
      0x00645432      4243           clr.w d3
      0x00645434      162effac       move.b -0x54(a6), d3
  < 0x00645438      6302           bls.b 0x64543c
     0x0064543a      7600           moveq 0x0, d3
  > 0x0064543c      5303           subq.b 0x1, d3
  < 0x0064543e      6510           bcs.b 0x645450
     0x00645440      45eeffad       lea.l -0x53(a6), a2
     0x00645444      47facbda       lea.l 0x642020(pc), a3
  > 0x00645448      b50b           cmpm.b (a3)+, (a2)+
  < 0x0064544a      56cbfffc       dbne d3, 0x645448
  < 0x0064544e      6604           bne.b 0x645454
  > 0x00645450      162effac       move.b -0x54(a6), d3
  < 0x00645454      6720           beq.b 0x645476
     0x00645456      3f2e000c       move.w 0xc(a6), -(a7)
     0x0064545a      9efc0052       suba.w 0x52, a7
     0x0064545e      244f           movea.l a7, a2
     0x00645460      47eeffac       lea.l -0x54(a6), a3
     0x00645464      7613           moveq 0x13, d3
  > 0x00645466      24db           move.l (a3)+, (a2)+
  < 0x00645468      51cbfffc       dbra d3, 0x645466
     0x0064546c      14db           move.b (a3)+, (a2)+
     0x0064546e      4ebafa4e       jsr K9_LIBRARY.set_tag(pc)
     0x00645472      defc0054       adda.w 0x54, a7
  > 0x00645476      60000292       bra.w 0x64570a
      0x0064547a      9ec5           suba.w d5, a7
      0x0064547c      244f           movea.l a7, a2
      0x0064547e      47e90008       lea.l 0x8(a1), a3
      0x00645482      7609           moveq 0x9, d3
  > 0x00645484      14db           move.b (a3)+, (a2)+
  < 0x00645486      51cbfffc       dbra d3, 0x645484
      0x0064548a      2f2e000e       move.l 0xe(a6), -(a7)
      0x0064548e      45f00012       lea.l 0x12(a0, d0.w), a2
      0x00645492      162a02cd       move.b 0x2cd(a2), d3
      0x00645496      4883           ext.w d3
      0x00645498      47bc0001       chk.w 0x1, d3
      0x0064549c      1f03           move.b d3, -(a7)
      0x0064549e      45f00012       lea.l 0x12(a0, d0.w), a2
      0x006454a2      162a02ce       move.b 0x2ce(a2), d3
      0x006454a6      4883           ext.w d3
      0x006454a8      47bc0003       chk.w 0x3, d3
      0x006454ac      1f03           move.b d3, -(a7)
      0x006454ae      4eb900650a84   jsr K91_LIBOPS.k91_print
      0x006454b4      defc0012       adda.w 0x12, a7
      0x006454b8      4a1f           tst.b (a7)+
  < 0x006454ba      660c           bne.b 0x6454c8
     0x006454bc      1d7acb63fe4c   move.b 0x642021(pc), -0x1b4(a6)
     0x006454c2      1d7acb5efe4d   move.b 0x642022(pc), -0x1b3(a6)
  > 0x006454c8      60000240       bra.w 0x64570a
      0x006454cc      554f           subq.w 0x2, a7
      0x006454ce      4887           ext.w d7
      0x006454d0      4f84           chk.w d4, d7
      0x006454d2      1f07           move.b d7, -(a7)
      0x006454d4      4854           pea.l (a4)
      0x006454d6      4eb90064e9ac   jsr K91_LIBOPS.k91_overlay
  < 0x006454dc      6000ff1a       bra.w 0x6453f8
      0x006454e0      554f           subq.w 0x2, a7
      0x006454e2      1f3c0002       move.b 0x2, -(a7)
      0x006454e6      4887           ext.w d7
      0x006454e8      4f84           chk.w d4, d7
      0x006454ea      1f07           move.b d7, -(a7)
      0x006454ec      4854           pea.l (a4)
      0x006454ee      4eb90064eaa2   jsr K91_LIBOPS.k91_rework
   < 0x006454f4      6000fe40       bra.w 0x645336
       0x006454f8      4887           ext.w d7
       0x006454fa      4f84           chk.w d4, d7
       0x006454fc      554f           subq.w 0x2, a7
       0x006454fe      1f07           move.b d7, -(a7)
       0x00645500      554f           subq.w 0x2, a7
       0x00645502      1f07           move.b d7, -(a7)
       0x00645504      4eb9005aeda2   jsr K2_TYPES.k2_afs_extn
       0x0064550a      544f           addq.w 0x2, a7
       0x0064550c      4854           pea.l (a4)
       0x0064550e      486effac       pea.l -0x54(a6)
       0x00645512      4eb9006507c4   jsr K91_LIBOPS.k91_mail
       0x00645518      dec5           adda.w d5, a7
       0x0064551a      3d5ffe4c       move.w (a7)+, -0x1b4(a6)
       0x0064551e      362efe4c       move.w -0x1b4(a6), d3
       0x00645522      b67acb00       cmp.w 0x642024(pc), d3
   < 0x00645526      6644           bne.b 0x64556c
      0x00645528      4243           clr.w d3
      0x0064552a      162effac       move.b -0x54(a6), d3
  < 0x0064552e      6302           bls.b 0x645532
     0x00645530      7600           moveq 0x0, d3
  > 0x00645532      5303           subq.b 0x1, d3
  < 0x00645534      6510           bcs.b 0x645546
     0x00645536      45eeffad       lea.l -0x53(a6), a2
     0x0064553a      47facaeb       lea.l 0x642027(pc), a3
  > 0x0064553e      b50b           cmpm.b (a3)+, (a2)+
  < 0x00645540      56cbfffc       dbne d3, 0x64553e
  < 0x00645544      6604           bne.b 0x64554a
  > 0x00645546      162effac       move.b -0x54(a6), d3
  < 0x0064554a      6720           beq.b 0x64556c
     0x0064554c      3f2e000c       move.w 0xc(a6), -(a7)
     0x00645550      9efc0052       suba.w 0x52, a7
     0x00645554      244f           movea.l a7, a2
     0x00645556      47eeffac       lea.l -0x54(a6), a3
     0x0064555a      7613           moveq 0x13, d3
  > 0x0064555c      24db           move.l (a3)+, (a2)+
  < 0x0064555e      51cbfffc       dbra d3, 0x64555c
     0x00645562      14db           move.b (a3)+, (a2)+
     0x00645564      4ebaf958       jsr K9_LIBRARY.set_tag(pc)
     0x00645568      defc0054       adda.w 0x54, a7
  > 0x0064556c      6000019c       bra.w 0x64570a
       0x00645570      7c01           moveq 0x1, d6
       0x00645572      554f           subq.w 0x2, a7
       0x00645574      4227           clr.b -(a7)
       0x00645576      4854           pea.l (a4)
       0x00645578      486eff54       pea.l -0xac(a6)
       0x0064557c      4eb9005a14ae   jsr K04_FILEROPS.k_name
       0x00645582      defc000a       adda.w 0xa, a7
       0x00645586      3d5ffe4c       move.w (a7)+, -0x1b4(a6)
       0x0064558a      362efe4c       move.w -0x1b4(a6), d3
       0x0064558e      b67aca98       cmp.w 0x642028(pc), d3
   < 0x00645592      666c           bne.b 0x645600
      0x00645594      9efc0052       suba.w 0x52, a7
      0x00645598      244f           movea.l a7, a2
      0x0064559a      47eeff54       lea.l -0xac(a6), a3
      0x0064559e      7613           moveq 0x13, d3
  > 0x006455a0      24db           move.l (a3)+, (a2)+
  < 0x006455a2      51cbfffc       dbra d3, 0x6455a0
      0x006455a6      14db           move.b (a3)+, (a2)+
      0x006455a8      9efc0100       suba.w 0x100, a7
      0x006455ac      486f0100       pea.l 0x100(a7)
      0x006455b0      4267           clr.w -(a7)
      0x006455b2      3f3c0050       move.w 0x50, -(a7)
      0x006455b6      4eb9006a3cb8   jsr TEXTCOM.t_string
      0x006455bc      504f           addq.w 0x8, a7
      0x006455be      45eefe53       lea.l -0x1ad(a6), a2
      0x006455c2      264f           movea.l a7, a3
      0x006455c4      363c00ff       move.w 0xff, d3
  > 0x006455c8      14db           move.b (a3)+, (a2)+
  < 0x006455ca      51cbfffc       dbra d3, 0x6455c8
      0x006455ce      defc0152       adda.w 0x152, a7
      0x006455d2      4243           clr.w d3
      0x006455d4      162efe53       move.b -0x1ad(a6), d3
      0x006455d8      0c03000b       cmpi.b 0xb, d3
  < 0x006455dc      6302           bls.b 0x6455e0
     0x006455de      760b           moveq 0xb, d3
  > 0x006455e0      5303           subq.b 0x1, d3
  < 0x006455e2      6510           bcs.b 0x6455f4
     0x006455e4      45eefe54       lea.l -0x1ac(a6), a2
     0x006455e8      47faca41       lea.l 0x64202b(pc), a3
  > 0x006455ec      b50b           cmpm.b (a3)+, (a2)+
  < 0x006455ee      56cbfffc       dbne d3, 0x6455ec
  < 0x006455f2      6608           bne.b 0x6455fc
  > 0x006455f4      162efe53       move.b -0x1ad(a6), d3
      0x006455f8      0c03000b       cmpi.b 0xb, d3
  < 0x006455fc      6602           bne.b 0x645600
     0x006455fe      7c00           moveq 0x0, d6
  > 0x00645600      4a06           tst.b d6
   < 0x00645602      6734           beq.b 0x645638
      0x00645604      554f           subq.w 0x2, a7
      0x00645606      4887           ext.w d7
      0x00645608      4f84           chk.w d4, d7
      0x0064560a      1f07           move.b d7, -(a7)
      0x0064560c      4854           pea.l (a4)
      0x0064560e      486efffe       pea.l -0x2(a6)
      0x00645612      4eb90064e802   jsr K91_LIBOPS.k91_number
      0x00645618      defc000a       adda.w 0xa, a7
      0x0064561c      3d5ffe4c       move.w (a7)+, -0x1b4(a6)
      0x00645620      4283           clr.l d3
      0x00645622      362efffe       move.w -0x2(a6), d3
      0x00645626      0c830000ffff   cmpi.l 0xffff, d3
  < 0x0064562c      6716           beq.b 0x645644
     0x0064562e      3f03           move.w d3, -(a7)
     0x00645630      4ebaf9ee       jsr K9_LIBRARY.number_reused(pc)
     0x00645634      544f           addq.w 0x2, a7
  < 0x00645636      600c           bra.b 0x645644
  > 0x00645638      1d7ac9fdfe4c   move.b 0x642037(pc), -0x1b4(a6)
      0x0064563e      1d7ac9f8fe4d   move.b 0x642038(pc), -0x1b3(a6)
  < 0x00645644      600000c4       bra.w 0x64570a
      0x00645648      554f           subq.w 0x2, a7
      0x0064564a      4887           ext.w d7
      0x0064564c      4f84           chk.w d4, d7
      0x0064564e      1f07           move.b d7, -(a7)
      0x00645650      4854           pea.l (a4)
      0x00645652      4eb90064e938   jsr K91_LIBOPS.k91_unnumber
  < 0x00645658      6000fd9e       bra.w 0x6453f8
      0x0064565c      554f           subq.w 0x2, a7
      0x0064565e      4887           ext.w d7
      0x00645660      4f84           chk.w d4, d7
      0x00645662      1f07           move.b d7, -(a7)
      0x00645664      4854           pea.l (a4)
      0x00645666      4eb90066802a   jsr K96_LIB2OPS.k96_freeze
  < 0x0064566c      6000fd8a       bra.w 0x6453f8
      0x00645670      4887           ext.w d7
      0x00645672      45fac9c6       lea.l 0x64203a(pc), a2
      0x00645676      3607           move.w d7, d3
      0x00645678      e64b           lsr.w 0x3, d3
      0x0064567a      0f323000       btst.l d7, (a2, d3.w)
  < 0x0064567e      6714           beq.b 0x645694
     0x00645680      554f           subq.w 0x2, a7
     0x00645682      4854           pea.l (a4)
     0x00645684      2f3c0000ffff   move.l 0xffff, -(a7)
     0x0064568a      4eb90064f3a2   jsr K91_LIBOPS.k91_transfer
     0x00645690      504f           addq.w 0x8, a7
  < 0x00645692      600c           bra.b 0x6456a0
  > 0x00645694      554f           subq.w 0x2, a7
      0x00645696      4854           pea.l (a4)
      0x00645698      4eb90066763c   jsr K96_LIB2OPS.k96_queue
      0x0064569e      584f           addq.w 0x4, a7
  > 0x006456a0      3d5ffe4c       move.w (a7)+, -0x1b4(a6)
  < 0x006456a4      6064           bra.b 0x64570a
     0x006456a6      554f           subq.w 0x2, a7
     0x006456a8      4887           ext.w d7
     0x006456aa      4f84           chk.w d4, d7
     0x006456ac      1f07           move.b d7, -(a7)
     0x006456ae      4854           pea.l (a4)
     0x006456b0      4eb90064ee48   jsr K91_LIBOPS.k91_resize
  < 0x006456b6      6000fd40       bra.w 0x6453f8
     0x006456ba      554f           subq.w 0x2, a7
     0x006456bc      4887           ext.w d7
     0x006456be      4f84           chk.w d4, d7
     0x006456c0      1f07           move.b d7, -(a7)
     0x006456c2      4854           pea.l (a4)
     0x006456c4      4eb90064edda   jsr K91_LIBOPS.k91_in_grid
  < 0x006456ca      6000fd2c       bra.w 0x6453f8
     0x006456ce      1d7ac977fe4c   move.b 0x642047(pc), -0x1b4(a6)
     0x006456d4      1d7ac972fe4d   move.b 0x642048(pc), -0x1b3(a6)
  < 0x006456da      602e           bra.b 0x64570a
     0x006456dc      554f           subq.w 0x2, a7
     0x006456de      4887           ext.w d7
     0x006456e0      4f84           chk.w d4, d7
     0x006456e2      1f07           move.b d7, -(a7)
     0x006456e4      4854           pea.l (a4)
     0x006456e6      4eb90064eff2   jsr K91_LIBOPS.k91_choose_item
  < 0x006456ec      6000fd0a       bra.w 0x6453f8
      0x006456f0      554f           subq.w 0x2, a7
      0x006456f2      4887           ext.w d7
      0x006456f4      4f84           chk.w d4, d7
      0x006456f6      1f07           move.b d7, -(a7)
      0x006456f8      4854           pea.l (a4)
      0x006456fa      3f39008486b4   move.w 0x8486b4, -(a7)
      0x00645700      4eb90064f08a   jsr K91_LIBOPS.k91_add_to_cuto
   < 0x00645706      6000fc2e       bra.w 0x645336
  > 0x0064570a      3d7ac93efe4e   move.w 0x64204a(pc), -0x1b2(a6)
           0x00645710      43fac93a       lea.l 0x64204c(pc), a1
           0x00645714      3602           move.w d2, d3
           0x00645716      e64b           lsr.w 0x3, d3
           0x00645718      05313000       btst.l d2, (a1, d3.w)
       < 0x0064571c      6636           bne.b 0x645754
          0x0064571e      554f           subq.w 0x2, a7
          0x00645720      4854           pea.l (a4)
          0x00645722      48700052       pea.l 0x52(a0, d0.w)
          0x00645726      4eb900594c72   jsr K0_DISKMGR.k_copy_ref
          0x0064572c      504f           addq.w 0x8, a7
          0x0064572e      3d5ffe4e       move.w (a7)+, -0x1b2(a6)
          0x00645732      4887           ext.w d7
          0x00645734      4f84           chk.w d4, d7
          0x00645736      11870056       move.b d7, 0x56(a0, d0.w)
          0x0064573a      142efe4e       move.b -0x1b2(a6), d2
          0x0064573e      b43ac911       cmp.b 0x642051(pc), d2
      < 0x00645742      6608           bne.b 0x64574c
         0x00645744      142efe4f       move.b -0x1b1(a6), d2
         0x00645748      b43ac908       cmp.b 0x642052(pc), d2
     > 0x0064574c      6606           bne.b 0x645754
         0x0064574e      3d7ac904fe4e   move.w 0x642054(pc), -0x1b2(a6)
     > 0x00645754      3d6efe4c0012   move.w -0x1b4(a6), 0x12(a6)
           0x0064575a      142efe4c       move.b -0x1b4(a6), d2
           0x0064575e      b43ac8f7       cmp.b 0x642057(pc), d2
       < 0x00645762      6608           bne.b 0x64576c
          0x00645764      142efe4d       move.b -0x1b3(a6), d2
          0x00645768      b43ac8ee       cmp.b 0x642058(pc), d2
      > 0x0064576c      6610           bne.b 0x64577e
          0x0064576e      342efe4e       move.w -0x1b2(a6), d2
          0x00645772      b47ac8e6       cmp.w 0x64205a(pc), d2
      < 0x00645776      6706           beq.b 0x64577e
         0x00645778      3d6efe4e0012   move.w -0x1b2(a6), 0x12(a6)
      > 0x0064577e      2254           movea.l (a4), a1
           0x00645780      b2fc0001       cmpa.w 0x1, a1
       < 0x00645784      6710           beq.b 0x645796
          0x00645786      554f           subq.w 0x2, a7
          0x00645788      4854           pea.l (a4)
          0x0064578a      4eb900594e02   jsr K0_DISKMGR.k_lose_ref
          0x00645790      584f           addq.w 0x4, a7
          0x00645792      3d5ffe4c       move.w (a7)+, -0x1b4(a6)
       > 0x00645796      142efe4c       move.b -0x1b4(a6), d2
           0x0064579a      b43ac8c1       cmp.b 0x64205d(pc), d2
       < 0x0064579e      6608           bne.b 0x6457a8
          0x006457a0      142efe4d       move.b -0x1b3(a6), d2
          0x006457a4      b43ac8b8       cmp.b 0x64205e(pc), d2
      > 0x006457a8      672a           beq.b loc.006457d4
          0x006457aa      487ac8b4       pea.l 0x642060(pc)
          0x006457ae      48780010       pea.l 0x10
          0x006457b2      2f17           move.l (a7), -(a7)
          0x006457b4      4eb9004047ea   jsr p_wts_o
          0x006457ba      dec5           adda.w d5, a7
          0x006457bc      486efe4c       pea.l -0x1b4(a6)
          0x006457c0      48780002       pea.l 0x2
          0x006457c4      2f17           move.l (a7), -(a7)
          0x006457c6      4eb9004047ea   jsr p_wts_o
          0x006457cc      dec5           adda.w d5, a7
          0x006457ce      4eb900404946   jsr p_wtln_o
          ; CODE XREF from K9_LIBRARY.f_action @ 0x6451e4
 8: loc.006457d4 ();
     > 0x006457d4      4cdf1fff       movem.l (a7)+, d0-d7/a0-a4
           0x006457d8      4e5e           unlk a6
           0x006457da      4e75           rts
            ; CALL XREF from K9_LIBRARY.do_action @ 0x6458d2
 62: K9_LIBRARY.display_sten ();
           0x006457dc      4e56fff0       link.w a6, 0xfff0
           0x006457e0      bfd5           cmpa.l (a5), a7
       < 0x006457e2      6206           bhi.b 0x6457ea
          0x006457e4      44fc0002       move.w 0x2, ccr
          0x006457e8      4e76           trapv
       > 0x006457ea      defc0010       adda.w 0x10, a7
           0x006457ee      48e7c000       movem.l d0-d1, -(a7)
           0x006457f2      722d           moveq 0x2d, d1
           0x006457f4      554f           subq.w 0x2, a7
           0x006457f6      3f01           move.w d1, -(a7)
           0x006457f8      4eb900480fc2   jsr MENUCOM.get_boxon
           0x006457fe      544f           addq.w 0x2, a7
           0x00645800      101f           move.b (a7)+, d0
           0x00645802      b02e0008       cmp.b 0x8(a6), d0
       < 0x00645806      670a           beq.b 0x645812
          0x00645808      3f01           move.w d1, -(a7)
          0x0064580a      4eb9004836a4   jsr MENUCOM.push_box
          0x00645810      544f           addq.w 0x2, a7
       > 0x00645812      4cdf0003       movem.l (a7)+, d0-d1
           0x00645816      4e5e           unlk a6
           0x00645818      4e75           rts
            ; CALL XREFS from K9_LIBRARY.k9_act @ 0x646c88, 0x646d04
            ; CALL XREF from K9_LIBRARY.display_item @ 0x6472b8
 358: K9_LIBRARY.do_action ();
           ; var int32_t var_3881h @ a6-0x3881
           ; var int32_t var_37d0h @ a6-0x37d0
           0x0064581a      4e56fec2       link.w a6, 0xfec2
           0x0064581e      bfd5           cmpa.l (a5), a7
       < 0x00645820      6206           bhi.b 0x645828
          0x00645822      44fc0002       move.w 0x2, ccr
          0x00645826      4e76           trapv
       > 0x00645828      defc013c       adda.w 0x13c, a7
           0x0064582c      48e7fcf8       movem.l d0-d5/a0-a4, -(a7)
           0x00645830      47ee000a       lea.l 0xa(a6), a3
           0x00645834      49eefffe       lea.l -0x2(a6), a4
           0x00645838      7801           moveq 0x1, d4
           0x0064583a      7a03           moveq 0x3, d5
           0x0064583c      18bac833       move.b 0x642071(pc), (a4)
           0x00645840      1d7ac830ffff   move.b 0x642072(pc), -0x1(a6)
           0x00645846      103900847e42   move.b 0x847e42, d0
           0x0064584c      4880           ext.w d0
           0x0064584e      c1fc02d0       muls.w 0x2d0, d0
           0x00645852      41f900847e32   lea.l 0x847e32, a0
           0x00645858      226e000e       movea.l 0xe(a6), a1
           0x0064585c      b3e9fffc       cmpa.l -0x4(a1), a1
       < 0x00645860      6702           beq.b 0x645864
          0x00645862      4e4d           trap 0xd
       > 0x00645864      1229004c       move.b 0x4c(a1), d1
           0x00645868      b205           cmp.b d5, d1
       < 0x0064586a      6624           bne.b 0x645890
          0x0064586c      1413           move.b (a3), d2
          0x0064586e      4882           ext.w d2
          0x00645870      45fac802       lea.l 0x642074(pc), a2
          0x00645874      3602           move.w d2, d3
          0x00645876      e64b           lsr.w 0x3, d3
          0x00645878      05323000       btst.l d2, (a2, d3.w)
      < 0x0064587c      6712           beq.b 0x645890
     > 0x0064587e      1f04           move.b d4, -(a7)
        0x00645880      1f2e0008       move.b 0x8(a6), -(a7)
        0x00645884      4eb90064b994   jsr K9_LIBRARY.k9_show_display
        0x0064588a      544f           addq.w 0x2, a7
        0x0064588c      1e84           move.b d4, (a7)
    < 0x0064588e      6042           bra.b 0x6458d2
    > 0x00645890      0c010002       cmpi.b 0x2, d1
     < 0x00645894      660a           bne.b 0x6458a0
        0x00645896      1413           move.b (a3), d2
        0x00645898      0c020005       cmpi.b 0x5, d2
    < 0x0064589c      6602           bne.b 0x6458a0
    < 0x0064589e      60de           bra.b 0x64587e
     > 0x006458a0      4881           ext.w d1
          0x006458a2      45fac7d4       lea.l 0x642078(pc), a2
          0x006458a6      3401           move.w d1, d2
          0x006458a8      e64a           lsr.w 0x3, d2
          0x006458aa      03322000       btst.l d1, (a2, d2.w)
      < 0x006458ae      6628           bne.b 0x6458d8
         0x006458b0      1413           move.b (a3), d2
         0x006458b2      4882           ext.w d2
         0x006458b4      45fac7c8       lea.l 0x64207e(pc), a2
         0x006458b8      3602           move.w d2, d3
         0x006458ba      e64b           lsr.w 0x3, d3
         0x006458bc      05323000       btst.l d2, (a2, d3.w)
     < 0x006458c0      6716           beq.b 0x6458d8
        0x006458c2      1f04           move.b d4, -(a7)
        0x006458c4      1f2e0008       move.b 0x8(a6), -(a7)
        0x006458c8      4eb90064b994   jsr K9_LIBRARY.k9_show_display
        0x006458ce      544f           addq.w 0x2, a7
        0x006458d0      4217           clr.b (a7)
    > 0x006458d2      4ebaff08       jsr K9_LIBRARY.display_sten(pc)
         0x006458d6      544f           addq.w 0x2, a7
      > 0x006458d8      554f           subq.w 0x2, a7
           0x006458da      2f2e000e       move.l 0xe(a6), -(a7)
           0x006458de      3f2e000c       move.w 0xc(a6), -(a7)
           0x006458e2      1f13           move.b (a3), -(a7)
           0x006458e4      1f29004c       move.b 0x4c(a1), -(a7)
           0x006458e8      4ebaf888       jsr K9_LIBRARY.f_action(pc)
           0x006458ec      defc000a       adda.w 0xa, a7
           0x006458f0      389f           move.w (a7)+, (a4)
           0x006458f2      1214           move.b (a4), d1
           0x006458f4      b23ac78d       cmp.b 0x642083(pc), d1
       < 0x006458f8      6608           bne.b 0x645902
          0x006458fa      122effff       move.b -0x1(a6), d1
          0x006458fe      b23ac784       cmp.b 0x642084(pc), d1
      > 0x00645902      6608           bne.b 0x64590c
          0x00645904      1d7ac77f0012   move.b 0x642085(pc), 0x12(a6)
      < 0x0064590a      601a           bra.b 0x645926
      > 0x0064590c      9efc0100       suba.w 0x100, a7
          0x00645910      3f14           move.w (a4), -(a7)
          0x00645912      4eb9005b071e   jsr K3_UTILS.k3_full_string
          0x00645918      544f           addq.w 0x2, a7
          0x0064591a      45ee0012       lea.l 0x12(a6), a2
          0x0064591e      723f           moveq 0x3f, d1
      > 0x00645920      24df           move.l (a7)+, (a2)+
      < 0x00645922      51c9fffc       dbra d1, 0x645920
       > 0x00645926      1213           move.b (a3), d1
           0x00645928      4881           ext.w d1
           0x0064592a      45fac75a       lea.l 0x642086(pc), a2
           0x0064592e      3401           move.w d1, d2
           0x00645930      e64a           lsr.w 0x3, d2
           0x00645932      03322000       btst.l d1, (a2, d2.w)
       < 0x00645936      670a           beq.b 0x645942
          0x00645938      02a97ffbffff.  andi.l 0x7ffbffff, 0x14(a1)
      < 0x00645940      6014           bra.b 0x645956
      > 0x00645942      45fac74a       lea.l 0x64208e(pc), a2
          0x00645946      3401           move.w d1, d2
          0x00645948      e64a           lsr.w 0x3, d2
          0x0064594a      03322000       btst.l d1, (a2, d2.w)
      < 0x0064594e      6728           beq.b 0x645978
         0x00645950      237ac14e0014   move.l 0x641aa0(pc), 0x14(a1)
      > 0x00645956      594f           subq.w 0x4, a7
          0x00645958      14300032       move.b 0x32(a0, d0.w), d2
          0x0064595c      4882           ext.w d2
          0x0064595e      4585           chk.w d5, d2
          0x00645960      1f02           move.b d2, -(a7)
          0x00645962      4ebae112       jsr K9_LIBRARY.required_fields(pc)
          0x00645966      544f           addq.w 0x2, a7
          0x00645968      2f2e000e       move.l 0xe(a6), -(a7)
          0x0064596c      2f2e000e       move.l 0xe(a6), -(a7)
          0x00645970      4ebae2f0       jsr K9_LIBRARY.make_file_info_(pc)
          0x00645974      defc000c       adda.w 0xc, a7
       > 0x00645978      4cdf1f3f       movem.l (a7)+, d0-d5/a0-a4
           0x0064597c      4e5e           unlk a6
           0x0064597e      4e75           rts
            ; CALL XREFS from K9_LIBRARY.join_lists @ 0x645a8a, 0x645aba
 92: K9_LIBRARY.set_empty_list ();
           0x00645980      4e56ffe4       link.w a6, 0xffe4
           0x00645984      bfd5           cmpa.l (a5), a7
       < 0x00645986      6206           bhi.b 0x64598e
          0x00645988      44fc0002       move.w 0x2, ccr
          0x0064598c      4e76           trapv
       > 0x0064598e      defc001c       adda.w 0x1c, a7
           0x00645992      48e7c0c0       movem.l d0-d1/a0-a1, -(a7)
           0x00645996      206c0008       movea.l 0x8(a4), a0
           0x0064599a      b1e8fffc       cmpa.l -0x4(a0), a0
       < 0x0064599e      6702           beq.b 0x6459a2
          0x006459a0      4e4d           trap 0xd
       > 0x006459a2      102e000a       move.b 0xa(a6), d0
           0x006459a6      4880           ext.w d0
           0x006459a8      e740           asl.w 0x3, d0
           0x006459aa      4227           clr.b -(a7)
           0x006459ac      2270000c       movea.l 0xc(a0, d0.w), a1
           0x006459b0      b2fc0001       cmpa.w 0x1, a1
       < 0x006459b4      6602           bne.b 0x6459b8
          0x006459b6      5217           addq.b 0x1, (a7)
       > 0x006459b8      4eb90040452a   jsr p_Assert
           0x006459be      544f           addq.w 0x2, a7
           0x006459c0      122e0008       move.b 0x8(a6), d1
           0x006459c4      4881           ext.w d1
           0x006459c6      e741           asl.w 0x3, d1
           0x006459c8      21b010080008   move.l 0x8(a0, d1.w), 0x8(a0, d0.w)
           0x006459ce      21b0100c000c   move.l 0xc(a0, d1.w), 0xc(a0, d0.w)
           0x006459d4      4cdf0303       movem.l (a7)+, d0-d1/a0-a1
           0x006459d8      4e5e           unlk a6
           0x006459da      4e75           rts
            ; CALL XREFS from K9_LIBRARY.join_lists @ 0x645a96, 0x645ac6
 124: K9_LIBRARY.check_non_empty ();
           0x006459dc      4e56ffe0       link.w a6, 0xffe0
           0x006459e0      bfd5           cmpa.l (a5), a7
       < 0x006459e2      6206           bhi.b 0x6459ea
          0x006459e4      44fc0002       move.w 0x2, ccr
          0x006459e8      4e76           trapv
       > 0x006459ea      defc0020       adda.w 0x20, a7
           0x006459ee      48e7c0e0       movem.l d0-d1/a0-a2, -(a7)
           0x006459f2      45f90040452a   lea.l p_Assert, a2
           0x006459f8      7201           moveq 0x1, d1
           0x006459fa      206c0008       movea.l 0x8(a4), a0
           0x006459fe      b1e8fffc       cmpa.l -0x4(a0), a0
       < 0x00645a02      6702           beq.b 0x645a06
          0x00645a04      4e4d           trap 0xd
       > 0x00645a06      102e0008       move.b 0x8(a6), d0
           0x00645a0a      4880           ext.w d0
           0x00645a0c      e740           asl.w 0x3, d0
           0x00645a0e      4227           clr.b -(a7)
           0x00645a10      2270000c       movea.l 0xc(a0, d0.w), a1
           0x00645a14      b2c1           cmpa.w d1, a1
       < 0x00645a16      6702           beq.b 0x645a1a
          0x00645a18      5217           addq.b 0x1, (a7)
       > 0x00645a1a      4e92           jsr (a2)                    ; fcn.00000009+0x2
           0x00645a1c      4217           clr.b (a7)
           0x00645a1e      2270000c       movea.l 0xc(a0, d0.w), a1
           0x00645a22      b3e9fffc       cmpa.l -0x4(a1), a1
       < 0x00645a26      6702           beq.b 0x645a2a
          0x00645a28      4e4d           trap 0xd
       > 0x00645a2a      2251           movea.l (a1), a1
           0x00645a2c      b2c1           cmpa.w d1, a1
       < 0x00645a2e      6602           bne.b 0x645a32
          0x00645a30      5217           addq.b 0x1, (a7)
       > 0x00645a32      4e92           jsr (a2)                    ; fcn.00000009+0x2
           0x00645a34      4217           clr.b (a7)
           0x00645a36      22700008       movea.l 0x8(a0, d0.w), a1
           0x00645a3a      b3e9fffc       cmpa.l -0x4(a1), a1
       < 0x00645a3e      6702           beq.b 0x645a42
          0x00645a40      4e4d           trap 0xd
       > 0x00645a42      22690004       movea.l 0x4(a1), a1
           0x00645a46      b2c1           cmpa.w d1, a1
       < 0x00645a48      6602           bne.b 0x645a4c
          0x00645a4a      5217           addq.b 0x1, (a7)
       > 0x00645a4c      4e92           jsr (a2)                    ; fcn.00000009+0x2
           0x00645a4e      544f           addq.w 0x2, a7
           0x00645a50      4cdf0703       movem.l (a7)+, d0-d1/a0-a2
           0x00645a54      4e5e           unlk a6
           0x00645a56      4e75           rts
            ; CALL XREFS from K9_LIBRARY.add_to_list @ 0x463e, 0x647abc
 160: K9_LIBRARY.join_lists ();
           0x00645a58      4e56ffe4       link.w a6, 0xffe4
           0x00645a5c      bfd5           cmpa.l (a5), a7
       < 0x00645a5e      6206           bhi.b 0x645a66
          0x00645a60      44fc0002       move.w 0x2, ccr
          0x00645a64      4e76           trapv
       > 0x00645a66      defc001c       adda.w 0x1c, a7
           0x00645a6a      48e780c8       movem.l d0/a0-a1/a4, -(a7)
           0x00645a6e      7001           moveq 0x1, d0
           0x00645a70      206e0008       movea.l 0x8(a6), a0
           0x00645a74      b1e8fffc       cmpa.l -0x4(a0), a0
       < 0x00645a78      6702           beq.b 0x645a7c
          0x00645a7a      4e4d           trap 0xd
       > 0x00645a7c      22680008       movea.l 0x8(a0), a1
           0x00645a80      b2c0           cmpa.w d0, a1
       < 0x00645a82      660e           bne.b 0x645a92
          0x00645a84      4227           clr.b -(a7)
          0x00645a86      1f00           move.b d0, -(a7)
          0x00645a88      284e           movea.l a6, a4
          0x00645a8a      4ebafef4       jsr K9_LIBRARY.set_empty_list(pc)
          0x00645a8e      584f           addq.w 0x4, a7
      < 0x00645a90      601a           bra.b 0x645aac
      > 0x00645a92      4227           clr.b -(a7)
          0x00645a94      284e           movea.l a6, a4
          0x00645a96      4ebaff44       jsr K9_LIBRARY.check_non_empty(pc)
          0x00645a9a      544f           addq.w 0x2, a7
          0x00645a9c      2268000c       movea.l 0xc(a0), a1
          0x00645aa0      b3e9fffc       cmpa.l -0x4(a1), a1
      < 0x00645aa4      6702           beq.b 0x645aa8
         0x00645aa6      4e4d           trap 0xd
      > 0x00645aa8      22a80010       move.l 0x10(a0), (a1)
      > 0x00645aac      22680010       movea.l 0x10(a0), a1
           0x00645ab0      b2c0           cmpa.w d0, a1
       < 0x00645ab2      660e           bne.b 0x645ac2
          0x00645ab4      1f00           move.b d0, -(a7)
          0x00645ab6      4227           clr.b -(a7)
          0x00645ab8      284e           movea.l a6, a4
          0x00645aba      4ebafec4       jsr K9_LIBRARY.set_empty_list(pc)
          0x00645abe      584f           addq.w 0x4, a7
      < 0x00645ac0      602e           bra.b 0x645af0
      > 0x00645ac2      1f00           move.b d0, -(a7)
          0x00645ac4      284e           movea.l a6, a4
          0x00645ac6      4ebaff14       jsr K9_LIBRARY.check_non_empty(pc)
          0x00645aca      544f           addq.w 0x2, a7
          0x00645acc      22680010       movea.l 0x10(a0), a1
          0x00645ad0      b3e80008       cmpa.l 0x8(a0), a1
      < 0x00645ad4      670e           beq.b 0x645ae4
         0x00645ad6      b3e9fffc       cmpa.l -0x4(a1), a1
     < 0x00645ada      6702           beq.b 0x645ade
        0x00645adc      4e4d           trap 0xd
     > 0x00645ade      2368000c0004   move.l 0xc(a0), 0x4(a1)
      > 0x00645ae4      21680014000c   move.l 0x14(a0), 0xc(a0)
          0x00645aea      216800080010   move.l 0x8(a0), 0x10(a0)
      > 0x00645af0      4cdf1301       movem.l (a7)+, d0/a0-a1/a4
           0x00645af4      4e5e           unlk a6
           0x00645af6      4e75           rts
            ; CALL XREF from K9_LIBRARY.do_search @ 0x645cea
 320: K9_LIBRARY.display_existin ();
           0x00645af8      4e56ff66       link.w a6, 0xff66
           0x00645afc      bfd5           cmpa.l (a5), a7
       < 0x00645afe      6206           bhi.b 0x645b06
          0x00645b00      44fc0002       move.w 0x2, ccr
          0x00645b04      4e76           trapv
       > 0x00645b06      defc004c       adda.w 0x4c, a7
           0x00645b0a      48e7f0f8       movem.l d0-d3/a0-a4, -(a7)
           0x00645b0e      7601           moveq 0x1, d3
           0x00645b10      206e0010       movea.l 0x10(a6), a0
           0x00645b14      4210           clr.b (a0)
           0x00645b16      206e000c       movea.l 0xc(a6), a0
           0x00645b1a      4210           clr.b (a0)
           0x00645b1c      206e0008       movea.l 0x8(a6), a0
           0x00645b20      4210           clr.b (a0)
           0x00645b22      554f           subq.w 0x2, a7
           0x00645b24      486effb2       pea.l -0x4e(a6)
           0x00645b28      4eb900404434   jsr fcn.00404434
           0x00645b2e      584f           addq.w 0x4, a7
           0x00645b30      4a1f           tst.b (a7)+
       < 0x00645b32      670000ee       beq.w 0x645c22
          0x00645b36      206e0022       movea.l 0x22(a6), a0
          0x00645b3a      b0c3           cmpa.w d3, a0
      < 0x00645b3c      672e           beq.b 0x645b6c
         0x00645b3e      226e0014       movea.l 0x14(a6), a1
         0x00645b42      b1e8fffc       cmpa.l -0x4(a0), a0
     < 0x00645b46      6702           beq.b 0x645b4a
        0x00645b48      4e4d           trap 0xd
     > 0x00645b4a      45e80008       lea.l 0x8(a0), a2
         0x00645b4e      7009           moveq 0x9, d0
     > 0x00645b50      12da           move.b (a2)+, (a1)+
     < 0x00645b52      51c8fffc       dbra d0, 0x645b50
         0x00645b56      226e0018       movea.l 0x18(a6), a1
         0x00645b5a      4a11           tst.b (a1)
     < 0x00645b5c      660e           bne.b 0x645b6c
        0x00645b5e      102e001c       move.b 0x1c(a6), d0
        0x00645b62      4880           ext.w d0
        0x00645b64      e540           asl.w 0x2, d0
        0x00645b66      2d7000000022   move.l (a0, d0.w), 0x22(a6)
     > 0x00645b6c      102e001c       move.b 0x1c(a6), d0
          0x00645b70      4880           ext.w d0
          0x00645b72      3200           move.w d0, d1
          0x00645b74      e541           asl.w 0x2, d1
          0x00645b76      206e0008       movea.l 0x8(a6), a0
          0x00645b7a      226e0018       movea.l 0x18(a6), a1
          0x00645b7e      2f09           move.l a1, -(a7)
          0x00645b80      246e0014       movea.l 0x14(a6), a2
          0x00645b84      2f0a           move.l a2, -(a7)
          0x00645b86      266e0010       movea.l 0x10(a6), a3
      > 0x00645b8a      226f0004       movea.l 0x4(a7), a1
         0x00645b8e      2457           movea.l (a7), a2
         0x00645b90      286e0022       movea.l 0x22(a6), a4
         0x00645b94      b8c3           cmpa.w d3, a4
     < 0x00645b96      6606           bne.b 0x645b9e
        0x00645b98      504f           addq.w 0x8, a7
    < 0x00645b9a      60000086       bra.w 0x645c22
    > 0x00645b9e      4211           clr.b (a1)
        0x00645ba0      b9ecfffc       cmpa.l -0x4(a4), a4
    < 0x00645ba4      6702           beq.b 0x645ba8
       0x00645ba6      4e4d           trap 0xd
    > 0x00645ba8      43ec0008       lea.l 0x8(a4), a1
        0x00645bac      7409           moveq 0x9, d2
    > 0x00645bae      14d9           move.b (a1)+, (a2)+
    < 0x00645bb0      51cafffc       dbra d2, 0x645bae
        0x00645bb4      1683           move.b d3, (a3)
        0x00645bb6      554f           subq.w 0x2, a7
        0x00645bb8      1f00           move.b d0, -(a7)
        0x00645bba      486efffc       pea.l -0x4(a6)
        0x00645bbe      4ebae8de       jsr K9_LIBRARY.alloc_display(pc)
        0x00645bc2      5c4f           addq.w 0x6, a7
        0x00645bc4      4a1f           tst.b (a7)+
    < 0x00645bc6      660c           bne.b 0x645bd4
       0x00645bc8      486effb2       pea.l -0x4e(a6)
       0x00645bcc      4eb900404468   jsr fcn.00404468
       0x00645bd2      584f           addq.w 0x4, a7
    > 0x00645bd4      2f0c           move.l a4, -(a7)
        0x00645bd6      2f2e001e       move.l 0x1e(a6), -(a7)
        0x00645bda      2f2efffc       move.l -0x4(a6), -(a7)
        0x00645bde      4ebaf246       jsr K9_LIBRARY.add_to_display(pc)
        0x00645be2      defc000a       adda.w 0xa, a7
        0x00645be6      4eb900402f52   jsr p_Flagged
        0x00645bec      4a1f           tst.b (a7)+
    < 0x00645bee      6728           beq.b 0x645c18
       0x00645bf0      487ac50a       pea.l 0x6420fc(pc)
       0x00645bf4      4878000c       pea.l 0xc
       0x00645bf8      2f17           move.l (a7), -(a7)
       0x00645bfa      4eb9004047ea   jsr p_wts_o
       0x00645c00      defc000c       adda.w 0xc, a7
       0x00645c04      4eb900404946   jsr p_wtln_o
       0x00645c0a      1083           move.b d3, (a0)
       0x00645c0c      486effb2       pea.l -0x4e(a6)
       0x00645c10      4eb900404468   jsr fcn.00404468
       0x00645c16      584f           addq.w 0x4, a7
    > 0x00645c18      2d7410000022   move.l (a4, d1.w), 0x22(a6)
     < 0x00645c1e      6000ff6a       bra.w 0x645b8a
    > 0x00645c22      206e0022       movea.l 0x22(a6), a0
           0x00645c26      b0c3           cmpa.w d3, a0
       < 0x00645c28      6606           bne.b 0x645c30
          0x00645c2a      206e000c       movea.l 0xc(a6), a0
          0x00645c2e      1083           move.b d3, (a0)
       > 0x00645c30      4cdf1f0f       movem.l (a7)+, d0-d3/a0-a4
           0x00645c34      4e5e           unlk a6
           0x00645c36      4e75           rts
            ; CALL XREF from K9_LIBRARY.search_loop @ 0x646708
            ; CALL XREF from fcn.00646868 @ 0x6468de
 302: K9_LIBRARY.do_search (int32_t arg_2eh);
           ; arg int32_t arg_2eh @ a6+0x2e
           0x00645c38      4e56ff7e       link.w a6, 0xff7e
           0x00645c3c      bfd5           cmpa.l (a5), a7
       < 0x00645c3e      6206           bhi.b 0x645c46
          0x00645c40      44fc0002       move.w 0x2, ccr
          0x00645c44      4e76           trapv
       > 0x00645c46      defc006a       adda.w 0x6a, a7
           0x00645c4a      48e7fff8       movem.l d0-d7/a0-a4, -(a7)
           0x00645c4e      7401           moveq 0x1, d2
           0x00645c50      363c02d0       move.w 0x2d0, d3
           0x00645c54      7804           moveq 0x4, d4
           0x00645c56      206e001a       movea.l 0x1a(a6), a0
           0x00645c5a      b0c2           cmpa.w d2, a0
       < 0x00645c5c      662c           bne.b 0x645c8a
          0x00645c5e      1f02           move.b d2, -(a7)
          0x00645c60      3f04           move.w d4, -(a7)
          0x00645c62      4eb900456ede   jsr PAD.flag_on_abort
          0x00645c68      544f           addq.w 0x2, a7
          0x00645c6a      4eb900402f52   jsr p_Flagged
          0x00645c70      4a1f           tst.b (a7)+
      < 0x00645c72      6706           beq.b 0x645c7a
         0x00645c74      226e0008       movea.l 0x8(a6), a1
         0x00645c78      1282           move.b d2, (a1)
      > 0x00645c7a      4227           clr.b -(a7)
          0x00645c7c      4267           clr.w -(a7)
          0x00645c7e      4eb900456ede   jsr PAD.flag_on_abort
          0x00645c84      584f           addq.w 0x4, a7
      < 0x00645c86      600002d2       bra.w loc.00645f5a
      > 0x00645c8a      b1e8fffc       cmpa.l -0x4(a0), a0
      < 0x00645c8e      6702           beq.b 0x645c92
         0x00645c90      4e4d           trap 0xd
      > 0x00645c92      4a2e0014       tst.b 0x14(a6)
      < 0x00645c96      660a           bne.b 0x645ca2
         0x00645c98      7e01           moveq 0x1, d7
         0x00645c9a      7c00           moveq 0x0, d6
         0x00645c9c      1d42fffe       move.b d2, -0x2(a6)
     < 0x00645ca0      6008           bra.b 0x645caa
     > 0x00645ca2      7e00           moveq 0x0, d7
         0x00645ca4      7c01           moveq 0x1, d6
         0x00645ca6      422efffe       clr.b -0x2(a6)
     > 0x00645caa      1f02           move.b d2, -(a7)
         0x00645cac      3f04           move.w d4, -(a7)
         0x00645cae      4eb900456ede   jsr PAD.flag_on_abort
         0x00645cb4      584f           addq.w 0x4, a7
         0x00645cb6      226e0008       movea.l 0x8(a6), a1
         0x00645cba      4211           clr.b (a1)
         0x00645cbc      4887           ext.w d7
         0x00645cbe      4f82           chk.w d2, d7
         0x00645cc0      1030701c       move.b 0x1c(a0, d7.w), d0
         0x00645cc4      4880           ext.w d0
         0x00645cc6      4182           chk.w d2, d0
         0x00645cc8      1d40fff4       move.b d0, -0xc(a6)
         0x00645ccc      2f2e0016       move.l 0x16(a6), -(a7)
         0x00645cd0      2f2e001a       move.l 0x1a(a6), -(a7)
         0x00645cd4      1f2e0014       move.b 0x14(a6), -(a7)
         0x00645cd8      486e0010       pea.l 0x10(a6)
         0x00645cdc      486effe8       pea.l -0x18(a6)
         0x00645ce0      486efff2       pea.l -0xe(a6)
         0x00645ce4      486efff3       pea.l -0xd(a6)
         0x00645ce8      4851           pea.l (a1)
         0x00645cea      4ebafe0c       jsr K9_LIBRARY.display_existin(pc)
         0x00645cee      defc001a       adda.w 0x1a, a7
         0x00645cf2      1eae0014       move.b 0x14(a6), (a7)
         0x00645cf6      486efff8       pea.l -0x8(a6)
         0x00645cfa      4ebae7a2       jsr K9_LIBRARY.alloc_display(pc)
         0x00645cfe      5c4f           addq.w 0x6, a7
         0x00645d00      121f           move.b (a7)+, d1
         0x00645d02      4401           neg.b d1
         0x00645d04      5201           addq.b 0x1, d1
         0x00645d06      4881           ext.w d1
         0x00645d08      4382           chk.w d2, d1
         0x00645d0a      1a01           move.b d1, d5
         0x00645d0c      554f           subq.w 0x2, a7
         0x00645d0e      4eb900402f52   jsr p_Flagged
         0x00645d14      4a1f           tst.b (a7)+
     < 0x00645d16      6702           beq.b 0x645d1a
        0x00645d18      1282           move.b d2, (a1)
     > 0x00645d1a      4a40           tst.w d0
     < 0x00645d1c      66000202       bne.w 0x645f20
        0x00645d20      4a05           tst.b d5
    < 0x00645d22      660001fc       bne.w 0x645f20
       0x00645d26      4a11           tst.b (a1)
   < 0x00645d28      660001f6       bne.w 0x645f20
      0x00645d2c      4a2efff2       tst.b -0xe(a6)
  < 0x00645d30      6704           beq.b 0x645d36
     0x00645d32      422e0012       clr.b 0x12(a6)
  > 0x00645d36      4a28001f       tst.b 0x1f(a0)
  < 0x00645d3a      6744           beq.b 0x645d80
     0x00645d3c      103900847e42   move.b 0x847e42, d0
     0x00645d42      4880           ext.w d0
     0x00645d44      c1c3           muls.w d3, d0
     0x00645d46      45f900847e32   lea.l 0x847e32, a2
     0x00645d4c      1232002c       move.b 0x2c(a2, d0.w), d1
     0x00645d50      4881           ext.w d1
     0x00645d52      5341           subq.w 0x1, d1
     0x00645d54      0c410003       cmpi.w 0x3, d1
 < 0x00645d58      6302           bls.b 0x645d5c
    0x00645d5a      4e4e           trap 0xe
 > 0x00645d5c      d241           add.w d1, d1
     0x00645d5e      323b1006       move.w 0x645d66(pc, d1.w), d1
     0x00645d62      4efb1002       jmp 0x645d66(pc, d1.w)
      0x00645d66      00140008       ori.b 0x8, (a4)
      0x00645d6a      000c0010       
      0x00645d6b      0c00107c       cmpi.b 0x7c, d0
      0x00645d6f      0260107c       andi.w 0x107c, -(a0)
      0x00645d73      0360           bchg.b d1, -(a0)
      0x00645d75      0c7c0460       
      0x00645d76      7c04           moveq 0x4, d6
  < 0x00645d78      6008           bra.b 0x645d82
     0x00645d7a      7c01           moveq 0x1, d6
  < 0x00645d7c      6004           bra.b 0x645d82
  < 0x00645d7e      6002           bra.b 0x645d82
  > 0x00645d80      7c00           moveq 0x0, d6
  > 0x00645d82      4228001f       clr.b 0x1f(a0)
       0x00645d86      1142001e       move.b d2, 0x1e(a0)
       0x00645d8a      103900847e42   move.b 0x847e42, d0
       0x00645d90      4880           ext.w d0
       0x00645d92      c1c3           muls.w d3, d0
       0x00645d94      45f900847e32   lea.l 0x847e32, a2
       0x00645d9a      25ae001a0012   move.l 0x1a(a6), 0x12(a2, d0.w)
       0x00645da0      25aeffe80022   move.l -0x18(a6), 0x22(a2, d0.w)
       0x00645da6      25aeffec0026   move.l -0x14(a6), 0x26(a2, d0.w)
       0x00645dac      35aefff0002a   move.w -0x10(a6), 0x2a(a2, d0.w)
       0x00645db2      266e001a       movea.l 0x1a(a6), a3
       0x00645db6      b7ebfffc       cmpa.l -0x4(a3), a3
   < 0x00645dba      6702           beq.b 0x645dbe
      0x00645dbc      4e4d           trap 0xd
   > 0x00645dbe      42ab0024       clr.l 0x24(a3)
       0x00645dc2      2f280018       move.l 0x18(a0), -(a7)
       0x00645dc6      4227           clr.b -(a7)
       0x00645dc8      4a2e0014       tst.b 0x14(a6)
   < 0x00645dcc      6602           bne.b 0x645dd0
      0x00645dce      5217           addq.b 0x1, (a7)
   > 0x00645dd0      1f2e0012       move.b 0x12(a6), -(a7)
       0x00645dd4      486efff4       pea.l -0xc(a6)
       0x00645dd8      486effe8       pea.l -0x18(a6)
       0x00645ddc      48680020       pea.l 0x20(a0)
       0x00645de0      594f           subq.w 0x4, a7
       0x00645de2      1f320032       move.b 0x32(a2, d0.w), -(a7)
       0x00645de6      4ebadc8e       jsr K9_LIBRARY.required_fields(pc)
       0x00645dea      544f           addq.w 0x2, a7
       0x00645dec      4886           ext.w d6
       0x00645dee      4dbc0007       chk.w 0x7, d6
       0x00645df2      1f06           move.b d6, -(a7)
       0x00645df4      4851           pea.l (a1)
       0x00645df6      4eb9005a2e98   jsr K04_FILEROPS.k_lib_search
       0x00645dfc      defc001e       adda.w 0x1e, a7
       0x00645e00      4a2efff4       tst.b -0xc(a6)
   < 0x00645e04      6766           beq.b 0x645e6c
      0x00645e06      3007           move.w d7, d0
      0x00645e08      e540           asl.w 0x2, d0
      0x00645e0a      122efffe       move.b -0x2(a6), d1
      0x00645e0e      4881           ext.w d1
      0x00645e10      4382           chk.w d2, d1
      0x00645e12      e741           asl.w 0x3, d1
      0x00645e14      45f01000       lea.l (a0, d1.w), a2
      0x00645e18      26720008       movea.l 0x8(a2, d0.w), a3
      0x00645e1c      b6c2           cmpa.w d2, a3
  < 0x00645e1e      6602           bne.b 0x645e22
  < 0x00645e20      6046           bra.b 0x645e68
  > 0x00645e22      103900847e42   move.b 0x847e42, d0
      0x00645e28      4880           ext.w d0
      0x00645e2a      c1c3           muls.w d3, d0
      0x00645e2c      554f           subq.w 0x2, a7
      0x00645e2e      45f900847e32   lea.l 0x847e32, a2
      0x00645e34      2f320028       move.l 0x28(a2, d0.w), -(a7)
      0x00645e38      2f320024       move.l 0x24(a2, d0.w), -(a7)
      0x00645e3c      3f320022       move.w 0x22(a2, d0.w), -(a7)
      0x00645e40      b7ebfffc       cmpa.l -0x4(a3), a3
  < 0x00645e44      6702           beq.b 0x645e48
     0x00645e46      4e4d           trap 0xd
  > 0x00645e48      9efc000a       suba.w 0xa, a7
      0x00645e4c      244f           movea.l a7, a2
      0x00645e4e      49eb0008       lea.l 0x8(a3), a4
      0x00645e52      7009           moveq 0x9, d0
  > 0x00645e54      14dc           move.b (a4)+, (a2)+
  < 0x00645e56      51c8fffc       dbra d0, 0x645e54
      0x00645e5a      4eb9005ef3d2   jsr F2_UTILITY.f_fids_eq
      0x00645e60      defc0014       adda.w 0x14, a7
      0x00645e64      4a1f           tst.b (a7)+
  < 0x00645e66      6604           bne.b 0x645e6c
     ; CODE XREF from K9_LIBRARY @ +0x45d8
  > 0x00645e68      1182701c       move.b d2, 0x1c(a0, d7.w)
  > 0x00645e6c      4a30701c       tst.b 0x1c(a0, d7.w)
   < 0x00645e70      671a           beq.b 0x645e8c
      0x00645e72      554f           subq.w 0x2, a7
      0x00645e74      2f2e001a       move.l 0x1a(a6), -(a7)
      0x00645e78      4ebae6bc       jsr K9_LIBRARY.lists_joined(pc)
      0x00645e7c      584f           addq.w 0x4, a7
      0x00645e7e      4a1f           tst.b (a7)+
  < 0x00645e80      660a           bne.b 0x645e8c
     0x00645e82      2f2e001a       move.l 0x1a(a6), -(a7)
     0x00645e86      4ebafbd0       jsr K9_LIBRARY.join_lists(pc)
     0x00645e8a      584f           addq.w 0x4, a7
  > 0x00645e8c      422e0010       clr.b 0x10(a6)
       0x00645e90      103900847e42   move.b 0x847e42, d0
       0x00645e96      4880           ext.w d0
       0x00645e98      c1c3           muls.w d3, d0
       0x00645e9a      45f900847e32   lea.l 0x847e32, a2
       0x00645ea0      2d72002e0016   move.l 0x2e(a2, d0.w), 0x16(a6)
       0x00645ea6      554f           subq.w 0x2, a7
       0x00645ea8      2f2e001a       move.l 0x1a(a6), -(a7)
       0x00645eac      4ebae688       jsr K9_LIBRARY.lists_joined(pc)
       0x00645eb0      584f           addq.w 0x4, a7
       0x00645eb2      4a1f           tst.b (a7)+
   < 0x00645eb4      6708           beq.b 0x645ebe
      0x00645eb6      1142001d       move.b d2, 0x1d(a0)
      0x00645eba      1142001c       move.b d2, 0x1c(a0)
   > 0x00645ebe      422e0012       clr.b 0x12(a6)
       0x00645ec2      103900847e42   move.b 0x847e42, d0
       0x00645ec8      4880           ext.w d0
       0x00645eca      c1c3           muls.w d3, d0
       0x00645ecc      45f900847e32   lea.l 0x847e32, a2
       0x00645ed2      45f20000       lea.l (a2, d0.w), a2
       0x00645ed6      4a2a02dd       tst.b 0x2dd(a2)
   < 0x00645eda      6728           beq.b 0x645f04
      0x00645edc      4240           clr.w d0
      0x00645ede      102a01dc       move.b 0x1dc(a2), d0
  < 0x00645ee2      6302           bls.b 0x645ee6
     0x00645ee4      7000           moveq 0x0, d0
  > 0x00645ee6      5300           subq.b 0x1, d0
  < 0x00645ee8      6510           bcs.b 0x645efa
     0x00645eea      47ea01dd       lea.l 0x1dd(a2), a3
     0x00645eee      49fac3c1       lea.l 0x6422b1(pc), a4
  > 0x00645ef2      b70c           cmpm.b (a4)+, (a3)+
  < 0x00645ef4      56c8fffc       dbne d0, 0x645ef2
  < 0x00645ef8      6604           bne.b 0x645efe
  > 0x00645efa      102a01dc       move.b 0x1dc(a2), d0
  < 0x00645efe      6704           beq.b 0x645f04
     0x00645f00      1282           move.b d2, (a1)
  < 0x00645f02      601c           bra.b 0x645f20
  > 0x00645f04      554f           subq.w 0x2, a7
       0x00645f06      1f2e0014       move.b 0x14(a6), -(a7)
       0x00645f0a      486efff8       pea.l -0x8(a6)
       0x00645f0e      4ebae58e       jsr K9_LIBRARY.alloc_display(pc)
       0x00645f12      5c4f           addq.w 0x6, a7
       0x00645f14      101f           move.b (a7)+, d0
       0x00645f16      4400           neg.b d0
       0x00645f18      5200           addq.b 0x1, d0
       0x00645f1a      4880           ext.w d0
       0x00645f1c      4182           chk.w d2, d0
       0x00645f1e      1a00           move.b d0, d5
       ; CODE XREF from K9_LIBRARY @ +0x46ba
  > 0x00645f20      4227           clr.b -(a7)
          0x00645f22      4267           clr.w -(a7)
          0x00645f24      4eb900456ede   jsr PAD.flag_on_abort
          0x00645f2a      584f           addq.w 0x4, a7
          0x00645f2c      4a2efff3       tst.b -0xd(a6)
      < 0x00645f30      6706           beq.b 0x645f38
         0x00645f32      4a2efff4       tst.b -0xc(a6)
     < 0x00645f36      660a           bne.b 0x645f42
     > 0x00645f38      4a11           tst.b (a1)
     < 0x00645f3a      6606           bne.b 0x645f42
        0x00645f3c      4a05           tst.b d5
     < 0x00645f3e      6700fd6a       beq.w 0x645caa              ; K9_LIBRARY.do_search+0x72
     > 0x00645f42      226e000c       movea.l 0xc(a6), a1
           0x00645f46      4211           clr.b (a1)
           0x00645f48      24680008       movea.l 0x8(a0), a2
           0x00645f4c      b4c2           cmpa.w d2, a2
       < 0x00645f4e      6608           bne.b 0x645f58
          0x00645f50      24680014       movea.l 0x14(a0), a2
          0x00645f54      b4c2           cmpa.w d2, a2
      < 0x00645f56      6702           beq.b loc.00645f5a
      > 0x00645f58      5211           addq.b 0x1, (a1)
          ; CODE XREF from K9_LIBRARY.do_search @ 0x645c86
 8: loc.00645f5a ();
     > 0x00645f5a      4cdf1fff       movem.l (a7)+, d0-d7/a0-a4
           0x00645f5e      4e5e           unlk a6
           0x00645f60      4e75           rts
 192: K9_LIBRARY.step_vol ();
           0x00645f62      4e56ffd4       link.w a6, 0xffd4
           0x00645f66      bfd5           cmpa.l (a5), a7
       < 0x00645f68      6206           bhi.b 0x645f70
          0x00645f6a      44fc0002       move.w 0x2, ccr
          0x00645f6e      4e76           trapv
       > 0x00645f70      defc002c       adda.w 0x2c, a7
           0x00645f74      48e7e0f0       movem.l d0-d2/a0-a3, -(a7)
           0x00645f78      7401           moveq 0x1, d2
           0x00645f7a      206c0038       movea.l 0x38(a4), a0
           0x00645f7e      103900847e42   move.b 0x847e42, d0
           0x00645f84      4880           ext.w d0
           0x00645f86      c1fc02d0       muls.w 0x2d0, d0
           0x00645f8a      43f900847e32   lea.l 0x847e32, a1
           0x00645f90      20b1001e       move.l 0x1e(a1, d0.w), (a0)
           0x00645f94      226c0034       movea.l 0x34(a4), a1
           0x00645f98      22ac0006       move.l 0x6(a4), (a1)
           0x00645f9c      2451           movea.l (a1), a2
           0x00645f9e      b4c2           cmpa.w d2, a2
       < 0x00645fa0      6642           bne.b 0x645fe4
          0x00645fa2      2450           movea.l (a0), a2
          0x00645fa4      b4c2           cmpa.w d2, a2
      < 0x00645fa6      671c           beq.b 0x645fc4
         0x00645fa8      266c0026       movea.l 0x26(a4), a3
         0x00645fac      1682           move.b d2, (a3)
         0x00645fae      266c001a       movea.l 0x1a(a4), a3
         0x00645fb2      1013           move.b (a3), d0
         0x00645fb4      4880           ext.w d0
         0x00645fb6      e540           asl.w 0x2, d0
         0x00645fb8      b5eafffc       cmpa.l -0x4(a2), a2
     < 0x00645fbc      6702           beq.b 0x645fc0
        0x00645fbe      4e4d           trap 0xd
     > 0x00645fc0      20b20000       move.l (a2, d0.w), (a0)
      > 0x00645fc4      2450           movea.l (a0), a2
          0x00645fc6      b4c2           cmpa.w d2, a2
      < 0x00645fc8      6604           bne.b 0x645fce
         0x00645fca      2282           move.l d2, (a1)
     < 0x00645fcc      6016           bra.b 0x645fe4
     > 0x00645fce      102c0003       move.b 0x3(a4), d0
         0x00645fd2      4880           ext.w d0
         0x00645fd4      4182           chk.w d2, d0
         0x00645fd6      e540           asl.w 0x2, d0
         0x00645fd8      b5eafffc       cmpa.l -0x4(a2), a2
     < 0x00645fdc      6702           beq.b 0x645fe0
        0x00645fde      4e4d           trap 0xd
     > 0x00645fe0      22b20008       move.l 0x8(a2, d0.w), (a1)
     > 0x00645fe4      2051           movea.l (a1), a0
           0x00645fe6      b0c2           cmpa.w d2, a0
       < 0x00645fe8      6608           bne.b 0x645ff2
          0x00645fea      226c0022       movea.l 0x22(a4), a1
          0x00645fee      2282           move.l d2, (a1)
      < 0x00645ff0      6028           bra.b 0x64601a
      > 0x00645ff2      226c0022       movea.l 0x22(a4), a1
          0x00645ff6      102c0003       move.b 0x3(a4), d0
          0x00645ffa      4880           ext.w d0
          0x00645ffc      4182           chk.w d2, d0
          0x00645ffe      e540           asl.w 0x2, d0
          0x00646000      246c001a       movea.l 0x1a(a4), a2
          0x00646004      1212           move.b (a2), d1
          0x00646006      4881           ext.w d1
          0x00646008      e741           asl.w 0x3, d1
          0x0064600a      b1e8fffc       cmpa.l -0x4(a0), a0
      < 0x0064600e      6702           beq.b 0x646012
         0x00646010      4e4d           trap 0xd
      > 0x00646012      45f01000       lea.l (a0, d1.w), a2
          0x00646016      22b20008       move.l 0x8(a2, d0.w), (a1)
      > 0x0064601a      4cdf0f07       movem.l (a7)+, d0-d2/a0-a3
           0x0064601e      4e5e           unlk a6
           0x00646020      4e75           rts
 126: K9_LIBRARY.set_results ();
           0x00646022      4e56ffd8       link.w a6, 0xffd8
           0x00646026      bfd5           cmpa.l (a5), a7
       < 0x00646028      6206           bhi.b 0x646030
          0x0064602a      44fc0002       move.w 0x2, ccr
          0x0064602e      4e76           trapv
       > 0x00646030      defc0028       adda.w 0x28, a7
           0x00646034      48e7e0f0       movem.l d0-d2/a0-a3, -(a7)
           0x00646038      47ec0034       lea.l 0x34(a4), a3
           0x0064603c      7401           moveq 0x1, d2
           0x0064603e      206c0038       movea.l 0x38(a4), a0
           0x00646042      2250           movea.l (a0), a1
           0x00646044      b2c2           cmpa.w d2, a1
       < 0x00646046      6606           bne.b 0x64604e
          0x00646048      2053           movea.l (a3), a0
          0x0064604a      2082           move.l d2, (a0)
      < 0x0064604c      6016           bra.b 0x646064
      > 0x0064604e      2053           movea.l (a3), a0
          0x00646050      102e0008       move.b 0x8(a6), d0
          0x00646054      4880           ext.w d0
          0x00646056      e540           asl.w 0x2, d0
          0x00646058      b3e9fffc       cmpa.l -0x4(a1), a1
      < 0x0064605c      6702           beq.b 0x646060
         0x0064605e      4e4d           trap 0xd
      > 0x00646060      20b10008       move.l 0x8(a1, d0.w), (a0)
      > 0x00646064      2053           movea.l (a3), a0
           0x00646066      2250           movea.l (a0), a1
           0x00646068      b2c2           cmpa.w d2, a1
       < 0x0064606a      6608           bne.b 0x646074
          0x0064606c      206c0022       movea.l 0x22(a4), a0
          0x00646070      2082           move.l d2, (a0)
      < 0x00646072      6024           bra.b 0x646098
      > 0x00646074      206c0022       movea.l 0x22(a4), a0
          0x00646078      102e0008       move.b 0x8(a6), d0
          0x0064607c      4880           ext.w d0
          0x0064607e      e540           asl.w 0x2, d0
          0x00646080      122e000a       move.b 0xa(a6), d1
          0x00646084      4881           ext.w d1
          0x00646086      e741           asl.w 0x3, d1
          0x00646088      b3e9fffc       cmpa.l -0x4(a1), a1
      < 0x0064608c      6702           beq.b 0x646090
         0x0064608e      4e4d           trap 0xd
      > 0x00646090      45f11000       lea.l (a1, d1.w), a2
          0x00646094      20b20008       move.l 0x8(a2, d0.w), (a0)
      > 0x00646098      4cdf0f07       movem.l (a7)+, d0-d2/a0-a3
           0x0064609c      4e5e           unlk a6
           0x0064609e      4e75           rts
            ; CALL XREF from K9_LIBRARY.search_loop @ 0x64674a
            ; CALL XREF from K9_LIBRARY.cmd_handler @ 0x6467e4
            ; CALL XREF from fcn.00646868 @ 0x64690e
            ; CALL XREF from K9_LIBRARY.everything_act_ @ 0x6469a0
 68: K9_LIBRARY.choose_display ();
           0x006460a0      4e56ff7e       link.w a6, 0xff7e
           0x006460a4      bfd5           cmpa.l (a5), a7
       < 0x006460a6      6206           bhi.b 0x6460ae
          0x006460a8      44fc0002       move.w 0x2, ccr
          0x006460ac      4e76           trapv
       > 0x006460ae      defc0070       adda.w 0x70, a7
           0x006460b2      48e7fff8       movem.l d0-d7/a0-a4, -(a7)
           0x006460b6      103900847e42   move.b 0x847e42, d0
           0x006460bc      4880           ext.w d0
           0x006460be      c1fc02d0       muls.w 0x2d0, d0
           0x006460c2      41f900847e32   lea.l 0x847e32, a0
           0x006460c8      2f08           move.l a0, -(a7)
           0x006460ca      122e0020       move.b 0x20(a6), d1
           0x006460ce      4881           ext.w d1
           0x006460d0      3401           move.w d1, d2
           0x006460d2      0c42000c       cmpi.w 0xc, d2
       < 0x006460d6      6302           bls.b 0x6460da
          0x006460d8      4e4e           trap 0xe
       > 0x006460da      d442           add.w d2, d2
           0x006460dc      343b2006       move.w 0x6460e4(pc, d2.w), d2
           0x006460e0      4efb2002       jmp 0x6460e4(pc, d2.w)
            0x006460e4      01e801e8       bset.b d0, 0x1e8(a0)
            0x006460e8      01e801e8       bset.b d0, 0x1e8(a0)
            0x006460ec      007c001a       ori.w 0x1a, sr
            0x006460f0      007c001a       ori.w 0x1a, sr
            0x006460f4      007c007c       ori.w 0x7c, sr
            0x006460f8      01e80102       bset.b d0, 0x102(a0)
            0x006460fc      017c0c41       
            0x006460fd      7c0c           moveq 0xc, d6
            0x006460ff      4100           chk.l d0, d0
            0x00646101      0567           bchg.b d2, -(a7)
            0x00646103      080c4100       
            0x00646104      0c410007       cmpi.w 0x7, d1
        < 0x00646108      670c           beq.b 0x646116
           0x0064610a      4e4e           trap 0xe
           0x0064610c      226e0026       movea.l 0x26(a6), a1
           0x00646110      22b0001e       move.l 0x1e(a0, d0.w), (a1)
       < 0x00646114      6014           bra.b 0x64612a
       > 0x00646116      226e0026       movea.l 0x26(a6), a1
           0x0064611a      2470001e       movea.l 0x1e(a0, d0.w), a2
           0x0064611e      b5eafffc       cmpa.l -0x4(a2), a2
       < 0x00646122      6702           beq.b 0x646126
          0x00646124      4e4d           trap 0xd
       > 0x00646126      22aa0004       move.l 0x4(a2), (a1)
       > 0x0064612a      1f3c0001       move.b 0x1, -(a7)
            0x0064612e      1f3c0001       move.b 0x1, -(a7)
            0x00646132      49eeffee       lea.l -0x12(a6), a4
            0x00646136      4ebafeea       jsr K9_LIBRARY.set_results(pc)
            0x0064613a      584f           addq.w 0x4, a7
            0x0064613c      226e0014       movea.l 0x14(a6), a1
            0x00646140      12bc0001       move.b 0x1, (a1)
            0x00646144      226e000c       movea.l 0xc(a6), a1
            0x00646148      12bc0001       move.b 0x1, (a1)
            0x0064614c      226e0018       movea.l 0x18(a6), a1
            0x00646150      12bc0001       move.b 0x1, (a1)
            0x00646154      226e0008       movea.l 0x8(a6), a1
            0x00646158      12bc0001       move.b 0x1, (a1)
        < 0x0064615c      60000532       bra.w 0x646690
           0x00646160      142e0020       move.b 0x20(a6), d2
           0x00646164      4882           ext.w d2
           0x00646166      5942           subq.w 0x4, d2
           0x00646168      0c420005       cmpi.w 0x5, d2
       < 0x0064616c      6302           bls.b 0x646170
          0x0064616e      4e4e           trap 0xe
       > 0x00646170      d442           add.w d2, d2
           0x00646172      343b2006       move.w 0x64617a(pc, d2.w), d2
           0x00646176      4efb2002       jmp 0x64617a(pc, d2.w)
           0x0064617a      000cfff4       
           0x0064617b      0cfff400       
           0x0064617c      fff4           invalid
           0x0064617e      0016fff4       ori.b 0xf4, (a6)
           0x00646182      002a0034226e   ori.b 0x34, 0x226e(a2)
           0x00646188      002622b0       ori.b 0xb0, -(a6)
           0x0064618c      001e6026       ori.b 0x26, (a6)+
           0x00646190      226e0026       movea.l 0x26(a6), a1
           0x00646194      2470001e       movea.l 0x1e(a0, d0.w), a2
           0x00646198      b5eafffc       cmpa.l -0x4(a2), a2
       < 0x0064619c      6702           beq.b 0x6461a0
          0x0064619e      4e4d           trap 0xd
       > 0x006461a0      2292           move.l (a2), (a1)
       < 0x006461a2      6012           bra.b 0x6461b6
          0x006461a4      226e0026       movea.l 0x26(a6), a1
          0x006461a8      22b00016       move.l 0x16(a0, d0.w), (a1)
      < 0x006461ac      6008           bra.b 0x6461b6
         0x006461ae      226e0026       movea.l 0x26(a6), a1
         0x006461b2      22b0001a       move.l 0x1a(a0, d0.w), (a1)
      > 0x006461b6      4227           clr.b -(a7)
           0x006461b8      4227           clr.b -(a7)
           0x006461ba      49eeffee       lea.l -0x12(a6), a4
           0x006461be      4ebafe62       jsr K9_LIBRARY.set_results(pc)
           0x006461c2      584f           addq.w 0x4, a7
           0x006461c4      226e0014       movea.l 0x14(a6), a1
           0x006461c8      12bc0001       move.b 0x1, (a1)
           0x006461cc      226e000c       movea.l 0xc(a6), a1
           0x006461d0      12bc0001       move.b 0x1, (a1)
           0x006461d4      226e0018       movea.l 0x18(a6), a1
           0x006461d8      12bc0001       move.b 0x1, (a1)
           0x006461dc      226e0008       movea.l 0x8(a6), a1
       > 0x006461e0      4211           clr.b (a1)
      < 0x006461e2      600004ac       bra.w 0x646690
         0x006461e6      226e0026       movea.l 0x26(a6), a1
         0x006461ea      22b0001e       move.l 0x1e(a0, d0.w), (a1)
         0x006461ee      226e0022       movea.l 0x22(a6), a1
         0x006461f2      594f           subq.w 0x4, a7
         0x006461f4      4227           clr.b -(a7)
         0x006461f6      4ebae224       jsr K9_LIBRARY.display_limit(pc)
         0x006461fa      544f           addq.w 0x2, a7
         0x006461fc      241f           move.l (a7)+, d2
         0x006461fe      5382           subq.l 0x1, d2
         0x00646200      0c820000000b   cmpi.l 0xb, d2
     < 0x00646206      6302           bls.b 0x64620a
        0x00646208      4e4f           trap 0xf
     > 0x0064620a      2802           move.l d2, d4
         0x0064620c      761e           moveq 0x1e, d3
         0x0064620e      4eb900406a74   jsr fcn.00406a74
         0x00646214      45f00012       lea.l 0x12(a0, d0.w), a2
         0x00646218      22b2484a       move.l 0x4a(a2, d4.l), (a1)
         0x0064621c      226e0010       movea.l 0x10(a6), a1
         0x00646220      594f           subq.w 0x4, a7
         0x00646222      4227           clr.b -(a7)
         0x00646224      4ebae1f6       jsr K9_LIBRARY.display_limit(pc)
         0x00646228      544f           addq.w 0x2, a7
         0x0064622a      241f           move.l (a7)+, d2
         0x0064622c      5382           subq.l 0x1, d2
         0x0064622e      0c820000000b   cmpi.l 0xb, d2
     < 0x00646234      6302           bls.b 0x646238
        0x00646236      4e4f           trap 0xf
     > 0x00646238      2802           move.l d2, d4
         0x0064623a      761e           moveq 0x1e, d3
         0x0064623c      4eb900406a74   jsr fcn.00406a74
         0x00646242      22b24846       move.l 0x46(a2, d4.l), (a1)
         0x00646246      226e0018       movea.l 0x18(a6), a1
         0x0064624a      12bc0001       move.b 0x1, (a1)
     > 0x0064624e      226e000c       movea.l 0xc(a6), a1
        0x00646252      4211           clr.b (a1)
        0x00646254      226e0014       movea.l 0x14(a6), a1
        0x00646258      4211           clr.b (a1)
        0x0064625a      226e0008       movea.l 0x8(a6), a1
     < 0x0064625e      6080           bra.b 0x6461e0
         0x00646260      226e0026       movea.l 0x26(a6), a1
         0x00646264      22b0001e       move.l 0x1e(a0, d0.w), (a1)
         0x00646268      226e0022       movea.l 0x22(a6), a1
         0x0064626c      594f           subq.w 0x4, a7
         0x0064626e      1f3c0001       move.b 0x1, -(a7)
         0x00646272      4ebae1a8       jsr K9_LIBRARY.display_limit(pc)
         0x00646276      544f           addq.w 0x2, a7
         0x00646278      241f           move.l (a7)+, d2
         0x0064627a      5382           subq.l 0x1, d2
         0x0064627c      0c820000000b   cmpi.l 0xb, d2
     < 0x00646282      6302           bls.b 0x646286
        0x00646284      4e4f           trap 0xf
     > 0x00646286      2802           move.l d2, d4
         0x00646288      761e           moveq 0x1e, d3
         0x0064628a      4eb900406a74   jsr fcn.00406a74
         0x00646290      45f00012       lea.l 0x12(a0, d0.w), a2
         0x00646294      22b2484a       move.l 0x4a(a2, d4.l), (a1)
         0x00646298      226e0010       movea.l 0x10(a6), a1
         0x0064629c      594f           subq.w 0x4, a7
         0x0064629e      1f3c0001       move.b 0x1, -(a7)
         0x006462a2      4ebae178       jsr K9_LIBRARY.display_limit(pc)
         0x006462a6      544f           addq.w 0x2, a7
         0x006462a8      241f           move.l (a7)+, d2
         0x006462aa      5382           subq.l 0x1, d2
         0x006462ac      0c820000000b   cmpi.l 0xb, d2
     < 0x006462b2      6302           bls.b 0x6462b6
        0x006462b4      4e4f           trap 0xf
     > 0x006462b6      2802           move.l d2, d4
         0x006462b8      761e           moveq 0x1e, d3
         0x006462ba      4eb900406a74   jsr fcn.00406a74
         0x006462c0      22b24846       move.l 0x46(a2, d4.l), (a1)
         0x006462c4      226e0018       movea.l 0x18(a6), a1
         0x006462c8      4211           clr.b (a1)
     < 0x006462ca      6082           bra.b 0x64624e
          0x006462cc      7e00           moveq 0x0, d7
          0x006462ce      43fac0f6       lea.l 0x6423c6(pc), a1
          0x006462d2      3401           move.w d1, d2
          0x006462d4      e64a           lsr.w 0x3, d2
          0x006462d6      03312000       btst.l d1, (a1, d2.w)
      < 0x006462da      6702           beq.b 0x6462de
         0x006462dc      5207           addq.b 0x1, d7
      > 0x006462de      4a07           tst.b d7
      < 0x006462e0      6710           beq.b 0x6462f2
         0x006462e2      226e0008       movea.l 0x8(a6), a1
         0x006462e6      4211           clr.b (a1)
         0x006462e8      7a01           moveq 0x1, d5
         0x006462ea      7c01           moveq 0x1, d6
         0x006462ec      422efff1       clr.b -0xf(a6)
     < 0x006462f0      6012           bra.b 0x646304
     > 0x006462f2      226e0008       movea.l 0x8(a6), a1
         0x006462f6      12bc0001       move.b 0x1, (a1)
         0x006462fa      7a00           moveq 0x0, d5
         0x006462fc      7c00           moveq 0x0, d6
         0x006462fe      1d7c0001fff1   move.b 0x1, -0xf(a6)
     > 0x00646304      142e0020       move.b 0x20(a6), d2
          0x00646308      4882           ext.w d2
          0x0064630a      43fac0d2       lea.l 0x6423de(pc), a1
          0x0064630e      3602           move.w d2, d3
          0x00646310      e64b           lsr.w 0x3, d3
          0x00646312      05313000       btst.l d2, (a1, d3.w)
      < 0x00646316      674e           beq.b 0x646366
         0x00646318      142efff1       move.b -0xf(a6), d2
         0x0064631c      4882           ext.w d2
         0x0064631e      45bc0001       chk.w 0x1, d2
         0x00646322      594f           subq.w 0x4, a7
         0x00646324      1f02           move.b d2, -(a7)
         0x00646326      4ebae0f4       jsr K9_LIBRARY.display_limit(pc)
         0x0064632a      544f           addq.w 0x2, a7
         0x0064632c      261f           move.l (a7)+, d3
         0x0064632e      5383           subq.l 0x1, d3
         0x00646330      0c830000000b   cmpi.l 0xb, d3
     < 0x00646336      6302           bls.b 0x64633a
        0x00646338      4e4f           trap 0xf
     > 0x0064633a      2803           move.l d3, d4
         0x0064633c      761e           moveq 0x1e, d3
         0x0064633e      4eb900406a74   jsr fcn.00406a74
         0x00646344      43f00012       lea.l 0x12(a0, d0.w), a1
         0x00646348      2671484a       movea.l 0x4a(a1, d4.l), a3
         0x0064634c      594f           subq.w 0x4, a7
         0x0064634e      1f02           move.b d2, -(a7)
         0x00646350      4ebae0ca       jsr K9_LIBRARY.display_limit(pc)
         0x00646354      544f           addq.w 0x2, a7
         0x00646356      241f           move.l (a7)+, d2
         0x00646358      5382           subq.l 0x1, d2
         0x0064635a      0c820000000b   cmpi.l 0xb, d2
     < 0x00646360      6302           bls.b 0x646364
        0x00646362      4e4f           trap 0xf
    > 0x00646364      6048           bra.b 0x6463ae
     > 0x00646366      4886           ext.w d6
         0x00646368      4dbc0001       chk.w 0x1, d6
         0x0064636c      594f           subq.w 0x4, a7
         0x0064636e      1f06           move.b d6, -(a7)
         0x00646370      4ebae0aa       jsr K9_LIBRARY.display_limit(pc)
         0x00646374      544f           addq.w 0x2, a7
         0x00646376      241f           move.l (a7)+, d2
         0x00646378      5382           subq.l 0x1, d2
         0x0064637a      0c820000000b   cmpi.l 0xb, d2
     < 0x00646380      6302           bls.b 0x646384
        0x00646382      4e4f           trap 0xf
     > 0x00646384      2802           move.l d2, d4
         0x00646386      761e           moveq 0x1e, d3
         0x00646388      4eb900406a74   jsr fcn.00406a74
         0x0064638e      43f00012       lea.l 0x12(a0, d0.w), a1
         0x00646392      2671484a       movea.l 0x4a(a1, d4.l), a3
         0x00646396      594f           subq.w 0x4, a7
         0x00646398      1f06           move.b d6, -(a7)
         0x0064639a      4ebae080       jsr K9_LIBRARY.display_limit(pc)
         0x0064639e      544f           addq.w 0x2, a7
         0x006463a0      241f           move.l (a7)+, d2
         0x006463a2      5382           subq.l 0x1, d2
         0x006463a4      0c820000000b   cmpi.l 0xb, d2
     < 0x006463aa      6302           bls.b 0x6463ae
        0x006463ac      4e4f           trap 0xf
    > 0x006463ae      2802           move.l d2, d4
          0x006463b0      761e           moveq 0x1e, d3
          0x006463b2      4eb900406a74   jsr fcn.00406a74
          0x006463b8      2d714846fffc   move.l 0x46(a1, d4.l), -0x4(a6)
          0x006463be      b6fc0001       cmpa.w 0x1, a3
      < 0x006463c2      671c           beq.b 0x6463e0
         0x006463c4      b7ebfffc       cmpa.l -0x4(a3), a3
     < 0x006463c8      6702           beq.b 0x6463cc
        0x006463ca      4e4d           trap 0xd
     > 0x006463cc      142b001e       move.b 0x1e(a3), d2
         0x006463d0      4882           ext.w d2
         0x006463d2      45bc0001       chk.w 0x1, d2
         0x006463d6      1f02           move.b d2, -(a7)
         0x006463d8      4eb90040452a   jsr p_Assert
         0x006463de      544f           addq.w 0x2, a7
      > 0x006463e0      7e00           moveq 0x0, d7
          0x006463e2      b6fc0001       cmpa.w 0x1, a3
      < 0x006463e6      6728           beq.b 0x646410
         0x006463e8      2d4bfff4       move.l a3, -0xc(a6)
         0x006463ec      226efff4       movea.l -0xc(a6), a1
         0x006463f0      b2fc0001       cmpa.w 0x1, a1
     < 0x006463f4      6738           beq.b 0x64642e
        0x006463f6      246e0008       movea.l 0x8(a6), a2
        0x006463fa      1412           move.b (a2), d2
        0x006463fc      4882           ext.w d2
        0x006463fe      e542           asl.w 0x2, d2
        0x00646400      b3e9fffc       cmpa.l -0x4(a1), a1
    < 0x00646404      6702           beq.b 0x646408
       0x00646406      4e4d           trap 0xd
    > 0x00646408      2d712000fff4   move.l (a1, d2.w), -0xc(a6)
    < 0x0064640e      601e           bra.b 0x64642e
    > 0x00646410      142efff1       move.b -0xf(a6), d2
        0x00646414      4882           ext.w d2
        0x00646416      45bc0001       chk.w 0x1, d2
        0x0064641a      e542           asl.w 0x2, d2
        0x0064641c      2270001e       movea.l 0x1e(a0, d0.w), a1
        0x00646420      b3e9fffc       cmpa.l -0x4(a1), a1
    < 0x00646424      6702           beq.b 0x646428
       0x00646426      4e4d           trap 0xd
    > 0x00646428      2d712008fff4   move.l 0x8(a1, d2.w), -0xc(a6)
    > 0x0064642e      226efff4       movea.l -0xc(a6), a1
         0x00646432      b2fc0001       cmpa.w 0x1, a1
     < 0x00646436      6764           beq.b 0x64649c
        0x00646438      7400           moveq 0x0, d2
        0x0064643a      b3e9fffc       cmpa.l -0x4(a1), a1
    < 0x0064643e      6702           beq.b 0x646442
       0x00646440      4e4d           trap 0xd
    > 0x00646442      1629001e       move.b 0x1e(a1), d3
        0x00646446      4403           neg.b d3
        0x00646448      5203           addq.b 0x1, d3
    < 0x0064644a      6646           bne.b 0x646492
       0x0064644c      4886           ext.w d6
       0x0064644e      4dbc0001       chk.w 0x1, d6
       0x00646452      3606           move.w d6, d3
       0x00646454      e543           asl.w 0x2, d3
       0x00646456      4885           ext.w d5
       0x00646458      4bbc0001       chk.w 0x1, d5
       0x0064645c      3805           move.w d5, d4
       0x0064645e      e744           asl.w 0x3, d4
       0x00646460      45f14000       lea.l (a1, d4.w), a2
       0x00646464      24723008       movea.l 0x8(a2, d3.w), a2
       0x00646468      b4fc0001       cmpa.w 0x1, a2
   < 0x0064646c      6624           bne.b 0x646492
      0x0064646e      162efff1       move.b -0xf(a6), d3
      0x00646472      4883           ext.w d3
      0x00646474      47bc0001       chk.w 0x1, d3
      0x00646478      e543           asl.w 0x2, d3
      0x0064647a      246e0008       movea.l 0x8(a6), a2
      0x0064647e      1812           move.b (a2), d4
      0x00646480      4884           ext.w d4
      0x00646482      e744           asl.w 0x3, d4
      0x00646484      45f14000       lea.l (a1, d4.w), a2
      0x00646488      24723008       movea.l 0x8(a2, d3.w), a2
      0x0064648c      b4fc0001       cmpa.w 0x1, a2
  < 0x00646490      6702           beq.b 0x646494
  > 0x00646492      5202           addq.b 0x1, d2
  > 0x00646494      4882           ext.w d2
        0x00646496      45bc0001       chk.w 0x1, d2
        0x0064649a      1e02           move.b d2, d7
     > 0x0064649c      4a07           tst.b d7
     < 0x0064649e      661e           bne.b 0x6464be
        0x006464a0      b2fc0001       cmpa.w 0x1, a1
    < 0x006464a4      6718           beq.b 0x6464be
       0x006464a6      246e0008       movea.l 0x8(a6), a2
       0x006464aa      1412           move.b (a2), d2
       0x006464ac      4882           ext.w d2
       0x006464ae      e542           asl.w 0x2, d2
       0x006464b0      b3e9fffc       cmpa.l -0x4(a1), a1
   < 0x006464b4      6702           beq.b 0x6464b8
      0x006464b6      4e4d           trap 0xd
   > 0x006464b8      2d712000fff4   move.l (a1, d2.w), -0xc(a6)
    > 0x006464be      4a07           tst.b d7
     < 0x006464c0      660c           bne.b 0x6464ce
        0x006464c2      226efff4       movea.l -0xc(a6), a1
        0x006464c6      b2fc0001       cmpa.w 0x1, a1
     < 0x006464ca      6600ff62       bne.w 0x64642e
     > 0x006464ce      226e0018       movea.l 0x18(a6), a1
          0x006464d2      12bc0001       move.b 0x1, (a1)
          0x006464d6      246e000c       movea.l 0xc(a6), a2
          0x006464da      2f0a           move.l a2, -(a7)
          0x006464dc      14bc0001       move.b 0x1, (a2)
          0x006464e0      246e0014       movea.l 0x14(a6), a2
          0x006464e4      4212           clr.b (a2)
          0x006464e6      246efffc       movea.l -0x4(a6), a2
          0x006464ea      b4fc0001       cmpa.w 0x1, a2
      < 0x006464ee      6706           beq.b 0x6464f6
         0x006464f0      b6fc0001       cmpa.w 0x1, a3
     < 0x006464f4      660c           bne.b 0x646502
     > 0x006464f6      49eeffee       lea.l -0x12(a6), a4
         0x006464fa      4ebafa66       jsr K9_LIBRARY.step_vol(pc)
     < 0x006464fe      6000018e       bra.w 0x64668e
     > 0x00646502      206e0008       movea.l 0x8(a6), a0
         0x00646506      1410           move.b (a0), d2
         0x00646508      4882           ext.w d2
         0x0064650a      e742           asl.w 0x3, d2
         0x0064650c      b7ebfffc       cmpa.l -0x4(a3), a3
     < 0x00646510      6702           beq.b 0x646514
        0x00646512      4e4d           trap 0xd
     > 0x00646514      4886           ext.w d6
         0x00646516      4dbc0001       chk.w 0x1, d6
         0x0064651a      3606           move.w d6, d3
         0x0064651c      e543           asl.w 0x2, d3
         0x0064651e      4885           ext.w d5
         0x00646520      4bbc0001       chk.w 0x1, d5
         0x00646524      3805           move.w d5, d4
         0x00646526      e744           asl.w 0x3, d4
         0x00646528      41f34000       lea.l (a3, d4.w), a0
         0x0064652c      2f08           move.l a0, -(a7)
         0x0064652e      41f32000       lea.l (a3, d2.w), a0
         0x00646532      2f08           move.l a0, -(a7)
         0x00646534      b5f03008       cmpa.l 0x8(a0, d3.w), a2
     < 0x00646538      6606           bne.b 0x646540
        0x0064653a      4a33601c       tst.b 0x1c(a3, d6.w)
    < 0x0064653e      660a           bne.b 0x64654a
    > 0x00646540      206f0004       movea.l 0x4(a7), a0
        0x00646544      b5f03008       cmpa.l 0x8(a0, d3.w), a2
    < 0x00646548      660e           bne.b 0x646558
    > 0x0064654a      49eeffee       lea.l -0x12(a6), a4
        0x0064654e      4ebafa12       jsr K9_LIBRARY.step_vol(pc)
        0x00646552      504f           addq.w 0x8, a7
    < 0x00646554      60000138       bra.w 0x64668e
    > 0x00646558      142efff1       move.b -0xf(a6), d2
        0x0064655c      4882           ext.w d2
        0x0064655e      45bc0001       chk.w 0x1, d2
        0x00646562      e542           asl.w 0x2, d2
        0x00646564      2057           movea.l (a7), a0
        0x00646566      20702008       movea.l 0x8(a0, d2.w), a0
        0x0064656a      2f08           move.l a0, -(a7)
        0x0064656c      b0fc0001       cmpa.w 0x1, a0
    < 0x00646570      661e           bne.b 0x646590
       0x00646572      206f0008       movea.l 0x8(a7), a0
       0x00646576      20703008       movea.l 0x8(a0, d3.w), a0
       0x0064657a      b0fc0001       cmpa.w 0x1, a0
   < 0x0064657e      6610           bne.b 0x646590
      0x00646580      49eeffee       lea.l -0x12(a6), a4
      0x00646584      4ebaf9dc       jsr K9_LIBRARY.step_vol(pc)
      0x00646588      defc000c       adda.w 0xc, a7
  < 0x0064658c      60000100       bra.w 0x64668e
  > 0x00646590      206f0008       movea.l 0x8(a7), a0
       0x00646594      20703008       movea.l 0x8(a0, d3.w), a0
       0x00646598      b0fc0001       cmpa.w 0x1, a0
   < 0x0064659c      660a           bne.b 0x6465a8
      0x0064659e      2057           movea.l (a7), a0
      0x006465a0      b0fc0001       cmpa.w 0x1, a0
  < 0x006465a4      670000dc       beq.w 0x646682
  > 0x006465a8      4211           clr.b (a1)
      0x006465aa      206f000c       movea.l 0xc(a7), a0
      0x006465ae      4210           clr.b (a0)
      0x006465b0      206e0026       movea.l 0x26(a6), a0
      0x006465b4      2f08           move.l a0, -(a7)
      0x006465b6      206f0014       movea.l 0x14(a7), a0
      0x006465ba      245f           movea.l (a7)+, a2
      0x006465bc      24b0001e       move.l 0x1e(a0, d0.w), (a2)
      0x006465c0      246e0022       movea.l 0x22(a6), a2
      0x006465c4      248b           move.l a3, (a2)
      0x006465c6      142e0020       move.b 0x20(a6), d2
      0x006465ca      4882           ext.w d2
      0x006465cc      0c42000a       cmpi.w 0xa, d2
  < 0x006465d0      6302           bls.b 0x6465d4
     0x006465d2      4e4e           trap 0xe
  > 0x006465d4      d442           add.w d2, d2
      0x006465d6      343b2006       move.w 0x6465de(pc, d2.w), d2
      0x006465da      4efb2002       jmp 0x6465de(pc, d2.w)
      0x006465de      00260016       ori.b 0x16, -(a6)
      0x006465e2      00160026       ori.b 0x26, (a6)
      0x006465e6      fff4           invalid
      0x006465e8      fff4           invalid
      0x006465ea      fff4           invalid
      0x006465ec      fff4           invalid
      0x006465ee      fff4           invalid
      0x006465f0      fff4           invalid
      0x006465f2      002e594f4227   ori.b 0x4f, 0x4227(a6)
  > 0x006465f8      4ebade22       jsr K9_LIBRARY.display_limit(pc)
     0x006465fc      544f           addq.w 0x2, a7
     0x006465fe      2d5f001c       move.l (a7)+, 0x1c(a6)
  < 0x00646602      6046           bra.b 0x64664a
     0x00646604      594f           subq.w 0x4, a7
     0x00646606      1f3c0001       move.b 0x1, -(a7)
  < 0x0064660a      60ec           bra.b 0x6465f8
      0x0064660c      12bc0001       move.b 0x1, (a1)
      0x00646610      594f           subq.w 0x4, a7
      0x00646612      4227           clr.b -(a7)
      0x00646614      4ebade06       jsr K9_LIBRARY.display_limit(pc)
      0x00646618      544f           addq.w 0x2, a7
      0x0064661a      242e001c       move.l 0x1c(a6), d2
      0x0064661e      b497           cmp.l (a7), d2
  < 0x00646620      6c06           bge.b 0x646628
     0x00646622      594f           subq.w 0x4, a7
     0x00646624      4227           clr.b -(a7)
  < 0x00646626      6016           bra.b 0x64663e
  > 0x00646628      594f           subq.w 0x4, a7
      0x0064662a      1f3c0001       move.b 0x1, -(a7)
      0x0064662e      4ebaddec       jsr K9_LIBRARY.display_limit(pc)
      0x00646632      544f           addq.w 0x2, a7
      0x00646634      b49f           cmp.l (a7)+, d2
  < 0x00646636      6f10           ble.b 0x646648
     0x00646638      594f           subq.w 0x4, a7
     0x0064663a      1f3c0001       move.b 0x1, -(a7)
  > 0x0064663e      4ebadddc       jsr K9_LIBRARY.display_limit(pc)
     0x00646642      544f           addq.w 0x2, a7
     0x00646644      2d5f001c       move.l (a7)+, 0x1c(a6)
  > 0x00646648      584f           addq.w 0x4, a7
  > 0x0064664a      246e0010       movea.l 0x10(a6), a2
      0x0064664e      242e001c       move.l 0x1c(a6), d2
      0x00646652      5382           subq.l 0x1, d2
      0x00646654      0c820000000b   cmpi.l 0xb, d2
  < 0x0064665a      6302           bls.b 0x64665e
     0x0064665c      4e4f           trap 0xf
  > 0x0064665e      2802           move.l d2, d4
      0x00646660      761e           moveq 0x1e, d3
      0x00646662      4eb900406a74   jsr fcn.00406a74
      0x00646668      41f00012       lea.l 0x12(a0, d0.w), a0
      0x0064666c      24b04846       move.l 0x46(a0, d4.l), (a2)
      0x00646670      2052           movea.l (a2), a0
      0x00646672      b0fc0001       cmpa.w 0x1, a0
  < 0x00646676      6604           bne.b 0x64667c
     0x00646678      12bc0001       move.b 0x1, (a1)
  > 0x0064667c      defc000c       adda.w 0xc, a7
  < 0x00646680      600c           bra.b 0x64668e
  > 0x00646682      4227           clr.b -(a7)
      0x00646684      4eb90040452a   jsr p_Assert
      0x0064668a      defc000e       adda.w 0xe, a7
  > 0x0064668e      584f           addq.w 0x4, a7
      > 0x00646690      584f           addq.w 0x4, a7
            0x00646692      4cdf1fff       movem.l (a7)+, d0-d7/a0-a4
            0x00646696      4e5e           unlk a6
            0x00646698      4e75           rts
            ; CALL XREF from K9_LIBRARY.cmd_handler @ 0x64685a
 264: K9_LIBRARY.search_loop ();
           0x0064669a      4e56ffb4       link.w a6, 0xffb4
           0x0064669e      bfd5           cmpa.l (a5), a7
       < 0x006466a0      6206           bhi.b 0x6466a8
          0x006466a2      44fc0002       move.w 0x2, ccr
          0x006466a6      4e76           trapv
       > 0x006466a8      defc004c       adda.w 0x4c, a7
           0x006466ac      48e7e0f0       movem.l d0-d2/a0-a3, -(a7)
           0x006466b0      47ec000e       lea.l 0xe(a4), a3
           0x006466b4      7401           moveq 0x1, d2
           0x006466b6      206c0020       movea.l 0x20(a4), a0
           0x006466ba      226c0020       movea.l 0x20(a4), a1
      > 0x006466be      103900847e42   move.b 0x847e42, d0
         0x006466c4      4880           ext.w d0
         0x006466c6      c1fc02d0       muls.w 0x2d0, d0
         0x006466ca      45f900847e32   lea.l 0x847e32, a2
         0x006466d0      2593001e       move.l (a3), 0x1e(a2, d0.w)
         0x006466d4      1f02           move.b d2, -(a7)
         0x006466d6      4ebae55c       jsr K9_LIBRARY.continuation_he(pc)
         0x006466da      544f           addq.w 0x2, a7
         0x006466dc      102c0008       move.b 0x8(a4), d0
         0x006466e0      4880           ext.w d0
         0x006466e2      4182           chk.w d2, d0
         0x006466e4      2f2c000a       move.l 0xa(a4), -(a7)
         0x006466e8      2f2c0004       move.l 0x4(a4), -(a7)
         0x006466ec      1f00           move.b d0, -(a7)
         0x006466ee      122c0002       move.b 0x2(a4), d1
         0x006466f2      4881           ext.w d1
         0x006466f4      4382           chk.w d2, d1
         0x006466f6      1f01           move.b d1, -(a7)
         0x006466f8      122c0003       move.b 0x3(a4), d1
         0x006466fc      4881           ext.w d1
         0x006466fe      4382           chk.w d2, d1
         0x00646700      1f01           move.b d1, -(a7)
         0x00646702      4854           pea.l (a4)
         0x00646704      486c0001       pea.l 0x1(a4)
         0x00646708      4ebaf52e       jsr K9_LIBRARY.do_search(pc)
         0x0064670c      defc0016       adda.w 0x16, a7
         0x00646710      4a14           tst.b (a4)
     < 0x00646712      6714           beq.b 0x646728
        0x00646714      1282           move.b d2, (a1)
        0x00646716      554f           subq.w 0x2, a7
        0x00646718      1f00           move.b d0, -(a7)
        0x0064671a      486c0014       pea.l 0x14(a4)
        0x0064671e      4ebadd7e       jsr K9_LIBRARY.alloc_display(pc)
        0x00646722      5c4f           addq.w 0x6, a7
        0x00646724      4a1f           tst.b (a7)+
    < 0x00646726      672a           beq.b 0x646752
    > 0x00646728      4853           pea.l (a3)
        0x0064672a      486c000a       pea.l 0xa(a4)
        0x0064672e      1f2e0008       move.b 0x8(a6), -(a7)
        0x00646732      48780000       pea.l 0x0
        0x00646736      486c0003       pea.l 0x3(a4)
        0x0064673a      486c0012       pea.l 0x12(a4)
        0x0064673e      486c0004       pea.l 0x4(a4)
        0x00646742      486c0002       pea.l 0x2(a4)
        0x00646746      486c0008       pea.l 0x8(a4)
        0x0064674a      4ebaf954       jsr K9_LIBRARY.choose_display(pc)
        0x0064674e      defc0022       adda.w 0x22, a7
    > 0x00646752      554f           subq.w 0x2, a7
         0x00646754      102c0008       move.b 0x8(a4), d0
         0x00646758      4880           ext.w d0
         0x0064675a      4182           chk.w d2, d0
         0x0064675c      1f00           move.b d0, -(a7)
         0x0064675e      486c0014       pea.l 0x14(a4)
         0x00646762      4ebadd3a       jsr K9_LIBRARY.alloc_display(pc)
         0x00646766      5c4f           addq.w 0x6, a7
         0x00646768      4a1f           tst.b (a7)+
     < 0x0064676a      6726           beq.b 0x646792
        0x0064676c      2453           movea.l (a3), a2
        0x0064676e      b4c2           cmpa.w d2, a2
    < 0x00646770      6720           beq.b 0x646792
       0x00646772      4a2c0001       tst.b 0x1(a4)
   < 0x00646776      661a           bne.b 0x646792
      0x00646778      4a10           tst.b (a0)
  < 0x0064677a      6706           beq.b 0x646782
     0x0064677c      4a2c0012       tst.b 0x12(a4)
 < 0x00646780      6610           bne.b 0x646792
 > 0x00646782      4a2c0024       tst.b 0x24(a4)
  < 0x00646786      6600ff36       bne.w 0x6466be
      0x0064678a      4a2c0012       tst.b 0x12(a4)
   < 0x0064678e      6700ff2e       beq.w 0x6466be
 > 0x00646792      4227           clr.b -(a7)
           0x00646794      4ebae49e       jsr K9_LIBRARY.continuation_he(pc)
           0x00646798      544f           addq.w 0x2, a7
           0x0064679a      4cdf0f07       movem.l (a7)+, d0-d2/a0-a3
           0x0064679e      4e5e           unlk a6
           0x006467a0      4e75           rts
            ; CALL XREF from K9_LIBRARY.sklr_handler @ 0x64a120
            ; CALL XREF from K9_LIBRARY.k9_more @ 0x64a156
            ; CALL XREF from K9_LIBRARY.k9_set_display_ @ 0x64bb2c
 198: K9_LIBRARY.cmd_handler ();
           0x006467a2      4e56fdb8       link.w a6, 0xfdb8
           0x006467a6      bfd5           cmpa.l (a5), a7
       < 0x006467a8      6206           bhi.b 0x6467b0
          0x006467aa      44fc0002       move.w 0x2, ccr
          0x006467ae      4e76           trapv
       > 0x006467b0      defc0230       adda.w 0x230, a7
           0x006467b4      48e7e0f8       movem.l d0-d2/a0-a4, -(a7)
           0x006467b8      7401           moveq 0x1, d2
           0x006467ba      206e0008       movea.l 0x8(a6), a0
           0x006467be      4210           clr.b (a0)
           0x006467c0      486efff6       pea.l -0xa(a6)
           0x006467c4      486efff2       pea.l -0xe(a6)
           0x006467c8      1f2e0012       move.b 0x12(a6), -(a7)
           0x006467cc      2f2e000e       move.l 0xe(a6), -(a7)
           0x006467d0      486effeb       pea.l -0x15(a6)
           0x006467d4      486efffa       pea.l -0x6(a6)
           0x006467d8      486effec       pea.l -0x14(a6)
           0x006467dc      486effea       pea.l -0x16(a6)
           0x006467e0      486efff0       pea.l -0x10(a6)
           0x006467e4      4ebaf8ba       jsr K9_LIBRARY.choose_display(pc)
           0x006467e8      defc0022       adda.w 0x22, a7
           0x006467ec      102e0012       move.b 0x12(a6), d0
           0x006467f0      0c00000c       cmpi.b 0xc, d0
       < 0x006467f4      6704           beq.b 0x6467fa
          0x006467f6      4ebae5ae       jsr K9_LIBRARY.clear_display(pc)
       > 0x006467fa      226efff6       movea.l -0xa(a6), a1
           0x006467fe      b2c2           cmpa.w d2, a1
       < 0x00646800      663e           bne.b 0x646840
          0x00646802      123900847e42   move.b 0x847e42, d1
          0x00646808      4881           ext.w d1
          0x0064680a      c3fc02d0       muls.w 0x2d0, d1
          0x0064680e      45f900847e32   lea.l 0x847e32, a2
          0x00646814      2589101e       move.l a1, 0x1e(a2, d1.w)
          0x00646818      9efc0100       suba.w 0x100, a7
          0x0064681c      244f           movea.l a7, a2
          0x0064681e      47fabc8d       lea.l 0x6424ad(pc), a3
          0x00646822      7212           moveq 0x12, d1
      > 0x00646824      14db           move.b (a3)+, (a2)+
      < 0x00646826      51c9fffc       dbra d1, 0x646824
          0x0064682a      9efc0100       suba.w 0x100, a7
          0x0064682e      1ebabc90       move.b 0x6424c0(pc), (a7)
          0x00646832      1f02           move.b d2, -(a7)
          0x00646834      4ebacaa8       jsr K9_LIBRARY.header(pc)
          0x00646838      defc0202       adda.w 0x202, a7
          0x0064683c      4210           clr.b (a0)
      < 0x0064683e      6020           bra.b 0x646860
      > 0x00646840      4880           ext.w d0
          0x00646842      41fabc7e       lea.l 0x6424c2(pc), a0
          0x00646846      3200           move.w d0, d1
          0x00646848      e649           lsr.w 0x3, d1
          0x0064684a      01301000       btst.l d0, (a0, d1.w)
      < 0x0064684e      6704           beq.b 0x646854
         0x00646850      1f02           move.b d2, -(a7)
     < 0x00646852      6002           bra.b 0x646856
     > 0x00646854      4227           clr.b -(a7)
     > 0x00646856      49eeffe8       lea.l -0x18(a6), a4
          0x0064685a      4ebafe3e       jsr K9_LIBRARY.search_loop(pc)
          0x0064685e      544f           addq.w 0x2, a7
      > 0x00646860      4cdf1f07       movem.l (a7)+, d0-d2/a0-a4
           0x00646864      4e5e           unlk a6
           0x00646866      4e75           rts
            ; CALL XREF from K9_LIBRARY.everything_act_ @ 0x6469d4
 248: fcn.00646868 ();
           0x00646868      4e56ffbe       link.w a6, 0xffbe
           0x0064686c      bfd5           cmpa.l (a5), a7
       < 0x0064686e      6206           bhi.b 0x646876
          0x00646870      44fc0002       move.w 0x2, ccr
          0x00646874      4e76           trapv
       > 0x00646876      defc0042       adda.w 0x42, a7
           0x0064687a      48e7c0f0       movem.l d0-d1/a0-a3, -(a7)
           0x0064687e      45ec0016       lea.l 0x16(a4), a2
           0x00646882      47f900847e42   lea.l 0x847e42, a3
           0x00646888      7201           moveq 0x1, d1
           0x0064688a      206c0024       movea.l 0x24(a4), a0
       > 0x0064688e      1013           move.b (a3), d0
          0x00646890      4880           ext.w d0
          0x00646892      c1fc02d0       muls.w 0x2d0, d0
          0x00646896      43f900847e32   lea.l 0x847e32, a1
          0x0064689c      2392001e       move.l (a2), 0x1e(a1, d0.w)
          0x006468a0      226c0012       movea.l 0x12(a4), a1
          0x006468a4      b3e9fffc       cmpa.l -0x4(a1), a1
      < 0x006468a8      6702           beq.b 0x6468ac
         0x006468aa      4e4d           trap 0xd
      > 0x006468ac      4229001f       clr.b 0x1f(a1)
          0x006468b0      1f01           move.b d1, -(a7)
          0x006468b2      4ebae380       jsr K9_LIBRARY.continuation_he(pc)
          0x006468b6      544f           addq.w 0x2, a7
          0x006468b8      2f2c0012       move.l 0x12(a4), -(a7)
          0x006468bc      2f14           move.l (a4), -(a7)
          0x006468be      1f2e000a       move.b 0xa(a6), -(a7)
          0x006468c2      102c0006       move.b 0x6(a4), d0
          0x006468c6      4880           ext.w d0
          0x006468c8      4181           chk.w d1, d0
          0x006468ca      1f00           move.b d0, -(a7)
          0x006468cc      102c0005       move.b 0x5(a4), d0
          0x006468d0      4880           ext.w d0
          0x006468d2      4181           chk.w d1, d0
          0x006468d4      1f00           move.b d0, -(a7)
          0x006468d6      486c0004       pea.l 0x4(a4)
          0x006468da      486c0007       pea.l 0x7(a4)
          0x006468de      4ebaf358       jsr K9_LIBRARY.do_search(pc)
          0x006468e2      defc0016       adda.w 0x16, a7
          0x006468e6      4a2c0004       tst.b 0x4(a4)
      < 0x006468ea      6702           beq.b 0x6468ee
         0x006468ec      1081           move.b d1, (a0)
      > 0x006468ee      4852           pea.l (a2)
          0x006468f0      486c0012       pea.l 0x12(a4)
          0x006468f4      1f2e0008       move.b 0x8(a6), -(a7)
          0x006468f8      48780000       pea.l 0x0
          0x006468fc      486c0005       pea.l 0x5(a4)
          0x00646900      486c001a       pea.l 0x1a(a4)
          0x00646904      4854           pea.l (a4)
          0x00646906      486c0006       pea.l 0x6(a4)
          0x0064690a      486e000a       pea.l 0xa(a6)
          0x0064690e      4ebaf790       jsr K9_LIBRARY.choose_display(pc)
          0x00646912      defc0022       adda.w 0x22, a7
          0x00646916      4a2c001a       tst.b 0x1a(a4)
      < 0x0064691a      6726           beq.b 0x646942
         0x0064691c      2252           movea.l (a2), a1
         0x0064691e      b2c1           cmpa.w d1, a1
     < 0x00646920      6720           beq.b 0x646942
        0x00646922      1013           move.b (a3), d0
        0x00646924      4880           ext.w d0
        0x00646926      c1fc02d0       muls.w 0x2d0, d0
        0x0064692a      43f900847e32   lea.l 0x847e32, a1
        0x00646930      1f310032       move.b 0x32(a1, d0.w), -(a7)
        0x00646934      4227           clr.b -(a7)
        0x00646936      4eb90064b7b4   jsr K9_LIBRARY.k9_clear_screen
        0x0064693c      584f           addq.w 0x4, a7
        0x0064693e      4ebae466       jsr K9_LIBRARY.clear_display(pc)
     > 0x00646942      2252           movea.l (a2), a1
          0x00646944      b2c1           cmpa.w d1, a1
      < 0x00646946      6708           beq.b 0x646950
         0x00646948      4a2c0007       tst.b 0x7(a4)
      < 0x0064694c      6700ff40       beq.w 0x64688e
      > 0x00646950      4227           clr.b -(a7)
           0x00646952      4ebae2e0       jsr K9_LIBRARY.continuation_he(pc)
           0x00646956      544f           addq.w 0x2, a7
           0x00646958      4cdf0f03       movem.l (a7)+, d0-d1/a0-a3
           0x0064695c      4e5e           unlk a6
           0x0064695e      4e75           rts
            ; CALL XREF from K9_LIBRARY.do_everything_a @ 0x646a60
 130: K9_LIBRARY.everything_act_ ();
           0x00646960      4e56ffb2       link.w a6, 0xffb2
           0x00646964      bfd5           cmpa.l (a5), a7
       < 0x00646966      6206           bhi.b 0x64696e
          0x00646968      44fc0002       move.w 0x2, ccr
          0x0064696c      4e76           trapv
       > 0x0064696e      defc0032       adda.w 0x32, a7
           0x00646972      48e78088       movem.l d0/a0/a4, -(a7)
           0x00646976      206e0008       movea.l 0x8(a6), a0
           0x0064697a      4210           clr.b (a0)
           0x0064697c      486efffa       pea.l -0x6(a6)
           0x00646980      486efff6       pea.l -0xa(a6)
           0x00646984      1f2e0010       move.b 0x10(a6), -(a7)
           0x00646988      2f2e000c       move.l 0xc(a6), -(a7)
           0x0064698c      486effe9       pea.l -0x17(a6)
           0x00646990      486efffe       pea.l -0x2(a6)
           0x00646994      486effe4       pea.l -0x1c(a6)
           0x00646998      486effea       pea.l -0x16(a6)
           0x0064699c      486effff       pea.l -0x1(a6)
           0x006469a0      4ebaf6fe       jsr K9_LIBRARY.choose_display(pc)
           0x006469a4      defc0022       adda.w 0x22, a7
           0x006469a8      102e0010       move.b 0x10(a6), d0
           0x006469ac      0c00000c       cmpi.b 0xc, d0
       < 0x006469b0      6704           beq.b 0x6469b6
          0x006469b2      4ebae3f2       jsr K9_LIBRARY.clear_display(pc)
       > 0x006469b6      206efffa       movea.l -0x6(a6), a0
           0x006469ba      b0fc0001       cmpa.w 0x1, a0
       < 0x006469be      660c           bne.b 0x6469cc
          0x006469c0      4227           clr.b -(a7)
          0x006469c2      4eb90040452a   jsr p_Assert
          0x006469c8      544f           addq.w 0x2, a7
      < 0x006469ca      600e           bra.b 0x6469da
      > 0x006469cc      4227           clr.b -(a7)
          0x006469ce      4227           clr.b -(a7)
          0x006469d0      49eeffe4       lea.l -0x1c(a6), a4
          0x006469d4      4ebafe92       jsr fcn.00646868(pc)
          0x006469d8      584f           addq.w 0x4, a7
      > 0x006469da      4cdf1101       movem.l (a7)+, d0/a0/a4
           0x006469de      4e5e           unlk a6
           0x006469e0      4e75           rts
            ; CALL XREF from K9_LIBRARY.k9_act @ 0x646b64
 162: K9_LIBRARY.do_everything_a ();
           0x006469e2      4e56ffd2       link.w a6, 0xffd2
           0x006469e6      bfd5           cmpa.l (a5), a7
       < 0x006469e8      6206           bhi.b 0x6469f0
          0x006469ea      44fc0002       move.w 0x2, ccr
          0x006469ee      4e76           trapv
       > 0x006469f0      defc002c       adda.w 0x2c, a7
           0x006469f4      48e7c0e0       movem.l d0-d1/a0-a2, -(a7)
           0x006469f8      103900847e42   move.b 0x847e42, d0
           0x006469fe      4880           ext.w d0
           0x00646a00      c1fc02d0       muls.w 0x2d0, d0
           0x00646a04      41f900847e32   lea.l 0x847e32, a0
           0x00646a0a      43f00012       lea.l 0x12(a0, d0.w), a1
           0x00646a0e      137abab401ca   move.b 0x6424c4(pc), 0x1ca(a1)
           0x00646a14      136e000802ca   move.b 0x8(a6), 0x2ca(a1)
           0x00646a1a      136c016202cc   move.b 0x162(a4), 0x2cc(a1)
           0x00646a20      4227           clr.b -(a7)
           0x00646a22      4eb900649cd4   jsr K9_LIBRARY.k9_clear_found
           0x00646a28      544f           addq.w 0x2, a7
           0x00646a2a      137c000102cb   move.b 0x1, 0x2cb(a1)
           0x00646a30      12290020       move.b 0x20(a1), d1
           0x00646a34      4881           ext.w d1
           0x00646a36      43bc0003       chk.w 0x3, d1
           0x00646a3a      1f01           move.b d1, -(a7)
           0x00646a3c      4227           clr.b -(a7)
           0x00646a3e      4eb90064b7b4   jsr K9_LIBRARY.k9_clear_screen
           0x00646a44      544f           addq.w 0x2, a7
           0x00646a46      4217           clr.b (a7)
           0x00646a48      1f2c0162       move.b 0x162(a4), -(a7)
           0x00646a4c      4eb90064b994   jsr K9_LIBRARY.k9_show_display
           0x00646a52      544f           addq.w 0x2, a7
           0x00646a54      1ebc0008       move.b 0x8, (a7)
           0x00646a58      48780000       pea.l 0x0
           0x00646a5c      486efffe       pea.l -0x2(a6)
           0x00646a60      4ebafefe       jsr K9_LIBRARY.everything_act_(pc)
           0x00646a64      defc000a       adda.w 0xa, a7
           0x00646a68      422902cb       clr.b 0x2cb(a1)
           0x00646a6c      45ee000a       lea.l 0xa(a6), a2
           0x00646a70      43e901ca       lea.l 0x1ca(a1), a1
           0x00646a74      723f           moveq 0x3f, d1
       > 0x00646a76      24d9           move.l (a1)+, (a2)+
       < 0x00646a78      51c9fffc       dbra d1, 0x646a76
           0x00646a7c      4cdf0703       movem.l (a7)+, d0-d1/a0-a2
           0x00646a80      4e5e           unlk a6
           0x00646a82      4e75           rts
            ; CALL XREF from MENULIBFNDCOM.hit_print_sort_ @ 0x75911a
            ; CALL XREF from MENULIBFNDCOM.hit_confirm @ 0x759502
            ; CALL XREF from MENULIBFNDCOM.hit_item @ 0x759a76
 908: K9_LIBRARY.k9_act ();
           ; var int32_t var_45ebh @ a6-0x45eb
           0x00646a84      4e56fd42       link.w a6, 0xfd42
           0x00646a88      bfd5           cmpa.l (a5), a7
       < 0x00646a8a      6206           bhi.b 0x646a92
          0x00646a8c      44fc0002       move.w 0x2, ccr
          0x00646a90      4e76           trapv
       > 0x00646a92      defc0164       adda.w 0x164, a7
           0x00646a96      48e7fff8       movem.l d0-d7/a0-a4, -(a7)
           0x00646a9a      103900847e42   move.b 0x847e42, d0
           0x00646aa0      4880           ext.w d0
           0x00646aa2      c1fc02d0       muls.w 0x2d0, d0
           0x00646aa6      41f900847e32   lea.l 0x847e32, a0
           0x00646aac      2f08           move.l a0, -(a7)
           0x00646aae      1d7aba15feb6   move.b 0x6424c5(pc), -0x14a(a6)
           0x00646ab4      1f3c0001       move.b 0x1, -(a7)
           0x00646ab8      3f3c0004       move.w 0x4, -(a7)
           0x00646abc      4eb900456ede   jsr PAD.flag_on_abort
           0x00646ac2      544f           addq.w 0x2, a7
           0x00646ac4      4217           clr.b (a7)
           0x00646ac6      4eb9005a31ec   jsr K04_FILEROPS.k_set_search_ta
           0x00646acc      554f           subq.w 0x2, a7
           0x00646ace      4eb900402e30   jsr p_Cur_Ticks
           0x00646ad4      2e1f           move.l (a7)+, d7
           0x00646ad6      7c01           moveq 0x1, d6
           0x00646ad8      554f           subq.w 0x2, a7
           0x00646ada      486effb6       pea.l -0x4a(a6)
           0x00646ade      4eb900404434   jsr fcn.00404434
           0x00646ae4      584f           addq.w 0x4, a7
           0x00646ae6      4a1f           tst.b (a7)+
       < 0x00646ae8      670002aa       beq.w 0x646d94
          0x00646aec      122e000a       move.b 0xa(a6), d1
          0x00646af0      0c010004       cmpi.b 0x4, d1
      < 0x00646af4      665a           bne.b 0x646b50
         0x00646af6      142e000c       move.b 0xc(a6), d2
         0x00646afa      4882           ext.w d2
         0x00646afc      053ab9c8       btst.l d2, 0x6424c6(pc)
     < 0x00646b00      674e           beq.b 0x646b50
        0x00646b02      554f           subq.w 0x2, a7
        0x00646b04      1f3c0001       move.b 0x1, -(a7)
        0x00646b08      43f00012       lea.l 0x12(a0, d0.w), a1
        0x00646b0c      142902cd       move.b 0x2cd(a1), d2
        0x00646b10      4882           ext.w d2
        0x00646b12      45bc0001       chk.w 0x1, d2
        0x00646b16      1f02           move.b d2, -(a7)
        0x00646b18      43f00012       lea.l 0x12(a0, d0.w), a1
        0x00646b1c      142902ce       move.b 0x2ce(a1), d2
        0x00646b20      4882           ext.w d2
        0x00646b22      45bc0003       chk.w 0x3, d2
        0x00646b26      1f02           move.b d2, -(a7)
        0x00646b28      4eb9006509fe   jsr K91_LIBOPS.k91_set_print
        0x00646b2e      5c4f           addq.w 0x6, a7
        0x00646b30      4a1f           tst.b (a7)+
    < 0x00646b32      661c           bne.b 0x646b50
       0x00646b34      43eefeb6       lea.l -0x14a(a6), a1
       0x00646b38      45fab98d       lea.l 0x6424c7(pc), a2
       0x00646b3c      7414           moveq 0x14, d2
   > 0x00646b3e      12da           move.b (a2)+, (a1)+
   < 0x00646b40      51cafffc       dbra d2, 0x646b3e
       0x00646b44      486effb6       pea.l -0x4a(a6)
       0x00646b48      4eb900404468   jsr fcn.00404468
       0x00646b4e      584f           addq.w 0x4, a7
    > 0x00646b50      142e000c       move.b 0xc(a6), d2
          0x00646b54      0c020002       cmpi.b 0x2, d2
      < 0x00646b58      6652           bne.b 0x646bac
         0x00646b5a      9efc0100       suba.w 0x100, a7
         0x00646b5e      1f01           move.b d1, -(a7)
         0x00646b60      49eefea6       lea.l -0x15a(a6), a4
         0x00646b64      4ebafe7c       jsr K9_LIBRARY.do_everything_a(pc)
         0x00646b68      544f           addq.w 0x2, a7
         0x00646b6a      43eefeb6       lea.l -0x14a(a6), a1
         0x00646b6e      743f           moveq 0x3f, d2
     > 0x00646b70      22df           move.l (a7)+, (a1)+
     < 0x00646b72      51cafffc       dbra d2, 0x646b70
         0x00646b76      4242           clr.w d2
         0x00646b78      142efeb6       move.b -0x14a(a6), d2
     < 0x00646b7c      6302           bls.b 0x646b80
        0x00646b7e      7400           moveq 0x0, d2
     > 0x00646b80      5302           subq.b 0x1, d2
     < 0x00646b82      6510           bcs.b 0x646b94
        0x00646b84      43eefeb7       lea.l -0x149(a6), a1
        0x00646b88      45fab953       lea.l 0x6424dd(pc), a2
    > 0x00646b8c      b30a           cmpm.b (a2)+, (a1)+
    < 0x00646b8e      56cafffc       dbne d2, 0x646b8c
    < 0x00646b92      6604           bne.b 0x646b98
    > 0x00646b94      142efeb6       move.b -0x14a(a6), d2
    < 0x00646b98      670001fa       beq.w 0x646d94
        0x00646b9c      486effb6       pea.l -0x4a(a6)
        0x00646ba0      4eb900404468   jsr fcn.00404468
        0x00646ba6      584f           addq.w 0x4, a7
    < 0x00646ba8      600001ea       bra.w 0x646d94
    > 0x00646bac      43f00012       lea.l 0x12(a0, d0.w), a1
        0x00646bb0      2f08           move.l a0, -(a7)
    > 0x00646bb2      2057           movea.l (a7), a0
       0x00646bb4      322901ae       move.w 0x1ae(a1), d1
       0x00646bb8      48c1           ext.l d1
       0x00646bba      bc81           cmp.l d1, d6
   < 0x00646bbc      6f06           ble.b 0x646bc4
      0x00646bbe      584f           addq.w 0x4, a7
  < 0x00646bc0      600001d2       bra.w 0x646d94
  > 0x00646bc4      2206           move.l d6, d1
      0x00646bc6      5381           subq.l 0x1, d1
      0x00646bc8      0c810000000b   cmpi.l 0xb, d1
  < 0x00646bce      6302           bls.b 0x646bd2
     0x00646bd0      4e4f           trap 0xf
  > 0x00646bd2      e381           asl.l 0x1, d1
      0x00646bd4      45f11800       lea.l (a1, d1.l), a2
      0x00646bd8      322a01b0       move.w 0x1b0(a2), d1
      0x00646bdc      48c1           ext.l d1
      0x00646bde      2e01           move.l d1, d7
      0x00646be0      2207           move.l d7, d1
      0x00646be2      5381           subq.l 0x1, d1
      0x00646be4      0c810000000b   cmpi.l 0xb, d1
  < 0x00646bea      6302           bls.b 0x646bee
     0x00646bec      4e4f           trap 0xf
  > 0x00646bee      2801           move.l d1, d4
      0x00646bf0      761e           moveq 0x1e, d3
      0x00646bf2      4eb900406a74   jsr fcn.00406a74
      0x00646bf8      24714846       movea.l 0x46(a1, d4.l), a2
      0x00646bfc      b4fc0001       cmpa.w 0x1, a2
  < 0x00646c00      6700018c       beq.w 0x646d8e
     0x00646c04      b5eafffc       cmpa.l -0x4(a2), a2
 < 0x00646c08      6702           beq.b 0x646c0c
    0x00646c0a      4e4d           trap 0xd
 > 0x00646c0c      1f314860       move.b 0x60(a1, d4.l), -(a7)
     0x00646c10      4eb90040452a   jsr p_Assert
     0x00646c16      544f           addq.w 0x2, a7
     0x00646c18      4a2e000c       tst.b 0xc(a6)
 < 0x00646c1c      670e           beq.b 0x646c2c
    0x00646c1e      122e000c       move.b 0xc(a6), d1
    0x00646c22      0c010001       cmpi.b 0x1, d1
 < 0x00646c26      670000c0       beq.w 0x646ce8
    0x00646c2a      4e4e           trap 0xe
 > 0x00646c2c      26714846       movea.l 0x46(a1, d4.l), a3
     0x00646c30      b7ebfffc       cmpa.l -0x4(a3), a3
 < 0x00646c34      6702           beq.b 0x646c38
    0x00646c36      4e4d           trap 0xd
 > 0x00646c38      122b004c       move.b 0x4c(a3), d1
     0x00646c3c      4881           ext.w d1
     0x00646c3e      47fab89e       lea.l 0x6424de(pc), a3
     0x00646c42      3401           move.w d1, d2
     0x00646c44      e64a           lsr.w 0x3, d2
     0x00646c46      03332000       btst.l d1, (a3, d2.w)
 < 0x00646c4a      66000098       bne.w 0x646ce4
    0x00646c4e      122e000a       move.b 0xa(a6), d1
    0x00646c52      4881           ext.w d1
    0x00646c54      47fab88e       lea.l 0x6424e4(pc), a3
    0x00646c58      3401           move.w d1, d2
    0x00646c5a      e64a           lsr.w 0x3, d2
    0x00646c5c      03332000       btst.l d1, (a3, d2.w)
 < 0x00646c60      67000082       beq.w 0x646ce4
    0x00646c64      594f           subq.w 0x4, a7
    0x00646c66      4eb900402e30   jsr p_Cur_Ticks
    0x00646c6c      2a17           move.l (a7), d5
    0x00646c6e      9efc00fc       suba.w 0xfc, a7
    0x00646c72      2f314846       move.l 0x46(a1, d4.l), -(a7)
    0x00646c76      0c870000ffff   cmpi.l 0xffff, d7
 < 0x00646c7c      6302           bls.b 0x646c80
    0x00646c7e      4e4f           trap 0xf
 > 0x00646c80      3f07           move.w d7, -(a7)
    0x00646c82      1f01           move.b d1, -(a7)
    0x00646c84      1f2e0008       move.b 0x8(a6), -(a7)
    0x00646c88      4ebaeb90       jsr K9_LIBRARY.do_action(pc)
    0x00646c8c      defc000a       adda.w 0xa, a7
    0x00646c90      47eefeb6       lea.l -0x14a(a6), a3
    0x00646c94      743f           moveq 0x3f, d2
 > 0x00646c96      26df           move.l (a7)+, (a3)+
 < 0x00646c98      51cafffc       dbra d2, 0x646c96
    0x00646c9c      2f05           move.l d5, -(a7)
    0x00646c9e      06970000000c   addi.l 0xc, (a7)
    0x00646ca4      4eb900402ea2   jsr p_Abs_Delay
    0x00646caa      2e87           move.l d7, (a7)
    0x00646cac      4ebad714       jsr K9_LIBRARY.k9_deselect(pc)
    0x00646cb0      584f           addq.w 0x4, a7
    0x00646cb2      5386           subq.l 0x1, d6
    0x00646cb4      4242           clr.w d2
    0x00646cb6      142efeb6       move.b -0x14a(a6), d2
 < 0x00646cba      6302           bls.b 0x646cbe
    0x00646cbc      7400           moveq 0x0, d2
 > 0x00646cbe      5302           subq.b 0x1, d2
 < 0x00646cc0      6510           bcs.b 0x646cd2
    0x00646cc2      47eefeb7       lea.l -0x149(a6), a3
    0x00646cc6      41fab821       lea.l 0x6424e9(pc), a0
 > 0x00646cca      b708           cmpm.b (a0)+, (a3)+
 < 0x00646ccc      56cafffc       dbne d2, 0x646cca
 < 0x00646cd0      6604           bne.b 0x646cd6
 > 0x00646cd2      142efeb6       move.b -0x14a(a6), d2
 < 0x00646cd6      670c           beq.b 0x646ce4
    0x00646cd8      486effb6       pea.l -0x4a(a6)
    0x00646cdc      4eb900404468   jsr fcn.00404468
    0x00646ce2      584f           addq.w 0x4, a7
 > 0x00646ce4      600000a8       bra.w 0x646d8e
 > 0x00646ce8      9efc0100       suba.w 0x100, a7
     0x00646cec      2f314846       move.l 0x46(a1, d4.l), -(a7)
     0x00646cf0      0c870000ffff   cmpi.l 0xffff, d7
 < 0x00646cf6      6302           bls.b 0x646cfa
    0x00646cf8      4e4f           trap 0xf
 > 0x00646cfa      3f07           move.w d7, -(a7)
     0x00646cfc      1f2e000a       move.b 0xa(a6), -(a7)
     0x00646d00      1f2e0008       move.b 0x8(a6), -(a7)
     0x00646d04      4ebaeb14       jsr K9_LIBRARY.do_action(pc)
     0x00646d08      defc000a       adda.w 0xa, a7
     0x00646d0c      47eefeb6       lea.l -0x14a(a6), a3
     0x00646d10      723f           moveq 0x3f, d1
 > 0x00646d12      26df           move.l (a7)+, (a3)+
 < 0x00646d14      51c9fffc       dbra d1, 0x646d12
     0x00646d18      554f           subq.w 0x2, a7
     0x00646d1a      4eb900402f52   jsr p_Flagged
     0x00646d20      4a1f           tst.b (a7)+
 < 0x00646d22      670c           beq.b 0x646d30
    0x00646d24      486effb6       pea.l -0x4a(a6)
    0x00646d28      4eb900404468   jsr fcn.00404468
    0x00646d2e      584f           addq.w 0x4, a7
 > 0x00646d30      4241           clr.w d1
     0x00646d32      122efeb6       move.b -0x14a(a6), d1
 < 0x00646d36      6302           bls.b 0x646d3a
    0x00646d38      7200           moveq 0x0, d1
 > 0x00646d3a      5301           subq.b 0x1, d1
 < 0x00646d3c      6510           bcs.b 0x646d4e
    0x00646d3e      47eefeb7       lea.l -0x149(a6), a3
    0x00646d42      41fab7a6       lea.l 0x6424ea(pc), a0
 > 0x00646d46      b708           cmpm.b (a0)+, (a3)+
 < 0x00646d48      56c9fffc       dbne d1, 0x646d46
 < 0x00646d4c      6604           bne.b 0x646d52
 > 0x00646d4e      122efeb6       move.b -0x14a(a6), d1
 < 0x00646d52      660a           bne.b 0x646d5e
    0x00646d54      2f07           move.l d7, -(a7)
    0x00646d56      4ebad66a       jsr K9_LIBRARY.k9_deselect(pc)
    0x00646d5a      584f           addq.w 0x4, a7
    0x00646d5c      5386           subq.l 0x1, d6
 > 0x00646d5e      4241           clr.w d1
     0x00646d60      122efeb6       move.b -0x14a(a6), d1
 < 0x00646d64      6302           bls.b 0x646d68
    0x00646d66      7200           moveq 0x0, d1
 > 0x00646d68      5301           subq.b 0x1, d1
 < 0x00646d6a      6510           bcs.b 0x646d7c
    0x00646d6c      41eefeb7       lea.l -0x149(a6), a0
    0x00646d70      47fab779       lea.l 0x6424eb(pc), a3
 > 0x00646d74      b10b           cmpm.b (a3)+, (a0)+
 < 0x00646d76      56c9fffc       dbne d1, 0x646d74
 < 0x00646d7a      6604           bne.b 0x646d80
 > 0x00646d7c      122efeb6       move.b -0x14a(a6), d1
 < 0x00646d80      670c           beq.b 0x646d8e
    0x00646d82      486effb6       pea.l -0x4a(a6)
    0x00646d86      4eb900404468   jsr fcn.00404468
    0x00646d8c      584f           addq.w 0x4, a7
 > 0x00646d8e      5286           addq.l 0x1, d6
   < 0x00646d90      6000fe20       bra.w 0x646bb2
  > 0x00646d94      122e000a       move.b 0xa(a6), d1
           0x00646d98      0c010004       cmpi.b 0x4, d1
       < 0x00646d9c      6642           bne.b 0x646de0
          0x00646d9e      122e000c       move.b 0xc(a6), d1
          0x00646da2      4881           ext.w d1
          0x00646da4      033ab746       btst.l d1, 0x6424ec(pc)
      < 0x00646da8      6736           beq.b 0x646de0
         0x00646daa      554f           subq.w 0x2, a7
         0x00646dac      4227           clr.b -(a7)
         0x00646dae      226f0004       movea.l 0x4(a7), a1
         0x00646db2      43f10012       lea.l 0x12(a1, d0.w), a1
         0x00646db6      122902cd       move.b 0x2cd(a1), d1
         0x00646dba      4881           ext.w d1
         0x00646dbc      43bc0001       chk.w 0x1, d1
         0x00646dc0      1f01           move.b d1, -(a7)
         0x00646dc2      226f0006       movea.l 0x6(a7), a1
         0x00646dc6      43f10012       lea.l 0x12(a1, d0.w), a1
         0x00646dca      122902ce       move.b 0x2ce(a1), d1
         0x00646dce      4881           ext.w d1
         0x00646dd0      43bc0003       chk.w 0x3, d1
         0x00646dd4      1f01           move.b d1, -(a7)
         0x00646dd6      4eb9006509fe   jsr K91_LIBOPS.k91_set_print
         0x00646ddc      5c4f           addq.w 0x6, a7
         0x00646dde      4a1f           tst.b (a7)+
      > 0x00646de0      1f3c0001       move.b 0x1, -(a7)
           0x00646de4      4eb9005a31ec   jsr K04_FILEROPS.k_set_search_ta
           0x00646dea      4217           clr.b (a7)
           0x00646dec      4267           clr.w -(a7)
           0x00646dee      4eb900456ede   jsr PAD.flag_on_abort
           0x00646df4      584f           addq.w 0x4, a7
           0x00646df6      43ee000e       lea.l 0xe(a6), a1
           0x00646dfa      45eefeb6       lea.l -0x14a(a6), a2
           0x00646dfe      723f           moveq 0x3f, d1
       > 0x00646e00      22da           move.l (a2)+, (a1)+
       < 0x00646e02      51c9fffc       dbra d1, 0x646e00
           0x00646e06      584f           addq.w 0x4, a7
           0x00646e08      4cdf1fff       movem.l (a7)+, d0-d7/a0-a4
           0x00646e0c      4e5e           unlk a6
           0x00646e0e      4e75           rts
            ; CALL XREF from MENULIBFNDCOM.hit_print_sort_ @ 0x7590f8
            ; CALL XREF from MENULIBFNDCOM.hit_print_full @ 0x759218
 64: K9_LIBRARY.k9_set_print ();
           0x00646e10      4e56ffe6       link.w a6, 0xffe6
           0x00646e14      bfd5           cmpa.l (a5), a7
       < 0x00646e16      6206           bhi.b 0x646e1e
          0x00646e18      44fc0002       move.w 0x2, ccr
          0x00646e1c      4e76           trapv
       > 0x00646e1e      defc001a       adda.w 0x1a, a7
           0x00646e22      48e780c0       movem.l d0/a0-a1, -(a7)
           0x00646e26      103900847e42   move.b 0x847e42, d0
           0x00646e2c      4880           ext.w d0
           0x00646e2e      c1fc02d0       muls.w 0x2d0, d0
           0x00646e32      41f900847e32   lea.l 0x847e32, a0
           0x00646e38      43f00012       lea.l 0x12(a0, d0.w), a1
           0x00646e3c      136e000a02cd   move.b 0xa(a6), 0x2cd(a1)
           0x00646e42      136e000802ce   move.b 0x8(a6), 0x2ce(a1)
           0x00646e48      4cdf0301       movem.l (a7)+, d0/a0-a1
           0x00646e4c      4e5e           unlk a6
           0x00646e4e      4e75           rts
            ; CALL XREF from K9_LIBRARY.k9_sizes_displa @ 0x646f40
 170: K9_LIBRARY.k9_set_order ();
           0x00646e50      4e56ffd4       link.w a6, 0xffd4
           0x00646e54      bfd5           cmpa.l (a5), a7
       < 0x00646e56      6206           bhi.b 0x646e5e
          0x00646e58      44fc0002       move.w 0x2, ccr
          0x00646e5c      4e76           trapv
       > 0x00646e5e      defc002a       adda.w 0x2a, a7
           0x00646e62      48e7f1c0       movem.l d0-d3/d7/a0-a1, -(a7)
           0x00646e66      43ee0008       lea.l 0x8(a6), a1
           0x00646e6a      7401           moveq 0x1, d2
           0x00646e6c      7604           moveq 0x4, d3
           0x00646e6e      4227           clr.b -(a7)
           0x00646e70      1011           move.b (a1), d0
           0x00646e72      4880           ext.w d0
           0x00646e74      41fab684       lea.l 0x6424fa(pc), a0
           0x00646e78      3200           move.w d0, d1
           0x00646e7a      e649           lsr.w 0x3, d1
           0x00646e7c      01301000       btst.l d0, (a0, d1.w)
       < 0x00646e80      6702           beq.b 0x646e84
          0x00646e82      5217           addq.b 0x1, (a7)
       > 0x00646e84      4eb90040452a   jsr p_Assert
           0x00646e8a      544f           addq.w 0x2, a7
           0x00646e8c      103900847e42   move.b 0x847e42, d0
           0x00646e92      4880           ext.w d0
           0x00646e94      c1fc02d0       muls.w 0x2d0, d0
           0x00646e98      41f900847e32   lea.l 0x847e32, a0
           0x00646e9e      41f00000       lea.l (a0, d0.w), a0
           0x00646ea2      115102e1       move.b (a1), 0x2e1(a0)
           0x00646ea6      4a2801da       tst.b 0x1da(a0)
       < 0x00646eaa      6704           beq.b 0x646eb0
          0x00646eac      7e15           moveq 0x15, d7
      < 0x00646eae      6002           bra.b 0x646eb2
      > 0x00646eb0      7e07           moveq 0x7, d7
      > 0x00646eb2      1011           move.b (a1), d0
           0x00646eb4      b003           cmp.b d3, d0
       < 0x00646eb6      6d0c           blt.b 0x646ec4
          0x00646eb8      b003           cmp.b d3, d0
      < 0x00646eba      6728           beq.b 0x646ee4
         0x00646ebc      0c000013       cmpi.b 0x13, d0
     < 0x00646ec0      6722           beq.b 0x646ee4
    < 0x00646ec2      6028           bra.b 0x646eec
    > 0x00646ec4      4a00           tst.b d0
    < 0x00646ec6      6706           beq.b 0x646ece
       0x00646ec8      b002           cmp.b d2, d0
   < 0x00646eca      6702           beq.b 0x646ece
  < 0x00646ecc      601e           bra.b 0x646eec
  > 0x00646ece      1f02           move.b d2, -(a7)
       0x00646ed0      4887           ext.w d7
       0x00646ed2      4fbc0019       chk.w 0x19, d7
       0x00646ed6      1f07           move.b d7, -(a7)
   > 0x00646ed8      4227           clr.b -(a7)
  > 0x00646eda      4eb900659646   jsr K92_DISPLAY.k92_title_line
     0x00646ee0      5c4f           addq.w 0x6, a7
 < 0x00646ee2      600e           bra.b 0x646ef2
 > 0x00646ee4      1f02           move.b d2, -(a7)
      0x00646ee6      1f00           move.b d0, -(a7)
      0x00646ee8      1f00           move.b d0, -(a7)
 < 0x00646eea      60ee           bra.b 0x646eda
 > 0x00646eec      1f02           move.b d2, -(a7)
         0x00646eee      1f00           move.b d0, -(a7)
      < 0x00646ef0      60e6           bra.b 0x646ed8
 > 0x00646ef2      4cdf038f       movem.l (a7)+, d0-d3/d7/a0-a1
           0x00646ef6      4e5e           unlk a6
           0x00646ef8      4e75           rts
            ; CALL XREF from MENULIBFNDCOM.hit_action_sele @ 0x75906c
 166: K9_LIBRARY.k9_sizes_displa ();
           0x00646efa      4e56ffba       link.w a6, 0xffba
           0x00646efe      bfd5           cmpa.l (a5), a7
       < 0x00646f00      6206           bhi.b 0x646f08
          0x00646f02      44fc0002       move.w 0x2, ccr
          0x00646f06      4e76           trapv
       > 0x00646f08      defc0044       adda.w 0x44, a7
           0x00646f0c      48e7f9c0       movem.l d0-d4/d7/a0-a1, -(a7)
           0x00646f10      103900847e42   move.b 0x847e42, d0
           0x00646f16      4880           ext.w d0
           0x00646f18      c1fc02d0       muls.w 0x2d0, d0
           0x00646f1c      41f900847e32   lea.l 0x847e32, a0
           0x00646f22      43f00012       lea.l 0x12(a0, d0.w), a1
           0x00646f26      122e0008       move.b 0x8(a6), d1
           0x00646f2a      b22901c8       cmp.b 0x1c8(a1), d1
       < 0x00646f2e      6768           beq.b 0x646f98
          0x00646f30      134101c8       move.b d1, 0x1c8(a1)
          0x00646f34      142902cf       move.b 0x2cf(a1), d2
          0x00646f38      4882           ext.w d2
          0x00646f3a      45bc0019       chk.w 0x19, d2
          0x00646f3e      1f02           move.b d2, -(a7)
          0x00646f40      4ebaff0e       jsr K9_LIBRARY.k9_set_order(pc)
          0x00646f44      544f           addq.w 0x2, a7
          0x00646f46      4a290020       tst.b 0x20(a1)
      < 0x00646f4a      664c           bne.b 0x646f98
         0x00646f4c      594f           subq.w 0x4, a7
         0x00646f4e      4ebac346       jsr K9_LIBRARY.display_max(pc)
         0x00646f52      7e01           moveq 0x1, d7
         0x00646f54      be97           cmp.l (a7), d7
     < 0x00646f56      620c           bhi.b 0x646f64
        0x00646f58      2417           move.l (a7), d2
        0x00646f5a      0c820000ffff   cmpi.l 0xffff, d2
    < 0x00646f60      6302           bls.b 0x646f64
       0x00646f62      4e4f           trap 0xf
   > 0x00646f64      be6f0002       cmp.w 0x2(a7), d7
    < 0x00646f68      6228           bhi.b 0x646f92
       0x00646f6a      02870000ffff   andi.l 0xffff, d7
       0x00646f70      2407           move.l d7, d2
       0x00646f72      5382           subq.l 0x1, d2
       0x00646f74      0c820000000b   cmpi.l 0xb, d2
   < 0x00646f7a      6302           bls.b 0x646f7e
      0x00646f7c      4e4f           trap 0xf
   > 0x00646f7e      2802           move.l d2, d4
       0x00646f80      761e           moveq 0x1e, d3
       0x00646f82      4eb900406a74   jsr fcn.00406a74
       0x00646f88      13bc00014861   move.b 0x1, 0x61(a1, d4.l)
       0x00646f8e      5247           addq.w 0x1, d7
   < 0x00646f90      64d2           bcc.b 0x646f64
     > 0x00646f92      584f           addq.w 0x4, a7
         0x00646f94      4ebadd42       jsr K9_LIBRARY.k9_redisplay(pc)
      > 0x00646f98      4cdf039f       movem.l (a7)+, d0-d4/d7/a0-a1
           0x00646f9c      4e5e           unlk a6
           0x00646f9e      4e75           rts
            ; CALL XREF from K9_LIBRARY.dispose_title @ 0x647106
            ; CALL XREF from fcn.00649db0 @ 0x649e02
 320: K9_LIBRARY.dispose_title_d ();
           0x00646fa0      4e56ffc2       link.w a6, 0xffc2
           0x00646fa4      bfd5           cmpa.l (a5), a7
       < 0x00646fa6      6206           bhi.b 0x646fae
          0x00646fa8      44fc0002       move.w 0x2, ccr
          0x00646fac      4e76           trapv
       > 0x00646fae      defc003c       adda.w 0x3c, a7
           0x00646fb2      48e7e1f8       movem.l d0-d2/d7/a0-a4, -(a7)
           0x00646fb6      47f900403b98   lea.l p_Dispos, a3
           0x00646fbc      49f80100       lea.l 0x100, a4
           0x00646fc0      7401           moveq 0x1, d2
           0x00646fc2      206e000c       movea.l 0xc(a6), a0
           0x00646fc6      b0c2           cmpa.w d2, a0
       < 0x00646fc8      6700010e       beq.w 0x6470d8
          0x00646fcc      b1e8fffc       cmpa.l -0x4(a0), a0
      < 0x00646fd0      6702           beq.b 0x646fd4
         0x00646fd2      4e4d           trap 0xd
      > 0x00646fd4      22680018       movea.l 0x18(a0), a1
          0x00646fd8      b2c2           cmpa.w d2, a1
      < 0x00646fda      6630           bne.b 0x64700c
         0x00646fdc      2468001c       movea.l 0x1c(a0), a2
         0x00646fe0      b4c2           cmpa.w d2, a2
     < 0x00646fe2      6628           bne.b 0x64700c
        0x00646fe4      24680020       movea.l 0x20(a0), a2
        0x00646fe8      b4c2           cmpa.w d2, a2
    < 0x00646fea      6620           bne.b 0x64700c
       0x00646fec      24680024       movea.l 0x24(a0), a2
       0x00646ff0      b4c2           cmpa.w d2, a2
   < 0x00646ff2      6618           bne.b 0x64700c
      0x00646ff4      24680038       movea.l 0x38(a0), a2
      0x00646ff8      b4c2           cmpa.w d2, a2
  < 0x00646ffa      6610           bne.b 0x64700c
     0x00646ffc      24680028       movea.l 0x28(a0), a2
     0x00647000      b4c2           cmpa.w d2, a2
 < 0x00647002      6608           bne.b 0x64700c
    0x00647004      2468002c       movea.l 0x2c(a0), a2
    0x00647008      b4c2           cmpa.w d2, a2
 < 0x0064700a      6706           beq.b 0x647012
 > 0x0064700c      246e0008       movea.l 0x8(a6), a2
          0x00647010      1482           move.b d2, (a2)
 > 0x00647012      b2c2           cmpa.w d2, a1
      < 0x00647014      670a           beq.b 0x647020
         0x00647016      48680018       pea.l 0x18(a0)
         0x0064701a      4854           pea.l (a4)
         0x0064701c      4e93           jsr (a3)                    ; fcn.0000000c
         0x0064701e      504f           addq.w 0x8, a7
      > 0x00647020      2268001c       movea.l 0x1c(a0), a1
          0x00647024      b2c2           cmpa.w d2, a1
      < 0x00647026      670a           beq.b 0x647032
         0x00647028      4868001c       pea.l 0x1c(a0)
         0x0064702c      4854           pea.l (a4)
         0x0064702e      4e93           jsr (a3)                    ; fcn.0000000c
         0x00647030      504f           addq.w 0x8, a7
      > 0x00647032      22680020       movea.l 0x20(a0), a1
          0x00647036      b2c2           cmpa.w d2, a1
      < 0x00647038      670a           beq.b 0x647044
         0x0064703a      48680020       pea.l 0x20(a0)
         0x0064703e      4854           pea.l (a4)
         0x00647040      4e93           jsr (a3)                    ; fcn.0000000c
         0x00647042      504f           addq.w 0x8, a7
      > 0x00647044      22680028       movea.l 0x28(a0), a1
          0x00647048      b2c2           cmpa.w d2, a1
      < 0x0064704a      670a           beq.b 0x647056
         0x0064704c      48680028       pea.l 0x28(a0)
         0x00647050      4854           pea.l (a4)
         0x00647052      4e93           jsr (a3)                    ; fcn.0000000c
         0x00647054      504f           addq.w 0x8, a7
      > 0x00647056      2268002c       movea.l 0x2c(a0), a1
          0x0064705a      b2c2           cmpa.w d2, a1
      < 0x0064705c      670a           beq.b 0x647068
         0x0064705e      4868002c       pea.l 0x2c(a0)
         0x00647062      4854           pea.l (a4)
         0x00647064      4e93           jsr (a3)                    ; fcn.0000000c
         0x00647066      504f           addq.w 0x8, a7
      > 0x00647068      22680030       movea.l 0x30(a0), a1
          0x0064706c      b2c2           cmpa.w d2, a1
      < 0x0064706e      670a           beq.b 0x64707a
         0x00647070      48680030       pea.l 0x30(a0)
         0x00647074      4854           pea.l (a4)
         0x00647076      4e93           jsr (a3)                    ; fcn.0000000c
         0x00647078      504f           addq.w 0x8, a7
      > 0x0064707a      22680024       movea.l 0x24(a0), a1
          0x0064707e      b2c2           cmpa.w d2, a1
      < 0x00647080      670a           beq.b 0x64708c
         0x00647082      48680024       pea.l 0x24(a0)
         0x00647086      4854           pea.l (a4)
         0x00647088      4e93           jsr (a3)                    ; fcn.0000000c
         0x0064708a      504f           addq.w 0x8, a7
      > 0x0064708c      22680038       movea.l 0x38(a0), a1
          0x00647090      b2c2           cmpa.w d2, a1
      < 0x00647092      670c           beq.b 0x6470a0
         0x00647094      48680038       pea.l 0x38(a0)
         0x00647098      48780400       pea.l 0x400
         0x0064709c      4e93           jsr (a3)                    ; fcn.0000000c
         0x0064709e      504f           addq.w 0x8, a7
      > 0x006470a0      7e0b           moveq 0xb, d7
      > 0x006470a2      4887           ext.w d7
         0x006470a4      3007           move.w d7, d0
         0x006470a6      0440000b       subi.w 0xb, d0
         0x006470aa      41bc0003       chk.w 0x3, d0
         0x006470ae      3200           move.w d0, d1
         0x006470b0      e541           asl.w 0x2, d1
         0x006470b2      22701058       movea.l 0x58(a0, d1.w), a1
         0x006470b6      b2c2           cmpa.w d2, a1
     < 0x006470b8      670a           beq.b 0x6470c4
        0x006470ba      48701058       pea.l 0x58(a0, d1.w)
        0x006470be      4854           pea.l (a4)
        0x006470c0      4e93           jsr (a3)                    ; fcn.0000000c
        0x006470c2      504f           addq.w 0x8, a7
     > 0x006470c4      42300054       clr.b 0x54(a0, d0.w)
         0x006470c8      5207           addq.b 0x1, d7
         0x006470ca      0c07000e       cmpi.b 0xe, d7
      < 0x006470ce      6fd2           ble.b 0x6470a2
          0x006470d0      02a8f184cfff.  andi.l 0xf184cfff, 0x14(a0)
       > 0x006470d8      4cdf1f87       movem.l (a7)+, d0-d2/d7/a0-a4
           0x006470dc      4e5e           unlk a6
           0x006470de      4e75           rts
            ; CALL XREF from K9_LIBRARY.add_to_list @ 0x647aac
            ; CALL XREF from K9_LIBRARY.check_dispose_t @ 0x649b52
 68: K9_LIBRARY.dispose_title ();
           0x006470e0      4e56ffea       link.w a6, 0xffea
           0x006470e4      bfd5           cmpa.l (a5), a7
       < 0x006470e6      6206           bhi.b 0x6470ee
          0x006470e8      44fc0002       move.w 0x2, ccr
          0x006470ec      4e76           trapv
       > 0x006470ee      defc0014       adda.w 0x14, a7
           0x006470f2      48e70080       movem.l a0, -(a7)
           0x006470f6      206e0008       movea.l 0x8(a6), a0
           0x006470fa      b0fc0001       cmpa.w 0x1, a0
       < 0x006470fe      671c           beq.b 0x64711c
          0x00647100      2f08           move.l a0, -(a7)
          0x00647102      486efffe       pea.l -0x2(a6)
          0x00647106      4ebafe98       jsr K9_LIBRARY.dispose_title_d(pc)
          0x0064710a      504f           addq.w 0x8, a7
          0x0064710c      486e0008       pea.l 0x8(a6)
          0x00647110      48780078       pea.l 0x78
          0x00647114      4eb900403b98   jsr p_Dispos
          0x0064711a      504f           addq.w 0x8, a7
       > 0x0064711c      4cdf0100       movem.l (a7)+, a0
           0x00647120      4e5e           unlk a6
           0x00647122      4e75           rts
            ; CALL XREF from K9_LIBRARY.display_item @ 0x64723e
 174: K9_LIBRARY.everything_cont ();
           0x00647124      4e56febe       link.w a6, 0xfebe
           0x00647128      bfd5           cmpa.l (a5), a7
       < 0x0064712a      6206           bhi.b 0x647132
          0x0064712c      44fc0002       move.w 0x2, ccr
          0x00647130      4e76           trapv
       > 0x00647132      defc0132       adda.w 0x132, a7
           0x00647136      48e7c0e0       movem.l d0-d1/a0-a2, -(a7)
           0x0064713a      45eefff0       lea.l -0x10(a6), a2
           0x0064713e      486efff9       pea.l -0x7(a6)
           0x00647142      486efffa       pea.l -0x6(a6)
           0x00647146      486efffb       pea.l -0x5(a6)
           0x0064714a      486efffc       pea.l -0x4(a6)
           0x0064714e      486efffd       pea.l -0x3(a6)
           0x00647152      486efffe       pea.l -0x2(a6)
           0x00647156      486efff8       pea.l -0x8(a6)
           0x0064715a      4852           pea.l (a2)
           0x0064715c      486efff4       pea.l -0xc(a6)
           0x00647160      4ebad76a       jsr K9_LIBRARY.get_continuatio(pc)
           0x00647164      defc0020       adda.w 0x20, a7
           0x00647168      4ebac12c       jsr K9_LIBRARY.display_max(pc)
           0x0064716c      2012           move.l (a2), d0
           0x0064716e      d09f           add.l (a7)+, d0
           0x00647170      2480           move.l d0, (a2)
           0x00647172      123900847e42   move.b 0x847e42, d1
           0x00647178      4881           ext.w d1
           0x0064717a      c3fc02d0       muls.w 0x2d0, d1
           0x0064717e      2f2efff4       move.l -0xc(a6), -(a7)
           0x00647182      2f00           move.l d0, -(a7)
           0x00647184      41f900847e32   lea.l 0x847e32, a0
           0x0064718a      2070101e       movea.l 0x1e(a0, d1.w), a0
           0x0064718e      b1e8fffc       cmpa.l -0x4(a0), a0
       < 0x00647192      6702           beq.b 0x647196
          0x00647194      4e4d           trap 0xd
       > 0x00647196      9efc0100       suba.w 0x100, a7
           0x0064719a      224f           movea.l a7, a1
           0x0064719c      41e80010       lea.l 0x10(a0), a0
           0x006471a0      303c00ff       move.w 0xff, d0
       > 0x006471a4      12d8           move.b (a0)+, (a1)+
       < 0x006471a6      51c8fffc       dbra d0, 0x6471a4
           0x006471aa      1f2e0008       move.b 0x8(a6), -(a7)
           0x006471ae      1f2efff9       move.b -0x7(a6), -(a7)
           0x006471b2      1f2efffa       move.b -0x6(a6), -(a7)
           0x006471b6      1f2efffd       move.b -0x3(a6), -(a7)
           0x006471ba      1f2efffe       move.b -0x2(a6), -(a7)
           0x006471be      1f2efff8       move.b -0x8(a6), -(a7)
           0x006471c2      4ebac1a0       jsr K9_LIBRARY.show_header(pc)
           0x006471c6      defc0114       adda.w 0x114, a7
           0x006471ca      4cdf0703       movem.l (a7)+, d0-d1/a0-a2
           0x006471ce      4e5e           unlk a6
           0x006471d0      4e75           rts
            ; CALL XREF from K9_LIBRARY.k9_show_title @ 0x64987a
 420: K9_LIBRARY.display_item ();
           0x006471d2      4e56feaa       link.w a6, 0xfeaa
           0x006471d6      bfd5           cmpa.l (a5), a7
       < 0x006471d8      6206           bhi.b 0x6471e0
          0x006471da      44fc0002       move.w 0x2, ccr
          0x006471de      4e76           trapv
       > 0x006471e0      defc0150       adda.w 0x150, a7
           0x006471e4      48e7fff8       movem.l d0-d7/a0-a4, -(a7)
           0x006471e8      49eefffc       lea.l -0x4(a6), a4
           0x006471ec      7401           moveq 0x1, d2
           0x006471ee      3a3c02d0       move.w 0x2d0, d5
           0x006471f2      7c0c           moveq 0xc, d6
           0x006471f4      554f           subq.w 0x2, a7
           0x006471f6      1f2e000c       move.b 0xc(a6), -(a7)
           0x006471fa      4854           pea.l (a4)
           0x006471fc      4ebad2a0       jsr K9_LIBRARY.alloc_display(pc)
           0x00647200      5c4f           addq.w 0x6, a7
           0x00647202      101f           move.b (a7)+, d0
           0x00647204      4400           neg.b d0
           0x00647206      5200           addq.b 0x1, d0
           0x00647208      4880           ext.w d0
           0x0064720a      4182           chk.w d2, d0
           0x0064720c      1e00           move.b d0, d7
           0x0064720e      103900847e42   move.b 0x847e42, d0
           0x00647214      4880           ext.w d0
           0x00647216      c1c5           muls.w d5, d0
           0x00647218      41f900847e32   lea.l 0x847e32, a0
           0x0064721e      41f00000       lea.l (a0, d0.w), a0
           0x00647222      4a2802dd       tst.b 0x2dd(a0)
       < 0x00647226      6700011a       beq.w 0x647342
          0x0064722a      4a07           tst.b d7
      < 0x0064722c      673a           beq.b 0x647268
         0x0064722e      1f280032       move.b 0x32(a0), -(a7)
         0x00647232      4227           clr.b -(a7)
         0x00647234      4eb90064b7b4   jsr K9_LIBRARY.k9_clear_screen
         0x0064723a      544f           addq.w 0x2, a7
         0x0064723c      4217           clr.b (a7)
         0x0064723e      4ebafee4       jsr K9_LIBRARY.everything_cont(pc)
         0x00647242      544f           addq.w 0x2, a7
         0x00647244      4ebadb60       jsr K9_LIBRARY.clear_display(pc)
         0x00647248      7e00           moveq 0x0, d7
         0x0064724a      554f           subq.w 0x2, a7
         0x0064724c      1f2e000c       move.b 0xc(a6), -(a7)
         0x00647250      4854           pea.l (a4)
         0x00647252      4ebad24a       jsr K9_LIBRARY.alloc_display(pc)
         0x00647256      5c4f           addq.w 0x6, a7
         0x00647258      1017           move.b (a7), d0
         0x0064725a      4880           ext.w d0
         0x0064725c      4182           chk.w d2, d0
         0x0064725e      1e80           move.b d0, (a7)
         0x00647260      4eb90040452a   jsr p_Assert
         0x00647266      544f           addq.w 0x2, a7
      > 0x00647268      2f2e0008       move.l 0x8(a6), -(a7)
          0x0064726c      2f2e000e       move.l 0xe(a6), -(a7)
          0x00647270      2f14           move.l (a4), -(a7)
          0x00647272      4ebadbb2       jsr K9_LIBRARY.add_to_display(pc)
          0x00647276      dec6           adda.w d6, a7
          0x00647278      103900847e42   move.b 0x847e42, d0
          0x0064727e      4880           ext.w d0
          0x00647280      c1c5           muls.w d5, d0
          0x00647282      43f900847e32   lea.l 0x847e32, a1
          0x00647288      43f10000       lea.l (a1, d0.w), a1
          0x0064728c      9efc0100       suba.w 0x100, a7
          0x00647290      2f2e0008       move.l 0x8(a6), -(a7)
          0x00647294      2014           move.l (a4), d0
          0x00647296      0c800000ffff   cmpi.l 0xffff, d0
      < 0x0064729c      6302           bls.b 0x6472a0
         0x0064729e      4e4f           trap 0xf
      > 0x006472a0      3f00           move.w d0, -(a7)
          0x006472a2      102902dc       move.b 0x2dc(a1), d0
          0x006472a6      4880           ext.w d0
          0x006472a8      41bc0011       chk.w 0x11, d0
          0x006472ac      1f00           move.b d0, -(a7)
          0x006472ae      102902de       move.b 0x2de(a1), d0
          0x006472b2      4880           ext.w d0
          0x006472b4      4182           chk.w d2, d0
          0x006472b6      1f00           move.b d0, -(a7)
          0x006472b8      4ebae560       jsr K9_LIBRARY.do_action(pc)
          0x006472bc      defc000a       adda.w 0xa, a7
          0x006472c0      45e901dc       lea.l 0x1dc(a1), a2
          0x006472c4      703f           moveq 0x3f, d0
      > 0x006472c6      24df           move.l (a7)+, (a2)+
      < 0x006472c8      51c8fffc       dbra d0, 0x6472c6
          0x006472cc      4240           clr.w d0
          0x006472ce      102901dc       move.b 0x1dc(a1), d0
      < 0x006472d2      6302           bls.b 0x6472d6
         0x006472d4      7000           moveq 0x0, d0
      > 0x006472d6      5300           subq.b 0x1, d0
      < 0x006472d8      6510           bcs.b 0x6472ea
         0x006472da      45e901dd       lea.l 0x1dd(a1), a2
         0x006472de      47fab223       lea.l 0x642503(pc), a3
     > 0x006472e2      b50b           cmpm.b (a3)+, (a2)+
     < 0x006472e4      56c8fffc       dbne d0, 0x6472e2
     < 0x006472e8      6604           bne.b 0x6472ee
     > 0x006472ea      102901dc       move.b 0x1dc(a1), d0
     < 0x006472ee      6702           beq.b 0x6472f2
         0x006472f0      7e01           moveq 0x1, d7
      > 0x006472f2      102902dc       move.b 0x2dc(a1), d0
          0x006472f6      4880           ext.w d0
          0x006472f8      45fab20a       lea.l 0x642504(pc), a2
          0x006472fc      3200           move.w d0, d1
          0x006472fe      e649           lsr.w 0x3, d1
          0x00647300      01321000       btst.l d0, (a2, d1.w)
      < 0x00647304      6750           beq.b 0x647356
         0x00647306      2014           move.l (a4), d0
         0x00647308      5380           subq.l 0x1, d0
         0x0064730a      0c800000000b   cmpi.l 0xb, d0
     < 0x00647310      6302           bls.b 0x647314
        0x00647312      4e4f           trap 0xf
     > 0x00647314      2800           move.l d0, d4
         0x00647316      761e           moveq 0x1e, d3
         0x00647318      4eb900406a74   jsr fcn.00406a74
         0x0064731e      103900847e42   move.b 0x847e42, d0
         0x00647324      4880           ext.w d0
         0x00647326      c1c5           muls.w d5, d0
         0x00647328      45f900847e32   lea.l 0x847e32, a2
         0x0064732e      45f20000       lea.l (a2, d0.w), a2
         0x00647332      15824873       move.b d2, 0x73(a2, d4.l)
         0x00647336      2f14           move.l (a4), -(a7)
         0x00647338      4227           clr.b -(a7)
         0x0064733a      4ebacbfc       jsr K9_LIBRARY.display_title_b(pc)
         0x0064733e      5c4f           addq.w 0x6, a7
     < 0x00647340      6014           bra.b 0x647356
     > 0x00647342      4a07           tst.b d7
     < 0x00647344      6610           bne.b 0x647356
        0x00647346      2f2e0008       move.l 0x8(a6), -(a7)
        0x0064734a      2f2e000e       move.l 0xe(a6), -(a7)
        0x0064734e      2f14           move.l (a4), -(a7)
        0x00647350      4ebadad4       jsr K9_LIBRARY.add_to_display(pc)
        0x00647354      dec6           adda.w d6, a7
     > 0x00647356      554f           subq.w 0x2, a7
           0x00647358      2f2e000e       move.l 0xe(a6), -(a7)
           0x0064735c      4ebad1d8       jsr K9_LIBRARY.lists_joined(pc)
           0x00647360      584f           addq.w 0x4, a7
           0x00647362      1007           move.b d7, d0
           0x00647364      801f           or.b (a7)+, d0
           0x00647366      4880           ext.w d0
           0x00647368      4182           chk.w d2, d0
           0x0064736a      1d400012       move.b d0, 0x12(a6)
           0x0064736e      4cdf1fff       movem.l (a7)+, d0-d7/a0-a4
           0x00647372      4e5e           unlk a6
           0x00647374      4e75           rts
            ; CALL XREF from loc.006478c0 @ 0x6478f2
            ; CALL XREF from K9_LIBRARY.blank_string @ 0x647d3a
 288: K9_LIBRARY.may_allocate_st ();
           ; var int32_t var_ah @ a7+0xa
           0x00647376      4e56ffbc       link.w a6, 0xffbc
           0x0064737a      bfd5           cmpa.l (a5), a7
       < 0x0064737c      6206           bhi.b 0x647384
          0x0064737e      44fc0002       move.w 0x2, ccr
          0x00647382      4e76           trapv
       > 0x00647384      defc0040       adda.w 0x40, a7
           0x00647388      48e7e1f8       movem.l d0-d2/d7/a0-a4, -(a7)
           0x0064738c      49f9004047ea   lea.l p_wts_o, a4
           0x00647392      7201           moveq 0x1, d1
           0x00647394      740c           moveq 0xc, d2
           0x00647396      4a2e0112       tst.b 0x112(a6)
       < 0x0064739a      670000b0       beq.w 0x64744c
          0x0064739e      206e010a       movea.l 0x10a(a6), a0
          0x006473a2      2250           movea.l (a0), a1
          0x006473a4      b2c1           cmpa.w d1, a1
      < 0x006473a6      670e           beq.b 0x6473b6
         0x006473a8      4850           pea.l (a0)
         0x006473aa      48780100       pea.l 0x100
         0x006473ae      4eb900403b98   jsr p_Dispos
         0x006473b4      504f           addq.w 0x8, a7
      > 0x006473b6      226e010e       movea.l 0x10e(a6), a1
          0x006473ba      4240           clr.w d0
          0x006473bc      1011           move.b (a1), d0
      < 0x006473be      6302           bls.b 0x6473c2
         0x006473c0      7000           moveq 0x0, d0
      > 0x006473c2      5300           subq.b 0x1, d0
      < 0x006473c4      6510           bcs.b 0x6473d6
         0x006473c6      45e90001       lea.l 0x1(a1), a2
         0x006473ca      47fab156       lea.l 0x642522(pc), a3
     > 0x006473ce      b50b           cmpm.b (a3)+, (a2)+
     < 0x006473d0      56c8fffc       dbne d0, 0x6473ce
     < 0x006473d4      6602           bne.b 0x6473d8
     > 0x006473d6      1011           move.b (a1), d0
     < 0x006473d8      660a           bne.b 0x6473e4
         0x006473da      4a2e0008       tst.b 0x8(a6)
     < 0x006473de      6704           beq.b 0x6473e4
        0x006473e0      2081           move.l d1, (a0)
    < 0x006473e2      6068           bra.b 0x64744c
    > 0x006473e4      4280           clr.l d0
         0x006473e6      1011           move.b (a1), d0
         0x006473e8      5280           addq.l 0x1, d0
         0x006473ea      4850           pea.l (a0)
         0x006473ec      2f00           move.l d0, -(a7)
         0x006473ee      4eb900403a92   jsr p_New
         0x006473f4      504f           addq.w 0x8, a7
         0x006473f6      2450           movea.l (a0), a2
         0x006473f8      b4c1           cmpa.w d1, a2
     < 0x006473fa      6650           bne.b 0x64744c
        0x006473fc      487ab125       pea.l 0x642523(pc)
        0x00647400      48780015       pea.l 0x15
        0x00647404      2f17           move.l (a7), -(a7)
        0x00647406      4e94           jsr (a4)                    ; fcn.0000000d
        0x00647408      504f           addq.w 0x8, a7
        0x0064740a      2e80           move.l d0, (a7)
        0x0064740c      48780000       pea.l 0x0
        0x00647410      4eb9004070e4   jsr p_wti_o
        0x00647416      504f           addq.w 0x8, a7
        0x00647418      487ab11f       pea.l 0x642539(pc)
        0x0064741c      48780008       pea.l 0x8
        0x00647420      2f17           move.l (a7), -(a7)
        0x00647422      4e94           jsr (a4)                    ; fcn.0000000d
        0x00647424      dec2           adda.w d2, a7
        0x00647426      486e000b       pea.l 0xb(a6)
        0x0064742a      42a7           clr.l -(a7)
        0x0064742c      1f6e000a0003   move.b 0xa(a6), 0x3(a7)
        0x00647432      2f17           move.l (a7), -(a7)
        0x00647434      4e94           jsr (a4)                    ; fcn.0000000d
        0x00647436      dec2           adda.w d2, a7
        0x00647438      487ab108       pea.l 0x642542(pc)
        0x0064743c      4878001b       pea.l 0x1b
        0x00647440      2f17           move.l (a7), -(a7)
        0x00647442      4e94           jsr (a4)                    ; fcn.0000000d
        0x00647444      dec2           adda.w d2, a7
        0x00647446      4eb900404946   jsr p_wtln_o
    > 0x0064744c      206e010a       movea.l 0x10a(a6), a0
           0x00647450      2050           movea.l (a0), a0
           0x00647452      b0c1           cmpa.w d1, a0
       < 0x00647454      6738           beq.b 0x64748e
          0x00647456      206e010a       movea.l 0x10a(a6), a0
          0x0064745a      226e010e       movea.l 0x10e(a6), a1
          0x0064745e      246e010e       movea.l 0x10e(a6), a2
          0x00647462      4280           clr.l d0
          0x00647464      1012           move.b (a2), d0
          0x00647466      2f00           move.l d0, -(a7)
          0x00647468      7e00           moveq 0x0, d7
      > 0x0064746a      be97           cmp.l (a7), d7
     < 0x0064746c      6e1e           bgt.b 0x64748c
        0x0064746e      0c87000000ff   cmpi.l 0xff, d7
    < 0x00647474      6302           bls.b 0x647478
       0x00647476      4e4f           trap 0xf
    > 0x00647478      2450           movea.l (a0), a2
        0x0064747a      b5eafffc       cmpa.l -0x4(a2), a2
    < 0x0064747e      6702           beq.b 0x647482
       0x00647480      4e4d           trap 0xd
    > 0x00647482      15b178007800   move.b (a1, d7.l), (a2, d7.l)
        0x00647488      5287           addq.l 0x1, d7
     < 0x0064748a      68de           bvc.b 0x64746a
     > 0x0064748c      584f           addq.w 0x4, a7
       > 0x0064748e      4cdf1f87       movem.l (a7)+, d0-d2/d7/a0-a4
           0x00647492      4e5e           unlk a6
           0x00647494      4e75           rts
 110: K9_LIBRARY.get_string ();
           0x00647496      4e56ffd4       link.w a6, 0xffd4
           0x0064749a      bfd5           cmpa.l (a5), a7
       < 0x0064749c      6206           bhi.b 0x6474a4
          0x0064749e      44fc0002       move.w 0x2, ccr
          0x006474a2      4e76           trapv
       > 0x006474a4      defc0028       adda.w 0x28, a7
           0x006474a8      48e781e0       movem.l d0/d7/a0-a2, -(a7)
           0x006474ac      206e0008       movea.l 0x8(a6), a0
           0x006474b0      10bab0ab       move.b 0x64255d(pc), (a0)
           0x006474b4      206e000c       movea.l 0xc(a6), a0
           0x006474b8      b0fc0001       cmpa.w 0x1, a0
       < 0x006474bc      673e           beq.b 0x6474fc
          0x006474be      226e0008       movea.l 0x8(a6), a1
          0x006474c2      b1e8fffc       cmpa.l -0x4(a0), a0
      < 0x006474c6      6702           beq.b 0x6474ca
         0x006474c8      4e4d           trap 0xd
      > 0x006474ca      1010           move.b (a0), d0
          0x006474cc      0280000000ff   andi.l 0xff, d0
          0x006474d2      2f00           move.l d0, -(a7)
          0x006474d4      7e00           moveq 0x0, d7
      > 0x006474d6      be97           cmp.l (a7), d7
     < 0x006474d8      6e20           bgt.b 0x6474fa
        0x006474da      0c87000000ff   cmpi.l 0xff, d7
    < 0x006474e0      6302           bls.b 0x6474e4
       0x006474e2      4e4f           trap 0xf
    > 0x006474e4      246e000c       movea.l 0xc(a6), a2
        0x006474e8      b5eafffc       cmpa.l -0x4(a2), a2
    < 0x006474ec      6702           beq.b 0x6474f0
       0x006474ee      4e4d           trap 0xd
    > 0x006474f0      13b278007800   move.b (a2, d7.l), (a1, d7.l)
        0x006474f6      5287           addq.l 0x1, d7
     < 0x006474f8      68dc           bvc.b 0x6474d6
     > 0x006474fa      584f           addq.w 0x4, a7
       > 0x006474fc      4cdf0781       movem.l (a7)+, d0/d7/a0-a2
           0x00647500      4e5e           unlk a6
           0x00647502      4e75           rts
            ; CALL XREF from K9_LIBRARY.file_number_str @ 0x6475c8
 118: K9_LIBRARY.num_str ();
           0x00647504      4e56ffca       link.w a6, 0xffca
           0x00647508      bfd5           cmpa.l (a5), a7
       < 0x0064750a      6206           bhi.b 0x647512
          0x0064750c      44fc0002       move.w 0x2, ccr
          0x00647510      4e76           trapv
       > 0x00647512      defc002c       adda.w 0x2c, a7
           0x00647516      48e7d9c0       movem.l d0-d1/d3-d4/d7/a0-a1, -(a7)
           0x0064751a      7e08           moveq 0x8, d7
       > 0x0064751c      02870000ffff   andi.l 0xffff, d7
          0x00647522      2007           move.l d7, d0
          0x00647524      5380           subq.l 0x1, d0
          0x00647526      0c8000000007   cmpi.l 0x7, d0
      < 0x0064752c      6302           bls.b 0x647530
         0x0064752e      4e4f           trap 0xf
      > 0x00647530      282e0008       move.l 0x8(a6), d4
          0x00647534      7610           moveq 0x10, d3
          0x00647536      4eb900406b50   jsr fcn.00406b50
          0x0064753c      7230           moveq 0x30, d1
          0x0064753e      d243           add.w d3, d1
          0x00647540      1d8108f6       move.b d1, -0xa(a6, d0.l)
          0x00647544      2d440008       move.l d4, 0x8(a6)
          0x00647548      5347           subq.w 0x1, d7
          0x0064754a      4a47           tst.w d7
       < 0x0064754c      62ce           bhi.b 0x64751c
           0x0064754e      9efc000a       suba.w 0xa, a7
           0x00647552      1ebc0008       move.b 0x8, (a7)
           0x00647556      41ef0001       lea.l 0x1(a7), a0
           0x0064755a      43eefff6       lea.l -0xa(a6), a1
           0x0064755e      7007           moveq 0x7, d0
       > 0x00647560      10d9           move.b (a1)+, (a0)+
       < 0x00647562      51c8fffc       dbra d0, 0x647560
           0x00647566      2d5f000c       move.l (a7)+, 0xc(a6)
           0x0064756a      2d5f0010       move.l (a7)+, 0x10(a6)
           0x0064756e      1d5f0014       move.b (a7)+, 0x14(a6)
           0x00647572      4cdf039b       movem.l (a7)+, d0-d1/d3-d4/d7/a0-a1
           0x00647576      4e5e           unlk a6
           0x00647578      4e75           rts
            ; CALL XREF from K9_LIBRARY @ +0x5f6c
 160: K9_LIBRARY.file_number_str ();
           ; var int32_t var_16h @ a6-0x16
           ; var int32_t var_12h @ a6-0x12
           ; var int32_t var_eh @ a6-0xe
           ; var int32_t var_ah @ a6-0xa
           0x0064757a      4e56ffac       link.w a6, 0xffac
           0x0064757e      bfd5           cmpa.l (a5), a7
       < 0x00647580      6206           bhi.b 0x647588
          0x00647582      44fc0002       move.w 0x2, ccr
          0x00647586      4e76           trapv
       > 0x00647588      defc003a       adda.w 0x3a, a7
           0x0064758c      48e7f0e0       movem.l d0-d3/a0-a2, -(a7)
           0x00647590      45eeffe6       lea.l -0x1a(a6), a2
           0x00647594      7612           moveq 0x12, d3
           0x00647596      206e0008       movea.l 0x8(a6), a0
           0x0064759a      b1e8fffc       cmpa.l -0x4(a0), a0
       < 0x0064759e      6702           beq.b 0x6475a2
          0x006475a0      4e4d           trap 0xd
       > 0x006475a2      1028004c       move.b 0x4c(a0), d0
           0x006475a6      0c00000a       cmpi.b 0xa, d0
       < 0x006475aa      6606           bne.b 0x6475b2
          0x006475ac      34baafb0       move.w 0x64255e(pc), (a2)
      < 0x006475b0      6010           bra.b 0x6475c2
      > 0x006475b2      0c00000c       cmpi.b 0xc, d0
      < 0x006475b6      6606           bne.b 0x6475be
         0x006475b8      34baafa6       move.w 0x642560(pc), (a2)
     < 0x006475bc      6004           bra.b 0x6475c2
     > 0x006475be      34baafa2       move.w 0x642562(pc), (a2)
     > 0x006475c2      9ec3           suba.w d3, a7
           0x006475c4      2f28004e       move.l 0x4e(a0), -(a7)
           0x006475c8      4ebaff3a       jsr K9_LIBRARY.num_str(pc)
           0x006475cc      584f           addq.w 0x4, a7
           0x006475ce      4240           clr.w d0
           0x006475d0      1012           move.b (a2), d0
           0x006475d2      41f600e7       lea.l -0x19(a6, d0.w), a0
           0x006475d6      4241           clr.w d1
           0x006475d8      1217           move.b (a7), d1
           0x006475da      7410           moveq 0x10, d2
           0x006475dc      9440           sub.w d0, d2
           0x006475de      b242           cmp.w d2, d1
       < 0x006475e0      6302           bls.b 0x6475e4
          0x006475e2      3202           move.w d2, d1
       > 0x006475e4      d312           add.b d1, (a2)
           0x006475e6      5301           subq.b 0x1, d1
       < 0x006475e8      650a           bcs.b 0x6475f4
          0x006475ea      43ef0001       lea.l 0x1(a7), a1
      > 0x006475ee      10d9           move.b (a1)+, (a0)+
      < 0x006475f0      51c9fffc       dbra d1, 0x6475ee
       > 0x006475f4      dec3           adda.w d3, a7
           0x006475f6      2d52000c       move.l (a2), 0xc(a6)
           0x006475fa      2d6effea0010   move.l -0x16(a6), 0x10(a6)
           0x00647600      2d6effee0014   move.l -0x12(a6), 0x14(a6)
           0x00647606      2d6efff20018   move.l -0xe(a6), 0x18(a6)
           0x0064760c      1d6efff6001c   move.b -0xa(a6), 0x1c(a6)
           0x00647612      4cdf070f       movem.l (a7)+, d0-d3/a0-a2
           0x00647616      4e5e           unlk a6
           0x00647618      4e75           rts
            ; CALL XREF from K9_LIBRARY.add_to_list @ 0x647a8e
 146: K9_LIBRARY.find_entry ();
           0x0064761a      4e56ffc4       link.w a6, 0xffc4
           0x0064761e      bfd5           cmpa.l (a5), a7
       < 0x00647620      6206           bhi.b 0x647628
          0x00647622      44fc0002       move.w 0x2, ccr
          0x00647626      4e76           trapv
       > 0x00647628      defc003a       adda.w 0x3a, a7
           0x0064762c      48e7e1f0       movem.l d0-d2/d7/a0-a3, -(a7)
           0x00647630      7e00           moveq 0x0, d7
           0x00647632      206e0008       movea.l 0x8(a6), a0
           0x00647636      102e000e       move.b 0xe(a6), d0
           0x0064763a      4880           ext.w d0
           0x0064763c      e540           asl.w 0x2, d0
           0x0064763e      122e0010       move.b 0x10(a6), d1
           0x00647642      4881           ext.w d1
           0x00647644      e741           asl.w 0x3, d1
           0x00647646      226c000a       movea.l 0xa(a4), a1
           0x0064764a      b3e9fffc       cmpa.l -0x4(a1), a1
       < 0x0064764e      6702           beq.b 0x647652
          0x00647650      4e4d           trap 0xd
       > 0x00647652      43f11000       lea.l (a1, d1.w), a1
           0x00647656      20b10008       move.l 0x8(a1, d0.w), (a0)
           0x0064765a      102e000c       move.b 0xc(a6), d0
           0x0064765e      4880           ext.w d0
           0x00647660      e540           asl.w 0x2, d0
           0x00647662      206c0014       movea.l 0x14(a4), a0
           0x00647666      226e0008       movea.l 0x8(a6), a1
       > 0x0064766a      2451           movea.l (a1), a2
          0x0064766c      b4fc0001       cmpa.w 0x1, a2
      < 0x00647670      672e           beq.b 0x6476a0
         0x00647672      4a07           tst.b d7
     < 0x00647674      662a           bne.b 0x6476a0
        0x00647676      7200           moveq 0x0, d1
        0x00647678      b5eafffc       cmpa.l -0x4(a2), a2
    < 0x0064767c      6702           beq.b 0x647680
       0x0064767e      4e4d           trap 0xd
    > 0x00647680      2650           movea.l (a0), a3
        0x00647682      b7ebfffc       cmpa.l -0x4(a3), a3
    < 0x00647686      6702           beq.b 0x64768a
       0x00647688      4e4d           trap 0xd
    > 0x0064768a      242a000c       move.l 0xc(a2), d2
        0x0064768e      b4ab000c       cmp.l 0xc(a3), d2
    < 0x00647692      6602           bne.b 0x647696
       0x00647694      5201           addq.b 0x1, d1
    > 0x00647696      1e01           move.b d1, d7
    < 0x00647698      6604           bne.b 0x64769e
       0x0064769a      22b20000       move.l (a2, d0.w), (a1)
    < 0x0064769e      60ca           bra.b 0x64766a
     > 0x006476a0      1d470012       move.b d7, 0x12(a6)
           0x006476a4      4cdf0f87       movem.l (a7)+, d0-d2/d7/a0-a3
           0x006476a8      4e5e           unlk a6
           0x006476aa      4e75           rts
            ; CALL XREF from K9_LIBRARY.add_to_list @ 0x647ada
 120: K9_LIBRARY.add_entry (int32_t arg_4h);
           ; var int32_t var_535eh @ a6-0x535e
           ; arg int32_t arg_4h @ a6+0x4
           0x006476ac      4e56fd94       link.w a6, 0xfd94
           0x006476b0      bfd5           cmpa.l (a5), a7
       < 0x006476b2      6206           bhi.b 0x6476ba
          0x006476b4      44fc0002       move.w 0x2, ccr
          0x006476b8      4e76           trapv
       > 0x006476ba      defc0148       adda.w 0x148, a7
           0x006476be      48e7fff0       movem.l d0-d7/a0-a3, -(a7)
           0x006476c2      7801           moveq 0x1, d4
           0x006476c4      7a12           moveq 0x12, d5
           0x006476c6      7c07           moveq 0x7, d6
           0x006476c8      206c000a       movea.l 0xa(a4), a0
           0x006476cc      b1e8fffc       cmpa.l -0x4(a0), a0
       < 0x006476d0      6702           beq.b 0x6476d4
          0x006476d2      4e4d           trap 0xd
       > 0x006476d4      2f08           move.l a0, -(a7)
           0x006476d6      103900847e42   move.b 0x847e42, d0
           0x006476dc      4880           ext.w d0
           0x006476de      c1fc02d0       muls.w 0x2d0, d0
           0x006476e2      43f900847e32   lea.l 0x847e32, a1
           0x006476e8      43f10000       lea.l (a1, d0.w), a1
           0x006476ec      4a2902e1       tst.b 0x2e1(a1)
       < 0x006476f0      67000300       beq.w 0x6479f2
          0x006476f4      102902e1       move.b 0x2e1(a1), d0
          0x006476f8      b006           cmp.b d6, d0
      < 0x006476fa      6d12           blt.b 0x64770e
         0x006476fc      b006           cmp.b d6, d0
     < 0x006476fe      670000ac       beq.w 0x6477ac
        0x00647702      0c000013       cmpi.b 0x13, d0
    < 0x00647706      67000110       beq.w 0x647818
   < 0x0064770a      600001b4       bra.w loc.006478c0
   > 0x0064770e      4880           ext.w d0
       0x00647710      5340           subq.w 0x1, d0
       0x00647712      0c400003       cmpi.w 0x3, d0
   < 0x00647716      620001a8       bhi.w loc.006478c0
      0x0064771a      d040           add.w d0, d0
      0x0064771c      303b0006       move.w 0x647724(pc, d0.w), d0
      0x00647720      4efb0002       jmp 0x647724(pc, d0.w)
       0x00647724      0008012c       
       0x00647725      08012c01       
       0x00647726      012c0164       btst.l d0, 0x164(a4)
       0x0064772a      00ae246c0014.  ori.l 0x246c0014, -0x6104(a6)
       0x00647732      0100           btst.l d0, d0
       0x00647734      2052           movea.l (a2), a0
       0x00647736      b1e8fffc       cmpa.l -0x4(a0), a0
   < 0x0064773a      6702           beq.b 0x64773e
      0x0064773c      4e4d           trap 0xd
   > 0x0064773e      20680018       movea.l 0x18(a0), a0
       0x00647742      b1e8fffc       cmpa.l -0x4(a0), a0
   < 0x00647746      6702           beq.b 0x64774a
      0x00647748      4e4d           trap 0xd
   > 0x0064774a      4850           pea.l (a0)
       0x0064774c      4eb900409308   jsr p_sort_string
       0x00647752      584f           addq.w 0x4, a7
       0x00647754      41eefee6       lea.l -0x11a(a6), a0
       0x00647758      703f           moveq 0x3f, d0
   > 0x0064775a      20df           move.l (a7)+, (a0)+
   < 0x0064775c      51c8fffc       dbra d0, 0x64775a
       0x00647760      9ec5           suba.w d5, a7
       0x00647762      2f12           move.l (a2), -(a7)
       0x00647764      4ebafe14       jsr K9_LIBRARY.file_number_str(pc)
       0x00647768      584f           addq.w 0x4, a7
       0x0064776a      4240           clr.w d0
       0x0064776c      102efee6       move.b -0x11a(a6), d0
       0x00647770      41eefee7       lea.l -0x119(a6), a0
       0x00647774      d0c0           adda.w d0, a0
       0x00647776      4241           clr.w d1
       0x00647778      1217           move.b (a7), d1
       0x0064777a      d200           add.b d0, d1
   < 0x0064777c      6406           bcc.b 0x647784
      0x0064777e      4eb900406c8a   jsr p_strovr
   > 0x00647784      4241           clr.w d1
       0x00647786      1217           move.b (a7), d1
       0x00647788      343c00ff       move.w 0xff, d2
       0x0064778c      9440           sub.w d0, d2
       0x0064778e      b242           cmp.w d2, d1
   < 0x00647790      6302           bls.b 0x647794
      0x00647792      3202           move.w d2, d1
   > 0x00647794      d32efee6       add.b d1, -0x11a(a6)
       0x00647798      5301           subq.b 0x1, d1
   < 0x0064779a      650a           bcs.b 0x6477a6
      0x0064779c      45ef0001       lea.l 0x1(a7), a2
  > 0x006477a0      10da           move.b (a2)+, (a0)+
  < 0x006477a2      51c9fffc       dbra d1, 0x6477a0
   > 0x006477a6      dec5           adda.w d5, a7
   < 0x006477a8      6000011c       bra.w 0x6478c6              ; loc.006478c0+0x6
   > 0x006477ac      9ec5           suba.w d5, a7
       0x006477ae      246c0014       movea.l 0x14(a4), a2
       0x006477b2      2f12           move.l (a2), -(a7)
       0x006477b4      4ebafdc4       jsr K9_LIBRARY.file_number_str(pc)
       0x006477b8      584f           addq.w 0x4, a7
       0x006477ba      2d5ffee6       move.l (a7)+, -0x11a(a6)
       0x006477be      2d5ffeea       move.l (a7)+, -0x116(a6)
       0x006477c2      2d5ffeee       move.l (a7)+, -0x112(a6)
       0x006477c6      2d5ffef2       move.l (a7)+, -0x10e(a6)
       0x006477ca      1d5ffef6       move.b (a7)+, -0x10a(a6)
   < 0x006477ce      600000f6       bra.w 0x6478c6              ; loc.006478c0+0x6
      0x006477d2      246c0014       movea.l 0x14(a4), a2
      0x006477d6      2452           movea.l (a2), a2
      0x006477d8      b5eafffc       cmpa.l -0x4(a2), a2
  < 0x006477dc      6702           beq.b 0x6477e0
     0x006477de      4e4d           trap 0xd
  > 0x006477e0      41eefff7       lea.l -0x9(a6), a0
      0x006477e4      45ea003c       lea.l 0x3c(a2), a2
      0x006477e8      7007           moveq 0x7, d0
  > 0x006477ea      10da           move.b (a2)+, (a0)+
  < 0x006477ec      51c8fffc       dbra d0, 0x6477ea
      0x006477f0      9efc000a       suba.w 0xa, a7
      0x006477f4      1ebc0008       move.b 0x8, (a7)
      0x006477f8      41ef0001       lea.l 0x1(a7), a0
      0x006477fc      45eefff7       lea.l -0x9(a6), a2
      0x00647800      7007           moveq 0x7, d0
  > 0x00647802      10da           move.b (a2)+, (a0)+
  < 0x00647804      51c8fffc       dbra d0, 0x647802
      ; CODE XREF from K9_LIBRARY @ +0x6006
  > 0x00647808      2d5ffee6       move.l (a7)+, -0x11a(a6)
     0x0064780c      2d5ffeea       move.l (a7)+, -0x116(a6)
     0x00647810      1d5ffeee       move.b (a7)+, -0x112(a6)
  < 0x00647814      600000b0       bra.w 0x6478c6              ; loc.006478c0+0x6
  > 0x00647818      246c0014       movea.l 0x14(a4), a2
      0x0064781c      2452           movea.l (a2), a2
      0x0064781e      b5eafffc       cmpa.l -0x4(a2), a2
  < 0x00647822      6702           beq.b 0x647826
     0x00647824      4e4d           trap 0xd
  > 0x00647826      41eefff7       lea.l -0x9(a6), a0
      0x0064782a      45ea0044       lea.l 0x44(a2), a2
      0x0064782e      7007           moveq 0x7, d0
  > 0x00647830      10da           move.b (a2)+, (a0)+
  < 0x00647832      51c8fffc       dbra d0, 0x647830
      0x00647836      9efc000a       suba.w 0xa, a7
      0x0064783a      1ebc0008       move.b 0x8, (a7)
      0x0064783e      41ef0001       lea.l 0x1(a7), a0
      0x00647842      45eefff7       lea.l -0x9(a6), a2
      0x00647846      7007           moveq 0x7, d0
  > 0x00647848      10da           move.b (a2)+, (a0)+
  < 0x0064784a      51c8fffc       dbra d0, 0x647848
  < 0x0064784e      60b8           bra.b 0x647808
       0x00647850      246c0014       movea.l 0x14(a4), a2
       0x00647854      2452           movea.l (a2), a2
       0x00647856      b5eafffc       cmpa.l -0x4(a2), a2
   < 0x0064785a      6702           beq.b 0x64785e
      0x0064785c      4e4d           trap 0xd
   > 0x0064785e      2f2a001c       move.l 0x1c(a2), -(a7)
       0x00647862      486efee6       pea.l -0x11a(a6)
       0x00647866      4ebafc2e       jsr K9_LIBRARY.get_string(pc)
       0x0064786a      9efc00f8       suba.w 0xf8, a7
       0x0064786e      486efee6       pea.l -0x11a(a6)
       0x00647872      4eb900409308   jsr p_sort_string
       0x00647878      584f           addq.w 0x4, a7
       0x0064787a      45eefee6       lea.l -0x11a(a6), a2
       0x0064787e      703f           moveq 0x3f, d0
   > 0x00647880      24df           move.l (a7)+, (a2)+
   < 0x00647882      51c8fffc       dbra d0, 0x647880
   < 0x00647886      603e           bra.b 0x6478c6              ; loc.006478c0+0x6
      0x00647888      246c0014       movea.l 0x14(a4), a2
      0x0064788c      2452           movea.l (a2), a2
      0x0064788e      b5eafffc       cmpa.l -0x4(a2), a2
  < 0x00647892      6702           beq.b 0x647896
     0x00647894      4e4d           trap 0xd
  > 0x00647896      2f2a0020       move.l 0x20(a2), -(a7)
      0x0064789a      486efee6       pea.l -0x11a(a6)
      0x0064789e      4ebafbf6       jsr K9_LIBRARY.get_string(pc)
      0x006478a2      9efc00f8       suba.w 0xf8, a7
      0x006478a6      486efee6       pea.l -0x11a(a6)
      0x006478aa      4eb900409308   jsr p_sort_string
      0x006478b0      584f           addq.w 0x4, a7
      0x006478b2      45eefee6       lea.l -0x11a(a6), a2
      0x006478b6      703f           moveq 0x3f, d0
  > 0x006478b8      24df           move.l (a7)+, (a2)+
  < 0x006478ba      51c8fffc       dbra d0, 0x6478b8
  < 0x006478be      6006           bra.b 0x6478c6              ; loc.006478c0+0x6
     ; CODE XREF from K9_LIBRARY.add_entry @ 0x64770a
 306: loc.006478c0 (int32_t arg_4h);
    ; var int32_t var_535eh @ a6-0x535e
    ; arg int32_t arg_4h @ a6+0x4
 > 0x006478c0      1d7aaca2fee6   move.b 0x642564(pc), -0x11a(a6)
      ; CODE XREFS from K9_LIBRARY @ +0x5f86, +0x5fcc
 > 0x006478c6      1f04           move.b d4, -(a7)
          0x006478c8      486efee6       pea.l -0x11a(a6)
          0x006478cc      246c0014       movea.l 0x14(a4), a2
          0x006478d0      2452           movea.l (a2), a2
          0x006478d2      b5eafffc       cmpa.l -0x4(a2), a2
      < 0x006478d6      6702           beq.b 0x6478da
         0x006478d8      4e4d           trap 0xd
      > 0x006478da      486a0030       pea.l 0x30(a2)
          0x006478de      9efc0100       suba.w 0x100, a7
          0x006478e2      244f           movea.l a7, a2
          0x006478e4      41faac7f       lea.l 0x642565(pc), a0
          0x006478e8      7004           moveq 0x4, d0
      > 0x006478ea      14d8           move.b (a0)+, (a2)+
      < 0x006478ec      51c8fffc       dbra d0, 0x6478ea
          0x006478f0      4227           clr.b -(a7)
          0x006478f2      4ebafa82       jsr K9_LIBRARY.may_allocate_st(pc)
          0x006478f6      defc010c       adda.w 0x10c, a7
          0x006478fa      7e00           moveq 0x0, d7
          0x006478fc      2057           movea.l (a7), a0
          0x006478fe      26680008       movea.l 0x8(a0), a3
          0x00647902      b6c4           cmpa.w d4, a3
      < 0x00647904      6606           bne.b 0x64790c
         0x00647906      2d44fede       move.l d4, -0x122(a6)
     < 0x0064790a      600e           bra.b 0x64791a
     > 0x0064790c      b7ebfffc       cmpa.l -0x4(a3), a3
     < 0x00647910      6702           beq.b 0x647914
        0x00647912      4e4d           trap 0xd
     > 0x00647914      2d6b0004fede   move.l 0x4(a3), -0x122(a6)
     > 0x0064791a      246c0014       movea.l 0x14(a4), a2
          0x0064791e      2f0a           move.l a2, -(a7)
          0x00647920      2f09           move.l a1, -(a7)
      > 0x00647922      206f0008       movea.l 0x8(a7), a0
         0x00647926      2257           movea.l (a7), a1
         0x00647928      246f0004       movea.l 0x4(a7), a2
         0x0064792c      b6c4           cmpa.w d4, a3
     < 0x0064792e      6604           bne.b 0x647934
        0x00647930      504f           addq.w 0x8, a7
    < 0x00647932      606a           bra.b 0x64799e
    > 0x00647934      4a07           tst.b d7
    < 0x00647936      6704           beq.b 0x64793c
       0x00647938      504f           addq.w 0x8, a7
   < 0x0064793a      6062           bra.b 0x64799e
   > 0x0064793c      b7ebfffc       cmpa.l -0x4(a3), a3
   < 0x00647940      6702           beq.b 0x647944
      0x00647942      4e4d           trap 0xd
   > 0x00647944      2052           movea.l (a2), a0
       0x00647946      b1e8fffc       cmpa.l -0x4(a0), a0
   < 0x0064794a      6702           beq.b 0x64794e
      0x0064794c      4e4d           trap 0xd
   > 0x0064794e      20680030       movea.l 0x30(a0), a0
       0x00647952      b1e8fffc       cmpa.l -0x4(a0), a0
   < 0x00647956      6702           beq.b 0x64795a
      0x00647958      4e4d           trap 0xd
   > 0x0064795a      2f08           move.l a0, -(a7)
       0x0064795c      206b0030       movea.l 0x30(a3), a0
       0x00647960      b1e8fffc       cmpa.l -0x4(a0), a0
   < 0x00647964      6702           beq.b 0x647968
      0x00647966      4e4d           trap 0xd
   > 0x00647968      2257           movea.l (a7), a1
       0x0064796a      4240           clr.w d0
       0x0064796c      1011           move.b (a1), d0
       0x0064796e      b010           cmp.b (a0), d0
   < 0x00647970      6302           bls.b 0x647974
      0x00647972      1010           move.b (a0), d0
   > 0x00647974      5300           subq.b 0x1, d0
   < 0x00647976      6510           bcs.b 0x647988
      0x00647978      45e90001       lea.l 0x1(a1), a2
      0x0064797c      41e80001       lea.l 0x1(a0), a0
  > 0x00647980      b508           cmpm.b (a0)+, (a2)+
  < 0x00647982      56c8fffc       dbne d0, 0x647980
  < 0x00647986      6604           bne.b 0x64798c
  > 0x00647988      1011           move.b (a1), d0
      0x0064798a      b010           cmp.b (a0), d0
  < 0x0064798c      6c06           bge.b 0x647994
      0x0064798e      7e01           moveq 0x1, d7
      0x00647990      584f           addq.w 0x4, a7
  < 0x00647992      6008           bra.b 0x64799c
  > 0x00647994      2d4bfede       move.l a3, -0x122(a6)
      0x00647998      2653           movea.l (a3), a3
      0x0064799a      584f           addq.w 0x4, a7
  < 0x0064799c      6084           bra.b 0x647922
   > 0x0064799e      246c0014       movea.l 0x14(a4), a2
          0x006479a2      2252           movea.l (a2), a1
          0x006479a4      b3e9fffc       cmpa.l -0x4(a1), a1
      < 0x006479a8      6702           beq.b 0x6479ac
         0x006479aa      4e4d           trap 0xd
      > 0x006479ac      2f09           move.l a1, -(a7)
          0x006479ae      236efede0004   move.l -0x122(a6), 0x4(a1)
          0x006479b4      226efede       movea.l -0x122(a6), a1
          0x006479b8      b2c4           cmpa.w d4, a1
      < 0x006479ba      6606           bne.b 0x6479c2
         0x006479bc      21520008       move.l (a2), 0x8(a0)
     < 0x006479c0      600a           bra.b 0x6479cc
     > 0x006479c2      b3e9fffc       cmpa.l -0x4(a1), a1
     < 0x006479c6      6702           beq.b 0x6479ca
        0x006479c8      4e4d           trap 0xd
     > 0x006479ca      2292           move.l (a2), (a1)
     > 0x006479cc      205f           movea.l (a7)+, a0
          0x006479ce      208b           move.l a3, (a0)
          0x006479d0      b6c4           cmpa.w d4, a3
      < 0x006479d2      6608           bne.b 0x6479dc
         0x006479d4      2057           movea.l (a7), a0
         0x006479d6      2152000c       move.l (a2), 0xc(a0)
     < 0x006479da      600c           bra.b 0x6479e8
     > 0x006479dc      b7ebfffc       cmpa.l -0x4(a3), a3
     < 0x006479e0      6702           beq.b 0x6479e4
        0x006479e2      4e4d           trap 0xd
     > 0x006479e4      27520004       move.l (a2), 0x4(a3)
     > 0x006479e8      2057           movea.l (a7), a0
          0x006479ea      52a80024       addq.l 0x1, 0x24(a0)
          0x006479ee      584f           addq.w 0x4, a7
      < 0x006479f0      606a           bra.b loc.00647a5c
       > 0x006479f2      102e0008       move.b 0x8(a6), d0
           0x006479f6      4880           ext.w d0
           0x006479f8      e540           asl.w 0x2, d0
           0x006479fa      226c0014       movea.l 0x14(a4), a1
           0x006479fe      2451           movea.l (a1), a2
           0x00647a00      b5eafffc       cmpa.l -0x4(a2), a2
       < 0x00647a04      6702           beq.b 0x647a08
          0x00647a06      4e4d           trap 0xd
       > 0x00647a08      122e000c       move.b 0xc(a6), d1
           0x00647a0c      4881           ext.w d1
           0x00647a0e      e541           asl.w 0x2, d1
           0x00647a10      142e000e       move.b 0xe(a6), d2
           0x00647a14      4882           ext.w d2
           0x00647a16      3602           move.w d2, d3
           0x00647a18      e743           asl.w 0x3, d3
           0x00647a1a      41f03000       lea.l (a0, d3.w), a0
           0x00647a1e      2f08           move.l a0, -(a7)
           0x00647a20      25b010080000   move.l 0x8(a0, d1.w), (a2, d0.w)
           0x00647a26      24701008       movea.l 0x8(a0, d1.w), a2
           0x00647a2a      b4c4           cmpa.w d4, a2
       < 0x00647a2c      6710           beq.b 0x647a3e
          0x00647a2e      3002           move.w d2, d0
          0x00647a30      e540           asl.w 0x2, d0
          0x00647a32      b5eafffc       cmpa.l -0x4(a2), a2
      < 0x00647a36      6702           beq.b 0x647a3a
         0x00647a38      4e4d           trap 0xd
      > 0x00647a3a      25910000       move.l (a1), (a2, d0.w)
       > 0x00647a3e      102e000a       move.b 0xa(a6), d0
           0x00647a42      4880           ext.w d0
           0x00647a44      e540           asl.w 0x2, d0
           0x00647a46      2457           movea.l (a7), a2
           0x00647a48      20720008       movea.l 0x8(a2, d0.w), a0
           0x00647a4c      b0c4           cmpa.w d4, a0
       < 0x00647a4e      6604           bne.b 0x647a54
          0x00647a50      25910008       move.l (a1), 0x8(a2, d0.w)
       > 0x00647a54      2057           movea.l (a7), a0
           0x00647a56      21911008       move.l (a1), 0x8(a0, d1.w)
           0x00647a5a      504f           addq.w 0x8, a7
           ; CODE XREF from loc.006478c0 @ 0x6479f0
 8: loc.00647a5c ();
      > 0x00647a5c      4cdf0fff       movem.l (a7)+, d0-d7/a0-a3
           0x00647a60      4e5e           unlk a6
           0x00647a62      4e75           rts
            ; CALL XREF from K9_LIBRARY.enlist_title @ 0x647b32
 132: K9_LIBRARY.add_to_list ();
           0x00647a64      4e56ffde       link.w a6, 0xffde
           0x00647a68      bfd5           cmpa.l (a5), a7
       < 0x00647a6a      6206           bhi.b 0x647a72
          0x00647a6c      44fc0002       move.w 0x2, ccr
          0x00647a70      4e76           trapv
       > 0x00647a72      defc001c       adda.w 0x1c, a7
           0x00647a76      48e780c0       movem.l d0/a0-a1, -(a7)
           0x00647a7a      43eefffc       lea.l -0x4(a6), a1
           0x00647a7e      554f           subq.w 0x2, a7
           0x00647a80      1f2e0008       move.b 0x8(a6), -(a7)
           0x00647a84      1f2e000a       move.b 0xa(a6), -(a7)
           0x00647a88      1f2e000e       move.b 0xe(a6), -(a7)
           0x00647a8c      4851           pea.l (a1)
           0x00647a8e      4ebafb8a       jsr K9_LIBRARY.find_entry(pc)
           0x00647a92      defc000a       adda.w 0xa, a7
           0x00647a96      101f           move.b (a7)+, d0
           0x00647a98      4880           ext.w d0
           0x00647a9a      41bc0001       chk.w 0x1, d0
           0x00647a9e      1d40fffa       move.b d0, -0x6(a6)
           0x00647aa2      4a00           tst.b d0
       < 0x00647aa4      6724           beq.b 0x647aca
          0x00647aa6      206c0014       movea.l 0x14(a4), a0
          0x00647aaa      2f10           move.l (a0), -(a7)
          0x00647aac      4ebaf632       jsr K9_LIBRARY.dispose_title(pc)
          0x00647ab0      584f           addq.w 0x4, a7
          0x00647ab2      2091           move.l (a1), (a0)
          0x00647ab4      4a14           tst.b (a4)
      < 0x00647ab6      6628           bne.b 0x647ae0
         0x00647ab8      2f2c000a       move.l 0xa(a4), -(a7)
         0x00647abc      4ebadf9a       jsr K9_LIBRARY.join_lists(pc)
         0x00647ac0      584f           addq.w 0x4, a7
         0x00647ac2      206c0010       movea.l 0x10(a4), a0
         0x00647ac6      2091           move.l (a1), (a0)
     < 0x00647ac8      6016           bra.b 0x647ae0
     > 0x00647aca      1f2e000e       move.b 0xe(a6), -(a7)
         0x00647ace      1f2e000c       move.b 0xc(a6), -(a7)
         0x00647ad2      1f2e000a       move.b 0xa(a6), -(a7)
         0x00647ad6      1f2e0008       move.b 0x8(a6), -(a7)
         0x00647ada      4ebafbd0       jsr K9_LIBRARY.add_entry(pc)
         0x00647ade      504f           addq.w 0x8, a7
     > 0x00647ae0      4cdf0301       movem.l (a7)+, d0/a0-a1
           0x00647ae4      4e5e           unlk a6
           0x00647ae6      4e75           rts
            ; CALL XREF from K9_LIBRARY.k9_add_title @ 0x647b96
 88: K9_LIBRARY.enlist_title ();
           0x00647ae8      4e56ffe6       link.w a6, 0xffe6
           0x00647aec      bfd5           cmpa.l (a5), a7
       < 0x00647aee      6206           bhi.b 0x647af6
          0x00647af0      44fc0002       move.w 0x2, ccr
          0x00647af4      4e76           trapv
       > 0x00647af6      defc0018       adda.w 0x18, a7
           0x00647afa      48e7c008       movem.l d0-d1/a4, -(a7)
           0x00647afe      7201           moveq 0x1, d1
           0x00647b00      554f           subq.w 0x2, a7
           0x00647b02      2f2e0008       move.l 0x8(a6), -(a7)
           0x00647b06      4ebaca2e       jsr K9_LIBRARY.lists_joined(pc)
           0x00647b0a      584f           addq.w 0x4, a7
           0x00647b0c      101f           move.b (a7)+, d0
           0x00647b0e      4880           ext.w d0
           0x00647b10      4181           chk.w d1, d0
           0x00647b12      1d40fffe       move.b d0, -0x2(a6)
           0x00647b16      4a2e000c       tst.b 0xc(a6)
       < 0x00647b1a      670a           beq.b 0x647b26
          0x00647b1c      4227           clr.b -(a7)
          0x00647b1e      1f01           move.b d1, -(a7)
          0x00647b20      4227           clr.b -(a7)
          0x00647b22      1f01           move.b d1, -(a7)
      < 0x00647b24      6008           bra.b 0x647b2e
      > 0x00647b26      1f01           move.b d1, -(a7)
          0x00647b28      4227           clr.b -(a7)
          0x00647b2a      1f01           move.b d1, -(a7)
          0x00647b2c      4227           clr.b -(a7)
      > 0x00647b2e      49eefffe       lea.l -0x2(a6), a4
           0x00647b32      4ebaff30       jsr K9_LIBRARY.add_to_list(pc)
           0x00647b36      504f           addq.w 0x8, a7
           0x00647b38      4cdf1003       movem.l (a7)+, d0-d1/a4
           0x00647b3c      4e5e           unlk a6
           0x00647b3e      4e75           rts
            ; CALL XREF from AFS2_LIB.add_it @ 0x5c9e7e
 104: K9_LIBRARY.k9_add_title ();
           ; var int32_t var_1h @ a7+0x1
           ; var int32_t var_2h @ a7+0x2
           ; var int32_t var_3h @ a7+0x3
           0x00647b40      4e56ffd0       link.w a6, 0xffd0
           0x00647b44      bfd5           cmpa.l (a5), a7
       < 0x00647b46      6206           bhi.b 0x647b4e
          0x00647b48      44fc0002       move.w 0x2, ccr
          0x00647b4c      4e76           trapv
       > 0x00647b4e      defc002c       adda.w 0x2c, a7
           0x00647b52      48e780e0       movem.l d0/a0-a2, -(a7)
           0x00647b56      45eefffc       lea.l -0x4(a6), a2
           0x00647b5a      206e000a       movea.l 0xa(a6), a0
           0x00647b5e      594f           subq.w 0x4, a7
           0x00647b60      1e90           move.b (a0), (a7)
           0x00647b62      1f6800010001   move.b 0x1(a0), 0x1(a7)
           0x00647b68      1f6800020002   move.b 0x2(a0), 0x2(a7)
           0x00647b6e      1f6800030003   move.b 0x3(a0), 0x3(a7)
           0x00647b74      249f           move.l (a7)+, (a2)
           0x00647b76      103900847e42   move.b 0x847e42, d0
           0x00647b7c      4880           ext.w d0
           0x00647b7e      c1fc02d0       muls.w 0x2d0, d0
           0x00647b82      43f900847e32   lea.l 0x847e32, a1
           0x00647b88      4852           pea.l (a2)
           0x00647b8a      4871002e       pea.l 0x2e(a1, d0.w)
           0x00647b8e      1f2e0008       move.b 0x8(a6), -(a7)
           0x00647b92      2f310012       move.l 0x12(a1, d0.w), -(a7)
           0x00647b96      4ebaff50       jsr K9_LIBRARY.enlist_title(pc)
           0x00647b9a      defc000e       adda.w 0xe, a7
           0x00647b9e      2092           move.l (a2), (a0)
           0x00647ba0      4cdf0701       movem.l (a7)+, d0/a0-a2
           0x00647ba4      4e5e           unlk a6
           0x00647ba6      4e75           rts
            ; CALL XREF from AFS2_LIB.add_it @ 0x5c9e54
 338: K9_LIBRARY.k9_new_title ();
           0x00647ba8      4e56ffbe       link.w a6, 0xffbe
           0x00647bac      bfd5           cmpa.l (a5), a7
       < 0x00647bae      6206           bhi.b 0x647bb6
          0x00647bb0      44fc0002       move.w 0x2, ccr
          0x00647bb4      4e76           trapv
       > 0x00647bb6      defc003c       adda.w 0x3c, a7
           0x00647bba      48e7f9f0       movem.l d0-d4/d7/a0-a3, -(a7)
           0x00647bbe      47eefffc       lea.l -0x4(a6), a3
           0x00647bc2      7401           moveq 0x1, d2
           0x00647bc4      263c7fffffff   move.l 0x7fffffff, d3
           0x00647bca      780c           moveq 0xc, d4
           0x00647bcc      4853           pea.l (a3)
           0x00647bce      48780078       pea.l 0x78
           0x00647bd2      4eb900403a92   jsr p_New
           0x00647bd8      504f           addq.w 0x8, a7
           0x00647bda      2053           movea.l (a3), a0
           0x00647bdc      b0c2           cmpa.w d2, a0
       < 0x00647bde      663a           bne.b 0x647c1a
          0x00647be0      487aa9de       pea.l 0x6425c0(pc)
          0x00647be4      48780015       pea.l 0x15
          0x00647be8      2f17           move.l (a7), -(a7)
          0x00647bea      4eb9004047ea   jsr p_wts_o
          0x00647bf0      dec4           adda.w d4, a7
          0x00647bf2      48780078       pea.l 0x78
          0x00647bf6      48780000       pea.l 0x0
          0x00647bfa      4eb9004070e4   jsr p_wti_o
          0x00647c00      504f           addq.w 0x8, a7
          0x00647c02      487aa9d2       pea.l 0x6425d6(pc)
          0x00647c06      48780028       pea.l 0x28
          0x00647c0a      2f17           move.l (a7), -(a7)
          0x00647c0c      4eb9004047ea   jsr p_wts_o
          0x00647c12      dec4           adda.w d4, a7
          0x00647c14      4eb900404946   jsr p_wtln_o
       > 0x00647c1a      b1e8fffc       cmpa.l -0x4(a0), a0
       < 0x00647c1e      6702           beq.b 0x647c22
          0x00647c20      4e4d           trap 0xd
       > 0x00647c22      2082           move.l d2, (a0)
           0x00647c24      21420004       move.l d2, 0x4(a0)
           0x00647c28      43e80008       lea.l 0x8(a0), a1
           0x00647c2c      45ee000c       lea.l 0xc(a6), a2
           0x00647c30      7009           moveq 0x9, d0
       > 0x00647c32      12da           move.b (a2)+, (a1)+
       < 0x00647c34      51c8fffc       dbra d0, 0x647c32
           0x00647c38      11420012       move.b d2, 0x12(a0)
           0x00647c3c      217cbf800000.  move.l 0xbf800000, 0x34(a0)
           0x00647c44      217a9e5a0014   move.l 0x641aa0(pc), 0x14(a0)
           0x00647c4a      21420018       move.l d2, 0x18(a0)
           0x00647c4e      2142001c       move.l d2, 0x1c(a0)
           0x00647c52      21420020       move.l d2, 0x20(a0)
           0x00647c56      21420024       move.l d2, 0x24(a0)
           0x00647c5a      21420038       move.l d2, 0x38(a0)
           0x00647c5e      21420028       move.l d2, 0x28(a0)
           0x00647c62      2142002c       move.l d2, 0x2c(a0)
           0x00647c66      21420030       move.l d2, 0x30(a0)
           0x00647c6a      43e8003c       lea.l 0x3c(a0), a1
           0x00647c6e      45faa98e       lea.l 0x6425fe(pc), a2
           0x00647c72      7007           moveq 0x7, d0
       > 0x00647c74      12da           move.b (a2)+, (a1)+
       < 0x00647c76      51c8fffc       dbra d0, 0x647c74
           0x00647c7a      43e80044       lea.l 0x44(a0), a1
           0x00647c7e      45e8003c       lea.l 0x3c(a0), a2
           0x00647c82      7007           moveq 0x7, d0
       > 0x00647c84      12da           move.b (a2)+, (a1)+
       < 0x00647c86      51c8fffc       dbra d0, 0x647c84
           0x00647c8a      4228004c       clr.b 0x4c(a0)
           0x00647c8e      2143004e       move.l d3, 0x4e(a0)
           0x00647c92      42680052       clr.w 0x52(a0)
           0x00647c96      7e0b           moveq 0xb, d7
       > 0x00647c98      4887           ext.w d7
          0x00647c9a      3007           move.w d7, d0
          0x00647c9c      0440000b       subi.w 0xb, d0
          0x00647ca0      41bc0003       chk.w 0x3, d0
          0x00647ca4      3200           move.w d0, d1
          0x00647ca6      e541           asl.w 0x2, d1
          0x00647ca8      21821058       move.l d2, 0x58(a0, d1.w)
          0x00647cac      42300054       clr.b 0x54(a0, d0.w)
          0x00647cb0      5207           addq.b 0x1, d7
          0x00647cb2      0c07000e       cmpi.b 0xe, d7
       < 0x00647cb6      6fe0           ble.b 0x647c98
           0x00647cb8      21430068       move.l d3, 0x68(a0)
           0x00647cbc      2143006c       move.l d3, 0x6c(a0)
           0x00647cc0      21430070       move.l d3, 0x70(a0)
           0x00647cc4      21430074       move.l d3, 0x74(a0)
           0x00647cc8      103900847e42   move.b 0x847e42, d0
           0x00647cce      4880           ext.w d0
           0x00647cd0      c1fc02d0       muls.w 0x2d0, d0
           0x00647cd4      41f900847e32   lea.l 0x847e32, a0
           0x00647cda      21ae000c0022   move.l 0xc(a6), 0x22(a0, d0.w)
           0x00647ce0      21ae00100026   move.l 0x10(a6), 0x26(a0, d0.w)
           0x00647ce6      31ae0014002a   move.w 0x14(a6), 0x2a(a0, d0.w)
           0x00647cec      206e0008       movea.l 0x8(a6), a0
           0x00647cf0      2093           move.l (a3), (a0)
           0x00647cf2      4cdf0f9f       movem.l (a7)+, d0-d4/d7/a0-a3
           0x00647cf6      4e5e           unlk a6
           0x00647cf8      4e75           rts
 80: K9_LIBRARY.blank_string ();
           ; var int32_t var_5704h @ a6-0x5704
           0x00647cfa      4e56fde4       link.w a6, 0xfde4
           0x00647cfe      bfd5           cmpa.l (a5), a7
       < 0x00647d00      6206           bhi.b 0x647d08
          0x00647d02      44fc0002       move.w 0x2, ccr
          0x00647d06      4e76           trapv
       > 0x00647d08      defc011c       adda.w 0x11c, a7
           0x00647d0c      48e780c0       movem.l d0/a0-a1, -(a7)
           0x00647d10      1d7aa8fcff00   move.b 0x64260e(pc), -0x100(a6)
           0x00647d16      1f2e010e       move.b 0x10e(a6), -(a7)
           0x00647d1a      486eff00       pea.l -0x100(a6)
           0x00647d1e      206e010a       movea.l 0x10a(a6), a0
           0x00647d22      4850           pea.l (a0)
           0x00647d24      9efc0100       suba.w 0x100, a7
           0x00647d28      204f           movea.l a7, a0
           0x00647d2a      43ee0008       lea.l 0x8(a6), a1
           0x00647d2e      703f           moveq 0x3f, d0
       > 0x00647d30      20d9           move.l (a1)+, (a0)+
       < 0x00647d32      51c8fffc       dbra d0, 0x647d30
           0x00647d36      1f2e0108       move.b 0x108(a6), -(a7)
           0x00647d3a      4ebaf63a       jsr K9_LIBRARY.may_allocate_st(pc)
           0x00647d3e      defc010c       adda.w 0x10c, a7
           0x00647d42      4cdf0301       movem.l (a7)+, d0/a0-a1
           0x00647d46      4e5e           unlk a6
           0x00647d48      4e75           rts
            ; CALL XREF from K9_LIBRARY.k9_set_block @ 0x648a5e
 386: K9_LIBRARY.may_allocate_de ();
           ; var int32_t var_8h @ a7+0x8
           0x00647d4a      4e56ffac       link.w a6, 0xffac
           0x00647d4e      bfd5           cmpa.l (a5), a7
       < 0x00647d50      6206           bhi.b 0x647d58
          0x00647d52      44fc0002       move.w 0x2, ccr
          0x00647d56      4e76           trapv
       > 0x00647d58      defc004c       adda.w 0x4c, a7
           0x00647d5c      48e7e1f8       movem.l d0-d2/d7/a0-a4, -(a7)
           0x00647d60      7201           moveq 0x1, d1
           0x00647d62      740c           moveq 0xc, d2
           0x00647d64      4a2e0110       tst.b 0x110(a6)
       < 0x00647d68      6700009c       beq.w 0x647e06
          0x00647d6c      206e0108       movea.l 0x108(a6), a0
          0x00647d70      2250           movea.l (a0), a1
          0x00647d72      b2c1           cmpa.w d1, a1
      < 0x00647d74      670e           beq.b 0x647d84
         0x00647d76      4850           pea.l (a0)
         0x00647d78      48780400       pea.l 0x400
         0x00647d7c      4eb900403b98   jsr p_Dispos
         0x00647d82      504f           addq.w 0x8, a7
      > 0x00647d84      226e010c       movea.l 0x10c(a6), a1
          0x00647d88      4a51           tst.w (a1)
      < 0x00647d8a      6604           bne.b 0x647d90
         0x00647d8c      2081           move.l d1, (a0)
     < 0x00647d8e      6076           bra.b 0x647e06
     > 0x00647d90      4850           pea.l (a0)
         0x00647d92      48780400       pea.l 0x400
         0x00647d96      4eb900403a92   jsr p_New
         0x00647d9c      504f           addq.w 0x8, a7
         0x00647d9e      2250           movea.l (a0), a1
         0x00647da0      b2c1           cmpa.w d1, a1
     < 0x00647da2      6662           bne.b 0x647e06
        0x00647da4      487aa86a       pea.l 0x642610(pc)
        0x00647da8      48780015       pea.l 0x15
        0x00647dac      2f17           move.l (a7), -(a7)
        0x00647dae      4eb9004047ea   jsr p_wts_o
        0x00647db4      dec2           adda.w d2, a7
        0x00647db6      48780400       pea.l 0x400
        0x00647dba      48780000       pea.l 0x0
        0x00647dbe      4eb9004070e4   jsr p_wti_o
        0x00647dc4      504f           addq.w 0x8, a7
        0x00647dc6      487aa85e       pea.l 0x642626(pc)
        0x00647dca      48780008       pea.l 0x8
        0x00647dce      2f17           move.l (a7), -(a7)
        0x00647dd0      4eb9004047ea   jsr p_wts_o
        0x00647dd6      dec2           adda.w d2, a7
        0x00647dd8      486e0009       pea.l 0x9(a6)
        0x00647ddc      42a7           clr.l -(a7)
        0x00647dde      1f6e00080003   move.b 0x8(a6), 0x3(a7)
        0x00647de4      2f17           move.l (a7), -(a7)
        0x00647de6      4eb9004047ea   jsr p_wts_o
        0x00647dec      dec2           adda.w d2, a7
        0x00647dee      487aa83f       pea.l 0x64262f(pc)
        0x00647df2      4878001b       pea.l 0x1b
        0x00647df6      2f17           move.l (a7), -(a7)
        0x00647df8      4eb9004047ea   jsr p_wts_o
        0x00647dfe      dec2           adda.w d2, a7
        0x00647e00      4eb900404946   jsr p_wtln_o
     > 0x00647e06      206e0108       movea.l 0x108(a6), a0
           0x00647e0a      2250           movea.l (a0), a1
           0x00647e0c      b2c1           cmpa.w d1, a1
       < 0x00647e0e      670000b4       beq.w 0x647ec4
          0x00647e12      206e010c       movea.l 0x10c(a6), a0
          0x00647e16      4a50           tst.w (a0)
      < 0x00647e18      670000a0       beq.w 0x647eba
         0x00647e1c      3010           move.w (a0), d0
         0x00647e1e      02800000ffff   andi.l 0xffff, d0
         0x00647e24      2e00           move.l d0, d7
     < 0x00647e26      6d1e           blt.b 0x647e46
        0x00647e28      0c87000003fe   cmpi.l 0x3fe, d7
    < 0x00647e2e      6e16           bgt.b 0x647e46
       0x00647e30      b3e9fffc       cmpa.l -0x4(a1), a1
   < 0x00647e34      6702           beq.b 0x647e38
      0x00647e36      4e4d           trap 0xd
   > 0x00647e38      0c870000ffff   cmpi.l 0xffff, d7
   < 0x00647e3e      6302           bls.b 0x647e42
      0x00647e40      4e4f           trap 0xf
   > 0x00647e42      3287           move.w d7, (a1)
   < 0x00647e44      6032           bra.b 0x647e78
   > 0x00647e46      487aa817       pea.l 0x64265f(pc)
        0x00647e4a      4878001f       pea.l 0x1f
        0x00647e4e      2f17           move.l (a7), -(a7)
        0x00647e50      4eb9004047ea   jsr p_wts_o
        0x00647e56      504f           addq.w 0x8, a7
        0x00647e58      2e87           move.l d7, (a7)
        0x00647e5a      48780000       pea.l 0x0
        0x00647e5e      4eb9004070e4   jsr p_wti_o
        0x00647e64      504f           addq.w 0x8, a7
        0x00647e66      4eb900404946   jsr p_wtln_o
        0x00647e6c      b3e9fffc       cmpa.l -0x4(a1), a1
    < 0x00647e70      6702           beq.b 0x647e74
       0x00647e72      4e4d           trap 0xd
    > 0x00647e74      32bc03fe       move.w 0x3fe, (a1)
   > 0x00647e78      246e0108       movea.l 0x108(a6), a2
         0x00647e7c      266e010c       movea.l 0x10c(a6), a3
         0x00647e80      b3e9fffc       cmpa.l -0x4(a1), a1
     < 0x00647e84      6702           beq.b 0x647e88
        0x00647e86      4e4d           trap 0xd
     > 0x00647e88      4280           clr.l d0
         0x00647e8a      3011           move.w (a1), d0
         0x00647e8c      2f00           move.l d0, -(a7)
         0x00647e8e      7e01           moveq 0x1, d7
     > 0x00647e90      be97           cmp.l (a7), d7
    < 0x00647e92      6e22           bgt.b 0x647eb6
       0x00647e94      2007           move.l d7, d0
       0x00647e96      5380           subq.l 0x1, d0
       0x00647e98      0c80000003fd   cmpi.l 0x3fd, d0
   < 0x00647e9e      6302           bls.b 0x647ea2
      0x00647ea0      4e4f           trap 0xf
   > 0x00647ea2      2852           movea.l (a2), a4
       0x00647ea4      b9ecfffc       cmpa.l -0x4(a4), a4
   < 0x00647ea8      6702           beq.b 0x647eac
      0x00647eaa      4e4d           trap 0xd
   > 0x00647eac      19b308020802   move.b 0x2(a3, d0.l), 0x2(a4, d0.l)
       0x00647eb2      5287           addq.l 0x1, d7
    < 0x00647eb4      68da           bvc.b 0x647e90
    > 0x00647eb6      584f           addq.w 0x4, a7
     < 0x00647eb8      600a           bra.b 0x647ec4
     > 0x00647eba      b3e9fffc       cmpa.l -0x4(a1), a1
     < 0x00647ebe      6702           beq.b 0x647ec2
        0x00647ec0      4e4d           trap 0xd
     > 0x00647ec2      4251           clr.w (a1)
     > 0x00647ec4      4cdf1f87       movem.l (a7)+, d0-d2/d7/a0-a4
           0x00647ec8      4e5e           unlk a6
           0x00647eca      4e75           rts
            ; CALL XREF from K9_LIBRARY.may_allocate_ex @ 0x647fe0
 146: K9_LIBRARY.new_extra_ptr ();
           ; var int32_t var_8h @ a7+0x8
           0x00647ecc      4e56ffe0       link.w a6, 0xffe0
           0x00647ed0      bfd5           cmpa.l (a5), a7
       < 0x00647ed2      6206           bhi.b 0x647eda
          0x00647ed4      44fc0002       move.w 0x2, ccr
          0x00647ed8      4e76           trapv
       > 0x00647eda      defc0020       adda.w 0x20, a7
           0x00647ede      48e780c0       movem.l d0/a0-a1, -(a7)
           0x00647ee2      43f9004047ea   lea.l p_wts_o, a1
           0x00647ee8      700c           moveq 0xc, d0
           0x00647eea      206e010c       movea.l 0x10c(a6), a0
           0x00647eee      4850           pea.l (a0)
           0x00647ef0      2f2e0108       move.l 0x108(a6), -(a7)
           0x00647ef4      4eb900403a92   jsr p_New
           0x00647efa      504f           addq.w 0x8, a7
           0x00647efc      2050           movea.l (a0), a0
           0x00647efe      b0fc0001       cmpa.w 0x1, a0
       < 0x00647f02      6652           bne.b 0x647f56
          0x00647f04      487aa779       pea.l 0x64267f(pc)
          0x00647f08      48780015       pea.l 0x15
          0x00647f0c      2f17           move.l (a7), -(a7)
          0x00647f0e      4e91           jsr (a1)                    ; fcn.0000000a
          0x00647f10      504f           addq.w 0x8, a7
          0x00647f12      2eae0108       move.l 0x108(a6), (a7)
          0x00647f16      48780000       pea.l 0x0
          0x00647f1a      4eb9004070e4   jsr p_wti_o
          0x00647f20      504f           addq.w 0x8, a7
          0x00647f22      487aa771       pea.l 0x642695(pc)
          0x00647f26      48780008       pea.l 0x8
          0x00647f2a      2f17           move.l (a7), -(a7)
          0x00647f2c      4e91           jsr (a1)                    ; fcn.0000000a
          0x00647f2e      dec0           adda.w d0, a7
          0x00647f30      486e0009       pea.l 0x9(a6)
          0x00647f34      42a7           clr.l -(a7)
          0x00647f36      1f6e00080003   move.b 0x8(a6), 0x3(a7)
          0x00647f3c      2f17           move.l (a7), -(a7)
          0x00647f3e      4e91           jsr (a1)                    ; fcn.0000000a
          0x00647f40      dec0           adda.w d0, a7
          0x00647f42      487aa75a       pea.l 0x64269e(pc)
          0x00647f46      4878001b       pea.l 0x1b
          0x00647f4a      2f17           move.l (a7), -(a7)
          0x00647f4c      4e91           jsr (a1)                    ; fcn.0000000a
          0x00647f4e      dec0           adda.w d0, a7
          0x00647f50      4eb900404946   jsr p_wtln_o
       > 0x00647f56      4cdf0301       movem.l (a7)+, d0/a0-a1
           0x00647f5a      4e5e           unlk a6
           0x00647f5c      4e75           rts
 208: K9_LIBRARY.may_allocate_ex ();
           0x00647f5e      4e56fec8       link.w a6, 0xfec8
           0x00647f62      bfd5           cmpa.l (a5), a7
       < 0x00647f64      6206           bhi.b 0x647f6c
          0x00647f66      44fc0002       move.w 0x2, ccr
          0x00647f6a      4e76           trapv
       > 0x00647f6c      defc0134       adda.w 0x134, a7
           0x00647f70      48e7c1f8       movem.l d0-d1/d7/a0-a4, -(a7)
           0x00647f74      49ee010a       lea.l 0x10a(a6), a4
           0x00647f78      7201           moveq 0x1, d1
           0x00647f7a      4a2e0112       tst.b 0x112(a6)
       < 0x00647f7e      6768           beq.b 0x647fe8
          0x00647f80      2054           movea.l (a4), a0
          0x00647f82      2250           movea.l (a0), a1
          0x00647f84      b2c1           cmpa.w d1, a1
      < 0x00647f86      670e           beq.b 0x647f96
         0x00647f88      4850           pea.l (a0)
         0x00647f8a      48780100       pea.l 0x100
         0x00647f8e      4eb900403b98   jsr p_Dispos
         0x00647f94      504f           addq.w 0x8, a7
      > 0x00647f96      226e010e       movea.l 0x10e(a6), a1
          0x00647f9a      4240           clr.w d0
          0x00647f9c      1011           move.b (a1), d0
      < 0x00647f9e      6302           bls.b 0x647fa2
         0x00647fa0      7000           moveq 0x0, d0
      > 0x00647fa2      5300           subq.b 0x1, d0
      < 0x00647fa4      6510           bcs.b 0x647fb6
         0x00647fa6      45e90001       lea.l 0x1(a1), a2
         0x00647faa      47faa70e       lea.l 0x6426ba(pc), a3
     > 0x00647fae      b50b           cmpm.b (a3)+, (a2)+
     < 0x00647fb0      56c8fffc       dbne d0, 0x647fae
     < 0x00647fb4      6602           bne.b 0x647fb8
     > 0x00647fb6      1011           move.b (a1), d0
     < 0x00647fb8      660a           bne.b 0x647fc4
         0x00647fba      4a2e0008       tst.b 0x8(a6)
     < 0x00647fbe      6704           beq.b 0x647fc4
        0x00647fc0      2081           move.l d1, (a0)
    < 0x00647fc2      6024           bra.b 0x647fe8
    > 0x00647fc4      4850           pea.l (a0)
         0x00647fc6      4280           clr.l d0
         0x00647fc8      1011           move.b (a1), d0
         0x00647fca      5280           addq.l 0x1, d0
         0x00647fcc      2f00           move.l d0, -(a7)
         0x00647fce      9efc0100       suba.w 0x100, a7
         0x00647fd2      244f           movea.l a7, a2
         0x00647fd4      47ee000a       lea.l 0xa(a6), a3
         0x00647fd8      703f           moveq 0x3f, d0
     > 0x00647fda      24db           move.l (a3)+, (a2)+
     < 0x00647fdc      51c8fffc       dbra d0, 0x647fda
         0x00647fe0      4ebafeea       jsr K9_LIBRARY.new_extra_ptr(pc)
         0x00647fe4      defc0108       adda.w 0x108, a7
    > 0x00647fe8      2054           movea.l (a4), a0
           0x00647fea      2050           movea.l (a0), a0
           0x00647fec      b0c1           cmpa.w d1, a0
       < 0x00647fee      6736           beq.b 0x648026
          0x00647ff0      2054           movea.l (a4), a0
          0x00647ff2      226e010e       movea.l 0x10e(a6), a1
          0x00647ff6      246e010e       movea.l 0x10e(a6), a2
          0x00647ffa      4280           clr.l d0
          0x00647ffc      1012           move.b (a2), d0
          0x00647ffe      2f00           move.l d0, -(a7)
          0x00648000      7e00           moveq 0x0, d7
      > 0x00648002      be97           cmp.l (a7), d7
     < 0x00648004      6e1e           bgt.b 0x648024
        0x00648006      0c87000000ff   cmpi.l 0xff, d7
    < 0x0064800c      6302           bls.b 0x648010
       0x0064800e      4e4f           trap 0xf
    > 0x00648010      2450           movea.l (a0), a2
        0x00648012      b5eafffc       cmpa.l -0x4(a2), a2
    < 0x00648016      6702           beq.b 0x64801a
       0x00648018      4e4d           trap 0xd
    > 0x0064801a      15b178007800   move.b (a1, d7.l), (a2, d7.l)
        0x00648020      5287           addq.l 0x1, d7
     < 0x00648022      68de           bvc.b 0x648002
     > 0x00648024      584f           addq.w 0x4, a7
       > 0x00648026      4cdf1f83       movem.l (a7)+, d0-d1/d7/a0-a4
           0x0064802a      4e5e           unlk a6
           0x0064802c      4e75           rts
            0x0064802e      4e56fedc       link.w a6, 0xfedc
            0x00648032      bfd5           cmpa.l (a5), a7
        < 0x00648034      6206           bhi.b 0x64803c
           0x00648036      44fc0002       move.w 0x2, ccr
           0x0064803a      4e76           trapv
        > 0x0064803c      defc0124       adda.w 0x124, a7
            0x00648040      48e7c0e0       movem.l d0-d1/a0-a2, -(a7)
            0x00648044      7201           moveq 0x1, d1
            0x00648046      4a2e0114       tst.b 0x114(a6)
        < 0x0064804a      6738           beq.b 0x648084
           0x0064804c      206e0108       movea.l 0x108(a6), a0
           0x00648050      2250           movea.l (a0), a1
           0x00648052      b2c1           cmpa.w d1, a1
       < 0x00648054      670e           beq.b 0x648064
          0x00648056      4850           pea.l (a0)
          0x00648058      48780100       pea.l 0x100
          0x0064805c      4eb900403b98   jsr p_Dispos
          0x00648062      504f           addq.w 0x8, a7
       > 0x00648064      4850           pea.l (a0)
           0x00648066      48780008       pea.l 0x8
           0x0064806a      9efc0100       suba.w 0x100, a7
           0x0064806e      204f           movea.l a7, a0
           0x00648070      43ee0008       lea.l 0x8(a6), a1
           0x00648074      703f           moveq 0x3f, d0
       > 0x00648076      20d9           move.l (a1)+, (a0)+
       < 0x00648078      51c8fffc       dbra d0, 0x648076
           0x0064807c      4ebafe4e       jsr K9_LIBRARY.new_extra_ptr(pc)
           0x00648080      defc0108       adda.w 0x108, a7
        > 0x00648084      206e0108       movea.l 0x108(a6), a0
            0x00648088      2250           movea.l (a0), a1
            0x0064808a      b2c1           cmpa.w d1, a1
        < 0x0064808c      6716           beq.b 0x6480a4
           0x0064808e      b3e9fffc       cmpa.l -0x4(a1), a1
       < 0x00648092      6702           beq.b 0x648096
          0x00648094      4e4d           trap 0xd
       > 0x00648096      2049           movea.l a1, a0
           0x00648098      45ee010c       lea.l 0x10c(a6), a2
           0x0064809c      7007           moveq 0x7, d0
       > 0x0064809e      10da           move.b (a2)+, (a0)+
       < 0x006480a0      51c8fffc       dbra d0, 0x64809e
        > 0x006480a4      4cdf0703       movem.l (a7)+, d0-d1/a0-a2
            0x006480a8      4e5e           unlk a6
            0x006480aa      4e75           rts
            0x006480ac      4e56fee0       link.w a6, 0xfee0
            0x006480b0      bfd5           cmpa.l (a5), a7
        < 0x006480b2      6206           bhi.b 0x6480ba
           0x006480b4      44fc0002       move.w 0x2, ccr
           0x006480b8      4e76           trapv
        > 0x006480ba      defc0120       adda.w 0x120, a7
            0x006480be      48e7c0c0       movem.l d0-d1/a0-a1, -(a7)
            0x006480c2      7201           moveq 0x1, d1
            0x006480c4      4a2e0110       tst.b 0x110(a6)
        < 0x006480c8      6738           beq.b 0x648102
           0x006480ca      206e0108       movea.l 0x108(a6), a0
           0x006480ce      2250           movea.l (a0), a1
           0x006480d0      b2c1           cmpa.w d1, a1
       < 0x006480d2      670e           beq.b 0x6480e2
          0x006480d4      4850           pea.l (a0)
          0x006480d6      48780100       pea.l 0x100
          0x006480da      4eb900403b98   jsr p_Dispos
          0x006480e0      504f           addq.w 0x8, a7
       > 0x006480e2      4850           pea.l (a0)
           0x006480e4      48780004       pea.l 0x4
           0x006480e8      9efc0100       suba.w 0x100, a7
           0x006480ec      204f           movea.l a7, a0
           0x006480ee      43ee0008       lea.l 0x8(a6), a1
           0x006480f2      703f           moveq 0x3f, d0
       > 0x006480f4      20d9           move.l (a1)+, (a0)+
       < 0x006480f6      51c8fffc       dbra d0, 0x6480f4
           0x006480fa      4ebafdd0       jsr K9_LIBRARY.new_extra_ptr(pc)
           0x006480fe      defc0108       adda.w 0x108, a7
        > 0x00648102      206e0108       movea.l 0x108(a6), a0
            0x00648106      2250           movea.l (a0), a1
            0x00648108      b2c1           cmpa.w d1, a1
        < 0x0064810a      670c           beq.b 0x648118
           0x0064810c      b3e9fffc       cmpa.l -0x4(a1), a1
       < 0x00648110      6702           beq.b 0x648114
          0x00648112      4e4d           trap 0xd
       > 0x00648114      22ae010c       move.l 0x10c(a6), (a1)
        > 0x00648118      4cdf0303       movem.l (a7)+, d0-d1/a0-a1
            0x0064811c      4e5e           unlk a6
            0x0064811e      4e75           rts
            ; CALL XREF from K9_LIBRARY.check_retitle_c @ 0x6481cc
 108: K9_LIBRARY.upd_retitle_dis ();
           0x00648120      4e56ffce       link.w a6, 0xffce
           0x00648124      bfd5           cmpa.l (a5), a7
       < 0x00648126      6206           bhi.b 0x64812e
          0x00648128      44fc0002       move.w 0x2, ccr
          0x0064812c      4e76           trapv
       > 0x0064812e      defc0032       adda.w 0x32, a7
           0x00648132      48e7c080       movem.l d0-d1/a0, -(a7)
           0x00648136      103900847e42   move.b 0x847e42, d0
           0x0064813c      4880           ext.w d0
           0x0064813e      c1fc02d0       muls.w 0x2d0, d0
           0x00648142      41f900847e32   lea.l 0x847e32, a0
           0x00648148      1230003a       move.b 0x3a(a0, d0.w), d1
           0x0064814c      4881           ext.w d1
           0x0064814e      43bc0019       chk.w 0x19, d1
           0x00648152      2f300036       move.l 0x36(a0, d0.w), -(a7)
           0x00648156      514f           subq.w 0x8, a7
           0x00648158      1f3c0003       move.b 0x3, -(a7)
           0x0064815c      48780000       pea.l 0x0
           0x00648160      4227           clr.b -(a7)
           0x00648162      4eb900660596   jsr K95_CARDS.k95_get_lib_ite
           0x00648168      5c4f           addq.w 0x6, a7
           0x0064816a      1e81           move.b d1, (a7)
           0x0064816c      1f01           move.b d1, -(a7)
           0x0064816e      1f2e0008       move.b 0x8(a6), -(a7)
           0x00648172      4870004a       pea.l 0x4a(a0, d0.w)
           0x00648176      4870004e       pea.l 0x4e(a0, d0.w)
           0x0064817a      4eb90065845a   jsr K92_DISPLAY.k92_info
           0x00648180      defc001a       adda.w 0x1a, a7
           0x00648184      4cdf0103       movem.l (a7)+, d0-d1/a0
           0x00648188      4e5e           unlk a6
           0x0064818a      4e75           rts
            ; CALL XREFS from K9_LIBRARY.k9_set_block @ 0x6e52, 0x648a8a
            ; CALL XREFS from K9_LIBRARY.k9_set_type @ 0x7574, 0x648ffe
            ; CALL XREF from K9_LIBRARY @ +0x7988
 106: K9_LIBRARY.check_retitle_c ();
           0x0064818c      4e56ffdc       link.w a6, 0xffdc
           0x00648190      bfd5           cmpa.l (a5), a7
       < 0x00648192      6206           bhi.b 0x64819a
          0x00648194      44fc0002       move.w 0x2, ccr
          0x00648198      4e76           trapv
       > 0x0064819a      defc0024       adda.w 0x24, a7
           0x0064819e      48e7e0c0       movem.l d0-d2/a0-a1, -(a7)
           0x006481a2      103900847e42   move.b 0x847e42, d0
           0x006481a8      4880           ext.w d0
           0x006481aa      c1fc02d0       muls.w 0x2d0, d0
           0x006481ae      41f900847e32   lea.l 0x847e32, a0
           0x006481b4      12300034       move.b 0x34(a0, d0.w), d1
           0x006481b8      0c010006       cmpi.b 0x6, d1
       < 0x006481bc      6630           bne.b 0x6481ee
          0x006481be      226e0008       movea.l 0x8(a6), a1
          0x006481c2      b3f00036       cmpa.l 0x36(a0, d0.w), a1
      < 0x006481c6      6626           bne.b 0x6481ee
         0x006481c8      1f2e000c       move.b 0xc(a6), -(a7)
         0x006481cc      4ebaff52       jsr K9_LIBRARY.upd_retitle_dis(pc)
         0x006481d0      544f           addq.w 0x2, a7
         0x006481d2      2f3a98b0       move.l 0x641a84(pc), -(a7)
         0x006481d6      122e000c       move.b 0xc(a6), d1
         0x006481da      4881           ext.w d1
         0x006481dc      3401           move.w d1, d2
         0x006481de      e64a           lsr.w 0x3, d2
         0x006481e0      03f72000       bset.b d1, (a7, d2.w)
         0x006481e4      2230003c       move.l 0x3c(a0, d0.w), d1
         0x006481e8      829f           or.l (a7)+, d1
         0x006481ea      2181003c       move.l d1, 0x3c(a0, d0.w)
      > 0x006481ee      4cdf0307       movem.l (a7)+, d0-d2/a0-a1
           0x006481f2      4e5e           unlk a6
           0x006481f4      4e75           rts
            ; CALL XREF from AFS2_LIB.set_udf @ 0x5c939e
 364: K9_LIBRARY.k9_set_field_ty ();
           0x006481f6      4e56feaa       link.w a6, 0xfeaa
           0x006481fa      bfd5           cmpa.l (a5), a7
       < 0x006481fc      6206           bhi.b 0x648204
          0x006481fe      44fc0002       move.w 0x2, ccr
          0x00648202      4e76           trapv
       > 0x00648204      defc0050       adda.w 0x50, a7
           0x00648208      48e7fef8       movem.l d0-d6/a0-a4, -(a7)
           0x0064820c      47f9004047ea   lea.l p_wts_o, a3
           0x00648212      760b           moveq 0xb, d3
           0x00648214      780c           moveq 0xc, d4
           0x00648216      7a03           moveq 0x3, d5
           0x00648218      7c01           moveq 0x1, d6
           0x0064821a      286e0110       movea.l 0x110(a6), a4
           0x0064821e      554f           subq.w 0x2, a7
           0x00648220      48780001       pea.l 0x1
           0x00648224      1f06           move.b d6, -(a7)
           0x00648226      1f2e010e       move.b 0x10e(a6), -(a7)
           0x0064822a      4eb90064c324   jsr K9_LIBRARY.k9_info_type_fi
           0x00648230      504f           addq.w 0x8, a7
           0x00648232      101f           move.b (a7)+, d0
           0x00648234      4880           ext.w d0
           0x00648236      4183           chk.w d3, d0
           0x00648238      1d40fffe       move.b d0, -0x2(a6)
           0x0064823c      206e0008       movea.l 0x8(a6), a0
           0x00648240      1086           move.b d6, (a0)
           0x00648242      b02e010c       cmp.b 0x10c(a6), d0
       < 0x00648246      670000f0       beq.w 0x648338
          0x0064824a      102e010e       move.b 0x10e(a6), d0
          0x0064824e      4880           ext.w d0
          0x00648250      43faa4be       lea.l 0x642710(pc), a1
          0x00648254      3200           move.w d0, d1
          0x00648256      e649           lsr.w 0x3, d1
          0x00648258      01311000       btst.l d0, (a1, d1.w)
      < 0x0064825c      67000214       beq.w loc.00648472
         0x00648260      123900847e42   move.b 0x847e42, d1
         0x00648266      4881           ext.w d1
         0x00648268      c3fc02d0       muls.w 0x2d0, d1
         0x0064826c      43f900847e32   lea.l 0x847e32, a1
         0x00648272      142e010c       move.b 0x10c(a6), d2
         0x00648276      0c020002       cmpi.b 0x2, d2
     < 0x0064827a      6666           bne.b 0x6482e2
        0x0064827c      b9f11036       cmpa.l 0x36(a1, d1.w), a4
    < 0x00648280      6660           bne.b 0x6482e2
       0x00648282      4a311048       tst.b 0x48(a1, d1.w)
   < 0x00648286      675a           beq.b 0x6482e2
      0x00648288      487aa48b       pea.l 0x642715(pc)
      0x0064828c      48780018       pea.l 0x18
      0x00648290      2f17           move.l (a7), -(a7)
      0x00648292      4e93           jsr (a3)                    ; fcn.0000000c
      0x00648294      dec4           adda.w d4, a7
      0x00648296      48c0           ext.l d0
      0x00648298      2f00           move.l d0, -(a7)
      0x0064829a      48780000       pea.l 0x0
      0x0064829e      4eb9004070e4   jsr p_wti_o
      0x006482a4      504f           addq.w 0x8, a7
      0x006482a6      487aa486       pea.l 0x64272e(pc)
      0x006482aa      48780014       pea.l 0x14
      0x006482ae      2f17           move.l (a7), -(a7)
      0x006482b0      4e93           jsr (a3)                    ; fcn.0000000c
      0x006482b2      dec4           adda.w d4, a7
      0x006482b4      4882           ext.w d2
      0x006482b6      48c2           ext.l d2
      0x006482b8      2f02           move.l d2, -(a7)
      0x006482ba      48780000       pea.l 0x0
      0x006482be      4eb9004070e4   jsr p_wti_o
      0x006482c4      504f           addq.w 0x8, a7
      0x006482c6      4eb900404946   jsr p_wtln_o
      0x006482cc      3200           move.w d0, d1
      0x006482ce      9243           sub.w d3, d1
      0x006482d0      4385           chk.w d5, d1
      0x006482d2      b9ecfffc       cmpa.l -0x4(a4), a4
  < 0x006482d6      6702           beq.b 0x6482da
     0x006482d8      4e4d           trap 0xd
  > 0x006482da      19821054       move.b d2, 0x54(a4, d1.w)
  < 0x006482de      60000192       bra.w loc.00648472
  > 0x006482e2      487aa45f       pea.l 0x642743(pc)
        0x006482e6      48780015       pea.l 0x15
        0x006482ea      2f17           move.l (a7), -(a7)
        0x006482ec      4e93           jsr (a3)                    ; fcn.0000000c
        0x006482ee      dec4           adda.w d4, a7
        0x006482f0      48c0           ext.l d0
        0x006482f2      2f00           move.l d0, -(a7)
        0x006482f4      48780000       pea.l 0x0
        0x006482f8      4eb9004070e4   jsr p_wti_o
        0x006482fe      504f           addq.w 0x8, a7
        0x00648300      487aa457       pea.l 0x642759(pc)
        0x00648304      48780013       pea.l 0x13
        0x00648308      2f17           move.l (a7), -(a7)
        0x0064830a      4e93           jsr (a3)                    ; fcn.0000000c
        0x0064830c      dec4           adda.w d4, a7
        0x0064830e      4882           ext.w d2
        0x00648310      48c2           ext.l d2
        0x00648312      2f02           move.l d2, -(a7)
        0x00648314      48780000       pea.l 0x0
        0x00648318      4eb9004070e4   jsr p_wti_o
        0x0064831e      504f           addq.w 0x8, a7
        0x00648320      4eb900404946   jsr p_wtln_o
        0x00648326      3200           move.w d0, d1
        0x00648328      9243           sub.w d3, d1
        0x0064832a      4385           chk.w d5, d1
        0x0064832c      b9ecfffc       cmpa.l -0x4(a4), a4
    < 0x00648330      6702           beq.b 0x648334
       0x00648332      4e4d           trap 0xd
   > 0x00648334      60000136       bra.w loc.0064846c
    > 0x00648338      102e010e       move.b 0x10e(a6), d0
        0x0064833c      4880           ext.w d0
        0x0064833e      43faa42c       lea.l 0x64276c(pc), a1
        0x00648342      3200           move.w d0, d1
        0x00648344      e649           lsr.w 0x3, d1
        0x00648346      01311000       btst.l d0, (a1, d1.w)
    < 0x0064834a      67000126       beq.w loc.00648472
       0x0064834e      3200           move.w d0, d1
       0x00648350      9243           sub.w d3, d1
       0x00648352      b245           cmp.w d5, d1
   < 0x00648354      6302           bls.b 0x648358
      0x00648356      4e4e           trap 0xe
   > 0x00648358      d241           add.w d1, d1
       0x0064835a      323b1006       move.w 0x648362(pc, d1.w), d1
       0x0064835e      4efb1002       jmp 0x648362(pc, d1.w)
        0x00648362      0008001a       
        0x00648363      08001a00       
        0x00648364      001a0020       ori.b 0x20, (a2)+
        0x00648368      00264878       ori.b 0x78, -(a6)
        0x0064836c      0001486e       ori.b 0x6e, d1
     0x00648370      fefe4eb90066   fbf.l 0x4f1d83d8
     0x00648376      a332           invalid
     0x00648378      504f           addq.w 0x8, a7
  < 0x0064837a      6012           bra.b 0x64838e
     0x0064837c      48780002       pea.l 0x2
  < 0x00648380      60ec           bra.b 0x64836e
      0x00648382      48780003       pea.l 0x3
   < 0x00648386      60e6           bra.b 0x64836e
       0x00648388      48780004       pea.l 0x4
    < 0x0064838c      60e0           bra.b 0x64836e
  > 0x0064838e      486efefe       pea.l -0x102(a6)
        0x00648392      4eb900408fa8   jsr p_upper
        0x00648398      584f           addq.w 0x4, a7
        0x0064839a      486e000c       pea.l 0xc(a6)
        0x0064839e      4eb900408fa8   jsr p_upper
        0x006483a4      584f           addq.w 0x4, a7
        0x006483a6      4241           clr.w d1
        0x006483a8      122efefe       move.b -0x102(a6), d1
        0x006483ac      b22e000c       cmp.b 0xc(a6), d1
    < 0x006483b0      6304           bls.b 0x6483b6
       0x006483b2      122e000c       move.b 0xc(a6), d1
    > 0x006483b6      5301           subq.b 0x1, d1
    < 0x006483b8      6510           bcs.b 0x6483ca
       0x006483ba      43eefeff       lea.l -0x101(a6), a1
       0x006483be      45ee000d       lea.l 0xd(a6), a2
   > 0x006483c2      b30a           cmpm.b (a2)+, (a1)+
   < 0x006483c4      56c9fffc       dbne d1, 0x6483c2
   < 0x006483c8      6608           bne.b 0x6483d2
   > 0x006483ca      122efefe       move.b -0x102(a6), d1
       0x006483ce      b22e000c       cmp.b 0xc(a6), d1
   < 0x006483d2      6618           bne.b 0x6483ec
       0x006483d4      3200           move.w d0, d1
       0x006483d6      9243           sub.w d3, d1
       0x006483d8      4385           chk.w d5, d1
       0x006483da      b9ecfffc       cmpa.l -0x4(a4), a4
   < 0x006483de      6702           beq.b 0x6483e2
      0x006483e0      4e4d           trap 0xd
  > 0x006483e2      19ae010c1054   move.b 0x10c(a6), 0x54(a4, d1.w)
  < 0x006483e8      60000088       bra.w loc.00648472
  > 0x006483ec      123900847e42   move.b 0x847e42, d1
      0x006483f2      4881           ext.w d1
      0x006483f4      c3fc02d0       muls.w 0x2d0, d1
      0x006483f8      43f900847e32   lea.l 0x847e32, a1
      0x006483fe      b9f11036       cmpa.l 0x36(a1, d1.w), a4
  < 0x00648402      6616           bne.b 0x64841a
     0x00648404      4a311048       tst.b 0x48(a1, d1.w)
  < 0x00648408      6710           beq.b 0x64841a
     0x0064840a      3200           move.w d0, d1
     0x0064840c      9243           sub.w d3, d1
     0x0064840e      4385           chk.w d5, d1
     0x00648410      b9ecfffc       cmpa.l -0x4(a4), a4
  < 0x00648414      6702           beq.b 0x648418
     0x00648416      4e4d           trap 0xd
  < 0x00648418      60c8           bra.b 0x6483e2
  > 0x0064841a      487aa3ac       pea.l 0x6427c8(pc)
       0x0064841e      48780015       pea.l 0x15
       0x00648422      2f17           move.l (a7), -(a7)
       0x00648424      4e93           jsr (a3)                    ; fcn.0000000c
       0x00648426      dec4           adda.w d4, a7
       0x00648428      48c0           ext.l d0
       0x0064842a      2f00           move.l d0, -(a7)
       0x0064842c      48780000       pea.l 0x0
       0x00648430      4eb9004070e4   jsr p_wti_o
       0x00648436      504f           addq.w 0x8, a7
       0x00648438      487aa3a4       pea.l 0x6427de(pc)
       0x0064843c      48780013       pea.l 0x13
       0x00648440      2f17           move.l (a7), -(a7)
       0x00648442      4e93           jsr (a3)                    ; fcn.0000000c
       0x00648444      dec4           adda.w d4, a7
       0x00648446      486e000d       pea.l 0xd(a6)
       0x0064844a      42a7           clr.l -(a7)
       0x0064844c      1f6e000c0003   move.b 0xc(a6), 0x3(a7)
       0x00648452      2f17           move.l (a7), -(a7)
       0x00648454      4e93           jsr (a3)                    ; fcn.0000000c
       0x00648456      dec4           adda.w d4, a7
       0x00648458      4eb900404946   jsr p_wtln_o
       0x0064845e      3200           move.w d0, d1
       0x00648460      9243           sub.w d3, d1
       0x00648462      4385           chk.w d5, d1
       0x00648464      b9ecfffc       cmpa.l -0x4(a4), a4
   < 0x00648468      6702           beq.b loc.0064846c
      0x0064846a      4e4d           trap 0xd
      ; CODE XREF from K9_LIBRARY.k9_set_field_ty @ 0x648334
 6: loc.0064846c ();
  > 0x0064846c      19861054       move.b d6, 0x54(a4, d1.w)
       0x00648470      4210           clr.b (a0)
        ; CODE XREF from K9_LIBRARY.k9_set_field_ty @ 0x6482de
 8: loc.00648472 ();
  > 0x00648472      4cdf1f7f       movem.l (a7)+, d0-d6/a0-a4
           0x00648476      4e5e           unlk a6
           0x00648478      4e75           rts
            ; XREFS: CALL 0x005c93d2  CALL 0x005c949a  CALL 0x005c94b0  
            ; XREFS: CALL 0x005c94c6  CALL 0x005c94de  CALL 0x005c961a  
            ; XREFS: CALL 0x005c965e  
 106: K9_LIBRARY.k9_set_string ();
           0x0064847a      4e56feaa       link.w a6, 0xfeaa
           0x0064847e      bfd5           cmpa.l (a5), a7
       < 0x00648480      6206           bhi.b 0x648488
          0x00648482      44fc0002       move.w 0x2, ccr
          0x00648486      4e76           trapv
       > 0x00648488      defc014e       adda.w 0x14e, a7
           0x0064848c      48e7fef8       movem.l d0-d6/a0-a4, -(a7)
           0x00648490      47ee0008       lea.l 0x8(a6), a3
           0x00648494      49eefffc       lea.l -0x4(a6), a4
           0x00648498      7601           moveq 0x1, d3
           0x0064849a      383c00fc       move.w 0xfc, d4
           0x0064849e      3a3c0100       move.w 0x100, d5
           0x006484a2      7c0c           moveq 0xc, d6
           0x006484a4      28ae000e       move.l 0xe(a6), (a4)
           0x006484a8      2054           movea.l (a4), a0
           0x006484aa      b1e8fffc       cmpa.l -0x4(a0), a0
       < 0x006484ae      6702           beq.b 0x6484b2
          0x006484b0      4e4d           trap 0xd
       > 0x006484b2      2f3a95d0       move.l 0x641a84(pc), -(a7)
           0x006484b6      102e000c       move.b 0xc(a6), d0
           0x006484ba      4880           ext.w d0
           0x006484bc      3200           move.w d0, d1
           0x006484be      e649           lsr.w 0x3, d1
           0x006484c0      01f71000       bset.b d0, (a7, d1.w)
           0x006484c4      22280014       move.l 0x14(a0), d1
           0x006484c8      8297           or.l (a7), d1
           0x006484ca      21410014       move.l d1, 0x14(a0)
           0x006484ce      3400           move.w d0, d2
           0x006484d0      5342           subq.w 0x1, d2
           0x006484d2      0c420014       cmpi.w 0x14, d2
       < 0x006484d6      620001a0       bhi.w 0x648678
          0x006484da      d442           add.w d2, d2
          0x006484dc      343b2006       move.w 0x6484e4(pc, d2.w), d2
          0x006484e0      4efb2002       jmp 0x6484e4(pc, d2.w)
           0x006484e4      002a005a0080   ori.b 0x5a, 0x80(a2)
           0x006484ea      0194           bclr.b d0, (a4)
           0x006484ec      0194           bclr.b d0, (a4)
           0x006484ee      0194           bclr.b d0, (a4)
           0x006484f0      0194           bclr.b d0, (a4)
           0x006484f2      0194           bclr.b d0, (a4)
           0x006484f4      00a001940106   ori.l 0x1940106, -(a0)
           0x006484fa      0106           btst.l d0, d6
           0x006484fc      0106           btst.l d0, d6
           0x006484fe      0106           btst.l d0, d6
           0x00648500      0194           bclr.b d0, (a4)
           0x00648502      0194           bclr.b d0, (a4)
           0x00648504      0194           bclr.b d0, (a4)
           0x00648506      0194           bclr.b d0, (a4)
           0x00648508      0194           bclr.b d0, (a4)
           0x0064850a      00c000e4       
           0x0064850b      c000           and.b d0, d0
           0x0064850d      e414           roxr.b 0x2, d4
           0x0064850f      2800           move.l d0, d4
           0x00648511      12488245       
           0x00648512      4882           ext.w d2
           0x00648514      4583           chk.w d3, d2
           0x00648516      1f02           move.b d2, -(a7)
           0x00648518      2253           movea.l (a3), a1
           0x0064851a      4851           pea.l (a1)
           0x0064851c      48680018       pea.l 0x18(a0)
           0x00648520      9ec5           suba.w d5, a7
           0x00648522      224f           movea.l a7, a1
           0x00648524      45faa2eb       lea.l 0x642811(pc), a2
           0x00648528      7405           moveq 0x5, d2
       > 0x0064852a      12da           move.b (a2)+, (a1)+
       < 0x0064852c      51cafffc       dbra d2, 0x64852a
           0x00648530      4227           clr.b -(a7)
       > 0x00648532      4ebaee42       jsr K9_LIBRARY.may_allocate_st(pc)
          0x00648536      defc0110       adda.w 0x110, a7
      < 0x0064853a      60000158       bra.w 0x648694
         0x0064853e      14280012       move.b 0x12(a0), d2
         0x00648542      4882           ext.w d2
         0x00648544      4583           chk.w d3, d2
         0x00648546      1f02           move.b d2, -(a7)
         0x00648548      2253           movea.l (a3), a1
         0x0064854a      4851           pea.l (a1)
         0x0064854c      4868001c       pea.l 0x1c(a0)
         0x00648550      9ec5           suba.w d5, a7
         0x00648552      224f           movea.l a7, a1
         0x00648554      45faa2c1       lea.l 0x642817(pc), a2
         0x00648558      7404           moveq 0x4, d2
     > 0x0064855a      12da           move.b (a2)+, (a1)+
     < 0x0064855c      51cafffc       dbra d2, 0x64855a
  > 0x00648560      1f03           move.b d3, -(a7)
  < 0x00648562      60ce           bra.b 0x648532
      0x00648564      14280012       move.b 0x12(a0), d2
      0x00648568      4882           ext.w d2
      0x0064856a      4583           chk.w d3, d2
      0x0064856c      1f02           move.b d2, -(a7)
      0x0064856e      2253           movea.l (a3), a1
      0x00648570      4851           pea.l (a1)
      0x00648572      48680020       pea.l 0x20(a0)
      0x00648576      9ec4           suba.w d4, a7
      0x00648578      2f3aa2a2       move.l 0x64281c(pc), -(a7)
      0x0064857c      3f7aa2a20004   move.w 0x642820(pc), 0x4(a7)
  < 0x00648582      60dc           bra.b 0x648560
       0x00648584      14280012       move.b 0x12(a0), d2
       0x00648588      4882           ext.w d2
       0x0064858a      4583           chk.w d3, d2
       0x0064858c      1f02           move.b d2, -(a7)
       0x0064858e      2253           movea.l (a3), a1
       0x00648590      4851           pea.l (a1)
       0x00648592      48680024       pea.l 0x24(a0)
       0x00648596      9ec4           suba.w d4, a7
       0x00648598      2f3aa288       move.l 0x642822(pc), -(a7)
       0x0064859c      1f7aa2880004   move.b 0x642826(pc), 0x4(a7)
   < 0x006485a2      60bc           bra.b 0x648560
        0x006485a4      14280012       move.b 0x12(a0), d2
        0x006485a8      4882           ext.w d2
        0x006485aa      4583           chk.w d3, d2
        0x006485ac      1f02           move.b d2, -(a7)
        0x006485ae      2253           movea.l (a3), a1
        0x006485b0      4851           pea.l (a1)
        0x006485b2      48680028       pea.l 0x28(a0)
        0x006485b6      9ec5           suba.w d5, a7
        0x006485b8      224f           movea.l a7, a1
        0x006485ba      45faa26b       lea.l 0x642827(pc), a2
        0x006485be      7406           moveq 0x6, d2
    > 0x006485c0      12da           move.b (a2)+, (a1)+
    < 0x006485c2      51cafffc       dbra d2, 0x6485c0
    < 0x006485c6      6098           bra.b 0x648560
         0x006485c8      14280012       move.b 0x12(a0), d2
         0x006485cc      4882           ext.w d2
         0x006485ce      4583           chk.w d3, d2
         0x006485d0      1f02           move.b d2, -(a7)
         0x006485d2      2253           movea.l (a3), a1
         0x006485d4      4851           pea.l (a1)
         0x006485d6      4868002c       pea.l 0x2c(a0)
         0x006485da      9ec4           suba.w d4, a7
         0x006485dc      2f3aa250       move.l 0x64282e(pc), -(a7)
         0x006485e0      3f7aa2500004   move.w 0x642832(pc), 0x4(a7)
     < 0x006485e6      6000ff78       bra.w 0x648560
          0x006485ea      554f           subq.w 0x2, a7
          0x006485ec      2f2e000e       move.l 0xe(a6), -(a7)
          0x006485f0      4227           clr.b -(a7)
          0x006485f2      1f00           move.b d0, -(a7)
          0x006485f4      4eb90064c324   jsr K9_LIBRARY.k9_info_type_fi
          0x006485fa      504f           addq.w 0x8, a7
          0x006485fc      141f           move.b (a7)+, d2
          0x006485fe      0c020002       cmpi.b 0x2, d2
      < 0x00648602      6636           bne.b 0x64863a
         0x00648604      14280012       move.b 0x12(a0), d2
         0x00648608      4882           ext.w d2
         0x0064860a      4583           chk.w d3, d2
         0x0064860c      1f02           move.b d2, -(a7)
         0x0064860e      2253           movea.l (a3), a1
         0x00648610      4851           pea.l (a1)
         0x00648612      3400           move.w d0, d2
         0x00648614      0442000b       subi.w 0xb, d2
         0x00648618      45bc0003       chk.w 0x3, d2
         0x0064861c      e542           asl.w 0x2, d2
         0x0064861e      48702058       pea.l 0x58(a0, d2.w)
         0x00648622      9ec4           suba.w d4, a7
         0x00648624      2f3aa20e       move.l 0x642834(pc), -(a7)
         0x00648628      3f7aa20e0004   move.w 0x642838(pc), 0x4(a7)
         0x0064862e      1f03           move.b d3, -(a7)
         0x00648630      4ebaf92c       jsr K9_LIBRARY.may_allocate_ex(pc)
         0x00648634      defc010c       adda.w 0x10c, a7
     < 0x00648638      603a           bra.b 0x648674
     > 0x0064863a      487aa1ff       pea.l 0x64283b(pc)
         0x0064863e      48780006       pea.l 0x6
         0x00648642      2f17           move.l (a7), -(a7)
         0x00648644      4eb9004047ea   jsr p_wts_o
         0x0064864a      dec6           adda.w d6, a7
         0x0064864c      48c0           ext.l d0
         0x0064864e      2f00           move.l d0, -(a7)
         0x00648650      48780000       pea.l 0x0
         0x00648654      4eb9004070e4   jsr p_wti_o
         0x0064865a      504f           addq.w 0x8, a7
         0x0064865c      487aa1e4       pea.l 0x642842(pc)
         0x00648660      48780016       pea.l 0x16
         0x00648664      2f17           move.l (a7), -(a7)
         0x00648666      4eb9004047ea   jsr p_wts_o
         0x0064866c      dec6           adda.w d6, a7
         0x0064866e      4eb900404946   jsr p_wtln_o
     > 0x00648674      584f           addq.w 0x4, a7
      < 0x00648676      601c           bra.b 0x648694
      > 0x00648678      2f3a940a       move.l 0x641a84(pc), -(a7)
          0x0064867c      3400           move.w d0, d2
          0x0064867e      e64a           lsr.w 0x3, d2
          0x00648680      01f72000       bset.b d0, (a7, d2.w)
          0x00648684      241f           move.l (a7)+, d2
          0x00648686      4682           not.l d2
          0x00648688      c481           and.l d1, d2
          0x0064868a      21420014       move.l d2, 0x14(a0)
          0x0064868e      584f           addq.w 0x4, a7
      < 0x00648690      6002           bra.b 0x648694
         0x00648692      584f           addq.w 0x4, a7
         ; CODE XREF from K9_LIBRARY @ +0x6e48
      > 0x00648694      1f2e000c       move.b 0xc(a6), -(a7)
            0x00648698      2f14           move.l (a4), -(a7)
            0x0064869a      4ebafaf0       jsr K9_LIBRARY.check_retitle_c(pc)
            0x0064869e      5c4f           addq.w 0x6, a7
            0x006486a0      4cdf1f7f       movem.l (a7)+, d0-d6/a0-a4
            0x006486a4      4e5e           unlk a6
            0x006486a6      4e75           rts
 192: K9_LIBRARY.vol_str ();
           0x006486a8      4e56fed0       link.w a6, 0xfed0
           0x006486ac      bfd5           cmpa.l (a5), a7
       < 0x006486ae      6206           bhi.b 0x6486b6
          0x006486b0      44fc0002       move.w 0x2, ccr
          0x006486b4      4e76           trapv
       > 0x006486b6      defc002e       adda.w 0x2e, a7
           0x006486ba      48e7c0f8       movem.l d0-d1/a0-a4, -(a7)
           0x006486be      45ee0008       lea.l 0x8(a6), a2
           0x006486c2      47eefefe       lea.l -0x102(a6), a3
           0x006486c6      49eefffe       lea.l -0x2(a6), a4
           0x006486ca      720c           moveq 0xc, d1
           0x006486cc      554f           subq.w 0x2, a7
           0x006486ce      4227           clr.b -(a7)
           0x006486d0      2f12           move.l (a2), -(a7)
           0x006486d2      1f3c0001       move.b 0x1, -(a7)
           0x006486d6      4853           pea.l (a3)
           0x006486d8      4eb9005a27e6   jsr K04_FILEROPS.k_str_info
           0x006486de      dec1           adda.w d1, a7
           0x006486e0      389f           move.w (a7)+, (a4)
           0x006486e2      1014           move.b (a4), d0
           0x006486e4      b03aa173       cmp.b 0x642859(pc), d0
       < 0x006486e8      6608           bne.b 0x6486f2
          0x006486ea      102effff       move.b -0x1(a6), d0
          0x006486ee      b03aa16a       cmp.b 0x64285a(pc), d0
      > 0x006486f2      675e           beq.b 0x648752
          0x006486f4      487aa166       pea.l 0x64285c(pc)
          0x006486f8      48780007       pea.l 0x7
          0x006486fc      2f17           move.l (a7), -(a7)
          0x006486fe      4eb9004047ea   jsr p_wts_o
          0x00648704      dec1           adda.w d1, a7
          0x00648706      4854           pea.l (a4)
          0x00648708      48780002       pea.l 0x2
          0x0064870c      2f17           move.l (a7), -(a7)
          0x0064870e      4eb9004047ea   jsr p_wts_o
          0x00648714      dec1           adda.w d1, a7
          0x00648716      487aa14c       pea.l 0x642864(pc)
          0x0064871a      4878001a       pea.l 0x1a
          0x0064871e      2f17           move.l (a7), -(a7)
          0x00648720      4eb9004047ea   jsr p_wts_o
          0x00648726      504f           addq.w 0x8, a7
          0x00648728      2e92           move.l (a2), (a7)
          0x0064872a      4878ffff       pea.l 0xffff
          0x0064872e      4eb9004070e4   jsr p_wti_o
          0x00648734      504f           addq.w 0x8, a7
          0x00648736      4eb900404946   jsr p_wtln_o
          0x0064873c      2f12           move.l (a2), -(a7)
          0x0064873e      4878ffff       pea.l 0xffff
          0x00648742      4853           pea.l (a3)
          0x00648744      3f3c00ff       move.w 0xff, -(a7)
          0x00648748      4eb900406e56   jsr p_strI1
          0x0064874e      defc000e       adda.w 0xe, a7
      > 0x00648752      41ee000c       lea.l 0xc(a6), a0
           0x00648756      224b           movea.l a3, a1
           0x00648758      703f           moveq 0x3f, d0
       > 0x0064875a      20d9           move.l (a1)+, (a0)+
       < 0x0064875c      51c8fffc       dbra d0, 0x64875a
           0x00648760      4cdf1f03       movem.l (a7)+, d0-d1/a0-a4
           0x00648764      4e5e           unlk a6
           0x00648766      4e75           rts
            ; CALL XREF from K92_DISPLAY.display_browse @ 0x653e9a
            ; CALL XREF from K92_DISPLAY.display_title @ 0x6599f6
 82: K9_LIBRARY.k9_read_string ();
           0x00648768      4e56fdb6       link.w a6, 0xfdb6
           0x0064876c      bfd5           cmpa.l (a5), a7
       < 0x0064876e      6206           bhi.b 0x648776
          0x00648770      44fc0002       move.w 0x2, ccr
          0x00648774      4e76           trapv
       > 0x00648776      defc023e       adda.w 0x23e, a7
           0x0064877a      48e7fff8       movem.l d0-d7/a0-a4, -(a7)
           0x0064877e      283c000000ff   move.l 0xff, d4
           0x00648784      7a03           moveq 0x3, d5
           0x00648786      3c3c0100       move.w 0x100, d6
           0x0064878a      286e0012       movea.l 0x12(a6), a4
           0x0064878e      206e000c       movea.l 0xc(a6), a0
           0x00648792      10baa0ea       move.b 0x64287e(pc), (a0)
           0x00648796      b9ecfffc       cmpa.l -0x4(a4), a4
       < 0x0064879a      6702           beq.b 0x64879e
          0x0064879c      4e4d           trap 0xd
       > 0x0064879e      102e0010       move.b 0x10(a6), d0
           0x006487a2      4880           ext.w d0
           0x006487a4      3200           move.w d0, d1
           0x006487a6      5341           subq.w 0x1, d1
           0x006487a8      0c410014       cmpi.w 0x14, d1
       < 0x006487ac      6302           bls.b 0x6487b0
          0x006487ae      4e4e           trap 0xe
       > 0x006487b0      d241           add.w d1, d1
           0x006487b2      323b1006       move.w 0x6487ba(pc, d1.w), d1
           0x006487b6      4efb1002       jmp 0x6487ba(pc, d1.w)
            0x006487ba      002a003a0040   ori.b 0x3a, 0x40(a2)
            0x006487c0      fff4           invalid
            0x006487c2      fff4           invalid
            0x006487c4      0058fff4       ori.w 0xfff4, (a0)+
            0x006487c8      fff4           invalid
            0x006487ca      0046fff4       ori.w 0xfff4, d6
            0x006487ce      013c013c013c   btst.l d0, 0x13c013c
            0x006487d4      013cfff4fff4   btst.l d0, 0xfff4fff4
            0x006487da      fff4           invalid
            0x006487dc      fff4           invalid
            0x006487de      fff4           invalid
            0x006487e0      004c0052       
            0x006487e1      4c00522f       
            0x006487e2      00522f2c       ori.w 0x2f2c, (a2)
            0x006487e6      00184850       ori.b 0x50, (a0)+
       0x006487ea      4ebaecaa       jsr K9_LIBRARY.get_string(pc)
       0x006487ee      504f           addq.w 0x8, a7
   < 0x006487f0      600001a0       bra.w 0x648992
      0x006487f4      2f2c001c       move.l 0x1c(a4), -(a7)
   < 0x006487f8      60ee           bra.b 0x6487e8
       0x006487fa      2f2c0020       move.l 0x20(a4), -(a7)
    < 0x006487fe      60e8           bra.b 0x6487e8
        0x00648800      2f2c0024       move.l 0x24(a4), -(a7)
     < 0x00648804      60e2           bra.b 0x6487e8
         0x00648806      2f2c0028       move.l 0x28(a4), -(a7)
      < 0x0064880a      60dc           bra.b 0x6487e8
          0x0064880c      2f2c002c       move.l 0x2c(a4), -(a7)
       < 0x00648810      60d6           bra.b 0x6487e8
           0x00648812      2f2c0024       move.l 0x24(a4), -(a7)
           0x00648816      4850           pea.l (a0)
           0x00648818      4ebaec7c       jsr K9_LIBRARY.get_string(pc)
           0x0064881c      504f           addq.w 0x8, a7
           0x0064881e      4241           clr.w d1
           0x00648820      1210           move.b (a0), d1
       < 0x00648822      6302           bls.b 0x648826
          0x00648824      7200           moveq 0x0, d1
       > 0x00648826      5301           subq.b 0x1, d1
       < 0x00648828      6510           bcs.b 0x64883a
          0x0064882a      43e80001       lea.l 0x1(a0), a1
          0x0064882e      45faa073       lea.l 0x6428a3(pc), a2
      > 0x00648832      b30a           cmpm.b (a2)+, (a1)+
      < 0x00648834      56c9fffc       dbne d1, 0x648832
      < 0x00648838      6602           bne.b 0x64883c
      > 0x0064883a      1210           move.b (a0), d1
      < 0x0064883c      674e           beq.b 0x64888c
          0x0064883e      9ec6           suba.w d6, a7
          0x00648840      7202           moveq 0x2, d1
          0x00648842      43ef0001       lea.l 0x1(a7), a1
          0x00648846      45faa05c       lea.l 0x6428a4(pc), a2
      > 0x0064884a      12da           move.b (a2)+, (a1)+
      < 0x0064884c      51c9fffc       dbra d1, 0x64884a
          0x00648850      4241           clr.w d1
          0x00648852      1210           move.b (a0), d1
          0x00648854      5601           addq.b 0x3, d1
      < 0x00648856      6406           bcc.b 0x64885e
         0x00648858      4eb900406c8a   jsr p_strovr
      > 0x0064885e      4241           clr.w d1
          0x00648860      1210           move.b (a0), d1
          0x00648862      3404           move.w d4, d2
          0x00648864      5742           subq.w 0x3, d2
          0x00648866      b242           cmp.w d2, d1
      < 0x00648868      6302           bls.b 0x64886c
         0x0064886a      3202           move.w d2, d1
      > 0x0064886c      1e85           move.b d5, (a7)
          0x0064886e      d317           add.b d1, (a7)
          0x00648870      5301           subq.b 0x1, d1
      < 0x00648872      650a           bcs.b 0x64887e
         0x00648874      45e80001       lea.l 0x1(a0), a2
     > 0x00648878      12da           move.b (a2)+, (a1)+
     < 0x0064887a      51c9fffc       dbra d1, 0x648878
      > 0x0064887e      2248           movea.l a0, a1
          0x00648880      244f           movea.l a7, a2
          0x00648882      3204           move.w d4, d1
      > 0x00648884      12da           move.b (a2)+, (a1)+
      < 0x00648886      51c9fffc       dbra d1, 0x648884
          0x0064888a      dec6           adda.w d6, a7
       > 0x0064888c      9ec6           suba.w d6, a7
           0x0064888e      2f2c0008       move.l 0x8(a4), -(a7)
           0x00648892      4ebafe14       jsr K9_LIBRARY.vol_str(pc)
           0x00648896      9efc00fc       suba.w 0xfc, a7
           0x0064889a      4241           clr.w d1
           0x0064889c      122f0100       move.b 0x100(a7), d1
           0x006488a0      3401           move.w d1, d2
           0x006488a2      43ef0001       lea.l 0x1(a7), a1
           0x006488a6      5302           subq.b 0x1, d2
       < 0x006488a8      650a           bcs.b 0x6488b4
          0x006488aa      45ef0101       lea.l 0x101(a7), a2
      > 0x006488ae      12da           move.b (a2)+, (a1)+
      < 0x006488b0      51cafffc       dbra d2, 0x6488ae
       > 0x006488b4      4242           clr.w d2
           0x006488b6      1410           move.b (a0), d2
           0x006488b8      d401           add.b d1, d2
       < 0x006488ba      6406           bcc.b 0x6488c2
          0x006488bc      4eb900406c8a   jsr p_strovr
       > 0x006488c2      4242           clr.w d2
           0x006488c4      1410           move.b (a0), d2
           0x006488c6      3604           move.w d4, d3
           0x006488c8      9641           sub.w d1, d3
           0x006488ca      b443           cmp.w d3, d2
       < 0x006488cc      6302           bls.b 0x6488d0
          0x006488ce      3403           move.w d3, d2
       > 0x006488d0      1e81           move.b d1, (a7)
           0x006488d2      d517           add.b d2, (a7)
           0x006488d4      5302           subq.b 0x1, d2
       < 0x006488d6      650a           bcs.b 0x6488e2
          0x006488d8      45e80001       lea.l 0x1(a0), a2
      > 0x006488dc      12da           move.b (a2)+, (a1)+
      < 0x006488de      51cafffc       dbra d2, 0x6488dc
       > 0x006488e2      2248           movea.l a0, a1
           0x006488e4      244f           movea.l a7, a2
           0x006488e6      3204           move.w d4, d1
       > 0x006488e8      12da           move.b (a2)+, (a1)+
       < 0x006488ea      51c9fffc       dbra d1, 0x6488e8
           0x006488ee      defc0200       adda.w 0x200, a7
       < 0x006488f2      6000009e       bra.w 0x648992
          0x006488f6      3200           move.w d0, d1
          0x006488f8      0441000b       subi.w 0xb, d1
          0x006488fc      4385           chk.w d5, d1
          0x006488fe      4a341054       tst.b 0x54(a4, d1.w)
      < 0x00648902      6608           bne.b 0x64890c
         0x00648904      10ba9fb9       move.b 0x6428bf(pc), (a0)
     < 0x00648908      60000088       bra.w 0x648992
     > 0x0064890c      14341054       move.b 0x54(a4, d1.w), d2
         0x00648910      0c020002       cmpi.b 0x2, d2
     < 0x00648914      672a           beq.b 0x648940
        0x00648916      487a9fa9       pea.l 0x6428c1(pc)
        0x0064891a      48780019       pea.l 0x19
        0x0064891e      2f17           move.l (a7), -(a7)
        0x00648920      4eb9004047ea   jsr p_wts_o
        0x00648926      defc000c       adda.w 0xc, a7
        0x0064892a      4eb900404946   jsr p_wtln_o
        0x00648930      2248           movea.l a0, a1
        0x00648932      45fa9fa6       lea.l 0x6428da(pc), a2
        0x00648936      7419           moveq 0x19, d2
    > 0x00648938      12da           move.b (a2)+, (a1)+
    < 0x0064893a      51cafffc       dbra d2, 0x648938
    < 0x0064893e      6052           bra.b 0x648992
    > 0x00648940      3401           move.w d1, d2
        0x00648942      e542           asl.w 0x2, d2
        0x00648944      22742058       movea.l 0x58(a4, d2.w), a1
        0x00648948      b2fc0001       cmpa.w 0x1, a1
    < 0x0064894c      6744           beq.b 0x648992
       0x0064894e      246e000c       movea.l 0xc(a6), a2
       0x00648952      b3e9fffc       cmpa.l -0x4(a1), a1
   < 0x00648956      6702           beq.b 0x64895a
      0x00648958      4e4d           trap 0xd
   > 0x0064895a      4282           clr.l d2
       0x0064895c      1411           move.b (a1), d2
       0x0064895e      2f02           move.l d2, -(a7)
       0x00648960      7e00           moveq 0x0, d7
   > 0x00648962      be97           cmp.l (a7), d7
  < 0x00648964      6e2a           bgt.b 0x648990
     0x00648966      be84           cmp.l d4, d7
  < 0x00648968      6302           bls.b 0x64896c
     0x0064896a      4e4f           trap 0xf
  > 0x0064896c      142e0010       move.b 0x10(a6), d2
     0x00648970      4882           ext.w d2
     0x00648972      0442000b       subi.w 0xb, d2
     0x00648976      4585           chk.w d5, d2
     0x00648978      e542           asl.w 0x2, d2
     0x0064897a      26742058       movea.l 0x58(a4, d2.w), a3
     0x0064897e      b7ebfffc       cmpa.l -0x4(a3), a3
  < 0x00648982      6702           beq.b 0x648986
     0x00648984      4e4d           trap 0xd
  > 0x00648986      15b378007800   move.b (a3, d7.l), (a2, d7.l)
     0x0064898c      5287           addq.l 0x1, d7
  < 0x0064898e      68d2           bvc.b 0x648962
  > 0x00648990      584f           addq.w 0x4, a7
   > 0x00648992      103900847e42   move.b 0x847e42, d0
            0x00648998      4880           ext.w d0
            0x0064899a      c1fc02d0       muls.w 0x2d0, d0
            0x0064899e      41f900847e32   lea.l 0x847e32, a0
            0x006489a4      b9f00036       cmpa.l 0x36(a0, d0.w), a4
        < 0x006489a8      660a           bne.b 0x6489b4
           0x006489aa      226e0008       movea.l 0x8(a6), a1
           0x006489ae      22b00040       move.l 0x40(a0, d0.w), (a1)
       < 0x006489b2      600a           bra.b 0x6489be
       > 0x006489b4      226e0008       movea.l 0x8(a6), a1
           0x006489b8      22bcffffffff   move.l 0xffffffff, (a1)
       > 0x006489be      4cdf1fff       movem.l (a7)+, d0-d7/a0-a4
            0x006489c2      4e5e           unlk a6
            0x006489c4      4e75           rts
            ; CALL XREF from AFS2_LIB.set_fields @ 0x5c9508
 208: K9_LIBRARY.k9_set_block ();
           0x006489c6      4e56fec0       link.w a6, 0xfec0
           0x006489ca      bfd5           cmpa.l (a5), a7
       < 0x006489cc      6206           bhi.b 0x6489d4
          0x006489ce      44fc0002       move.w 0x2, ccr
          0x006489d2      4e76           trapv
       > 0x006489d4      defc0134       adda.w 0x134, a7
           0x006489d8      48e7e0e0       movem.l d0-d2/a0-a2, -(a7)
           0x006489dc      45eefffc       lea.l -0x4(a6), a2
           0x006489e0      24ae000e       move.l 0xe(a6), (a2)
           0x006489e4      103900847e42   move.b 0x847e42, d0
           0x006489ea      4880           ext.w d0
           0x006489ec      c1fc02d0       muls.w 0x2d0, d0
           0x006489f0      41f900847e32   lea.l 0x847e32, a0
           0x006489f6      2252           movea.l (a2), a1
           0x006489f8      b3f00036       cmpa.l 0x36(a0, d0.w), a1
       < 0x006489fc      670e           beq.b 0x648a0c
          0x006489fe      226e0008       movea.l 0x8(a6), a1
          0x00648a02      4851           pea.l (a1)
          0x00648a04      4eb90065e262   jsr K94_DESCRIPTION.k94_desc_check
          0x00648a0a      584f           addq.w 0x4, a7
       > 0x00648a0c      2052           movea.l (a2), a0
           0x00648a0e      b1e8fffc       cmpa.l -0x4(a0), a0
       < 0x00648a12      6702           beq.b 0x648a16
          0x00648a14      4e4d           trap 0xd
       > 0x00648a16      2f3a906c       move.l 0x641a84(pc), -(a7)
           0x00648a1a      102e000c       move.b 0xc(a6), d0
           0x00648a1e      4880           ext.w d0
           0x00648a20      3200           move.w d0, d1
           0x00648a22      e649           lsr.w 0x3, d1
           0x00648a24      01f71000       bset.b d0, (a7, d1.w)
           0x00648a28      22280014       move.l 0x14(a0), d1
           0x00648a2c      8297           or.l (a7), d1
           0x00648a2e      21410014       move.l d1, 0x14(a0)
           0x00648a32      0c400008       cmpi.w 0x8, d0
       < 0x00648a36      6702           beq.b 0x648a3a
      < 0x00648a38      602e           bra.b 0x648a68
      > 0x00648a3a      14280012       move.b 0x12(a0), d2
          0x00648a3e      4882           ext.w d2
          0x00648a40      45bc0001       chk.w 0x1, d2
          0x00648a44      1f02           move.b d2, -(a7)
          0x00648a46      226e0008       movea.l 0x8(a6), a1
          0x00648a4a      4851           pea.l (a1)
          0x00648a4c      48680038       pea.l 0x38(a0)
          0x00648a50      9efc00fc       suba.w 0xfc, a7
          0x00648a54      2f3a9ec0       move.l 0x642916(pc), -(a7)
          0x00648a58      1f7a9ec00004   move.b 0x64291a(pc), 0x4(a7)
          0x00648a5e      4ebaf2ea       jsr K9_LIBRARY.may_allocate_de(pc)
          0x00648a62      defc010e       adda.w 0x10e, a7
      < 0x00648a66      601c           bra.b 0x648a84
      > 0x00648a68      2f3a901a       move.l 0x641a84(pc), -(a7)
          0x00648a6c      3400           move.w d0, d2
          0x00648a6e      e64a           lsr.w 0x3, d2
          0x00648a70      01f72000       bset.b d0, (a7, d2.w)
          0x00648a74      241f           move.l (a7)+, d2
          0x00648a76      4682           not.l d2
          0x00648a78      c481           and.l d1, d2
          0x00648a7a      21420014       move.l d2, 0x14(a0)
          0x00648a7e      584f           addq.w 0x4, a7
      < 0x00648a80      6002           bra.b 0x648a84
          0x00648a82      584f           addq.w 0x4, a7
      > 0x00648a84      1f2e000c       move.b 0xc(a6), -(a7)
           0x00648a88      2f12           move.l (a2), -(a7)
           0x00648a8a      4ebaf700       jsr K9_LIBRARY.check_retitle_c(pc)
           0x00648a8e      5c4f           addq.w 0x6, a7
           0x00648a90      4cdf0707       movem.l (a7)+, d0-d2/a0-a2
           0x00648a94      4e5e           unlk a6
           0x00648a96      4e75           rts
 298: K9_LIBRARY.k9_read_block ();
           0x00648a98      4e56ffc0       link.w a6, 0xffc0
           0x00648a9c      bfd5           cmpa.l (a5), a7
       < 0x00648a9e      6206           bhi.b 0x648aa6
          0x00648aa0      44fc0002       move.w 0x2, ccr
          0x00648aa4      4e76           trapv
       > 0x00648aa6      defc0034       adda.w 0x34, a7
           0x00648aaa      48e781f8       movem.l d0/d7/a0-a4, -(a7)
           0x00648aae      47ee000c       lea.l 0xc(a6), a3
           0x00648ab2      286e0012       movea.l 0x12(a6), a4
           0x00648ab6      b9ecfffc       cmpa.l -0x4(a4), a4
       < 0x00648aba      6702           beq.b 0x648abe
          0x00648abc      4e4d           trap 0xd
       > 0x00648abe      102e0010       move.b 0x10(a6), d0
           0x00648ac2      0c000008       cmpi.b 0x8, d0
       < 0x00648ac6      6702           beq.b 0x648aca
          0x00648ac8      4e4e           trap 0xe
       > 0x00648aca      206c0038       movea.l 0x38(a4), a0
           0x00648ace      b0fc0001       cmpa.w 0x1, a0
       < 0x00648ad2      67000092       beq.w 0x648b66
          0x00648ad6      b1e8fffc       cmpa.l -0x4(a0), a0
      < 0x00648ada      6702           beq.b 0x648ade
         0x00648adc      4e4d           trap 0xd
      > 0x00648ade      3010           move.w (a0), d0
          0x00648ae0      02800000ffff   andi.l 0xffff, d0
          0x00648ae6      2e00           move.l d0, d7
      < 0x00648ae8      6d18           blt.b 0x648b02
         0x00648aea      0c87000003fe   cmpi.l 0x3fe, d7
     < 0x00648af0      6e10           bgt.b 0x648b02
        0x00648af2      2253           movea.l (a3), a1
        0x00648af4      0c870000ffff   cmpi.l 0xffff, d7
    < 0x00648afa      6302           bls.b 0x648afe
       0x00648afc      4e4f           trap 0xf
    > 0x00648afe      3287           move.w d7, (a1)
    < 0x00648b00      602c           bra.b 0x648b2e
    > 0x00648b02      487a9e4c       pea.l 0x642950(pc)
         0x00648b06      4878001f       pea.l 0x1f
         0x00648b0a      2f17           move.l (a7), -(a7)
         0x00648b0c      4eb9004047ea   jsr p_wts_o
         0x00648b12      504f           addq.w 0x8, a7
         0x00648b14      2e87           move.l d7, (a7)
         0x00648b16      48780000       pea.l 0x0
         0x00648b1a      4eb9004070e4   jsr p_wti_o
         0x00648b20      504f           addq.w 0x8, a7
         0x00648b22      4eb900404946   jsr p_wtln_o
         0x00648b28      2253           movea.l (a3), a1
         0x00648b2a      32bc03fe       move.w 0x3fe, (a1)
    > 0x00648b2e      2253           movea.l (a3), a1
          0x00648b30      2453           movea.l (a3), a2
          0x00648b32      4280           clr.l d0
          0x00648b34      3012           move.w (a2), d0
          0x00648b36      2f00           move.l d0, -(a7)
          0x00648b38      7e01           moveq 0x1, d7
      > 0x00648b3a      be97           cmp.l (a7), d7
     < 0x00648b3c      6e24           bgt.b 0x648b62
        0x00648b3e      2007           move.l d7, d0
        0x00648b40      5380           subq.l 0x1, d0
        0x00648b42      0c80000003fd   cmpi.l 0x3fd, d0
    < 0x00648b48      6302           bls.b 0x648b4c
       0x00648b4a      4e4f           trap 0xf
    > 0x00648b4c      246c0038       movea.l 0x38(a4), a2
        0x00648b50      b5eafffc       cmpa.l -0x4(a2), a2
    < 0x00648b54      6702           beq.b 0x648b58
       0x00648b56      4e4d           trap 0xd
    > 0x00648b58      13b208020802   move.b 0x2(a2, d0.l), 0x2(a1, d0.l)
        0x00648b5e      5287           addq.l 0x1, d7
     < 0x00648b60      68d8           bvc.b 0x648b3a
     > 0x00648b62      584f           addq.w 0x4, a7
      < 0x00648b64      6004           bra.b 0x648b6a
      > 0x00648b66      2053           movea.l (a3), a0
          0x00648b68      4250           clr.w (a0)
      > 0x00648b6a      103900847e42   move.b 0x847e42, d0
           0x00648b70      4880           ext.w d0
           0x00648b72      c1fc02d0       muls.w 0x2d0, d0
           0x00648b76      41f900847e32   lea.l 0x847e32, a0
           0x00648b7c      b9f00036       cmpa.l 0x36(a0, d0.w), a4
       < 0x00648b80      670c           beq.b 0x648b8e
          0x00648b82      2253           movea.l (a3), a1
          0x00648b84      4851           pea.l (a1)
          0x00648b86      4eb90065e262   jsr K94_DESCRIPTION.k94_desc_check
          0x00648b8c      584f           addq.w 0x4, a7
       > 0x00648b8e      103900847e42   move.b 0x847e42, d0
           0x00648b94      4880           ext.w d0
           0x00648b96      c1fc02d0       muls.w 0x2d0, d0
           0x00648b9a      41f900847e32   lea.l 0x847e32, a0
           0x00648ba0      b9f00036       cmpa.l 0x36(a0, d0.w), a4
       < 0x00648ba4      660a           bne.b 0x648bb0
          0x00648ba6      226e0008       movea.l 0x8(a6), a1
          0x00648baa      22b00040       move.l 0x40(a0, d0.w), (a1)
      < 0x00648bae      600a           bra.b 0x648bba
      > 0x00648bb0      226e0008       movea.l 0x8(a6), a1
          0x00648bb4      22bcffffffff   move.l 0xffffffff, (a1)
      > 0x00648bba      4cdf1f81       movem.l (a7)+, d0/d7/a0-a4
           0x00648bbe      4e5e           unlk a6
           0x00648bc0      4e75           rts
 154: K9_LIBRARY.k9_read_ptr_blo ();
           0x00648bc2      4e56ffce       link.w a6, 0xffce
           0x00648bc6      bfd5           cmpa.l (a5), a7
       < 0x00648bc8      6206           bhi.b 0x648bd0
          0x00648bca      44fc0002       move.w 0x2, ccr
          0x00648bce      4e76           trapv
       > 0x00648bd0      defc002e       adda.w 0x2e, a7
           0x00648bd4      48e780f8       movem.l d0/a0-a4, -(a7)
           0x00648bd8      47f900847e42   lea.l 0x847e42, a3
           0x00648bde      286e0012       movea.l 0x12(a6), a4
           0x00648be2      b9ecfffc       cmpa.l -0x4(a4), a4
       < 0x00648be6      6702           beq.b 0x648bea
          0x00648be8      4e4d           trap 0xd
       > 0x00648bea      102e0010       move.b 0x10(a6), d0
           0x00648bee      0c000008       cmpi.b 0x8, d0
       < 0x00648bf2      6702           beq.b 0x648bf6
          0x00648bf4      4e4e           trap 0xe
       > 0x00648bf6      206e000c       movea.l 0xc(a6), a0
           0x00648bfa      20ac0038       move.l 0x38(a4), (a0)
           0x00648bfe      1013           move.b (a3), d0
           0x00648c00      4880           ext.w d0
           0x00648c02      c1fc02d0       muls.w 0x2d0, d0
           0x00648c06      43f900847e32   lea.l 0x847e32, a1
           0x00648c0c      b9f10036       cmpa.l 0x36(a1, d0.w), a4
       < 0x00648c10      671a           beq.b 0x648c2c
          0x00648c12      2450           movea.l (a0), a2
          0x00648c14      b4fc0001       cmpa.w 0x1, a2
      < 0x00648c18      6712           beq.b 0x648c2c
         0x00648c1a      b5eafffc       cmpa.l -0x4(a2), a2
     < 0x00648c1e      6702           beq.b 0x648c22
        0x00648c20      4e4d           trap 0xd
     > 0x00648c22      4852           pea.l (a2)
         0x00648c24      4eb90065e262   jsr K94_DESCRIPTION.k94_desc_check
         0x00648c2a      584f           addq.w 0x4, a7
      > 0x00648c2c      1013           move.b (a3), d0
           0x00648c2e      4880           ext.w d0
           0x00648c30      c1fc02d0       muls.w 0x2d0, d0
           0x00648c34      41f900847e32   lea.l 0x847e32, a0
           0x00648c3a      b9f00036       cmpa.l 0x36(a0, d0.w), a4
       < 0x00648c3e      660a           bne.b 0x648c4a
          0x00648c40      226e0008       movea.l 0x8(a6), a1
          0x00648c44      22b00040       move.l 0x40(a0, d0.w), (a1)
      < 0x00648c48      600a           bra.b 0x648c54
      > 0x00648c4a      226e0008       movea.l 0x8(a6), a1
          0x00648c4e      22bcffffffff   move.l 0xffffffff, (a1)
      > 0x00648c54      4cdf1f01       movem.l (a7)+, d0/a0-a4
           0x00648c58      4e5e           unlk a6
           0x00648c5a      4e75           rts
            ; CALL XREF from AFS2_LIB.set_udf @ 0x5c93f0
            ; CALL XREFS from AFS2_LIB.set_fields @ 0x5c953e, 0x5c9642
 96: K9_LIBRARY.k9_set_time ();
           0x00648c5c      4e56feb8       link.w a6, 0xfeb8
           0x00648c60      bfd5           cmpa.l (a5), a7
       < 0x00648c62      6206           bhi.b 0x648c6a
          0x00648c64      44fc0002       move.w 0x2, ccr
          0x00648c68      4e76           trapv
       > 0x00648c6a      defc0144       adda.w 0x144, a7
           0x00648c6e      48e7f0f8       movem.l d0-d3/a0-a4, -(a7)
           0x00648c72      47eefffc       lea.l -0x4(a6), a3
           0x00648c76      49ee0008       lea.l 0x8(a6), a4
           0x00648c7a      760c           moveq 0xc, d3
           0x00648c7c      26ae0012       move.l 0x12(a6), (a3)
           0x00648c80      2053           movea.l (a3), a0
           0x00648c82      b1e8fffc       cmpa.l -0x4(a0), a0
       < 0x00648c86      6702           beq.b 0x648c8a
          0x00648c88      4e4d           trap 0xd
       > 0x00648c8a      2f3a8df8       move.l 0x641a84(pc), -(a7)
           0x00648c8e      102e0010       move.b 0x10(a6), d0
           0x00648c92      4880           ext.w d0
           0x00648c94      3200           move.w d0, d1
           0x00648c96      e649           lsr.w 0x3, d1
           0x00648c98      01f71000       bset.b d0, (a7, d1.w)
           0x00648c9c      22280014       move.l 0x14(a0), d1
           0x00648ca0      8297           or.l (a7), d1
           0x00648ca2      21410014       move.l d1, 0x14(a0)
           0x00648ca6      3400           move.w d0, d2
           0x00648ca8      5942           subq.w 0x4, d2
           0x00648caa      0c42000f       cmpi.w 0xf, d2
       < 0x00648cae      620000ea       bhi.w 0x648d9a
          0x00648cb2      d442           add.w d2, d2
          0x00648cb4      343b2006       move.w 0x648cbc(pc, d2.w), d2
          0x00648cb8      4efb2002       jmp 0x648cbc(pc, d2.w)
           0x00648cbc      002000de       ori.b 0xde, -(a0)
           0x00648cc0      00de00de       
           0x00648cc1      de00           add.b d0, d7
           0x00648cc3      de00           add.b d0, d7
           0x00648cc5      de00           add.b d0, d7
           0x00648cc7      de00           add.b d0, d7
           0x00648cc9      de00           add.b d0, d7
           0x00648ccb      4800           nbcd.b d0
           0x00648ccd      4800           nbcd.b d0
           0x00648ccf      4800           nbcd.b d0
           0x00648cd1      4800           nbcd.b d0
           0x00648cd3      de00           add.b d0, d7
           0x00648cd5      de00           add.b d0, d7
           0x00648cd7      de00           add.b d0, d7
           0x00648cd9      de00           add.b d0, d7
           0x00648cdb      3443           movea.w d3, a2
           0x00648cdd      e800           asr.b 0x4, d0
           0x00648cdf      3c24           move.w -(a4), d6
           0x00648ce1      4c740712       
           0x00648ce2      7407           moveq 0x7, d2
       > 0x00648ce4      12da           move.b (a2)+, (a1)+
       < 0x00648ce6      51cafffc       dbra d2, 0x648ce4
           0x00648cea      584f           addq.w 0x4, a7
       < 0x00648cec      600000c8       bra.w 0x648db6
          0x00648cf0      43e80044       lea.l 0x44(a0), a1
          0x00648cf4      244c           movea.l a4, a2
          0x00648cf6      7407           moveq 0x7, d2
      > 0x00648cf8      12da           move.b (a2)+, (a1)+
      < 0x00648cfa      51cafffc       dbra d2, 0x648cf8
          0x00648cfe      584f           addq.w 0x4, a7
      < 0x00648d00      600000b4       bra.w 0x648db6
         0x00648d04      554f           subq.w 0x2, a7
         0x00648d06      2f2e0012       move.l 0x12(a6), -(a7)
         0x00648d0a      4227           clr.b -(a7)
         0x00648d0c      1f00           move.b d0, -(a7)
         0x00648d0e      4eb90064c324   jsr K9_LIBRARY.k9_info_type_fi
         0x00648d14      504f           addq.w 0x8, a7
         0x00648d16      141f           move.b (a7)+, d2
         0x00648d18      0c02000a       cmpi.b 0xa, d2
     < 0x00648d1c      663e           bne.b 0x648d5c
        0x00648d1e      14280012       move.b 0x12(a0), d2
        0x00648d22      4882           ext.w d2
        0x00648d24      45bc0001       chk.w 0x1, d2
        0x00648d28      1f02           move.b d2, -(a7)
        0x00648d2a      2f2e000c       move.l 0xc(a6), -(a7)
        0x00648d2e      2f14           move.l (a4), -(a7)
        0x00648d30      3400           move.w d0, d2
        0x00648d32      0442000b       subi.w 0xb, d2
        0x00648d36      45bc0003       chk.w 0x3, d2
        0x00648d3a      e542           asl.w 0x2, d2
        0x00648d3c      48702058       pea.l 0x58(a0, d2.w)
        0x00648d40      9efc0100       suba.w 0x100, a7
        0x00648d44      224f           movea.l a7, a1
        0x00648d46      45fa9c7d       lea.l 0x6429c5(pc), a2
        0x00648d4a      7405           moveq 0x5, d2
    > 0x00648d4c      12da           move.b (a2)+, (a1)+
    < 0x00648d4e      51cafffc       dbra d2, 0x648d4c
        0x00648d52      4ebaf2da       jsr 0x64802e(pc)
        0x00648d56      defc010e       adda.w 0x10e, a7
    < 0x00648d5a      603a           bra.b 0x648d96
    > 0x00648d5c      487a9c6e       pea.l 0x6429cc(pc)
        0x00648d60      48780006       pea.l 0x6
        0x00648d64      2f17           move.l (a7), -(a7)
        0x00648d66      4eb9004047ea   jsr p_wts_o
        0x00648d6c      dec3           adda.w d3, a7
        0x00648d6e      48c0           ext.l d0
        0x00648d70      2f00           move.l d0, -(a7)
        0x00648d72      48780000       pea.l 0x0
        0x00648d76      4eb9004070e4   jsr p_wti_o
        0x00648d7c      504f           addq.w 0x8, a7
        0x00648d7e      487a9c53       pea.l 0x6429d3(pc)
        0x00648d82      48780016       pea.l 0x16
        0x00648d86      2f17           move.l (a7), -(a7)
        0x00648d88      4eb9004047ea   jsr p_wts_o
        0x00648d8e      dec3           adda.w d3, a7
        0x00648d90      4eb900404946   jsr p_wtln_o
    > 0x00648d96      584f           addq.w 0x4, a7
     < 0x00648d98      601c           bra.b 0x648db6
     > 0x00648d9a      2f3a8ce8       move.l 0x641a84(pc), -(a7)
         0x00648d9e      3400           move.w d0, d2
         0x00648da0      e64a           lsr.w 0x3, d2
         0x00648da2      01f72000       bset.b d0, (a7, d2.w)
         0x00648da6      241f           move.l (a7)+, d2
         0x00648da8      4682           not.l d2
         0x00648daa      c481           and.l d1, d2
         0x00648dac      21420014       move.l d2, 0x14(a0)
         0x00648db0      584f           addq.w 0x4, a7
     < 0x00648db2      6002           bra.b 0x648db6
        0x00648db4      584f           addq.w 0x4, a7
        ; CODE XREF from K9_LIBRARY @ +0x756a
     > 0x00648db6      1f2e0010       move.b 0x10(a6), -(a7)
            0x00648dba      2f13           move.l (a3), -(a7)
            0x00648dbc      4ebaf3ce       jsr K9_LIBRARY.check_retitle_c(pc)
            0x00648dc0      5c4f           addq.w 0x6, a7
            0x00648dc2      4cdf1f0f       movem.l (a7)+, d0-d3/a0-a4
            0x00648dc6      4e5e           unlk a6
            0x00648dc8      4e75           rts
            ; CALL XREF from MENULIBCOM.hit_retitle_dat @ 0x74f0b0
            ; CALL XREF from MENULIBCOM.hit_retitle_ins @ 0x74f4e0
 64: K9_LIBRARY.k9_set_2times ();
           0x00648dca      4e56ffda       link.w a6, 0xffda
           0x00648dce      bfd5           cmpa.l (a5), a7
       < 0x00648dd0      6206           bhi.b 0x648dd8
          0x00648dd2      44fc0002       move.w 0x2, ccr
          0x00648dd6      4e76           trapv
       > 0x00648dd8      defc0022       adda.w 0x22, a7
           0x00648ddc      48e7e008       movem.l d0-d2/a4, -(a7)
           0x00648de0      286e001a       movea.l 0x1a(a6), a4
           0x00648de4      b9ecfffc       cmpa.l -0x4(a4), a4
       < 0x00648de8      6702           beq.b 0x648dec
          0x00648dea      4e4d           trap 0xd
       > 0x00648dec      2f3a8c96       move.l 0x641a84(pc), -(a7)
           0x00648df0      102e0018       move.b 0x18(a6), d0
           0x00648df4      4880           ext.w d0
           0x00648df6      3200           move.w d0, d1
           0x00648df8      e649           lsr.w 0x3, d1
           0x00648dfa      01f71000       bset.b d0, (a7, d1.w)
           0x00648dfe      222c0014       move.l 0x14(a4), d1
           0x00648e02      8297           or.l (a7), d1
           0x00648e04      29410014       move.l d1, 0x14(a4)
           0x00648e08      4e4e           trap 0xe
            0x00648e0a      2f3a8c78       move.l 0x641a84(pc), -(a7)
            0x00648e0e      3400           move.w d0, d2
            0x00648e10      e64a           lsr.w 0x3, d2
            0x00648e12      01f72000       bset.b d0, (a7, d2.w)
            0x00648e16      241f           move.l (a7)+, d2
            0x00648e18      4682           not.l d2
            0x00648e1a      c481           and.l d1, d2
            0x00648e1c      29420014       move.l d2, 0x14(a4)
            0x00648e20      584f           addq.w 0x4, a7
        < 0x00648e22      6002           bra.b 0x648e26
           0x00648e24      584f           addq.w 0x4, a7
        > 0x00648e26      1f2e0018       move.b 0x18(a6), -(a7)
            0x00648e2a      2f0c           move.l a4, -(a7)
            0x00648e2c      4ebaf35e       jsr K9_LIBRARY.check_retitle_c(pc)
            0x00648e30      5c4f           addq.w 0x6, a7
            0x00648e32      4cdf1007       movem.l (a7)+, d0-d2/a4
            0x00648e36      4e5e           unlk a6
            0x00648e38      4e75           rts
            ; CALL XREF from MENULIBCOM.set_retitle_dat @ 0x75044e
 66: K9_LIBRARY.k9_read_time ();
           0x00648e3a      4e56ffcc       link.w a6, 0xffcc
           0x00648e3e      bfd5           cmpa.l (a5), a7
       < 0x00648e40      6206           bhi.b 0x648e48
          0x00648e42      44fc0002       move.w 0x2, ccr
          0x00648e46      4e76           trapv
       > 0x00648e48      defc0030       adda.w 0x30, a7
           0x00648e4c      48e7e0e8       movem.l d0-d2/a0-a2/a4, -(a7)
           0x00648e50      45ee0008       lea.l 0x8(a6), a2
           0x00648e54      286e000e       movea.l 0xe(a6), a4
           0x00648e58      b9ecfffc       cmpa.l -0x4(a4), a4
       < 0x00648e5c      6702           beq.b 0x648e60
          0x00648e5e      4e4d           trap 0xd
       > 0x00648e60      102e000c       move.b 0xc(a6), d0
           0x00648e64      4880           ext.w d0
           0x00648e66      3200           move.w d0, d1
           0x00648e68      5941           subq.w 0x4, d1
           0x00648e6a      0c41000f       cmpi.w 0xf, d1
       < 0x00648e6e      6302           bls.b 0x648e72
          0x00648e70      4e4e           trap 0xe
       > 0x00648e72      d241           add.w d1, d1
           0x00648e74      323b1006       move.w 0x648e7c(pc, d1.w), d1
           0x00648e78      4efb1002       jmp 0x648e7c(pc, d1.w)
            0x00648e7c      0020fff4       ori.b 0xf4, -(a0)
            0x00648e80      fff4           invalid
            0x00648e82      fff4           invalid
            0x00648e84      fff4           invalid
            0x00648e86      fff4           invalid
            0x00648e88      fff4           invalid
            0x00648e8a      00420042       ori.w 0x42, d2
            0x00648e8e      00420042       ori.w 0x42, d2
            0x00648e92      fff4           invalid
            0x00648e94      fff4           invalid
            0x00648e96      fff4           invalid
            0x00648e98      fff4           invalid
            0x00648e9a      0032205243ec.  ori.b 0x52, 0x3c(invalid.w)
            0x00648ea2      7207           moveq 0x7, d1
        > 0x00648ea4      10d9           move.b (a1)+, (a0)+
        < 0x00648ea6      51c9fffc       dbra d1, 0x648ea4
        < 0x00648eaa      60000080       bra.w 0x648f2c
           0x00648eae      2052           movea.l (a2), a0
           0x00648eb0      43ec0044       lea.l 0x44(a4), a1
           0x00648eb4      7207           moveq 0x7, d1
       > 0x00648eb6      10d9           move.b (a1)+, (a0)+
       < 0x00648eb8      51c9fffc       dbra d1, 0x648eb6
       < 0x00648ebc      606e           bra.b 0x648f2c
          0x00648ebe      3200           move.w d0, d1
          0x00648ec0      0441000b       subi.w 0xb, d1
          0x00648ec4      43bc0003       chk.w 0x3, d1
          0x00648ec8      4a341054       tst.b 0x54(a4, d1.w)
      < 0x00648ecc      6610           bne.b 0x648ede
         0x00648ece      2052           movea.l (a2), a0
         0x00648ed0      43fa9b29       lea.l 0x6429fb(pc), a1
         0x00648ed4      7407           moveq 0x7, d2
     > 0x00648ed6      10d9           move.b (a1)+, (a0)+
     < 0x00648ed8      51cafffc       dbra d2, 0x648ed6
     < 0x00648edc      604e           bra.b 0x648f2c
     > 0x00648ede      14341054       move.b 0x54(a4, d1.w), d2
         0x00648ee2      0c02000a       cmpi.b 0xa, d2
     < 0x00648ee6      672a           beq.b 0x648f12
        0x00648ee8      487a9b1a       pea.l 0x642a04(pc)
        0x00648eec      48780017       pea.l 0x17
        0x00648ef0      2f17           move.l (a7), -(a7)
        0x00648ef2      4eb9004047ea   jsr p_wts_o
        0x00648ef8      defc000c       adda.w 0xc, a7
        0x00648efc      4eb900404946   jsr p_wtln_o
        0x00648f02      2052           movea.l (a2), a0
        0x00648f04      43fa9b15       lea.l 0x642a1b(pc), a1
        0x00648f08      7407           moveq 0x7, d2
    > 0x00648f0a      10d9           move.b (a1)+, (a0)+
    < 0x00648f0c      51cafffc       dbra d2, 0x648f0a
    < 0x00648f10      601a           bra.b 0x648f2c
    > 0x00648f12      2052           movea.l (a2), a0
        0x00648f14      3401           move.w d1, d2
        0x00648f16      e542           asl.w 0x2, d2
        0x00648f18      22742058       movea.l 0x58(a4, d2.w), a1
        0x00648f1c      b3e9fffc       cmpa.l -0x4(a1), a1
    < 0x00648f20      6702           beq.b 0x648f24
       0x00648f22      4e4d           trap 0xd
    > 0x00648f24      7407           moveq 0x7, d2
    > 0x00648f26      10d9           move.b (a1)+, (a0)+
    < 0x00648f28      51cafffc       dbra d2, 0x648f26
    > 0x00648f2c      4cdf1707       movem.l (a7)+, d0-d2/a0-a2/a4
            0x00648f30      4e5e           unlk a6
            0x00648f32      4e75           rts
 88: K9_LIBRARY.k9_read_2times ();
           0x00648f34      4e56ffe4       link.w a6, 0xffe4
           0x00648f38      bfd5           cmpa.l (a5), a7
       < 0x00648f3a      6206           bhi.b 0x648f42
          0x00648f3c      44fc0002       move.w 0x2, ccr
          0x00648f40      4e76           trapv
       > 0x00648f42      defc001c       adda.w 0x1c, a7
           0x00648f46      48e780c0       movem.l d0/a0-a1, -(a7)
           0x00648f4a      487a9ad8       pea.l 0x642a24(pc)
           0x00648f4e      48780017       pea.l 0x17
           0x00648f52      2f17           move.l (a7), -(a7)
           0x00648f54      4eb9004047ea   jsr p_wts_o
           0x00648f5a      defc000c       adda.w 0xc, a7
           0x00648f5e      4eb900404946   jsr p_wtln_o
           0x00648f64      206e000c       movea.l 0xc(a6), a0
           0x00648f68      43fa9ad1       lea.l 0x642a3b(pc), a1
           0x00648f6c      7007           moveq 0x7, d0
       > 0x00648f6e      10d9           move.b (a1)+, (a0)+
       < 0x00648f70      51c8fffc       dbra d0, 0x648f6e
           0x00648f74      206e0008       movea.l 0x8(a6), a0
           0x00648f78      43fa9ac9       lea.l 0x642a43(pc), a1
           0x00648f7c      7007           moveq 0x7, d0
       > 0x00648f7e      10d9           move.b (a1)+, (a0)+
       < 0x00648f80      51c8fffc       dbra d0, 0x648f7e
           0x00648f84      4cdf0301       movem.l (a7)+, d0/a0-a1
           0x00648f88      4e5e           unlk a6
           0x00648f8a      4e75           rts
            ; CALL XREF from AFS2_LIB.set_fields @ 0x5c9558
            ; CALL XREF from MENULIBCOM.hit_retitle_typ @ 0x74ea9c
 126: K9_LIBRARY.k9_set_type ();
           0x00648f8c      4e56ffda       link.w a6, 0xffda
           0x00648f90      bfd5           cmpa.l (a5), a7
       < 0x00648f92      6206           bhi.b 0x648f9a
          0x00648f94      44fc0002       move.w 0x2, ccr
          0x00648f98      4e76           trapv
       > 0x00648f9a      defc0022       adda.w 0x22, a7
           0x00648f9e      48e7e008       movem.l d0-d2/a4, -(a7)
           0x00648fa2      286e000c       movea.l 0xc(a6), a4
           0x00648fa6      b9ecfffc       cmpa.l -0x4(a4), a4
       < 0x00648faa      6702           beq.b 0x648fae
          0x00648fac      4e4d           trap 0xd
       > 0x00648fae      2f3a8ad4       move.l 0x641a84(pc), -(a7)
           0x00648fb2      102e000a       move.b 0xa(a6), d0
           0x00648fb6      4880           ext.w d0
           0x00648fb8      3200           move.w d0, d1
           0x00648fba      e649           lsr.w 0x3, d1
           0x00648fbc      01f71000       bset.b d0, (a7, d1.w)
           0x00648fc0      222c0014       move.l 0x14(a4), d1
           0x00648fc4      8297           or.l (a7), d1
           0x00648fc6      29410014       move.l d1, 0x14(a4)
           0x00648fca      0c400005       cmpi.w 0x5, d0
       < 0x00648fce      6702           beq.b 0x648fd2
      < 0x00648fd0      600a           bra.b 0x648fdc
      > 0x00648fd2      196e0008004c   move.b 0x8(a6), 0x4c(a4)
          0x00648fd8      584f           addq.w 0x4, a7
      < 0x00648fda      601c           bra.b 0x648ff8
      > 0x00648fdc      2f3a8aa6       move.l 0x641a84(pc), -(a7)
          0x00648fe0      3400           move.w d0, d2
          0x00648fe2      e64a           lsr.w 0x3, d2
          0x00648fe4      01f72000       bset.b d0, (a7, d2.w)
          0x00648fe8      241f           move.l (a7)+, d2
          0x00648fea      4682           not.l d2
          0x00648fec      c481           and.l d1, d2
          0x00648fee      29420014       move.l d2, 0x14(a4)
          0x00648ff2      584f           addq.w 0x4, a7
      < 0x00648ff4      6002           bra.b 0x648ff8
          0x00648ff6      584f           addq.w 0x4, a7
      > 0x00648ff8      1f2e000a       move.b 0xa(a6), -(a7)
           0x00648ffc      2f0c           move.l a4, -(a7)
           0x00648ffe      4ebaf18c       jsr K9_LIBRARY.check_retitle_c(pc)
           0x00649002      5c4f           addq.w 0x6, a7
           0x00649004      4cdf1007       movem.l (a7)+, d0-d2/a4
           0x00649008      4e5e           unlk a6
           0x0064900a      4e75           rts
            ; CALL XREF from MENULIBCOM.set_retitle_typ @ 0x7505ba
 70: K9_LIBRARY.k9_read_type ();
           0x0064900c      4e56ffec       link.w a6, 0xffec
           0x00649010      bfd5           cmpa.l (a5), a7
       < 0x00649012      6206           bhi.b 0x64901a
          0x00649014      44fc0002       move.w 0x2, ccr
          0x00649018      4e76           trapv
       > 0x0064901a      defc0010       adda.w 0x10, a7
           0x0064901e      48e78088       movem.l d0/a0/a4, -(a7)
           0x00649022      286e000e       movea.l 0xe(a6), a4
           0x00649026      b9ecfffc       cmpa.l -0x4(a4), a4
       < 0x0064902a      6702           beq.b 0x64902e
          0x0064902c      4e4d           trap 0xd
       > 0x0064902e      102e000c       move.b 0xc(a6), d0
           0x00649032      0c000005       cmpi.b 0x5, d0
       < 0x00649036      6702           beq.b 0x64903a
          0x00649038      4e4e           trap 0xe
       > 0x0064903a      206e0008       movea.l 0x8(a6), a0
           0x0064903e      102c004c       move.b 0x4c(a4), d0
           0x00649042      4880           ext.w d0
           0x00649044      41bc002d       chk.w 0x2d, d0
           0x00649048      1080           move.b d0, (a0)
           0x0064904a      4cdf1101       movem.l (a7)+, d0/a0/a4
           0x0064904e      4e5e           unlk a6
           0x00649050      4e75           rts
            ; XREFS: CALL 0x005c9404  CALL 0x005c9572  CALL 0x005c958e  
            ; XREFS: CALL 0x005c95aa  CALL 0x005c95c6  CALL 0x005c95e2  
            ; XREFS: CALL 0x005c95fe  CALL 0x0074fda6  
 96: K9_LIBRARY.k9_set_number ();
           0x00649052      4e56feb8       link.w a6, 0xfeb8
           0x00649056      bfd5           cmpa.l (a5), a7
       < 0x00649058      6206           bhi.b 0x649060
          0x0064905a      44fc0002       move.w 0x2, ccr
          0x0064905e      4e76           trapv
       > 0x00649060      defc0144       adda.w 0x144, a7
           0x00649064      48e7f8f8       movem.l d0-d4/a0-a4, -(a7)
           0x00649068      47ee0008       lea.l 0x8(a6), a3
           0x0064906c      49eefffc       lea.l -0x4(a6), a4
           0x00649070      760b           moveq 0xb, d3
           0x00649072      780c           moveq 0xc, d4
           0x00649074      28ae000e       move.l 0xe(a6), (a4)
           0x00649078      2054           movea.l (a4), a0
           0x0064907a      b1e8fffc       cmpa.l -0x4(a0), a0
       < 0x0064907e      6702           beq.b 0x649082
          0x00649080      4e4d           trap 0xd
       > 0x00649082      2f3a8a00       move.l 0x641a84(pc), -(a7)
           0x00649086      102e000c       move.b 0xc(a6), d0
           0x0064908a      4880           ext.w d0
           0x0064908c      3200           move.w d0, d1
           0x0064908e      e649           lsr.w 0x3, d1
           0x00649090      01f71000       bset.b d0, (a7, d1.w)
           0x00649094      22280014       move.l 0x14(a0), d1
           0x00649098      8297           or.l (a7), d1
           0x0064909a      21410014       move.l d1, 0x14(a0)
           0x0064909e      3400           move.w d0, d2
           0x006490a0      5f42           subq.w 0x7, d2
           0x006490a2      b443           cmp.w d3, d2
       < 0x006490a4      62000108       bhi.w 0x6491ae
          0x006490a8      d442           add.w d2, d2
          0x006490aa      343b2006       move.w 0x6490b2(pc, d2.w), d2
          0x006490ae      4efb2002       jmp 0x6490b2(pc, d2.w)
           0x006490b2      001800fc       ori.b 0xfc, (a0)+
           0x006490b6      00fc0022       
           0x006490b7      fc002200       fmove fp4, fp0
       < 0x006490bb      6c006c00       bge.w 0x64fcbd              ; K91_LIBOPS.do_save_logo+0x20d
      < 0x006490bf      6c006c00       bge.w 0x64fcc1              ; K91_LIBOPS.do_save_logo+0x211
         0x006490c3      4400           neg.b d0
         0x006490c5      4e005800       
         0x006490c6      00580062       ori.w 0x62, (a0)+
         0x006490ca      2153004e       move.l (a3), 0x4e(a0)
         0x006490ce      584f           addq.w 0x4, a7
     < 0x006490d0      600000f8       bra.w 0x6491ca
        0x006490d4      2413           move.l (a3), d2
        0x006490d6      0482ffff8000   subi.l 0xffff8000, d2
        0x006490dc      0c820000ffff   cmpi.l 0xffff, d2
    < 0x006490e2      6302           bls.b 0x6490e6
       0x006490e4      4e4f           trap 0xf
    > 0x006490e6      0682ffff8000   addi.l 0xffff8000, d2
        0x006490ec      31420052       move.w d2, 0x52(a0)
        0x006490f0      584f           addq.w 0x4, a7
    < 0x006490f2      600000d6       bra.w 0x6491ca
       0x006490f6      21530068       move.l (a3), 0x68(a0)
       0x006490fa      584f           addq.w 0x4, a7
   < 0x006490fc      600000cc       bra.w 0x6491ca
      0x00649100      2153006c       move.l (a3), 0x6c(a0)
      0x00649104      584f           addq.w 0x4, a7
  < 0x00649106      600000c2       bra.w 0x6491ca
     0x0064910a      21530070       move.l (a3), 0x70(a0)
     0x0064910e      584f           addq.w 0x4, a7
  < 0x00649110      600000b8       bra.w 0x6491ca
     0x00649114      21530074       move.l (a3), 0x74(a0)
     0x00649118      584f           addq.w 0x4, a7
  < 0x0064911a      600000ae       bra.w 0x6491ca
     0x0064911e      554f           subq.w 0x2, a7
     0x00649120      2f2e000e       move.l 0xe(a6), -(a7)
     0x00649124      4227           clr.b -(a7)
     0x00649126      1f00           move.b d0, -(a7)
     0x00649128      4eb90064c324   jsr K9_LIBRARY.k9_info_type_fi
     0x0064912e      504f           addq.w 0x8, a7
     0x00649130      141f           move.b (a7)+, d2
     0x00649132      0c020008       cmpi.b 0x8, d2
  < 0x00649136      6638           bne.b 0x649170
     0x00649138      14280012       move.b 0x12(a0), d2
     0x0064913c      4882           ext.w d2
     0x0064913e      45bc0001       chk.w 0x1, d2
     0x00649142      1f02           move.b d2, -(a7)
     0x00649144      2f13           move.l (a3), -(a7)
     0x00649146      3400           move.w d0, d2
     0x00649148      9443           sub.w d3, d2
     0x0064914a      45bc0003       chk.w 0x3, d2
     0x0064914e      e542           asl.w 0x2, d2
     0x00649150      48702058       pea.l 0x58(a0, d2.w)
     0x00649154      9efc0100       suba.w 0x100, a7
     0x00649158      224f           movea.l a7, a1
     0x0064915a      45fa9917       lea.l 0x642a73(pc), a2
     0x0064915e      7405           moveq 0x5, d2
  > 0x00649160      12da           move.b (a2)+, (a1)+
  < 0x00649162      51cafffc       dbra d2, 0x649160
     0x00649166      4ebaef44       jsr 0x6480ac(pc)
     0x0064916a      defc010a       adda.w 0x10a, a7
  < 0x0064916e      603a           bra.b 0x6491aa
  > 0x00649170      487a9908       pea.l 0x642a7a(pc)
     0x00649174      48780006       pea.l 0x6
     0x00649178      2f17           move.l (a7), -(a7)
     0x0064917a      4eb9004047ea   jsr p_wts_o
     0x00649180      dec4           adda.w d4, a7
     0x00649182      48c0           ext.l d0
     0x00649184      2f00           move.l d0, -(a7)
     0x00649186      48780000       pea.l 0x0
     0x0064918a      4eb9004070e4   jsr p_wti_o
     0x00649190      504f           addq.w 0x8, a7
     0x00649192      487a98ed       pea.l 0x642a81(pc)
     0x00649196      48780016       pea.l 0x16
     0x0064919a      2f17           move.l (a7), -(a7)
     0x0064919c      4eb9004047ea   jsr p_wts_o
     0x006491a2      dec4           adda.w d4, a7
     0x006491a4      4eb900404946   jsr p_wtln_o
  > 0x006491aa      584f           addq.w 0x4, a7
  < 0x006491ac      601c           bra.b 0x6491ca
  > 0x006491ae      2f3a88d4       move.l 0x641a84(pc), -(a7)
      0x006491b2      3400           move.w d0, d2
      0x006491b4      e64a           lsr.w 0x3, d2
      0x006491b6      01f72000       bset.b d0, (a7, d2.w)
      0x006491ba      241f           move.l (a7)+, d2
      0x006491bc      4682           not.l d2
      0x006491be      c481           and.l d1, d2
      0x006491c0      21420014       move.l d2, 0x14(a0)
      0x006491c4      584f           addq.w 0x4, a7
  < 0x006491c6      6002           bra.b 0x6491ca
     0x006491c8      584f           addq.w 0x4, a7
     ; CODE XREF from K9_LIBRARY @ +0x797e
  > 0x006491ca      1f2e000c       move.b 0xc(a6), -(a7)
          0x006491ce      2f14           move.l (a4), -(a7)
          0x006491d0      4ebaefba       jsr K9_LIBRARY.check_retitle_c(pc)
          0x006491d4      5c4f           addq.w 0x6, a7
          0x006491d6      4cdf1f1f       movem.l (a7)+, d0-d4/a0-a4
          0x006491da      4e5e           unlk a6
          0x006491dc      4e75           rts
 64: K9_LIBRARY.k9_set_2numbers ();
         0x006491de      4e56ffda       link.w a6, 0xffda
         0x006491e2      bfd5           cmpa.l (a5), a7
     < 0x006491e4      6206           bhi.b 0x6491ec
        0x006491e6      44fc0002       move.w 0x2, ccr
        0x006491ea      4e76           trapv
     > 0x006491ec      defc0022       adda.w 0x22, a7
         0x006491f0      48e7e008       movem.l d0-d2/a4, -(a7)
         0x006491f4      286e0012       movea.l 0x12(a6), a4
         0x006491f8      b9ecfffc       cmpa.l -0x4(a4), a4
     < 0x006491fc      6702           beq.b 0x649200
        0x006491fe      4e4d           trap 0xd
     > 0x00649200      2f3a8882       move.l 0x641a84(pc), -(a7)
         0x00649204      102e0010       move.b 0x10(a6), d0
         0x00649208      4880           ext.w d0
         0x0064920a      3200           move.w d0, d1
         0x0064920c      e649           lsr.w 0x3, d1
         0x0064920e      01f71000       bset.b d0, (a7, d1.w)
         0x00649212      222c0014       move.l 0x14(a4), d1
         0x00649216      8297           or.l (a7), d1
         0x00649218      29410014       move.l d1, 0x14(a4)
         0x0064921c      4e4e           trap 0xe
          0x0064921e      2f3a8864       move.l 0x641a84(pc), -(a7)
          0x00649222      3400           move.w d0, d2
          0x00649224      e64a           lsr.w 0x3, d2
          0x00649226      01f72000       bset.b d0, (a7, d2.w)
          0x0064922a      241f           move.l (a7)+, d2
          0x0064922c      4682           not.l d2
          0x0064922e      c481           and.l d1, d2
          0x00649230      29420014       move.l d2, 0x14(a4)
          0x00649234      584f           addq.w 0x4, a7
      < 0x00649236      6002           bra.b 0x64923a
         0x00649238      584f           addq.w 0x4, a7
      > 0x0064923a      1f2e0010       move.b 0x10(a6), -(a7)
          0x0064923e      2f0c           move.l a4, -(a7)
          0x00649240      4ebaef4a       jsr K9_LIBRARY.check_retitle_c(pc)
          0x00649244      5c4f           addq.w 0x6, a7
          0x00649246      4cdf1007       movem.l (a7)+, d0-d2/a4
          0x0064924a      4e5e           unlk a6
          0x0064924c      4e75           rts
          ; CALL XREF from K92_DISPLAY.empty_info_file @ 0x658352
          ; CALL XREFS from K92_DISPLAY.display_title @ 0x659a1e, 0x659a4a, 0x659a90
          ; CALL XREF from MENULIBCOM.set_retitle_num @ 0x750316
 66: K9_LIBRARY.k9_read_number ();
         0x0064924e      4e56ffc8       link.w a6, 0xffc8
         0x00649252      bfd5           cmpa.l (a5), a7
     < 0x00649254      6206           bhi.b 0x64925c
        0x00649256      44fc0002       move.w 0x2, ccr
        0x0064925a      4e76           trapv
     > 0x0064925c      defc0034       adda.w 0x34, a7
         0x00649260      48e7f0e8       movem.l d0-d3/a0-a2/a4, -(a7)
         0x00649264      45ee0008       lea.l 0x8(a6), a2
         0x00649268      760b           moveq 0xb, d3
         0x0064926a      286e000e       movea.l 0xe(a6), a4
         0x0064926e      b9ecfffc       cmpa.l -0x4(a4), a4
     < 0x00649272      6702           beq.b 0x649276
        0x00649274      4e4d           trap 0xd
     > 0x00649276      102e000c       move.b 0xc(a6), d0
         0x0064927a      4880           ext.w d0
         0x0064927c      3200           move.w d0, d1
         0x0064927e      5f41           subq.w 0x7, d1
         0x00649280      b243           cmp.w d3, d1
     < 0x00649282      6302           bls.b 0x649286
        0x00649284      4e4e           trap 0xe
     > 0x00649286      d241           add.w d1, d1
         0x00649288      323b1006       move.w 0x649290(pc, d1.w), d1
         0x0064928c      4efb1002       jmp 0x649290(pc, d1.w)
          0x00649290      0018fff4       ori.b 0xf4, (a0)+
          0x00649294      fff4           invalid
          0x00649296      0022002e       ori.b 0x2e, -(a2)
          0x0064929a      002e002e002e   ori.b 0x2e, 0x2e(a6)
          0x006492a0      0082008a0092   ori.l 0x8a0092, d2
          0x006492a6      009a205220ac   ori.l 0x205220ac, (a2)+
          0x006492ac      004e6000       
          0x006492ad      4e60           move a0, usp
          0x006492af      00008020       ori.b 0x20, d0
          0x006492b3      52322c00       addq.b 0x1, (a2, d2.l * 4)
          0x006492b7      5248           addq.w 0x1, a0
          0x006492b9      c120           and.b d0, -(a0)
          0x006492bb      8160           or.w d0, -(a0)
          0x006492bd      7232           moveq 0x32, d1
          0x006492bf      00924343bc00   ori.l 0x4343bc00, (a2)
          0x006492c5      034a3410       movep.l 0x3410(a2), d1
          0x006492c9      5466           addq.w 0x2, -(a6)
          0x006492cb      0a205220       eori.b 0x20, -(a0)
         0x006492cf      bc7fffff       
         0x006492d0      7fffffff       
         0x006492d1      ffff           invalid
         0x006492d3      ff60           invalid
         0x006492d5      3a14           move.w (a4), d5
         0x006492d7      3410           move.w (a0), d2
         0x006492d9      540c0200       
         0x006492da      0c020008       cmpi.b 0x8, d2
     < 0x006492de      671c           beq.b 0x6492fc
        0x006492e0      487a97d0       pea.l 0x642ab2(pc)
        0x006492e4      48780019       pea.l 0x19
        0x006492e8      2f17           move.l (a7), -(a7)
        0x006492ea      4eb9004047ea   jsr p_wts_o
        0x006492f0      defc000c       adda.w 0xc, a7
        0x006492f4      4eb900404946   jsr p_wtln_o
     < 0x006492fa      60d0           bra.b 0x6492cc
     > 0x006492fc      2052           movea.l (a2), a0
          0x006492fe      3401           move.w d1, d2
          0x00649300      e542           asl.w 0x2, d2
          0x00649302      22742058       movea.l 0x58(a4, d2.w), a1
          0x00649306      b3e9fffc       cmpa.l -0x4(a1), a1
      < 0x0064930a      6702           beq.b 0x64930e
         0x0064930c      4e4d           trap 0xd
      > 0x0064930e      2091           move.l (a1), (a0)
      < 0x00649310      601e           bra.b 0x649330
         0x00649312      2052           movea.l (a2), a0
         0x00649314      20ac0068       move.l 0x68(a4), (a0)
     < 0x00649318      6016           bra.b 0x649330
        0x0064931a      2052           movea.l (a2), a0
        0x0064931c      20ac006c       move.l 0x6c(a4), (a0)
    < 0x00649320      600e           bra.b 0x649330
       0x00649322      2052           movea.l (a2), a0
       0x00649324      20ac0070       move.l 0x70(a4), (a0)
   < 0x00649328      6006           bra.b 0x649330
      0x0064932a      2052           movea.l (a2), a0
      0x0064932c      20ac0074       move.l 0x74(a4), (a0)
   > 0x00649330      4cdf170f       movem.l (a7)+, d0-d3/a0-a2/a4
          0x00649334      4e5e           unlk a6
          0x00649336      4e75           rts
 76: K9_LIBRARY.k9_read_2number ();
         0x00649338      4e56ffec       link.w a6, 0xffec
         0x0064933c      bfd5           cmpa.l (a5), a7
     < 0x0064933e      6206           bhi.b 0x649346
        0x00649340      44fc0002       move.w 0x2, ccr
        0x00649344      4e76           trapv
     > 0x00649346      defc0014       adda.w 0x14, a7
         0x0064934a      48e70080       movem.l a0, -(a7)
         0x0064934e      487a977c       pea.l 0x642acc(pc)
         0x00649352      48780019       pea.l 0x19
         0x00649356      2f17           move.l (a7), -(a7)
         0x00649358      4eb9004047ea   jsr p_wts_o
         0x0064935e      defc000c       adda.w 0xc, a7
         0x00649362      4eb900404946   jsr p_wtln_o
         0x00649368      206e000c       movea.l 0xc(a6), a0
         0x0064936c      20bc7fffffff   move.l 0x7fffffff, (a0)
         0x00649372      206e0008       movea.l 0x8(a6), a0
         0x00649376      20bc7fffffff   move.l 0x7fffffff, (a0)
         0x0064937c      4cdf0100       movem.l (a7)+, a0
         0x00649380      4e5e           unlk a6
         0x00649382      4e75           rts
 78: K9_LIBRARY.k9_read_volume ();
         0x00649384      4e56ffea       link.w a6, 0xffea
         0x00649388      bfd5           cmpa.l (a5), a7
     < 0x0064938a      6206           bhi.b 0x649392
        0x0064938c      44fc0002       move.w 0x2, ccr
        0x00649390      4e76           trapv
     > 0x00649392      defc0012       adda.w 0x12, a7
         0x00649396      48e78088       movem.l d0/a0/a4, -(a7)
         0x0064939a      286e000e       movea.l 0xe(a6), a4
         0x0064939e      b9ecfffc       cmpa.l -0x4(a4), a4
     < 0x006493a2      6702           beq.b 0x6493a6
        0x006493a4      4e4d           trap 0xd
     > 0x006493a6      102e000c       move.b 0xc(a6), d0
         0x006493aa      0c000006       cmpi.b 0x6, d0
     < 0x006493ae      6712           beq.b 0x6493c2
        0x006493b0      0c000009       cmpi.b 0x9, d0
    < 0x006493b4      6702           beq.b 0x6493b8
       0x006493b6      4e4e           trap 0xe
    > 0x006493b8      206e0008       movea.l 0x8(a6), a0
        0x006493bc      20ac0008       move.l 0x8(a4), (a0)
    < 0x006493c0      6008           bra.b 0x6493ca
    > 0x006493c2      206e0008       movea.l 0x8(a6), a0
        0x006493c6      20ac0008       move.l 0x8(a4), (a0)
    > 0x006493ca      4cdf1101       movem.l (a7)+, d0/a0/a4
         0x006493ce      4e5e           unlk a6
         0x006493d0      4e75           rts
          ; CALL XREF from K92_DISPLAY.display_browse @ 0x653e88
          ; CALL XREF from K92_DISPLAY.display_title @ 0x6599e0
 88: K9_LIBRARY.k9_read_browsed ();
         0x006493d2      4e56ffe0       link.w a6, 0xffe0
         0x006493d6      bfd5           cmpa.l (a5), a7
     < 0x006493d8      6206           bhi.b 0x6493e0
        0x006493da      44fc0002       move.w 0x2, ccr
        0x006493de      4e76           trapv
     > 0x006493e0      defc001c       adda.w 0x1c, a7
         0x006493e4      48e780e8       movem.l d0/a0-a2/a4, -(a7)
         0x006493e8      286e000c       movea.l 0xc(a6), a4
         0x006493ec      206e0008       movea.l 0x8(a6), a0
         0x006493f0      b9ecfffc       cmpa.l -0x4(a4), a4
     < 0x006493f4      6702           beq.b 0x6493f8
        0x006493f6      4e4d           trap 0xd
     > 0x006493f8      2248           movea.l a0, a1
         0x006493fa      45ec0008       lea.l 0x8(a4), a2
         0x006493fe      7009           moveq 0x9, d0
     > 0x00649400      12da           move.b (a2)+, (a1)+
     < 0x00649402      51c8fffc       dbra d0, 0x649400
         0x00649406      116c004c000a   move.b 0x4c(a4), 0xa(a0)
         0x0064940c      216c004e000c   move.l 0x4e(a4), 0xc(a0)
         0x00649412      302c0052       move.w 0x52(a4), d0
         0x00649416      48c0           ext.l d0
         0x00649418      21400010       move.l d0, 0x10(a0)
         0x0064941c      216c00340014   move.l 0x34(a4), 0x14(a0)
         0x00649422      4cdf1701       movem.l (a7)+, d0/a0-a2/a4
         0x00649426      4e5e           unlk a6
         0x00649428      4e75           rts
          ; CALL XREF from K92_DISPLAY @ +0x3368
 54: K9_LIBRARY.k9_set_browse_s (int32_t arg_ch);
         ; arg int32_t arg_ch @ a6+0xc
         0x0064942a      4e56fff4       link.w a6, 0xfff4
         0x0064942e      bfd5           cmpa.l (a5), a7
     < 0x00649430      6206           bhi.b 0x649438
        0x00649432      44fc0002       move.w 0x2, ccr
        0x00649436      4e76           trapv
     > 0x00649438      defc0008       adda.w 0x8, a7
         0x0064943c      48e70080       movem.l a0, -(a7)
         0x00649440      2d6e000cfffc   move.l 0xc(a6), -0x4(a6)
         0x00649446      206efffc       movea.l -0x4(a6), a0
         0x0064944a      b1e8fffc       cmpa.l -0x4(a0), a0
     < 0x0064944e      6702           beq.b 0x649452
        0x00649450      4e4d           trap 0xd
     > 0x00649452      216e00080034   move.l 0x8(a6), 0x34(a0)
         0x00649458      4cdf0100       movem.l (a7)+, a0
         0x0064945c      4e5e           unlk a6
         0x0064945e      4e75           rts
 84: K9_LIBRARY.blank_desc ();
         0x00649460      4e56ffe4       link.w a6, 0xffe4
         0x00649464      bfd5           cmpa.l (a5), a7
     < 0x00649466      6206           bhi.b 0x64946e
        0x00649468      44fc0002       move.w 0x2, ccr
        0x0064946c      4e76           trapv
     > 0x0064946e      defc001c       adda.w 0x1c, a7
         0x00649472      48e780c0       movem.l d0/a0-a1, -(a7)
         0x00649476      7001           moveq 0x1, d0
         0x00649478      4a2e000c       tst.b 0xc(a6)
     < 0x0064947c      671a           beq.b 0x649498
        0x0064947e      206e0008       movea.l 0x8(a6), a0
        0x00649482      2250           movea.l (a0), a1
        0x00649484      b2c0           cmpa.w d0, a1
    < 0x00649486      670e           beq.b 0x649496
       0x00649488      4850           pea.l (a0)
       0x0064948a      48780400       pea.l 0x400
       0x0064948e      4eb900403b98   jsr p_Dispos
       0x00649494      504f           addq.w 0x8, a7
    > 0x00649496      2080           move.l d0, (a0)
     > 0x00649498      206e0008       movea.l 0x8(a6), a0
         0x0064949c      2250           movea.l (a0), a1
         0x0064949e      b2c0           cmpa.w d0, a1
     < 0x006494a0      670a           beq.b 0x6494ac
        0x006494a2      b3e9fffc       cmpa.l -0x4(a1), a1
    < 0x006494a6      6702           beq.b 0x6494aa
       0x006494a8      4e4d           trap 0xd
    > 0x006494aa      4251           clr.w (a1)
     > 0x006494ac      4cdf0301       movem.l (a7)+, d0/a0-a1
         0x006494b0      4e5e           unlk a6
         0x006494b2      4e75           rts
          ; CALL XREF from K9_LIBRARY.k9_set_blank @ 0x64970a
          ; CALL XREF from K9_LIBRARY.check_field @ 0x649754
 104: K9_LIBRARY.field_blank ();
         0x006494b4      4e56feb6       link.w a6, 0xfeb6
         0x006494b8      bfd5           cmpa.l (a5), a7
     < 0x006494ba      6206           bhi.b 0x6494c2
        0x006494bc      44fc0002       move.w 0x2, ccr
        0x006494c0      4e76           trapv
     > 0x006494c2      defc0142       adda.w 0x142, a7
         0x006494c6      48e7fef0       movem.l d0-d6/a0-a3, -(a7)
         0x006494ca      47eefff8       lea.l -0x8(a6), a3
         0x006494ce      7601           moveq 0x1, d3
         0x006494d0      283c7fffffff   move.l 0x7fffffff, d4
         0x006494d6      3a3c00fc       move.w 0xfc, d5
         0x006494da      3c3c0100       move.w 0x100, d6
         0x006494de      206e000a       movea.l 0xa(a6), a0
         0x006494e2      b1e8fffc       cmpa.l -0x4(a0), a0
     < 0x006494e6      6702           beq.b 0x6494ea
        0x006494e8      4e4d           trap 0xd
     > 0x006494ea      2f3a8598       move.l 0x641a84(pc), -(a7)
         0x006494ee      102e0008       move.b 0x8(a6), d0
         0x006494f2      4880           ext.w d0
         0x006494f4      3200           move.w d0, d1
         0x006494f6      e649           lsr.w 0x3, d1
         0x006494f8      01f71000       bset.b d0, (a7, d1.w)
         0x006494fc      22280014       move.l 0x14(a0), d1
         0x00649500      8297           or.l (a7), d1
         0x00649502      21410014       move.l d1, 0x14(a0)
         0x00649506      3200           move.w d0, d1
         0x00649508      5341           subq.w 0x1, d1
         0x0064950a      0c410014       cmpi.w 0x14, d1
     < 0x0064950e      6302           bls.b 0x649512
        0x00649510      4e4e           trap 0xe
     > 0x00649512      d241           add.w d1, d1
         0x00649514      323b1006       move.w 0x64951c(pc, d1.w), d1
         0x00649518      4efb1002       jmp 0x64951c(pc, d1.w)
          0x0064951c      002a00520070   ori.b 0x52, 0x70(a2)
          0x00649522      0118           btst.l d0, (a0)+
          0x00649524      0154           bchg.b d0, (a4)
          0x00649526      fff4           invalid
          0x00649528      015c           bchg.b d0, (a4)+
          0x0064952a      00fe0092       
          0x0064952b      fe009201       fmove.l d0, fpcr
      < 0x0064952f      6401           bcc.b 0x649532
     < 0x00649531      6c01           bge.b 0x649534
     < 0x00649533      6c01           bge.b 0x649536
     < 0x00649535      6c01           bge.b 0x649538
     < 0x00649537      6c01           bge.b 0x64953a
         0x00649539      9801           sub.b d1, d4
          0x0064953b      a001           invalid
          0x0064953d      a801           invalid
          0x0064953f      b001           cmp.b d1, d0
          0x00649541      1800           move.b d0, d4
          0x00649543      b400           cmp.b d0, d2
          0x00649545      da12           add.b (a2), d5
          0x00649547      2800           move.l d0, d4
          0x00649549      12488143       
          0x0064954a      4881           ext.w d1
          0x0064954c      4383           chk.w d3, d1
          0x0064954e      1f01           move.b d1, -(a7)
          0x00649550      48680018       pea.l 0x18(a0)
          0x00649554      4227           clr.b -(a7)
          0x00649556      9ec5           suba.w d5, a7
          0x00649558      2f3a959e       move.l 0x642af8(pc), -(a7)
          0x0064955c      3f7a959e0004   move.w 0x642afc(pc), 0x4(a7)
  > 0x00649562      4ebae796       jsr K9_LIBRARY.blank_string(pc)
     0x00649566      defc010c       adda.w 0x10c, a7
  < 0x0064956a      6000016a       bra.w 0x6496d6
     0x0064956e      12280012       move.b 0x12(a0), d1
     0x00649572      4881           ext.w d1
     0x00649574      4383           chk.w d3, d1
     0x00649576      1f01           move.b d1, -(a7)
     0x00649578      4868001c       pea.l 0x1c(a0)
     0x0064957c      1f03           move.b d3, -(a7)
     0x0064957e      9ec5           suba.w d5, a7
     0x00649580      2f3a957c       move.l 0x642afe(pc), -(a7)
     0x00649584      1f7a957c0004   move.b 0x642b02(pc), 0x4(a7)
  < 0x0064958a      60d6           bra.b 0x649562
      0x0064958c      12280012       move.b 0x12(a0), d1
      0x00649590      4881           ext.w d1
      0x00649592      4383           chk.w d3, d1
      0x00649594      1f01           move.b d1, -(a7)
      0x00649596      48680020       pea.l 0x20(a0)
      0x0064959a      1f03           move.b d3, -(a7)
      0x0064959c      9ec6           suba.w d6, a7
      0x0064959e      224f           movea.l a7, a1
      0x006495a0      45fa9561       lea.l 0x642b03(pc), a2
      0x006495a4      7205           moveq 0x5, d1
  > 0x006495a6      12da           move.b (a2)+, (a1)+
  < 0x006495a8      51c9fffc       dbra d1, 0x6495a6
   < 0x006495ac      60b4           bra.b 0x649562
       0x006495ae      12280012       move.b 0x12(a0), d1
       0x006495b2      4881           ext.w d1
       0x006495b4      4383           chk.w d3, d1
       0x006495b6      1f01           move.b d1, -(a7)
       0x006495b8      48680024       pea.l 0x24(a0)
       0x006495bc      1f03           move.b d3, -(a7)
       0x006495be      9ec6           suba.w d6, a7
       0x006495c0      224f           movea.l a7, a1
       0x006495c2      45fa9545       lea.l 0x642b09(pc), a2
       0x006495c6      7206           moveq 0x6, d1
   > 0x006495c8      12da           move.b (a2)+, (a1)+
   < 0x006495ca      51c9fffc       dbra d1, 0x6495c8
    < 0x006495ce      6092           bra.b 0x649562
        0x006495d0      12280012       move.b 0x12(a0), d1
        0x006495d4      4881           ext.w d1
        0x006495d6      4383           chk.w d3, d1
        0x006495d8      1f01           move.b d1, -(a7)
        0x006495da      48680028       pea.l 0x28(a0)
        0x006495de      1f03           move.b d3, -(a7)
        0x006495e0      9ec5           suba.w d5, a7
        0x006495e2      2f3a952c       move.l 0x642b10(pc), -(a7)
        0x006495e6      3f7a952c0004   move.w 0x642b14(pc), 0x4(a7)
        0x006495ec      1f7a95280006   move.b 0x642b16(pc), 0x6(a7)
     < 0x006495f2      6000ff6e       bra.w 0x649562
         0x006495f6      12280012       move.b 0x12(a0), d1
         0x006495fa      4881           ext.w d1
         0x006495fc      4383           chk.w d3, d1
         0x006495fe      1f01           move.b d1, -(a7)
         0x00649600      48680028       pea.l 0x28(a0)
         0x00649604      1f03           move.b d3, -(a7)
         0x00649606      9ec6           suba.w d6, a7
         0x00649608      224f           movea.l a7, a1
         0x0064960a      45fa950b       lea.l 0x642b17(pc), a2
         0x0064960e      7205           moveq 0x5, d1
     > 0x00649610      12da           move.b (a2)+, (a1)+
     < 0x00649612      51c9fffc       dbra d1, 0x649610
      < 0x00649616      6000ff4a       bra.w 0x649562
          0x0064961a      12280012       move.b 0x12(a0), d1
          0x0064961e      4881           ext.w d1
          0x00649620      4383           chk.w d3, d1
          0x00649622      1f01           move.b d1, -(a7)
          0x00649624      48680038       pea.l 0x38(a0)
          0x00649628      4ebafe36       jsr K9_LIBRARY.blank_desc(pc)
          0x0064962c      defc000a       adda.w 0xa, a7
      < 0x00649630      600000a4       bra.w 0x6496d6
         0x00649634      514f           subq.w 0x8, a7
         0x00649636      48780000       pea.l 0x0
         0x0064963a      4eb9006aa158   jsr DATE_UTILS.date_stamp
         0x00649640      584f           addq.w 0x4, a7
         0x00649642      269f           move.l (a7)+, (a3)
         0x00649644      2d5ffffc       move.l (a7)+, -0x4(a6)
         0x00649648      0c000013       cmpi.b 0x13, d0
     < 0x0064964c      6610           bne.b 0x64965e
        0x0064964e      43e80044       lea.l 0x44(a0), a1
        0x00649652      244b           movea.l a3, a2
        0x00649654      7207           moveq 0x7, d1
    > 0x00649656      12da           move.b (a2)+, (a1)+
    < 0x00649658      51c9fffc       dbra d1, 0x649656
    < 0x0064965c      600e           bra.b 0x64966c
    > 0x0064965e      43e8003c       lea.l 0x3c(a0), a1
        0x00649662      244b           movea.l a3, a2
        0x00649664      7207           moveq 0x7, d1
    > 0x00649666      12da           move.b (a2)+, (a1)+
    < 0x00649668      51c9fffc       dbra d1, 0x649666
    > 0x0064966c      584f           addq.w 0x4, a7
     < 0x0064966e      6066           bra.b 0x6496d6
        0x00649670      4228004c       clr.b 0x4c(a0)
        0x00649674      584f           addq.w 0x4, a7
    < 0x00649676      605e           bra.b 0x6496d6
       0x00649678      2144004e       move.l d4, 0x4e(a0)
       0x0064967c      584f           addq.w 0x4, a7
   < 0x0064967e      6056           bra.b 0x6496d6
      0x00649680      42680052       clr.w 0x52(a0)
      0x00649684      584f           addq.w 0x4, a7
  < 0x00649686      604e           bra.b 0x6496d6
     0x00649688      3200           move.w d0, d1
     0x0064968a      0441000b       subi.w 0xb, d1
     0x0064968e      43bc0003       chk.w 0x3, d1
     0x00649692      42301054       clr.b 0x54(a0, d1.w)
     0x00649696      4a280012       tst.b 0x12(a0)
  < 0x0064969a      6714           beq.b 0x6496b0
     0x0064969c      3401           move.w d1, d2
     0x0064969e      e542           asl.w 0x2, d2
     0x006496a0      48702058       pea.l 0x58(a0, d2.w)
     0x006496a4      48780100       pea.l 0x100
     0x006496a8      4eb900403b98   jsr p_Dispos
     0x006496ae      504f           addq.w 0x8, a7
  > 0x006496b0      584f           addq.w 0x4, a7
  < 0x006496b2      6022           bra.b 0x6496d6
     0x006496b4      21440068       move.l d4, 0x68(a0)
     0x006496b8      584f           addq.w 0x4, a7
  < 0x006496ba      601a           bra.b 0x6496d6
     0x006496bc      2144006c       move.l d4, 0x6c(a0)
     0x006496c0      584f           addq.w 0x4, a7
  < 0x006496c2      6012           bra.b 0x6496d6
     0x006496c4      21440070       move.l d4, 0x70(a0)
     0x006496c8      584f           addq.w 0x4, a7
  < 0x006496ca      600a           bra.b 0x6496d6
     0x006496cc      21440074       move.l d4, 0x74(a0)
     0x006496d0      584f           addq.w 0x4, a7
  < 0x006496d2      6002           bra.b 0x6496d6
     0x006496d4      584f           addq.w 0x4, a7
  > 0x006496d6      4cdf0f7f       movem.l (a7)+, d0-d6/a0-a3
          0x006496da      4e5e           unlk a6
          0x006496dc      4e75           rts
          ; CALL XREF from AFS2_LIB.set_udf @ 0x5c944e
          ; CALL XREF from AFS2_LIB.set_fields @ 0x5c9518
 66: K9_LIBRARY.k9_set_blank ();
         0x006496de      4e56ffe4       link.w a6, 0xffe4
         0x006496e2      bfd5           cmpa.l (a5), a7
     < 0x006496e4      6206           bhi.b 0x6496ec
        0x006496e6      44fc0002       move.w 0x2, ccr
        0x006496ea      4e76           trapv
     > 0x006496ec      defc0016       adda.w 0x16, a7
         0x006496f0      48e78108       movem.l d0/d7/a4, -(a7)
         0x006496f4      286e000c       movea.l 0xc(a6), a4
         0x006496f8      7e00           moveq 0x0, d7
     > 0x006496fa      4887           ext.w d7
        0x006496fc      3007           move.w d7, d0
        0x006496fe      e648           lsr.w 0x3, d0
        0x00649700      0f360008       btst.l d7, 0x8(a6, d0.w)
    < 0x00649704      670a           beq.b 0x649710
       0x00649706      2f0c           move.l a4, -(a7)
       0x00649708      1f07           move.b d7, -(a7)
       0x0064970a      4ebafda8       jsr K9_LIBRARY.field_blank(pc)
       0x0064970e      5c4f           addq.w 0x6, a7
    > 0x00649710      5207           addq.b 0x1, d7
        0x00649712      0c070019       cmpi.b 0x19, d7
     < 0x00649716      6fe2           ble.b 0x6496fa
         0x00649718      4cdf1081       movem.l (a7)+, d0/d7/a4
         0x0064971c      4e5e           unlk a6
         0x0064971e      4e75           rts
 66: K9_LIBRARY.check_field ();
         0x00649720      4e56ffe8       link.w a6, 0xffe8
         0x00649724      bfd5           cmpa.l (a5), a7
     < 0x00649726      6206           bhi.b 0x64972e
        0x00649728      44fc0002       move.w 0x2, ccr
        0x0064972c      4e76           trapv
     > 0x0064972e      defc0018       adda.w 0x18, a7
         0x00649732      48e7c080       movem.l d0-d1/a0, -(a7)
         0x00649736      2054           movea.l (a4), a0
         0x00649738      b1e8fffc       cmpa.l -0x4(a0), a0
     < 0x0064973c      6702           beq.b 0x649740
        0x0064973e      4e4d           trap 0xd
     > 0x00649740      102e0008       move.b 0x8(a6), d0
         0x00649744      4880           ext.w d0
         0x00649746      3200           move.w d0, d1
         0x00649748      e649           lsr.w 0x3, d1
         0x0064974a      01301014       btst.l d0, 0x14(a0, d1.w)
     < 0x0064974e      660a           bne.b 0x64975a
        0x00649750      2f14           move.l (a4), -(a7)
        0x00649752      1f00           move.b d0, -(a7)
        0x00649754      4ebafd5e       jsr K9_LIBRARY.field_blank(pc)
        0x00649758      5c4f           addq.w 0x6, a7
     > 0x0064975a      4cdf0103       movem.l (a7)+, d0-d1/a0
         0x0064975e      4e5e           unlk a6
         0x00649760      4e75           rts
 204: K9_LIBRARY.k9_set_finished ();
         0x00649762      4e56ffea       link.w a6, 0xffea
         0x00649766      bfd5           cmpa.l (a5), a7
     < 0x00649768      6206           bhi.b 0x649770
        0x0064976a      44fc0002       move.w 0x2, ccr
        0x0064976e      4e76           trapv
     > 0x00649770      defc0012       adda.w 0x12, a7
         0x00649774      48e700c8       movem.l a0-a1/a4, -(a7)
         0x00649778      41eefffc       lea.l -0x4(a6), a0
         0x0064977c      43faffa2       lea.l K9_LIBRARY.check_field(pc), a1
         0x00649780      20ae0008       move.l 0x8(a6), (a0)
         0x00649784      1f3c0001       move.b 0x1, -(a7)
         0x00649788      2848           movea.l a0, a4
         0x0064978a      4e91           jsr (a1)                    ; fcn.0000000a
         0x0064978c      1ebc0002       move.b 0x2, (a7)
         0x00649790      2848           movea.l a0, a4
         0x00649792      4e91           jsr (a1)                    ; fcn.0000000a
         0x00649794      1ebc0003       move.b 0x3, (a7)
         0x00649798      2848           movea.l a0, a4
         0x0064979a      4e91           jsr (a1)                    ; fcn.0000000a
         0x0064979c      1ebc0008       move.b 0x8, (a7)
         0x006497a0      2848           movea.l a0, a4
         0x006497a2      4e91           jsr (a1)                    ; fcn.0000000a
         0x006497a4      1ebc0009       move.b 0x9, (a7)
         0x006497a8      2848           movea.l a0, a4
         0x006497aa      4e91           jsr (a1)                    ; fcn.0000000a
         0x006497ac      1ebc0004       move.b 0x4, (a7)
         0x006497b0      2848           movea.l a0, a4
         0x006497b2      4e91           jsr (a1)                    ; fcn.0000000a
         0x006497b4      1ebc0005       move.b 0x5, (a7)
         0x006497b8      2848           movea.l a0, a4
         0x006497ba      4e91           jsr (a1)                    ; fcn.0000000a
         0x006497bc      1ebc0007       move.b 0x7, (a7)
         0x006497c0      2848           movea.l a0, a4
         0x006497c2      4e91           jsr (a1)                    ; fcn.0000000a
         0x006497c4      1ebc000a       move.b 0xa, (a7)
         0x006497c8      2848           movea.l a0, a4
         0x006497ca      4e91           jsr (a1)                    ; fcn.0000000a
         0x006497cc      1ebc000b       move.b 0xb, (a7)
         0x006497d0      2848           movea.l a0, a4
         0x006497d2      4e91           jsr (a1)                    ; fcn.0000000a
         0x006497d4      1ebc000c       move.b 0xc, (a7)
         0x006497d8      2848           movea.l a0, a4
         0x006497da      4e91           jsr (a1)                    ; fcn.0000000a
         0x006497dc      1ebc000d       move.b 0xd, (a7)
         0x006497e0      2848           movea.l a0, a4
         0x006497e2      4e91           jsr (a1)                    ; fcn.0000000a
         0x006497e4      1ebc000e       move.b 0xe, (a7)
         0x006497e8      2848           movea.l a0, a4
         0x006497ea      4e91           jsr (a1)                    ; fcn.0000000a
         0x006497ec      1ebc000f       move.b 0xf, (a7)
         0x006497f0      2848           movea.l a0, a4
         0x006497f2      4e91           jsr (a1)                    ; fcn.0000000a
         0x006497f4      1ebc0010       move.b 0x10, (a7)
         0x006497f8      2848           movea.l a0, a4
         0x006497fa      4e91           jsr (a1)                    ; fcn.0000000a
         0x006497fc      1ebc0011       move.b 0x11, (a7)
         0x00649800      2848           movea.l a0, a4
         0x00649802      4e91           jsr (a1)                    ; fcn.0000000a
         0x00649804      1ebc0012       move.b 0x12, (a7)
         0x00649808      2848           movea.l a0, a4
         0x0064980a      4e91           jsr (a1)                    ; fcn.0000000a
         0x0064980c      1ebc0013       move.b 0x13, (a7)
         0x00649810      2848           movea.l a0, a4
         0x00649812      4e91           jsr (a1)                    ; fcn.0000000a
         0x00649814      1ebc0014       move.b 0x14, (a7)
         0x00649818      2848           movea.l a0, a4
         0x0064981a      4e91           jsr (a1)                    ; fcn.0000000a
         0x0064981c      1ebc0015       move.b 0x15, (a7)
         0x00649820      2848           movea.l a0, a4
         0x00649822      4e91           jsr (a1)                    ; fcn.0000000a
         0x00649824      544f           addq.w 0x2, a7
         0x00649826      4cdf1300       movem.l (a7)+, a0-a1/a4
         0x0064982a      4e5e           unlk a6
         0x0064982c      4e75           rts
          ; CALL XREF from AFS2_LIB.add_it @ 0x5c9e8c
 344: K9_LIBRARY.k9_show_title ();
         0x0064982e      4e56fd1a       link.w a6, 0xfd1a
         0x00649832      bfd5           cmpa.l (a5), a7
     < 0x00649834      6206           bhi.b 0x64983c
        0x00649836      44fc0002       move.w 0x2, ccr
        0x0064983a      4e76           trapv
     > 0x0064983c      defc0240       adda.w 0x240, a7
         0x00649840      48e7fcf8       movem.l d0-d5/a0-a4, -(a7)
         0x00649844      7601           moveq 0x1, d3
         0x00649846      7850           moveq 0x50, d4
         0x00649848      7a0e           moveq 0xe, d5
         0x0064984a      286e000a       movea.l 0xa(a6), a4
         0x0064984e      103900847e42   move.b 0x847e42, d0
         0x00649854      4880           ext.w d0
         0x00649856      c1fc02d0       muls.w 0x2d0, d0
         0x0064985a      41f900847e32   lea.l 0x847e32, a0
         0x00649860      41f00000       lea.l (a0, d0.w), a0
         0x00649864      4a2802e1       tst.b 0x2e1(a0)
     < 0x00649868      6630           bne.b 0x64989a
        0x0064986a      4a2e0008       tst.b 0x8(a6)
    < 0x0064986e      6720           beq.b 0x649890
       0x00649870      554f           subq.w 0x2, a7
       0x00649872      2f280012       move.l 0x12(a0), -(a7)
       0x00649876      4227           clr.b -(a7)
   > 0x00649878      2f0c           move.l a4, -(a7)
      0x0064987a      4ebad956       jsr K9_LIBRARY.display_item(pc)
      0x0064987e      defc000a       adda.w 0xa, a7
      0x00649882      101f           move.b (a7)+, d0
      0x00649884      4880           ext.w d0
      0x00649886      4183           chk.w d3, d0
      0x00649888      1d40000e       move.b d0, 0xe(a6)
  < 0x0064988c      600000f0       bra.w 0x64997e
  > 0x00649890      554f           subq.w 0x2, a7
      0x00649892      2f280012       move.l 0x12(a0), -(a7)
      0x00649896      1f03           move.b d3, -(a7)
  < 0x00649898      60de           bra.b 0x649878
    > 0x0064989a      22680012       movea.l 0x12(a0), a1
        0x0064989e      b3e9fffc       cmpa.l -0x4(a1), a1
    < 0x006498a2      6702           beq.b 0x6498a6
       0x006498a4      4e4d           trap 0xd
    > 0x006498a6      2f290024       move.l 0x24(a1), -(a7)
        0x006498aa      48780001       pea.l 0x1
        0x006498ae      486eff5e       pea.l -0xa2(a6)
        0x006498b2      3f04           move.w d4, -(a7)
        0x006498b4      4eb900406e56   jsr p_strI1
        0x006498ba      dec5           adda.w d5, a7
        0x006498bc      4aa90020       tst.l 0x20(a1)
    < 0x006498c0      6f6c           ble.b 0x64992e
       0x006498c2      2f290020       move.l 0x20(a1), -(a7)
       0x006498c6      48780001       pea.l 0x1
       0x006498ca      486effaf       pea.l -0x51(a6)
       0x006498ce      3f04           move.w d4, -(a7)
       0x006498d0      4eb900406e56   jsr p_strI1
       0x006498d6      dec5           adda.w d5, a7
       0x006498d8      4240           clr.w d0
       0x006498da      102eff5e       move.b -0xa2(a6), d0
       0x006498de      45eeff5f       lea.l -0xa1(a6), a2
       0x006498e2      d4c0           adda.w d0, a2
       0x006498e4      7204           moveq 0x4, d1
       0x006498e6      7450           moveq 0x50, d2
       0x006498e8      9440           sub.w d0, d2
       0x006498ea      b242           cmp.w d2, d1
   < 0x006498ec      6302           bls.b 0x6498f0
      0x006498ee      3202           move.w d2, d1
   > 0x006498f0      d32eff5e       add.b d1, -0xa2(a6)
       0x006498f4      47fa9228       lea.l 0x642b1e(pc), a3
   > 0x006498f8      14db           move.b (a3)+, (a2)+
   < 0x006498fa      51c9fffc       dbra d1, 0x6498f8
       0x006498fe      4240           clr.w d0
       0x00649900      102eff5e       move.b -0xa2(a6), d0
       0x00649904      45eeff5f       lea.l -0xa1(a6), a2
       0x00649908      d4c0           adda.w d0, a2
       0x0064990a      4241           clr.w d1
       0x0064990c      122effaf       move.b -0x51(a6), d1
       0x00649910      7450           moveq 0x50, d2
       0x00649912      9440           sub.w d0, d2
       0x00649914      b242           cmp.w d2, d1
   < 0x00649916      6302           bls.b 0x64991a
      0x00649918      3202           move.w d2, d1
   > 0x0064991a      d32eff5e       add.b d1, -0xa2(a6)
       0x0064991e      5301           subq.b 0x1, d1
   < 0x00649920      650a           bcs.b 0x64992c
      0x00649922      47eeffb0       lea.l -0x50(a6), a3
  > 0x00649926      14db           move.b (a3)+, (a2)+
  < 0x00649928      51c9fffc       dbra d1, 0x649926
  > 0x0064992c      6026           bra.b 0x649954
   > 0x0064992e      4240           clr.w d0
       0x00649930      102eff5e       move.b -0xa2(a6), d0
       0x00649934      45eeff5f       lea.l -0xa1(a6), a2
       0x00649938      d4c0           adda.w d0, a2
       0x0064993a      7205           moveq 0x5, d1
       0x0064993c      7450           moveq 0x50, d2
       0x0064993e      9440           sub.w d0, d2
       0x00649940      b242           cmp.w d2, d1
   < 0x00649942      6302           bls.b 0x649946
      0x00649944      3202           move.w d2, d1
   > 0x00649946      d32eff5e       add.b d1, -0xa2(a6)
       0x0064994a      47fa91d7       lea.l 0x642b23(pc), a3
   > 0x0064994e      14db           move.b (a3)+, (a2)+
   < 0x00649950      51c9fffc       dbra d1, 0x64994e
  > 0x00649954      9efc0100       suba.w 0x100, a7
        0x00649958      244f           movea.l a7, a2
        0x0064995a      47eeff5e       lea.l -0xa2(a6), a3
        0x0064995e      7013           moveq 0x13, d0
    > 0x00649960      24db           move.l (a3)+, (a2)+
    < 0x00649962      51c8fffc       dbra d0, 0x649960
        0x00649966      14db           move.b (a3)+, (a2)+
        0x00649968      9efc0100       suba.w 0x100, a7
        0x0064996c      1eba91ba       move.b 0x642b28(pc), (a7)
        0x00649970      1f03           move.b d3, -(a7)
        0x00649972      4eba996a       jsr K9_LIBRARY.header(pc)
        0x00649976      defc0202       adda.w 0x202, a7
        0x0064997a      422e000e       clr.b 0xe(a6)
  > 0x0064997e      4cdf1f3f       movem.l (a7)+, d0-d5/a0-a4
         0x00649982      4e5e           unlk a6
         0x00649984      4e75           rts
          ; CALL XREF from K93_PRINTSORT.k93_print_item @ 0x65cc14
 154: K9_LIBRARY.k9_get_fdata ();
         ; var int32_t var_1h @ a7+0x1
         ; var int32_t var_2h @ a7+0x2
         ; var int32_t var_3h @ a7+0x3
         0x00649986      4e56ffce       link.w a6, 0xffce
         0x0064998a      bfd5           cmpa.l (a5), a7
     < 0x0064998c      6206           bhi.b 0x649994
        0x0064998e      44fc0002       move.w 0x2, ccr
        0x00649992      4e76           trapv
     > 0x00649994      defc002e       adda.w 0x2e, a7
         0x00649998      48e780e8       movem.l d0/a0-a2/a4, -(a7)
         0x0064999c      45ee000c       lea.l 0xc(a6), a2
         0x006499a0      206e0008       movea.l 0x8(a6), a0
         0x006499a4      594f           subq.w 0x4, a7
         0x006499a6      1e90           move.b (a0), (a7)
         0x006499a8      1f6800010001   move.b 0x1(a0), 0x1(a7)
         0x006499ae      1f6800020002   move.b 0x2(a0), 0x2(a7)
         0x006499b4      1f6800030003   move.b 0x3(a0), 0x3(a7)
         0x006499ba      285f           movea.l (a7)+, a4
         0x006499bc      b9ecfffc       cmpa.l -0x4(a4), a4
     < 0x006499c0      6702           beq.b 0x6499c4
        0x006499c2      4e4d           trap 0xd
     > 0x006499c4      554f           subq.w 0x2, a7
         0x006499c6      2f2e0016       move.l 0x16(a6), -(a7)
         0x006499ca      2f2e0012       move.l 0x12(a6), -(a7)
         0x006499ce      3f2e0010       move.w 0x10(a6), -(a7)
         0x006499d2      9efc000a       suba.w 0xa, a7
         0x006499d6      204f           movea.l a7, a0
         0x006499d8      43ec0008       lea.l 0x8(a4), a1
         0x006499dc      7009           moveq 0x9, d0
     > 0x006499de      10d9           move.b (a1)+, (a0)+
     < 0x006499e0      51c8fffc       dbra d0, 0x6499de
         0x006499e4      4eb9005ef3d2   jsr F2_UTILITY.f_fids_eq
         0x006499ea      defc0014       adda.w 0x14, a7
         0x006499ee      1017           move.b (a7), d0
         0x006499f0      4880           ext.w d0
         0x006499f2      41bc0001       chk.w 0x1, d0
         0x006499f6      1e80           move.b d0, (a7)
         0x006499f8      4eb90040452a   jsr p_Assert
         0x006499fe      544f           addq.w 0x2, a7
         0x00649a00      202c0014       move.l 0x14(a4), d0
         0x00649a04      c092           and.l (a2), d0
         0x00649a06      b092           cmp.l (a2), d0
     < 0x00649a08      670e           beq.b 0x649a18
        0x00649a0a      2f12           move.l (a2), -(a7)
        0x00649a0c      2f0c           move.l a4, -(a7)
        0x00649a0e      2f0c           move.l a4, -(a7)
        0x00649a10      4ebaa250       jsr K9_LIBRARY.make_file_info_(pc)
        0x00649a14      defc000c       adda.w 0xc, a7
     > 0x00649a18      4cdf1701       movem.l (a7)+, d0/a0-a2/a4
         0x00649a1c      4e5e           unlk a6
         0x00649a1e      4e75           rts
          ; CALL XREF from K9_LIBRARY.clear_list @ 0x649b9c
 64: K9_LIBRARY.break_link ();
         0x00649a20      4e56ffec       link.w a6, 0xffec
         0x00649a24      bfd5           cmpa.l (a5), a7
     < 0x00649a26      6206           bhi.b 0x649a2e
        0x00649a28      44fc0002       move.w 0x2, ccr
        0x00649a2c      4e76           trapv
     > 0x00649a2e      defc0014       adda.w 0x14, a7
         0x00649a32      48e700c0       movem.l a0-a1, -(a7)
         0x00649a36      206e0008       movea.l 0x8(a6), a0
         0x00649a3a      b1e8fffc       cmpa.l -0x4(a0), a0
     < 0x00649a3e      6702           beq.b 0x649a42
        0x00649a40      4e4d           trap 0xd
     > 0x00649a42      2250           movea.l (a0), a1
         0x00649a44      b2fc0001       cmpa.w 0x1, a1
     < 0x00649a48      670e           beq.b 0x649a58
        0x00649a4a      b3e9fffc       cmpa.l -0x4(a1), a1
    < 0x00649a4e      6702           beq.b 0x649a52
       0x00649a50      4e4d           trap 0xd
    > 0x00649a52      236800040004   move.l 0x4(a0), 0x4(a1)
     > 0x00649a58      4cdf0300       movem.l (a7)+, a0-a1
         0x00649a5c      4e5e           unlk a6
         0x00649a5e      4e75           rts
          ; CALL XREF from K9_LIBRARY.clear_list @ 0x649ba4
 68: K9_LIBRARY.check_empty_lis ();
         0x00649a60      4e56ffea       link.w a6, 0xffea
         0x00649a64      bfd5           cmpa.l (a5), a7
     < 0x00649a66      6206           bhi.b 0x649a6e
        0x00649a68      44fc0002       move.w 0x2, ccr
        0x00649a6c      4e76           trapv
     > 0x00649a6e      defc0016       adda.w 0x16, a7
         0x00649a72      48e780c0       movem.l d0/a0-a1, -(a7)
         0x00649a76      102e0008       move.b 0x8(a6), d0
         0x00649a7a      4880           ext.w d0
         0x00649a7c      e740           asl.w 0x3, d0
         0x00649a7e      206c0010       movea.l 0x10(a4), a0
         0x00649a82      b1e8fffc       cmpa.l -0x4(a0), a0
     < 0x00649a86      6702           beq.b 0x649a8a
        0x00649a88      4e4d           trap 0xd
     > 0x00649a8a      2270000c       movea.l 0xc(a0, d0.w), a1
         0x00649a8e      b3f00008       cmpa.l 0x8(a0, d0.w), a1
     < 0x00649a92      6608           bne.b 0x649a9c
        0x00649a94      21bc00000001.  move.l 0x1, 0xc(a0, d0.w)
     > 0x00649a9c      4cdf0301       movem.l (a7)+, d0/a0-a1
         0x00649aa0      4e5e           unlk a6
         0x00649aa2      4e75           rts
          ; CALL XREF from K9_LIBRARY.clear_list @ 0x649baa
 66: K9_LIBRARY.break_head_link ();
         0x00649aa4      4e56ffea       link.w a6, 0xffea
         0x00649aa8      bfd5           cmpa.l (a5), a7
     < 0x00649aaa      6206           bhi.b 0x649ab2
        0x00649aac      44fc0002       move.w 0x2, ccr
        0x00649ab0      4e76           trapv
     > 0x00649ab2      defc0016       adda.w 0x16, a7
         0x00649ab6      48e780c0       movem.l d0/a0-a1, -(a7)
         0x00649aba      102e0008       move.b 0x8(a6), d0
         0x00649abe      4880           ext.w d0
         0x00649ac0      e740           asl.w 0x3, d0
         0x00649ac2      206c0010       movea.l 0x10(a4), a0
         0x00649ac6      b1e8fffc       cmpa.l -0x4(a0), a0
     < 0x00649aca      6702           beq.b 0x649ace
        0x00649acc      4e4d           trap 0xd
     > 0x00649ace      22700008       movea.l 0x8(a0, d0.w), a1
         0x00649ad2      b3e9fffc       cmpa.l -0x4(a1), a1
     < 0x00649ad6      6702           beq.b 0x649ada
        0x00649ad8      4e4d           trap 0xd
     > 0x00649ada      21910008       move.l (a1), 0x8(a0, d0.w)
         0x00649ade      4cdf0301       movem.l (a7)+, d0/a0-a1
         0x00649ae2      4e5e           unlk a6
         0x00649ae4      4e75           rts
          ; CALL XREF from K9_LIBRARY.clear_list @ 0x649bb4
 122: K9_LIBRARY.check_dispose_t ();
         0x00649ae6      4e56ffba       link.w a6, 0xffba
         0x00649aea      bfd5           cmpa.l (a5), a7
     < 0x00649aec      6206           bhi.b 0x649af4
        0x00649aee      44fc0002       move.w 0x2, ccr
        0x00649af2      4e76           trapv
     > 0x00649af4      defc0042       adda.w 0x42, a7
         0x00649af8      48e7f9f0       movem.l d0-d4/d7/a0-a3, -(a7)
         0x00649afc      7401           moveq 0x1, d2
         0x00649afe      103900847e42   move.b 0x847e42, d0
         0x00649b04      4880           ext.w d0
         0x00649b06      c1fc02d0       muls.w 0x2d0, d0
         0x00649b0a      41f900847e32   lea.l 0x847e32, a0
         0x00649b10      226e0008       movea.l 0x8(a6), a1
         0x00649b14      7e01           moveq 0x1, d7
     > 0x00649b16      2207           move.l d7, d1
        0x00649b18      5381           subq.l 0x1, d1
        0x00649b1a      0c810000000b   cmpi.l 0xb, d1
    < 0x00649b20      6302           bls.b 0x649b24
       0x00649b22      4e4f           trap 0xf
    > 0x00649b24      2801           move.l d1, d4
        0x00649b26      761e           moveq 0x1e, d3
        0x00649b28      4eb900406a74   jsr fcn.00406a74
        0x00649b2e      45f00012       lea.l 0x12(a0, d0.w), a2
        0x00649b32      26724846       movea.l 0x46(a2, d4.l), a3
        0x00649b36      b7d1           cmpa.l (a1), a3
    < 0x00649b38      6608           bne.b 0x649b42
       0x00649b3a      25824846       move.l d2, 0x46(a2, d4.l)
       0x00649b3e      2582484a       move.l d2, 0x4a(a2, d4.l)
    > 0x00649b42      5287           addq.l 0x1, d7
        0x00649b44      0c870000000c   cmpi.l 0xc, d7
     < 0x00649b4a      6fca           ble.b 0x649b16
         0x00649b4c      206e0008       movea.l 0x8(a6), a0
         0x00649b50      2f10           move.l (a0), -(a7)
         0x00649b52      4ebad58c       jsr K9_LIBRARY.dispose_title(pc)
         0x00649b56      584f           addq.w 0x4, a7
         0x00649b58      4cdf0f9f       movem.l (a7)+, d0-d4/d7/a0-a3
         0x00649b5c      4e5e           unlk a6
         0x00649b5e      4e75           rts
          ; CALL XREFS from K9_LIBRARY.clear_file_list @ 0x649c08, 0x649c14
 100: K9_LIBRARY.clear_list ();
         0x00649b60      4e56ffda       link.w a6, 0xffda
         0x00649b64      bfd5           cmpa.l (a5), a7
     < 0x00649b66      6206           bhi.b 0x649b6e
        0x00649b68      44fc0002       move.w 0x2, ccr
        0x00649b6c      4e76           trapv
     > 0x00649b6e      defc0026       adda.w 0x26, a7
         0x00649b72      48e7c0c0       movem.l d0-d1/a0-a1, -(a7)
         0x00649b76      102e0008       move.b 0x8(a6), d0
         0x00649b7a      4880           ext.w d0
         0x00649b7c      3200           move.w d0, d1
         0x00649b7e      e741           asl.w 0x3, d1
     > 0x00649b80      206c0010       movea.l 0x10(a4), a0
        0x00649b84      b1e8fffc       cmpa.l -0x4(a0), a0
    < 0x00649b88      6702           beq.b 0x649b8c
       0x00649b8a      4e4d           trap 0xd
    > 0x00649b8c      22701008       movea.l 0x8(a0, d1.w), a1
        0x00649b90      b2fc0001       cmpa.w 0x1, a1
    < 0x00649b94      6726           beq.b 0x649bbc
       0x00649b96      29490004       move.l a1, 0x4(a4)
       0x00649b9a      2f09           move.l a1, -(a7)
       0x00649b9c      4ebafe82       jsr K9_LIBRARY.break_link(pc)
       0x00649ba0      544f           addq.w 0x2, a7
       0x00649ba2      1e80           move.b d0, (a7)
       0x00649ba4      4ebafeba       jsr K9_LIBRARY.check_empty_lis(pc)
       0x00649ba8      1e80           move.b d0, (a7)
       0x00649baa      4ebafef8       jsr K9_LIBRARY.break_head_link(pc)
       0x00649bae      544f           addq.w 0x2, a7
       0x00649bb0      486c0004       pea.l 0x4(a4)
       0x00649bb4      4ebaff30       jsr K9_LIBRARY.check_dispose_t(pc)
       0x00649bb8      584f           addq.w 0x4, a7
    < 0x00649bba      60c4           bra.b 0x649b80
    > 0x00649bbc      4cdf0303       movem.l (a7)+, d0-d1/a0-a1
         0x00649bc0      4e5e           unlk a6
         0x00649bc2      4e75           rts
          ; CALL XREF from fcn.00649c24 @ 0x649c58
 96: K9_LIBRARY.clear_file_list ();
         0x00649bc4      4e56ffe2       link.w a6, 0xffe2
         0x00649bc8      bfd5           cmpa.l (a5), a7
     < 0x00649bca      6206           bhi.b 0x649bd2
        0x00649bcc      44fc0002       move.w 0x2, ccr
        0x00649bd0      4e76           trapv
     > 0x00649bd2      defc001a       adda.w 0x1a, a7
         0x00649bd6      48e780c8       movem.l d0/a0-a1/a4, -(a7)
         0x00649bda      43eefff8       lea.l -0x8(a6), a1
         0x00649bde      7001           moveq 0x1, d0
         0x00649be0      554f           subq.w 0x2, a7
         0x00649be2      2f2e0008       move.l 0x8(a6), -(a7)
         0x00649be6      4ebaa94e       jsr K9_LIBRARY.lists_joined(pc)
         0x00649bea      584f           addq.w 0x4, a7
         0x00649bec      4a1f           tst.b (a7)+
     < 0x00649bee      6714           beq.b 0x649c04
        0x00649bf0      206e0008       movea.l 0x8(a6), a0
        0x00649bf4      b1e8fffc       cmpa.l -0x4(a0), a0
    < 0x00649bf8      6702           beq.b 0x649bfc
       0x00649bfa      4e4d           trap 0xd
    > 0x00649bfc      21400010       move.l d0, 0x10(a0)
        0x00649c00      21400014       move.l d0, 0x14(a0)
     > 0x00649c04      4227           clr.b -(a7)
         0x00649c06      2849           movea.l a1, a4
         0x00649c08      4ebaff56       jsr K9_LIBRARY.clear_list(pc)
         0x00649c0c      544f           addq.w 0x2, a7
         0x00649c0e      2851           movea.l (a1), a4
         0x00649c10      1f00           move.b d0, -(a7)
         0x00649c12      2849           movea.l a1, a4
         0x00649c14      4ebaff4a       jsr K9_LIBRARY.clear_list(pc)
         0x00649c18      544f           addq.w 0x2, a7
         0x00649c1a      2851           movea.l (a1), a4
         0x00649c1c      4cdf1301       movem.l (a7)+, d0/a0-a1/a4
         0x00649c20      4e5e           unlk a6
         0x00649c22      4e75           rts
          ; CALL XREF from K9_LIBRARY.k9_clear_found @ 0x649d1a
 176: fcn.00649c24 ();
         0x00649c24      4e56ffd4       link.w a6, 0xffd4
         0x00649c28      bfd5           cmpa.l (a5), a7
     < 0x00649c2a      6206           bhi.b 0x649c32
        0x00649c2c      44fc0002       move.w 0x2, ccr
        0x00649c30      4e76           trapv
     > 0x00649c32      defc0028       adda.w 0x28, a7
         0x00649c36      48e780f0       movem.l d0/a0-a3, -(a7)
         0x00649c3a      47eefffc       lea.l -0x4(a6), a3
         0x00649c3e      7001           moveq 0x1, d0
         0x00649c40      206e0008       movea.l 0x8(a6), a0
         0x00649c44      b1e8fffc       cmpa.l -0x4(a0), a0
     < 0x00649c48      6702           beq.b 0x649c4c
        0x00649c4a      4e4d           trap 0xd
     > 0x00649c4c      26a80008       move.l 0x8(a0), (a3)
     > 0x00649c50      2053           movea.l (a3), a0
        0x00649c52      b0c0           cmpa.w d0, a0
    < 0x00649c54      6776           beq.b 0x649ccc
       0x00649c56      2f08           move.l a0, -(a7)
       0x00649c58      4ebaff6a       jsr K9_LIBRARY.clear_file_list(pc)
       0x00649c5c      584f           addq.w 0x4, a7
       0x00649c5e      4a2c000c       tst.b 0xc(a4)
   < 0x00649c62      674c           beq.b 0x649cb0
      0x00649c64      b1e8fffc       cmpa.l -0x4(a0), a0
  < 0x00649c68      6702           beq.b 0x649c6c
     0x00649c6a      4e4d           trap 0xd
  > 0x00649c6c      2250           movea.l (a0), a1
      0x00649c6e      b2c0           cmpa.w d0, a1
  < 0x00649c70      670e           beq.b 0x649c80
     0x00649c72      b3e9fffc       cmpa.l -0x4(a1), a1
 < 0x00649c76      6702           beq.b 0x649c7a
    0x00649c78      4e4d           trap 0xd
 > 0x00649c7a      236800040004   move.l 0x4(a0), 0x4(a1)
  > 0x00649c80      226e0008       movea.l 0x8(a6), a1
      0x00649c84      b3e9fffc       cmpa.l -0x4(a1), a1
  < 0x00649c88      6702           beq.b 0x649c8c
     0x00649c8a      4e4d           trap 0xd
  > 0x00649c8c      24690008       movea.l 0x8(a1), a2
      0x00649c90      b5eafffc       cmpa.l -0x4(a2), a2
  < 0x00649c94      6702           beq.b 0x649c98
     0x00649c96      4e4d           trap 0xd
  > 0x00649c98      23520008       move.l (a2), 0x8(a1)
      0x00649c9c      4853           pea.l (a3)
      0x00649c9e      48780028       pea.l 0x28
      0x00649ca2      4eb900403b98   jsr p_Dispos
      0x00649ca8      504f           addq.w 0x8, a7
      0x00649caa      26a90008       move.l 0x8(a1), (a3)
  < 0x00649cae      601a           bra.b 0x649cca
  > 0x00649cb0      b1e8fffc       cmpa.l -0x4(a0), a0
  < 0x00649cb4      6702           beq.b 0x649cb8
     0x00649cb6      4e4d           trap 0xd
  > 0x00649cb8      4228001e       clr.b 0x1e(a0)
      0x00649cbc      4228001d       clr.b 0x1d(a0)
      0x00649cc0      4228001c       clr.b 0x1c(a0)
      0x00649cc4      1140001f       move.b d0, 0x1f(a0)
      0x00649cc8      2690           move.l (a0), (a3)
  < 0x00649cca      6084           bra.b 0x649c50
    > 0x00649ccc      4cdf0f01       movem.l (a7)+, d0/a0-a3
         0x00649cd0      4e5e           unlk a6
         0x00649cd2      4e75           rts
          ; CALL XREF from K9_LIBRARY.do_everything_a @ 0x646a22
          ; CALL XREF from MENULIBCOM.do_sklr @ 0x751ad4
 220: K9_LIBRARY.k9_clear_found ();
         0x00649cd4      4e56ffc6       link.w a6, 0xffc6
         0x00649cd8      bfd5           cmpa.l (a5), a7
     < 0x00649cda      6206           bhi.b 0x649ce2
        0x00649cdc      44fc0002       move.w 0x2, ccr
        0x00649ce0      4e76           trapv
     > 0x00649ce2      defc0036       adda.w 0x36, a7
         0x00649ce6      48e7e0f8       movem.l d0-d2/a0-a4, -(a7)
         0x00649cea      47eefffc       lea.l -0x4(a6), a3
         0x00649cee      7201           moveq 0x1, d1
         0x00649cf0      343c02d0       move.w 0x2d0, d2
         0x00649cf4      103900847e42   move.b 0x847e42, d0
         0x00649cfa      4880           ext.w d0
         0x00649cfc      c1c2           muls.w d2, d0
         0x00649cfe      41f900847e32   lea.l 0x847e32, a0
         0x00649d04      41f00000       lea.l (a0, d0.w), a0
         0x00649d08      422802dd       clr.b 0x2dd(a0)
         0x00649d0c      26a80016       move.l 0x16(a0), (a3)
     > 0x00649d10      2053           movea.l (a3), a0
        0x00649d12      b0c1           cmpa.w d1, a0
    < 0x00649d14      6770           beq.b 0x649d86
       0x00649d16      2f08           move.l a0, -(a7)
       0x00649d18      284b           movea.l a3, a4
       0x00649d1a      4ebaff08       jsr fcn.00649c24(pc)
       0x00649d1e      584f           addq.w 0x4, a7
       0x00649d20      4a2e0008       tst.b 0x8(a6)
   < 0x00649d24      6752           beq.b 0x649d78
      0x00649d26      2253           movea.l (a3), a1
      0x00649d28      b3e9fffc       cmpa.l -0x4(a1), a1
  < 0x00649d2c      6702           beq.b 0x649d30
     0x00649d2e      4e4d           trap 0xd
  > 0x00649d30      2451           movea.l (a1), a2
      0x00649d32      b4c1           cmpa.w d1, a2
  < 0x00649d34      670e           beq.b 0x649d44
     0x00649d36      b5eafffc       cmpa.l -0x4(a2), a2
 < 0x00649d3a      6702           beq.b 0x649d3e
    0x00649d3c      4e4d           trap 0xd
 > 0x00649d3e      256900040004   move.l 0x4(a1), 0x4(a2)
  > 0x00649d44      103900847e42   move.b 0x847e42, d0
      0x00649d4a      4880           ext.w d0
      0x00649d4c      c1c2           muls.w d2, d0
      0x00649d4e      43f900847e32   lea.l 0x847e32, a1
      0x00649d54      24710016       movea.l 0x16(a1, d0.w), a2
      0x00649d58      b5eafffc       cmpa.l -0x4(a2), a2
  < 0x00649d5c      6702           beq.b 0x649d60
     0x00649d5e      4e4d           trap 0xd
  > 0x00649d60      23920016       move.l (a2), 0x16(a1, d0.w)
      0x00649d64      4853           pea.l (a3)
      0x00649d66      48780110       pea.l 0x110
      0x00649d6a      4eb900403b98   jsr p_Dispos
      0x00649d70      504f           addq.w 0x8, a7
      0x00649d72      26b10016       move.l 0x16(a1, d0.w), (a3)
  < 0x00649d76      600c           bra.b 0x649d84
  > 0x00649d78      2253           movea.l (a3), a1
      0x00649d7a      b3e9fffc       cmpa.l -0x4(a1), a1
  < 0x00649d7e      6702           beq.b 0x649d82
     0x00649d80      4e4d           trap 0xd
  > 0x00649d82      2691           move.l (a1), (a3)
  < 0x00649d84      608a           bra.b 0x649d10
    > 0x00649d86      4a2e0008       tst.b 0x8(a6)
     < 0x00649d8a      671c           beq.b 0x649da8
        0x00649d8c      103900847e42   move.b 0x847e42, d0
        0x00649d92      4880           ext.w d0
        0x00649d94      c1c2           muls.w d2, d0
        0x00649d96      41f900847e32   lea.l 0x847e32, a0
        0x00649d9c      2181001a       move.l d1, 0x1a(a0, d0.w)
        0x00649da0      21810012       move.l d1, 0x12(a0, d0.w)
        0x00649da4      2181001e       move.l d1, 0x1e(a0, d0.w)
     > 0x00649da8      4cdf1f07       movem.l (a7)+, d0-d2/a0-a4
         0x00649dac      4e5e           unlk a6
         0x00649dae      4e75           rts
          ; CALL XREFS from K9_LIBRARY.purge_vol @ 0x649e40, 0x649e4e
 110: fcn.00649db0 ();
         0x00649db0      4e56ffda       link.w a6, 0xffda
         0x00649db4      bfd5           cmpa.l (a5), a7
     < 0x00649db6      6206           bhi.b 0x649dbe
        0x00649db8      44fc0002       move.w 0x2, ccr
        0x00649dbc      4e76           trapv
     > 0x00649dbe      defc0022       adda.w 0x22, a7
         0x00649dc2      48e7c090       movem.l d0-d1/a0/a3, -(a7)
         0x00649dc6      102e0008       move.b 0x8(a6), d0
         0x00649dca      4880           ext.w d0
         0x00649dcc      e540           asl.w 0x2, d0
         0x00649dce      122e000a       move.b 0xa(a6), d1
         0x00649dd2      4881           ext.w d1
         0x00649dd4      e741           asl.w 0x3, d1
         0x00649dd6      206c000c       movea.l 0xc(a4), a0
         0x00649dda      b1e8fffc       cmpa.l -0x4(a0), a0
     < 0x00649dde      6702           beq.b 0x649de2
        0x00649de0      4e4d           trap 0xd
     > 0x00649de2      41f01000       lea.l (a0, d1.w), a0
         0x00649de6      26700008       movea.l 0x8(a0, d0.w), a3
         0x00649dea      2054           movea.l (a4), a0
         0x00649dec      2050           movea.l (a0), a0
         0x00649dee      102e000a       move.b 0xa(a6), d0
         0x00649df2      4880           ext.w d0
         0x00649df4      e540           asl.w 0x2, d0
     > 0x00649df6      b6fc0001       cmpa.w 0x1, a3
    < 0x00649dfa      671a           beq.b 0x649e16
       0x00649dfc      2f0b           move.l a3, -(a7)
       0x00649dfe      48680004       pea.l 0x4(a0)
       0x00649e02      4ebad19c       jsr K9_LIBRARY.dispose_title_d(pc)
       0x00649e06      504f           addq.w 0x8, a7
       0x00649e08      b7ebfffc       cmpa.l -0x4(a3), a3
   < 0x00649e0c      6702           beq.b 0x649e10
      0x00649e0e      4e4d           trap 0xd
   > 0x00649e10      26730000       movea.l (a3, d0.w), a3
    < 0x00649e14      60e0           bra.b 0x649df6
    > 0x00649e16      4cdf0903       movem.l (a7)+, d0-d1/a0/a3
         0x00649e1a      4e5e           unlk a6
         0x00649e1c      4e75           rts
          ; CALL XREF from K9_LIBRARY.purge_display @ 0x649e8e
 64: K9_LIBRARY.purge_vol ();
         0x00649e1e      4e56ffec       link.w a6, 0xffec
         0x00649e22      bfd5           cmpa.l (a5), a7
     < 0x00649e24      6206           bhi.b 0x649e2c
        0x00649e26      44fc0002       move.w 0x2, ccr
        0x00649e2a      4e76           trapv
     > 0x00649e2c      defc0014       adda.w 0x14, a7
         0x00649e30      48e78088       movem.l d0/a0/a4, -(a7)
         0x00649e34      41eefffc       lea.l -0x4(a6), a0
         0x00649e38      7001           moveq 0x1, d0
         0x00649e3a      4227           clr.b -(a7)
         0x00649e3c      4227           clr.b -(a7)
         0x00649e3e      2848           movea.l a0, a4
         0x00649e40      4ebaff6e       jsr fcn.00649db0(pc)
         0x00649e44      584f           addq.w 0x4, a7
         0x00649e46      2850           movea.l (a0), a4
         0x00649e48      1f00           move.b d0, -(a7)
         0x00649e4a      1f00           move.b d0, -(a7)
         0x00649e4c      2848           movea.l a0, a4
         0x00649e4e      4ebaff60       jsr fcn.00649db0(pc)
         0x00649e52      584f           addq.w 0x4, a7
         0x00649e54      2850           movea.l (a0), a4
         0x00649e56      4cdf1101       movem.l (a7)+, d0/a0/a4
         0x00649e5a      4e5e           unlk a6
         0x00649e5c      4e75           rts
          ; CALL XREF from K9_LIBRARY.purge_library @ 0x649eee
 78: K9_LIBRARY.purge_display ();
         0x00649e5e      4e56ffe8       link.w a6, 0xffe8
         0x00649e62      bfd5           cmpa.l (a5), a7
     < 0x00649e64      6206           bhi.b 0x649e6c
        0x00649e66      44fc0002       move.w 0x2, ccr
        0x00649e6a      4e76           trapv
     > 0x00649e6c      defc0014       adda.w 0x14, a7
         0x00649e70      48e70098       movem.l a0/a3-a4, -(a7)
         0x00649e74      2054           movea.l (a4), a0
         0x00649e76      b1e8fffc       cmpa.l -0x4(a0), a0
     < 0x00649e7a      6702           beq.b 0x649e7e
        0x00649e7c      4e4d           trap 0xd
     > 0x00649e7e      26680008       movea.l 0x8(a0), a3
     > 0x00649e82      b6fc0001       cmpa.w 0x1, a3
    < 0x00649e86      671c           beq.b 0x649ea4
       0x00649e88      2f0b           move.l a3, -(a7)
       0x00649e8a      49eefff8       lea.l -0x8(a6), a4
       0x00649e8e      4ebaff8e       jsr K9_LIBRARY.purge_vol(pc)
       0x00649e92      584f           addq.w 0x4, a7
       0x00649e94      286efff8       movea.l -0x8(a6), a4
       0x00649e98      b7ebfffc       cmpa.l -0x4(a3), a3
   < 0x00649e9c      6702           beq.b 0x649ea0
      0x00649e9e      4e4d           trap 0xd
   > 0x00649ea0      2653           movea.l (a3), a3
    < 0x00649ea2      60de           bra.b 0x649e82
    > 0x00649ea4      4cdf1900       movem.l (a7)+, a0/a3-a4
         0x00649ea8      4e5e           unlk a6
         0x00649eaa      4e75           rts
 138: K9_LIBRARY.purge_library ();
         0x00649eac      4e56ffd2       link.w a6, 0xffd2
         0x00649eb0      bfd5           cmpa.l (a5), a7
     < 0x00649eb2      6206           bhi.b 0x649eba
        0x00649eb4      44fc0002       move.w 0x2, ccr
        0x00649eb8      4e76           trapv
     > 0x00649eba      defc0028       adda.w 0x28, a7
         0x00649ebe      48e780f8       movem.l d0/a0-a4, -(a7)
         0x00649ec2      45eefffa       lea.l -0x6(a6), a2
         0x00649ec6      47eefffe       lea.l -0x2(a6), a3
         0x00649eca      4213           clr.b (a3)
         0x00649ecc      103900847e42   move.b 0x847e42, d0
         0x00649ed2      4880           ext.w d0
         0x00649ed4      c1fc02d0       muls.w 0x2d0, d0
         0x00649ed8      41f900847e32   lea.l 0x847e32, a0
         0x00649ede      24b00016       move.l 0x16(a0, d0.w), (a2)
     > 0x00649ee2      2052           movea.l (a2), a0
        0x00649ee4      b0fc0001       cmpa.w 0x1, a0
    < 0x00649ee8      6718           beq.b 0x649f02
       0x00649eea      2f08           move.l a0, -(a7)
       0x00649eec      284a           movea.l a2, a4
       0x00649eee      4ebaff6e       jsr K9_LIBRARY.purge_display(pc)
       0x00649ef2      584f           addq.w 0x4, a7
       0x00649ef4      2252           movea.l (a2), a1
       0x00649ef6      b3e9fffc       cmpa.l -0x4(a1), a1
   < 0x00649efa      6702           beq.b 0x649efe
      0x00649efc      4e4d           trap 0xd
   > 0x00649efe      2491           move.l (a1), (a2)
    < 0x00649f00      60e0           bra.b 0x649ee2
    > 0x00649f02      487a8c41       pea.l 0x642b45(pc)
         0x00649f06      48780023       pea.l 0x23
         0x00649f0a      2f17           move.l (a7), -(a7)
         0x00649f0c      4eb9004047ea   jsr p_wts_o
         0x00649f12      defc000a       adda.w 0xa, a7
         0x00649f16      1e93           move.b (a3), (a7)
         0x00649f18      48780005       pea.l 0x5
         0x00649f1c      4eb90040718c   jsr p_wtb_o
         0x00649f22      5c4f           addq.w 0x6, a7
         0x00649f24      4eb900404946   jsr p_wtln_o
         0x00649f2a      1d530008       move.b (a3), 0x8(a6)
         0x00649f2e      4cdf1f01       movem.l (a7)+, d0/a0-a4
         0x00649f32      4e5e           unlk a6
         0x00649f34      4e75           rts
          ; CALL XREF from K95_CARDS.k95_setup_volum @ 0x66311c
 414: K9_LIBRARY.k9_allocate_dis ();
         0x00649f36      4e56ffba       link.w a6, 0xffba
         0x00649f3a      bfd5           cmpa.l (a5), a7
     < 0x00649f3c      6206           bhi.b 0x649f44
        0x00649f3e      44fc0002       move.w 0x2, ccr
        0x00649f42      4e76           trapv
     > 0x00649f44      defc003e       adda.w 0x3e, a7
         0x00649f48      48e7f0f8       movem.l d0-d3/a0-a4, -(a7)
         0x00649f4c      47eefff8       lea.l -0x8(a6), a3
         0x00649f50      49f9004047ea   lea.l p_wts_o, a4
         0x00649f56      7401           moveq 0x1, d2
         0x00649f58      760c           moveq 0xc, d3
         0x00649f5a      103900847e42   move.b 0x847e42, d0
         0x00649f60      4880           ext.w d0
         0x00649f62      c1fc02d0       muls.w 0x2d0, d0
         0x00649f66      41f900847e32   lea.l 0x847e32, a0
         0x00649f6c      4a2e0108       tst.b 0x108(a6)
     < 0x00649f70      660a           bne.b 0x649f7c
        0x00649f72      2270001a       movea.l 0x1a(a0, d0.w), a1
        0x00649f76      b2c2           cmpa.w d2, a1
    < 0x00649f78      66000096       bne.w 0x64a010
    > 0x00649f7c      4853           pea.l (a3)
        0x00649f7e      48780110       pea.l 0x110
        0x00649f82      4eb900403a92   jsr p_New
        0x00649f88      504f           addq.w 0x8, a7
        0x00649f8a      2253           movea.l (a3), a1
        0x00649f8c      b2c2           cmpa.w d2, a1
    < 0x00649f8e      6632           bne.b 0x649fc2
       0x00649f90      487a8bd7       pea.l 0x642b69(pc)
       0x00649f94      48780015       pea.l 0x15
       0x00649f98      2f17           move.l (a7), -(a7)
       0x00649f9a      4e94           jsr (a4)                    ; fcn.0000000d
       0x00649f9c      dec3           adda.w d3, a7
       0x00649f9e      48780004       pea.l 0x4
       0x00649fa2      48780000       pea.l 0x0
       0x00649fa6      4eb9004070e4   jsr p_wti_o
       0x00649fac      504f           addq.w 0x8, a7
       0x00649fae      487a8bcf       pea.l 0x642b7f(pc)
       0x00649fb2      4878002a       pea.l 0x2a
       0x00649fb6      2f17           move.l (a7), -(a7)
       0x00649fb8      4e94           jsr (a4)                    ; fcn.0000000d
       0x00649fba      dec3           adda.w d3, a7
       0x00649fbc      4eb900404946   jsr p_wtln_o
    > 0x00649fc2      2470001a       movea.l 0x1a(a0, d0.w), a2
        0x00649fc6      b4c2           cmpa.w d2, a2
    < 0x00649fc8      6604           bne.b 0x649fce
       0x00649fca      21890016       move.l a1, 0x16(a0, d0.w)
    > 0x00649fce      b3e9fffc       cmpa.l -0x4(a1), a1
    < 0x00649fd2      6702           beq.b 0x649fd6
       0x00649fd4      4e4d           trap 0xd
    > 0x00649fd6      2282           move.l d2, (a1)
        0x00649fd8      2370001a0004   move.l 0x1a(a0, d0.w), 0x4(a1)
        0x00649fde      2470001a       movea.l 0x1a(a0, d0.w), a2
        0x00649fe2      b4c2           cmpa.w d2, a2
    < 0x00649fe4      670a           beq.b 0x649ff0
       0x00649fe6      b5eafffc       cmpa.l -0x4(a2), a2
   < 0x00649fea      6702           beq.b 0x649fee
      0x00649fec      4e4d           trap 0xd
   > 0x00649fee      2489           move.l a1, (a2)
    > 0x00649ff0      2189001a       move.l a1, 0x1a(a0, d0.w)
        0x00649ff4      23420008       move.l d2, 0x8(a1)
        0x00649ff8      2342000c       move.l d2, 0xc(a1)
        0x00649ffc      43e90010       lea.l 0x10(a1), a1
        0x0064a000      45ee0008       lea.l 0x8(a6), a2
        0x0064a004      323c00ff       move.w 0xff, d1
    > 0x0064a008      12da           move.b (a2)+, (a1)+
    < 0x0064a00a      51c9fffc       dbra d1, 0x64a008
    < 0x0064a00e      6004           bra.b 0x64a014
    > 0x0064a010      26b0001a       move.l 0x1a(a0, d0.w), (a3)
     > 0x0064a014      486efffc       pea.l -0x4(a6)
         0x0064a018      48780028       pea.l 0x28
         0x0064a01c      4eb900403a92   jsr p_New
         0x0064a022      504f           addq.w 0x8, a7
         0x0064a024      206efffc       movea.l -0x4(a6), a0
         0x0064a028      b0c2           cmpa.w d2, a0
     < 0x0064a02a      6632           bne.b 0x64a05e
        0x0064a02c      487a8b7c       pea.l 0x642baa(pc)
        0x0064a030      48780015       pea.l 0x15
        0x0064a034      2f17           move.l (a7), -(a7)
        0x0064a036      4e94           jsr (a4)                    ; fcn.0000000d
        0x0064a038      dec3           adda.w d3, a7
        0x0064a03a      48780028       pea.l 0x28
        0x0064a03e      48780000       pea.l 0x0
        0x0064a042      4eb9004070e4   jsr p_wti_o
        0x0064a048      504f           addq.w 0x8, a7
        0x0064a04a      487a8b74       pea.l 0x642bc0(pc)
        0x0064a04e      4878002a       pea.l 0x2a
        0x0064a052      2f17           move.l (a7), -(a7)
        0x0064a054      4e94           jsr (a4)                    ; fcn.0000000d
        0x0064a056      dec3           adda.w d3, a7
        0x0064a058      4eb900404946   jsr p_wtln_o
     > 0x0064a05e      2253           movea.l (a3), a1
         0x0064a060      b3e9fffc       cmpa.l -0x4(a1), a1
     < 0x0064a064      6702           beq.b 0x64a068
        0x0064a066      4e4d           trap 0xd
     > 0x0064a068      2469000c       movea.l 0xc(a1), a2
         0x0064a06c      b4c2           cmpa.w d2, a2
     < 0x0064a06e      6604           bne.b 0x64a074
        0x0064a070      23480008       move.l a0, 0x8(a1)
     > 0x0064a074      b1e8fffc       cmpa.l -0x4(a0), a0
     < 0x0064a078      6702           beq.b 0x64a07c
        0x0064a07a      4e4d           trap 0xd
     > 0x0064a07c      2082           move.l d2, (a0)
         0x0064a07e      2169000c0004   move.l 0xc(a1), 0x4(a0)
         0x0064a084      2469000c       movea.l 0xc(a1), a2
         0x0064a088      b4c2           cmpa.w d2, a2
     < 0x0064a08a      670a           beq.b 0x64a096
        0x0064a08c      b5eafffc       cmpa.l -0x4(a2), a2
    < 0x0064a090      6702           beq.b 0x64a094
       0x0064a092      4e4d           trap 0xd
    > 0x0064a094      2488           move.l a0, (a2)
     > 0x0064a096      2348000c       move.l a0, 0xc(a1)
         0x0064a09a      4228001e       clr.b 0x1e(a0)
         0x0064a09e      4228001d       clr.b 0x1d(a0)
         0x0064a0a2      4228001c       clr.b 0x1c(a0)
         0x0064a0a6      216e010a0018   move.l 0x10a(a6), 0x18(a0)
         0x0064a0ac      1142001f       move.b d2, 0x1f(a0)
         0x0064a0b0      217cffffffff.  move.l 0xffffffff, 0x20(a0)
         0x0064a0b8      42a80024       clr.l 0x24(a0)
         0x0064a0bc      21420008       move.l d2, 0x8(a0)
         0x0064a0c0      2142000c       move.l d2, 0xc(a0)
         0x0064a0c4      21420010       move.l d2, 0x10(a0)
         0x0064a0c8      21420014       move.l d2, 0x14(a0)
         0x0064a0cc      4cdf1f0f       movem.l (a7)+, d0-d3/a0-a4
         0x0064a0d0      4e5e           unlk a6
         0x0064a0d2      4e75           rts
          ; CALL XREF from K9_LIBRARY.k9_skl @ 0x64a19e
          ; CALL XREF from K9_LIBRARY.k9_recall @ 0x64a1d6
 92: K9_LIBRARY.sklr_handler ();
         0x0064a0d4      4e56ffe4       link.w a6, 0xffe4
         0x0064a0d8      bfd5           cmpa.l (a5), a7
     < 0x0064a0da      6206           bhi.b 0x64a0e2
        0x0064a0dc      44fc0002       move.w 0x2, ccr
        0x0064a0e0      4e76           trapv
     > 0x0064a0e2      defc0018       adda.w 0x18, a7
         0x0064a0e6      48e78080       movem.l d0/a0, -(a7)
         0x0064a0ea      594f           subq.w 0x4, a7
         0x0064a0ec      4eb900402e30   jsr p_Cur_Ticks
         0x0064a0f2      2d5ffffc       move.l (a7)+, -0x4(a6)
         0x0064a0f6      103900847e42   move.b 0x847e42, d0
         0x0064a0fc      4880           ext.w d0
         0x0064a0fe      c1fc02d0       muls.w 0x2d0, d0
         0x0064a102      41f900847e32   lea.l 0x847e32, a0
         0x0064a108      11ae000c002c   move.b 0xc(a6), 0x2c(a0, d0.w)
         0x0064a10e      1f3c0008       move.b 0x8, -(a7)
         0x0064a112      48780000       pea.l 0x0
         0x0064a116      1f3c0001       move.b 0x1, -(a7)
         0x0064a11a      206e0008       movea.l 0x8(a6), a0
         0x0064a11e      4850           pea.l (a0)
         0x0064a120      4ebac680       jsr K9_LIBRARY.cmd_handler(pc)
         0x0064a124      defc000c       adda.w 0xc, a7
         0x0064a128      4cdf0101       movem.l (a7)+, d0/a0
         0x0064a12c      4e5e           unlk a6
         0x0064a12e      4e75           rts
          ; CALL XREF from MENULIBFNDCOM.hit_up_down @ 0x758a10
 54: K9_LIBRARY.k9_more ();
         0x0064a130      4e56ffec       link.w a6, 0xffec
         0x0064a134      bfd5           cmpa.l (a5), a7
     < 0x0064a136      6206           bhi.b 0x64a13e
        0x0064a138      44fc0002       move.w 0x2, ccr
        0x0064a13c      4e76           trapv
     > 0x0064a13e      defc0014       adda.w 0x14, a7
         0x0064a142      48e70080       movem.l a0, -(a7)
         0x0064a146      1f2e0010       move.b 0x10(a6), -(a7)
         0x0064a14a      2f2e000c       move.l 0xc(a6), -(a7)
         0x0064a14e      4227           clr.b -(a7)
         0x0064a150      206e0008       movea.l 0x8(a6), a0
         0x0064a154      4850           pea.l (a0)
         0x0064a156      4ebac64a       jsr K9_LIBRARY.cmd_handler(pc)
         0x0064a15a      defc000c       adda.w 0xc, a7
         0x0064a15e      4cdf0100       movem.l (a7)+, a0
         0x0064a162      4e5e           unlk a6
         0x0064a164      4e75           rts
 70: K9_LIBRARY.k9_skl ();
         0x0064a166      4e56ffee       link.w a6, 0xffee
         0x0064a16a      bfd5           cmpa.l (a5), a7
     < 0x0064a16c      6206           bhi.b 0x64a174
        0x0064a16e      44fc0002       move.w 0x2, ccr
        0x0064a172      4e76           trapv
     > 0x0064a174      defc0012       adda.w 0x12, a7
         0x0064a178      48e700c0       movem.l a0-a1, -(a7)
         0x0064a17c      43ee000c       lea.l 0xc(a6), a1
         0x0064a180      4227           clr.b -(a7)
         0x0064a182      4a11           tst.b (a1)
     < 0x0064a184      6702           beq.b 0x64a188
        0x0064a186      5217           addq.b 0x1, (a7)
     > 0x0064a188      4eb90040452a   jsr p_Assert
         0x0064a18e      1e91           move.b (a1), (a7)
         0x0064a190      4eb900663042   jsr K95_CARDS.k95_setup_volum
         0x0064a196      1e91           move.b (a1), (a7)
         0x0064a198      206e0008       movea.l 0x8(a6), a0
         0x0064a19c      4850           pea.l (a0)
         0x0064a19e      4ebaff34       jsr K9_LIBRARY.sklr_handler(pc)
         0x0064a1a2      5c4f           addq.w 0x6, a7
         0x0064a1a4      4cdf0300       movem.l (a7)+, a0-a1
         0x0064a1a8      4e5e           unlk a6
         0x0064a1aa      4e75           rts
 56: K9_LIBRARY.k9_recall ();
         0x0064a1ac      4e56fff2       link.w a6, 0xfff2
         0x0064a1b0      bfd5           cmpa.l (a5), a7
     < 0x0064a1b2      6206           bhi.b 0x64a1ba
        0x0064a1b4      44fc0002       move.w 0x2, ccr
        0x0064a1b8      4e76           trapv
     > 0x0064a1ba      defc000e       adda.w 0xe, a7
         0x0064a1be      48e70080       movem.l a0, -(a7)
         0x0064a1c2      1f3c0001       move.b 0x1, -(a7)
         0x0064a1c6      4eb900663042   jsr K95_CARDS.k95_setup_volum
         0x0064a1cc      1ebc0004       move.b 0x4, (a7)
         0x0064a1d0      206e0008       movea.l 0x8(a6), a0
         0x0064a1d4      4850           pea.l (a0)
         0x0064a1d6      4ebafefc       jsr K9_LIBRARY.sklr_handler(pc)
         0x0064a1da      5c4f           addq.w 0x6, a7
         0x0064a1dc      4cdf0100       movem.l (a7)+, a0
         0x0064a1e0      4e5e           unlk a6
         0x0064a1e2      4e75           rts
          ; CALL XREFS from MENULIBFNDCOM.hit_action_sele @ 0x758daa, 0x758fe2
 54: K9_LIBRARY.k9_set_select_m ();
         0x0064a1e4      4e56ffee       link.w a6, 0xffee
         0x0064a1e8      bfd5           cmpa.l (a5), a7
     < 0x0064a1ea      6206           bhi.b 0x64a1f2
        0x0064a1ec      44fc0002       move.w 0x2, ccr
        0x0064a1f0      4e76           trapv
     > 0x0064a1f2      defc0012       adda.w 0x12, a7
         0x0064a1f6      48e78080       movem.l d0/a0, -(a7)
         0x0064a1fa      103900847e42   move.b 0x847e42, d0
         0x0064a200      4880           ext.w d0
         0x0064a202      c1fc02d0       muls.w 0x2d0, d0
         0x0064a206      41f900847e32   lea.l 0x847e32, a0
         0x0064a20c      11ae00080033   move.b 0x8(a6), 0x33(a0, d0.w)
         0x0064a212      4cdf0101       movem.l (a7)+, d0/a0
         0x0064a216      4e5e           unlk a6
         0x0064a218      4e75           rts
          ; CALL XREF from MENULIBFNDCOM.hit_resize_upda @ 0x759838
 78: K9_LIBRARY.k9_resize_reloa ();
         0x0064a21a      4e56ffe2       link.w a6, 0xffe2
         0x0064a21e      bfd5           cmpa.l (a5), a7
     < 0x0064a220      6206           bhi.b 0x64a228
        0x0064a222      44fc0002       move.w 0x2, ccr
        0x0064a226      4e76           trapv
     > 0x0064a228      defc001e       adda.w 0x1e, a7
         0x0064a22c      48e7c080       movem.l d0-d1/a0, -(a7)
         0x0064a230      103900847e42   move.b 0x847e42, d0
         0x0064a236      4880           ext.w d0
         0x0064a238      c1fc02d0       muls.w 0x2d0, d0
         0x0064a23c      41f900847e32   lea.l 0x847e32, a0
         0x0064a242      554f           subq.w 0x2, a7
         0x0064a244      12300056       move.b 0x56(a0, d0.w), d1
         0x0064a248      4881           ext.w d1
         0x0064a24a      43bc0056       chk.w 0x56, d1
         0x0064a24e      1f01           move.b d1, -(a7)
         0x0064a250      48700052       pea.l 0x52(a0, d0.w)
         0x0064a254      4eb90064ee48   jsr K91_LIBOPS.k91_resize
         0x0064a25a      5c4f           addq.w 0x6, a7
         0x0064a25c      3d5f0008       move.w (a7)+, 0x8(a6)
         0x0064a260      4cdf0103       movem.l (a7)+, d0-d1/a0
         0x0064a264      4e5e           unlk a6
         0x0064a266      4e75           rts
          ; CALL XREF from MENULIBCOM.hit_retitle @ 0x75227c
 194: K9_LIBRARY.k9_hit_retitle ();
         0x0064a268      4e56ffba       link.w a6, 0xffba
         0x0064a26c      bfd5           cmpa.l (a5), a7
     < 0x0064a26e      6206           bhi.b 0x64a276
        0x0064a270      44fc0002       move.w 0x2, ccr
        0x0064a274      4e76           trapv
     > 0x0064a276      defc0046       adda.w 0x46, a7
         0x0064a27a      48e7f0f0       movem.l d0-d3/a0-a3, -(a7)
         0x0064a27e      45f900847e32   lea.l 0x847e32, a2
         0x0064a284      47ee0010       lea.l 0x10(a6), a3
         0x0064a288      263cffff8000   move.l 0xffff8000, d3
         0x0064a28e      103900847e42   move.b 0x847e42, d0
         0x0064a294      4880           ext.w d0
         0x0064a296      c1fc02d0       muls.w 0x2d0, d0
         0x0064a29a      204a           movea.l a2, a0
         0x0064a29c      226e0008       movea.l 0x8(a6), a1
         0x0064a2a0      4211           clr.b (a1)
         0x0064a2a2      4ab00044       tst.l 0x44(a0, d0.w)
     < 0x0064a2a6      677a           beq.b 0x64a322
        0x0064a2a8      12300034       move.b 0x34(a0, d0.w), d1
        0x0064a2ac      0c010006       cmpi.b 0x6, d1
    < 0x0064a2b0      6670           bne.b 0x64a322
       0x0064a2b2      3213           move.w (a3), d1
       0x0064a2b4      48c1           ext.l d1
       0x0064a2b6      3412           move.w (a2), d2
       0x0064a2b8      48c2           ext.l d2
       0x0064a2ba      d481           add.l d1, d2
       0x0064a2bc      9483           sub.l d3, d2
       0x0064a2be      0c820000ffff   cmpi.l 0xffff, d2
   < 0x0064a2c4      6302           bls.b 0x64a2c8
      0x0064a2c6      4e4f           trap 0xf
   > 0x0064a2c8      d483           add.l d3, d2
       0x0064a2ca      3682           move.w d2, (a3)
       0x0064a2cc      322e0012       move.w 0x12(a6), d1
       0x0064a2d0      48c1           ext.l d1
       0x0064a2d2      343900847e34   move.w 0x847e34, d2
       0x0064a2d8      48c2           ext.l d2
       0x0064a2da      d481           add.l d1, d2
       0x0064a2dc      94ae000c       sub.l 0xc(a6), d2
       0x0064a2e0      048200000080   subi.l 0x80, d2
       0x0064a2e6      9483           sub.l d3, d2
       0x0064a2e8      0c820000ffff   cmpi.l 0xffff, d2
   < 0x0064a2ee      6302           bls.b 0x64a2f2
      0x0064a2f0      4e4f           trap 0xf
   > 0x0064a2f2      d483           add.l d3, d2
       0x0064a2f4      3d420012       move.w d2, 0x12(a6)
       0x0064a2f8      2f300036       move.l 0x36(a0, d0.w), -(a7)
       0x0064a2fc      514f           subq.w 0x8, a7
       0x0064a2fe      1f3c0003       move.b 0x3, -(a7)
       0x0064a302      48780000       pea.l 0x0
       0x0064a306      4227           clr.b -(a7)
       0x0064a308      4eb900660596   jsr K95_CARDS.k95_get_lib_ite
       0x0064a30e      584f           addq.w 0x4, a7
       0x0064a310      2e93           move.l (a3), (a7)
       0x0064a312      4851           pea.l (a1)
       0x0064a314      4870004e       pea.l 0x4e(a0, d0.w)
       0x0064a318      4eb9006585a0   jsr K92_DISPLAY.k92_info_press
       0x0064a31e      defc0018       adda.w 0x18, a7
    > 0x0064a322      4cdf0f0f       movem.l (a7)+, d0-d3/a0-a3
         0x0064a326      4e5e           unlk a6
         0x0064a328      4e75           rts
          ; CALL XREF from K9_LIBRARY.k9_start_retitl @ 0x64b2c2
          ; CALL XREF from MENULIBCOM.abort_retitle @ 0x74d8da
          ; CALL XREF from MENULIBCOM.hit_ignore_reti @ 0x74d9a8
 52: K9_LIBRARY.k9_ign_retitle ();
         0x0064a32a      4e56ffee       link.w a6, 0xffee
         0x0064a32e      bfd5           cmpa.l (a5), a7
     < 0x0064a330      6206           bhi.b 0x64a338
        0x0064a332      44fc0002       move.w 0x2, ccr
        0x0064a336      4e76           trapv
     > 0x0064a338      defc0012       adda.w 0x12, a7
         0x0064a33c      48e78080       movem.l d0/a0, -(a7)
         0x0064a340      103900847e42   move.b 0x847e42, d0
         0x0064a346      4880           ext.w d0
         0x0064a348      c1fc02d0       muls.w 0x2d0, d0
         0x0064a34c      41f900847e32   lea.l 0x847e32, a0
         0x0064a352      42b00044       clr.l 0x44(a0, d0.w)
         0x0064a356      4cdf0101       movem.l (a7)+, d0/a0
         0x0064a35a      4e5e           unlk a6
         0x0064a35c      4e75           rts
          ; XREFS: CALL 0x0064a4a0  CALL 0x0064b26c  CALL 0x0064b3e8  
          ; XREFS: CALL 0x0064b410  CALL 0x0064b438  CALL 0x0064b46e  
          ; XREFS: CALL 0x0064c7aa  
 52: K9_LIBRARY.title_for ();
         0x0064a35e      4e56fff0       link.w a6, 0xfff0
         0x0064a362      bfd5           cmpa.l (a5), a7
     < 0x0064a364      6206           bhi.b 0x64a36c
        0x0064a366      44fc0002       move.w 0x2, ccr
        0x0064a36a      4e76           trapv
     > 0x0064a36c      defc0010       adda.w 0x10, a7
         0x0064a370      48e7c080       movem.l d0-d1/a0, -(a7)
         0x0064a374      41ee000a       lea.l 0xa(a6), a0
         0x0064a378      720d           moveq 0xd, d1
         0x0064a37a      102e0008       move.b 0x8(a6), d0
         0x0064a37e      4880           ext.w d0
         0x0064a380      5340           subq.w 0x1, d0
         0x0064a382      b041           cmp.w d1, d0
     < 0x0064a384      6302           bls.b 0x64a388
        0x0064a386      4e4e           trap 0xe
     > 0x0064a388      d040           add.w d0, d0
         0x0064a38a      303b0006       move.w 0x64a392(pc, d0.w), d0
         0x0064a38e      4efb0002       jmp 0x64a392(pc, d0.w)
          0x0064a392      001c0022       ori.b 0x22, (a4)+
          0x0064a396      0026fff4       ori.b 0xf4, -(a6)
          0x0064a39a      fff4           invalid
          0x0064a39c      fff4           invalid
          0x0064a39e      fff4           invalid
          0x0064a3a0      002cfff4fff4   ori.b 0xf4, -0xc(a4)
          0x0064a3a6      00320038003e   ori.b 0x38, 0x3e(a2, d0.w)
          0x0064a3ac      004410bc       ori.w 0x10bc, d4
          0x0064a3b0      000c6026       
          0x0064a3b1      0c602610       cmpi.w 0x2610, -(a0)
          0x0064a3b5      8160           or.w d0, -(a0)
          0x0064a3b7      2210           move.l (a0), d1
          0x0064a3b9      bc00           cmp.b d0, d6
          0x0064a3bb      0e601c10       
      < 0x0064a3bc      601c           bra.b 0x64a3da
         0x0064a3be      10bc001f       move.b 0x1f, (a0)
     < 0x0064a3c2      6016           bra.b 0x64a3da
        0x0064a3c4      10bc0035       move.b 0x35, (a0)
    < 0x0064a3c8      6010           bra.b 0x64a3da
       0x0064a3ca      10bc0036       move.b 0x36, (a0)
   < 0x0064a3ce      600a           bra.b 0x64a3da
      0x0064a3d0      10bc0037       move.b 0x37, (a0)
  < 0x0064a3d4      6004           bra.b 0x64a3da
     0x0064a3d6      10bc0038       move.b 0x38, (a0)
  > 0x0064a3da      4cdf0103       movem.l (a7)+, d0-d1/a0
          0x0064a3de      4e5e           unlk a6
          0x0064a3e0      4e75           rts
 70: K9_LIBRARY.get_new_title ();
         0x0064a3e2      4e56ffee       link.w a6, 0xffee
         0x0064a3e6      bfd5           cmpa.l (a5), a7
     < 0x0064a3e8      6206           bhi.b 0x64a3f0
        0x0064a3ea      44fc0002       move.w 0x2, ccr
        0x0064a3ee      4e76           trapv
     > 0x0064a3f0      defc0012       adda.w 0x12, a7
         0x0064a3f4      48e70080       movem.l a0, -(a7)
         0x0064a3f8      206e000c       movea.l 0xc(a6), a0
         0x0064a3fc      10ba87fd       move.b 0x642bfb(pc), (a0)
         0x0064a400      1f2e0010       move.b 0x10(a6), -(a7)
         0x0064a404      4850           pea.l (a0)
         0x0064a406      4eb9004a5c58   jsr MENUKEYBDCOM.copy_title
         0x0064a40c      584f           addq.w 0x4, a7
         0x0064a40e      1eae0010       move.b 0x10(a6), (a7)
         0x0064a412      206e0008       movea.l 0x8(a6), a0
         0x0064a416      4850           pea.l (a0)
         0x0064a418      4eb9004a59d8   jsr MENUKEYBDCOM.get_edit_pos
         0x0064a41e      5c4f           addq.w 0x6, a7
         0x0064a420      4cdf0100       movem.l (a7)+, a0
         0x0064a424      4e5e           unlk a6
         0x0064a426      4e75           rts
 160: K9_LIBRARY.do_info_descrip ();
         0x0064a428      4e56ffcc       link.w a6, 0xffcc
         0x0064a42c      bfd5           cmpa.l (a5), a7
     < 0x0064a42e      6206           bhi.b 0x64a436
        0x0064a430      44fc0002       move.w 0x2, ccr
        0x0064a434      4e76           trapv
     > 0x0064a436      defc0030       adda.w 0x30, a7
         0x0064a43a      48e780e0       movem.l d0/a0-a2, -(a7)
         0x0064a43e      45eefffc       lea.l -0x4(a6), a2
         0x0064a442      206e0008       movea.l 0x8(a6), a0
         0x0064a446      24a8000a       move.l 0xa(a0), (a2)
         0x0064a44a      514f           subq.w 0x8, a7
         0x0064a44c      1f3c0003       move.b 0x3, -(a7)
         0x0064a450      48780000       pea.l 0x0
         0x0064a454      4227           clr.b -(a7)
         0x0064a456      4eb900660596   jsr K95_CARDS.k95_get_lib_ite
         0x0064a45c      5c4f           addq.w 0x6, a7
         0x0064a45e      1ea80004       move.b 0x4(a0), (a7)
         0x0064a462      2250           movea.l (a0), a1
         0x0064a464      b3e9fffc       cmpa.l -0x4(a1), a1
     < 0x0064a468      6702           beq.b 0x64a46c
        0x0064a46a      4e4d           trap 0xd
     > 0x0064a46c      2f290038       move.l 0x38(a1), -(a7)
         0x0064a470      1f2e000c       move.b 0xc(a6), -(a7)
         0x0064a474      4852           pea.l (a2)
         0x0064a476      48680018       pea.l 0x18(a0)
         0x0064a47a      4eb900658650   jsr K92_DISPLAY.k92_info_cursor
         0x0064a480      defc0018       adda.w 0x18, a7
         0x0064a484      2050           movea.l (a0), a0
         0x0064a486      b1e8fffc       cmpa.l -0x4(a0), a0
     < 0x0064a48a      6702           beq.b 0x64a48e
        0x0064a48c      4e4d           trap 0xd
     > 0x0064a48e      2f280038       move.l 0x38(a0), -(a7)
         0x0064a492      4852           pea.l (a2)
         0x0064a494      4eb90065f794   jsr K94_DESCRIPTION.k94_pos_check
         0x0064a49a      584f           addq.w 0x4, a7
         0x0064a49c      1ebc0008       move.b 0x8, (a7)
         0x0064a4a0      4ebafebc       jsr K9_LIBRARY.title_for(pc)
         0x0064a4a4      544f           addq.w 0x2, a7
         0x0064a4a6      1017           move.b (a7), d0
         0x0064a4a8      4880           ext.w d0
         0x0064a4aa      41bc003f       chk.w 0x3f, d0
         0x0064a4ae      1e80           move.b d0, (a7)
         0x0064a4b0      48780000       pea.l 0x0
         0x0064a4b4      2f12           move.l (a2), -(a7)
         0x0064a4b6      4eb9004a5a2a   jsr MENUKEYBDCOM.set_cursor_pos
         0x0064a4bc      defc000a       adda.w 0xa, a7
         0x0064a4c0      4cdf0701       movem.l (a7)+, d0/a0-a2
         0x0064a4c4      4e5e           unlk a6
         0x0064a4c6      4e75           rts
          ; CALL XREF from K9_LIBRARY.k9_key_retitle @ 0x64a5e2
          ; CALL XREF from K95_CARDS.k9_key @ 0x662c9c
          ; CALL XREF from MENULIBCOM @ +0x63d0
 112: K9_LIBRARY.k9_key_cvt ();
         0x0064a4c8      4e56ffee       link.w a6, 0xffee
         0x0064a4cc      bfd5           cmpa.l (a5), a7
     < 0x0064a4ce      6206           bhi.b 0x64a4d6
        0x0064a4d0      44fc0002       move.w 0x2, ccr
        0x0064a4d4      4e76           trapv
     > 0x0064a4d6      defc0010       adda.w 0x10, a7
         0x0064a4da      48e78100       movem.l d0/d7, -(a7)
         0x0064a4de      202e0008       move.l 0x8(a6), d0
         0x0064a4e2      0c8000000502   cmpi.l 0x502, d0
     < 0x0064a4e8      6c12           bge.b 0x64a4fc
        0x0064a4ea      0c8000000404   cmpi.l 0x404, d0
    < 0x0064a4f0      6d1c           blt.b 0x64a50e
       0x0064a4f2      0c8000000404   cmpi.l 0x404, d0
   < 0x0064a4f8      6722           beq.b 0x64a51c
  < 0x0064a4fa      6028           bra.b 0x64a524
  > 0x0064a4fc      0c8000000502   cmpi.l 0x502, d0
  < 0x0064a502      671c           beq.b 0x64a520
     0x0064a504      0c8000000506   cmpi.l 0x506, d0
 < 0x0064a50a      6714           beq.b 0x64a520
 < 0x0064a50c      6016           bra.b 0x64a524
 > 0x0064a50e      0c800000001b   cmpi.l 0x1b, d0
 < 0x0064a514      6702           beq.b 0x64a518
 < 0x0064a516      600c           bra.b 0x64a524
 > 0x0064a518      7e03           moveq 0x3, d7
 < 0x0064a51a      600a           bra.b 0x64a526
 > 0x0064a51c      7e01           moveq 0x1, d7
 < 0x0064a51e      6006           bra.b 0x64a526
 > 0x0064a520      7e02           moveq 0x2, d7
  < 0x0064a522      6002           bra.b 0x64a526
 > 0x0064a524      7e00           moveq 0x0, d7
   > 0x0064a526      4887           ext.w d7
         0x0064a528      4fbc0003       chk.w 0x3, d7
         0x0064a52c      1d47000c       move.b d7, 0xc(a6)
         0x0064a530      4cdf0081       movem.l (a7)+, d0/d7
         0x0064a534      4e5e           unlk a6
         0x0064a536      4e75           rts
          ; CALL XREF from K9_LIBRARY.k9_ch_retitle @ 0x64b626
 108: K9_LIBRARY.ch_retitle_disp ();
         0x0064a538      4e56ffce       link.w a6, 0xffce
         0x0064a53c      bfd5           cmpa.l (a5), a7
     < 0x0064a53e      6206           bhi.b 0x64a546
        0x0064a540      44fc0002       move.w 0x2, ccr
        0x0064a544      4e76           trapv
     > 0x0064a546      defc0032       adda.w 0x32, a7
         0x0064a54a      48e7c080       movem.l d0-d1/a0, -(a7)
         0x0064a54e      103900847e42   move.b 0x847e42, d0
         0x0064a554      4880           ext.w d0
         0x0064a556      c1fc02d0       muls.w 0x2d0, d0
         0x0064a55a      41f900847e32   lea.l 0x847e32, a0
         0x0064a560      1230003a       move.b 0x3a(a0, d0.w), d1
         0x0064a564      4881           ext.w d1
         0x0064a566      43bc0019       chk.w 0x19, d1
         0x0064a56a      2f300036       move.l 0x36(a0, d0.w), -(a7)
         0x0064a56e      514f           subq.w 0x8, a7
         0x0064a570      1f3c0003       move.b 0x3, -(a7)
         0x0064a574      48780000       pea.l 0x0
         0x0064a578      4227           clr.b -(a7)
         0x0064a57a      4eb900660596   jsr K95_CARDS.k95_get_lib_ite
         0x0064a580      5c4f           addq.w 0x6, a7
         0x0064a582      1eae0008       move.b 0x8(a6), (a7)
         0x0064a586      1f01           move.b d1, -(a7)
         0x0064a588      1f01           move.b d1, -(a7)
         0x0064a58a      4870004a       pea.l 0x4a(a0, d0.w)
         0x0064a58e      4870004e       pea.l 0x4e(a0, d0.w)
         0x0064a592      4eb90065845a   jsr K92_DISPLAY.k92_info
         0x0064a598      defc001a       adda.w 0x1a, a7
         0x0064a59c      4cdf0103       movem.l (a7)+, d0-d1/a0
         0x0064a5a0      4e5e           unlk a6
         0x0064a5a2      4e75           rts
          ; CALL XREF from MENULIBCOM.kbd_hit @ 0x752756
 142: K9_LIBRARY.k9_key_retitle ();
         0x0064a5a4      4e56fe9c       link.w a6, 0xfe9c
         0x0064a5a8      bfd5           cmpa.l (a5), a7
     < 0x0064a5aa      6206           bhi.b 0x64a5b2
        0x0064a5ac      44fc0002       move.w 0x2, ccr
        0x0064a5b0      4e76           trapv
     > 0x0064a5b2      defc0052       adda.w 0x52, a7
         0x0064a5b6      48e7fff8       movem.l d0-d7/a0-a4, -(a7)
         0x0064a5ba      47eefeee       lea.l -0x112(a6), a3
         0x0064a5be      783f           moveq 0x3f, d4
         0x0064a5c0      7a01           moveq 0x1, d5
         0x0064a5c2      7c00           moveq 0x0, d6
         0x0064a5c4      554f           subq.w 0x2, a7
         0x0064a5c6      486efef2       pea.l -0x10e(a6)
         0x0064a5ca      4eb9004a5014   jsr MENUKEYBDCOM.get_unused_key
         0x0064a5d0      584f           addq.w 0x4, a7
         0x0064a5d2      101f           move.b (a7)+, d0
         0x0064a5d4      4880           ext.w d0
         0x0064a5d6      4185           chk.w d5, d0
         0x0064a5d8      1e00           move.b d0, d7
     < 0x0064a5da      6716           beq.b 0x64a5f2
        0x0064a5dc      554f           subq.w 0x2, a7
        0x0064a5de      2f2efef2       move.l -0x10e(a6), -(a7)
        0x0064a5e2      4ebafee4       jsr K9_LIBRARY.k9_key_cvt(pc)
        0x0064a5e6      584f           addq.w 0x4, a7
        0x0064a5e8      101f           move.b (a7)+, d0
        0x0064a5ea      4880           ext.w d0
        0x0064a5ec      41bc0003       chk.w 0x3, d0
        0x0064a5f0      1c00           move.b d0, d6
     > 0x0064a5f2      4a07           tst.b d7
     < 0x0064a5f4      6708           beq.b 0x64a5fe
        0x0064a5f6      4a06           tst.b d6
    < 0x0064a5f8      6704           beq.b 0x64a5fe
   < 0x0064a5fa      60000190       bra.w loc.0064a78c
   > 0x0064a5fe      103900847e42   move.b 0x847e42, d0
        0x0064a604      4880           ext.w d0
        0x0064a606      c1fc02d0       muls.w 0x2d0, d0
        0x0064a60a      41f900847e32   lea.l 0x847e32, a0
        0x0064a610      26bcffffffff   move.l 0xffffffff, (a3)
        0x0064a616      1230003a       move.b 0x3a(a0, d0.w), d1
        0x0064a61a      4881           ext.w d1
        0x0064a61c      3401           move.w d1, d2
        0x0064a61e      5342           subq.w 0x1, d2
        0x0064a620      0c42000d       cmpi.w 0xd, d2
    < 0x0064a624      6302           bls.b 0x64a628
       0x0064a626      4e4e           trap 0xe
    > 0x0064a628      d442           add.w d2, d2
        0x0064a62a      343b2006       move.w 0x64a632(pc, d2.w), d2
        0x0064a62e      4efb2002       jmp 0x64a632(pc, d2.w)
         0x0064a632      001c001c       ori.b 0x1c, (a4)+
         0x0064a636      001cfff4       ori.b 0xf4, (a4)+
         0x0064a63a      fff4           invalid
         0x0064a63c      fff4           invalid
         0x0064a63e      fff4           invalid
         0x0064a640      0040fff4       ori.w 0xfff4, d0
         0x0064a644      fff4           invalid
         0x0064a646      001c001c       ori.b 0x1c, (a4)+
         0x0064a64a      001c001c       ori.b 0x1c, (a4)+
         0x0064a64e      554f           subq.w 0x2, a7
         0x0064a650      1f01           move.b d1, -(a7)
         0x0064a652      4ebafd0a       jsr K9_LIBRARY.title_for(pc)
         0x0064a656      544f           addq.w 0x2, a7
         0x0064a658      1417           move.b (a7), d2
         0x0064a65a      4882           ext.w d2
         0x0064a65c      4584           chk.w d4, d2
         0x0064a65e      1e82           move.b d2, (a7)
         0x0064a660      486efefc       pea.l -0x104(a6)
         0x0064a664      4853           pea.l (a3)
         0x0064a666      4ebafd7a       jsr K9_LIBRARY.get_new_title(pc)
         0x0064a66a      defc000a       adda.w 0xa, a7
     < 0x0064a66e      600000e6       bra.w 0x64a756
        0x0064a672      287900847e3e   movea.l 0x847e3e, a4
        0x0064a678      b9ecfffc       cmpa.l -0x4(a4), a4
    < 0x0064a67c      6702           beq.b 0x64a680
       0x0064a67e      4e4d           trap 0xd
    > 0x0064a680      22700036       movea.l 0x36(a0, d0.w), a1
        0x0064a684      b3e9fffc       cmpa.l -0x4(a1), a1
    < 0x0064a688      6702           beq.b 0x64a68c
       0x0064a68a      4e4d           trap 0xd
    > 0x0064a68c      22690038       movea.l 0x38(a1), a1
        0x0064a690      b3e9fffc       cmpa.l -0x4(a1), a1
    < 0x0064a694      6702           beq.b 0x64a698
       0x0064a696      4e4d           trap 0xd
    > 0x0064a698      244c           movea.l a4, a2
        0x0064a69a      343c03ff       move.w 0x3ff, d2
    > 0x0064a69e      14d9           move.b (a1)+, (a2)+
    < 0x0064a6a0      51cafffc       dbra d2, 0x64a69e
        0x0064a6a4      4a07           tst.b d7
    < 0x0064a6a6      6754           beq.b 0x64a6fc
       0x0064a6a8      242efef2       move.l -0x10e(a6), d2
       0x0064a6ac      0c8200000414   cmpi.l 0x414, d2
   < 0x0064a6b2      670a           beq.b 0x64a6be
      0x0064a6b4      0c8200000418   cmpi.l 0x418, d2
  < 0x0064a6ba      6702           beq.b 0x64a6be
  < 0x0064a6bc      6018           bra.b 0x64a6d6
  > 0x0064a6be      4227           clr.b -(a7)
       0x0064a6c0      0c8200000414   cmpi.l 0x414, d2
   < 0x0064a6c6      6602           bne.b 0x64a6ca
      0x0064a6c8      5217           addq.b 0x1, (a7)
   > 0x0064a6ca      48700036       pea.l 0x36(a0, d0.w)
       0x0064a6ce      4ebafd58       jsr K9_LIBRARY.do_info_descrip(pc)
       0x0064a6d2      5c4f           addq.w 0x6, a7
   < 0x0064a6d4      6062           bra.b 0x64a738
  > 0x0064a6d6      2f02           move.l d2, -(a7)
      0x0064a6d8      554f           subq.w 0x2, a7
      0x0064a6da      1f01           move.b d1, -(a7)
      0x0064a6dc      4ebafc80       jsr K9_LIBRARY.title_for(pc)
      0x0064a6e0      544f           addq.w 0x2, a7
      0x0064a6e2      1617           move.b (a7), d3
      0x0064a6e4      4883           ext.w d3
      0x0064a6e6      4784           chk.w d4, d3
      0x0064a6e8      1e83           move.b d3, (a7)
      0x0064a6ea      1f05           move.b d5, -(a7)
      0x0064a6ec      2f0c           move.l a4, -(a7)
      0x0064a6ee      4eb90065f52e   jsr K94_DESCRIPTION.k94_description
      0x0064a6f4      defc000c       adda.w 0xc, a7
  < 0x0064a6f8      603e           bra.b 0x64a738
  < 0x0064a6fa      603c           bra.b 0x64a738
  > 0x0064a6fc      554f           subq.w 0x2, a7
      0x0064a6fe      1f01           move.b d1, -(a7)
      0x0064a700      4ebafc5c       jsr K9_LIBRARY.title_for(pc)
      0x0064a704      544f           addq.w 0x2, a7
      0x0064a706      1417           move.b (a7), d2
      0x0064a708      4882           ext.w d2
      0x0064a70a      4584           chk.w d4, d2
      0x0064a70c      1e82           move.b d2, (a7)
      0x0064a70e      486efef6       pea.l -0x10a(a6)
      0x0064a712      486c0002       pea.l 0x2(a4)
      0x0064a716      48780001       pea.l 0x1
      0x0064a71a      487803fe       pea.l 0x3fe
      0x0064a71e      4eb9004a5e86   jsr MENUKEYBDCOM.copy_long_title
      0x0064a724      defc0012       adda.w 0x12, a7
      0x0064a728      242efef6       move.l -0x10a(a6), d2
      0x0064a72c      0c820000ffff   cmpi.l 0xffff, d2
  < 0x0064a732      6302           bls.b 0x64a736
     0x0064a734      4e4f           trap 0xf
  > 0x0064a736      3882           move.w d2, (a4)
  > 0x0064a738      554f           subq.w 0x2, a7
        0x0064a73a      1f30003a       move.b 0x3a(a0, d0.w), -(a7)
        0x0064a73e      4ebafc1e       jsr K9_LIBRARY.title_for(pc)
        0x0064a742      544f           addq.w 0x2, a7
        0x0064a744      1417           move.b (a7), d2
        0x0064a746      4882           ext.w d2
        0x0064a748      4584           chk.w d4, d2
        0x0064a74a      1e82           move.b d2, (a7)
        0x0064a74c      4853           pea.l (a3)
        0x0064a74e      4eb9004a59d8   jsr MENUKEYBDCOM.get_edit_pos
        0x0064a754      5c4f           addq.w 0x6, a7
     > 0x0064a756      21930040       move.l (a3), 0x40(a0, d0.w)
         0x0064a75a      1230003a       move.b 0x3a(a0, d0.w), d1
         0x0064a75e      0c010008       cmpi.b 0x8, d1
     < 0x0064a762      6616           bne.b 0x64a77a
        0x0064a764      2f300036       move.l 0x36(a0, d0.w), -(a7)
        0x0064a768      1f01           move.b d1, -(a7)
        0x0064a76a      b9ecfffc       cmpa.l -0x4(a4), a4
    < 0x0064a76e      6702           beq.b 0x64a772
       0x0064a770      4e4d           trap 0xd
    > 0x0064a772      4854           pea.l (a4)
        0x0064a774      4ebae250       jsr K9_LIBRARY.k9_set_block(pc)
    < 0x0064a778      600e           bra.b 0x64a788
    > 0x0064a77a      2f300036       move.l 0x36(a0, d0.w), -(a7)
        0x0064a77e      1f01           move.b d1, -(a7)
        0x0064a780      486efefc       pea.l -0x104(a6)
        0x0064a784      4ebadcf4       jsr K9_LIBRARY.k9_set_string(pc)
    > 0x0064a788      defc000a       adda.w 0xa, a7
         ; CODE XREF from K9_LIBRARY.k9_key_retitle @ 0x64a5fa
 12: loc.0064a78c ();
   > 0x0064a78c      1d460008       move.b d6, 0x8(a6)
         0x0064a790      4cdf1fff       movem.l (a7)+, d0-d7/a0-a4
         0x0064a794      4e5e           unlk a6
         0x0064a796      4e75           rts
          ; CALL XREFS from K9_LIBRARY.k9_retitle @ 0x64ad22, 0x64ad58, 0x64ad9a
 120: K9_LIBRARY.consider_string ();
         0x0064a798      4e56ffd6       link.w a6, 0xffd6
         0x0064a79c      bfd5           cmpa.l (a5), a7
     < 0x0064a79e      6206           bhi.b 0x64a7a6
        0x0064a7a0      44fc0002       move.w 0x2, ccr
        0x0064a7a4      4e76           trapv
     > 0x0064a7a6      defc002a       adda.w 0x2a, a7
         0x0064a7aa      48e7e0c0       movem.l d0-d2/a0-a1, -(a7)
         0x0064a7ae      206e0008       movea.l 0x8(a6), a0
         0x0064a7b2      10ba856d       move.b 0x642d21(pc), (a0)
         0x0064a7b6      117a856a0001   move.b 0x642d22(pc), 0x1(a0)
         0x0064a7bc      103900847e42   move.b 0x847e42, d0
         0x0064a7c2      4880           ext.w d0
         0x0064a7c4      c1fc02d0       muls.w 0x2d0, d0
         0x0064a7c8      43f900847e32   lea.l 0x847e32, a1
         0x0064a7ce      122e0012       move.b 0x12(a6), d1
         0x0064a7d2      4881           ext.w d1
         0x0064a7d4      3401           move.w d1, d2
         0x0064a7d6      e64a           lsr.w 0x3, d2
         0x0064a7d8      d440           add.w d0, d2
         0x0064a7da      0331203c       btst.l d1, 0x3c(a1, d2.w)
     < 0x0064a7de      6728           beq.b 0x64a808
        0x0064a7e0      554f           subq.w 0x2, a7
        0x0064a7e2      1f3c0001       move.b 0x1, -(a7)
        0x0064a7e6      486c004e       pea.l 0x4e(a4)
        0x0064a7ea      1f2e0010       move.b 0x10(a6), -(a7)
        0x0064a7ee      226e000c       movea.l 0xc(a6), a1
        0x0064a7f2      4851           pea.l (a1)
        0x0064a7f4      4eb9005a2172   jsr K04_FILEROPS.k_str_data
        0x0064a7fa      defc000c       adda.w 0xc, a7
        0x0064a7fe      1097           move.b (a7), (a0)
        0x0064a800      116f00010001   move.b 0x1(a7), 0x1(a0)
        0x0064a806      544f           addq.w 0x2, a7
     > 0x0064a808      4cdf0307       movem.l (a7)+, d0-d2/a0-a1
         0x0064a80c      4e5e           unlk a6
         0x0064a80e      4e75           rts
          ; CALL XREF from K9_LIBRARY.k9_retitle @ 0x64adc8
 122: K9_LIBRARY.consider_block_ ();
         0x0064a810      4e56ffd2       link.w a6, 0xffd2
         0x0064a814      bfd5           cmpa.l (a5), a7
     < 0x0064a816      6206           bhi.b 0x64a81e
        0x0064a818      44fc0002       move.w 0x2, ccr
        0x0064a81c      4e76           trapv
     > 0x0064a81e      defc002e       adda.w 0x2e, a7
         0x0064a822      48e7e0c0       movem.l d0-d2/a0-a1, -(a7)
         0x0064a826      206e0008       movea.l 0x8(a6), a0
         0x0064a82a      10ba850f       move.b 0x642d3b(pc), (a0)
         0x0064a82e      117a850c0001   move.b 0x642d3c(pc), 0x1(a0)
         0x0064a834      103900847e42   move.b 0x847e42, d0
         0x0064a83a      4880           ext.w d0
         0x0064a83c      c1fc02d0       muls.w 0x2d0, d0
         0x0064a840      43f900847e32   lea.l 0x847e32, a1
         0x0064a846      122e0012       move.b 0x12(a6), d1
         0x0064a84a      4881           ext.w d1
         0x0064a84c      3401           move.w d1, d2
         0x0064a84e      e64a           lsr.w 0x3, d2
         0x0064a850      d440           add.w d0, d2
         0x0064a852      0331203c       btst.l d1, 0x3c(a1, d2.w)
     < 0x0064a856      672a           beq.b 0x64a882
        0x0064a858      554f           subq.w 0x2, a7
        0x0064a85a      1f3c0001       move.b 0x1, -(a7)
        0x0064a85e      486c004e       pea.l 0x4e(a4)
        0x0064a862      1f2e0010       move.b 0x10(a6), -(a7)
        0x0064a866      2f2e000c       move.l 0xc(a6), -(a7)
        0x0064a86a      48780400       pea.l 0x400
        0x0064a86e      4eb9005a2072   jsr K04_FILEROPS.k_data
        0x0064a874      defc0010       adda.w 0x10, a7
        0x0064a878      1097           move.b (a7), (a0)
        0x0064a87a      116f00010001   move.b 0x1(a7), 0x1(a0)
        0x0064a880      544f           addq.w 0x2, a7
     > 0x0064a882      4cdf0307       movem.l (a7)+, d0-d2/a0-a1
         0x0064a886      4e5e           unlk a6
         0x0064a888      4e75           rts
          ; CALL XREFS from K9_LIBRARY.k9_retitle @ 0x64adf4, 0x64ae14, 0x64ae40, 0x64ae64
 238: K9_LIBRARY.consider_udf_ch ();
         0x0064a88a      4e56fdaa       link.w a6, 0xfdaa
         0x0064a88e      bfd5           cmpa.l (a5), a7
     < 0x0064a890      6206           bhi.b 0x64a898
        0x0064a892      44fc0002       move.w 0x2, ccr
        0x0064a896      4e76           trapv
     > 0x0064a898      defc004e       adda.w 0x4e, a7
         0x0064a89c      48e7fff0       movem.l d0-d7/a0-a3, -(a7)
         0x0064a8a0      47eefefc       lea.l -0x104(a6), a3
         0x0064a8a4      760b           moveq 0xb, d3
         0x0064a8a6      7808           moveq 0x8, d4
         0x0064a8a8      7a03           moveq 0x3, d5
         0x0064a8aa      7c02           moveq 0x2, d6
         0x0064a8ac      206e0008       movea.l 0x8(a6), a0
         0x0064a8b0      10ba84a2       move.b 0x642d54(pc), (a0)
         0x0064a8b4      117a849f0001   move.b 0x642d55(pc), 0x1(a0)
         0x0064a8ba      103900847e42   move.b 0x847e42, d0
         0x0064a8c0      4880           ext.w d0
         0x0064a8c2      c1fc02d0       muls.w 0x2d0, d0
         0x0064a8c6      43f900847e32   lea.l 0x847e32, a1
         0x0064a8cc      122e0012       move.b 0x12(a6), d1
         0x0064a8d0      4881           ext.w d1
         0x0064a8d2      3401           move.w d1, d2
         0x0064a8d4      e64a           lsr.w 0x3, d2
         0x0064a8d6      d440           add.w d0, d2
         0x0064a8d8      0331203c       btst.l d1, 0x3c(a1, d2.w)
     < 0x0064a8dc      6700020a       beq.w loc.0064aae8
        0x0064a8e0      554f           subq.w 0x2, a7
        0x0064a8e2      2f2e000c       move.l 0xc(a6), -(a7)
        0x0064a8e6      1f3c0001       move.b 0x1, -(a7)
        0x0064a8ea      1f01           move.b d1, -(a7)
        0x0064a8ec      4eb90064c324   jsr K9_LIBRARY.k9_info_type_fi
        0x0064a8f2      504f           addq.w 0x8, a7
        0x0064a8f4      101f           move.b (a7)+, d0
        0x0064a8f6      4880           ext.w d0
        0x0064a8f8      4183           chk.w d3, d0
        0x0064a8fa      1e00           move.b d0, d7
        0x0064a8fc      554f           subq.w 0x2, a7
        0x0064a8fe      2f2e000c       move.l 0xc(a6), -(a7)
        0x0064a902      4227           clr.b -(a7)
        0x0064a904      1f01           move.b d1, -(a7)
        0x0064a906      4eb90064c324   jsr K9_LIBRARY.k9_info_type_fi
        0x0064a90c      504f           addq.w 0x8, a7
        0x0064a90e      101f           move.b (a7)+, d0
        0x0064a910      4880           ext.w d0
        0x0064a912      4183           chk.w d3, d0
        0x0064a914      1d40fffd       move.b d0, -0x3(a6)
        0x0064a918      b007           cmp.b d7, d0
    < 0x0064a91a      671e           beq.b 0x64a93a
       0x0064a91c      487a844d       pea.l 0x642d6b(pc)
       0x0064a920      48780038       pea.l 0x38
       0x0064a924      2f17           move.l (a7), -(a7)
       0x0064a926      4eb9004047ea   jsr p_wts_o
       0x0064a92c      defc000c       adda.w 0xc, a7
       0x0064a930      4eb900404946   jsr p_wtln_o
   < 0x0064a936      600001b0       bra.w loc.0064aae8
   > 0x0064a93a      be04           cmp.b d4, d7
   < 0x0064a93c      6d0c           blt.b 0x64a94a
      0x0064a93e      be04           cmp.b d4, d7
  < 0x0064a940      6720           beq.b 0x64a962
     0x0064a942      0c07000a       cmpi.b 0xa, d7
 < 0x0064a946      6716           beq.b 0x64a95e
    0x0064a948      4e4e           trap 0xe
 > 0x0064a94a      4a07           tst.b d7
 < 0x0064a94c      6706           beq.b 0x64a954
    0x0064a94e      be06           cmp.b d6, d7
 < 0x0064a950      6706           beq.b 0x64a958
    0x0064a952      4e4e           trap 0xe
 > 0x0064a954      4213           clr.b (a3)
 < 0x0064a956      600c           bra.b 0x64a964
 > 0x0064a958      16bc0001       move.b 0x1, (a3)
 < 0x0064a95c      6006           bra.b 0x64a964
 > 0x0064a95e      1686           move.b d6, (a3)
 < 0x0064a960      6002           bra.b 0x64a964
 > 0x0064a962      1685           move.b d5, (a3)
 > 0x0064a964      3001           move.w d1, d0
       0x0064a966      9043           sub.w d3, d0
       0x0064a968      b045           cmp.w d5, d0
   < 0x0064a96a      6302           bls.b 0x64a96e
      0x0064a96c      4e4e           trap 0xe
   > 0x0064a96e      d040           add.w d0, d0
       0x0064a970      303b0006       move.w 0x64a978(pc, d0.w), d0
       0x0064a974      4efb0002       jmp 0x64a978(pc, d0.w)
        0x0064a978      00080012       
        0x0064a979      08001200       
        0x0064a97a      00120018       ori.b 0x18, (a2)
        0x0064a97e      001e2d7c       ori.b 0x7c, (a6)+
        0x0064a982      00000001       ori.b 0x1, d0
        0x0064a986      fdf8           invalid
    < 0x0064a988      6014           bra.b 0x64a99e
       0x0064a98a      2d46fdf8       move.l d6, -0x208(a6)
   < 0x0064a98e      600e           bra.b 0x64a99e
      0x0064a990      2d45fdf8       move.l d5, -0x208(a6)
  < 0x0064a994      6008           bra.b 0x64a99e
     0x0064a996      2d7c00000004.  move.l 0x4, -0x208(a6)
  > 0x0064a99e      2f2efdf8       move.l -0x208(a6), -(a7)
        0x0064a9a2      486efdfc       pea.l -0x204(a6)
        0x0064a9a6      4eb90066a332   jsr USERFIELDS.udf_get_name
        0x0064a9ac      504f           addq.w 0x8, a7
        0x0064a9ae      be04           cmp.b d4, d7
    < 0x0064a9b0      6d0c           blt.b 0x64a9be
       0x0064a9b2      be04           cmp.b d4, d7
   < 0x0064a9b4      677a           beq.b 0x64aa30
      0x0064a9b6      0c07000a       cmpi.b 0xa, d7
  < 0x0064a9ba      6746           beq.b 0x64aa02
     0x0064a9bc      4e4e           trap 0xe
  > 0x0064a9be      4a07           tst.b d7
  < 0x0064a9c0      6706           beq.b 0x64a9c8
     0x0064a9c2      be06           cmp.b d6, d7
  < 0x0064a9c4      670c           beq.b 0x64a9d2
     0x0064a9c6      4e4e           trap 0xe
  > 0x0064a9c8      1d7a83d9fefd   move.b 0x642da3(pc), -0x103(a6)
  < 0x0064a9ce      60000084       bra.w 0x64aa54
  > 0x0064a9d2      3001           move.w d1, d0
     0x0064a9d4      9043           sub.w d3, d0
     0x0064a9d6      4185           chk.w d5, d0
     0x0064a9d8      e540           asl.w 0x2, d0
     0x0064a9da      226e000c       movea.l 0xc(a6), a1
     0x0064a9de      b3e9fffc       cmpa.l -0x4(a1), a1
  < 0x0064a9e2      6702           beq.b 0x64a9e6
     0x0064a9e4      4e4d           trap 0xd
  > 0x0064a9e6      22710058       movea.l 0x58(a1, d0.w), a1
     0x0064a9ea      b3e9fffc       cmpa.l -0x4(a1), a1
  < 0x0064a9ee      6702           beq.b 0x64a9f2
     0x0064a9f0      4e4d           trap 0xd
  > 0x0064a9f2      45eefefd       lea.l -0x103(a6), a2
     0x0064a9f6      303c00ff       move.w 0xff, d0
  > 0x0064a9fa      14d9           move.b (a1)+, (a2)+
  < 0x0064a9fc      51c8fffc       dbra d0, 0x64a9fa
  < 0x0064aa00      6052           bra.b 0x64aa54
  > 0x0064aa02      3001           move.w d1, d0
      0x0064aa04      9043           sub.w d3, d0
      0x0064aa06      4185           chk.w d5, d0
      0x0064aa08      e540           asl.w 0x2, d0
      0x0064aa0a      226e000c       movea.l 0xc(a6), a1
      0x0064aa0e      b3e9fffc       cmpa.l -0x4(a1), a1
  < 0x0064aa12      6702           beq.b 0x64aa16
     0x0064aa14      4e4d           trap 0xd
  > 0x0064aa16      22710058       movea.l 0x58(a1, d0.w), a1
      0x0064aa1a      b3e9fffc       cmpa.l -0x4(a1), a1
  < 0x0064aa1e      6702           beq.b 0x64aa22
     0x0064aa20      4e4d           trap 0xd
  > 0x0064aa22      45eefefd       lea.l -0x103(a6), a2
      0x0064aa26      7007           moveq 0x7, d0
  > 0x0064aa28      14d9           move.b (a1)+, (a2)+
  < 0x0064aa2a      51c8fffc       dbra d0, 0x64aa28
  < 0x0064aa2e      6024           bra.b 0x64aa54
  > 0x0064aa30      3001           move.w d1, d0
      0x0064aa32      9043           sub.w d3, d0
      0x0064aa34      4185           chk.w d5, d0
      0x0064aa36      e540           asl.w 0x2, d0
      0x0064aa38      226e000c       movea.l 0xc(a6), a1
      0x0064aa3c      b3e9fffc       cmpa.l -0x4(a1), a1
  < 0x0064aa40      6702           beq.b 0x64aa44
     0x0064aa42      4e4d           trap 0xd
  > 0x0064aa44      22710058       movea.l 0x58(a1, d0.w), a1
      0x0064aa48      b3e9fffc       cmpa.l -0x4(a1), a1
  < 0x0064aa4c      6702           beq.b 0x64aa50
     0x0064aa4e      4e4d           trap 0xd
  > 0x0064aa50      2d51fefe       move.l (a1), -0x102(a6)
  > 0x0064aa54      be04           cmp.b d4, d7
    < 0x0064aa56      6d0c           blt.b 0x64aa64
       0x0064aa58      be04           cmp.b d4, d7
   < 0x0064aa5a      6752           beq.b 0x64aaae
      0x0064aa5c      0c07000a       cmpi.b 0xa, d7
  < 0x0064aa60      6736           beq.b 0x64aa98
     0x0064aa62      4e4e           trap 0xe
  > 0x0064aa64      4a07           tst.b d7
  < 0x0064aa66      6706           beq.b 0x64aa6e
     0x0064aa68      be06           cmp.b d6, d7
  < 0x0064aa6a      6704           beq.b 0x64aa70
     0x0064aa6c      4e4e           trap 0xe
  > 0x0064aa6e      604c           bra.b 0x64aabc
  > 0x0064aa70      4240           clr.w d0
      0x0064aa72      102efefd       move.b -0x103(a6), d0
  < 0x0064aa76      6302           bls.b 0x64aa7a
     0x0064aa78      7000           moveq 0x0, d0
  > 0x0064aa7a      5300           subq.b 0x1, d0
  < 0x0064aa7c      6510           bcs.b 0x64aa8e
     0x0064aa7e      43eefefe       lea.l -0x102(a6), a1
     0x0064aa82      45fa8321       lea.l 0x642da5(pc), a2
  > 0x0064aa86      b30a           cmpm.b (a2)+, (a1)+
  < 0x0064aa88      56c8fffc       dbne d0, 0x64aa86
  < 0x0064aa8c      6604           bne.b 0x64aa92
  > 0x0064aa8e      102efefd       move.b -0x103(a6), d0
  < 0x0064aa92      6602           bne.b 0x64aa96
     0x0064aa94      4213           clr.b (a3)
  > 0x0064aa96      6024           bra.b 0x64aabc
  > 0x0064aa98      4a2efefd       tst.b -0x103(a6)
   < 0x0064aa9c      660e           bne.b 0x64aaac
      0x0064aa9e      4a2efefe       tst.b -0x102(a6)
  < 0x0064aaa2      6608           bne.b 0x64aaac
     0x0064aaa4      4a2efeff       tst.b -0x101(a6)
  < 0x0064aaa8      6602           bne.b 0x64aaac
     0x0064aaaa      4213           clr.b (a3)
  > 0x0064aaac      600e           bra.b 0x64aabc
   > 0x0064aaae      202efefe       move.l -0x102(a6), d0
        0x0064aab2      0c807fffffff   cmpi.l 0x7fffffff, d0
    < 0x0064aab8      6602           bne.b 0x64aabc
       0x0064aaba      4213           clr.b (a3)
  > 0x0064aabc      554f           subq.w 0x2, a7
        0x0064aabe      1f3c0001       move.b 0x1, -(a7)
        0x0064aac2      486c004e       pea.l 0x4e(a4)
        0x0064aac6      1f2e0010       move.b 0x10(a6), -(a7)
        0x0064aaca      43eefdf8       lea.l -0x208(a6), a1
        0x0064aace      2f09           move.l a1, -(a7)
        0x0064aad0      48780205       pea.l 0x205
        0x0064aad4      4eb9005a2072   jsr K04_FILEROPS.k_data
        0x0064aada      defc0010       adda.w 0x10, a7
        0x0064aade      1097           move.b (a7), (a0)
        0x0064aae0      116f00010001   move.b 0x1(a7), 0x1(a0)
        0x0064aae6      544f           addq.w 0x2, a7
        ; CODE XREF from K9_LIBRARY.consider_udf_ch @ 0x64a936
 8: loc.0064aae8 ();
   > 0x0064aae8      4cdf0fff       movem.l (a7)+, d0-d7/a0-a3
         0x0064aaec      4e5e           unlk a6
         0x0064aaee      4e75           rts
          ; CALL XREF from MENULIBCOM.do_retitle @ 0x751d6c
 1458: K9_LIBRARY.k9_retitle ();
         ; var int32_t var_7d82h @ a6-0x7d82
         ; var int32_t var_7d7dh @ a6-0x7d7d
         ; var int32_t var_5ah @ a6-0x5a
         ; var int32_t var_8h @ a7+0x8
         ; var int32_t var_108h @ a7+0x108
         0x0064aaf0      4e56fd5a       link.w a6, 0xfd5a
         0x0064aaf4      bfd5           cmpa.l (a5), a7
     < 0x0064aaf6      6206           bhi.b 0x64aafe
        0x0064aaf8      44fc0002       move.w 0x2, ccr
        0x0064aafc      4e76           trapv
     > 0x0064aafe      defc024a       adda.w 0x24a, a7
         0x0064ab02      48e7fff8       movem.l d0-d7/a0-a4, -(a7)
         0x0064ab06      47eeffa4       lea.l -0x5c(a6), a3
         0x0064ab0a      7a0c           moveq 0xc, d5
         0x0064ab0c      7c01           moveq 0x1, d6
         0x0064ab0e      103900847e42   move.b 0x847e42, d0
         0x0064ab14      4880           ext.w d0
         0x0064ab16      c1fc02d0       muls.w 0x2d0, d0
         0x0064ab1a      41f900847e32   lea.l 0x847e32, a0
         0x0064ab20      36ba8284       move.w 0x642da6(pc), (a3)
         0x0064ab24      1d7a8283ffa6   move.b 0x642da9(pc), -0x5a(a6)
         0x0064ab2a      1d7a827effa7   move.b 0x642daa(pc), -0x59(a6)
         0x0064ab30      2d46fff2       move.l d6, -0xe(a6)
         0x0064ab34      22300044       move.l 0x44(a0, d0.w), d1
         0x0064ab38      5381           subq.l 0x1, d1
         0x0064ab3a      0c810000000b   cmpi.l 0xb, d1
     < 0x0064ab40      6302           bls.b 0x64ab44
        0x0064ab42      4e4f           trap 0xf
     > 0x0064ab44      2801           move.l d1, d4
         0x0064ab46      761e           moveq 0x1e, d3
         0x0064ab48      4eb900406a74   jsr fcn.00406a74
         0x0064ab4e      43f00012       lea.l 0x12(a0, d0.w), a1
         0x0064ab52      22714846       movea.l 0x46(a1, d4.l), a1
         0x0064ab56      b3e9fffc       cmpa.l -0x4(a1), a1
     < 0x0064ab5a      6702           beq.b 0x64ab5e
        0x0064ab5c      4e4d           trap 0xd
     > 0x0064ab5e      9efc000a       suba.w 0xa, a7
         0x0064ab62      244f           movea.l a7, a2
         0x0064ab64      43e90008       lea.l 0x8(a1), a1
         0x0064ab68      7209           moveq 0x9, d1
     > 0x0064ab6a      14d9           move.b (a1)+, (a2)+
     < 0x0064ab6c      51c9fffc       dbra d1, 0x64ab6a
         0x0064ab70      486efff2       pea.l -0xe(a6)
         0x0064ab74      4eb90059866e   jsr K0_DISKMGR.k_gen_file
         0x0064ab7a      defc000e       adda.w 0xe, a7
         0x0064ab7e      7e00           moveq 0x0, d7
         0x0064ab80      554f           subq.w 0x2, a7
         0x0064ab82      486effa8       pea.l -0x58(a6)
         0x0064ab86      4eb900404434   jsr fcn.00404434
         0x0064ab8c      584f           addq.w 0x4, a7
         0x0064ab8e      4a1f           tst.b (a7)+
     < 0x0064ab90      670002f2       beq.w 0x64ae84
        0x0064ab94      554f           subq.w 0x2, a7
        0x0064ab96      486efff2       pea.l -0xe(a6)
        0x0064ab9a      1f06           move.b d6, -(a7)
        0x0064ab9c      4eb9005a3058   jsr K04_FILEROPS.k_privilege
        0x0064aba2      5c4f           addq.w 0x6, a7
        0x0064aba4      321f           move.w (a7)+, d1
        0x0064aba6      3681           move.w d1, (a3)
        0x0064aba8      3f01           move.w d1, -(a7)
        0x0064abaa      b27a8200       cmp.w 0x642dac(pc), d1
    < 0x0064abae      673c           beq.b 0x64abec
       0x0064abb0      224f           movea.l a7, a1
       0x0064abb2      1411           move.b (a1), d2
       0x0064abb4      b43a81f9       cmp.b 0x642daf(pc), d2
   < 0x0064abb8      6608           bne.b 0x64abc2
      0x0064abba      14290001       move.b 0x1(a1), d2
      0x0064abbe      b43a81f0       cmp.b 0x642db0(pc), d2
  > 0x0064abc2      6728           beq.b 0x64abec
      0x0064abc4      487a81ec       pea.l 0x642db2(pc)
      0x0064abc8      48780011       pea.l 0x11
      0x0064abcc      2f17           move.l (a7), -(a7)
      0x0064abce      4eb9004047ea   jsr p_wts_o
      0x0064abd4      dec5           adda.w d5, a7
      0x0064abd6      4857           pea.l (a7)
      0x0064abd8      48780002       pea.l 0x2
      0x0064abdc      2f17           move.l (a7), -(a7)
      0x0064abde      4eb9004047ea   jsr p_wts_o
      0x0064abe4      dec5           adda.w d5, a7
      0x0064abe6      4eb900404946   jsr p_wtln_o
  > 0x0064abec      b27a81d6       cmp.w 0x642dc4(pc), d1
    < 0x0064abf0      670c           beq.b 0x64abfe
       0x0064abf2      486effa8       pea.l -0x58(a6)
       0x0064abf6      4eb900404468   jsr fcn.00404468
       0x0064abfc      584f           addq.w 0x4, a7
    > 0x0064abfe      544f           addq.w 0x2, a7
        0x0064ac00      123900847e42   move.b 0x847e42, d1
        0x0064ac06      4881           ext.w d1
        0x0064ac08      c3fc02d0       muls.w 0x2d0, d1
        0x0064ac0c      43f900847e32   lea.l 0x847e32, a1
        0x0064ac12      08310003103c   btst.b 0x3, 0x3c(a1, d1.w)
    < 0x0064ac18      670000b4       beq.w 0x64acce
       0x0064ac1c      554f           subq.w 0x2, a7
       0x0064ac1e      22700036       movea.l 0x36(a0, d0.w), a1
       0x0064ac22      b3e9fffc       cmpa.l -0x4(a1), a1
   < 0x0064ac26      6702           beq.b 0x64ac2a
      0x0064ac28      4e4d           trap 0xd
   > 0x0064ac2a      22690020       movea.l 0x20(a1), a1
       0x0064ac2e      b3e9fffc       cmpa.l -0x4(a1), a1
   < 0x0064ac32      6702           beq.b 0x64ac36
      0x0064ac34      4e4d           trap 0xd
   > 0x0064ac36      9efc0100       suba.w 0x100, a7
       0x0064ac3a      244f           movea.l a7, a2
       0x0064ac3c      323c00ff       move.w 0xff, d1
   > 0x0064ac40      14d9           move.b (a1)+, (a2)+
   < 0x0064ac42      51c9fffc       dbra d1, 0x64ac40
       0x0064ac46      4eb9005a3106   jsr K04_FILEROPS.k_owner_valid
       0x0064ac4c      defc0100       adda.w 0x100, a7
       0x0064ac50      369f           move.w (a7)+, (a3)
       0x0064ac52      1213           move.b (a3), d1
       0x0064ac54      b23a8193       cmp.b 0x642de9(pc), d1
   < 0x0064ac58      6608           bne.b 0x64ac62
      0x0064ac5a      122effa5       move.b -0x5b(a6), d1
      0x0064ac5e      b23a818a       cmp.b 0x642dea(pc), d1
  > 0x0064ac62      6756           beq.b 0x64acba
      0x0064ac64      487a8186       pea.l 0x642dec(pc)
      0x0064ac68      48780007       pea.l 0x7
      0x0064ac6c      2f17           move.l (a7), -(a7)
      0x0064ac6e      4eb9004047ea   jsr p_wts_o
      0x0064ac74      dec5           adda.w d5, a7
      0x0064ac76      22700036       movea.l 0x36(a0, d0.w), a1
      0x0064ac7a      b3e9fffc       cmpa.l -0x4(a1), a1
  < 0x0064ac7e      6702           beq.b 0x64ac82
     0x0064ac80      4e4d           trap 0xd
  > 0x0064ac82      22690020       movea.l 0x20(a1), a1
      0x0064ac86      b3e9fffc       cmpa.l -0x4(a1), a1
  < 0x0064ac8a      6702           beq.b 0x64ac8e
     0x0064ac8c      4e4d           trap 0xd
  > 0x0064ac8e      48690001       pea.l 0x1(a1)
      0x0064ac92      42a7           clr.l -(a7)
      0x0064ac94      1f510003       move.b (a1), 0x3(a7)
      0x0064ac98      2f17           move.l (a7), -(a7)
      0x0064ac9a      4eb9004047ea   jsr p_wts_o
      0x0064aca0      dec5           adda.w d5, a7
      0x0064aca2      487a8150       pea.l 0x642df4(pc)
      0x0064aca6      4878001f       pea.l 0x1f
      0x0064acaa      2f17           move.l (a7), -(a7)
      0x0064acac      4eb9004047ea   jsr p_wts_o
      0x0064acb2      dec5           adda.w d5, a7
      0x0064acb4      4eb900404946   jsr p_wtln_o
  > 0x0064acba      3213           move.w (a3), d1
       0x0064acbc      b27a8156       cmp.w 0x642e14(pc), d1
   < 0x0064acc0      670c           beq.b 0x64acce
      0x0064acc2      486effa8       pea.l -0x58(a6)
      0x0064acc6      4eb900404468   jsr fcn.00404468
      0x0064accc      584f           addq.w 0x4, a7
   > 0x0064acce      554f           subq.w 0x2, a7
        0x0064acd0      486efff2       pea.l -0xe(a6)
        0x0064acd4      1f06           move.b d6, -(a7)
        0x0064acd6      4eb9005a3144   jsr K04_FILEROPS.k_index
        0x0064acdc      5c4f           addq.w 0x6, a7
        0x0064acde      369f           move.w (a7)+, (a3)
        0x0064ace0      1213           move.b (a3), d1
        0x0064ace2      b23a8133       cmp.b 0x642e17(pc), d1
    < 0x0064ace6      6608           bne.b 0x64acf0
       0x0064ace8      122effa5       move.b -0x5b(a6), d1
       0x0064acec      b23a812a       cmp.b 0x642e18(pc), d1
   > 0x0064acf0      670c           beq.b 0x64acfe
       0x0064acf2      486effa8       pea.l -0x58(a6)
       0x0064acf6      4eb900404468   jsr fcn.00404468
       0x0064acfc      584f           addq.w 0x4, a7
   > 0x0064acfe      7e01           moveq 0x1, d7
        0x0064ad00      1f06           move.b d6, -(a7)
        0x0064ad02      4227           clr.b -(a7)
        0x0064ad04      22700036       movea.l 0x36(a0, d0.w), a1
        0x0064ad08      b3e9fffc       cmpa.l -0x4(a1), a1
    < 0x0064ad0c      6702           beq.b 0x64ad10
       0x0064ad0e      4e4d           trap 0xd
    > 0x0064ad10      22690018       movea.l 0x18(a1), a1
        0x0064ad14      b3e9fffc       cmpa.l -0x4(a1), a1
    < 0x0064ad18      6702           beq.b 0x64ad1c
       0x0064ad1a      4e4d           trap 0xd
    > 0x0064ad1c      4851           pea.l (a1)
        0x0064ad1e      4853           pea.l (a3)
        0x0064ad20      284b           movea.l a3, a4
        0x0064ad22      4ebafa74       jsr K9_LIBRARY.consider_string(pc)
        0x0064ad26      dec5           adda.w d5, a7
        0x0064ad28      3213           move.w (a3), d1
        0x0064ad2a      b27a80ee       cmp.w 0x642e1a(pc), d1
    < 0x0064ad2e      6704           beq.b 0x64ad34
       0x0064ad30      3d53ffa6       move.w (a3), -0x5a(a6)
    > 0x0064ad34      1f3c0003       move.b 0x3, -(a7)
        0x0064ad38      1f06           move.b d6, -(a7)
        0x0064ad3a      22700036       movea.l 0x36(a0, d0.w), a1
        0x0064ad3e      b3e9fffc       cmpa.l -0x4(a1), a1
    < 0x0064ad42      6702           beq.b 0x64ad46
       0x0064ad44      4e4d           trap 0xd
    > 0x0064ad46      22690020       movea.l 0x20(a1), a1
        0x0064ad4a      b3e9fffc       cmpa.l -0x4(a1), a1
    < 0x0064ad4e      6702           beq.b 0x64ad52
       0x0064ad50      4e4d           trap 0xd
    > 0x0064ad52      4851           pea.l (a1)
        0x0064ad54      4853           pea.l (a3)
        0x0064ad56      284b           movea.l a3, a4
        0x0064ad58      4ebafa3e       jsr K9_LIBRARY.consider_string(pc)
        0x0064ad5c      dec5           adda.w d5, a7
        0x0064ad5e      1213           move.b (a3), d1
        0x0064ad60      b23a80bb       cmp.b 0x642e1d(pc), d1
    < 0x0064ad64      6608           bne.b 0x64ad6e
       0x0064ad66      122effa5       move.b -0x5b(a6), d1
       0x0064ad6a      b23a80b2       cmp.b 0x642e1e(pc), d1
   > 0x0064ad6e      6704           beq.b 0x64ad74
       0x0064ad70      3d53ffa6       move.w (a3), -0x5a(a6)
   > 0x0064ad74      1f3c0002       move.b 0x2, -(a7)
        0x0064ad78      1f3c0002       move.b 0x2, -(a7)
        0x0064ad7c      22700036       movea.l 0x36(a0, d0.w), a1
        0x0064ad80      b3e9fffc       cmpa.l -0x4(a1), a1
    < 0x0064ad84      6702           beq.b 0x64ad88
       0x0064ad86      4e4d           trap 0xd
    > 0x0064ad88      2269001c       movea.l 0x1c(a1), a1
        0x0064ad8c      b3e9fffc       cmpa.l -0x4(a1), a1
    < 0x0064ad90      6702           beq.b 0x64ad94
       0x0064ad92      4e4d           trap 0xd
    > 0x0064ad94      4851           pea.l (a1)
        0x0064ad96      4853           pea.l (a3)
        0x0064ad98      284b           movea.l a3, a4
        0x0064ad9a      4ebaf9fc       jsr K9_LIBRARY.consider_string(pc)
        0x0064ad9e      dec5           adda.w d5, a7
        0x0064ada0      3213           move.w (a3), d1
        0x0064ada2      b27a807c       cmp.w 0x642e20(pc), d1
    < 0x0064ada6      6704           beq.b 0x64adac
       0x0064ada8      3d53ffa6       move.w (a3), -0x5a(a6)
    > 0x0064adac      1f3c0008       move.b 0x8, -(a7)
        0x0064adb0      1f3c0013       move.b 0x13, -(a7)
        0x0064adb4      22700036       movea.l 0x36(a0, d0.w), a1
        0x0064adb8      b3e9fffc       cmpa.l -0x4(a1), a1
    < 0x0064adbc      6702           beq.b 0x64adc0
       0x0064adbe      4e4d           trap 0xd
    > 0x0064adc0      2f290038       move.l 0x38(a1), -(a7)
        0x0064adc4      4853           pea.l (a3)
        0x0064adc6      284b           movea.l a3, a4
        0x0064adc8      4ebafa46       jsr K9_LIBRARY.consider_block_(pc)
        0x0064adcc      dec5           adda.w d5, a7
        0x0064adce      1213           move.b (a3), d1
        0x0064add0      b23a8051       cmp.b 0x642e23(pc), d1
    < 0x0064add4      6608           bne.b 0x64adde
       0x0064add6      122effa5       move.b -0x5b(a6), d1
       0x0064adda      b23a8048       cmp.b 0x642e24(pc), d1
   > 0x0064adde      6704           beq.b 0x64ade4
       0x0064ade0      3d53ffa6       move.w (a3), -0x5a(a6)
   > 0x0064ade4      1f3c000b       move.b 0xb, -(a7)
        0x0064ade8      1f3c0014       move.b 0x14, -(a7)
        0x0064adec      2f300036       move.l 0x36(a0, d0.w), -(a7)
        0x0064adf0      4853           pea.l (a3)
        0x0064adf2      284b           movea.l a3, a4
        0x0064adf4      4ebafa94       jsr K9_LIBRARY.consider_udf_ch(pc)
        0x0064adf8      dec5           adda.w d5, a7
        0x0064adfa      3213           move.w (a3), d1
        0x0064adfc      b27a8028       cmp.w 0x642e26(pc), d1
    < 0x0064ae00      6704           beq.b 0x64ae06
       0x0064ae02      3d53ffa6       move.w (a3), -0x5a(a6)
    > 0x0064ae06      1f05           move.b d5, -(a7)
        0x0064ae08      1f3c0015       move.b 0x15, -(a7)
        0x0064ae0c      2f300036       move.l 0x36(a0, d0.w), -(a7)
        0x0064ae10      4853           pea.l (a3)
        0x0064ae12      284b           movea.l a3, a4
        0x0064ae14      4ebafa74       jsr K9_LIBRARY.consider_udf_ch(pc)
        0x0064ae18      dec5           adda.w d5, a7
        0x0064ae1a      1213           move.b (a3), d1
        0x0064ae1c      b23a800b       cmp.b 0x642e29(pc), d1
    < 0x0064ae20      6608           bne.b 0x64ae2a
       0x0064ae22      122effa5       move.b -0x5b(a6), d1
       0x0064ae26      b23a8002       cmp.b 0x642e2a(pc), d1
   > 0x0064ae2a      6704           beq.b 0x64ae30
       0x0064ae2c      3d53ffa6       move.w (a3), -0x5a(a6)
   > 0x0064ae30      1f3c000d       move.b 0xd, -(a7)
        0x0064ae34      1f3c0016       move.b 0x16, -(a7)
        0x0064ae38      2f300036       move.l 0x36(a0, d0.w), -(a7)
        0x0064ae3c      4853           pea.l (a3)
        0x0064ae3e      284b           movea.l a3, a4
        0x0064ae40      4ebafa48       jsr K9_LIBRARY.consider_udf_ch(pc)
        0x0064ae44      dec5           adda.w d5, a7
        0x0064ae46      3213           move.w (a3), d1
        0x0064ae48      b27900642e2c   cmp.w 0x642e2c, d1
    < 0x0064ae4e      6704           beq.b 0x64ae54
       0x0064ae50      3d53ffa6       move.w (a3), -0x5a(a6)
    > 0x0064ae54      1f3c000e       move.b 0xe, -(a7)
        0x0064ae58      1f3c0017       move.b 0x17, -(a7)
        0x0064ae5c      2f300036       move.l 0x36(a0, d0.w), -(a7)
        0x0064ae60      4853           pea.l (a3)
        0x0064ae62      284b           movea.l a3, a4
        0x0064ae64      4ebafa24       jsr K9_LIBRARY.consider_udf_ch(pc)
        0x0064ae68      dec5           adda.w d5, a7
        0x0064ae6a      1213           move.b (a3), d1
        0x0064ae6c      b23900642e2f   cmp.b 0x642e2f, d1
    < 0x0064ae72      660a           bne.b 0x64ae7e
       0x0064ae74      122effa5       move.b -0x5b(a6), d1
       0x0064ae78      b23900642e30   cmp.b 0x642e30, d1
   > 0x0064ae7e      6704           beq.b 0x64ae84
       0x0064ae80      3d53ffa6       move.w (a3), -0x5a(a6)
   > 0x0064ae84      3213           move.w (a3), d1
         0x0064ae86      b27900642e32   cmp.w 0x642e32, d1
     < 0x0064ae8c      661a           bne.b 0x64aea8
        0x0064ae8e      122effa6       move.b -0x5a(a6), d1
        0x0064ae92      b23900642e35   cmp.b 0x642e35, d1
    < 0x0064ae98      660a           bne.b 0x64aea4
       0x0064ae9a      122effa7       move.b -0x59(a6), d1
       0x0064ae9e      b23900642e36   cmp.b 0x642e36, d1
   > 0x0064aea4      670000e2       beq.w 0x64af88
    > 0x0064aea8      9efc0100       suba.w 0x100, a7
        0x0064aeac      3f13           move.w (a3), -(a7)
        0x0064aeae      4eb9005b071e   jsr K3_UTILS.k3_full_string
        0x0064aeb4      9efc00fe       suba.w 0xfe, a7
        0x0064aeb8      3f2effa6       move.w -0x5a(a6), -(a7)
        0x0064aebc      4eb9005b071e   jsr K3_UTILS.k3_full_string
        0x0064aec2      544f           addq.w 0x2, a7
        0x0064aec4      487900642e38   pea.l 0x642e38
        0x0064aeca      48780004       pea.l 0x4
        0x0064aece      2f17           move.l (a7), -(a7)
        0x0064aed0      4eb9004047ea   jsr p_wts_o
        0x0064aed6      dec5           adda.w d5, a7
        0x0064aed8      4853           pea.l (a3)
        0x0064aeda      48780002       pea.l 0x2
        0x0064aede      2f17           move.l (a7), -(a7)
        0x0064aee0      4eb9004047ea   jsr p_wts_o
        0x0064aee6      defc000a       adda.w 0xa, a7
        0x0064aeea      1ebc0028       move.b 0x28, (a7)
        0x0064aeee      48780001       pea.l 0x1
        0x0064aef2      4eb9004048b4   jsr p_wtc_o
        0x0064aef8      5c4f           addq.w 0x6, a7
        0x0064aefa      486f0101       pea.l 0x101(a7)
        0x0064aefe      42a7           clr.l -(a7)
        0x0064af00      1f6f01080003   move.b 0x108(a7), 0x3(a7)
        0x0064af06      2f17           move.l (a7), -(a7)
        0x0064af08      4eb9004047ea   jsr p_wts_o
        0x0064af0e      defc000a       adda.w 0xa, a7
        0x0064af12      1ebc0029       move.b 0x29, (a7)
        0x0064af16      48780001       pea.l 0x1
        0x0064af1a      4eb9004048b4   jsr p_wtc_o
        0x0064af20      5c4f           addq.w 0x6, a7
        0x0064af22      486effa6       pea.l -0x5a(a6)
        0x0064af26      48780002       pea.l 0x2
        0x0064af2a      2f17           move.l (a7), -(a7)
        0x0064af2c      4eb9004047ea   jsr p_wts_o
        0x0064af32      defc000a       adda.w 0xa, a7
        0x0064af36      1ebc0028       move.b 0x28, (a7)
        0x0064af3a      48780001       pea.l 0x1
        0x0064af3e      4eb9004048b4   jsr p_wtc_o
        0x0064af44      5c4f           addq.w 0x6, a7
        0x0064af46      486f0001       pea.l 0x1(a7)
        0x0064af4a      42a7           clr.l -(a7)
        0x0064af4c      1f6f00080003   move.b 0x8(a7), 0x3(a7)
        0x0064af52      2f17           move.l (a7), -(a7)
        0x0064af54      4eb9004047ea   jsr p_wts_o
        0x0064af5a      defc020a       adda.w 0x20a, a7
        0x0064af5e      1ebc0029       move.b 0x29, (a7)
        0x0064af62      48780001       pea.l 0x1
        0x0064af66      4eb9004048b4   jsr p_wtc_o
        0x0064af6c      5c4f           addq.w 0x6, a7
        0x0064af6e      487900642e3d   pea.l 0x642e3d
        0x0064af74      4878000e       pea.l 0xe
        0x0064af78      2f17           move.l (a7), -(a7)
        0x0064af7a      4eb9004047ea   jsr p_wts_o
        0x0064af80      dec5           adda.w d5, a7
        0x0064af82      4eb900404946   jsr p_wtln_o
   > 0x0064af88      3213           move.w (a3), d1
         0x0064af8a      b27900642e4c   cmp.w 0x642e4c, d1
     < 0x0064af90      6620           bne.b 0x64afb2
        0x0064af92      122effa6       move.b -0x5a(a6), d1
        0x0064af96      b23900642e4f   cmp.b 0x642e4f, d1
    < 0x0064af9c      660a           bne.b 0x64afa8
       0x0064af9e      122effa7       move.b -0x59(a6), d1
       0x0064afa2      b23900642e50   cmp.b 0x642e50, d1
   > 0x0064afa8      6708           beq.b 0x64afb2
       0x0064afaa      3d6effa60008   move.w -0x5a(a6), 0x8(a6)
   < 0x0064afb0      6004           bra.b 0x64afb6
   > 0x0064afb2      3d530008       move.w (a3), 0x8(a6)
    > 0x0064afb6      4a07           tst.b d7
     < 0x0064afb8      675c           beq.b 0x64b016
        0x0064afba      554f           subq.w 0x2, a7
        0x0064afbc      486efff2       pea.l -0xe(a6)
        0x0064afc0      1f3c0002       move.b 0x2, -(a7)
        0x0064afc4      4eb9005a3144   jsr K04_FILEROPS.k_index
        0x0064afca      5c4f           addq.w 0x6, a7
        0x0064afcc      369f           move.w (a7)+, (a3)
        0x0064afce      3213           move.w (a3), d1
        0x0064afd0      b27900642e52   cmp.w 0x642e52, d1
    < 0x0064afd6      673e           beq.b 0x64b016
       0x0064afd8      487900642e55   pea.l 0x642e55
       0x0064afde      48780004       pea.l 0x4
       0x0064afe2      2f17           move.l (a7), -(a7)
       0x0064afe4      4eb9004047ea   jsr p_wts_o
       0x0064afea      dec5           adda.w d5, a7
       0x0064afec      4853           pea.l (a3)
       0x0064afee      48780002       pea.l 0x2
       0x0064aff2      2f17           move.l (a7), -(a7)
       0x0064aff4      4eb9004047ea   jsr p_wts_o
       0x0064affa      dec5           adda.w d5, a7
       0x0064affc      487900642e5a   pea.l 0x642e5a
       0x0064b002      48780017       pea.l 0x17
       0x0064b006      2f17           move.l (a7), -(a7)
       0x0064b008      4eb9004047ea   jsr p_wts_o
       0x0064b00e      dec5           adda.w d5, a7
       0x0064b010      4eb900404946   jsr p_wtln_o
    > 0x0064b016      226efff2       movea.l -0xe(a6), a1
         0x0064b01a      b2c6           cmpa.w d6, a1
     < 0x0064b01c      6710           beq.b 0x64b02e
        0x0064b01e      554f           subq.w 0x2, a7
        0x0064b020      486efff2       pea.l -0xe(a6)
        0x0064b024      4eb900594e02   jsr K0_DISKMGR.k_lose_ref
        0x0064b02a      584f           addq.w 0x4, a7
        0x0064b02c      369f           move.w (a7)+, (a3)
     > 0x0064b02e      22300044       move.l 0x44(a0, d0.w), d1
         0x0064b032      5381           subq.l 0x1, d1
         0x0064b034      0c810000000b   cmpi.l 0xb, d1
     < 0x0064b03a      6302           bls.b 0x64b03e
        0x0064b03c      4e4f           trap 0xf
     > 0x0064b03e      2801           move.l d1, d4
         0x0064b040      761e           moveq 0x1e, d3
         0x0064b042      4eb900406a74   jsr fcn.00406a74
         0x0064b048      43f00012       lea.l 0x12(a0, d0.w), a1
         0x0064b04c      24714846       movea.l 0x46(a1, d4.l), a2
         0x0064b050      b5eafffc       cmpa.l -0x4(a2), a2
     < 0x0064b054      6702           beq.b 0x64b058
        0x0064b056      4e4d           trap 0xd
     > 0x0064b058      2229002a       move.l 0x2a(a1), d1
         0x0064b05c      4681           not.l d1
         0x0064b05e      c3aa0014       and.l d1, 0x14(a2)
         0x0064b062      13864861       move.b d6, 0x61(a1, d4.l)
         0x0064b066      22300044       move.l 0x44(a0, d0.w), d1
         0x0064b06a      5381           subq.l 0x1, d1
         0x0064b06c      0c810000000b   cmpi.l 0xb, d1
     < 0x0064b072      6302           bls.b 0x64b076
        0x0064b074      4e4f           trap 0xf
     > 0x0064b076      2801           move.l d1, d4
         0x0064b078      761e           moveq 0x1e, d3
         0x0064b07a      4eb900406a74   jsr fcn.00406a74
         0x0064b080      594f           subq.w 0x4, a7
         0x0064b082      1f3c0003       move.b 0x3, -(a7)
         0x0064b086      4eba89ee       jsr K9_LIBRARY.required_fields(pc)
         0x0064b08a      544f           addq.w 0x2, a7
         0x0064b08c      2f314846       move.l 0x46(a1, d4.l), -(a7)
         0x0064b090      2f314846       move.l 0x46(a1, d4.l), -(a7)
         0x0064b094      4eba8bcc       jsr K9_LIBRARY.make_file_info_(pc)
         0x0064b098      dec5           adda.w d5, a7
         0x0064b09a      4cdf1fff       movem.l (a7)+, d0-d7/a0-a4
         0x0064b09e      4e5e           unlk a6
         0x0064b0a0      4e75           rts
          ; CALL XREF from K9_LIBRARY.k9_start_retitl @ 0x64b49c
 492: K9_LIBRARY.set_udf_title ();
         0x0064b0a2      4e56fdb4       link.w a6, 0xfdb4
         0x0064b0a6      bfd5           cmpa.l (a5), a7
     < 0x0064b0a8      6206           bhi.b 0x64b0b0
        0x0064b0aa      44fc0002       move.w 0x2, ccr
        0x0064b0ae      4e76           trapv
     > 0x0064b0b0      defc014c       adda.w 0x14c, a7
         0x0064b0b4      48e7fff8       movem.l d0-d7/a0-a4, -(a7)
         0x0064b0b8      47eeff00       lea.l -0x100(a6), a3
         0x0064b0bc      49f900847e42   lea.l 0x847e42, a4
         0x0064b0c2      7808           moveq 0x8, d4
         0x0064b0c4      7a0b           moveq 0xb, d5
         0x0064b0c6      7c0a           moveq 0xa, d6
         0x0064b0c8      7e03           moveq 0x3, d7
         0x0064b0ca      1014           move.b (a4), d0
         0x0064b0cc      4880           ext.w d0
         0x0064b0ce      c1fc02d0       muls.w 0x2d0, d0
         0x0064b0d2      41f900847e32   lea.l 0x847e32, a0
         0x0064b0d8      20700036       movea.l 0x36(a0, d0.w), a0
         0x0064b0dc      b1e8fffc       cmpa.l -0x4(a0), a0
     < 0x0064b0e0      6702           beq.b 0x64b0e4
        0x0064b0e2      4e4d           trap 0xd
     > 0x0064b0e4      102e0008       move.b 0x8(a6), d0
         0x0064b0e8      4880           ext.w d0
         0x0064b0ea      3200           move.w d0, d1
         0x0064b0ec      9245           sub.w d5, d1
         0x0064b0ee      4387           chk.w d7, d1
         0x0064b0f0      14301054       move.b 0x54(a0, d1.w), d2
         0x0064b0f4      4882           ext.w d2
         0x0064b0f6      43f900642e72   lea.l 0x642e72, a1
         0x0064b0fc      3602           move.w d2, d3
         0x0064b0fe      e64b           lsr.w 0x3, d3
         0x0064b100      05313000       btst.l d2, (a1, d3.w)
     < 0x0064b104      67000084       beq.w 0x64b18a
        0x0064b108      554f           subq.w 0x2, a7
        0x0064b10a      48780001       pea.l 0x1
        0x0064b10e      1f3c0001       move.b 0x1, -(a7)
        0x0064b112      1f00           move.b d0, -(a7)
        0x0064b114      4eb90064c324   jsr K9_LIBRARY.k9_info_type_fi
        0x0064b11a      504f           addq.w 0x8, a7
        0x0064b11c      141f           move.b (a7)+, d2
        0x0064b11e      4882           ext.w d2
        0x0064b120      4585           chk.w d5, d2
        0x0064b122      11821054       move.b d2, 0x54(a0, d1.w)
        0x0064b126      b404           cmp.b d4, d2
    < 0x0064b128      6d0a           blt.b 0x64b134
       0x0064b12a      b404           cmp.b d4, d2
   < 0x0064b12c      6726           beq.b 0x64b154
      0x0064b12e      b406           cmp.b d6, d2
  < 0x0064b130      673a           beq.b 0x64b16c
 < 0x0064b132      6056           bra.b 0x64b18a
 > 0x0064b134      0c020002       cmpi.b 0x2, d2
 < 0x0064b138      6702           beq.b 0x64b13c
 < 0x0064b13a      604e           bra.b 0x64b18a
 > 0x0064b13c      3401           move.w d1, d2
     0x0064b13e      e542           asl.w 0x2, d2
     0x0064b140      22702058       movea.l 0x58(a0, d2.w), a1
     0x0064b144      b3e9fffc       cmpa.l -0x4(a1), a1
 < 0x0064b148      6702           beq.b 0x64b14c
    0x0064b14a      4e4d           trap 0xd
 > 0x0064b14c      12b900642e90   move.b 0x642e90, (a1)
 < 0x0064b152      6036           bra.b 0x64b18a
 > 0x0064b154      3401           move.w d1, d2
     0x0064b156      e542           asl.w 0x2, d2
     0x0064b158      22702058       movea.l 0x58(a0, d2.w), a1
     0x0064b15c      b3e9fffc       cmpa.l -0x4(a1), a1
 < 0x0064b160      6702           beq.b 0x64b164
    0x0064b162      4e4d           trap 0xd
 > 0x0064b164      22bc7fffffff   move.l 0x7fffffff, (a1)
 < 0x0064b16a      601e           bra.b 0x64b18a
 > 0x0064b16c      3401           move.w d1, d2
     0x0064b16e      e542           asl.w 0x2, d2
     0x0064b170      22702058       movea.l 0x58(a0, d2.w), a1
     0x0064b174      b3e9fffc       cmpa.l -0x4(a1), a1
 < 0x0064b178      6702           beq.b 0x64b17c
    0x0064b17a      4e4d           trap 0xd
 > 0x0064b17c      45f900642e91   lea.l 0x642e91, a2
     0x0064b182      7407           moveq 0x7, d2
 > 0x0064b184      12da           move.b (a2)+, (a1)+
 < 0x0064b186      51cafffc       dbra d2, 0x64b184
 > 0x0064b18a      16b900642eb2   move.b 0x642eb2, (a3)
         0x0064b190      1014           move.b (a4), d0
         0x0064b192      4880           ext.w d0
         0x0064b194      c1fc02d0       muls.w 0x2d0, d0
         0x0064b198      41f900847e32   lea.l 0x847e32, a0
         0x0064b19e      20700036       movea.l 0x36(a0, d0.w), a0
         0x0064b1a2      b1e8fffc       cmpa.l -0x4(a0), a0
     < 0x0064b1a6      6702           beq.b 0x64b1aa
        0x0064b1a8      4e4d           trap 0xd
     > 0x0064b1aa      102e0008       move.b 0x8(a6), d0
         0x0064b1ae      4880           ext.w d0
         0x0064b1b0      9045           sub.w d5, d0
         0x0064b1b2      4187           chk.w d7, d0
         0x0064b1b4      12300054       move.b 0x54(a0, d0.w), d1
         0x0064b1b8      b204           cmp.b d4, d1
     < 0x0064b1ba      6d0c           blt.b 0x64b1c8
        0x0064b1bc      b204           cmp.b d4, d1
    < 0x0064b1be      6730           beq.b 0x64b1f0
       0x0064b1c0      b206           cmp.b d6, d1
   < 0x0064b1c2      6754           beq.b 0x64b218
  < 0x0064b1c4      600000a0       bra.w 0x64b266
  > 0x0064b1c8      0c010002       cmpi.b 0x2, d1
  < 0x0064b1cc      6704           beq.b 0x64b1d2
 < 0x0064b1ce      60000096       bra.w 0x64b266
 > 0x0064b1d2      3200           move.w d0, d1
     0x0064b1d4      e541           asl.w 0x2, d1
     0x0064b1d6      22701058       movea.l 0x58(a0, d1.w), a1
     0x0064b1da      b3e9fffc       cmpa.l -0x4(a1), a1
 < 0x0064b1de      6702           beq.b 0x64b1e2
    0x0064b1e0      4e4d           trap 0xd
 > 0x0064b1e2      244b           movea.l a3, a2
     0x0064b1e4      323c00ff       move.w 0xff, d1
 > 0x0064b1e8      14d9           move.b (a1)+, (a2)+
 < 0x0064b1ea      51c9fffc       dbra d1, 0x64b1e8
 < 0x0064b1ee      6076           bra.b 0x64b266
 > 0x0064b1f0      3200           move.w d0, d1
     0x0064b1f2      e541           asl.w 0x2, d1
     0x0064b1f4      22701058       movea.l 0x58(a0, d1.w), a1
     0x0064b1f8      b3e9fffc       cmpa.l -0x4(a1), a1
 < 0x0064b1fc      6702           beq.b 0x64b200
    0x0064b1fe      4e4d           trap 0xd
 > 0x0064b200      2f11           move.l (a1), -(a7)
     0x0064b202      48780000       pea.l 0x0
     0x0064b206      4853           pea.l (a3)
     0x0064b208      3f3c00ff       move.w 0xff, -(a7)
     0x0064b20c      4eb900406e56   jsr p_strI1
     0x0064b212      defc000e       adda.w 0xe, a7
 < 0x0064b216      604e           bra.b 0x64b266
 > 0x0064b218      9efc0104       suba.w 0x104, a7
     0x0064b21c      3200           move.w d0, d1
     0x0064b21e      e541           asl.w 0x2, d1
     0x0064b220      22701058       movea.l 0x58(a0, d1.w), a1
     0x0064b224      b3e9fffc       cmpa.l -0x4(a1), a1
 < 0x0064b228      6702           beq.b 0x64b22c
    0x0064b22a      4e4d           trap 0xd
 > 0x0064b22c      514f           subq.w 0x8, a7
     0x0064b22e      244f           movea.l a7, a2
     0x0064b230      7207           moveq 0x7, d1
 > 0x0064b232      14d9           move.b (a1)+, (a2)+
 < 0x0064b234      51c9fffc       dbra d1, 0x64b232
     0x0064b238      4eb9006aa110   jsr DATE_UTILS.real_date
     0x0064b23e      5c4f           addq.w 0x6, a7
     0x0064b240      4217           clr.b (a7)
     0x0064b242      4227           clr.b -(a7)
     0x0064b244      4227           clr.b -(a7)
     0x0064b246      554f           subq.w 0x2, a7
     0x0064b248      4eb900478a3a   jsr CONFIGCOM.tvsys
     0x0064b24e      4a1f           tst.b (a7)+
 < 0x0064b250      6602           bne.b 0x64b254
    0x0064b252      5217           addq.b 0x1, (a7)
 > 0x0064b254      4eb9006aa480   jsr DATE_UTILS.str_date
     0x0064b25a      dec6           adda.w d6, a7
     0x0064b25c      224b           movea.l a3, a1
     0x0064b25e      723f           moveq 0x3f, d1
 > 0x0064b260      22df           move.l (a7)+, (a1)+
 < 0x0064b262      51c9fffc       dbra d1, 0x64b260
 > 0x0064b266      554f           subq.w 0x2, a7
         0x0064b268      1f2e0008       move.b 0x8(a6), -(a7)
         0x0064b26c      4ebaf0f0       jsr K9_LIBRARY.title_for(pc)
         0x0064b270      544f           addq.w 0x2, a7
         0x0064b272      1017           move.b (a7), d0
         0x0064b274      4880           ext.w d0
         0x0064b276      41bc003f       chk.w 0x3f, d0
         0x0064b27a      1e80           move.b d0, (a7)
         0x0064b27c      4853           pea.l (a3)
         0x0064b27e      4eb9004a5b70   jsr MENUKEYBDCOM.set_title
         0x0064b284      5c4f           addq.w 0x6, a7
         0x0064b286      4cdf1fff       movem.l (a7)+, d0-d7/a0-a4
         0x0064b28a      4e5e           unlk a6
         0x0064b28c      4e75           rts
          ; CALL XREF from MENULIBFNDCOM.hit_item @ 0x7599a8
 564: K9_LIBRARY.k9_start_retitl ();
         0x0064b28e      4e56ff9a       link.w a6, 0xff9a
         0x0064b292      bfd5           cmpa.l (a5), a7
     < 0x0064b294      6206           bhi.b 0x64b29c
        0x0064b296      44fc0002       move.w 0x2, ccr
        0x0064b29a      4e76           trapv
     > 0x0064b29c      defc0064       adda.w 0x64, a7
         0x0064b2a0      48e7fff8       movem.l d0-d7/a0-a4, -(a7)
         0x0064b2a4      743f           moveq 0x3f, d2
         0x0064b2a6      7a0b           moveq 0xb, d5
         0x0064b2a8      7c01           moveq 0x1, d6
         0x0064b2aa      103900847e42   move.b 0x847e42, d0
         0x0064b2b0      4880           ext.w d0
         0x0064b2b2      c1fc02d0       muls.w 0x2d0, d0
         0x0064b2b6      41f900847e32   lea.l 0x847e32, a0
         0x0064b2bc      4ab00044       tst.l 0x44(a0, d0.w)
     < 0x0064b2c0      6704           beq.b 0x64b2c6
        0x0064b2c2      4ebaf066       jsr K9_LIBRARY.k9_ign_retitle(pc)
     > 0x0064b2c6      222e000c       move.l 0xc(a6), d1
         0x0064b2ca      5381           subq.l 0x1, d1
         0x0064b2cc      b285           cmp.l d5, d1
     < 0x0064b2ce      6302           bls.b 0x64b2d2
        0x0064b2d0      4e4f           trap 0xf
     > 0x0064b2d2      2801           move.l d1, d4
         0x0064b2d4      761e           moveq 0x1e, d3
         0x0064b2d6      4eb900406a74   jsr fcn.00406a74
         0x0064b2dc      43f00012       lea.l 0x12(a0, d0.w), a1
         0x0064b2e0      24714846       movea.l 0x46(a1, d4.l), a2
         0x0064b2e4      b4c6           cmpa.w d6, a2
     < 0x0064b2e6      670001d2       beq.w 0x64b4ba
        0x0064b2ea      21ae000c0044   move.l 0xc(a6), 0x44(a0, d0.w)
        0x0064b2f0      42290028       clr.b 0x28(a1)
        0x0064b2f4      237900641aa0.  move.l 0x641aa0, 0x2a(a1)
        0x0064b2fc      24690024       movea.l 0x24(a1), a2
        0x0064b300      b5eafffc       cmpa.l -0x4(a2), a2
    < 0x0064b304      6702           beq.b 0x64b308
       0x0064b306      4e4d           trap 0xd
    > 0x0064b308      257900641aa0.  move.l 0x641aa0, 0x14(a2)
        0x0064b310      26714846       movea.l 0x46(a1, d4.l), a3
        0x0064b314      b7ebfffc       cmpa.l -0x4(a3), a3
    < 0x0064b318      6702           beq.b 0x64b31c
       0x0064b31a      4e4d           trap 0xd
    > 0x0064b31c      49ea0008       lea.l 0x8(a2), a4
        0x0064b320      47eb0008       lea.l 0x8(a3), a3
        0x0064b324      7209           moveq 0x9, d1
    > 0x0064b326      18db           move.b (a3)+, (a4)+
    < 0x0064b328      51c9fffc       dbra d1, 0x64b326
        0x0064b32c      422a004c       clr.b 0x4c(a2)
        0x0064b330      266a0018       movea.l 0x18(a2), a3
        0x0064b334      b7ebfffc       cmpa.l -0x4(a3), a3
    < 0x0064b338      6702           beq.b 0x64b33c
       0x0064b33a      4e4d           trap 0xd
    > 0x0064b33c      16b900642ec5   move.b 0x642ec5, (a3)
        0x0064b342      266a001c       movea.l 0x1c(a2), a3
        0x0064b346      b7ebfffc       cmpa.l -0x4(a3), a3
    < 0x0064b34a      6702           beq.b 0x64b34e
       0x0064b34c      4e4d           trap 0xd
    > 0x0064b34e      16b900642ec6   move.b 0x642ec6, (a3)
        0x0064b354      266a0020       movea.l 0x20(a2), a3
        0x0064b358      b7ebfffc       cmpa.l -0x4(a3), a3
    < 0x0064b35c      6702           beq.b 0x64b360
       0x0064b35e      4e4d           trap 0xd
    > 0x0064b360      16b900642ec7   move.b 0x642ec7, (a3)
        0x0064b366      266a0038       movea.l 0x38(a2), a3
        0x0064b36a      b7ebfffc       cmpa.l -0x4(a3), a3
    < 0x0064b36e      6702           beq.b 0x64b372
       0x0064b370      4e4d           trap 0xd
    > 0x0064b372      4253           clr.w (a3)
        0x0064b374      266a0024       movea.l 0x24(a2), a3
        0x0064b378      b7ebfffc       cmpa.l -0x4(a3), a3
    < 0x0064b37c      6702           beq.b 0x64b380
       0x0064b37e      4e4d           trap 0xd
    > 0x0064b380      16b900642ec8   move.b 0x642ec8, (a3)
        0x0064b386      7e0b           moveq 0xb, d7
    > 0x0064b388      4887           ext.w d7
       0x0064b38a      3207           move.w d7, d1
       0x0064b38c      9245           sub.w d5, d1
       0x0064b38e      43bc0003       chk.w 0x3, d1
       0x0064b392      42321054       clr.b 0x54(a2, d1.w)
       0x0064b396      5207           addq.b 0x1, d7
       0x0064b398      0c07000e       cmpi.b 0xe, d7
    < 0x0064b39c      6fea           ble.b 0x64b388
        0x0064b39e      42290036       clr.b 0x36(a1)
        0x0064b3a2      222e000c       move.l 0xc(a6), d1
        0x0064b3a6      5381           subq.l 0x1, d1
        0x0064b3a8      b285           cmp.l d5, d1
    < 0x0064b3aa      6302           bls.b 0x64b3ae
       0x0064b3ac      4e4f           trap 0xf
    > 0x0064b3ae      2801           move.l d1, d4
        0x0064b3b0      761e           moveq 0x1e, d3
        0x0064b3b2      4eb900406a74   jsr fcn.00406a74
        0x0064b3b8      594f           subq.w 0x4, a7
        0x0064b3ba      1f3c0003       move.b 0x3, -(a7)
        0x0064b3be      4eba86b6       jsr K9_LIBRARY.required_fields(pc)
        0x0064b3c2      544f           addq.w 0x2, a7
        0x0064b3c4      2f314846       move.l 0x46(a1, d4.l), -(a7)
        0x0064b3c8      2f290024       move.l 0x24(a1), -(a7)
        0x0064b3cc      4eba8894       jsr K9_LIBRARY.make_file_info_(pc)
        0x0064b3d0      defc000c       adda.w 0xc, a7
        0x0064b3d4      13460036       move.b d6, 0x36(a1)
        0x0064b3d8      24690024       movea.l 0x24(a1), a2
        0x0064b3dc      b5eafffc       cmpa.l -0x4(a2), a2
    < 0x0064b3e0      6702           beq.b 0x64b3e4
       0x0064b3e2      4e4d           trap 0xd
    > 0x0064b3e4      554f           subq.w 0x2, a7
        0x0064b3e6      1f06           move.b d6, -(a7)
        0x0064b3e8      4ebaef74       jsr K9_LIBRARY.title_for(pc)
        0x0064b3ec      544f           addq.w 0x2, a7
        0x0064b3ee      1217           move.b (a7), d1
        0x0064b3f0      4881           ext.w d1
        0x0064b3f2      4382           chk.w d2, d1
        0x0064b3f4      1e81           move.b d1, (a7)
        0x0064b3f6      266a0018       movea.l 0x18(a2), a3
        0x0064b3fa      b7ebfffc       cmpa.l -0x4(a3), a3
    < 0x0064b3fe      6702           beq.b 0x64b402
       0x0064b400      4e4d           trap 0xd
    > 0x0064b402      4853           pea.l (a3)
        0x0064b404      4eb9004a5b70   jsr MENUKEYBDCOM.set_title
        0x0064b40a      544f           addq.w 0x2, a7
        0x0064b40c      1ebc0002       move.b 0x2, (a7)
        0x0064b410      4ebaef4c       jsr K9_LIBRARY.title_for(pc)
        0x0064b414      544f           addq.w 0x2, a7
        0x0064b416      1217           move.b (a7), d1
        0x0064b418      4881           ext.w d1
        0x0064b41a      4382           chk.w d2, d1
        0x0064b41c      1e81           move.b d1, (a7)
        0x0064b41e      266a001c       movea.l 0x1c(a2), a3
        0x0064b422      b7ebfffc       cmpa.l -0x4(a3), a3
    < 0x0064b426      6702           beq.b 0x64b42a
       0x0064b428      4e4d           trap 0xd
    > 0x0064b42a      4853           pea.l (a3)
        0x0064b42c      4eb9004a5b70   jsr MENUKEYBDCOM.set_title
        0x0064b432      544f           addq.w 0x2, a7
        0x0064b434      1ebc0003       move.b 0x3, (a7)
        0x0064b438      4ebaef24       jsr K9_LIBRARY.title_for(pc)
        0x0064b43c      544f           addq.w 0x2, a7
        0x0064b43e      1217           move.b (a7), d1
        0x0064b440      4881           ext.w d1
        0x0064b442      4382           chk.w d2, d1
        0x0064b444      1e81           move.b d1, (a7)
        0x0064b446      266a0020       movea.l 0x20(a2), a3
        0x0064b44a      b7ebfffc       cmpa.l -0x4(a3), a3
    < 0x0064b44e      6702           beq.b 0x64b452
       0x0064b450      4e4d           trap 0xd
    > 0x0064b452      4853           pea.l (a3)
        0x0064b454      4eb9004a5b70   jsr MENUKEYBDCOM.set_title
        0x0064b45a      5c4f           addq.w 0x6, a7
        0x0064b45c      266a0038       movea.l 0x38(a2), a3
        0x0064b460      b7ebfffc       cmpa.l -0x4(a3), a3
    < 0x0064b464      6702           beq.b 0x64b468
       0x0064b466      4e4d           trap 0xd
    > 0x0064b468      554f           subq.w 0x2, a7
        0x0064b46a      1f3c0008       move.b 0x8, -(a7)
        0x0064b46e      4ebaeeee       jsr K9_LIBRARY.title_for(pc)
        0x0064b472      544f           addq.w 0x2, a7
        0x0064b474      1217           move.b (a7), d1
        0x0064b476      4881           ext.w d1
        0x0064b478      4382           chk.w d2, d1
        0x0064b47a      1e81           move.b d1, (a7)
        0x0064b47c      4281           clr.l d1
        0x0064b47e      3213           move.w (a3), d1
        0x0064b480      2f01           move.l d1, -(a7)
        0x0064b482      486b0002       pea.l 0x2(a3)
        0x0064b486      48780001       pea.l 0x1
        0x0064b48a      487803fe       pea.l 0x3fe
        0x0064b48e      4eb9004a5dbe   jsr MENUKEYBDCOM.set_long_title
        0x0064b494      defc0012       adda.w 0x12, a7
        0x0064b498      7e0b           moveq 0xb, d7
    > 0x0064b49a      1f07           move.b d7, -(a7)
       0x0064b49c      4ebafc04       jsr K9_LIBRARY.set_udf_title(pc)
       0x0064b4a0      544f           addq.w 0x2, a7
       0x0064b4a2      5207           addq.b 0x1, d7
       0x0064b4a4      0c07000e       cmpi.b 0xe, d7
    < 0x0064b4a8      6ff0           ble.b 0x64b49a
        0x0064b4aa      237cffffffff.  move.l 0xffffffff, 0x2e(a1)
        0x0064b4b2      246e0008       movea.l 0x8(a6), a2
        0x0064b4b6      24a90024       move.l 0x24(a1), (a2)
     > 0x0064b4ba      4cdf1fff       movem.l (a7)+, d0-d7/a0-a4
         0x0064b4be      4e5e           unlk a6
         0x0064b4c0      4e75           rts
          ; CALL XREF from K9_LIBRARY.k9_ch_retitle @ 0x64b614
 72: K9_LIBRARY.ch_retitle_data ();
         0x0064b4c2      4e56ffde       link.w a6, 0xffde
         0x0064b4c6      bfd5           cmpa.l (a5), a7
     < 0x0064b4c8      6206           bhi.b 0x64b4d0
        0x0064b4ca      44fc0002       move.w 0x2, ccr
        0x0064b4ce      4e76           trapv
     > 0x0064b4d0      defc0022       adda.w 0x22, a7
         0x0064b4d4      48e7e080       movem.l d0-d2/a0, -(a7)
         0x0064b4d8      103900847e42   move.b 0x847e42, d0
         0x0064b4de      4880           ext.w d0
         0x0064b4e0      c1fc02d0       muls.w 0x2d0, d0
         0x0064b4e4      41f900847e32   lea.l 0x847e32, a0
         0x0064b4ea      11ae0008003a   move.b 0x8(a6), 0x3a(a0, d0.w)
         0x0064b4f0      1230003a       move.b 0x3a(a0, d0.w), d1
         0x0064b4f4      4881           ext.w d1
         0x0064b4f6      3401           move.w d1, d2
         0x0064b4f8      5342           subq.w 0x1, d2
         0x0064b4fa      0c42000d       cmpi.w 0xd, d2
     < 0x0064b4fe      624c           bhi.b 0x64b54c
        0x0064b500      d442           add.w d2, d2
        0x0064b502      343b2006       move.w 0x64b50a(pc, d2.w), d2
        0x0064b506      4efb2002       jmp 0x64b50a(pc, d2.w)
         0x0064b50a      001c001c       ori.b 0x1c, (a4)+
         0x0064b50e      001c0042       ori.b 0x42, (a4)+
         0x0064b512      00420042       ori.w 0x42, d2
         0x0064b516      0042001c       ori.w 0x1c, d2
         0x0064b51a      00420042       ori.w 0x42, d2
         0x0064b51e      001c001c       ori.b 0x1c, (a4)+
         0x0064b522      001c001c       ori.b 0x1c, (a4)+
         0x0064b526      554f           subq.w 0x2, a7
         0x0064b528      43bc0019       chk.w 0x19, d1
         0x0064b52c      1f01           move.b d1, -(a7)
         0x0064b52e      4ebaee2e       jsr K9_LIBRARY.title_for(pc)
         0x0064b532      544f           addq.w 0x2, a7
         0x0064b534      1417           move.b (a7), d2
         0x0064b536      4882           ext.w d2
         0x0064b538      45bc003f       chk.w 0x3f, d2
         0x0064b53c      1e82           move.b d2, (a7)
         0x0064b53e      48700040       pea.l 0x40(a0, d0.w)
         0x0064b542      4eb9004a59d8   jsr MENUKEYBDCOM.get_edit_pos
         0x0064b548      5c4f           addq.w 0x6, a7
     < 0x0064b54a      6008           bra.b 0x64b554
     > 0x0064b54c      21bcffffffff.  move.l 0xffffffff, 0x40(a0, d0.w)
     > 0x0064b554      4cdf0107       movem.l (a7)+, d0-d2/a0
          0x0064b558      4e5e           unlk a6
          0x0064b55a      4e75           rts
          ; CALL XREF from K9_LIBRARY.k9_ch_retitle @ 0x64b630
 46: K9_LIBRARY.setup_retitle_t ();
         0x0064b55c      4e56ffec       link.w a6, 0xffec
         0x0064b560      bfd5           cmpa.l (a5), a7
     < 0x0064b562      6206           bhi.b 0x64b56a
        0x0064b564      44fc0002       move.w 0x2, ccr
        0x0064b568      4e76           trapv
     > 0x0064b56a      defc0014       adda.w 0x14, a7
         0x0064b56e      48e7c000       movem.l d0-d1, -(a7)
         0x0064b572      102e0008       move.b 0x8(a6), d0
         0x0064b576      4880           ext.w d0
         0x0064b578      3200           move.w d0, d1
         0x0064b57a      0c410012       cmpi.w 0x12, d1
     < 0x0064b57e      6250           bhi.b 0x64b5d0
        0x0064b580      d241           add.w d1, d1
        0x0064b582      323b1006       move.w 0x64b58a(pc, d1.w), d1
        0x0064b586      4efb1002       jmp 0x64b58a(pc, d1.w)
         0x0064b58a      00260028       ori.b 0x28, -(a6)
         0x0064b58e      002800280026   ori.b 0x28, 0x26(a0)
         0x0064b594      00260026       ori.b 0x26, -(a6)
         0x0064b598      00260028       ori.b 0x28, -(a6)
         0x0064b59c      00460046       ori.w 0x46, d6
         0x0064b5a0      002800280028   ori.b 0x28, 0x28(a0)
         0x0064b5a6      002800260026   ori.b 0x26, 0x26(a0)
         0x0064b5ac      00260026       ori.b 0x26, -(a6)
     < 0x0064b5b0      601e           bra.b 0x64b5d0
        0x0064b5b2      4267           clr.w -(a7)
        0x0064b5b4      554f           subq.w 0x2, a7
        0x0064b5b6      1f00           move.b d0, -(a7)
        0x0064b5b8      4ebaeda4       jsr K9_LIBRARY.title_for(pc)
        0x0064b5bc      544f           addq.w 0x2, a7
        0x0064b5be      1217           move.b (a7), d1
        0x0064b5c0      4881           ext.w d1
        0x0064b5c2      43bc003f       chk.w 0x3f, d1
        0x0064b5c6      1e81           move.b d1, (a7)
        0x0064b5c8      4eb9004a5b08   jsr MENUKEYBDCOM.setup_title
        0x0064b5ce      584f           addq.w 0x4, a7
     > 0x0064b5d0      4cdf0003       movem.l (a7)+, d0-d1
          0x0064b5d4      4e5e           unlk a6
          0x0064b5d6      4e75           rts
 102: K9_LIBRARY.k9_ch_retitle (int32_t arg_3ah);
         ; arg int32_t arg_3ah @ a6+0x3a
         0x0064b5d8      4e56ffe6       link.w a6, 0xffe6
         0x0064b5dc      bfd5           cmpa.l (a5), a7
     < 0x0064b5de      6206           bhi.b 0x64b5e6
        0x0064b5e0      44fc0002       move.w 0x2, ccr
        0x0064b5e4      4e76           trapv
     > 0x0064b5e6      defc0018       adda.w 0x18, a7
         0x0064b5ea      48e7c080       movem.l d0-d1/a0, -(a7)
         0x0064b5ee      103900847e42   move.b 0x847e42, d0
         0x0064b5f4      4880           ext.w d0
         0x0064b5f6      c1fc02d0       muls.w 0x2d0, d0
         0x0064b5fa      41f900847e32   lea.l 0x847e32, a0
         0x0064b600      12300034       move.b 0x34(a0, d0.w), d1
         0x0064b604      0c010006       cmpi.b 0x6, d1
     < 0x0064b608      6622           bne.b 0x64b62c
        0x0064b60a      1d70003afffe   move.b 0x3a(a0, d0.w), -0x2(a6)
        0x0064b610      1f2e0008       move.b 0x8(a6), -(a7)
        0x0064b614      4ebafeac       jsr K9_LIBRARY.ch_retitle_data(pc)
        0x0064b618      544f           addq.w 0x2, a7
        0x0064b61a      122efffe       move.b -0x2(a6), d1
        0x0064b61e      4881           ext.w d1
        0x0064b620      43bc0019       chk.w 0x19, d1
        0x0064b624      1f01           move.b d1, -(a7)
        0x0064b626      4ebaef10       jsr K9_LIBRARY.ch_retitle_disp(pc)
        0x0064b62a      544f           addq.w 0x2, a7
     > 0x0064b62c      1f2e0008       move.b 0x8(a6), -(a7)
         0x0064b630      4ebaff2a       jsr K9_LIBRARY.setup_retitle_t(pc)
         0x0064b634      544f           addq.w 0x2, a7
         0x0064b636      4cdf0103       movem.l (a7)+, d0-d1/a0
         0x0064b63a      4e5e           unlk a6
         0x0064b63c      4e75           rts
          ; XREFS: CALL 0x0074ea86  CALL 0x0074f090  CALL 0x0074f4c0  
          ; XREFS: CALL 0x0074fd94  CALL 0x0075197a  CALL 0x00752a3e  
 54: K9_LIBRARY.k9_ret_spec (int32_t arg_3ah);
         ; arg int32_t arg_3ah @ a6+0x3a
         0x0064b63e      4e56fff4       link.w a6, 0xfff4
         0x0064b642      bfd5           cmpa.l (a5), a7
     < 0x0064b644      6206           bhi.b 0x64b64c
        0x0064b646      44fc0002       move.w 0x2, ccr
        0x0064b64a      4e76           trapv
     > 0x0064b64c      defc000c       adda.w 0xc, a7
         0x0064b650      48e78080       movem.l d0/a0, -(a7)
         0x0064b654      103900847e42   move.b 0x847e42, d0
         0x0064b65a      4880           ext.w d0
         0x0064b65c      c1fc02d0       muls.w 0x2d0, d0
         0x0064b660      41f900847e32   lea.l 0x847e32, a0
         0x0064b666      1d70003a0008   move.b 0x3a(a0, d0.w), 0x8(a6)
         0x0064b66c      4cdf0101       movem.l (a7)+, d0/a0
         0x0064b670      4e5e           unlk a6
         0x0064b672      4e75           rts
          ; CALL XREF from MENULIBCOM.tab_retitle @ 0x751996
 144: K9_LIBRARY.k9_info_step_fi ();
         0x0064b674      4e56ffe6       link.w a6, 0xffe6
         0x0064b678      bfd5           cmpa.l (a5), a7
     < 0x0064b67a      6206           bhi.b 0x64b682
        0x0064b67c      44fc0002       move.w 0x2, ccr
        0x0064b680      4e76           trapv
     > 0x0064b682      defc0018       adda.w 0x18, a7
         0x0064b686      48e7c100       movem.l d0-d1/d7, -(a7)
     > 0x0064b68a      554f           subq.w 0x2, a7
        0x0064b68c      1f2e000a       move.b 0xa(a6), -(a7)
        0x0064b690      1f2e0008       move.b 0x8(a6), -(a7)
        0x0064b694      4eb900659562   jsr K92_DISPLAY.k92_info_step_f
        0x0064b69a      584f           addq.w 0x4, a7
        0x0064b69c      101f           move.b (a7)+, d0
        0x0064b69e      4880           ext.w d0
        0x0064b6a0      41bc0019       chk.w 0x19, d0
        0x0064b6a4      1d40000a       move.b d0, 0xa(a6)
        0x0064b6a8      0c00000b       cmpi.b 0xb, d0
    < 0x0064b6ac      661a           bne.b 0x64b6c8
       0x0064b6ae      554f           subq.w 0x2, a7
       0x0064b6b0      48780001       pea.l 0x1
 > 0x0064b6b4      4eb90066a4fa   jsr USERFIELDS.udf_valid
    0x0064b6ba      584f           addq.w 0x4, a7
    0x0064b6bc      121f           move.b (a7)+, d1
    0x0064b6be      4881           ext.w d1
    0x0064b6c0      43bc0001       chk.w 0x1, d1
    0x0064b6c4      1e01           move.b d1, d7
 < 0x0064b6c6      602c           bra.b 0x64b6f4
 > 0x0064b6c8      0c00000c       cmpi.b 0xc, d0
 < 0x0064b6cc      6608           bne.b 0x64b6d6
    0x0064b6ce      554f           subq.w 0x2, a7
    0x0064b6d0      48780002       pea.l 0x2
 < 0x0064b6d4      60de           bra.b 0x64b6b4
  > 0x0064b6d6      0c00000d       cmpi.b 0xd, d0
  < 0x0064b6da      6608           bne.b 0x64b6e4
     0x0064b6dc      554f           subq.w 0x2, a7
     0x0064b6de      48780003       pea.l 0x3
  < 0x0064b6e2      60d0           bra.b 0x64b6b4
   > 0x0064b6e4      0c00000e       cmpi.b 0xe, d0
   < 0x0064b6e8      6608           bne.b 0x64b6f2
      0x0064b6ea      554f           subq.w 0x2, a7
      0x0064b6ec      48780004       pea.l 0x4
   < 0x0064b6f0      60c2           bra.b 0x64b6b4
    > 0x0064b6f2      7e01           moveq 0x1, d7
 > 0x0064b6f4      4a07           tst.b d7
     < 0x0064b6f6      6792           beq.b 0x64b68a
         0x0064b6f8      1d40000c       move.b d0, 0xc(a6)
         0x0064b6fc      4cdf0083       movem.l (a7)+, d0-d1/d7
         0x0064b700      4e5e           unlk a6
         0x0064b702      4e75           rts
          ; CALL XREF from K95_CARDS.k95_select_libr @ 0x66002e
          ; CALL XREF from MENULIBFNDCOM.hit_redisplay @ 0x759292
          ; CALL XREF from MENULIBFNDCOM.hit_item @ 0x7599e8
 62: K9_LIBRARY.k9_display_mode ();
         0x0064b704      4e56ffea       link.w a6, 0xffea
         0x0064b708      bfd5           cmpa.l (a5), a7
     < 0x0064b70a      6206           bhi.b 0x64b712
        0x0064b70c      44fc0002       move.w 0x2, ccr
        0x0064b710      4e76           trapv
     > 0x0064b712      defc0016       adda.w 0x16, a7
         0x0064b716      48e7c080       movem.l d0-d1/a0, -(a7)
         0x0064b71a      103900847e42   move.b 0x847e42, d0
         0x0064b720      4880           ext.w d0
         0x0064b722      c1fc02d0       muls.w 0x2d0, d0
         0x0064b726      41f900847e32   lea.l 0x847e32, a0
         0x0064b72c      12300032       move.b 0x32(a0, d0.w), d1
         0x0064b730      4881           ext.w d1
         0x0064b732      43bc0003       chk.w 0x3, d1
         0x0064b736      1d410008       move.b d1, 0x8(a6)
         0x0064b73a      4cdf0103       movem.l (a7)+, d0-d1/a0
         0x0064b73e      4e5e           unlk a6
         0x0064b740      4e75           rts
          ; XREFS: CALL 0x0066072a  CALL 0x006607e8  CALL 0x00662aca  
          ; XREFS: CALL 0x00662f14  CALL 0x00751e88  CALL 0x00752958  
 62: K9_LIBRARY.k9_screen_state ();
         0x0064b742      4e56ffea       link.w a6, 0xffea
         0x0064b746      bfd5           cmpa.l (a5), a7
     < 0x0064b748      6206           bhi.b 0x64b750
        0x0064b74a      44fc0002       move.w 0x2, ccr
        0x0064b74e      4e76           trapv
     > 0x0064b750      defc0016       adda.w 0x16, a7
         0x0064b754      48e7c080       movem.l d0-d1/a0, -(a7)
         0x0064b758      103900847e42   move.b 0x847e42, d0
         0x0064b75e      4880           ext.w d0
         0x0064b760      c1fc02d0       muls.w 0x2d0, d0
         0x0064b764      41f900847e32   lea.l 0x847e32, a0
         0x0064b76a      12300034       move.b 0x34(a0, d0.w), d1
         0x0064b76e      4881           ext.w d1
         0x0064b770      43bc0006       chk.w 0x6, d1
         0x0064b774      1d410008       move.b d1, 0x8(a6)
         0x0064b778      4cdf0103       movem.l (a7)+, d0-d1/a0
         0x0064b77c      4e5e           unlk a6
         0x0064b77e      4e75           rts
 52: K9_LIBRARY.get_item_area ();
         0x0064b780      4e56ffec       link.w a6, 0xffec
         0x0064b784      bfd5           cmpa.l (a5), a7
     < 0x0064b786      6206           bhi.b 0x64b78e
        0x0064b788      44fc0002       move.w 0x2, ccr
        0x0064b78c      4e76           trapv
     > 0x0064b78e      defc0014       adda.w 0x14, a7
         0x0064b792      514f           subq.w 0x8, a7
         0x0064b794      1f2c000e       move.b 0xe(a4), -(a7)
         0x0064b798      2f2e000a       move.l 0xa(a6), -(a7)
         0x0064b79c      1f2e0008       move.b 0x8(a6), -(a7)
         0x0064b7a0      4eb900660596   jsr K95_CARDS.k95_get_lib_ite
         0x0064b7a6      504f           addq.w 0x8, a7
         0x0064b7a8      2d5f000e       move.l (a7)+, 0xe(a6)
         0x0064b7ac      2d5f0012       move.l (a7)+, 0x12(a6)
         0x0064b7b0      4e5e           unlk a6
         0x0064b7b2      4e75           rts
          ; XREFS: CALL 0x00646936  CALL 0x00646a3e  CALL 0x00647234  
          ; XREFS: CALL 0x0064ba1a  CALL 0x0064ba40  CALL 0x0066003e  
          ; XREFS: CALL 0x00751b00  CALL 0x00757eb4  CALL 0x007592a4  
 148: K9_LIBRARY.k9_clear_screen ();
         0x0064b7b4      4e56ffc4       link.w a6, 0xffc4
         0x0064b7b8      bfd5           cmpa.l (a5), a7
     < 0x0064b7ba      6206           bhi.b 0x64b7c2
        0x0064b7bc      44fc0002       move.w 0x2, ccr
        0x0064b7c0      4e76           trapv
     > 0x0064b7c2      defc0038       adda.w 0x38, a7
         0x0064b7c6      48e7d9e8       movem.l d0-d1/d3-d4/d7/a0-a2/a4, -(a7)
         0x0064b7ca      45f900847e42   lea.l 0x847e42, a2
         0x0064b7d0      1f2e000a       move.b 0xa(a6), -(a7)
         0x0064b7d4      1f2e0008       move.b 0x8(a6), -(a7)
         0x0064b7d8      594f           subq.w 0x4, a7
         0x0064b7da      1f2e000a       move.b 0xa(a6), -(a7)
         0x0064b7de      4eb900643240   jsr K9_LIBRARY.get_display_max
         0x0064b7e4      544f           addq.w 0x2, a7
         0x0064b7e6      486efffc       pea.l -0x4(a6)
         0x0064b7ea      487aff94       pea.l K9_LIBRARY.get_item_area(pc)
         0x0064b7ee      4eb90065a8d2   jsr K92_DISPLAY.k92_clr_screen
         0x0064b7f4      defc0010       adda.w 0x10, a7
         0x0064b7f8      1012           move.b (a2), d0
         0x0064b7fa      4880           ext.w d0
         0x0064b7fc      c1fc02d0       muls.w 0x2d0, d0
         0x0064b800      41f900847e32   lea.l 0x847e32, a0
         0x0064b806      7e01           moveq 0x1, d7
     > 0x0064b808      2207           move.l d7, d1
        0x0064b80a      5381           subq.l 0x1, d1
        0x0064b80c      0c810000000b   cmpi.l 0xb, d1
    < 0x0064b812      6302           bls.b 0x64b816
       0x0064b814      4e4f           trap 0xf
    > 0x0064b816      2801           move.l d1, d4
        0x0064b818      761e           moveq 0x1e, d3
        0x0064b81a      4eb900406a74   jsr fcn.00406a74
        0x0064b820      43f00012       lea.l 0x12(a0, d0.w), a1
        0x0064b824      4231485f       clr.b 0x5f(a1, d4.l)
        0x0064b828      5287           addq.l 0x1, d7
        0x0064b82a      0c870000000c   cmpi.l 0xc, d7
     < 0x0064b830      6fd6           ble.b 0x64b808
         0x0064b832      1012           move.b (a2), d0
         0x0064b834      0c000001       cmpi.b 0x1, d0
     < 0x0064b838      6606           bne.b 0x64b840
        0x0064b83a      4eb9005b7aca   jsr HENRY_DUMMY.clear_browse_cl
     > 0x0064b840      4cdf179b       movem.l (a7)+, d0-d1/d3-d4/d7/a0-a2/a4
         0x0064b844      4e5e           unlk a6
         0x0064b846      4e75           rts
          ; CALL XREFS from K9_LIBRARY.k9_show_display @ 0x64ba28, 0x64ba4a
 130: K9_LIBRARY.show_display_ti ();
         0x0064b848      4e56ffe0       link.w a6, 0xffe0
         0x0064b84c      bfd5           cmpa.l (a5), a7
     < 0x0064b84e      6206           bhi.b 0x64b856
        0x0064b850      44fc0002       move.w 0x2, ccr
        0x0064b854      4e76           trapv
     > 0x0064b856      defc001c       adda.w 0x1c, a7
         0x0064b85a      48e78080       movem.l d0/a0, -(a7)
         0x0064b85e      103900847e42   move.b 0x847e42, d0
         0x0064b864      4880           ext.w d0
         0x0064b866      c1fc02d0       muls.w 0x2d0, d0
         0x0064b86a      41f900847e32   lea.l 0x847e32, a0
         0x0064b870      2d7900847e3a.  move.l 0x847e3a, -0x4(a6)
         0x0064b878      4a2c0012       tst.b 0x12(a4)
     < 0x0064b87c      6726           beq.b 0x64b8a4
        0x0064b87e      302efffe       move.w -0x2(a6), d0
        0x0064b882      48c0           ext.l d0
        0x0064b884      048000000080   subi.l 0x80, d0
        0x0064b88a      0480ffff8000   subi.l 0xffff8000, d0
        0x0064b890      0c800000ffff   cmpi.l 0xffff, d0
    < 0x0064b896      6302           bls.b 0x64b89a
       0x0064b898      4e4f           trap 0xf
    > 0x0064b89a      0680ffff8000   addi.l 0xffff8000, d0
        0x0064b8a0      3d40fffe       move.w d0, -0x2(a6)
     > 0x0064b8a4      1f3c0001       move.b 0x1, -(a7)
         0x0064b8a8      2f2efffc       move.l -0x4(a6), -(a7)
         0x0064b8ac      514f           subq.w 0x8, a7
         0x0064b8ae      4227           clr.b -(a7)
         0x0064b8b0      4eb9006336ea   jsr HANDCOM.get_area
         0x0064b8b6      544f           addq.w 0x2, a7
         0x0064b8b8      4eb90065ab58   jsr K92_DISPLAY.k92_lib_display
         0x0064b8be      defc000e       adda.w 0xe, a7
         0x0064b8c2      4cdf0101       movem.l (a7)+, d0/a0
         0x0064b8c6      4e5e           unlk a6
         0x0064b8c8      4e75           rts
          ; CALL XREF from K9_LIBRARY.k9_show_display @ 0x64ba32
 56: K9_LIBRARY.show_main_pic ();
         0x0064b8ca      4e56ffec       link.w a6, 0xffec
         0x0064b8ce      bfd5           cmpa.l (a5), a7
     < 0x0064b8d0      6206           bhi.b 0x64b8d8
        0x0064b8d2      44fc0002       move.w 0x2, ccr
        0x0064b8d6      4e76           trapv
     > 0x0064b8d8      defc0014       adda.w 0x14, a7
         0x0064b8dc      4227           clr.b -(a7)
         0x0064b8de      594f           subq.w 0x4, a7
         0x0064b8e0      4227           clr.b -(a7)
         0x0064b8e2      4eb9006338f6   jsr HANDCOM.get_point
         0x0064b8e8      5d4f           subq.w 0x6, a7
         0x0064b8ea      4227           clr.b -(a7)
         0x0064b8ec      4eb9006336ea   jsr HANDCOM.get_area
         0x0064b8f2      544f           addq.w 0x2, a7
         0x0064b8f4      4eb90065ab58   jsr K92_DISPLAY.k92_lib_display
         0x0064b8fa      defc000e       adda.w 0xe, a7
         0x0064b8fe      4e5e           unlk a6
         0x0064b900      4e75           rts
 146: K9_LIBRARY.info_filecard ();
         0x0064b902      4e56fec2       link.w a6, 0xfec2
         0x0064b906      bfd5           cmpa.l (a5), a7
     < 0x0064b908      6206           bhi.b 0x64b910
        0x0064b90a      44fc0002       move.w 0x2, ccr
        0x0064b90e      4e76           trapv
     > 0x0064b910      defc013e       adda.w 0x13e, a7
         0x0064b914      48e7e080       movem.l d0-d2/a0, -(a7)
         0x0064b918      7403           moveq 0x3, d2
         0x0064b91a      103900847e42   move.b 0x847e42, d0
         0x0064b920      4880           ext.w d0
         0x0064b922      c1fc02d0       muls.w 0x2d0, d0
         0x0064b926      41f900847e32   lea.l 0x847e32, a0
         0x0064b92c      2f300036       move.l 0x36(a0, d0.w), -(a7)
         0x0064b930      514f           subq.w 0x8, a7
         0x0064b932      1f02           move.b d2, -(a7)
         0x0064b934      48780000       pea.l 0x0
         0x0064b938      1f3c0001       move.b 0x1, -(a7)
         0x0064b93c      4eb900660596   jsr K95_CARDS.k95_get_lib_ite
         0x0064b942      1f02           move.b d2, -(a7)
         0x0064b944      48780000       pea.l 0x0
         0x0064b948      4227           clr.b -(a7)
         0x0064b94a      4eb900660596   jsr K95_CARDS.k95_get_lib_ite
         0x0064b950      504f           addq.w 0x8, a7
         0x0064b952      1230003a       move.b 0x3a(a0, d0.w), d1
         0x0064b956      4881           ext.w d1
         0x0064b958      43bc0019       chk.w 0x19, d1
         0x0064b95c      1f01           move.b d1, -(a7)
         0x0064b95e      9efc0100       suba.w 0x100, a7
         0x0064b962      2f300044       move.l 0x44(a0, d0.w), -(a7)
         0x0064b966      4eb9006431aa   jsr K9_LIBRARY.pick_message
         0x0064b96c      554f           subq.w 0x2, a7
         0x0064b96e      3f3c002a       move.w 0x2a, -(a7)
         0x0064b972      4eb900481196   jsr MENUCOM.get_boxcol
         0x0064b978      544f           addq.w 0x2, a7
         0x0064b97a      4870004a       pea.l 0x4a(a0, d0.w)
         0x0064b97e      4870004e       pea.l 0x4e(a0, d0.w)
         0x0064b982      4eb900658382   jsr K92_DISPLAY.k92_info_draw
         0x0064b988      defc0124       adda.w 0x124, a7
         0x0064b98c      4cdf0107       movem.l (a7)+, d0-d2/a0
         0x0064b990      4e5e           unlk a6
         0x0064b992      4e75           rts
          ; XREFS(21)
 210: K9_LIBRARY.k9_show_display ();
         0x0064b994      4e56ffba       link.w a6, 0xffba
         0x0064b998      bfd5           cmpa.l (a5), a7
     < 0x0064b99a      6206           bhi.b 0x64b9a2
        0x0064b99c      44fc0002       move.w 0x2, ccr
        0x0064b9a0      4e76           trapv
     > 0x0064b9a2      defc003c       adda.w 0x3c, a7
         0x0064b9a6      48e7f9e8       movem.l d0-d4/d7/a0-a2/a4, -(a7)
         0x0064b9aa      45ee000a       lea.l 0xa(a6), a2
         0x0064b9ae      7401           moveq 0x1, d2
         0x0064b9b0      7602           moveq 0x2, d3
         0x0064b9b2      7803           moveq 0x3, d4
         0x0064b9b4      103900847e42   move.b 0x847e42, d0
         0x0064b9ba      4880           ext.w d0
         0x0064b9bc      c1fc02d0       muls.w 0x2d0, d0
         0x0064b9c0      41f900847e32   lea.l 0x847e32, a0
         0x0064b9c6      7e00           moveq 0x0, d7
         0x0064b9c8      12300034       move.b 0x34(a0, d0.w), d1
         0x0064b9cc      b212           cmp.b (a2), d1
     < 0x0064b9ce      6702           beq.b 0x64b9d2
        0x0064b9d0      5207           addq.b 0x1, d7
     > 0x0064b9d2      1212           move.b (a2), d1
         0x0064b9d4      4881           ext.w d1
         0x0064b9d6      033900642eca   btst.l d1, 0x642eca
     < 0x0064b9dc      6608           bne.b 0x64b9e6
        0x0064b9de      43f00012       lea.l 0x12(a0, d0.w), a1
        0x0064b9e2      134201c9       move.b d2, 0x1c9(a1)
     > 0x0064b9e6      11810034       move.b d1, 0x34(a0, d0.w)
         0x0064b9ea      b243           cmp.w d3, d1
     < 0x0064b9ec      6d0c           blt.b 0x64b9fa
        0x0064b9ee      b243           cmp.w d3, d1
    < 0x0064b9f0      6d06           blt.b 0x64b9f8
       0x0064b9f2      0c410006       cmpi.w 0x6, d1
   < 0x0064b9f6      6f40           ble.b 0x64ba38
   > 0x0064b9f8      4e4e           trap 0xe
    > 0x0064b9fa      4a41           tst.w d1
    < 0x0064b9fc      6706           beq.b 0x64ba04
       0x0064b9fe      b242           cmp.w d2, d1
   < 0x0064ba00      672c           beq.b 0x64ba2e
      0x0064ba02      4e4e           trap 0xe
   > 0x0064ba04      43f00012       lea.l 0x12(a0, d0.w), a1
       0x0064ba08      4a2901c9       tst.b 0x1c9(a1)
   < 0x0064ba0c      6716           beq.b 0x64ba24
      0x0064ba0e      12290020       move.b 0x20(a1), d1
      0x0064ba12      4881           ext.w d1
      0x0064ba14      4384           chk.w d4, d1
      0x0064ba16      1f01           move.b d1, -(a7)
      0x0064ba18      1f02           move.b d2, -(a7)
      0x0064ba1a      4ebafd98       jsr K9_LIBRARY.k9_clear_screen(pc)
      0x0064ba1e      584f           addq.w 0x4, a7
      0x0064ba20      422901c9       clr.b 0x1c9(a1)
   > 0x0064ba24      49eefff6       lea.l -0xa(a6), a4
       0x0064ba28      4ebafe1e       jsr K9_LIBRARY.show_display_ti(pc)
   < 0x0064ba2c      605e           bra.b loc.0064ba8c
   > 0x0064ba2e      4a07           tst.b d7
   < 0x0064ba30      6704           beq.b 0x64ba36
      0x0064ba32      4ebafe96       jsr K9_LIBRARY.show_main_pic(pc)
  > 0x0064ba36      6054           bra.b loc.0064ba8c
  > 0x0064ba38      4a07           tst.b d7
   < 0x0064ba3a      670a           beq.b 0x64ba46
      0x0064ba3c      1f04           move.b d4, -(a7)
      0x0064ba3e      1f02           move.b d2, -(a7)
      0x0064ba40      4ebafd72       jsr K9_LIBRARY.k9_clear_screen(pc)
      0x0064ba44      584f           addq.w 0x4, a7
   > 0x0064ba46      49eefff6       lea.l -0xa(a6), a4
       0x0064ba4a      4ebafdfc       jsr K9_LIBRARY.show_display_ti(pc)
       0x0064ba4e      1212           move.b (a2), d1
       0x0064ba50      4881           ext.w d1
       0x0064ba52      5541           subq.w 0x2, d1
       0x0064ba54      0c410004       cmpi.w 0x4, d1
   < 0x0064ba58      6302           bls.b 0x64ba5c
      0x0064ba5a      4e4e           trap 0xe
   > 0x0064ba5c      d241           add.w d1, d1
       0x0064ba5e      323b1006       move.w 0x64ba66(pc, d1.w), d1
       0x0064ba62      4efb1002       jmp 0x64ba66(pc, d1.w)
        0x0064ba66      000a0016       
        0x0064ba67      0a001600       eori.b 0x0, d0
        0x0064ba6b      1a00           move.b d0, d5
        0x0064ba6d      1e00           move.b d0, d7
        0x0064ba6f      221f           move.l (a7)+, d1
        0x0064ba71      024eb900       
  > 0x0064ba72      4eb900663a12   jsr K95_CARDS.k95_spec_fileca
     0x0064ba78      544f           addq.w 0x2, a7
  < 0x0064ba7a      6010           bra.b loc.0064ba8c
     0x0064ba7c      4227           clr.b -(a7)
  < 0x0064ba7e      60f2           bra.b 0x64ba72
      0x0064ba80      1f03           move.b d3, -(a7)
   < 0x0064ba82      60ee           bra.b 0x64ba72
       0x0064ba84      1f04           move.b d4, -(a7)
    < 0x0064ba86      60ea           bra.b 0x64ba72
        0x0064ba88      4ebafe78       jsr K9_LIBRARY.info_filecard(pc)
        ; CODE XREFS from K9_LIBRARY.k9_show_display @ 0x64ba2c, 0x64ba36
 8: loc.0064ba8c ();
 > 0x0064ba8c      4cdf179f       movem.l (a7)+, d0-d4/d7/a0-a2/a4
         0x0064ba90      4e5e           unlk a6
         0x0064ba92      4e75           rts
          ; XREFS: CALL 0x00496b9c  CALL 0x004ee620  CALL 0x0064d9e0  
          ; XREFS: CALL 0x006503aa  CALL 0x00665bf2  CALL 0x006d28c4  
 58: K9_LIBRARY.k9_store_corrup ();
         0x0064ba94      4e56fff4       link.w a6, 0xfff4
         0x0064ba98      bfd5           cmpa.l (a5), a7
     < 0x0064ba9a      6206           bhi.b 0x64baa2
        0x0064ba9c      44fc0002       move.w 0x2, ccr
        0x0064baa0      4e76           trapv
     > 0x0064baa2      defc000c       adda.w 0xc, a7
         0x0064baa6      48e78080       movem.l d0/a0, -(a7)
         0x0064baaa      103900847e42   move.b 0x847e42, d0
         0x0064bab0      4880           ext.w d0
         0x0064bab2      c1fc02d0       muls.w 0x2d0, d0
         0x0064bab6      41f900847e32   lea.l 0x847e32, a0
         0x0064babc      41f00000       lea.l (a0, d0.w), a0
         0x0064bac0      117c000101db   move.b 0x1, 0x1db(a0)
         0x0064bac6      4cdf0101       movem.l (a7)+, d0/a0
         0x0064baca      4e5e           unlk a6
         0x0064bacc      4e75           rts
          ; CALL XREF from MENULIBCOM.do_sklr @ 0x751aee
          ; CALL XREF from MENULIBFNDCOM.hit_redisplay @ 0x7592c8
 108: K9_LIBRARY.k9_set_display_ ();
         0x0064bace      4e56ffda       link.w a6, 0xffda
         0x0064bad2      bfd5           cmpa.l (a5), a7
     < 0x0064bad4      6206           bhi.b 0x64badc
        0x0064bad6      44fc0002       move.w 0x2, ccr
        0x0064bada      4e76           trapv
     > 0x0064badc      defc0024       adda.w 0x24, a7
         0x0064bae0      48e7e180       movem.l d0-d2/d7/a0, -(a7)
         0x0064bae4      740c           moveq 0xc, d2
         0x0064bae6      103900847e42   move.b 0x847e42, d0
         0x0064baec      4880           ext.w d0
         0x0064baee      c1fc02d0       muls.w 0x2d0, d0
         0x0064baf2      41f900847e32   lea.l 0x847e32, a0
         0x0064baf8      12300032       move.b 0x32(a0, d0.w), d1
         0x0064bafc      b22e000a       cmp.b 0xa(a6), d1
     < 0x0064bb00      6704           beq.b 0x64bb06
        0x0064bb02      7e0b           moveq 0xb, d7
    < 0x0064bb04      6002           bra.b 0x64bb08
    > 0x0064bb06      7e0c           moveq 0xc, d7
    > 0x0064bb08      11ae000a0032   move.b 0xa(a6), 0x32(a0, d0.w)
         0x0064bb0e      1f300034       move.b 0x34(a0, d0.w), -(a7)
         0x0064bb12      1f2e0008       move.b 0x8(a6), -(a7)
         0x0064bb16      4ebafe7c       jsr K9_LIBRARY.k9_show_display(pc)
         0x0064bb1a      584f           addq.w 0x4, a7
         0x0064bb1c      4887           ext.w d7
         0x0064bb1e      4f82           chk.w d2, d7
         0x0064bb20      1f07           move.b d7, -(a7)
         0x0064bb22      48780000       pea.l 0x0
         0x0064bb26      4227           clr.b -(a7)
         0x0064bb28      486effff       pea.l -0x1(a6)
         0x0064bb2c      4ebaac74       jsr K9_LIBRARY.cmd_handler(pc)
         0x0064bb30      dec2           adda.w d2, a7
         0x0064bb32      4cdf0187       movem.l (a7)+, d0-d2/d7/a0
         0x0064bb36      4e5e           unlk a6
         0x0064bb38      4e75           rts
          ; CALL XREF from K9_LIBRARY.k9_wipe_field @ 0x64bdde
          ; CALL XREF from K9_LIBRARY.k9_card_line @ 0x64be68
 642: K9_LIBRARY.k9_field_area ();
         ; var int32_t var_1ah @ a6-0x1a
         ; var int32_t var_16h @ a6-0x16
         ; var int32_t var_ch @ a6-0xc
         ; var int32_t var_2h @ a6-0x2
         0x0064bb3a      4e56ff8c       link.w a6, 0xff8c
         0x0064bb3e      bfd5           cmpa.l (a5), a7
     < 0x0064bb40      6206           bhi.b 0x64bb48
        0x0064bb42      44fc0002       move.w 0x2, ccr
        0x0064bb46      4e76           trapv
     > 0x0064bb48      defc005a       adda.w 0x5a, a7
         0x0064bb4c      48e7fff8       movem.l d0-d7/a0-a4, -(a7)
         0x0064bb50      43f80000       lea.l 0x0, a1
         0x0064bb54      45f9004047ea   lea.l p_wts_o, a2
         0x0064bb5a      47eefff2       lea.l -0xe(a6), a3
         0x0064bb5e      49eeffee       lea.l -0x12(a6), a4
         0x0064bb62      2e3cffff8000   move.l 0xffff8000, d7
         0x0064bb68      103900847e42   move.b 0x847e42, d0
         0x0064bb6e      4880           ext.w d0
         0x0064bb70      c1fc02d0       muls.w 0x2d0, d0
         0x0064bb74      41f900847e32   lea.l 0x847e32, a0
         0x0064bb7a      514f           subq.w 0x8, a7
         0x0064bb7c      1f3c0003       move.b 0x3, -(a7)
         0x0064bb80      4851           pea.l (a1)
         0x0064bb82      4227           clr.b -(a7)
         0x0064bb84      4eb900660596   jsr K95_CARDS.k95_get_lib_ite
         0x0064bb8a      504f           addq.w 0x8, a7
         0x0064bb8c      289f           move.l (a7)+, (a4)
         0x0064bb8e      269f           move.l (a7)+, (a3)
         0x0064bb90      3d53fff6       move.w (a3), -0xa(a6)
         0x0064bb94      3d6efff4fff8   move.w -0xc(a6), -0x8(a6)
         0x0064bb9a      1f2e0008       move.b 0x8(a6), -(a7)
         0x0064bb9e      2f2efff6       move.l -0xa(a6), -(a7)
         0x0064bba2      12300032       move.b 0x32(a0, d0.w), d1
         0x0064bba6      4881           ext.w d1
         0x0064bba8      43bc0003       chk.w 0x3, d1
         0x0064bbac      1f01           move.b d1, -(a7)
         0x0064bbae      12300034       move.b 0x34(a0, d0.w), d1
         0x0064bbb2      4881           ext.w d1
         0x0064bbb4      43bc0006       chk.w 0x6, d1
         0x0064bbb8      1f01           move.b d1, -(a7)
         0x0064bbba      486efffa       pea.l -0x6(a6)
         0x0064bbbe      486efffe       pea.l -0x2(a6)
         0x0064bbc2      4eb90065945a   jsr K92_DISPLAY.k92_field_info
         0x0064bbc8      defc0012       adda.w 0x12, a7
         0x0064bbcc      3214           move.w (a4), d1
         0x0064bbce      48c1           ext.l d1
         0x0064bbd0      342efffa       move.w -0x6(a6), d2
         0x0064bbd4      48c2           ext.l d2
         0x0064bbd6      d282           add.l d2, d1
         0x0064bbd8      9287           sub.l d7, d1
         0x0064bbda      0c810000ffff   cmpi.l 0xffff, d1
     < 0x0064bbe0      6302           bls.b 0x64bbe4
        0x0064bbe2      4e4f           trap 0xf
     > 0x0064bbe4      d287           add.l d7, d1
         0x0064bbe6      3d41ffe6       move.w d1, -0x1a(a6)
         0x0064bbea      322efff0       move.w -0x10(a6), d1
         0x0064bbee      48c1           ext.l d1
         0x0064bbf0      362efffc       move.w -0x4(a6), d3
         0x0064bbf4      48c3           ext.l d3
         0x0064bbf6      d681           add.l d1, d3
         0x0064bbf8      9687           sub.l d7, d3
         0x0064bbfa      0c830000ffff   cmpi.l 0xffff, d3
     < 0x0064bc00      6302           bls.b 0x64bc04
        0x0064bc02      4e4f           trap 0xf
     > 0x0064bc04      d687           add.l d7, d3
         0x0064bc06      3d43ffe8       move.w d3, -0x18(a6)
         0x0064bc0a      3213           move.w (a3), d1
         0x0064bc0c      48c1           ext.l d1
         0x0064bc0e      4482           neg.l d2
         0x0064bc10      d481           add.l d1, d2
         0x0064bc12      9487           sub.l d7, d2
         0x0064bc14      0c820000ffff   cmpi.l 0xffff, d2
     < 0x0064bc1a      6302           bls.b 0x64bc1e
        0x0064bc1c      4e4f           trap 0xf
     > 0x0064bc1e      d487           add.l d7, d2
         0x0064bc20      3d42ffea       move.w d2, -0x16(a6)
         0x0064bc24      3d6efffeffec   move.w -0x2(a6), -0x14(a6)
         0x0064bc2a      322effe8       move.w -0x18(a6), d1
         0x0064bc2e      48c1           ext.l d1
         0x0064bc30      342effec       move.w -0x14(a6), d2
         0x0064bc34      48c2           ext.l d2
         0x0064bc36      2601           move.l d1, d3
         0x0064bc38      d682           add.l d2, d3
         0x0064bc3a      382efff4       move.w -0xc(a6), d4
         0x0064bc3e      48c4           ext.l d4
         0x0064bc40      3a2efff0       move.w -0x10(a6), d5
         0x0064bc44      48c5           ext.l d5
         0x0064bc46      2c04           move.l d4, d6
         0x0064bc48      dc85           add.l d5, d6
         0x0064bc4a      b686           cmp.l d6, d3
     < 0x0064bc4c      6f00015a       ble.w 0x64bda8
        0x0064bc50      487900642f5b   pea.l 0x642f5b
        0x0064bc56      4878002d       pea.l 0x2d
        0x0064bc5a      2f17           move.l (a7), -(a7)
        0x0064bc5c      4e92           jsr (a2)                    ; fcn.00000009+0x2
        0x0064bc5e      defc000c       adda.w 0xc, a7
        0x0064bc62      4eb900404946   jsr p_wtln_o
        0x0064bc68      487900642f89   pea.l 0x642f89
        0x0064bc6e      4878000c       pea.l 0xc
        0x0064bc72      2f17           move.l (a7), -(a7)
        0x0064bc74      4e92           jsr (a2)                    ; fcn.00000009+0x2
        0x0064bc76      defc000c       adda.w 0xc, a7
        0x0064bc7a      3614           move.w (a4), d3
        0x0064bc7c      48c3           ext.l d3
        0x0064bc7e      2f03           move.l d3, -(a7)
        0x0064bc80      4851           pea.l (a1)
        0x0064bc82      4eb9004070e4   jsr p_wti_o
        0x0064bc88      504f           addq.w 0x8, a7
        0x0064bc8a      487900642f96   pea.l 0x642f96
        0x0064bc90      48780002       pea.l 0x2
        0x0064bc94      2f17           move.l (a7), -(a7)
        0x0064bc96      4e92           jsr (a2)                    ; fcn.00000009+0x2
        0x0064bc98      504f           addq.w 0x8, a7
        0x0064bc9a      2e85           move.l d5, (a7)
        0x0064bc9c      4851           pea.l (a1)
        0x0064bc9e      4eb9004070e4   jsr p_wti_o
        0x0064bca4      504f           addq.w 0x8, a7
        0x0064bca6      487900642f99   pea.l 0x642f99
        0x0064bcac      48780002       pea.l 0x2
        0x0064bcb0      2f17           move.l (a7), -(a7)
        0x0064bcb2      4e92           jsr (a2)                    ; fcn.00000009+0x2
        0x0064bcb4      defc000c       adda.w 0xc, a7
        0x0064bcb8      3613           move.w (a3), d3
        0x0064bcba      48c3           ext.l d3
        0x0064bcbc      2f03           move.l d3, -(a7)
        0x0064bcbe      4851           pea.l (a1)
        0x0064bcc0      4eb9004070e4   jsr p_wti_o
        0x0064bcc6      504f           addq.w 0x8, a7
        0x0064bcc8      487900642f9c   pea.l 0x642f9c
        0x0064bcce      48780002       pea.l 0x2
        0x0064bcd2      2f17           move.l (a7), -(a7)
        0x0064bcd4      4e92           jsr (a2)                    ; fcn.00000009+0x2
        0x0064bcd6      504f           addq.w 0x8, a7
        0x0064bcd8      2e84           move.l d4, (a7)
        0x0064bcda      4851           pea.l (a1)
        0x0064bcdc      4eb9004070e4   jsr p_wti_o
        0x0064bce2      5c4f           addq.w 0x6, a7
        0x0064bce4      1ebc0029       move.b 0x29, (a7)
        0x0064bce8      48780001       pea.l 0x1
        0x0064bcec      4eb9004048b4   jsr p_wtc_o
        0x0064bcf2      5c4f           addq.w 0x6, a7
        0x0064bcf4      4eb900404946   jsr p_wtln_o
        0x0064bcfa      487900642f9f   pea.l 0x642f9f
        0x0064bd00      4878000d       pea.l 0xd
        0x0064bd04      2f17           move.l (a7), -(a7)
        0x0064bd06      4e92           jsr (a2)                    ; fcn.00000009+0x2
        0x0064bd08      defc000c       adda.w 0xc, a7
        0x0064bd0c      362effe6       move.w -0x1a(a6), d3
        0x0064bd10      48c3           ext.l d3
        0x0064bd12      2f03           move.l d3, -(a7)
        0x0064bd14      4851           pea.l (a1)
        0x0064bd16      4eb9004070e4   jsr p_wti_o
        0x0064bd1c      504f           addq.w 0x8, a7
        0x0064bd1e      487900642fad   pea.l 0x642fad
        0x0064bd24      48780002       pea.l 0x2
        0x0064bd28      2f17           move.l (a7), -(a7)
        0x0064bd2a      4e92           jsr (a2)                    ; fcn.00000009+0x2
        0x0064bd2c      504f           addq.w 0x8, a7
        0x0064bd2e      2e81           move.l d1, (a7)
        0x0064bd30      4851           pea.l (a1)
        0x0064bd32      4eb9004070e4   jsr p_wti_o
        0x0064bd38      504f           addq.w 0x8, a7
        0x0064bd3a      487900642fb0   pea.l 0x642fb0
        0x0064bd40      48780002       pea.l 0x2
        0x0064bd44      2f17           move.l (a7), -(a7)
        0x0064bd46      4e92           jsr (a2)                    ; fcn.00000009+0x2
        0x0064bd48      defc000c       adda.w 0xc, a7
        0x0064bd4c      362effea       move.w -0x16(a6), d3
        0x0064bd50      48c3           ext.l d3
        0x0064bd52      2f03           move.l d3, -(a7)
        0x0064bd54      4851           pea.l (a1)
        0x0064bd56      4eb9004070e4   jsr p_wti_o
        0x0064bd5c      504f           addq.w 0x8, a7
        0x0064bd5e      487900642fb3   pea.l 0x642fb3
        0x0064bd64      48780002       pea.l 0x2
        0x0064bd68      2f17           move.l (a7), -(a7)
        0x0064bd6a      4e92           jsr (a2)                    ; fcn.00000009+0x2
        0x0064bd6c      504f           addq.w 0x8, a7
        0x0064bd6e      2e82           move.l d2, (a7)
        0x0064bd70      4851           pea.l (a1)
        0x0064bd72      4eb9004070e4   jsr p_wti_o
        0x0064bd78      5c4f           addq.w 0x6, a7
        0x0064bd7a      1ebc0029       move.b 0x29, (a7)
        0x0064bd7e      48780001       pea.l 0x1
        0x0064bd82      4eb9004048b4   jsr p_wtc_o
        0x0064bd88      5c4f           addq.w 0x6, a7
        0x0064bd8a      4eb900404946   jsr p_wtln_o
        0x0064bd90      2605           move.l d5, d3
        0x0064bd92      d684           add.l d4, d3
        0x0064bd94      9681           sub.l d1, d3
        0x0064bd96      9687           sub.l d7, d3
        0x0064bd98      0c830000ffff   cmpi.l 0xffff, d3
    < 0x0064bd9e      6302           bls.b 0x64bda2
       0x0064bda0      4e4f           trap 0xf
    > 0x0064bda2      d687           add.l d7, d3
        0x0064bda4      3d43ffec       move.w d3, -0x14(a6)
     > 0x0064bda8      2d6effe6000a   move.l -0x1a(a6), 0xa(a6)
         0x0064bdae      2d6effea000e   move.l -0x16(a6), 0xe(a6)
         0x0064bdb4      4cdf1fff       movem.l (a7)+, d0-d7/a0-a4
         0x0064bdb8      4e5e           unlk a6
         0x0064bdba      4e75           rts
 144: K9_LIBRARY.k9_wipe_field ();
         0x0064bdbc      4e56ffde       link.w a6, 0xffde
         0x0064bdc0      bfd5           cmpa.l (a5), a7
     < 0x0064bdc2      6206           bhi.b 0x64bdca
        0x0064bdc4      44fc0002       move.w 0x2, ccr
        0x0064bdc8      4e76           trapv
     > 0x0064bdca      defc001a       adda.w 0x1a, a7
         0x0064bdce      48e7c000       movem.l d0-d1, -(a7)
         0x0064bdd2      223cffff8000   move.l 0xffff8000, d1
         0x0064bdd8      514f           subq.w 0x8, a7
         0x0064bdda      1f2e000e       move.b 0xe(a6), -(a7)
         0x0064bdde      4ebafd5a       jsr K9_LIBRARY.k9_field_area(pc)
         0x0064bde2      544f           addq.w 0x2, a7
         0x0064bde4      2d5ffff8       move.l (a7)+, -0x8(a6)
         0x0064bde8      2d5ffffc       move.l (a7)+, -0x4(a6)
         0x0064bdec      102e000e       move.b 0xe(a6), d0
         0x0064bdf0      0c000008       cmpi.b 0x8, d0
     < 0x0064bdf4      6634           bne.b 0x64be2a
        0x0064bdf6      302efffa       move.w -0x6(a6), d0
        0x0064bdfa      48c0           ext.l d0
        0x0064bdfc      5380           subq.l 0x1, d0
        0x0064bdfe      9081           sub.l d1, d0
        0x0064be00      0c800000ffff   cmpi.l 0xffff, d0
    < 0x0064be06      6302           bls.b 0x64be0a
       0x0064be08      4e4f           trap 0xf
    > 0x0064be0a      d081           add.l d1, d0
        0x0064be0c      3d40fffa       move.w d0, -0x6(a6)
        0x0064be10      302efffe       move.w -0x2(a6), d0
        0x0064be14      48c0           ext.l d0
        0x0064be16      5280           addq.l 0x1, d0
        0x0064be18      9081           sub.l d1, d0
        0x0064be1a      0c800000ffff   cmpi.l 0xffff, d0
    < 0x0064be20      6302           bls.b 0x64be24
       0x0064be22      4e4f           trap 0xf
    > 0x0064be24      d081           add.l d1, d0
        0x0064be26      3d40fffe       move.w d0, -0x2(a6)
     > 0x0064be2a      2f2efffc       move.l -0x4(a6), -(a7)
         0x0064be2e      2f2efff8       move.l -0x8(a6), -(a7)
         0x0064be32      2f2e000a       move.l 0xa(a6), -(a7)
         0x0064be36      3f2e0008       move.w 0x8(a6), -(a7)
         0x0064be3a      4eb90065aa44   jsr K92_DISPLAY.k92_wipe_field
         0x0064be40      defc000e       adda.w 0xe, a7
         0x0064be44      4cdf0003       movem.l (a7)+, d0-d1
         0x0064be48      4e5e           unlk a6
         0x0064be4a      4e75           rts
 86: K9_LIBRARY.k9_card_line ();
         0x0064be4c      4e56ffd6       link.w a6, 0xffd6
         0x0064be50      bfd5           cmpa.l (a5), a7
     < 0x0064be52      6206           bhi.b 0x64be5a
        0x0064be54      44fc0002       move.w 0x2, ccr
        0x0064be58      4e76           trapv
     > 0x0064be5a      defc002a       adda.w 0x2a, a7
         0x0064be5e      48e78080       movem.l d0/a0, -(a7)
         0x0064be62      514f           subq.w 0x8, a7
         0x0064be64      1f2e001a       move.b 0x1a(a6), -(a7)
         0x0064be68      4ebafcd0       jsr K9_LIBRARY.k9_field_area(pc)
         0x0064be6c      544f           addq.w 0x2, a7
         0x0064be6e      302e0018       move.w 0x18(a6), d0
         0x0064be72      48c0           ext.l d0
         0x0064be74      2f00           move.l d0, -(a7)
         0x0064be76      302e0016       move.w 0x16(a6), d0
         0x0064be7a      48c0           ext.l d0
         0x0064be7c      2f00           move.l d0, -(a7)
         0x0064be7e      206e0012       movea.l 0x12(a6), a0
         0x0064be82      4850           pea.l (a0)
         0x0064be84      2f2e000e       move.l 0xe(a6), -(a7)
         0x0064be88      3f2e000c       move.w 0xc(a6), -(a7)
         0x0064be8c      2f2e0008       move.l 0x8(a6), -(a7)
         0x0064be90      4eb9006552ae   jsr K92_DISPLAY.k92_card_line
         0x0064be96      defc001e       adda.w 0x1e, a7
         0x0064be9a      4cdf0101       movem.l (a7)+, d0/a0
         0x0064be9e      4e5e           unlk a6
         0x0064bea0      4e75           rts
          ; CALL XREF from MENULIBFNDCOM.hit_item @ 0x759992
 96: K9_LIBRARY.k9_isan_item ();
         0x0064bea2      4e56ffe2       link.w a6, 0xffe2
         0x0064bea6      bfd5           cmpa.l (a5), a7
     < 0x0064bea8      6206           bhi.b 0x64beb0
        0x0064beaa      44fc0002       move.w 0x2, ccr
        0x0064beae      4e76           trapv
     > 0x0064beb0      defc001e       adda.w 0x1e, a7
         0x0064beb4      48e7d880       movem.l d0-d1/d3-d4/a0, -(a7)
         0x0064beb8      422e000c       clr.b 0xc(a6)
         0x0064bebc      103900847e42   move.b 0x847e42, d0
         0x0064bec2      4880           ext.w d0
         0x0064bec4      c1fc02d0       muls.w 0x2d0, d0
         0x0064bec8      222e0008       move.l 0x8(a6), d1
         0x0064becc      5381           subq.l 0x1, d1
         0x0064bece      0c810000000b   cmpi.l 0xb, d1
     < 0x0064bed4      6302           bls.b 0x64bed8
        0x0064bed6      4e4f           trap 0xf
     > 0x0064bed8      2801           move.l d1, d4
         0x0064beda      761e           moveq 0x1e, d3
         0x0064bedc      4eb900406a74   jsr fcn.00406a74
         0x0064bee2      41f900847e32   lea.l 0x847e32, a0
         0x0064bee8      41f00000       lea.l (a0, d0.w), a0
         0x0064beec      20704858       movea.l 0x58(a0, d4.l), a0
         0x0064bef0      b0fc0001       cmpa.w 0x1, a0
     < 0x0064bef4      6704           beq.b 0x64befa
        0x0064bef6      522e000c       addq.b 0x1, 0xc(a6)
     > 0x0064befa      4cdf011b       movem.l (a7)+, d0-d1/d3-d4/a0
         0x0064befe      4e5e           unlk a6
         0x0064bf00      4e75           rts
 116: K9_LIBRARY.k9_item_type ();
         0x0064bf02      4e56ffd4       link.w a6, 0xffd4
         0x0064bf06      bfd5           cmpa.l (a5), a7
     < 0x0064bf08      6206           bhi.b 0x64bf10
        0x0064bf0a      44fc0002       move.w 0x2, ccr
        0x0064bf0e      4e76           trapv
     > 0x0064bf10      defc002c       adda.w 0x2c, a7
         0x0064bf14      48e798c0       movem.l d0/d3-d4/a0-a1, -(a7)
         0x0064bf18      202e0008       move.l 0x8(a6), d0
         0x0064bf1c      5380           subq.l 0x1, d0
         0x0064bf1e      0c800000000b   cmpi.l 0xb, d0
     < 0x0064bf24      6302           bls.b 0x64bf28
        0x0064bf26      4e4f           trap 0xf
     > 0x0064bf28      2800           move.l d0, d4
         0x0064bf2a      761e           moveq 0x1e, d3
         0x0064bf2c      4eb900406a74   jsr fcn.00406a74
         0x0064bf32      103900847e42   move.b 0x847e42, d0
         0x0064bf38      4880           ext.w d0
         0x0064bf3a      c1fc02d0       muls.w 0x2d0, d0
         0x0064bf3e      41f900847e32   lea.l 0x847e32, a0
         0x0064bf44      41f00000       lea.l (a0, d0.w), a0
         0x0064bf48      22704858       movea.l 0x58(a0, d4.l), a1
         0x0064bf4c      b2fc0001       cmpa.w 0x1, a1
     < 0x0064bf50      6718           beq.b 0x64bf6a
        0x0064bf52      b3e9fffc       cmpa.l -0x4(a1), a1
    < 0x0064bf56      6702           beq.b 0x64bf5a
       0x0064bf58      4e4d           trap 0xd
    > 0x0064bf5a      1029004c       move.b 0x4c(a1), d0
        0x0064bf5e      4880           ext.w d0
        0x0064bf60      41bc002d       chk.w 0x2d, d0
        0x0064bf64      1d40000c       move.b d0, 0xc(a6)
    < 0x0064bf68      6004           bra.b 0x64bf6e
    > 0x0064bf6a      422e000c       clr.b 0xc(a6)
    > 0x0064bf6e      4cdf0319       movem.l (a7)+, d0/d3-d4/a0-a1
         0x0064bf72      4e5e           unlk a6
         0x0064bf74      4e75           rts
          ; CALL XREF from MENULIBFNDCOM.hit_in_grid_upd @ 0x759926
 34: K9_LIBRARY.k9_in_grid_offs ();
         0x0064bf76      4e56fff8       link.w a6, 0xfff8
         0x0064bf7a      bfd5           cmpa.l (a5), a7
     < 0x0064bf7c      6206           bhi.b 0x64bf84
        0x0064bf7e      44fc0002       move.w 0x2, ccr
        0x0064bf82      4e76           trapv
     > 0x0064bf84      defc0008       adda.w 0x8, a7
         0x0064bf88      2f2e0008       move.l 0x8(a6), -(a7)
         0x0064bf8c      4eb900650b02   jsr K91_LIBOPS.k91_set_in_grid
         0x0064bf92      584f           addq.w 0x4, a7
         0x0064bf94      4e5e           unlk a6
         0x0064bf96      4e75           rts
 38: K9_LIBRARY.k9_set_export_m ();
         0x0064bf98      4e56fff4       link.w a6, 0xfff4
         0x0064bf9c      bfd5           cmpa.l (a5), a7
     < 0x0064bf9e      6206           bhi.b 0x64bfa6
        0x0064bfa0      44fc0002       move.w 0x2, ccr
        0x0064bfa4      4e76           trapv
     > 0x0064bfa6      defc000c       adda.w 0xc, a7
         0x0064bfaa      2f2e000c       move.l 0xc(a6), -(a7)
         0x0064bfae      2f2e0008       move.l 0x8(a6), -(a7)
         0x0064bfb2      4eb9006676b8   jsr K96_LIB2OPS.k96_set_export_
         0x0064bfb8      504f           addq.w 0x8, a7
         0x0064bfba      4e5e           unlk a6
         0x0064bfbc      4e75           rts
          ; CALL XREFS from MENULIBFNDCOM.hit_fetch_and_u @ 0x759c64, 0x759cdc
 34: K9_LIBRARY.k9_fetch_grid_w ();
         0x0064bfbe      4e56fffa       link.w a6, 0xfffa
         0x0064bfc2      bfd5           cmpa.l (a5), a7
     < 0x0064bfc4      6206           bhi.b 0x64bfcc
        0x0064bfc6      44fc0002       move.w 0x2, ccr
        0x0064bfca      4e76           trapv
     > 0x0064bfcc      defc0006       adda.w 0x6, a7
         0x0064bfd0      1f2e0008       move.b 0x8(a6), -(a7)
         0x0064bfd4      4eb900650b34   jsr K91_LIBOPS.k91_fetch_grid_
         0x0064bfda      544f           addq.w 0x2, a7
         0x0064bfdc      4e5e           unlk a6
         0x0064bfde      4e75           rts
          ; XREFS: CALL 0x0065831e  CALL 0x006583e2  CALL 0x006584f8  
          ; XREFS: CALL 0x00658522  CALL 0x0065854a  CALL 0x006585c6  
          ; XREFS: CALL 0x00658624  
 122: K9_LIBRARY.k9_info_used_fi ();
         0x0064bfe0      4e56ffb8       link.w a6, 0xffb8
         0x0064bfe4      bfd5           cmpa.l (a5), a7
     < 0x0064bfe6      6206           bhi.b 0x64bfee
        0x0064bfe8      44fc0002       move.w 0x2, ccr
        0x0064bfec      4e76           trapv
     > 0x0064bfee      defc0042       adda.w 0x42, a7
         0x0064bff2      48e7ffc8       movem.l d0-d7/a0-a1/a4, -(a7)
         0x0064bff6      7a01           moveq 0x1, d5
         0x0064bff8      286e000a       movea.l 0xa(a6), a4
         0x0064bffc      103900847e42   move.b 0x847e42, d0
         0x0064c002      4880           ext.w d0
         0x0064c004      c1fc02d0       muls.w 0x2d0, d0
         0x0064c008      41f900847e32   lea.l 0x847e32, a0
         0x0064c00e      12300034       move.b 0x34(a0, d0.w), d1
         0x0064c012      0c010002       cmpi.b 0x2, d1
     < 0x0064c016      6d0e           blt.b 0x64c026
        0x0064c018      0c010002       cmpi.b 0x2, d1
    < 0x0064c01c      6d06           blt.b 0x64c024
       0x0064c01e      0c010006       cmpi.b 0x6, d1
   < 0x0064c022      6f18           ble.b 0x64c03c
   > 0x0064c024      4e4e           trap 0xe
    > 0x0064c026      4a01           tst.b d1
    < 0x0064c028      6702           beq.b 0x64c02c
       0x0064c02a      4e4e           trap 0xe
    > 0x0064c02c      7c00           moveq 0x0, d6
        0x0064c02e      14300032       move.b 0x32(a0, d0.w), d2
        0x0064c032      0c020003       cmpi.b 0x3, d2
    < 0x0064c036      6602           bne.b 0x64c03a
       0x0064c038      5206           addq.b 0x1, d6
   > 0x0064c03a      6002           bra.b 0x64c03e
   > 0x0064c03c      7c01           moveq 0x1, d6
    > 0x0064c03e      142e0008       move.b 0x8(a6), d2
         0x0064c042      4882           ext.w d2
         0x0064c044      3602           move.w d2, d3
         0x0064c046      5343           subq.w 0x1, d3
         0x0064c048      0c430014       cmpi.w 0x14, d3
     < 0x0064c04c      620001c4       bhi.w 0x64c212
        0x0064c050      d643           add.w d3, d3
        0x0064c052      363b3006       move.w 0x64c05a(pc, d3.w), d3
        0x0064c056      4efb3002       jmp 0x64c05a(pc, d3.w)
         0x0064c05a      003000300030   ori.b 0x30, 0x30(a0, d0.w)
         0x0064c060      0030002a0030   ori.b 0x2a, 0x30(a0, d0.w)
         0x0064c066      0030017e01b8.  ori.b 0x7e, 0x1b80186(d0.w)
         0x0064c070      01a0           bclr.b d0, -(a0)
         0x0064c072      01a801b0       bclr.b d0, 0x1b0(a0)
         0x0064c076      0036005c00ae   ori.b 0x5c, -0x52(a6, d0.w)
         0x0064c07c      00e2014c       
         0x0064c07d      e201           asr.b 0x1, d1
         0x0064c07f      4c014c01       muls.l d1, d1:d4
         0x0064c083      167e0160       
         0x0064c084      7e01           moveq 0x1, d7
     < 0x0064c086      6000018c       bra.w 0x64c214
        0x0064c08a      7e01           moveq 0x1, d7
    < 0x0064c08c      60000186       bra.w 0x64c214
       0x0064c090      7e00           moveq 0x0, d7
       0x0064c092      b9ecfffc       cmpa.l -0x4(a4), a4
   < 0x0064c096      6702           beq.b 0x64c09a
      0x0064c098      4e4d           trap 0xd
   > 0x0064c09a      162c004c       move.b 0x4c(a4), d3
       0x0064c09e      4883           ext.w d3
       0x0064c0a0      43f900642fb6   lea.l 0x642fb6, a1
       0x0064c0a6      3803           move.w d3, d4
       0x0064c0a8      e64c           lsr.w 0x3, d4
       0x0064c0aa      07314000       btst.l d3, (a1, d4.w)
   < 0x0064c0ae      6702           beq.b 0x64c0b2
      0x0064c0b0      5207           addq.b 0x1, d7
  > 0x0064c0b2      60000160       bra.w 0x64c214
      0x0064c0b6      7e00           moveq 0x0, d7
      0x0064c0b8      b9ecfffc       cmpa.l -0x4(a4), a4
  < 0x0064c0bc      6702           beq.b 0x64c0c0
     0x0064c0be      4e4d           trap 0xd
  > 0x0064c0c0      162c004c       move.b 0x4c(a4), d3
      0x0064c0c4      4883           ext.w d3
      0x0064c0c6      43f900642fbc   lea.l 0x642fbc, a1
      0x0064c0cc      3803           move.w d3, d4
      0x0064c0ce      e64c           lsr.w 0x3, d4
      0x0064c0d0      07314000       btst.l d3, (a1, d4.w)
  < 0x0064c0d4      670e           beq.b 0x64c0e4
     0x0064c0d6      18300032       move.b 0x32(a0, d0.w), d4
     0x0064c0da      4884           ext.w d4
     0x0064c0dc      093900642fc2   btst.l d4, 0x642fc2
  < 0x0064c0e2      661e           bne.b 0x64c102
  > 0x0064c0e4      43f900642fc4   lea.l 0x642fc4, a1
      0x0064c0ea      3803           move.w d3, d4
      0x0064c0ec      e64c           lsr.w 0x3, d4
      0x0064c0ee      07314000       btst.l d3, (a1, d4.w)
  < 0x0064c0f2      6710           beq.b 0x64c104
     0x0064c0f4      16300032       move.b 0x32(a0, d0.w), d3
     0x0064c0f8      4883           ext.w d3
     0x0064c0fa      073900642fca   btst.l d3, 0x642fca
  < 0x0064c100      6702           beq.b 0x64c104
  > 0x0064c102      5207           addq.b 0x1, d7
  > 0x0064c104      6000010e       bra.w 0x64c214
      0x0064c108      7e00           moveq 0x0, d7
      0x0064c10a      b9ecfffc       cmpa.l -0x4(a4), a4
  < 0x0064c10e      6702           beq.b 0x64c112
     0x0064c110      4e4d           trap 0xd
  > 0x0064c112      162c004c       move.b 0x4c(a4), d3
      0x0064c116      4883           ext.w d3
      0x0064c118      43f900642fcc   lea.l 0x642fcc, a1
      0x0064c11e      3803           move.w d3, d4
      0x0064c120      e64c           lsr.w 0x3, d4
      0x0064c122      07314000       btst.l d3, (a1, d4.w)
  < 0x0064c126      6710           beq.b 0x64c138
     0x0064c128      16300032       move.b 0x32(a0, d0.w), d3
     0x0064c12c      4883           ext.w d3
     0x0064c12e      073900642fd2   btst.l d3, 0x642fd2
  < 0x0064c134      6702           beq.b 0x64c138
     0x0064c136      5207           addq.b 0x1, d7
  > 0x0064c138      600000da       bra.w 0x64c214
      0x0064c13c      7e00           moveq 0x0, d7
      0x0064c13e      b9ecfffc       cmpa.l -0x4(a4), a4
  < 0x0064c142      6702           beq.b 0x64c146
     0x0064c144      4e4d           trap 0xd
  > 0x0064c146      162c004c       move.b 0x4c(a4), d3
      0x0064c14a      4883           ext.w d3
      0x0064c14c      43f900642fd4   lea.l 0x642fd4, a1
      0x0064c152      3803           move.w d3, d4
      0x0064c154      e64c           lsr.w 0x3, d4
      0x0064c156      07314000       btst.l d3, (a1, d4.w)
  < 0x0064c15a      6710           beq.b 0x64c16c
     0x0064c15c      16300032       move.b 0x32(a0, d0.w), d3
     0x0064c160      4883           ext.w d3
     0x0064c162      073900642fda   btst.l d3, 0x642fda
  < 0x0064c168      6702           beq.b 0x64c16c
     0x0064c16a      5207           addq.b 0x1, d7
  > 0x0064c16c      600000a6       bra.w 0x64c214
      0x0064c170      7e00           moveq 0x0, d7
      0x0064c172      4a01           tst.b d1
  < 0x0064c174      662e           bne.b 0x64c1a4
     0x0064c176      16300032       move.b 0x32(a0, d0.w), d3
     0x0064c17a      4883           ext.w d3
     0x0064c17c      073900642fdc   btst.l d3, 0x642fdc
  < 0x0064c182      6720           beq.b 0x64c1a4
     0x0064c184      b9ecfffc       cmpa.l -0x4(a4), a4
  < 0x0064c188      6702           beq.b 0x64c18c
     0x0064c18a      4e4d           trap 0xd
  > 0x0064c18c      162c004c       move.b 0x4c(a4), d3
     0x0064c190      4883           ext.w d3
     0x0064c192      43f900642fde   lea.l 0x642fde, a1
     0x0064c198      3803           move.w d3, d4
     0x0064c19a      e64c           lsr.w 0x3, d4
     0x0064c19c      07314000       btst.l d3, (a1, d4.w)
  < 0x0064c1a0      6702           beq.b 0x64c1a4
     0x0064c1a2      5207           addq.b 0x1, d7
  > 0x0064c1a4      606e           bra.b 0x64c214
      0x0064c1a6      7e00           moveq 0x0, d7
      0x0064c1a8      4a01           tst.b d1
  < 0x0064c1aa      662a           bne.b 0x64c1d6
     0x0064c1ac      16300032       move.b 0x32(a0, d0.w), d3
     0x0064c1b0      0c030003       cmpi.b 0x3, d3
  < 0x0064c1b4      6620           bne.b 0x64c1d6
     0x0064c1b6      b9ecfffc       cmpa.l -0x4(a4), a4
  < 0x0064c1ba      6702           beq.b 0x64c1be
     0x0064c1bc      4e4d           trap 0xd
  > 0x0064c1be      162c004c       move.b 0x4c(a4), d3
     0x0064c1c2      4883           ext.w d3
     0x0064c1c4      43f900642fe4   lea.l 0x642fe4, a1
     0x0064c1ca      3803           move.w d3, d4
     0x0064c1cc      e64c           lsr.w 0x3, d4
     0x0064c1ce      07314000       btst.l d3, (a1, d4.w)
  < 0x0064c1d2      6602           bne.b 0x64c1d6
     0x0064c1d4      5207           addq.b 0x1, d7
  > 0x0064c1d6      603c           bra.b 0x64c214
      0x0064c1d8      4886           ext.w d6
      0x0064c1da      4d85           chk.w d5, d6
      0x0064c1dc      1e06           move.b d6, d7
  < 0x0064c1de      6034           bra.b 0x64c214
     0x0064c1e0      554f           subq.w 0x2, a7
     0x0064c1e2      48780001       pea.l 0x1
  > 0x0064c1e6      4eb90066a4fa   jsr USERFIELDS.udf_valid
     0x0064c1ec      584f           addq.w 0x4, a7
     0x0064c1ee      1206           move.b d6, d1
     0x0064c1f0      c21f           and.b (a7)+, d1
     0x0064c1f2      4881           ext.w d1
     0x0064c1f4      4385           chk.w d5, d1
     0x0064c1f6      1e01           move.b d1, d7
  < 0x0064c1f8      601a           bra.b 0x64c214
     0x0064c1fa      554f           subq.w 0x2, a7
     0x0064c1fc      48780002       pea.l 0x2
  < 0x0064c200      60e4           bra.b 0x64c1e6
     0x0064c202      554f           subq.w 0x2, a7
     0x0064c204      48780003       pea.l 0x3
  < 0x0064c208      60dc           bra.b 0x64c1e6
     0x0064c20a      554f           subq.w 0x2, a7
     0x0064c20c      48780004       pea.l 0x4
  < 0x0064c210      60d4           bra.b 0x64c1e6
  > 0x0064c212      7e00           moveq 0x0, d7
  > 0x0064c214      0c020005       cmpi.b 0x5, d2
      < 0x0064c218      6720           beq.b 0x64c23a
         0x0064c21a      b9ecfffc       cmpa.l -0x4(a4), a4
     < 0x0064c21e      6702           beq.b 0x64c222
        0x0064c220      4e4d           trap 0xd
     > 0x0064c222      122c004c       move.b 0x4c(a4), d1
         0x0064c226      4881           ext.w d1
         0x0064c228      43f900642fea   lea.l 0x642fea, a1
         0x0064c22e      3401           move.w d1, d2
         0x0064c230      e64a           lsr.w 0x3, d2
         0x0064c232      03312000       btst.l d1, (a1, d2.w)
     < 0x0064c236      6702           beq.b 0x64c23a
        0x0064c238      7e00           moveq 0x0, d7
     > 0x0064c23a      4887           ext.w d7
          0x0064c23c      4f85           chk.w d5, d7
          0x0064c23e      1d47000e       move.b d7, 0xe(a6)
          0x0064c242      4cdf13ff       movem.l (a7)+, d0-d7/a0-a1/a4
          0x0064c246      4e5e           unlk a6
          0x0064c248      4e75           rts
          ; CALL XREFS from K9_LIBRARY.get_type @ 0x64c2d4, 0x64c308
 62: K9_LIBRARY.sys_type ();
         0x0064c24a      4e56ffee       link.w a6, 0xffee
         0x0064c24e      bfd5           cmpa.l (a5), a7
     < 0x0064c250      6206           bhi.b 0x64c258
        0x0064c252      44fc0002       move.w 0x2, ccr
        0x0064c256      4e76           trapv
     > 0x0064c258      defc0012       adda.w 0x12, a7
         0x0064c25c      48e78080       movem.l d0/a0, -(a7)
         0x0064c260      41ee000c       lea.l 0xc(a6), a0
         0x0064c264      554f           subq.w 0x2, a7
         0x0064c266      2f2e0008       move.l 0x8(a6), -(a7)
         0x0064c26a      4eb90066a2c2   jsr USERFIELDS.udf_get_type
         0x0064c270      584f           addq.w 0x4, a7
         0x0064c272      101f           move.b (a7)+, d0
         0x0064c274      4880           ext.w d0
         0x0064c276      0c400003       cmpi.w 0x3, d0
     < 0x0064c27a      6302           bls.b 0x64c27e
        0x0064c27c      4e4e           trap 0xe
     > 0x0064c27e      d040           add.w d0, d0
         0x0064c280      303b0006       move.w 0x64c288(pc, d0.w), d0
         0x0064c284      4efb0002       jmp 0x64c288(pc, d0.w)
          0x0064c288      0008000c       
          0x0064c289      08000c00       
          0x0064c28a      000c0012       
          0x0064c28b      0c001200       cmpi.b 0x0, d0
          0x0064c28f      18421060       
          0x0064c290      4210           clr.b (a0)
      < 0x0064c292      6010           bra.b 0x64c2a4
         0x0064c294      10bc0002       move.b 0x2, (a0)
     < 0x0064c298      600a           bra.b 0x64c2a4
        0x0064c29a      10bc000a       move.b 0xa, (a0)
    < 0x0064c29e      6004           bra.b 0x64c2a4
       0x0064c2a0      10bc0008       move.b 0x8, (a0)
    > 0x0064c2a4      4cdf0101       movem.l (a7)+, d0/a0
          0x0064c2a8      4e5e           unlk a6
          0x0064c2aa      4e75           rts
 120: K9_LIBRARY.get_type ();
         0x0064c2ac      4e56ffdc       link.w a6, 0xffdc
         0x0064c2b0      bfd5           cmpa.l (a5), a7
     < 0x0064c2b2      6206           bhi.b 0x64c2ba
        0x0064c2b4      44fc0002       move.w 0x2, ccr
        0x0064c2b8      4e76           trapv
     > 0x0064c2ba      defc0024       adda.w 0x24, a7
         0x0064c2be      48e7e0c0       movem.l d0-d2/a0-a1, -(a7)
         0x0064c2c2      43ee0012       lea.l 0x12(a6), a1
         0x0064c2c6      740b           moveq 0xb, d2
         0x0064c2c8      4a2c000e       tst.b 0xe(a4)
     < 0x0064c2cc      6716           beq.b 0x64c2e4
        0x0064c2ce      554f           subq.w 0x2, a7
        0x0064c2d0      2f2e000a       move.l 0xa(a6), -(a7)
        0x0064c2d4      4ebaff74       jsr K9_LIBRARY.sys_type(pc)
        0x0064c2d8      584f           addq.w 0x4, a7
        0x0064c2da      101f           move.b (a7)+, d0
        0x0064c2dc      4880           ext.w d0
        0x0064c2de      4182           chk.w d2, d0
        0x0064c2e0      1280           move.b d0, (a1)
    < 0x0064c2e2      6038           bra.b 0x64c31c
    > 0x0064c2e4      102e0008       move.b 0x8(a6), d0
        0x0064c2e8      4880           ext.w d0
        0x0064c2ea      9042           sub.w d2, d0
        0x0064c2ec      41bc0003       chk.w 0x3, d0
        0x0064c2f0      206e000e       movea.l 0xe(a6), a0
        0x0064c2f4      b1e8fffc       cmpa.l -0x4(a0), a0
    < 0x0064c2f8      6702           beq.b 0x64c2fc
       0x0064c2fa      4e4d           trap 0xd
    > 0x0064c2fc      4a300054       tst.b 0x54(a0, d0.w)
    < 0x0064c300      6616           bne.b 0x64c318
       0x0064c302      554f           subq.w 0x2, a7
       0x0064c304      2f2e000a       move.l 0xa(a6), -(a7)
       0x0064c308      4ebaff40       jsr K9_LIBRARY.sys_type(pc)
       0x0064c30c      584f           addq.w 0x4, a7
       0x0064c30e      121f           move.b (a7)+, d1
       0x0064c310      4881           ext.w d1
       0x0064c312      4382           chk.w d2, d1
       0x0064c314      1281           move.b d1, (a1)
   < 0x0064c316      6004           bra.b 0x64c31c
   > 0x0064c318      12b00054       move.b 0x54(a0, d0.w), (a1)
   > 0x0064c31c      4cdf0307       movem.l (a7)+, d0-d2/a0-a1
         0x0064c320      4e5e           unlk a6
         0x0064c322      4e75           rts
          ; XREFS: CALL 0x0064822a  CALL 0x0064a8ec  CALL 0x0064a906  
          ; XREFS: CALL 0x0064b114  CALL 0x0065bb90  CALL 0x00750aee  
 60: K9_LIBRARY.k9_info_type_fi ();
         0x0064c324      4e56ffce       link.w a6, 0xffce
         0x0064c328      bfd5           cmpa.l (a5), a7
     < 0x0064c32a      6206           bhi.b 0x64c332
        0x0064c32c      44fc0002       move.w 0x2, ccr
        0x0064c330      4e76           trapv
     > 0x0064c332      defc002e       adda.w 0x2e, a7
         0x0064c336      48e7f098       movem.l d0-d3/a0/a3-a4, -(a7)
         0x0064c33a      41ee0010       lea.l 0x10(a6), a0
         0x0064c33e      7402           moveq 0x2, d2
         0x0064c340      760a           moveq 0xa, d3
         0x0064c342      266e000c       movea.l 0xc(a6), a3
         0x0064c346      102e0008       move.b 0x8(a6), d0
         0x0064c34a      4880           ext.w d0
         0x0064c34c      3200           move.w d0, d1
         0x0064c34e      0c410015       cmpi.w 0x15, d1
     < 0x0064c352      6302           bls.b 0x64c356
        0x0064c354      4e4e           trap 0xe
     > 0x0064c356      d241           add.w d1, d1
         0x0064c358      323b1006       move.w 0x64c360(pc, d1.w), d1
         0x0064c35c      4efb1002       jmp 0x64c360(pc, d1.w)
          0x0064c360      002c00300034   ori.b 0x30, 0x34(a4)
          0x0064c366      0038003a003e   ori.b 0x3a, 0x3e.w
          0x0064c36c      0044004a       ori.w 0x4a, d4
          0x0064c370      00500056       ori.w 0x56, (a0)
          0x0064c374      0058005a       ori.w 0x5a, (a0)+
          0x0064c378      007a0084       
          0x0064c379      7a00           moveq 0x0, d5
          0x0064c37b      8400           or.b d0, d2
          0x0064c37d      8e00           or.b d0, d7
          0x0064c37f      9800           sub.b d0, d4
          0x0064c381      9a00           sub.b d0, d5
          0x0064c383      9c00           sub.b d0, d6
          0x0064c385      9e00           sub.b d0, d7
          0x0064c387      a000           invalid
          0x0064c389      a200           invalid
          0x0064c38b      a442           invalid
          0x0064c38d      10607610       
      < 0x0064c38e      6076           bra.b 0x64c406
  > 0x0064c390      1082           move.b d2, (a0)
  < 0x0064c392      6072           bra.b 0x64c406
     0x0064c394      1082           move.b d2, (a0)
  < 0x0064c396      606e           bra.b 0x64c406
  < 0x0064c398      60f6           bra.b 0x64c390
  > 0x0064c39a      1083           move.b d3, (a0)
  < 0x0064c39c      6068           bra.b 0x64c406
     0x0064c39e      10bc0004       move.b 0x4, (a0)
  < 0x0064c3a2      6062           bra.b 0x64c406
     0x0064c3a4      10bc0006       move.b 0x6, (a0)
  < 0x0064c3a8      605c           bra.b 0x64c406
  > 0x0064c3aa      10bc0008       move.b 0x8, (a0)
  < 0x0064c3ae      6056           bra.b 0x64c406
     0x0064c3b0      10bc0003       move.b 0x3, (a0)
  < 0x0064c3b4      6050           bra.b 0x64c406
  < 0x0064c3b6      60d8           bra.b 0x64c390
  < 0x0064c3b8      60f0           bra.b 0x64c3aa
      0x0064c3ba      554f           subq.w 0x2, a7
      0x0064c3bc      2f0b           move.l a3, -(a7)
      0x0064c3be      48780001       pea.l 0x1
  > 0x0064c3c2      1f00           move.b d0, -(a7)
     0x0064c3c4      49eefffc       lea.l -0x4(a6), a4
     0x0064c3c8      4ebafee2       jsr K9_LIBRARY.get_type(pc)
     0x0064c3cc      dec3           adda.w d3, a7
     0x0064c3ce      121f           move.b (a7)+, d1
     0x0064c3d0      4881           ext.w d1
     0x0064c3d2      43bc000b       chk.w 0xb, d1
     0x0064c3d6      1081           move.b d1, (a0)
  < 0x0064c3d8      602c           bra.b 0x64c406
     0x0064c3da      554f           subq.w 0x2, a7
     0x0064c3dc      2f0b           move.l a3, -(a7)
     0x0064c3de      48780002       pea.l 0x2
  < 0x0064c3e2      60de           bra.b 0x64c3c2
     0x0064c3e4      554f           subq.w 0x2, a7
     0x0064c3e6      2f0b           move.l a3, -(a7)
     0x0064c3e8      48780003       pea.l 0x3
  < 0x0064c3ec      60d4           bra.b 0x64c3c2
     0x0064c3ee      554f           subq.w 0x2, a7
     0x0064c3f0      2f0b           move.l a3, -(a7)
     0x0064c3f2      48780004       pea.l 0x4
  < 0x0064c3f6      60ca           bra.b 0x64c3c2
  < 0x0064c3f8      60b0           bra.b 0x64c3aa
  < 0x0064c3fa      60ae           bra.b 0x64c3aa
  < 0x0064c3fc      60ac           bra.b 0x64c3aa
  < 0x0064c3fe      60aa           bra.b 0x64c3aa
  < 0x0064c400      6098           bra.b 0x64c39a
    < 0x0064c402      608c           bra.b 0x64c390
     < 0x0064c404      608a           bra.b 0x64c390
  > 0x0064c406      4cdf190f       movem.l (a7)+, d0-d3/a0/a3-a4
          0x0064c40a      4e5e           unlk a6
          0x0064c40c      4e75           rts
          ; CALL XREFS from K93_PRINTSORT.print_file_info @ 0x65d2d4, 0x65d32a, 0x65d380, 0x65d3d6
 48: K9_LIBRARY.k9_extra_field_ ();
         0x0064c40e      4e56fff0       link.w a6, 0xfff0
         0x0064c412      bfd5           cmpa.l (a5), a7
     < 0x0064c414      6206           bhi.b 0x64c41c
        0x0064c416      44fc0002       move.w 0x2, ccr
        0x0064c41a      4e76           trapv
     > 0x0064c41c      defc0010       adda.w 0x10, a7
         0x0064c420      48e70080       movem.l a0, -(a7)
         0x0064c424      2f2e000c       move.l 0xc(a6), -(a7)
         0x0064c428      206e0008       movea.l 0x8(a6), a0
         0x0064c42c      4850           pea.l (a0)
         0x0064c42e      4eb90066a332   jsr USERFIELDS.udf_get_name
         0x0064c434      504f           addq.w 0x8, a7
         0x0064c436      4cdf0100       movem.l (a7)+, a0
         0x0064c43a      4e5e           unlk a6
         0x0064c43c      4e75           rts
          ; CALL XREF from K92_DISPLAY.card_shell @ 0x654da8
          ; CALL XREF from K92_DISPLAY @ +0x439e
 34: K9_LIBRARY.k9_max_extra_fi ();
         0x0064c43e      4e56fff8       link.w a6, 0xfff8
         0x0064c442      bfd5           cmpa.l (a5), a7
     < 0x0064c444      6206           bhi.b 0x64c44c
        0x0064c446      44fc0002       move.w 0x2, ccr
        0x0064c44a      4e76           trapv
     > 0x0064c44c      defc0008       adda.w 0x8, a7
         0x0064c450      594f           subq.w 0x4, a7
         0x0064c452      4eb90066a49c   jsr USERFIELDS.get_max_udf
         0x0064c458      2d5f0008       move.l (a7)+, 0x8(a6)
         0x0064c45c      4e5e           unlk a6
         0x0064c45e      4e75           rts
 30: K9_LIBRARY.k9_set_cutout_a ();
         0x0064c460      4e56fffc       link.w a6, 0xfffc
         0x0064c464      bfd5           cmpa.l (a5), a7
     < 0x0064c466      6206           bhi.b 0x64c46e
        0x0064c468      44fc0002       move.w 0x2, ccr
        0x0064c46c      4e76           trapv
     > 0x0064c46e      defc0004       adda.w 0x4, a7
         0x0064c472      33ee00080084.  move.w 0x8(a6), 0x8486b4.l
         0x0064c47a      4e5e           unlk a6
         0x0064c47c      4e75           rts
 62: K9_LIBRARY.k9_restore_disp ();
         0x0064c47e      4e56ffee       link.w a6, 0xffee
         0x0064c482      bfd5           cmpa.l (a5), a7
     < 0x0064c484      6206           bhi.b 0x64c48c
        0x0064c486      44fc0002       move.w 0x2, ccr
        0x0064c48a      4e76           trapv
     > 0x0064c48c      defc0012       adda.w 0x12, a7
         0x0064c490      48e7c000       movem.l d0-d1, -(a7)
         0x0064c494      7201           moveq 0x1, d1
         0x0064c496      1f01           move.b d1, -(a7)
         0x0064c498      554f           subq.w 0x2, a7
         0x0064c49a      3f3c00bf       move.w 0xbf, -(a7)
         0x0064c49e      4eb900480fc2   jsr MENUCOM.get_boxon
         0x0064c4a4      544f           addq.w 0x2, a7
         0x0064c4a6      1017           move.b (a7), d0
         0x0064c4a8      4880           ext.w d0
         0x0064c4aa      4181           chk.w d1, d0
         0x0064c4ac      1e80           move.b d0, (a7)
         0x0064c4ae      4ebaf4e4       jsr K9_LIBRARY.k9_show_display(pc)
         0x0064c4b2      584f           addq.w 0x4, a7
         0x0064c4b4      4cdf0003       movem.l (a7)+, d0-d1
         0x0064c4b8      4e5e           unlk a6
         0x0064c4ba      4e75           rts
 134: K9_LIBRARY.new_str ();
         ; var int32_t var_8h @ a7+0x8
         0x0064c4bc      4e56ffd8       link.w a6, 0xffd8
         0x0064c4c0      bfd5           cmpa.l (a5), a7
     < 0x0064c4c2      6206           bhi.b 0x64c4ca
        0x0064c4c4      44fc0002       move.w 0x2, ccr
        0x0064c4c8      4e76           trapv
     > 0x0064c4ca      defc0028       adda.w 0x28, a7
         0x0064c4ce      48e780e0       movem.l d0/a0-a2, -(a7)
         0x0064c4d2      45f9004047ea   lea.l p_wts_o, a2
         0x0064c4d8      700c           moveq 0xc, d0
         0x0064c4da      206e0108       movea.l 0x108(a6), a0
         0x0064c4de      4850           pea.l (a0)
         0x0064c4e0      48780100       pea.l 0x100
         0x0064c4e4      4eb900403a92   jsr p_New
         0x0064c4ea      504f           addq.w 0x8, a7
         0x0064c4ec      2250           movea.l (a0), a1
         0x0064c4ee      b2fc0001       cmpa.w 0x1, a1
     < 0x0064c4f2      6638           bne.b 0x64c52c
        0x0064c4f4      487900642ff1   pea.l 0x642ff1
        0x0064c4fa      48780015       pea.l 0x15
        0x0064c4fe      2f17           move.l (a7), -(a7)
        0x0064c500      4e92           jsr (a2)                    ; fcn.00000009+0x2
        0x0064c502      dec0           adda.w d0, a7
        0x0064c504      486e0009       pea.l 0x9(a6)
        0x0064c508      42a7           clr.l -(a7)
        0x0064c50a      1f6e00080003   move.b 0x8(a6), 0x3(a7)
        0x0064c510      2f17           move.l (a7), -(a7)
        0x0064c512      4e92           jsr (a2)                    ; fcn.00000009+0x2
        0x0064c514      dec0           adda.w d0, a7
        0x0064c516      487900643007   pea.l 0x643007
        0x0064c51c      4878001a       pea.l 0x1a
        0x0064c520      2f17           move.l (a7), -(a7)
        0x0064c522      4e92           jsr (a2)                    ; fcn.00000009+0x2
        0x0064c524      dec0           adda.w d0, a7
        0x0064c526      4eb900404946   jsr p_wtln_o
     > 0x0064c52c      b3e9fffc       cmpa.l -0x4(a1), a1
     < 0x0064c530      6702           beq.b 0x64c534
        0x0064c532      4e4d           trap 0xd
     > 0x0064c534      12b900643021   move.b 0x643021, (a1)
         0x0064c53a      4cdf0701       movem.l (a7)+, d0/a0-a2
         0x0064c53e      4e5e           unlk a6
         0x0064c540      4e75           rts
          ; CALL XREF from K9_LIBRARY.init_retitle_sp @ 0x64c6e2
 130: K9_LIBRARY.new_desc ();
         ; var int32_t var_8h @ a7+0x8
         0x0064c542      4e56ffd8       link.w a6, 0xffd8
         0x0064c546      bfd5           cmpa.l (a5), a7
     < 0x0064c548      6206           bhi.b 0x64c550
        0x0064c54a      44fc0002       move.w 0x2, ccr
        0x0064c54e      4e76           trapv
     > 0x0064c550      defc0028       adda.w 0x28, a7
         0x0064c554      48e780e0       movem.l d0/a0-a2, -(a7)
         0x0064c558      45f9004047ea   lea.l p_wts_o, a2
         0x0064c55e      700c           moveq 0xc, d0
         0x0064c560      206e0108       movea.l 0x108(a6), a0
         0x0064c564      4850           pea.l (a0)
         0x0064c566      48780400       pea.l 0x400
         0x0064c56a      4eb900403a92   jsr p_New
         0x0064c570      504f           addq.w 0x8, a7
         0x0064c572      2250           movea.l (a0), a1
         0x0064c574      b2fc0001       cmpa.w 0x1, a1
     < 0x0064c578      6638           bne.b 0x64c5b2
        0x0064c57a      487900643023   pea.l 0x643023
        0x0064c580      48780015       pea.l 0x15
        0x0064c584      2f17           move.l (a7), -(a7)
        0x0064c586      4e92           jsr (a2)                    ; fcn.00000009+0x2
        0x0064c588      dec0           adda.w d0, a7
        0x0064c58a      486e0009       pea.l 0x9(a6)
        0x0064c58e      42a7           clr.l -(a7)
        0x0064c590      1f6e00080003   move.b 0x8(a6), 0x3(a7)
        0x0064c596      2f17           move.l (a7), -(a7)
        0x0064c598      4e92           jsr (a2)                    ; fcn.00000009+0x2
        0x0064c59a      dec0           adda.w d0, a7
        0x0064c59c      487900643039   pea.l 0x643039
        0x0064c5a2      4878001a       pea.l 0x1a
        0x0064c5a6      2f17           move.l (a7), -(a7)
        0x0064c5a8      4e92           jsr (a2)                    ; fcn.00000009+0x2
        0x0064c5aa      dec0           adda.w d0, a7
        0x0064c5ac      4eb900404946   jsr p_wtln_o
     > 0x0064c5b2      b3e9fffc       cmpa.l -0x4(a1), a1
     < 0x0064c5b6      6702           beq.b 0x64c5ba
        0x0064c5b8      4e4d           trap 0xd
     > 0x0064c5ba      4251           clr.w (a1)
         0x0064c5bc      4cdf0701       movem.l (a7)+, d0/a0-a2
         0x0064c5c0      4e5e           unlk a6
         0x0064c5c2      4e75           rts
          ; CALL XREF from K9_LIBRARY.k9_init @ 0x64c87e
 428: K9_LIBRARY.init_retitle_sp ();
         0x0064c5c4      4e56febc       link.w a6, 0xfebc
         0x0064c5c8      bfd5           cmpa.l (a5), a7
     < 0x0064c5ca      6206           bhi.b 0x64c5d2
        0x0064c5cc      44fc0002       move.w 0x2, ccr
        0x0064c5d0      4e76           trapv
     > 0x0064c5d2      defc0142       adda.w 0x142, a7
         0x0064c5d6      48e7fdf8       movem.l d0-d5/d7/a0-a4, -(a7)
         0x0064c5da      49fafee0       lea.l K9_LIBRARY.new_str(pc), a4
         0x0064c5de      363c0104       move.w 0x104, d3
         0x0064c5e2      383c0100       move.w 0x100, d4
         0x0064c5e6      7a01           moveq 0x1, d5
         0x0064c5e8      103900847e42   move.b 0x847e42, d0
         0x0064c5ee      4880           ext.w d0
         0x0064c5f0      c1fc02d0       muls.w 0x2d0, d0
         0x0064c5f4      41f900847e32   lea.l 0x847e32, a0
         0x0064c5fa      48700036       pea.l 0x36(a0, d0.w)
         0x0064c5fe      48780078       pea.l 0x78
         0x0064c602      4eb900403a92   jsr p_New
         0x0064c608      504f           addq.w 0x8, a7
         0x0064c60a      22700036       movea.l 0x36(a0, d0.w), a1
         0x0064c60e      b2c5           cmpa.w d5, a1
     < 0x0064c610      661c           bne.b 0x64c62e
        0x0064c612      487900643054   pea.l 0x643054
        0x0064c618      4878003b       pea.l 0x3b
        0x0064c61c      2f17           move.l (a7), -(a7)
        0x0064c61e      4eb9004047ea   jsr p_wts_o
        0x0064c624      defc000c       adda.w 0xc, a7
        0x0064c628      4eb900404946   jsr p_wtln_o
     > 0x0064c62e      b3e9fffc       cmpa.l -0x4(a1), a1
     < 0x0064c632      6702           beq.b 0x64c636
        0x0064c634      4e4d           trap 0xd
     > 0x0064c636      42290012       clr.b 0x12(a1)
         0x0064c63a      237cbf800000.  move.l 0xbf800000, 0x34(a1)
         0x0064c642      48690018       pea.l 0x18(a1)
         0x0064c646      9ec4           suba.w d4, a7
         0x0064c648      244f           movea.l a7, a2
         0x0064c64a      47f90064308f   lea.l 0x64308f, a3
         0x0064c650      7205           moveq 0x5, d1
     > 0x0064c652      14db           move.b (a3)+, (a2)+
     < 0x0064c654      51c9fffc       dbra d1, 0x64c652
         0x0064c658      4e94           jsr (a4)                    ; fcn.0000000d
         0x0064c65a      dec3           adda.w d3, a7
         0x0064c65c      4869001c       pea.l 0x1c(a1)
         0x0064c660      9ec4           suba.w d4, a7
         0x0064c662      244f           movea.l a7, a2
         0x0064c664      47f900643095   lea.l 0x643095, a3
         0x0064c66a      720a           moveq 0xa, d1
     > 0x0064c66c      14db           move.b (a3)+, (a2)+
     < 0x0064c66e      51c9fffc       dbra d1, 0x64c66c
         0x0064c672      4e94           jsr (a4)                    ; fcn.0000000d
         0x0064c674      dec3           adda.w d3, a7
         0x0064c676      48690020       pea.l 0x20(a1)
         0x0064c67a      9efc00fc       suba.w 0xfc, a7
         0x0064c67e      2f39006430a0   move.l 0x6430a0, -(a7)
         0x0064c684      3f79006430a4.  move.w 0x6430a4, 0x4(a7)
         0x0064c68c      4e94           jsr (a4)                    ; fcn.0000000d
         0x0064c68e      dec3           adda.w d3, a7
         0x0064c690      48690028       pea.l 0x28(a1)
         0x0064c694      9efc00fc       suba.w 0xfc, a7
         0x0064c698      2f39006430a6   move.l 0x6430a6, -(a7)
         0x0064c69e      3f79006430aa.  move.w 0x6430aa, 0x4(a7)
         0x0064c6a6      1f79006430ac.  move.b 0x6430ac, 0x6(a7)
         0x0064c6ae      4e94           jsr (a4)                    ; fcn.0000000d
         0x0064c6b0      dec3           adda.w d3, a7
         0x0064c6b2      4869002c       pea.l 0x2c(a1)
         0x0064c6b6      9ec4           suba.w d4, a7
         0x0064c6b8      244f           movea.l a7, a2
         0x0064c6ba      47f9006430ad   lea.l 0x6430ad, a3
         0x0064c6c0      7205           moveq 0x5, d1
     > 0x0064c6c2      14db           move.b (a3)+, (a2)+
     < 0x0064c6c4      51c9fffc       dbra d1, 0x64c6c2
         0x0064c6c8      4e94           jsr (a4)                    ; fcn.0000000d
         0x0064c6ca      dec3           adda.w d3, a7
         0x0064c6cc      48690038       pea.l 0x38(a1)
         0x0064c6d0      9ec4           suba.w d4, a7
         0x0064c6d2      244f           movea.l a7, a2
         0x0064c6d4      47f9006430b3   lea.l 0x6430b3, a3
         0x0064c6da      720b           moveq 0xb, d1
     > 0x0064c6dc      14db           move.b (a3)+, (a2)+
     < 0x0064c6de      51c9fffc       dbra d1, 0x64c6dc
         0x0064c6e2      4ebafe5e       jsr K9_LIBRARY.new_desc(pc)
         0x0064c6e6      dec3           adda.w d3, a7
         0x0064c6e8      48690024       pea.l 0x24(a1)
         0x0064c6ec      9ec4           suba.w d4, a7
         0x0064c6ee      244f           movea.l a7, a2
         0x0064c6f0      47f9006430bf   lea.l 0x6430bf, a3
         0x0064c6f6      7206           moveq 0x6, d1
     > 0x0064c6f8      14db           move.b (a3)+, (a2)+
     < 0x0064c6fa      51c9fffc       dbra d1, 0x64c6f8
         0x0064c6fe      4e94           jsr (a4)                    ; fcn.0000000d
         0x0064c700      dec3           adda.w d3, a7
         0x0064c702      23450030       move.l d5, 0x30(a1)
         0x0064c706      7e0b           moveq 0xb, d7
     > 0x0064c708      4887           ext.w d7
        0x0064c70a      3207           move.w d7, d1
        0x0064c70c      0441000b       subi.w 0xb, d1
        0x0064c710      43bc0003       chk.w 0x3, d1
        0x0064c714      3401           move.w d1, d2
        0x0064c716      e542           asl.w 0x2, d2
        0x0064c718      48712058       pea.l 0x58(a1, d2.w)
        0x0064c71c      48780100       pea.l 0x100
        0x0064c720      4eb900403a92   jsr p_New
        0x0064c726      504f           addq.w 0x8, a7
        0x0064c728      42311054       clr.b 0x54(a1, d1.w)
        0x0064c72c      5207           addq.b 0x1, d7
        0x0064c72e      0c07000e       cmpi.b 0xe, d7
     < 0x0064c732      6fd4           ble.b 0x64c708
         0x0064c734      4230003a       clr.b 0x3a(a0, d0.w)
         0x0064c738      21b900641aa0.  move.l 0x641aa0, 0x3c(a0, d0.w)
         0x0064c740      42b00044       clr.l 0x44(a0, d0.w)
         0x0064c744      21bcffffffff.  move.l 0xffffffff, 0x40(a0, d0.w)
         0x0064c74c      42300048       clr.b 0x48(a0, d0.w)
         0x0064c750      4870004a       pea.l 0x4a(a0, d0.w)
         0x0064c754      4eb90065ac00   jsr K92_DISPLAY.k92_init_displa
         0x0064c75a      584f           addq.w 0x4, a7
         0x0064c75c      4870004e       pea.l 0x4e(a0, d0.w)
         0x0064c760      4eb90065ac00   jsr K92_DISPLAY.k92_init_displa
         0x0064c766      584f           addq.w 0x4, a7
         0x0064c768      4cdf1fbf       movem.l (a7)+, d0-d5/d7/a0-a4
         0x0064c76c      4e5e           unlk a6
         0x0064c76e      4e75           rts
          ; CALL XREF from MENULIBCOM.men_library_box @ 0x7573fe
 450: K9_LIBRARY.k9_init ();
         0x0064c770      4e56ffb6       link.w a6, 0xffb6
         0x0064c774      bfd5           cmpa.l (a5), a7
     < 0x0064c776      6206           bhi.b 0x64c77e
        0x0064c778      44fc0002       move.w 0x2, ccr
        0x0064c77c      4e76           trapv
     > 0x0064c77e      defc0044       adda.w 0x44, a7
         0x0064c782      48e7fff8       movem.l d0-d7/a0-a4, -(a7)
         0x0064c786      45f900847e32   lea.l 0x847e32, a2
         0x0064c78c      47f900847e36   lea.l 0x847e36, a3
         0x0064c792      7401           moveq 0x1, d2
         0x0064c794      7a0c           moveq 0xc, d5
         0x0064c796      486d0010       pea.l 0x10(a5)
         0x0064c79a      487ad710       pea.l K9_LIBRARY.purge_library(pc)
         0x0064c79e      4eb900403e52   jsr p_purge_proc
         0x0064c7a4      584f           addq.w 0x4, a7
         0x0064c7a6      1ebc0008       move.b 0x8, (a7)
         0x0064c7aa      4ebadbb2       jsr K9_LIBRARY.title_for(pc)
         0x0064c7ae      544f           addq.w 0x2, a7
         0x0064c7b0      1017           move.b (a7), d0
         0x0064c7b2      4880           ext.w d0
         0x0064c7b4      41bc003f       chk.w 0x3f, d0
         0x0064c7b8      1e80           move.b d0, (a7)
         0x0064c7ba      4eb9004a5d44   jsr MENUKEYBDCOM.init_long_title
         0x0064c7c0      544f           addq.w 0x2, a7
         0x0064c7c2      487900847e3e   pea.l 0x847e3e
         0x0064c7c8      48780400       pea.l 0x400
         0x0064c7cc      4eb900403a92   jsr p_New
         0x0064c7d2      504f           addq.w 0x8, a7
         0x0064c7d4      207900847e3e   movea.l 0x847e3e, a0
         0x0064c7da      b0c2           cmpa.w d2, a0
     < 0x0064c7dc      661a           bne.b 0x64c7f8
        0x0064c7de      4879006430c7   pea.l 0x6430c7
        0x0064c7e4      4878003b       pea.l 0x3b
        0x0064c7e8      2f17           move.l (a7), -(a7)
        0x0064c7ea      4eb9004047ea   jsr p_wts_o
        0x0064c7f0      dec5           adda.w d5, a7
        0x0064c7f2      4eb900404946   jsr p_wtln_o
     > 0x0064c7f8      7c00           moveq 0x0, d6
     > 0x0064c7fa      4886           ext.w d6
        0x0064c7fc      303c02d0       move.w 0x2d0, d0
        0x0064c800      c1c6           muls.w d6, d0
        0x0064c802      204a           movea.l a2, a0
        0x0064c804      13c600847e42   move.b d6, 0x847e42
        0x0064c80a      42300032       clr.b 0x32(a0, d0.w)
        0x0064c80e      11820033       move.b d2, 0x33(a0, d0.w)
        0x0064c812      11820034       move.b d2, 0x34(a0, d0.w)
        0x0064c816      21820016       move.l d2, 0x16(a0, d0.w)
        0x0064c81a      2182001a       move.l d2, 0x1a(a0, d0.w)
        0x0064c81e      21820012       move.l d2, 0x12(a0, d0.w)
        0x0064c822      2182001e       move.l d2, 0x1e(a0, d0.w)
        0x0064c826      7e01           moveq 0x1, d7
    > 0x0064c828      2207           move.l d7, d1
       0x0064c82a      5381           subq.l 0x1, d1
       0x0064c82c      0c810000000b   cmpi.l 0xb, d1
   < 0x0064c832      6302           bls.b 0x64c836
      0x0064c834      4e4f           trap 0xf
   > 0x0064c836      2801           move.l d1, d4
       0x0064c838      761e           moveq 0x1e, d3
       0x0064c83a      4eb900406a74   jsr fcn.00406a74
       0x0064c840      43f00012       lea.l 0x12(a0, d0.w), a1
       0x0064c844      23824846       move.l d2, 0x46(a1, d4.l)
       0x0064c848      5287           addq.l 0x1, d7
       0x0064c84a      be85           cmp.l d5, d7
    < 0x0064c84c      6fda           ble.b 0x64c828
        0x0064c84e      7e01           moveq 0x1, d7
    > 0x0064c850      2207           move.l d7, d1
       0x0064c852      5381           subq.l 0x1, d1
       0x0064c854      0c810000000b   cmpi.l 0xb, d1
   < 0x0064c85a      6302           bls.b 0x64c85e
      0x0064c85c      4e4f           trap 0xf
   > 0x0064c85e      2801           move.l d1, d4
       0x0064c860      761e           moveq 0x1e, d3
       0x0064c862      4eb900406a74   jsr fcn.00406a74
       0x0064c868      43f00012       lea.l 0x12(a0, d0.w), a1
       0x0064c86c      2382484a       move.l d2, 0x4a(a1, d4.l)
       0x0064c870      5287           addq.l 0x1, d7
       0x0064c872      be85           cmp.l d5, d7
    < 0x0064c874      6fda           ble.b 0x64c850
        0x0064c876      43f00012       lea.l 0x12(a0, d0.w), a1
        0x0064c87a      134201c9       move.b d2, 0x1c9(a1)
        0x0064c87e      4ebafd44       jsr K9_LIBRARY.init_retitle_sp(pc)
        0x0064c882      23420040       move.l d2, 0x40(a1)
        0x0064c886      137c00020044   move.b 0x2, 0x44(a1)
        0x0064c88c      426901ae       clr.w 0x1ae(a1)
        0x0064c890      422902cf       clr.b 0x2cf(a1)
        0x0064c894      5206           addq.b 0x1, d6
        0x0064c896      0c060002       cmpi.b 0x2, d6
     < 0x0064c89a      6f00ff5e       ble.w 0x64c7fa
         0x0064c89e      594f           subq.w 0x4, a7
         0x0064c8a0      1f3c0006       move.b 0x6, -(a7)
         0x0064c8a4      4eb9006338f6   jsr HANDCOM.get_point
         0x0064c8aa      544f           addq.w 0x2, a7
         0x0064c8ac      23d700847e3a   move.l (a7), 0x847e3a
         0x0064c8b2      594f           subq.w 0x4, a7
         0x0064c8b4      1f3c0006       move.b 0x6, -(a7)
         0x0064c8b8      4eb9006336ea   jsr HANDCOM.get_area
         0x0064c8be      544f           addq.w 0x2, a7
         0x0064c8c0      249f           move.l (a7)+, (a2)
         0x0064c8c2      269f           move.l (a7)+, (a3)
         0x0064c8c4      303900847e38   move.w 0x847e38, d0
         0x0064c8ca      48c0           ext.l d0
         0x0064c8cc      048000000080   subi.l 0x80, d0
         0x0064c8d2      0480ffff8000   subi.l 0xffff8000, d0
         0x0064c8d8      0c800000ffff   cmpi.l 0xffff, d0
     < 0x0064c8de      6302           bls.b 0x64c8e2
        0x0064c8e0      4e4f           trap 0xf
     > 0x0064c8e2      0680ffff8000   addi.l 0xffff8000, d0
         0x0064c8e8      33c000847e38   move.w d0, 0x847e38
         0x0064c8ee      423900847e42   clr.b 0x847e42
         0x0064c8f4      4eb900650b78   jsr K91_LIBOPS.k91_init
         0x0064c8fa      2f13           move.l (a3), -(a7)
         0x0064c8fc      2f12           move.l (a2), -(a7)
         0x0064c8fe      4eb90065acb0   jsr K92_DISPLAY.k92_init
         0x0064c904      584f           addq.w 0x4, a7
         0x0064c906      2e93           move.l (a3), (a7)
         0x0064c908      2f12           move.l (a2), -(a7)
         0x0064c90a      4eb900664214   jsr K95_CARDS.k95_init
         0x0064c910      5c4f           addq.w 0x6, a7
         0x0064c912      1e82           move.b d2, (a7)
         0x0064c914      1f3c0007       move.b 0x7, -(a7)
         0x0064c918      4227           clr.b -(a7)
         0x0064c91a      4eb900659646   jsr K92_DISPLAY.k92_title_line
         0x0064c920      5c4f           addq.w 0x6, a7
         0x0064c922      33fcffff0084.  move.w 0xffff, 0x8486b4.l
         0x0064c92a      4cdf1fff       movem.l (a7)+, d0-d7/a0-a4
         0x0064c92e      4e5e           unlk a6
