            ;-- MENUFETTLECOM:
            0x00748828      .byte 0x00
            0x00748829      .byte 0x88
            0x0074882a      .byte 0x00
            0x0074882b      .byte 0x46
            0x0074882c      .byte 0x00
            0x0074882d      .byte 0xd2
            0x0074882e      .byte 0x00
            0x0074882f      .byte 0x51
            0x00748830      .byte 0x00
            0x00748831      .byte 0x80
            0x00748832      .byte 0x00
            0x00748833      .byte 0x80
            0x00748834      .byte 0x00
            0x00748835      .byte 0x3c
            0x00748836      .byte 0x00
            0x00748837      .byte 0x80
            0x00748838      .byte 0x00
            0x00748839      .byte 0x80
            0x0074883a      .byte 0x00
            0x0074883b      .byte 0x32
            0x0074883c      .byte 0x00
            0x0074883d      .byte 0x80
            0x0074883e      .byte 0x00
            0x0074883f      .byte 0x80
            0x00748840      .byte 0x00
            0x00748841      .byte 0x10
            0x00748842      .byte 0x00
            0x00748843      .byte 0x80
            0x00748844      .byte 0x00
            0x00748845      .byte 0x80
            0x00748846      .byte 0x00
            0x00748847      .byte 0xa7
            0x00748848      .byte 0x00
            0x00748849      .byte 0x72
            0x0074884a      .byte 0x00
            0x0074884b      .byte 0x9e
            0x0074884c      .byte 0x00
            0x0074884d      .byte 0xbf
            0x0074884e      .byte 0x00
            0x0074884f      .byte 0x80
            0x00748850      .byte 0x00
            0x00748851      .byte 0x80
            0x00748852      .byte 0x00
            0x00748853      .byte 0xa0
            0x00748854      .byte 0x00
            0x00748855      .byte 0x96
            0x00748856      .byte 0x00
            0x00748857      .byte 0x74
            0x00748858      .byte 0x00
            0x00748859      .byte 0x23
            0x0074885a      .byte 0x00
            0x0074885b      .byte 0xf0
            0x0074885c      .byte 0x00
            0x0074885d      .byte 0x6e
            0x0074885e      .byte 0x00
            0x0074885f      .byte 0x8c
            0x00748860      .byte 0x00
            0x00748861      .byte 0x6e
            0x00748862      .byte 0x00
            0x00748863      .byte 0x6e
            0x00748864      .byte 0x00
            0x00748865      .byte 0xc4
            0x00748866      .byte 0x00
            0x00748867      .byte 0x31
            0x00748868      .byte 0x00
            0x00748869      .byte 0x8c
            0x0074886a      .byte 0x00
            0x0074886b      .byte 0xa8
            0x0074886c      .byte 0x00
            0x0074886d      .byte 0x28
            0x0074886e      .byte 0x00
            0x0074886f      .byte 0xb1
            0x00748870      .byte 0x00
            0x00748871      .byte 0x00
            0x00748872      .byte 0x00
            0x00748873      .byte 0x80
            0x00748874      .byte 0x00
            0x00748875      .byte 0x80
            0x00748876      .byte 0x00
            0x00748877      .byte 0xff
            0x00748878      .byte 0x00
            0x00748879      .byte 0x80
            0x0074887a      .byte 0x00
            0x0074887b      .byte 0x80
            0x0074887c      .byte 0x00
            0x0074887d      .byte 0xcc
            0x0074887e      .byte 0x00
            0x0074887f      .byte 0x80
            0x00748880      .byte 0x00
            0x00748881      .byte 0x80
            0x00748882      .byte 0x00
            0x00748883      .byte 0xad
            0x00748884      .byte 0x00
            0x00748885      .byte 0x80
            0x00748886      .byte 0x00
            0x00748887      .byte 0x80
            0x00748888      .byte 0x00
            0x00748889      .byte 0xeb
            0x0074888a      .byte 0x00
            0x0074888b      .byte 0x80
            0x0074888c      .byte 0x00
            0x0074888d      .byte 0x80
            0x0074888e      .byte 0x00
            0x0074888f      .byte 0x10
            0x00748890      .byte 0x00
            0x00748891      .byte 0x80
            0x00748892      .byte 0x00
            0x00748893      .byte 0x80
            0x00748894      .byte 0x00
            0x00748895      .byte 0x80
            0x00748896      .byte 0x00
            0x00748897      .byte 0x80
            0x00748898      .byte 0x00
            0x00748899      .byte 0x80
            0x0074889a      .byte 0x00
            0x0074889b      .byte 0x51
            0x0074889c      .byte 0x00
            0x0074889d      .byte 0x5a
            0x0074889e      .byte 0x00
            0x0074889f      .byte 0xf0
            0x007488a0      .byte 0x00
            0x007488a1      .byte 0xd2
            0x007488a2      .byte 0x00
            0x007488a3      .byte 0x10
            0x007488a4      .byte 0x00
            0x007488a5      .byte 0x92
            0x007488a6      .byte 0x00
            0x007488a7      .byte 0x29
            0x007488a8      .byte 0x00
            0x007488a9      .byte 0xf0
            0x007488aa      .byte 0x00
            0x007488ab      .byte 0x6e
            0x007488ac      .byte 0x00
            0x007488ad      .byte 0x91
            0x007488ae      .byte 0x00
            0x007488af      .byte 0x36
            0x007488b0      .byte 0x00
            0x007488b1      .byte 0x22
            0x007488b2      .byte 0x00
            0x007488b3      .byte 0xa2
            0x007488b4      .byte 0x00
            0x007488b5      .byte 0x2c
            0x007488b6      .byte 0x00
            0x007488b7      .byte 0x8e
            0x007488b8      .byte 0x00
            0x007488b9      .byte 0x83
            0x007488ba      .byte 0x00
            0x007488bb      .byte 0x9c
            0x007488bc      .byte 0x00
            0x007488bd      .byte 0x2c
            0x007488be      .byte 0x00
            0x007488bf      .byte 0x70
            0x007488c0      .byte 0x00
            0x007488c1      .byte 0x48
            0x007488c2      .byte 0x00
            0x007488c3      .byte 0x3a
            0x007488c4      .byte 0x00
            0x007488c5      .byte 0x54
            0x007488c6      .byte 0x00
            0x007488c7      .byte 0xb8
            0x007488c8      .byte 0x00
            0x007488c9      .byte 0xc6
            0x007488ca      .byte 0x00
            0x007488cb      .byte 0x41
            0x007488cc      .byte 0x00
            0x007488cd      .byte 0x64
            0x007488ce      .byte 0x00
            0x007488cf      .byte 0xd4
            0x007488d0      .byte 0x00
            0x007488d1      .byte 0x23
            0x007488d2      .byte 0x00
            0x007488d3      .byte 0xd4
            0x007488d4      .byte 0x00
            0x007488d5      .byte 0x72
            0x007488d6      .byte 0x00
            0x007488d7      .byte 0xd2
            0x007488d8      .byte 0x00
            0x007488d9      .byte 0x10
            0x007488da      .byte 0x00
            0x007488db      .byte 0x92
            0x007488dc      .byte 0x00
            0x007488dd      .byte 0xaa
            0x007488de      .byte 0x00
            0x007488df      .byte 0xa6
            0x007488e0      .byte 0x00
            0x007488e1      .byte 0x10
            0x007488e2      .byte 0x00
            0x007488e3      .byte 0x91
            0x007488e4      .byte 0x00
            0x007488e5      .byte 0x36
            0x007488e6      .byte 0x00
            0x007488e7      .byte 0x22
            0x007488e8      .byte 0x00
            0x007488e9      .byte 0x6a
            0x007488ea      .byte 0x00
            0x007488eb      .byte 0xca
            0x007488ec      .byte 0x00
            0x007488ed      .byte 0xde
            0x007488ee      .byte 0x00
            0x007488ef      .byte 0x51
            0x007488f0      .byte 0x00
            0x007488f1      .byte 0x5a
            0x007488f2      .byte 0x00
            0x007488f3      .byte 0xf0
            0x007488f4      .byte 0x00
            0x007488f5      .byte 0x29
            0x007488f6      .byte 0x00
            0x007488f7      .byte 0xf0
            0x007488f8      .byte 0x00
            0x007488f9      .byte 0x6e
            0x007488fa      .byte 0x00
            0x007488fb      .byte 0x00
            0x007488fc      .byte 0x00
            0x007488fd      .byte 0x00
            0x007488fe      .byte 0x00
            0x007488ff      .byte 0x00
            0x00748900      .byte 0x00
            0x00748901      .byte 0x00
            0x00748902      .byte 0x00
            0x00748903      .byte 0x00
            0x00748904      .byte 0x02
            0x00748905      .byte 0xc7
            0x00748906      .byte 0x01
            0x00748907      .byte 0xe5
            0x00748908      .byte 0x03
            0x00748909      .byte 0x00
            0x0074890a      .byte 0x01
            0x0074890b      .byte 0xe4
            0x0074890c      .byte 0x02
            0x0074890d      .byte 0xbd
            0x0074890e      .byte 0x02
            0x0074890f      .byte 0x3f
            0x00748910      .byte 0x01
            0x00748911      .byte 0x00
            0x00748912      .byte 0x00
            0x00748913      .byte 0x00
            0x00748914      .byte 0x00
            0x00748915      .byte 0x00
            0x00748916      .byte 0x00
            0x00748917      .byte 0x00
            0x00748918      .byte 0x00
            0x00748919      .byte 0x00
            0x0074891a      .byte 0x3f
            0x0074891b      .byte 0x80
            0x0074891c      .byte 0x00
            0x0074891d      .byte 0x00
            0x0074891e      .byte 0x3f
            0x0074891f      .byte 0x80
            0x00748920      .byte 0x00
            0x00748921      .byte 0x00
            0x00748922      .byte 0x00
            0x00748923      .byte 0x07
            0x00748924      .byte 0x00
            0x00748925      .byte 0x00
            0x00748926      .byte 0x00
            0x00748927      .byte 0x00
            0x00748928      .byte 0x00
            0x00748929      .byte 0x00
            0x0074892a      .byte 0x01
            0x0074892b      .byte 0x00
            0x0074892c      .byte 0x00
            0x0074892d      .byte 0x00
            0x0074892e      .byte 0x00
            0x0074892f      .byte 0x00
            0x00748930      .byte 0x00
            0x00748931      .byte 0x00
            0x00748932      .byte 0x00
            0x00748933      .byte 0x00
            0x00748934      .byte 0x3f
            0x00748935      .byte 0x80
            0x00748936      .byte 0x00
            0x00748937      .byte 0x00
            0x00748938      .byte 0x3f
            0x00748939      .byte 0x80
            0x0074893a      .byte 0x00
            0x0074893b      .byte 0x00
            0x0074893c      .byte 0x03
            0x0074893d      .byte 0x00
            0x0074893e      .byte 0x00
            0x0074893f      .byte 0x00
            0x00748940      .byte 0x00
            0x00748941      .byte 0x80
            0x00748942      .byte 0x00
            0x00748943      .byte 0x00
            0x00748944      .byte 0x00
            0x00748945      .byte 0x00
            0x00748946      .byte 0x00
            0x00748947      .byte 0x00
            0x00748948      .byte 0x00
            0x00748949      .byte 0x00
            0x0074894a      .byte 0x00
            0x0074894b      .byte 0x00
            0x0074894c      .byte 0x00
            0x0074894d      .byte 0x80
            0x0074894e      .byte 0x18
            0x0074894f     .string "Bad colour curves format" ; len=24
            0x00748967      .byte 0x00
            0x00748968      .byte 0x00
            0x00748969      .byte 0x00
            0x0074896a      .byte 0x00
            0x0074896b      .byte 0x80
            0x0074896c      .byte 0x00
            0x0074896d      .byte 0xeb
            0x0074896e      .byte 0x00
            0x0074896f      .byte 0x80
            0x00748970      .byte 0x00
            0x00748971      .byte 0x80
            0x00748972      .byte 0x00
            0x00748973      .byte 0xa2
            0x00748974      .byte 0x00
            0x00748975      .byte 0x2c
            0x00748976      .byte 0x00
            0x00748977      .byte 0x8e
            0x00748978      .byte 0x00
            0x00748979      .byte 0x83
            0x0074897a      .byte 0x00
            0x0074897b      .byte 0x9c
            0x0074897c      .byte 0x00
            0x0074897d      .byte 0x2c
            0x0074897e      .byte 0x00
            0x0074897f      .byte 0xeb
            0x00748980      .byte 0x00
            0x00748981      .byte 0x80
            0x00748982      .byte 0x00
            0x00748983      .byte 0x80
            0x00748984      .byte 0x00
            0x00748985      .byte 0x23
            0x00748986      .byte 0x00
            0x00748987      .byte 0xd4
            0x00748988      .byte 0x00
            0x00748989      .byte 0x72
            0x0074898a      .byte 0x00
            0x0074898b      .byte 0x41
            0x0074898c      .byte 0x00
            0x0074898d      .byte 0x64
            0x0074898e      .byte 0x00
            0x0074898f      .byte 0xd4
            0x00748990      .byte 0x12
            0x00748991      .byte 0x00
            0x00748992      .byte 0x00
            0x00748993      .byte 0x00
            0x00748994      .byte 0x00
            0x00748995      .byte 0x00
            0x00748996      .byte 0x00
            0x00748997      .byte 0x00
            0x00748998      .byte 0x00
            0x00748999      .byte 0x00
            0x0074899a      .byte 0x00
            0x0074899b      .byte 0x00
            0x0074899c      .byte 0x00
            0x0074899d      .byte 0x00
            0x0074899e      .byte 0x00
            0x0074899f      .byte 0x00
            0x007489a0      .byte 0x00
            0x007489a1      .byte 0x00
            0x007489a2      .byte 0x00
            0x007489a3      .byte 0x00
            0x007489a4      .byte 0x00
            0x007489a5      .byte 0x00
            0x007489a6      .byte 0x00
            0x007489a7      .byte 0x00
            0x007489a8      .byte 0x00
            0x007489a9      .byte 0x00
            0x007489aa      .byte 0x00
            0x007489ab      .byte 0x00
            0x007489ac      .byte 0x00
            0x007489ad      .byte 0x00
            0x007489ae      .byte 0x00
            0x007489af      .byte 0x00
            0x007489b0      .byte 0x1d
            0x007489b1     .string "fettle data already allocated" ; len=29
            0x007489ce      .byte 0x00
            0x007489cf      .byte 0x00
            0x007489d0      .byte 0x00
            0x007489d1      .byte 0x80
            0x007489d2      .byte 0x00
            0x007489d3      .byte 0x00
            0x007489d4      .byte 0x00
            0x007489d5      .byte 0x80
            0x007489d6      .byte 0x09
            0x007489d7     .string "Heap full" ; len=9
            0x007489e0      .byte 0x00
            0x007489e1      .byte 0x00
            0x007489e2      .byte 0x00
            0x007489e3      .byte 0x80
            0x007489e4      .byte 0x00
            0x007489e5      .byte 0x00
            0x007489e6      .byte 0x00
            0x007489e7      .byte 0x80
            0x007489e8      .byte 0x00
            0x007489e9      .byte 0x00
            0x007489ea      .byte 0x00
            0x007489eb      .byte 0x80
            0x007489ec      .byte 0x00
            0x007489ed      .byte 0x00
            0x007489ee      .byte 0x00
            0x007489ef      .byte 0x00
            0x007489f0      .byte 0x00
            0x007489f1      .byte 0x00
            0x007489f2      .byte 0x00
            0x007489f3      .byte 0x00
            0x007489f4      .byte 0x03
            0x007489f5     .string "red" ; len=3
            0x007489f8      .byte 0x2c
            0x007489f9     .string "le data already allocated)" ; len=26
            0x00748a13      .byte 0x00
            0x00748a14      .byte 0x00
            0x00748a15      .byte 0x00
            0x00748a16      .byte 0x00
            0x00748a17      .byte 0x00
            0x00748a18      .byte 0x00
            0x00748a19      .byte 0x00
            0x00748a1a      .byte 0x00
            0x00748a1b      .byte 0x00
            0x00748a1c      .byte 0x00
            0x00748a1d      .byte 0x00
            0x00748a1e      .byte 0x00
            0x00748a1f      .byte 0x00
            0x00748a20      .byte 0x00
            0x00748a21      .byte 0x00
            0x00748a22      .byte 0x00
            0x00748a23      .byte 0x00
            0x00748a24      .byte 0x00
            0x00748a25      .byte 0x00
            0x00748a26      .byte 0x00
            0x00748a27      .byte 0x00
            0x00748a28      .byte 0x00
            0x00748a29      .byte 0x00
            0x00748a2a      .byte 0x00
            0x00748a2b      .byte 0x00
            0x00748a2c      .byte 0x00
            0x00748a2d      .byte 0x00
            0x00748a2e      .byte 0x00
            0x00748a2f      .byte 0x00
            0x00748a30      .byte 0x00
            0x00748a31      .byte 0x00
            0x00748a32      .byte 0x00
            0x00748a33      .byte 0x00
            0x00748a34      .byte 0x00
            0x00748a35      .byte 0x00
            0x00748a36      .byte 0x00
            0x00748a37      .byte 0x00
            0x00748a38      .byte 0x00
            0x00748a39      .byte 0x00
            0x00748a3a      .byte 0x00
            0x00748a3b      .byte 0x00
            0x00748a3c      .byte 0x00
            0x00748a3d      .byte 0x00
            0x00748a3e      .byte 0x00
            0x00748a3f      .byte 0x00
            0x00748a40      .byte 0x00
            0x00748a41      .byte 0x00
            0x00748a42      .byte 0x00
            0x00748a43      .byte 0x00
            0x00748a44      .byte 0x00
            0x00748a45      .byte 0x00
            0x00748a46      .byte 0x00
            0x00748a47      .byte 0x00
            0x00748a48      .byte 0x00
            0x00748a49      .byte 0x00
            0x00748a4a      .byte 0x00
            0x00748a4b      .byte 0x00
            0x00748a4c      .byte 0x00
            0x00748a4d      .byte 0x00
            0x00748a4e      .byte 0x00
            0x00748a4f      .byte 0x00
            0x00748a50      .byte 0x00
            0x00748a51      .byte 0x00
            0x00748a52      .byte 0x00
            0x00748a53      .byte 0x00
            0x00748a54      .byte 0x00
            0x00748a55      .byte 0x00
            0x00748a56      .byte 0x00
            0x00748a57      .byte 0x00
            0x00748a58      .byte 0x00
            0x00748a59      .byte 0x00
            0x00748a5a      .byte 0x00
            0x00748a5b      .byte 0x00
            0x00748a5c      .byte 0x00
            0x00748a5d      .byte 0x00
            0x00748a5e      .byte 0x00
            0x00748a5f      .byte 0x00
            0x00748a60      .byte 0x00
            0x00748a61      .byte 0x00
            0x00748a62      .byte 0x00
            0x00748a63      .byte 0x00
            0x00748a64      .byte 0x00
            0x00748a65      .byte 0x00
            0x00748a66      .byte 0x00
            0x00748a67      .byte 0x00
            0x00748a68      .byte 0x00
            0x00748a69      .byte 0x00
            0x00748a6a      .byte 0x00
            0x00748a6b      .byte 0x00
            0x00748a6c      .byte 0x00
            0x00748a6d      .byte 0x00
            0x00748a6e      .byte 0x00
            0x00748a6f      .byte 0x00
            0x00748a70      .byte 0x00
            0x00748a71      .byte 0x00
            0x00748a72      .byte 0x00
            0x00748a73      .byte 0x00
            0x00748a74      .byte 0x00
            0x00748a75      .byte 0x00
            0x00748a76      .byte 0x00
            0x00748a77      .byte 0x00
            0x00748a78      .byte 0x00
            0x00748a79      .byte 0x00
            0x00748a7a      .byte 0x00
            0x00748a7b      .byte 0x00
            0x00748a7c      .byte 0x00
            0x00748a7d      .byte 0x00
            0x00748a7e      .byte 0x00
            0x00748a7f      .byte 0x00
            0x00748a80      .byte 0x00
            0x00748a81      .byte 0x00
            0x00748a82      .byte 0x00
            0x00748a83      .byte 0x00
            0x00748a84      .byte 0x00
            0x00748a85      .byte 0x00
            0x00748a86      .byte 0x00
            0x00748a87      .byte 0x00
            0x00748a88      .byte 0x00
            0x00748a89      .byte 0x00
            0x00748a8a      .byte 0x00
            0x00748a8b      .byte 0x00
            0x00748a8c      .byte 0x00
            0x00748a8d      .byte 0x00
            0x00748a8e      .byte 0x00
            0x00748a8f      .byte 0x00
            0x00748a90      .byte 0x00
            0x00748a91      .byte 0x00
            0x00748a92      .byte 0x00
            0x00748a93      .byte 0x00
            0x00748a94      .byte 0x00
            0x00748a95      .byte 0x00
            0x00748a96      .byte 0x00
            0x00748a97      .byte 0x00
            0x00748a98      .byte 0x00
            0x00748a99      .byte 0x00
            0x00748a9a      .byte 0x00
            0x00748a9b      .byte 0x00
            0x00748a9c      .byte 0x00
            0x00748a9d      .byte 0x00
            0x00748a9e      .byte 0x00
            0x00748a9f      .byte 0x00
            0x00748aa0      .byte 0x00
            0x00748aa1      .byte 0x00
            0x00748aa2      .byte 0x00
            0x00748aa3      .byte 0x00
            0x00748aa4      .byte 0x00
            0x00748aa5      .byte 0x00
            0x00748aa6      .byte 0x00
            0x00748aa7      .byte 0x6c
            0x00748aa8      .byte 0x0b
            0x00748aa9      .byte 0x00
            0x00748aaa      .byte 0x00
            0x00748aab      .byte 0x01
            0x00748aac      .byte 0x00
            0x00748aad      .byte 0x00
            0x00748aae      .byte 0x00
            0x00748aaf      .byte 0x62
            0x00748ab0      .byte 0x01
            0x00748ab1      .byte 0x00
            0x00748ab2      .byte 0x00
            0x00748ab3      .byte 0x30
            0x00748ab4      .byte 0x2c
            0x00748ab5      .byte 0x00
            0x00748ab6      .byte 0x00
            0x00748ab7      .byte 0x01
            0x00748ab8      .byte 0x00
            0x00748ab9      .byte 0x00
            0x00748aba      .byte 0x00
            0x00748abb      .byte 0xef
            0x00748abc      .byte 0x03
            0x00748abd      .byte 0x00
            0x00748abe      .byte 0x00
            0x00748abf      .byte 0x31
            0x00748ac0      .byte 0x2c
            0x00748ac1      .byte 0x00
            0x00748ac2      .byte 0x00
            0x00748ac3      .byte 0x01
            0x00748ac4      .byte 0x00
            0x00748ac5      .byte 0x00
            0x00748ac6      .byte 0x00
            0x00748ac7      .byte 0xf0
            0x00748ac8      .byte 0x03
            0x00748ac9      .byte 0x00
            0x00748aca      .byte 0x00
            0x00748acb      .byte 0x32
            0x00748acc      .byte 0x2c
            0x00748acd      .byte 0x00
            0x00748ace      .byte 0x00
            0x00748acf      .byte 0x01
            0x00748ad0      .byte 0x00
            0x00748ad1      .byte 0x00
            0x00748ad2      .byte 0x00
            0x00748ad3      .byte 0xf1
            0x00748ad4      .byte 0x03
            0x00748ad5      .byte 0x00
            0x00748ad6      .byte 0x00
            0x00748ad7      .byte 0x33
            0x00748ad8      .byte 0x2c
            0x00748ad9      .byte 0x00
            0x00748ada      .byte 0x00
            0x00748adb      .byte 0x01
            0x00748adc      .byte 0x00
            0x00748add      .byte 0x00
            0x00748ade      .byte 0x00
            0x00748adf      .byte 0xf2
            0x00748ae0      .byte 0x03
            0x00748ae1      .byte 0x00
            0x00748ae2      .byte 0x00
            0x00748ae3      .byte 0x71
            0x00748ae4      .byte 0x06
            0x00748ae5      .byte 0x00
            0x00748ae6      .byte 0x00
            0x00748ae7      .byte 0x01
            0x00748ae8      .byte 0x00
            0x00748ae9      .byte 0x00
            0x00748aea      .byte 0x00
            0x00748aeb      .byte 0xd1
            0x00748aec      .byte 0x00
            0x00748aed      .byte 0x00
            0x00748aee      .byte 0x00
            0x00748aef      .byte 0x34
            0x00748af0      .byte 0x2c
            0x00748af1      .byte 0x00
            0x00748af2      .byte 0x00
            0x00748af3      .byte 0x01
            0x00748af4      .byte 0x04
            0x00748af5     .string "blue" ; len=4
            0x00748af9      .byte 0x2c
            0x00748afa     .string "full) curves format)" ; len=20
            0x00748b0e      .byte 0x00
            0x00748b0f      .byte 0x00
            0x00748b10      .byte 0x00
            0x00748b11      .byte 0x00
            0x00748b12      .byte 0x00
            0x00748b13      .byte 0x00
            0x00748b14      .byte 0x00
            0x00748b15      .byte 0x00
            0x00748b16      .byte 0x00
            0x00748b17      .byte 0x00
            0x00748b18      .byte 0x00
            0x00748b19      .byte 0x00
            0x00748b1a      .byte 0x00
            0x00748b1b      .byte 0x00
            0x00748b1c      .byte 0x00
            0x00748b1d      .byte 0x00
            0x00748b1e      .byte 0x00
            0x00748b1f      .byte 0x00
            0x00748b20      .byte 0x00
            0x00748b21      .byte 0x00
            0x00748b22      .byte 0x00
            0x00748b23      .byte 0x00
            0x00748b24      .byte 0x00
            0x00748b25      .byte 0x00
            0x00748b26      .byte 0x00
            0x00748b27      .byte 0x00
            0x00748b28      .byte 0x00
            0x00748b29      .byte 0x00
            0x00748b2a      .byte 0x00
            0x00748b2b      .byte 0x00
            0x00748b2c      .byte 0x00
            0x00748b2d      .byte 0x00
            0x00748b2e      .byte 0x00
            0x00748b2f      .byte 0x00
            0x00748b30      .byte 0x00
            0x00748b31      .byte 0x00
            0x00748b32      .byte 0x00
            0x00748b33      .byte 0x00
            0x00748b34      .byte 0x00
            0x00748b35      .byte 0x00
            0x00748b36      .byte 0x00
            0x00748b37      .byte 0x00
            0x00748b38      .byte 0x00
            0x00748b39      .byte 0x00
            0x00748b3a      .byte 0x00
            0x00748b3b      .byte 0x00
            0x00748b3c      .byte 0x00
            0x00748b3d      .byte 0x00
            0x00748b3e      .byte 0x00
            0x00748b3f      .byte 0x00
            0x00748b40      .byte 0x00
            0x00748b41      .byte 0x00
            0x00748b42      .byte 0x00
            0x00748b43      .byte 0x00
            0x00748b44      .byte 0x00
            0x00748b45      .byte 0x00
            0x00748b46      .byte 0x00
            0x00748b47      .byte 0x00
            0x00748b48      .byte 0x00
            0x00748b49      .byte 0x00
            0x00748b4a      .byte 0x00
            0x00748b4b      .byte 0x00
            0x00748b4c      .byte 0x00
            0x00748b4d      .byte 0x00
            0x00748b4e      .byte 0x00
            0x00748b4f      .byte 0x00
            0x00748b50      .byte 0x00
            0x00748b51      .byte 0x00
            0x00748b52      .byte 0x00
            0x00748b53      .byte 0x00
            0x00748b54      .byte 0x00
            0x00748b55      .byte 0x00
            0x00748b56      .byte 0x00
            0x00748b57      .byte 0x00
            0x00748b58      .byte 0x00
            0x00748b59      .byte 0x00
            0x00748b5a      .byte 0x00
            0x00748b5b      .byte 0x00
            0x00748b5c      .byte 0x00
            0x00748b5d      .byte 0x00
            0x00748b5e      .byte 0x00
            0x00748b5f      .byte 0x00
            0x00748b60      .byte 0x00
            0x00748b61      .byte 0x00
            0x00748b62      .byte 0x00
            0x00748b63      .byte 0x00
            0x00748b64      .byte 0x00
            0x00748b65      .byte 0x00
            0x00748b66      .byte 0x00
            0x00748b67      .byte 0x00
            0x00748b68      .byte 0x00
            0x00748b69      .byte 0x00
            0x00748b6a      .byte 0x00
            0x00748b6b      .byte 0x00
            0x00748b6c      .byte 0x00
            0x00748b6d      .byte 0x00
            0x00748b6e      .byte 0x00
            0x00748b6f      .byte 0x00
            0x00748b70      .byte 0x00
            0x00748b71      .byte 0x00
            0x00748b72      .byte 0x00
            0x00748b73      .byte 0x00
            0x00748b74      .byte 0x00
            0x00748b75      .byte 0x00
            0x00748b76      .byte 0x00
            0x00748b77      .byte 0x00
            0x00748b78      .byte 0x00
            0x00748b79      .byte 0x00
            0x00748b7a      .byte 0x00
            0x00748b7b      .byte 0x00
            0x00748b7c      .byte 0x00
            0x00748b7d      .byte 0x00
            0x00748b7e      .byte 0x00
            0x00748b7f      .byte 0x00
            0x00748b80      .byte 0x00
            0x00748b81      .byte 0x00
            0x00748b82      .byte 0x00
            0x00748b83      .byte 0x00
            0x00748b84      .byte 0x00
            0x00748b85      .byte 0x00
            0x00748b86      .byte 0x00
            0x00748b87      .byte 0x00
            0x00748b88      .byte 0x00
            0x00748b89      .byte 0x00
            0x00748b8a      .byte 0x00
            0x00748b8b      .byte 0x00
            0x00748b8c      .byte 0x00
            0x00748b8d      .byte 0x00
            0x00748b8e      .byte 0x00
            0x00748b8f      .byte 0x00
            0x00748b90      .byte 0x00
            0x00748b91      .byte 0x00
            0x00748b92      .byte 0x00
            0x00748b93      .byte 0x00
            0x00748b94      .byte 0x00
            0x00748b95      .byte 0x04
            0x00748b96     .string "cyan" ; len=4
            0x00748b9a      .byte 0x2c
            0x00748b9b     .string "e data already allocated)" ; len=25
            0x00748bb4      .byte 0x00
            0x00748bb5      .byte 0x00
            0x00748bb6      .byte 0x00
            0x00748bb7      .byte 0x00
            0x00748bb8      .byte 0x00
            0x00748bb9      .byte 0x00
            0x00748bba      .byte 0x00
            0x00748bbb      .byte 0x00
            0x00748bbc      .byte 0x00
            0x00748bbd      .byte 0x00
            0x00748bbe      .byte 0x00
            0x00748bbf      .byte 0x00
            0x00748bc0      .byte 0x00
            0x00748bc1      .byte 0x00
            0x00748bc2      .byte 0x00
            0x00748bc3      .byte 0x00
            0x00748bc4      .byte 0x00
            0x00748bc5      .byte 0x00
            0x00748bc6      .byte 0x00
            0x00748bc7      .byte 0x00
            0x00748bc8      .byte 0x00
            0x00748bc9      .byte 0x00
            0x00748bca      .byte 0x00
            0x00748bcb      .byte 0x00
            0x00748bcc      .byte 0x00
            0x00748bcd      .byte 0x00
            0x00748bce      .byte 0x00
            0x00748bcf      .byte 0x00
            0x00748bd0      .byte 0x00
            0x00748bd1      .byte 0x00
            0x00748bd2      .byte 0x00
            0x00748bd3      .byte 0x00
            0x00748bd4      .byte 0x00
            0x00748bd5      .byte 0x00
            0x00748bd6      .byte 0x00
            0x00748bd7      .byte 0x00
            0x00748bd8      .byte 0x00
            0x00748bd9      .byte 0x00
            0x00748bda      .byte 0x00
            0x00748bdb      .byte 0x00
            0x00748bdc      .byte 0x00
            0x00748bdd      .byte 0x00
            0x00748bde      .byte 0x00
            0x00748bdf      .byte 0x00
            0x00748be0      .byte 0x00
            0x00748be1      .byte 0x00
            0x00748be2      .byte 0x00
            0x00748be3      .byte 0x00
            0x00748be4      .byte 0x00
            0x00748be5      .byte 0x00
            0x00748be6      .byte 0x00
            0x00748be7      .byte 0x00
            0x00748be8      .byte 0x00
            0x00748be9      .byte 0x00
            0x00748bea      .byte 0x00
            0x00748beb      .byte 0x00
            0x00748bec      .byte 0x00
            0x00748bed      .byte 0x00
            0x00748bee      .byte 0x00
            0x00748bef      .byte 0x00
            0x00748bf0      .byte 0x00
            0x00748bf1      .byte 0x00
            0x00748bf2      .byte 0x00
            0x00748bf3      .byte 0x00
            0x00748bf4      .byte 0x04
            0x00748bf5     .string "cyan" ; len=4
            0x00748bf9      .byte 0x2c
            0x00748bfa     .string "e data already allocated)" ; len=25
            0x00748c13      .byte 0x00
            0x00748c14      .byte 0x00
            0x00748c15      .byte 0x00
            0x00748c16      .byte 0x00
            0x00748c17      .byte 0x00
            0x00748c18      .byte 0x00
            0x00748c19      .byte 0x00
            0x00748c1a      .byte 0x00
            0x00748c1b      .byte 0x00
            0x00748c1c      .byte 0x00
            0x00748c1d      .byte 0x00
            0x00748c1e      .byte 0x00
            0x00748c1f      .byte 0x00
            0x00748c20      .byte 0x00
            0x00748c21      .byte 0x00
            0x00748c22      .byte 0x00
            0x00748c23      .byte 0x00
            0x00748c24      .byte 0x00
            0x00748c25      .byte 0x00
            0x00748c26      .byte 0x00
            0x00748c27      .byte 0x00
            0x00748c28      .byte 0x00
            0x00748c29      .byte 0x00
            0x00748c2a      .byte 0x00
            0x00748c2b      .byte 0x00
            0x00748c2c      .byte 0x00
            0x00748c2d      .byte 0x00
            0x00748c2e      .byte 0x00
            0x00748c2f      .byte 0x00
            0x00748c30      .byte 0x00
            0x00748c31      .byte 0x00
            0x00748c32      .byte 0x00
            0x00748c33      .byte 0x00
            0x00748c34      .byte 0x00
            0x00748c35      .byte 0x00
            0x00748c36      .byte 0x00
            0x00748c37      .byte 0x00
            0x00748c38      .byte 0x00
            0x00748c39      .byte 0x00
            0x00748c3a      .byte 0x00
            0x00748c3b      .byte 0x00
            0x00748c3c      .byte 0x00
            0x00748c3d      .byte 0x00
            0x00748c3e      .byte 0x00
            0x00748c3f      .byte 0x00
            0x00748c40      .byte 0x00
            0x00748c41      .byte 0x00
            0x00748c42      .byte 0x00
            0x00748c43      .byte 0x00
            0x00748c44      .byte 0x00
            0x00748c45      .byte 0x00
            0x00748c46      .byte 0x00
            0x00748c47      .byte 0x00
            0x00748c48      .byte 0x00
            0x00748c49      .byte 0x00
            0x00748c4a      .byte 0x00
            0x00748c4b      .byte 0x00
            0x00748c4c      .byte 0x00
            0x00748c4d      .byte 0x00
            0x00748c4e      .byte 0x00
            0x00748c4f      .byte 0x00
            0x00748c50      .byte 0x00
            0x00748c51      .byte 0x00
            0x00748c52      .byte 0x00
            0x00748c53      .byte 0x00
            0x00748c54      .byte 0x00
            0x00748c55      .byte 0x00
            0x00748c56      .byte 0x00
            0x00748c57      .byte 0x00
            0x00748c58      .byte 0x00
            0x00748c59      .byte 0x00
            0x00748c5a      .byte 0x00
            0x00748c5b      .byte 0x00
            0x00748c5c      .byte 0x00
            0x00748c5d      .byte 0x00
            0x00748c5e      .byte 0x00
            0x00748c5f      .byte 0x00
            0x00748c60      .byte 0x00
            0x00748c61      .byte 0x00
            0x00748c62      .byte 0x00
            0x00748c63      .byte 0x00
            0x00748c64      .byte 0x00
            0x00748c65      .byte 0x00
            0x00748c66      .byte 0x00
            0x00748c67      .byte 0x00
            0x00748c68      .byte 0x00
            0x00748c69      .byte 0x00
            0x00748c6a      .byte 0x00
            0x00748c6b      .byte 0x00
            0x00748c6c      .byte 0x00
            0x00748c6d      .byte 0x00
            0x00748c6e      .byte 0x00
            0x00748c6f      .byte 0x00
            0x00748c70      .byte 0x00
            0x00748c71      .byte 0x00
            0x00748c72      .byte 0x00
            0x00748c73      .byte 0x00
            0x00748c74      .byte 0x00
            0x00748c75      .byte 0x00
            0x00748c76      .byte 0x00
            0x00748c77      .byte 0x00
            0x00748c78      .byte 0x00
            0x00748c79      .byte 0x00
            0x00748c7a      .byte 0x00
            0x00748c7b      .byte 0x00
            0x00748c7c      .byte 0x00
            0x00748c7d      .byte 0x00
            0x00748c7e      .byte 0x00
            0x00748c7f      .byte 0x00
            0x00748c80      .byte 0x00
            0x00748c81      .byte 0x00
            0x00748c82      .byte 0x00
            0x00748c83      .byte 0x00
            0x00748c84      .byte 0x00
            0x00748c85      .byte 0x00
            0x00748c86      .byte 0x00
            0x00748c87      .byte 0x00
            0x00748c88      .byte 0x00
            0x00748c89      .byte 0x00
            0x00748c8a      .byte 0x00
            0x00748c8b      .byte 0x00
            0x00748c8c      .byte 0x00
            0x00748c8d      .byte 0x00
            0x00748c8e      .byte 0x00
            0x00748c8f      .byte 0x00
            0x00748c90      .byte 0x00
            0x00748c91      .byte 0x00
            0x00748c92      .byte 0x00
            0x00748c93      .byte 0x00
            0x00748c94      .byte 0x00
            0x00748c95      .byte 0x00
            0x00748c96      .byte 0x00
            0x00748c97      .byte 0x00
            0x00748c98      .byte 0x00
            0x00748c99      .byte 0x00
            0x00748c9a      .byte 0x00
            0x00748c9b      .byte 0x00
            0x00748c9c      .byte 0x00
            0x00748c9d      .byte 0x00
            0x00748c9e      .byte 0x00
            0x00748c9f      .byte 0x00
            0x00748ca0      .byte 0x00
            0x00748ca1      .byte 0x00
            0x00748ca2      .byte 0x00
            0x00748ca3      .byte 0x00
            0x00748ca4      .byte 0x00
            0x00748ca5      .byte 0x00
            0x00748ca6      .byte 0x00
            0x00748ca7      .byte 0x6c
            0x00748ca8      .byte 0x0b
            0x00748ca9      .byte 0x00
            0x00748caa      .byte 0x00
            0x00748cab      .byte 0x01
            0x00748cac      .byte 0x00
            0x00748cad      .byte 0x00
            0x00748cae      .byte 0x00
            0x00748caf      .byte 0x62
            0x00748cb0      .byte 0x01
            0x00748cb1      .byte 0x00
            0x00748cb2      .byte 0x00
            0x00748cb3      .byte 0x30
            0x00748cb4      .byte 0x2c
            0x00748cb5      .byte 0x00
            0x00748cb6      .byte 0x00
            0x00748cb7      .byte 0x01
            0x00748cb8      .byte 0x00
            0x00748cb9      .byte 0x00
            0x00748cba      .byte 0x00
            0x00748cbb      .byte 0xef
            0x00748cbc      .byte 0x03
            0x00748cbd      .byte 0x00
            0x00748cbe      .byte 0x00
            0x00748cbf      .byte 0x31
            0x00748cc0      .byte 0x2c
            0x00748cc1      .byte 0x00
            0x00748cc2      .byte 0x00
            0x00748cc3      .byte 0x01
            0x00748cc4      .byte 0x00
            0x00748cc5      .byte 0x00
            0x00748cc6      .byte 0x00
            0x00748cc7      .byte 0xf0
            0x00748cc8      .byte 0x03
            0x00748cc9      .byte 0x00
            0x00748cca      .byte 0x00
            0x00748ccb      .byte 0x32
            0x00748ccc      .byte 0x2c
            0x00748ccd      .byte 0x00
            0x00748cce      .byte 0x00
            0x00748ccf      .byte 0x01
            0x00748cd0      .byte 0x00
            0x00748cd1      .byte 0x00
            0x00748cd2      .byte 0x00
            0x00748cd3      .byte 0xf1
            0x00748cd4      .byte 0x03
            0x00748cd5      .byte 0x00
            0x00748cd6      .byte 0x00
            0x00748cd7      .byte 0x33
            0x00748cd8      .byte 0x2c
            0x00748cd9      .byte 0x00
            0x00748cda      .byte 0x00
            0x00748cdb      .byte 0x01
            0x00748cdc      .byte 0x00
            0x00748cdd      .byte 0x00
            0x00748cde      .byte 0x00
            0x00748cdf      .byte 0xf2
            0x00748ce0      .byte 0x03
            0x00748ce1      .byte 0x00
            0x00748ce2      .byte 0x00
            0x00748ce3      .byte 0x71
            0x00748ce4      .byte 0x06
            0x00748ce5      .byte 0x00
            0x00748ce6      .byte 0x00
            0x00748ce7      .byte 0x01
            0x00748ce8      .byte 0x00
            0x00748ce9      .byte 0x00
            0x00748cea      .byte 0x00
            0x00748ceb      .byte 0xd1
            0x00748cec      .byte 0x00
            0x00748ced      .byte 0x00
            0x00748cee      .byte 0x00
            0x00748cef      .byte 0x34
            0x00748cf0      .byte 0x2c
            0x00748cf1      .byte 0x00
            0x00748cf2      .byte 0x00
            0x00748cf3      .byte 0x01
            0x00748cf4      .byte 0x0a
            0x00748cf5     .string "<<y<ello<w" ; len=10
            0x00748cff      .byte 0x29
            0x00748d00     .string "curves format)" ; len=14
            0x00748d0e      .byte 0x00
            0x00748d0f      .byte 0x00
            0x00748d10      .byte 0x00
            0x00748d11      .byte 0x00
            0x00748d12      .byte 0x00
            0x00748d13      .byte 0x00
            0x00748d14      .byte 0x00
            0x00748d15      .byte 0x00
            0x00748d16      .byte 0x00
            0x00748d17      .byte 0x00
            0x00748d18      .byte 0x00
            0x00748d19      .byte 0x00
            0x00748d1a      .byte 0x00
            0x00748d1b      .byte 0x00
            0x00748d1c      .byte 0x00
            0x00748d1d      .byte 0x00
            0x00748d1e      .byte 0x00
            0x00748d1f      .byte 0x00
            0x00748d20      .byte 0x00
            0x00748d21      .byte 0x00
            0x00748d22      .byte 0x00
            0x00748d23      .byte 0x00
            0x00748d24      .byte 0x00
            0x00748d25      .byte 0x00
            0x00748d26      .byte 0x00
            0x00748d27      .byte 0x00
            0x00748d28      .byte 0x00
            0x00748d29      .byte 0x00
            0x00748d2a      .byte 0x00
            0x00748d2b      .byte 0x00
            0x00748d2c      .byte 0x00
            0x00748d2d      .byte 0x00
            0x00748d2e      .byte 0x00
            0x00748d2f      .byte 0x00
            0x00748d30      .byte 0x00
            0x00748d31      .byte 0x00
            0x00748d32      .byte 0x00
            0x00748d33      .byte 0x00
            0x00748d34      .byte 0x00
            0x00748d35      .byte 0x00
            0x00748d36      .byte 0x00
            0x00748d37      .byte 0x00
            0x00748d38      .byte 0x00
            0x00748d39      .byte 0x00
            0x00748d3a      .byte 0x00
            0x00748d3b      .byte 0x00
            0x00748d3c      .byte 0x00
            0x00748d3d      .byte 0x00
            0x00748d3e      .byte 0x00
            0x00748d3f      .byte 0x00
            0x00748d40      .byte 0x00
            0x00748d41      .byte 0x00
            0x00748d42      .byte 0x00
            0x00748d43      .byte 0x00
            0x00748d44      .byte 0x00
            0x00748d45      .byte 0x00
            0x00748d46      .byte 0x00
            0x00748d47      .byte 0x00
            0x00748d48      .byte 0x00
            0x00748d49      .byte 0x00
            0x00748d4a      .byte 0x00
            0x00748d4b      .byte 0x00
            0x00748d4c      .byte 0x00
            0x00748d4d      .byte 0x00
            0x00748d4e      .byte 0x00
            0x00748d4f      .byte 0x00
            0x00748d50      .byte 0x00
            0x00748d51      .byte 0x00
            0x00748d52      .byte 0x00
            0x00748d53      .byte 0x00
            0x00748d54      .byte 0x00
            0x00748d55      .byte 0x00
            0x00748d56      .byte 0x00
            0x00748d57      .byte 0x00
            0x00748d58      .byte 0x00
            0x00748d59      .byte 0x00
            0x00748d5a      .byte 0x00
            0x00748d5b      .byte 0x00
            0x00748d5c      .byte 0x00
            0x00748d5d      .byte 0x00
            0x00748d5e      .byte 0x00
            0x00748d5f      .byte 0x00
            0x00748d60      .byte 0x00
            0x00748d61      .byte 0x00
            0x00748d62      .byte 0x00
            0x00748d63      .byte 0x00
            0x00748d64      .byte 0x00
            0x00748d65      .byte 0x00
            0x00748d66      .byte 0x00
            0x00748d67      .byte 0x00
            0x00748d68      .byte 0x00
            0x00748d69      .byte 0x00
            0x00748d6a      .byte 0x00
            0x00748d6b      .byte 0x00
            0x00748d6c      .byte 0x00
            0x00748d6d      .byte 0x00
            0x00748d6e      .byte 0x00
            0x00748d6f      .byte 0x00
            0x00748d70      .byte 0x00
            0x00748d71      .byte 0x00
            0x00748d72      .byte 0x00
            0x00748d73      .byte 0x00
            0x00748d74      .byte 0x00
            0x00748d75      .byte 0x00
            0x00748d76      .byte 0x00
            0x00748d77      .byte 0x00
            0x00748d78      .byte 0x00
            0x00748d79      .byte 0x00
            0x00748d7a      .byte 0x00
            0x00748d7b      .byte 0x00
            0x00748d7c      .byte 0x00
            0x00748d7d      .byte 0x00
            0x00748d7e      .byte 0x00
            0x00748d7f      .byte 0x00
            0x00748d80      .byte 0x00
            0x00748d81      .byte 0x00
            0x00748d82      .byte 0x00
            0x00748d83      .byte 0x00
            0x00748d84      .byte 0x00
            0x00748d85      .byte 0x00
            0x00748d86      .byte 0x00
            0x00748d87      .byte 0x00
            0x00748d88      .byte 0x00
            0x00748d89      .byte 0x00
            0x00748d8a      .byte 0x00
            0x00748d8b      .byte 0x00
            0x00748d8c      .byte 0x00
            0x00748d8d      .byte 0x00
            0x00748d8e      .byte 0x00
            0x00748d8f      .byte 0x00
            0x00748d90      .byte 0x00
            0x00748d91      .byte 0x00
            0x00748d92      .byte 0x00
            0x00748d93      .byte 0x00
            0x00748d94      .byte 0x00
            0x00748d95      .byte 0x04
            0x00748d96     .string "cyan" ; len=4
            0x00748d9a      .byte 0x2c
            0x00748d9b     .string "e data already allocated)" ; len=25
            0x00748db4      .byte 0x00
            0x00748db5      .byte 0x00
            0x00748db6      .byte 0x00
            0x00748db7      .byte 0x00
            0x00748db8      .byte 0x00
            0x00748db9      .byte 0x00
            0x00748dba      .byte 0x00
            0x00748dbb      .byte 0x00
            0x00748dbc      .byte 0x00
            0x00748dbd      .byte 0x00
            0x00748dbe      .byte 0x00
            0x00748dbf      .byte 0x00
            0x00748dc0      .byte 0x00
            0x00748dc1      .byte 0x00
            0x00748dc2      .byte 0x00
            0x00748dc3      .byte 0x00
            0x00748dc4      .byte 0x00
            0x00748dc5      .byte 0x00
            0x00748dc6      .byte 0x00
            0x00748dc7      .byte 0x00
            0x00748dc8      .byte 0x00
            0x00748dc9      .byte 0x00
            0x00748dca      .byte 0x00
            0x00748dcb      .byte 0x00
            0x00748dcc      .byte 0x00
            0x00748dcd      .byte 0x00
            0x00748dce      .byte 0x00
            0x00748dcf      .byte 0x00
            0x00748dd0      .byte 0x00
            0x00748dd1      .byte 0x00
            0x00748dd2      .byte 0x00
            0x00748dd3      .byte 0x00
            0x00748dd4      .byte 0x00
            0x00748dd5      .byte 0x00
            0x00748dd6      .byte 0x00
            0x00748dd7      .byte 0x00
            0x00748dd8      .byte 0x00
            0x00748dd9      .byte 0x00
            0x00748dda      .byte 0x00
            0x00748ddb      .byte 0x00
            0x00748ddc      .byte 0x00
            0x00748ddd      .byte 0x00
            0x00748dde      .byte 0x00
            0x00748ddf      .byte 0x00
            0x00748de0      .byte 0x00
            0x00748de1      .byte 0x00
            0x00748de2      .byte 0x00
            0x00748de3      .byte 0x00
            0x00748de4      .byte 0x00
            0x00748de5      .byte 0x00
            0x00748de6      .byte 0x00
            0x00748de7      .byte 0x00
            0x00748de8      .byte 0x00
            0x00748de9      .byte 0x00
            0x00748dea      .byte 0x00
            0x00748deb      .byte 0x00
            0x00748dec      .byte 0x00
            0x00748ded      .byte 0x00
            0x00748dee      .byte 0x00
            0x00748def      .byte 0x00
            0x00748df0      .byte 0x00
            0x00748df1      .byte 0x00
            0x00748df2      .byte 0x00
            0x00748df3      .byte 0x00
            0x00748df4      .byte 0x06
            0x00748df5     .string "R/C>>>" ; len=6
            0x00748dfb      .byte 0x2c
            0x00748dfc     .string "data already allocated)" ; len=23
            0x00748e13      .byte 0x00
            0x00748e14      .byte 0x00
            0x00748e15      .byte 0x00
            0x00748e16      .byte 0x00
            0x00748e17      .byte 0x00
            0x00748e18      .byte 0x00
            0x00748e19      .byte 0x00
            0x00748e1a      .byte 0x00
            0x00748e1b      .byte 0x00
            0x00748e1c      .byte 0x00
            0x00748e1d      .byte 0x00
            0x00748e1e      .byte 0x00
            0x00748e1f      .byte 0x00
            0x00748e20      .byte 0x00
            0x00748e21      .byte 0x00
            0x00748e22      .byte 0x00
            0x00748e23      .byte 0x00
            0x00748e24      .byte 0x00
            0x00748e25      .byte 0x00
            0x00748e26      .byte 0x00
            0x00748e27      .byte 0x00
            0x00748e28      .byte 0x00
            0x00748e29      .byte 0x00
            0x00748e2a      .byte 0x00
            0x00748e2b      .byte 0x00
            0x00748e2c      .byte 0x00
            0x00748e2d      .byte 0x00
            0x00748e2e      .byte 0x00
            0x00748e2f      .byte 0x00
            0x00748e30      .byte 0x00
            0x00748e31      .byte 0x00
            0x00748e32      .byte 0x00
            0x00748e33      .byte 0x00
            0x00748e34      .byte 0x00
            0x00748e35      .byte 0x00
            0x00748e36      .byte 0x00
            0x00748e37      .byte 0x00
            0x00748e38      .byte 0x00
            0x00748e39      .byte 0x00
            0x00748e3a      .byte 0x00
            0x00748e3b      .byte 0x00
            0x00748e3c      .byte 0x00
            0x00748e3d      .byte 0x00
            0x00748e3e      .byte 0x00
            0x00748e3f      .byte 0x00
            0x00748e40      .byte 0x00
            0x00748e41      .byte 0x00
            0x00748e42      .byte 0x00
            0x00748e43      .byte 0x00
            0x00748e44      .byte 0x00
            0x00748e45      .byte 0x00
            0x00748e46      .byte 0x00
            0x00748e47      .byte 0x00
            0x00748e48      .byte 0x00
            0x00748e49      .byte 0x00
            0x00748e4a      .byte 0x00
            0x00748e4b      .byte 0x00
            0x00748e4c      .byte 0x00
            0x00748e4d      .byte 0x00
            0x00748e4e      .byte 0x00
            0x00748e4f      .byte 0x00
            0x00748e50      .byte 0x00
            0x00748e51      .byte 0x00
            0x00748e52      .byte 0x00
            0x00748e53      .byte 0x00
            0x00748e54      .byte 0x00
            0x00748e55      .byte 0x00
            0x00748e56      .byte 0x00
            0x00748e57      .byte 0x00
            0x00748e58      .byte 0x00
            0x00748e59      .byte 0x00
            0x00748e5a      .byte 0x00
            0x00748e5b      .byte 0x00
            0x00748e5c      .byte 0x00
            0x00748e5d      .byte 0x00
            0x00748e5e      .byte 0x00
            0x00748e5f      .byte 0x00
            0x00748e60      .byte 0x00
            0x00748e61      .byte 0x00
            0x00748e62      .byte 0x00
            0x00748e63      .byte 0x00
            0x00748e64      .byte 0x00
            0x00748e65      .byte 0x00
            0x00748e66      .byte 0x00
            0x00748e67      .byte 0x00
            0x00748e68      .byte 0x00
            0x00748e69      .byte 0x00
            0x00748e6a      .byte 0x00
            0x00748e6b      .byte 0x00
            0x00748e6c      .byte 0x00
            0x00748e6d      .byte 0x00
            0x00748e6e      .byte 0x00
            0x00748e6f      .byte 0x00
            0x00748e70      .byte 0x00
            0x00748e71      .byte 0x00
            0x00748e72      .byte 0x00
            0x00748e73      .byte 0x00
            0x00748e74      .byte 0x00
            0x00748e75      .byte 0x00
            0x00748e76      .byte 0x00
            0x00748e77      .byte 0x00
            0x00748e78      .byte 0x00
            0x00748e79      .byte 0x00
            0x00748e7a      .byte 0x00
            0x00748e7b      .byte 0x00
            0x00748e7c      .byte 0x00
            0x00748e7d      .byte 0x00
            0x00748e7e      .byte 0x00
            0x00748e7f      .byte 0x00
            0x00748e80      .byte 0x00
            0x00748e81      .byte 0x00
            0x00748e82      .byte 0x00
            0x00748e83      .byte 0x00
            0x00748e84      .byte 0x00
            0x00748e85      .byte 0x00
            0x00748e86      .byte 0x00
            0x00748e87      .byte 0x00
            0x00748e88      .byte 0x00
            0x00748e89      .byte 0x00
            0x00748e8a      .byte 0x00
            0x00748e8b      .byte 0x00
            0x00748e8c      .byte 0x00
            0x00748e8d      .byte 0x00
            0x00748e8e      .byte 0x00
            0x00748e8f      .byte 0x00
            0x00748e90      .byte 0x00
            0x00748e91      .byte 0x00
            0x00748e92      .byte 0x00
            0x00748e93      .byte 0x00
            0x00748e94      .byte 0x00
            0x00748e95      .byte 0x00
            0x00748e96      .byte 0x00
            0x00748e97      .byte 0x00
            0x00748e98      .byte 0x00
            0x00748e99      .byte 0x00
            0x00748e9a      .byte 0x00
            0x00748e9b      .byte 0x00
            0x00748e9c      .byte 0x00
            0x00748e9d      .byte 0x00
            0x00748e9e      .byte 0x00
            0x00748e9f      .byte 0x00
            0x00748ea0      .byte 0x00
            0x00748ea1      .byte 0x00
            0x00748ea2      .byte 0x00
            0x00748ea3      .byte 0x00
            0x00748ea4      .byte 0x00
            0x00748ea5      .byte 0x00
            0x00748ea6      .byte 0x00
            0x00748ea7      .byte 0x6c
            0x00748ea8      .byte 0x0b
            0x00748ea9      .byte 0x00
            0x00748eaa      .byte 0x00
            0x00748eab      .byte 0x01
            0x00748eac      .byte 0x00
            0x00748ead      .byte 0x00
            0x00748eae      .byte 0x00
            0x00748eaf      .byte 0x62
            0x00748eb0      .byte 0x01
            0x00748eb1      .byte 0x00
            0x00748eb2      .byte 0x00
            0x00748eb3      .byte 0x30
            0x00748eb4      .byte 0x2c
            0x00748eb5      .byte 0x00
            0x00748eb6      .byte 0x00
            0x00748eb7      .byte 0x01
            0x00748eb8      .byte 0x00
            0x00748eb9      .byte 0x00
            0x00748eba      .byte 0x00
            0x00748ebb      .byte 0xef
            0x00748ebc      .byte 0x03
            0x00748ebd      .byte 0x00
            0x00748ebe      .byte 0x00
            0x00748ebf      .byte 0x31
            0x00748ec0      .byte 0x2c
            0x00748ec1      .byte 0x00
            0x00748ec2      .byte 0x00
            0x00748ec3      .byte 0x01
            0x00748ec4      .byte 0x00
            0x00748ec5      .byte 0x00
            0x00748ec6      .byte 0x00
            0x00748ec7      .byte 0xf0
            0x00748ec8      .byte 0x03
            0x00748ec9      .byte 0x00
            0x00748eca      .byte 0x00
            0x00748ecb      .byte 0x32
            0x00748ecc      .byte 0x2c
            0x00748ecd      .byte 0x00
            0x00748ece      .byte 0x00
            0x00748ecf      .byte 0x01
            0x00748ed0      .byte 0x00
            0x00748ed1      .byte 0x00
            0x00748ed2      .byte 0x00
            0x00748ed3      .byte 0xf1
            0x00748ed4      .byte 0x03
            0x00748ed5      .byte 0x00
            0x00748ed6      .byte 0x00
            0x00748ed7      .byte 0x33
            0x00748ed8      .byte 0x2c
            0x00748ed9      .byte 0x00
            0x00748eda      .byte 0x00
            0x00748edb      .byte 0x01
            0x00748edc      .byte 0x00
            0x00748edd      .byte 0x00
            0x00748ede      .byte 0x00
            0x00748edf      .byte 0xf2
            0x00748ee0      .byte 0x03
            0x00748ee1      .byte 0x00
            0x00748ee2      .byte 0x00
            0x00748ee3      .byte 0x71
            0x00748ee4      .byte 0x06
            0x00748ee5      .byte 0x00
            0x00748ee6      .byte 0x00
            0x00748ee7      .byte 0x01
            0x00748ee8      .byte 0x00
            0x00748ee9      .byte 0x00
            0x00748eea      .byte 0x00
            0x00748eeb      .byte 0xd1
            0x00748eec      .byte 0x00
            0x00748eed      .byte 0x00
            0x00748eee      .byte 0x00
            0x00748eef      .byte 0x34
            0x00748ef0      .byte 0x2c
            0x00748ef1      .byte 0x00
            0x00748ef2      .byte 0x00
            0x00748ef3      .byte 0x01
            0x00748ef4      .byte 0x06
            0x00748ef5     .string "G/M>>>" ; len=6
            0x00748efb      .byte 0x2c
            0x00748efc     .string "o<w)curves format)" ; len=18
            0x00748f0e      .byte 0x00
            0x00748f0f      .byte 0x00
            0x00748f10      .byte 0x00
            0x00748f11      .byte 0x00
            0x00748f12      .byte 0x00
            0x00748f13      .byte 0x00
            0x00748f14      .byte 0x00
            0x00748f15      .byte 0x00
            0x00748f16      .byte 0x00
            0x00748f17      .byte 0x00
            0x00748f18      .byte 0x00
            0x00748f19      .byte 0x00
            0x00748f1a      .byte 0x00
            0x00748f1b      .byte 0x00
            0x00748f1c      .byte 0x00
            0x00748f1d      .byte 0x00
            0x00748f1e      .byte 0x00
            0x00748f1f      .byte 0x00
            0x00748f20      .byte 0x00
            0x00748f21      .byte 0x00
            0x00748f22      .byte 0x00
            0x00748f23      .byte 0x00
            0x00748f24      .byte 0x00
            0x00748f25      .byte 0x00
            0x00748f26      .byte 0x00
            0x00748f27      .byte 0x00
            0x00748f28      .byte 0x00
            0x00748f29      .byte 0x00
            0x00748f2a      .byte 0x00
            0x00748f2b      .byte 0x00
            0x00748f2c      .byte 0x00
            0x00748f2d      .byte 0x00
            0x00748f2e      .byte 0x00
            0x00748f2f      .byte 0x00
            0x00748f30      .byte 0x00
            0x00748f31      .byte 0x00
            0x00748f32      .byte 0x00
            0x00748f33      .byte 0x00
            0x00748f34      .byte 0x00
            0x00748f35      .byte 0x00
            0x00748f36      .byte 0x00
            0x00748f37      .byte 0x00
            0x00748f38      .byte 0x00
            0x00748f39      .byte 0x00
            0x00748f3a      .byte 0x00
            0x00748f3b      .byte 0x00
            0x00748f3c      .byte 0x00
            0x00748f3d      .byte 0x00
            0x00748f3e      .byte 0x00
            0x00748f3f      .byte 0x00
            0x00748f40      .byte 0x00
            0x00748f41      .byte 0x00
            0x00748f42      .byte 0x00
            0x00748f43      .byte 0x00
            0x00748f44      .byte 0x00
            0x00748f45      .byte 0x00
            0x00748f46      .byte 0x00
            0x00748f47      .byte 0x00
            0x00748f48      .byte 0x00
            0x00748f49      .byte 0x00
            0x00748f4a      .byte 0x00
            0x00748f4b      .byte 0x00
            0x00748f4c      .byte 0x00
            0x00748f4d      .byte 0x00
            0x00748f4e      .byte 0x00
            0x00748f4f      .byte 0x00
            0x00748f50      .byte 0x00
            0x00748f51      .byte 0x00
            0x00748f52      .byte 0x00
            0x00748f53      .byte 0x00
            0x00748f54      .byte 0x00
            0x00748f55      .byte 0x00
            0x00748f56      .byte 0x00
            0x00748f57      .byte 0x00
            0x00748f58      .byte 0x00
            0x00748f59      .byte 0x00
            0x00748f5a      .byte 0x00
            0x00748f5b      .byte 0x00
            0x00748f5c      .byte 0x00
            0x00748f5d      .byte 0x00
            0x00748f5e      .byte 0x00
            0x00748f5f      .byte 0x00
            0x00748f60      .byte 0x00
            0x00748f61      .byte 0x00
            0x00748f62      .byte 0x00
            0x00748f63      .byte 0x00
            0x00748f64      .byte 0x00
            0x00748f65      .byte 0x00
            0x00748f66      .byte 0x00
            0x00748f67      .byte 0x00
            0x00748f68      .byte 0x00
            0x00748f69      .byte 0x00
            0x00748f6a      .byte 0x00
            0x00748f6b      .byte 0x00
            0x00748f6c      .byte 0x00
            0x00748f6d      .byte 0x00
            0x00748f6e      .byte 0x00
            0x00748f6f      .byte 0x00
            0x00748f70      .byte 0x00
            0x00748f71      .byte 0x00
            0x00748f72      .byte 0x00
            0x00748f73      .byte 0x00
            0x00748f74      .byte 0x00
            0x00748f75      .byte 0x00
            0x00748f76      .byte 0x00
            0x00748f77      .byte 0x00
            0x00748f78      .byte 0x00
            0x00748f79      .byte 0x00
            0x00748f7a      .byte 0x00
            0x00748f7b      .byte 0x00
            0x00748f7c      .byte 0x00
            0x00748f7d      .byte 0x00
            0x00748f7e      .byte 0x00
            0x00748f7f      .byte 0x00
            0x00748f80      .byte 0x00
            0x00748f81      .byte 0x00
            0x00748f82      .byte 0x00
            0x00748f83      .byte 0x00
            0x00748f84      .byte 0x00
            0x00748f85      .byte 0x00
            0x00748f86      .byte 0x00
            0x00748f87      .byte 0x00
            0x00748f88      .byte 0x00
            0x00748f89      .byte 0x00
            0x00748f8a      .byte 0x00
            0x00748f8b      .byte 0x00
            0x00748f8c      .byte 0x00
            0x00748f8d      .byte 0x00
            0x00748f8e      .byte 0x00
            0x00748f8f      .byte 0x00
            0x00748f90      .byte 0x00
            0x00748f91      .byte 0x00
            0x00748f92      .byte 0x00
            0x00748f93      .byte 0x00
            0x00748f94      .byte 0x00
            0x00748f95      .byte 0x06
            0x00748f96     .string "B/Y>>>" ; len=6
            0x00748f9c      .byte 0x29
            0x00748f9d     .string "data already allocated)" ; len=23
            0x00748fb4      .byte 0x00
            0x00748fb5      .byte 0x00
            0x00748fb6      .byte 0x00
            0x00748fb7      .byte 0x00
            0x00748fb8      .byte 0x00
            0x00748fb9      .byte 0x00
            0x00748fba      .byte 0x00
            0x00748fbb      .byte 0x00
            0x00748fbc      .byte 0x00
            0x00748fbd      .byte 0x00
            0x00748fbe      .byte 0x00
            0x00748fbf      .byte 0x00
            0x00748fc0      .byte 0x00
            0x00748fc1      .byte 0x00
            0x00748fc2      .byte 0x00
            0x00748fc3      .byte 0x00
            0x00748fc4      .byte 0x00
            0x00748fc5      .byte 0x00
            0x00748fc6      .byte 0x00
            0x00748fc7      .byte 0x00
            0x00748fc8      .byte 0x00
            0x00748fc9      .byte 0x00
            0x00748fca      .byte 0x00
            0x00748fcb      .byte 0x00
            0x00748fcc      .byte 0x00
            0x00748fcd      .byte 0x00
            0x00748fce      .byte 0x00
            0x00748fcf      .byte 0x00
            0x00748fd0      .byte 0x00
            0x00748fd1      .byte 0x00
            0x00748fd2      .byte 0x00
            0x00748fd3      .byte 0x00
            0x00748fd4      .byte 0x00
            0x00748fd5      .byte 0x00
            0x00748fd6      .byte 0x00
            0x00748fd7      .byte 0x00
            0x00748fd8      .byte 0x00
            0x00748fd9      .byte 0x00
            0x00748fda      .byte 0x00
            0x00748fdb      .byte 0x00
            0x00748fdc      .byte 0x00
            0x00748fdd      .byte 0x00
            0x00748fde      .byte 0x00
            0x00748fdf      .byte 0x00
            0x00748fe0      .byte 0x00
            0x00748fe1      .byte 0x00
            0x00748fe2      .byte 0x00
            0x00748fe3      .byte 0x00
            0x00748fe4      .byte 0x00
            0x00748fe5      .byte 0x00
            0x00748fe6      .byte 0x00
            0x00748fe7      .byte 0x00
            0x00748fe8      .byte 0x00
            0x00748fe9      .byte 0x00
            0x00748fea      .byte 0x00
            0x00748feb      .byte 0x00
            0x00748fec      .byte 0x00
            0x00748fed      .byte 0x00
            0x00748fee      .byte 0x00
            0x00748fef      .byte 0x00
            0x00748ff0      .byte 0x00
            0x00748ff1      .byte 0x00
            0x00748ff2      .byte 0x00
            0x00748ff3      .byte 0x00
            0x00748ff4      .byte 0x06
            0x00748ff5     .string "B/Y>>>" ; len=6
            0x00748ffb      .byte 0x29
            0x00748ffc     .string "data already allocated)" ; len=23
            0x00749013      .byte 0x00
            0x00749014      .byte 0x00
            0x00749015      .byte 0x00
            0x00749016      .byte 0x00
            0x00749017      .byte 0x00
            0x00749018      .byte 0x00
            0x00749019      .byte 0x00
            0x0074901a      .byte 0x00
            0x0074901b      .byte 0x00
            0x0074901c      .byte 0x00
            0x0074901d      .byte 0x00
            0x0074901e      .byte 0x00
            0x0074901f      .byte 0x00
            0x00749020      .byte 0x00
            0x00749021      .byte 0x00
            0x00749022      .byte 0x00
            0x00749023      .byte 0x00
            0x00749024      .byte 0x00
            0x00749025      .byte 0x00
            0x00749026      .byte 0x00
            0x00749027      .byte 0x00
            0x00749028      .byte 0x00
            0x00749029      .byte 0x00
            0x0074902a      .byte 0x00
            0x0074902b      .byte 0x00
            0x0074902c      .byte 0x00
            0x0074902d      .byte 0x00
            0x0074902e      .byte 0x00
            0x0074902f      .byte 0x00
            0x00749030      .byte 0x00
            0x00749031      .byte 0x00
            0x00749032      .byte 0x00
            0x00749033      .byte 0x00
            0x00749034      .byte 0x00
            0x00749035      .byte 0x00
            0x00749036      .byte 0x00
            0x00749037      .byte 0x00
            0x00749038      .byte 0x00
            0x00749039      .byte 0x00
            0x0074903a      .byte 0x00
            0x0074903b      .byte 0x00
            0x0074903c      .byte 0x00
            0x0074903d      .byte 0x00
            0x0074903e      .byte 0x00
            0x0074903f      .byte 0x00
            0x00749040      .byte 0x00
            0x00749041      .byte 0x00
            0x00749042      .byte 0x00
            0x00749043      .byte 0x00
            0x00749044      .byte 0x00
            0x00749045      .byte 0x00
            0x00749046      .byte 0x00
            0x00749047      .byte 0x00
            0x00749048      .byte 0x00
            0x00749049      .byte 0x00
            0x0074904a      .byte 0x00
            0x0074904b      .byte 0x00
            0x0074904c      .byte 0x00
            0x0074904d      .byte 0x00
            0x0074904e      .byte 0x00
            0x0074904f      .byte 0x00
            0x00749050      .byte 0x00
            0x00749051      .byte 0x00
            0x00749052      .byte 0x00
            0x00749053      .byte 0x00
            0x00749054      .byte 0x00
            0x00749055      .byte 0x00
            0x00749056      .byte 0x00
            0x00749057      .byte 0x00
            0x00749058      .byte 0x00
            0x00749059      .byte 0x00
            0x0074905a      .byte 0x00
            0x0074905b      .byte 0x00
            0x0074905c      .byte 0x00
            0x0074905d      .byte 0x00
            0x0074905e      .byte 0x00
            0x0074905f      .byte 0x00
            0x00749060      .byte 0x00
            0x00749061      .byte 0x00
            0x00749062      .byte 0x00
            0x00749063      .byte 0x00
            0x00749064      .byte 0x00
            0x00749065      .byte 0x00
            0x00749066      .byte 0x00
            0x00749067      .byte 0x00
            0x00749068      .byte 0x00
            0x00749069      .byte 0x00
            0x0074906a      .byte 0x00
            0x0074906b      .byte 0x00
            0x0074906c      .byte 0x00
            0x0074906d      .byte 0x00
            0x0074906e      .byte 0x00
            0x0074906f      .byte 0x00
            0x00749070      .byte 0x00
            0x00749071      .byte 0x00
            0x00749072      .byte 0x00
            0x00749073      .byte 0x00
            0x00749074      .byte 0x00
            0x00749075      .byte 0x00
            0x00749076      .byte 0x00
            0x00749077      .byte 0x00
            0x00749078      .byte 0x00
            0x00749079      .byte 0x00
            0x0074907a      .byte 0x00
            0x0074907b      .byte 0x00
            0x0074907c      .byte 0x00
            0x0074907d      .byte 0x00
            0x0074907e      .byte 0x00
            0x0074907f      .byte 0x00
            0x00749080      .byte 0x00
            0x00749081      .byte 0x00
            0x00749082      .byte 0x00
            0x00749083      .byte 0x00
            0x00749084      .byte 0x00
            0x00749085      .byte 0x00
            0x00749086      .byte 0x00
            0x00749087      .byte 0x00
            0x00749088      .byte 0x00
            0x00749089      .byte 0x00
            0x0074908a      .byte 0x00
            0x0074908b      .byte 0x00
            0x0074908c      .byte 0x00
            0x0074908d      .byte 0x00
            0x0074908e      .byte 0x00
            0x0074908f      .byte 0x00
            0x00749090      .byte 0x00
            0x00749091      .byte 0x00
            0x00749092      .byte 0x00
            0x00749093      .byte 0x00
            0x00749094      .byte 0x00
            0x00749095      .byte 0x00
            0x00749096      .byte 0x00
            0x00749097      .byte 0x00
            0x00749098      .byte 0x00
            0x00749099      .byte 0x00
            0x0074909a      .byte 0x00
            0x0074909b      .byte 0x00
            0x0074909c      .byte 0x00
            0x0074909d      .byte 0x00
            0x0074909e      .byte 0x00
            0x0074909f      .byte 0x00
            0x007490a0      .byte 0x00
            0x007490a1      .byte 0x00
            0x007490a2      .byte 0x00
            0x007490a3      .byte 0x00
            0x007490a4      .byte 0x00
            0x007490a5      .byte 0x00
            0x007490a6      .byte 0x00
            0x007490a7      .byte 0x6c
            0x007490a8      .byte 0x0b
            0x007490a9      .byte 0x00
            0x007490aa      .byte 0x00
            0x007490ab      .byte 0x01
            0x007490ac      .byte 0x00
            0x007490ad      .byte 0x00
            0x007490ae      .byte 0x00
            0x007490af      .byte 0x62
            0x007490b0      .byte 0x01
            0x007490b1      .byte 0x00
            0x007490b2      .byte 0x00
            0x007490b3      .byte 0x30
            0x007490b4      .byte 0x2c
            0x007490b5      .byte 0x00
            0x007490b6      .byte 0x00
            0x007490b7      .byte 0x01
            0x007490b8      .byte 0x00
            0x007490b9      .byte 0x00
            0x007490ba      .byte 0x00
            0x007490bb      .byte 0xef
            0x007490bc      .byte 0x03
            0x007490bd      .byte 0x00
            0x007490be      .byte 0x00
            0x007490bf      .byte 0x31
            0x007490c0      .byte 0x2c
            0x007490c1      .byte 0x00
            0x007490c2      .byte 0x00
            0x007490c3      .byte 0x01
            0x007490c4      .byte 0x00
            0x007490c5      .byte 0x00
            0x007490c6      .byte 0x00
            0x007490c7      .byte 0xf0
            0x007490c8      .byte 0x03
            0x007490c9      .byte 0x00
            0x007490ca      .byte 0x00
            0x007490cb      .byte 0x32
            0x007490cc      .byte 0x2c
            0x007490cd      .byte 0x00
            0x007490ce      .byte 0x00
            0x007490cf      .byte 0x01
            0x007490d0      .byte 0x00
            0x007490d1      .byte 0x00
            0x007490d2      .byte 0x00
            0x007490d3      .byte 0xf1
            0x007490d4      .byte 0x03
            0x007490d5      .byte 0x00
            0x007490d6      .byte 0x00
            0x007490d7      .byte 0x33
            0x007490d8      .byte 0x2c
            0x007490d9      .byte 0x00
            0x007490da      .byte 0x00
            0x007490db      .byte 0x01
            0x007490dc      .byte 0x00
            0x007490dd      .byte 0x00
            0x007490de      .byte 0x00
            0x007490df      .byte 0xf2
            0x007490e0      .byte 0x03
            0x007490e1      .byte 0x00
            0x007490e2      .byte 0x00
            0x007490e3      .byte 0x71
            0x007490e4      .byte 0x06
            0x007490e5      .byte 0x00
            0x007490e6      .byte 0x00
            0x007490e7      .byte 0x01
            0x007490e8      .byte 0x00
            0x007490e9      .byte 0x00
            0x007490ea      .byte 0x00
            0x007490eb      .byte 0xd1
            0x007490ec      .byte 0x00
            0x007490ed      .byte 0x00
            0x007490ee      .byte 0x00
            0x007490ef      .byte 0x34
            0x007490f0      .byte 0x2c
            0x007490f1      .byte 0x00
            0x007490f2      .byte 0x00
            0x007490f3      .byte 0x01
            0x007490f4      .byte 0x00
            0x007490f5      .byte 0x00
            0x007490f6      .byte 0x00
            0x007490f7      .byte 0x00
            0x007490f8      .byte 0x00
            0x007490f9      .byte 0x00
            0x007490fa      .byte 0x00
            0x007490fb      .byte 0x00
            0x007490fc      .byte 0x00
            0x007490fd      .byte 0x00
            0x007490fe      .byte 0x00
            0x007490ff      .byte 0x00
            0x00749100      .byte 0x00
            0x00749101      .byte 0x00
            0x00749102      .byte 0x00
            0x00749103      .byte 0x00
            0x00749104      .byte 0x00
            0x00749105      .byte 0x00
            0x00749106      .byte 0x00
            0x00749107      .byte 0x00
            0x00749108      .byte 0x00
            0x00749109      .byte 0x00
            0x0074910a      .byte 0x00
            0x0074910b      .byte 0x00
            0x0074910c      .byte 0x00
            0x0074910d      .byte 0x00
            0x0074910e      .byte 0x00
            0x0074910f      .byte 0x00
            0x00749110      .byte 0x00
            0x00749111      .byte 0x00
            0x00749112      .byte 0x00
            0x00749113      .byte 0x00
            0x00749114      .byte 0x06
            0x00749115     .string "do all" ; len=6
            0x0074911b      .byte 0x09
            0x0074911c     .string "setup all" ; len=9
            0x00749125      .byte 0x02
            0x00749126      .byte 0x2a
            0x00749127      .byte 0x2a
            0x00749128      .byte 0x08
            0x00749129     .string "<<invert" ; len=8
            0x00749131      .byte 0x06
            0x00749132     .string "<<orig" ; len=6
            0x00749138      .byte 0x0a
            0x00749139     .string "brightness" ; len=10
            0x00749143      .byte 0x02
            0x00749144      .byte 0x3e
            0x00749145      .byte 0x3e
            0x00749146      .byte 0x0a
            0x00749147     .string "bright val" ; len=10
            0x00749151      .byte 0x08
            0x00749152     .string "contrast" ; len=8
            0x0074915a      .byte 0x02
            0x0074915b      .byte 0x3e
            0x0074915c      .byte 0x3e
            0x0074915d      .byte 0x08
            0x0074915e     .string "cont val" ; len=8
            0x00749166      .byte 0x0b
            0x00749167     .string "<<c<entre>>" ; len=11
            0x00749172      .byte 0x07
            0x00749173     .string "gamma>>" ; len=7
            0x0074917a      .byte 0x04
            0x0074917b      .byte 0x63
            0x0074917c      .byte 0x61
            0x0074917d      .byte 0x73
            0x0074917e      .byte 0x74
            0x0074917f      .byte 0x03
            0x00749180      .byte 0x73
            0x00749181      .byte 0x61
            0x00749182      .byte 0x74
            0x00749183      .byte 0x02
            0x00749184      .byte 0x3c
            0x00749185      .byte 0x3c
            0x00749186      .byte 0x04
            0x00749187      .byte 0x73
            0x00749188      .byte 0x61
            0x00749189      .byte 0x74
            0x0074918a      .byte 0x20
            0x0074918b      .byte 0x05
            0x0074918c     .string "tryit" ; len=5
            0x00749191      .byte 0x04
            0x00749192      .byte 0x64
            0x00749193      .byte 0x6f
            0x00749194      .byte 0x69
            0x00749195      .byte 0x74
            0x00749196      .byte 0x03
            0x00749197      .byte 0x61
            0x00749198      .byte 0x6c
            0x00749199      .byte 0x6c
            0x0074919a      .byte 0x07
            0x0074919b     .string "<<<lu<m" ; len=7
            0x007491a2      .byte 0x04
            0x007491a3      .byte 0x3c
            0x007491a4      .byte 0x3c
            0x007491a5      .byte 0x42
            0x007491a6      .byte 0x59
            0x007491a7      .byte 0x04
            0x007491a8      .byte 0x3c
            0x007491a9      .byte 0x3c
            0x007491aa      .byte 0x52
            0x007491ab      .byte 0x43
            0x007491ac      .byte 0x02
            0x007491ad      .byte 0x20
            0x007491ae      .byte 0x20
            0x007491af      .byte 0x0c
            0x007491b0      .byte 0x66
            0x007491b1      .byte 0x65
            0x007491b2      .byte 0x74
            0x007491b3      .byte 0x74
            0x007491b4      .byte 0x6c
            0x007491b5      .byte 0x65
            0x007491b6      .byte 0x20
            0x007491b7      .byte 0x67
            0x007491b8      .byte 0x72
            0x007491b9      .byte 0x61
            0x007491ba      .byte 0x70
            0x007491bb      .byte 0x68
            ; CALL XREF from MENUFETTLECOM.do_fettle @ 0x74983c
            ; CALL XREF from MENUFETTLECOM.hit_fettle @ 0x74bf56
 82: MENUFETTLECOM.fettle_set_out ();
           0x007491bc      4e56fff8       link.w a6, 0xfff8
           0x007491c0      bfd5           cmpa.l (a5), a7
       < 0x007491c2      6206           bhi.b 0x7491ca
          0x007491c4      44fc0002       move.w 0x2, ccr
          0x007491c8      4e76           trapv
       > 0x007491ca      defc0008       adda.w 0x8, a7
           0x007491ce      554f           subq.w 0x2, a7
           0x007491d0      3f3c002d       move.w 0x2d, -(a7)
           0x007491d4      4eb900480fc2   jsr MENUCOM.get_boxon
           0x007491da      544f           addq.w 0x2, a7
           0x007491dc      4a1f           tst.b (a7)+
       < 0x007491de      6706           beq.b 0x7491e6
          0x007491e0      1f3c0021       move.b 0x21, -(a7)
      < 0x007491e4      601c           bra.b 0x749202
      > 0x007491e6      554f           subq.w 0x2, a7
          0x007491e8      3f3c002c       move.w 0x2c, -(a7)
          0x007491ec      4eb900480fc2   jsr MENUCOM.get_boxon
          0x007491f2      544f           addq.w 0x2, a7
          0x007491f4      4a1f           tst.b (a7)+
      < 0x007491f6      6706           beq.b 0x7491fe
         0x007491f8      1f3c0020       move.b 0x20, -(a7)
     < 0x007491fc      6004           bra.b 0x749202
     > 0x007491fe      1f3c0001       move.b 0x1, -(a7)
     > 0x00749202      4eb900518dd8   jsr OUTCOM.set_out
           0x00749208      544f           addq.w 0x2, a7
           0x0074920a      4e5e           unlk a6
           0x0074920c      4e75           rts
            ; CALL XREFS from MENUFETTLECOM.do_fettle @ 0x749a62, 0x749aee
 298: MENUFETTLECOM.fettle_buffer_o ();
           0x0074920e      4e56ffbe       link.w a6, 0xffbe
           0x00749212      bfd5           cmpa.l (a5), a7
       < 0x00749214      6206           bhi.b 0x74921c
          0x00749216      44fc0002       move.w 0x2, ccr
          0x0074921a      4e76           trapv
       > 0x0074921c      defc0040       adda.w 0x40, a7
           0x00749220      48e7ffe0       movem.l d0-d7/a0-a2, -(a7)
           0x00749224      43ec000c       lea.l 0xc(a4), a1
           0x00749228      45f90086cb3e   lea.l 0x86cb3e, a2
           0x0074922e      720e           moveq 0xe, d1
           0x00749230      7403           moveq 0x3, d2
           0x00749232      7a04           moveq 0x4, d5
           0x00749234      7c01           moveq 0x1, d6
           0x00749236      4227           clr.b -(a7)
           0x00749238      1f2e0008       move.b 0x8(a6), -(a7)
           0x0074923c      4227           clr.b -(a7)
           0x0074923e      2f2c001e       move.l 0x1e(a4), -(a7)
           0x00749242      2f2c001a       move.l 0x1a(a4), -(a7)
           0x00749246      4eb9005217d8   jsr BRUSHCOM.br_transfer
           0x0074924c      dec1           adda.w d1, a7
           0x0074924e      282c0008       move.l 0x8(a4), d4
           0x00749252      7604           moveq 0x4, d3
           0x00749254      4eb900406b50   jsr fcn.00406b50
           0x0074925a      7e01           moveq 0x1, d7
       > 0x0074925c      48c7           ext.l d7
          0x0074925e      2007           move.l d7, d0
          0x00749260      5380           subq.l 0x1, d0
          0x00749262      b082           cmp.l d2, d0
      < 0x00749264      6302           bls.b 0x749268
         0x00749266      4e4f           trap 0xf
      > 0x00749268      e580           asl.l 0x2, d0
          0x0074926a      204a           movea.l a2, a0
          0x0074926c      41f00800       lea.l (a0, d0.l), a0
          0x00749270      2068072c       movea.l 0x72c(a0), a0
          0x00749274      b1e8fffc       cmpa.l -0x4(a0), a0
      < 0x00749278      6702           beq.b 0x74927c
         0x0074927a      4e4d           trap 0xd
      > 0x0074927c      2f08           move.l a0, -(a7)
          0x0074927e      229f           move.l (a7)+, (a1)
          0x00749280      4851           pea.l (a1)
          0x00749282      2f04           move.l d4, -(a7)
          0x00749284      4eb900517254   jsr fcn.00517254
          0x0074928a      504f           addq.w 0x8, a7
          0x0074928c      5247           addq.w 0x1, d7
          0x0074928e      be45           cmp.w d5, d7
       < 0x00749290      6fca           ble.b 0x74925c
           0x00749292      554f           subq.w 0x2, a7
           0x00749294      4eb900402f52   jsr p_Flagged
           0x0074929a      4a1f           tst.b (a7)+
       < 0x0074929c      670c           beq.b 0x7492aa
          0x0074929e      486c004c       pea.l 0x4c(a4)
          0x007492a2      4eb900404468   jsr fcn.00404468
          0x007492a8      584f           addq.w 0x4, a7
       > 0x007492aa      1f06           move.b d6, -(a7)
           0x007492ac      1f2e0008       move.b 0x8(a6), -(a7)
           0x007492b0      4227           clr.b -(a7)
           0x007492b2      2f2c001e       move.l 0x1e(a4), -(a7)
           0x007492b6      2f2c001a       move.l 0x1a(a4), -(a7)
           0x007492ba      4eb9005217d8   jsr BRUSHCOM.br_transfer
           0x007492c0      dec1           adda.w d1, a7
           0x007492c2      282c0008       move.l 0x8(a4), d4
           0x007492c6      7604           moveq 0x4, d3
           0x007492c8      4eb900406b50   jsr fcn.00406b50
           0x007492ce      7e01           moveq 0x1, d7
       > 0x007492d0      48c7           ext.l d7
          0x007492d2      2007           move.l d7, d0
          0x007492d4      5380           subq.l 0x1, d0
          0x007492d6      b082           cmp.l d2, d0
      < 0x007492d8      6302           bls.b 0x7492dc
         0x007492da      4e4f           trap 0xf
      > 0x007492dc      e580           asl.l 0x2, d0
          0x007492de      204a           movea.l a2, a0
          0x007492e0      41f00800       lea.l (a0, d0.l), a0
          0x007492e4      2068072c       movea.l 0x72c(a0), a0
          0x007492e8      b1e8fffc       cmpa.l -0x4(a0), a0
      < 0x007492ec      6702           beq.b 0x7492f0
         0x007492ee      4e4d           trap 0xd
      > 0x007492f0      2f08           move.l a0, -(a7)
          0x007492f2      229f           move.l (a7)+, (a1)
          0x007492f4      4851           pea.l (a1)
          0x007492f6      41f90086cb96   lea.l 0x86cb96, a0
          0x007492fc      2f08           move.l a0, -(a7)
          0x007492fe      2f04           move.l d4, -(a7)
          0x00749300      4eb9005172b4   jsr fcn.005172b4
          0x00749306      defc000c       adda.w 0xc, a7
          0x0074930a      5247           addq.w 0x1, d7
          0x0074930c      be45           cmp.w d5, d7
       < 0x0074930e      6fc0           ble.b 0x7492d0
           0x00749310      554f           subq.w 0x2, a7
           0x00749312      4eb900402f52   jsr p_Flagged
           0x00749318      101f           move.b (a7)+, d0
           0x0074931a      4880           ext.w d0
           0x0074931c      4186           chk.w d6, d0
           0x0074931e      1880           move.b d0, (a4)
           0x00749320      4a00           tst.b d0
       < 0x00749322      670c           beq.b 0x749330
          0x00749324      486c004c       pea.l 0x4c(a4)
          0x00749328      4eb900404468   jsr fcn.00404468
          0x0074932e      584f           addq.w 0x4, a7
       > 0x00749330      4cdf07ff       movem.l (a7)+, d0-d7/a0-a2
           0x00749334      4e5e           unlk a6
           0x00749336      4e75           rts
            ; XREFS: CALL 0x0074a82e  CALL 0x0074a9c8  CALL 0x0074bb30  
            ; XREFS: CALL 0x0074bc06  CALL 0x0074bd4a  CALL 0x0074bd92  
            ; XREFS: CALL 0x0074bf10  
 2014: MENUFETTLECOM.do_fettle ();
           ; var int32_t var_82h @ a6-0x82
           ; var int32_t var_74h @ a6-0x74
           ; var int32_t var_72h @ a6-0x72
           ; var int32_t var_6ch @ a6-0x6c
           ; var int32_t var_68h @ a6-0x68
           0x00749338      4e56fef2       link.w a6, 0xfef2
           0x0074933c      bfd5           cmpa.l (a5), a7
       < 0x0074933e      6206           bhi.b 0x749346
          0x00749340      44fc0002       move.w 0x2, ccr
          0x00749344      4e76           trapv
       > 0x00749346      defc0078       adda.w 0x78, a7
           0x0074934a      48e7fff8       movem.l d0-d7/a0-a4, -(a7)
           0x0074934e      45eeff90       lea.l -0x70(a6), a2
           0x00749352      47eeff7c       lea.l -0x84(a6), a3
           0x00749356      422eff6a       clr.b -0x96(a6)
           0x0074935a      4a390086cb3e   tst.b 0x86cb3e
       < 0x00749360      6704           beq.b 0x749366
          0x00749362      7c04           moveq 0x4, d6
      < 0x00749364      6002           bra.b 0x749368
      > 0x00749366      7c02           moveq 0x2, d6
      > 0x00749368      4a2e0008       tst.b 0x8(a6)
       < 0x0074936c      660004c0       bne.w 0x74982e
          0x00749370      20790086cb44   movea.l 0x86cb44, a0
          0x00749376      b1e8fffc       cmpa.l -0x4(a0), a0
      < 0x0074937a      6702           beq.b 0x74937e
         0x0074937c      4e4d           trap 0xd
      > 0x0074937e      43eeff94       lea.l -0x6c(a6), a1
          0x00749382      41e80010       lea.l 0x10(a0), a0
          0x00749386      7007           moveq 0x7, d0
      > 0x00749388      12d8           move.b (a0)+, (a1)+
      < 0x0074938a      51c8fffc       dbra d0, 0x749388
          0x0074938e      554f           subq.w 0x2, a7
          0x00749390      3f3c002d       move.w 0x2d, -(a7)
          0x00749394      4eb900480fc2   jsr MENUCOM.get_boxon
          0x0074939a      544f           addq.w 0x2, a7
          0x0074939c      4a1f           tst.b (a7)+
      < 0x0074939e      6706           beq.b 0x7493a6
         0x007493a0      1f3c0002       move.b 0x2, -(a7)
     < 0x007493a4      6002           bra.b 0x7493a8
     > 0x007493a6      4227           clr.b -(a7)
     > 0x007493a8      4eb900518dd8   jsr OUTCOM.set_out
          0x007493ae      544f           addq.w 0x2, a7
          0x007493b0      26b90086cb4c   move.l 0x86cb4c, (a3)
          0x007493b6      2d790086cb50.  move.l 0x86cb50, -0x80(a6)
          0x007493be      3013           move.w (a3), d0
          0x007493c0      48c0           ext.l d0
          0x007493c2      02800000fff8   andi.l 0xfff8, d0
          0x007493c8      0480ffff8000   subi.l 0xffff8000, d0
          0x007493ce      0c800000ffff   cmpi.l 0xffff, d0
      < 0x007493d4      6302           bls.b 0x7493d8
         0x007493d6      4e4f           trap 0xf
      > 0x007493d8      0680ffff8000   addi.l 0xffff8000, d0
          0x007493de      3d40ffa4       move.w d0, -0x5c(a6)
          0x007493e2      3d6eff7effa6   move.w -0x82(a6), -0x5a(a6)
          0x007493e8      4253           clr.w (a3)
          0x007493ea      3d7c0080ff7e   move.w 0x80, -0x82(a6)
          0x007493f0      1f3af51e       move.b 0x748910(pc), -(a7)
          0x007493f4      4eb90063278a   jsr CACHECOM.clear_cache
          0x007493fa      1ebc0002       move.b 0x2, (a7)
          0x007493fe      4227           clr.b -(a7)
          0x00749400      1f3c0004       move.b 0x4, -(a7)
          0x00749404      2f2effa4       move.l -0x5c(a6), -(a7)
          0x00749408      2f2eff80       move.l -0x80(a6), -(a7)
          0x0074940c      2f13           move.l (a3), -(a7)
          0x0074940e      4eb900522722   jsr BRUSHCOM.str_any_str_cop
          0x00749414      defc0012       adda.w 0x12, a7
          0x00749418      2d7c0006c000.  move.l 0x6c000, -0x64(a6)
          0x00749420      2d7c007fc000.  move.l 0x7fc000, -0x60(a6)
          0x00749428      2d6eff94ff8c   move.l -0x6c(a6), -0x74(a6)
          0x0074942e      24aeff98       move.l -0x68(a6), (a2)
          0x00749432      3012           move.w (a2), d0
          0x00749434      48c0           ext.l d0
          0x00749436      81c6           divs.w d6, d0
          0x00749438      48c0           ext.l d0
          0x0074943a      0480ffff8000   subi.l 0xffff8000, d0
          0x00749440      0c800000ffff   cmpi.l 0xffff, d0
      < 0x00749446      6302           bls.b 0x74944a
         0x00749448      4e4f           trap 0xf
      > 0x0074944a      0680ffff8000   addi.l 0xffff8000, d0
          0x00749450      3480           move.w d0, (a2)
          0x00749452      302eff92       move.w -0x6e(a6), d0
          0x00749456      48c0           ext.l d0
          0x00749458      81c6           divs.w d6, d0
          0x0074945a      48c0           ext.l d0
          0x0074945c      0480ffff8000   subi.l 0xffff8000, d0
          0x00749462      0c800000ffff   cmpi.l 0xffff, d0
      < 0x00749468      6302           bls.b 0x74946c
         0x0074946a      4e4f           trap 0xf
      > 0x0074946c      0680ffff8000   addi.l 0xffff8000, d0
          0x00749472      3d40ff92       move.w d0, -0x6e(a6)
          0x00749476      3812           move.w (a2), d4
          0x00749478      48c4           ext.l d4
          0x0074947a      2f04           move.l d4, -(a7)
          0x0074947c      4eb900408686   jsr fcn.00408686
          0x00749482      2f04           move.l d4, -(a7)
          0x00749484      382eff80       move.w -0x80(a6), d4
          0x00749488      48c4           ext.l d4
          0x0074948a      4eb900408686   jsr fcn.00408686
          0x00749490      2604           move.l d4, d3
          0x00749492      2817           move.l (a7), d4
          0x00749494      4eb900407ff8   jsr fcn.00407ff8
          0x0074949a      584f           addq.w 0x4, a7
          0x0074949c      2e04           move.l d4, d7
          0x0074949e      201f           move.l (a7)+, d0
          0x007494a0      5280           addq.l 0x1, d0
          0x007494a2      0480ffff8000   subi.l 0xffff8000, d0
          0x007494a8      0c800000ffff   cmpi.l 0xffff, d0
      < 0x007494ae      6302           bls.b 0x7494b2
         0x007494b0      4e4f           trap 0xf
      > 0x007494b2      0680ffff8000   addi.l 0xffff8000, d0
          0x007494b8      3480           move.w d0, (a2)
          0x007494ba      20790086cb40   movea.l 0x86cb40, a0
          0x007494c0      b1e8fffc       cmpa.l -0x4(a0), a0
      < 0x007494c4      6702           beq.b 0x7494c8
         0x007494c6      4e4d           trap 0xd
      > 0x007494c8      42280004       clr.b 0x4(a0)
          0x007494cc      1f3c0005       move.b 0x5, -(a7)
          0x007494d0      4eb900522436   jsr BRUSHCOM.set_write_en
          0x007494d6      544f           addq.w 0x2, a7
          0x007494d8      7800           moveq 0x0, d4
          0x007494da      4eb900408686   jsr fcn.00408686
          0x007494e0      2f04           move.l d4, -(a7)
          0x007494e2      3f3cffff       move.w 0xffff, -(a7)
          0x007494e6      4227           clr.b -(a7)
          0x007494e8      2f2eff80       move.l -0x80(a6), -(a7)
          0x007494ec      2f13           move.l (a3), -(a7)
          0x007494ee      2f3af426       move.l 0x748916(pc), -(a7)
          0x007494f2      2f3af41e       move.l 0x748912(pc), -(a7)
          0x007494f6      1f3c0003       move.b 0x3, -(a7)
          0x007494fa      1f3c0004       move.b 0x4, -(a7)
          0x007494fe      2f2effa0       move.l -0x60(a6), -(a7)
          0x00749502      2f2eff9c       move.l -0x64(a6), -(a7)
          0x00749506      2f07           move.l d7, -(a7)
          0x00749508      2f04           move.l d4, -(a7)
          0x0074950a      2f3af412       move.l 0x74891e(pc), -(a7)
          0x0074950e      2f3af40a       move.l 0x74891a(pc), -(a7)
          0x00749512      4227           clr.b -(a7)
          0x00749514      4227           clr.b -(a7)
          0x00749516      486eff8c       pea.l -0x74(a6)
          0x0074951a      486effac       pea.l -0x54(a6)
          0x0074951e      4eb900526aa8   jsr BRUSH2COM.br_size_2d
          0x00749524      defc003a       adda.w 0x3a, a7
          0x00749528      1ebc0003       move.b 0x3, (a7)
          0x0074952c      3f3c0080       move.w 0x80, -(a7)
          0x00749530      2f3af3f0       move.l 0x748922(pc), -(a7)
          0x00749534      2f3af3f0       move.l 0x748926(pc), -(a7)
          0x00749538      4eb900518898   jsr OUTCOM.set_zoom
          0x0074953e      defc000c       adda.w 0xc, a7
          0x00749542      26b90086cb4c   move.l 0x86cb4c, (a3)
          0x00749548      2d790086cb50.  move.l 0x86cb50, -0x80(a6)
          0x00749550      3013           move.w (a3), d0
          0x00749552      48c0           ext.l d0
          0x00749554      02800000fff8   andi.l 0xfff8, d0
          0x0074955a      0480ffff8000   subi.l 0xffff8000, d0
          0x00749560      0c800000ffff   cmpi.l 0xffff, d0
      < 0x00749566      6302           bls.b 0x74956a
         0x00749568      4e4f           trap 0xf
      > 0x0074956a      0680ffff8000   addi.l 0xffff8000, d0
          0x00749570      3d40ffa4       move.w d0, -0x5c(a6)
          0x00749574      3d6eff7effa6   move.w -0x82(a6), -0x5a(a6)
          0x0074957a      4253           clr.w (a3)
          0x0074957c      3d7c0080ff7e   move.w 0x80, -0x82(a6)
          0x00749582      1f3af3a6       move.b 0x74892a(pc), -(a7)
          0x00749586      4eb90063278a   jsr CACHECOM.clear_cache
          0x0074958c      1ebc0002       move.b 0x2, (a7)
          0x00749590      4227           clr.b -(a7)
          0x00749592      1f3c0004       move.b 0x4, -(a7)
          0x00749596      2f2effa4       move.l -0x5c(a6), -(a7)
          0x0074959a      2f2eff80       move.l -0x80(a6), -(a7)
          0x0074959e      2f13           move.l (a3), -(a7)
          0x007495a0      4eb900522722   jsr BRUSHCOM.str_any_str_cop
          0x007495a6      defc0012       adda.w 0x12, a7
          0x007495aa      302eff98       move.w -0x68(a6), d0
          0x007495ae      48c0           ext.l d0
          0x007495b0      e180           asl.l 0x8, d0
          0x007495b2      e180           asl.l 0x8, d0
          0x007495b4      2d40ff9c       move.l d0, -0x64(a6)
          0x007495b8      302eff9a       move.w -0x66(a6), d0
          0x007495bc      48c0           ext.l d0
          0x007495be      068000000080   addi.l 0x80, d0
          0x007495c4      e180           asl.l 0x8, d0
          0x007495c6      e180           asl.l 0x8, d0
          0x007495c8      2d40ffa0       move.l d0, -0x60(a6)
          0x007495cc      2d6eff94ff8c   move.l -0x6c(a6), -0x74(a6)
          0x007495d2      24aeff98       move.l -0x68(a6), (a2)
          0x007495d6      302eff8c       move.w -0x74(a6), d0
          0x007495da      48c0           ext.l d0
          0x007495dc      3212           move.w (a2), d1
          0x007495de      48c1           ext.l d1
          0x007495e0      d280           add.l d0, d1
          0x007495e2      0481ffff8000   subi.l 0xffff8000, d1
          0x007495e8      0c810000ffff   cmpi.l 0xffff, d1
      < 0x007495ee      6302           bls.b 0x7495f2
         0x007495f0      4e4f           trap 0xf
      > 0x007495f2      0681ffff8000   addi.l 0xffff8000, d1
          0x007495f8      3d41ff8c       move.w d1, -0x74(a6)
          0x007495fc      302eff8e       move.w -0x72(a6), d0
          0x00749600      48c0           ext.l d0
          0x00749602      322eff92       move.w -0x6e(a6), d1
          0x00749606      48c1           ext.l d1
          0x00749608      d280           add.l d0, d1
          0x0074960a      0481ffff8000   subi.l 0xffff8000, d1
          0x00749610      0c810000ffff   cmpi.l 0xffff, d1
      < 0x00749616      6302           bls.b 0x74961a
         0x00749618      4e4f           trap 0xf
      > 0x0074961a      0681ffff8000   addi.l 0xffff8000, d1
          0x00749620      3d41ff8e       move.w d1, -0x72(a6)
          0x00749624      48c6           ext.l d6
          0x00749626      2006           move.l d6, d0
          0x00749628      81fc0002       divs.w 0x2, d0
          0x0074962c      3212           move.w (a2), d1
          0x0074962e      48c1           ext.l d1
          0x00749630      83c0           divs.w d0, d1
          0x00749632      48c1           ext.l d1
          0x00749634      0481ffff8000   subi.l 0xffff8000, d1
          0x0074963a      0c810000ffff   cmpi.l 0xffff, d1
      < 0x00749640      6302           bls.b 0x749644
         0x00749642      4e4f           trap 0xf
      > 0x00749644      0681ffff8000   addi.l 0xffff8000, d1
          0x0074964a      3481           move.w d1, (a2)
          0x0074964c      322eff92       move.w -0x6e(a6), d1
          0x00749650      48c1           ext.l d1
          0x00749652      83c0           divs.w d0, d1
          0x00749654      48c1           ext.l d1
          0x00749656      0481ffff8000   subi.l 0xffff8000, d1
          0x0074965c      0c810000ffff   cmpi.l 0xffff, d1
      < 0x00749662      6302           bls.b 0x749666
         0x00749664      4e4f           trap 0xf
      > 0x00749666      0681ffff8000   addi.l 0xffff8000, d1
          0x0074966c      3d41ff92       move.w d1, -0x6e(a6)
          0x00749670      3812           move.w (a2), d4
          0x00749672      48c4           ext.l d4
          0x00749674      2f04           move.l d4, -(a7)
          0x00749676      4eb900408686   jsr fcn.00408686
          0x0074967c      2f04           move.l d4, -(a7)
          0x0074967e      382eff80       move.w -0x80(a6), d4
          0x00749682      48c4           ext.l d4
          0x00749684      4eb900408686   jsr fcn.00408686
          0x0074968a      2604           move.l d4, d3
          0x0074968c      2817           move.l (a7), d4
          0x0074968e      4eb900407ff8   jsr fcn.00407ff8
          0x00749694      584f           addq.w 0x4, a7
          0x00749696      2e04           move.l d4, d7
          0x00749698      201f           move.l (a7)+, d0
          0x0074969a      5280           addq.l 0x1, d0
          0x0074969c      0480ffff8000   subi.l 0xffff8000, d0
          0x007496a2      0c800000ffff   cmpi.l 0xffff, d0
      < 0x007496a8      6302           bls.b 0x7496ac
         0x007496aa      4e4f           trap 0xf
      > 0x007496ac      0680ffff8000   addi.l 0xffff8000, d0
          0x007496b2      3480           move.w d0, (a2)
          0x007496b4      3d6eff8cffa8   move.w -0x74(a6), -0x58(a6)
          0x007496ba      3d6eff8effaa   move.w -0x72(a6), -0x56(a6)
          0x007496c0      3f3cffff       move.w 0xffff, -(a7)
          0x007496c4      4227           clr.b -(a7)
          0x007496c6      2f2eff80       move.l -0x80(a6), -(a7)
          0x007496ca      2f13           move.l (a3), -(a7)
          0x007496cc      2f3af262       move.l 0x748930(pc), -(a7)
          0x007496d0      2f3af25a       move.l 0x74892c(pc), -(a7)
          0x007496d4      1f3c0002       move.b 0x2, -(a7)
          0x007496d8      1f3c0004       move.b 0x4, -(a7)
          0x007496dc      2f2effa0       move.l -0x60(a6), -(a7)
          0x007496e0      2f2eff9c       move.l -0x64(a6), -(a7)
          0x007496e4      2f07           move.l d7, -(a7)
          0x007496e6      202f0024       move.l 0x24(a7), d0
          0x007496ea      2f00           move.l d0, -(a7)
          0x007496ec      2f3af24a       move.l 0x748938(pc), -(a7)
          0x007496f0      2f3af242       move.l 0x748934(pc), -(a7)
          0x007496f4      4227           clr.b -(a7)
          0x007496f6      4227           clr.b -(a7)
          0x007496f8      486eff8c       pea.l -0x74(a6)
          0x007496fc      486effac       pea.l -0x54(a6)
          0x00749700      4eb900526aa8   jsr BRUSH2COM.br_size_2d
          0x00749706      defc0040       adda.w 0x40, a7
          0x0074970a      20790086cb40   movea.l 0x86cb40, a0
          0x00749710      b1e8fffc       cmpa.l -0x4(a0), a0
      < 0x00749714      6702           beq.b 0x749718
         0x00749716      4e4d           trap 0xd
      > 0x00749718      4a280001       tst.b 0x1(a0)
      < 0x0074971c      6706           beq.b 0x749724
         0x0074971e      117c00010004   move.b 0x1, 0x4(a0)
      > 0x00749724      1f3c0002       move.b 0x2, -(a7)
          0x00749728      2f2effa8       move.l -0x58(a6), -(a7)
          0x0074972c      4eb90051872e   jsr OUTCOM.set_scroll
          0x00749732      584f           addq.w 0x4, a7
          0x00749734      1ebc0002       move.b 0x2, (a7)
          0x00749738      2f12           move.l (a2), -(a7)
          0x0074973a      2f2eff8c       move.l -0x74(a6), -(a7)
          0x0074973e      4eb900518a2a   jsr OUTCOM.set_video_crops
          0x00749744      defc000a       adda.w 0xa, a7
          0x00749748      2d6eff94ff84   move.l -0x6c(a6), -0x7c(a6)
          0x0074974e      2d6eff98ff88   move.l -0x68(a6), -0x78(a6)
          0x00749754      302eff88       move.w -0x78(a6), d0
          0x00749758      48c0           ext.l d0
          0x0074975a      81c6           divs.w d6, d0
          0x0074975c      48c0           ext.l d0
          0x0074975e      2800           move.l d0, d4
          0x00749760      7608           moveq 0x8, d3
          0x00749762      4eb900406b50   jsr fcn.00406b50
          0x00749768      7608           moveq 0x8, d3
          0x0074976a      4eb900406a74   jsr fcn.00406a74
          0x00749770      5084           addq.l 0x8, d4
          0x00749772      0484ffff8000   subi.l 0xffff8000, d4
          0x00749778      0c840000ffff   cmpi.l 0xffff, d4
      < 0x0074977e      6302           bls.b 0x749782
         0x00749780      4e4f           trap 0xf
      > 0x00749782      0684ffff8000   addi.l 0xffff8000, d4
          0x00749788      3d44ff88       move.w d4, -0x78(a6)
          0x0074978c      302eff8a       move.w -0x76(a6), d0
          0x00749790      48c0           ext.l d0
          0x00749792      81c6           divs.w d6, d0
          0x00749794      48c0           ext.l d0
          0x00749796      0480ffff8000   subi.l 0xffff8000, d0
          0x0074979c      0c800000ffff   cmpi.l 0xffff, d0
      < 0x007497a2      6302           bls.b 0x7497a6
         0x007497a4      4e4f           trap 0xf
      > 0x007497a6      0680ffff8000   addi.l 0xffff8000, d0
          0x007497ac      3d40ff8a       move.w d0, -0x76(a6)
          0x007497b0      c1eeff88       muls.w -0x78(a6), d0
          0x007497b4      2800           move.l d0, d4
          0x007497b6      7602           moveq 0x2, d3
          0x007497b8      4eb900406b50   jsr fcn.00406b50
          0x007497be      2d44ff72       move.l d4, -0x8e(a6)
          0x007497c2      4227           clr.b -(a7)
          0x007497c4      1f3c0003       move.b 0x3, -(a7)
          0x007497c8      4227           clr.b -(a7)
          0x007497ca      2f2eff88       move.l -0x78(a6), -(a7)
          0x007497ce      2f2eff84       move.l -0x7c(a6), -(a7)
          0x007497d2      4eb9005217d8   jsr BRUSHCOM.br_transfer
          0x007497d8      defc000e       adda.w 0xe, a7
          0x007497dc      282eff72       move.l -0x8e(a6), d4
          0x007497e0      7604           moveq 0x4, d3
          0x007497e2      4eb900406b50   jsr fcn.00406b50
          0x007497e8      7e01           moveq 0x1, d7
      > 0x007497ea      2007           move.l d7, d0
         0x007497ec      5380           subq.l 0x1, d0
         0x007497ee      0c8000000003   cmpi.l 0x3, d0
     < 0x007497f4      6302           bls.b 0x7497f8
        0x007497f6      4e4f           trap 0xf
     > 0x007497f8      e580           asl.l 0x2, d0
         0x007497fa      41f90086cb3e   lea.l 0x86cb3e, a0
         0x00749800      41f00800       lea.l (a0, d0.l), a0
         0x00749804      2068072c       movea.l 0x72c(a0), a0
         0x00749808      b1e8fffc       cmpa.l -0x4(a0), a0
     < 0x0074980c      6702           beq.b 0x749810
        0x0074980e      4e4d           trap 0xd
     > 0x00749810      2f08           move.l a0, -(a7)
         0x00749812      2d5fff76       move.l (a7)+, -0x8a(a6)
         0x00749816      486eff76       pea.l -0x8a(a6)
         0x0074981a      2f04           move.l d4, -(a7)
         0x0074981c      4eb900517254   jsr fcn.00517254
         0x00749822      504f           addq.w 0x8, a7
         0x00749824      5287           addq.l 0x1, d7
         0x00749826      0c8700000004   cmpi.l 0x4, d7
      < 0x0074982c      6fbc           ble.b 0x7497ea
       > 0x0074982e      102e0008       move.b 0x8(a6), d0
           0x00749832      4880           ext.w d0
           0x00749834      013af106       btst.l d0, 0x74893c(pc)
       < 0x00749838      6700010e       beq.w 0x749948
          0x0074983c      4ebaf97e       jsr MENUFETTLECOM.fettle_set_out(pc)
          0x00749840      20790086cb44   movea.l 0x86cb44, a0
          0x00749846      b1e8fffc       cmpa.l -0x4(a0), a0
      < 0x0074984a      6702           beq.b 0x74984e
         0x0074984c      4e4d           trap 0xd
      > 0x0074984e      43eeff84       lea.l -0x7c(a6), a1
          0x00749852      41e80010       lea.l 0x10(a0), a0
          0x00749856      7207           moveq 0x7, d1
      > 0x00749858      12d8           move.b (a0)+, (a1)+
      < 0x0074985a      51c9fffc       dbra d1, 0x749858
          0x0074985e      322eff88       move.w -0x78(a6), d1
          0x00749862      48c1           ext.l d1
          0x00749864      83c6           divs.w d6, d1
          0x00749866      48c1           ext.l d1
          0x00749868      2801           move.l d1, d4
          0x0074986a      7608           moveq 0x8, d3
          0x0074986c      4eb900406b50   jsr fcn.00406b50
          0x00749872      7608           moveq 0x8, d3
          0x00749874      4eb900406a74   jsr fcn.00406a74
          0x0074987a      5084           addq.l 0x8, d4
          0x0074987c      0484ffff8000   subi.l 0xffff8000, d4
          0x00749882      0c840000ffff   cmpi.l 0xffff, d4
      < 0x00749888      6302           bls.b 0x74988c
         0x0074988a      4e4f           trap 0xf
      > 0x0074988c      0684ffff8000   addi.l 0xffff8000, d4
          0x00749892      3d44ff88       move.w d4, -0x78(a6)
          0x00749896      322eff8a       move.w -0x76(a6), d1
          0x0074989a      48c1           ext.l d1
          0x0074989c      83c6           divs.w d6, d1
          0x0074989e      48c1           ext.l d1
          0x007498a0      0481ffff8000   subi.l 0xffff8000, d1
          0x007498a6      0c810000ffff   cmpi.l 0xffff, d1
      < 0x007498ac      6302           bls.b 0x7498b0
         0x007498ae      4e4f           trap 0xf
      > 0x007498b0      0681ffff8000   addi.l 0xffff8000, d1
          0x007498b6      3d41ff8a       move.w d1, -0x76(a6)
          0x007498ba      c3eeff88       muls.w -0x78(a6), d1
          0x007498be      2801           move.l d1, d4
          0x007498c0      7602           moveq 0x2, d3
          0x007498c2      4eb900406b50   jsr fcn.00406b50
          0x007498c8      2d44ff72       move.l d4, -0x8e(a6)
          0x007498cc      1f3c0001       move.b 0x1, -(a7)
          0x007498d0      1f3c0003       move.b 0x3, -(a7)
          0x007498d4      4227           clr.b -(a7)
          0x007498d6      2f2eff88       move.l -0x78(a6), -(a7)
          0x007498da      2f2eff84       move.l -0x7c(a6), -(a7)
          0x007498de      4eb9005217d8   jsr BRUSHCOM.br_transfer
          0x007498e4      defc000e       adda.w 0xe, a7
          0x007498e8      282eff72       move.l -0x8e(a6), d4
          0x007498ec      7604           moveq 0x4, d3
          0x007498ee      4eb900406b50   jsr fcn.00406b50
          0x007498f4      7e01           moveq 0x1, d7
      > 0x007498f6      2207           move.l d7, d1
         0x007498f8      5381           subq.l 0x1, d1
         0x007498fa      0c8100000003   cmpi.l 0x3, d1
     < 0x00749900      6302           bls.b 0x749904
        0x00749902      4e4f           trap 0xf
     > 0x00749904      e581           asl.l 0x2, d1
         0x00749906      41f90086cb3e   lea.l 0x86cb3e, a0
         0x0074990c      41f01800       lea.l (a0, d1.l), a0
         0x00749910      2068072c       movea.l 0x72c(a0), a0
         0x00749914      b1e8fffc       cmpa.l -0x4(a0), a0
     < 0x00749918      6702           beq.b 0x74991c
        0x0074991a      4e4d           trap 0xd
     > 0x0074991c      2f08           move.l a0, -(a7)
         0x0074991e      2d5fff76       move.l (a7)+, -0x8a(a6)
         0x00749922      486eff76       pea.l -0x8a(a6)
         0x00749926      41f90086cb96   lea.l 0x86cb96, a0
         0x0074992c      2f08           move.l a0, -(a7)
         0x0074992e      2f04           move.l d4, -(a7)
         0x00749930      4eb9005172b4   jsr fcn.005172b4
         0x00749936      defc000c       adda.w 0xc, a7
         0x0074993a      5287           addq.l 0x1, d7
         0x0074993c      0c8700000004   cmpi.l 0x4, d7
      < 0x00749942      6fb2           ble.b 0x7498f6
      < 0x00749944      600001c8       bra.w 0x749b0e
      > 0x00749948      554f           subq.w 0x2, a7
          0x0074994a      486effb6       pea.l -0x4a(a6)
          0x0074994e      4eb900404434   jsr fcn.00404434
          0x00749954      584f           addq.w 0x4, a7
          0x00749956      4a1f           tst.b (a7)+
      < 0x00749958      6700019a       beq.w 0x749af4
         0x0074995c      20790086cb40   movea.l 0x86cb40, a0
         0x00749962      b1e8fffc       cmpa.l -0x4(a0), a0
     < 0x00749966      6702           beq.b 0x74996a
        0x00749968      4e4d           trap 0xd
     > 0x0074996a      1210           move.b (a0), d1
         0x0074996c      4881           ext.w d1
         0x0074996e      43bc0004       chk.w 0x4, d1
         0x00749972      c3fc002c       muls.w 0x2c, d1
         0x00749976      20790086cb44   movea.l 0x86cb44, a0
         0x0074997c      b1e8fffc       cmpa.l -0x4(a0), a0
     < 0x00749980      6702           beq.b 0x749984
        0x00749982      4e4d           trap 0xd
     > 0x00749984      43eeff94       lea.l -0x6c(a6), a1
         0x00749988      41f01010       lea.l 0x10(a0, d1.w), a0
         0x0074998c      7207           moveq 0x7, d1
     > 0x0074998e      12d8           move.b (a0)+, (a1)+
     < 0x00749990      51c9fffc       dbra d1, 0x74998e
         0x00749994      0c000002       cmpi.b 0x2, d0
     < 0x00749998      6626           bne.b 0x7499c0
        0x0074999a      7a03           moveq 0x3, d5
        0x0074999c      1f3c0002       move.b 0x2, -(a7)
        0x007499a0      1f3c0003       move.b 0x3, -(a7)
        0x007499a4      1f3c0004       move.b 0x4, -(a7)
        0x007499a8      2f3aef94       move.l 0x74893e(pc), -(a7)
        0x007499ac      2f2eff98       move.l -0x68(a6), -(a7)
        0x007499b0      2f2eff94       move.l -0x6c(a6), -(a7)
        0x007499b4      4eb900522722   jsr BRUSHCOM.str_any_str_cop
        0x007499ba      defc0012       adda.w 0x12, a7
    < 0x007499be      6002           bra.b 0x7499c2
    > 0x007499c0      7a02           moveq 0x2, d5
    > 0x007499c2      1f3c0003       move.b 0x3, -(a7)
         0x007499c6      3f3c0100       move.w 0x100, -(a7)
         0x007499ca      2f3aef76       move.l 0x748942(pc), -(a7)
         0x007499ce      2f3aef76       move.l 0x748946(pc), -(a7)
         0x007499d2      4eb900518898   jsr OUTCOM.set_zoom
         0x007499d8      defc000a       adda.w 0xa, a7
         0x007499dc      1ebc0002       move.b 0x2, (a7)
         0x007499e0      2f3aef68       move.l 0x74894a(pc), -(a7)
         0x007499e4      4eb90051872e   jsr OUTCOM.set_scroll
         0x007499ea      584f           addq.w 0x4, a7
         0x007499ec      1ebc0002       move.b 0x2, (a7)
         0x007499f0      2f2eff98       move.l -0x68(a6), -(a7)
         0x007499f4      2f2eff94       move.l -0x6c(a6), -(a7)
         0x007499f8      4eb900518a2a   jsr OUTCOM.set_video_crops
         0x007499fe      504f           addq.w 0x8, a7
         0x00749a00      1ebc0003       move.b 0x3, (a7)
         0x00749a04      2f2eff98       move.l -0x68(a6), -(a7)
         0x00749a08      2f2eff94       move.l -0x6c(a6), -(a7)
         0x00749a0c      4eb900518a2a   jsr OUTCOM.set_video_crops
         0x00749a12      defc000a       adda.w 0xa, a7
         0x00749a16      2d6eff94ff84   move.l -0x6c(a6), -0x7c(a6)
         0x00749a1c      2d6eff98ff88   move.l -0x68(a6), -0x78(a6)
         0x00749a22      3206           move.w d6, d1
         0x00749a24      c3c1           muls.w d1, d1
         0x00749a26      382eff8a       move.w -0x76(a6), d4
         0x00749a2a      48c4           ext.l d4
         0x00749a2c      2601           move.l d1, d3
         0x00749a2e      4eb900406b50   jsr fcn.00406b50
         0x00749a34      3d44ff8a       move.w d4, -0x76(a6)
         0x00749a38      342eff8a       move.w -0x76(a6), d2
         0x00749a3c      c5eeff88       muls.w -0x78(a6), d2
         0x00749a40      2802           move.l d2, d4
         0x00749a42      7602           moveq 0x2, d3
         0x00749a44      4eb900406b50   jsr fcn.00406b50
         0x00749a4a      2d44ff72       move.l d4, -0x8e(a6)
         0x00749a4e      2f01           move.l d1, -(a7)
         0x00749a50      7e01           moveq 0x1, d7
     > 0x00749a52      be97           cmp.l (a7), d7
    < 0x00749a54      6e3e           bgt.b 0x749a94
       0x00749a56      4885           ext.w d5
       0x00749a58      4bbc0009       chk.w 0x9, d5
       0x00749a5c      1f05           move.b d5, -(a7)
       0x00749a5e      49eeff6a       lea.l -0x96(a6), a4
       0x00749a62      4ebaf7aa       jsr MENUFETTLECOM.fettle_buffer_o(pc)
       0x00749a66      544f           addq.w 0x2, a7
       0x00749a68      322eff86       move.w -0x7a(a6), d1
       0x00749a6c      48c1           ext.l d1
       0x00749a6e      342eff8a       move.w -0x76(a6), d2
       0x00749a72      48c2           ext.l d2
       0x00749a74      d481           add.l d1, d2
       0x00749a76      0482ffff8000   subi.l 0xffff8000, d2
       0x00749a7c      0c820000ffff   cmpi.l 0xffff, d2
   < 0x00749a82      6302           bls.b 0x749a86
      0x00749a84      4e4f           trap 0xf
   > 0x00749a86      0682ffff8000   addi.l 0xffff8000, d2
       0x00749a8c      3d42ff86       move.w d2, -0x7a(a6)
       0x00749a90      5287           addq.l 0x1, d7
    < 0x00749a92      68be           bvc.b 0x749a52
    > 0x00749a94      584f           addq.w 0x4, a7
         0x00749a96      322eff96       move.w -0x6a(a6), d1
         0x00749a9a      48c1           ext.l d1
         0x00749a9c      342eff9a       move.w -0x66(a6), d2
         0x00749aa0      48c2           ext.l d2
         0x00749aa2      2601           move.l d1, d3
         0x00749aa4      d682           add.l d2, d3
         0x00749aa6      382eff86       move.w -0x7a(a6), d4
         0x00749aaa      48c4           ext.l d4
         0x00749aac      b883           cmp.l d3, d4
     < 0x00749aae      6c44           bge.b 0x749af4
        0x00749ab0      2602           move.l d2, d3
        0x00749ab2      d681           add.l d1, d3
        0x00749ab4      9684           sub.l d4, d3
        0x00749ab6      0483ffff8000   subi.l 0xffff8000, d3
        0x00749abc      0c830000ffff   cmpi.l 0xffff, d3
    < 0x00749ac2      6302           bls.b 0x749ac6
       0x00749ac4      4e4f           trap 0xf
    > 0x00749ac6      0683ffff8000   addi.l 0xffff8000, d3
        0x00749acc      3d43ff8a       move.w d3, -0x76(a6)
        0x00749ad0      c7eeff88       muls.w -0x78(a6), d3
        0x00749ad4      2803           move.l d3, d4
        0x00749ad6      7602           moveq 0x2, d3
        0x00749ad8      4eb900406b50   jsr fcn.00406b50
        0x00749ade      2d44ff72       move.l d4, -0x8e(a6)
        0x00749ae2      4885           ext.w d5
        0x00749ae4      4bbc0009       chk.w 0x9, d5
        0x00749ae8      1f05           move.b d5, -(a7)
        0x00749aea      49eeff6a       lea.l -0x96(a6), a4
        0x00749aee      4ebaf71e       jsr MENUFETTLECOM.fettle_buffer_o(pc)
        0x00749af2      544f           addq.w 0x2, a7
     > 0x00749af4      20790086cb40   movea.l 0x86cb40, a0
          0x00749afa      b1e8fffc       cmpa.l -0x4(a0), a0
      < 0x00749afe      6702           beq.b 0x749b02
         0x00749b00      4e4d           trap 0xd
      > 0x00749b02      4a280001       tst.b 0x1(a0)
      < 0x00749b06      6706           beq.b 0x749b0e
         0x00749b08      48c6           ext.l d6
         0x00749b0a      8dfc0002       divs.w 0x2, d6
      > 0x00749b0e      4cdf1fff       movem.l (a7)+, d0-d7/a0-a4
           0x00749b12      4e5e           unlk a6
           0x00749b14      4e75           rts
            ; CALL XREF from K91_LIBOPS.save_colour_cur @ 0x64fd10
 304: MENUFETTLECOM.get_colour_curv ();
           0x00749b16      4e56ffcc       link.w a6, 0xffcc
           0x00749b1a      bfd5           cmpa.l (a5), a7
       < 0x00749b1c      6206           bhi.b 0x749b24
          0x00749b1e      44fc0002       move.w 0x2, ccr
          0x00749b22      4e76           trapv
       > 0x00749b24      defc0032       adda.w 0x32, a7
           0x00749b28      48e7c1f8       movem.l d0-d1/d7/a0-a4, -(a7)
           0x00749b2c      47f90048d992   lea.l MENU2COM.get_numeric_val, a3
           0x00749b32      49f90086cb3e   lea.l 0x86cb3e, a4
           0x00749b38      7201           moveq 0x1, d1
           0x00749b3a      206e0008       movea.l 0x8(a6), a0
           0x00749b3e      3081           move.w d1, (a0)
           0x00749b40      594f           subq.w 0x4, a7
           0x00749b42      3f390086cb78   move.w 0x86cb78, -(a7)
           0x00749b48      4e93           jsr (a3)                    ; fcn.0000000c
           0x00749b4a      544f           addq.w 0x2, a7
           0x00749b4c      21570002       move.l (a7), 0x2(a0)
           0x00749b50      3f390086cb7a   move.w 0x86cb7a, -(a7)
           0x00749b56      4e93           jsr (a3)                    ; fcn.0000000c
           0x00749b58      544f           addq.w 0x2, a7
           0x00749b5a      21570006       move.l (a7), 0x6(a0)
           0x00749b5e      3f390086cb76   move.w 0x86cb76, -(a7)
           0x00749b64      4e93           jsr (a3)                    ; fcn.0000000c
           0x00749b66      544f           addq.w 0x2, a7
           0x00749b68      2157000a       move.l (a7), 0xa(a0)
           0x00749b6c      3f390086cb8e   move.w 0x86cb8e, -(a7)
           0x00749b72      4e93           jsr (a3)                    ; fcn.0000000c
           0x00749b74      544f           addq.w 0x2, a7
           0x00749b76      2157000e       move.l (a7), 0xe(a0)
           0x00749b7a      3f390086cb90   move.w 0x86cb90, -(a7)
           0x00749b80      4e93           jsr (a3)                    ; fcn.0000000c
           0x00749b82      544f           addq.w 0x2, a7
           0x00749b84      21570012       move.l (a7), 0x12(a0)
           0x00749b88      3f390086cb92   move.w 0x86cb92, -(a7)
           0x00749b8e      4e93           jsr (a3)                    ; fcn.0000000c
           0x00749b90      544f           addq.w 0x2, a7
           0x00749b92      21570016       move.l (a7), 0x16(a0)
           0x00749b96      3f390086cb8c   move.w 0x86cb8c, -(a7)
           0x00749b9c      4e93           jsr (a3)                    ; fcn.0000000c
           0x00749b9e      544f           addq.w 0x2, a7
           0x00749ba0      2157001a       move.l (a7), 0x1a(a0)
           0x00749ba4      3f390086cb88   move.w 0x86cb88, -(a7)
           0x00749baa      4e93           jsr (a3)                    ; fcn.0000000c
           0x00749bac      544f           addq.w 0x2, a7
           0x00749bae      2157001e       move.l (a7), 0x1e(a0)
           0x00749bb2      3f390086cb8a   move.w 0x86cb8a, -(a7)
           0x00749bb8      4e93           jsr (a3)                    ; fcn.0000000c
           0x00749bba      544f           addq.w 0x2, a7
           0x00749bbc      21570022       move.l (a7), 0x22(a0)
           0x00749bc0      3f390086cb86   move.w 0x86cb86, -(a7)
           0x00749bc6      4e93           jsr (a3)                    ; fcn.0000000c
           0x00749bc8      544f           addq.w 0x2, a7
           0x00749bca      21570026       move.l (a7), 0x26(a0)
           0x00749bce      3f390086cb7c   move.w 0x86cb7c, -(a7)
           0x00749bd4      4e93           jsr (a3)                    ; fcn.0000000c
           0x00749bd6      544f           addq.w 0x2, a7
           0x00749bd8      215f002a       move.l (a7)+, 0x2a(a0)
           0x00749bdc      206e0008       movea.l 0x8(a6), a0
           0x00749be0      7e00           moveq 0x0, d7
       > 0x00749be2      4887           ext.w d7
          0x00749be4      3007           move.w d7, d0
          0x00749be6      e140           asl.w 0x8, d0
          0x00749be8      224c           movea.l a4, a1
          0x00749bea      45f0007a       lea.l 0x7a(a0, d0.w), a2
          0x00749bee      43f10058       lea.l 0x58(a1, d0.w), a1
          0x00749bf2      303c00ff       move.w 0xff, d0
      > 0x00749bf6      14d9           move.b (a1)+, (a2)+
      < 0x00749bf8      51c8fffc       dbra d0, 0x749bf6
          0x00749bfc      4887           ext.w d7
          0x00749bfe      7034           moveq 0x34, d0
          0x00749c00      c1c7           muls.w d7, d0
          0x00749c02      43f00000       lea.l (a0, d0.w), a1
          0x00749c06      244c           movea.l a4, a2
          0x00749c08      45f20000       lea.l (a2, d0.w), a2
          0x00749c0c      43e9047a       lea.l 0x47a(a1), a1
          0x00749c10      45ea0458       lea.l 0x458(a2), a2
          0x00749c14      7033           moveq 0x33, d0
      > 0x00749c16      12da           move.b (a2)+, (a1)+
      < 0x00749c18      51c8fffc       dbra d0, 0x749c16
          0x00749c1c      4887           ext.w d7
          0x00749c1e      43f07000       lea.l (a0, d7.w), a1
          0x00749c22      4887           ext.w d7
          0x00749c24      244c           movea.l a4, a2
          0x00749c26      45f27000       lea.l (a2, d7.w), a2
          0x00749c2a      102a0728       move.b 0x728(a2), d0
          0x00749c2e      4880           ext.w d0
          0x00749c30      4181           chk.w d1, d0
          0x00749c32      1340054a       move.b d0, 0x54a(a1)
          0x00749c36      5207           addq.b 0x1, d7
          0x00749c38      0c070002       cmpi.b 0x2, d7
       < 0x00749c3c      6fa4           ble.b 0x749be2
           0x00749c3e      4cdf1f83       movem.l (a7)+, d0-d1/d7/a0-a4
           0x00749c42      4e5e           unlk a6
           0x00749c44      4e75           rts
            ; CALL XREF from K91_LIBOPS.fetch_colour_cu @ 0x64dde6
 584: MENUFETTLECOM.set_colour_curv ();
           0x00749c46      4e56ffa4       link.w a6, 0xffa4
           0x00749c4a      bfd5           cmpa.l (a5), a7
       < 0x00749c4c      6206           bhi.b 0x749c54
          0x00749c4e      44fc0002       move.w 0x2, ccr
          0x00749c52      4e76           trapv
       > 0x00749c54      defc0050       adda.w 0x50, a7
           0x00749c58      48e7fff8       movem.l d0-d7/a0-a4, -(a7)
           0x00749c5c      49f90048da84   lea.l MENU2COM.set_numeric_val, a4
           0x00749c62      223c000000ff   move.l 0xff, d1
           0x00749c68      7401           moveq 0x1, d2
           0x00749c6a      206e0008       movea.l 0x8(a6), a0
           0x00749c6e      3010           move.w (a0), d0
           0x00749c70      b042           cmp.w d2, d0
       < 0x00749c72      660001f4       bne.w 0x749e68
          0x00749c76      3f390086cb78   move.w 0x86cb78, -(a7)
          0x00749c7c      2f280002       move.l 0x2(a0), -(a7)
          0x00749c80      4227           clr.b -(a7)
          0x00749c82      4227           clr.b -(a7)
          0x00749c84      4e94           jsr (a4)                    ; fcn.0000000d
          0x00749c86      504f           addq.w 0x8, a7
          0x00749c88      3eb90086cb7a   move.w 0x86cb7a, (a7)
          0x00749c8e      2f280006       move.l 0x6(a0), -(a7)
          0x00749c92      4227           clr.b -(a7)
          0x00749c94      4227           clr.b -(a7)
          0x00749c96      4e94           jsr (a4)                    ; fcn.0000000d
          0x00749c98      504f           addq.w 0x8, a7
          0x00749c9a      3eb90086cb76   move.w 0x86cb76, (a7)
          0x00749ca0      2f28000a       move.l 0xa(a0), -(a7)
          0x00749ca4      4227           clr.b -(a7)
          0x00749ca6      4227           clr.b -(a7)
          0x00749ca8      4e94           jsr (a4)                    ; fcn.0000000d
          0x00749caa      504f           addq.w 0x8, a7
          0x00749cac      3eb90086cb8e   move.w 0x86cb8e, (a7)
          0x00749cb2      2f28000e       move.l 0xe(a0), -(a7)
          0x00749cb6      4227           clr.b -(a7)
          0x00749cb8      4227           clr.b -(a7)
          0x00749cba      4e94           jsr (a4)                    ; fcn.0000000d
          0x00749cbc      504f           addq.w 0x8, a7
          0x00749cbe      3eb90086cb90   move.w 0x86cb90, (a7)
          0x00749cc4      2f280012       move.l 0x12(a0), -(a7)
          0x00749cc8      4227           clr.b -(a7)
          0x00749cca      4227           clr.b -(a7)
          0x00749ccc      4e94           jsr (a4)                    ; fcn.0000000d
          0x00749cce      504f           addq.w 0x8, a7
          0x00749cd0      3eb90086cb92   move.w 0x86cb92, (a7)
          0x00749cd6      2f280016       move.l 0x16(a0), -(a7)
          0x00749cda      4227           clr.b -(a7)
          0x00749cdc      4227           clr.b -(a7)
          0x00749cde      4e94           jsr (a4)                    ; fcn.0000000d
          0x00749ce0      504f           addq.w 0x8, a7
          0x00749ce2      3eb90086cb8c   move.w 0x86cb8c, (a7)
          0x00749ce8      2f28001a       move.l 0x1a(a0), -(a7)
          0x00749cec      4227           clr.b -(a7)
          0x00749cee      4227           clr.b -(a7)
          0x00749cf0      4e94           jsr (a4)                    ; fcn.0000000d
          0x00749cf2      504f           addq.w 0x8, a7
          0x00749cf4      3eb90086cb88   move.w 0x86cb88, (a7)
          0x00749cfa      2f28001e       move.l 0x1e(a0), -(a7)
          0x00749cfe      4227           clr.b -(a7)
          0x00749d00      4227           clr.b -(a7)
          0x00749d02      4e94           jsr (a4)                    ; fcn.0000000d
          0x00749d04      504f           addq.w 0x8, a7
          0x00749d06      3eb90086cb8a   move.w 0x86cb8a, (a7)
          0x00749d0c      2f280022       move.l 0x22(a0), -(a7)
          0x00749d10      4227           clr.b -(a7)
          0x00749d12      4227           clr.b -(a7)
          0x00749d14      4e94           jsr (a4)                    ; fcn.0000000d
          0x00749d16      504f           addq.w 0x8, a7
          0x00749d18      3eb90086cb86   move.w 0x86cb86, (a7)
          0x00749d1e      2f280026       move.l 0x26(a0), -(a7)
          0x00749d22      4227           clr.b -(a7)
          0x00749d24      4227           clr.b -(a7)
          0x00749d26      4e94           jsr (a4)                    ; fcn.0000000d
          0x00749d28      504f           addq.w 0x8, a7
          0x00749d2a      3eb90086cb7c   move.w 0x86cb7c, (a7)
          0x00749d30      2f28002a       move.l 0x2a(a0), -(a7)
          0x00749d34      4227           clr.b -(a7)
          0x00749d36      4227           clr.b -(a7)
          0x00749d38      4e94           jsr (a4)                    ; fcn.0000000d
          0x00749d3a      defc000a       adda.w 0xa, a7
          0x00749d3e      226e0008       movea.l 0x8(a6), a1
          0x00749d42      7e00           moveq 0x0, d7
      > 0x00749d44      4887           ext.w d7
         0x00749d46      3007           move.w d7, d0
         0x00749d48      e140           asl.w 0x8, d0
         0x00749d4a      45f90086cb3e   lea.l 0x86cb3e, a2
         0x00749d50      45f20058       lea.l 0x58(a2, d0.w), a2
         0x00749d54      47f1007a       lea.l 0x7a(a1, d0.w), a3
         0x00749d58      3001           move.w d1, d0
     > 0x00749d5a      14db           move.b (a3)+, (a2)+
     < 0x00749d5c      51c8fffc       dbra d0, 0x749d5a
         0x00749d60      4887           ext.w d7
         0x00749d62      7034           moveq 0x34, d0
         0x00749d64      c1c7           muls.w d7, d0
         0x00749d66      45f90086cb3e   lea.l 0x86cb3e, a2
         0x00749d6c      45f20000       lea.l (a2, d0.w), a2
         0x00749d70      47f10000       lea.l (a1, d0.w), a3
         0x00749d74      45ea0458       lea.l 0x458(a2), a2
         0x00749d78      47eb047a       lea.l 0x47a(a3), a3
         0x00749d7c      7033           moveq 0x33, d0
     > 0x00749d7e      14db           move.b (a3)+, (a2)+
     < 0x00749d80      51c8fffc       dbra d0, 0x749d7e
         0x00749d84      4887           ext.w d7
         0x00749d86      45f90086cb3e   lea.l 0x86cb3e, a2
         0x00749d8c      45f27000       lea.l (a2, d7.w), a2
         0x00749d90      4887           ext.w d7
         0x00749d92      47f17000       lea.l (a1, d7.w), a3
         0x00749d96      156b054a0728   move.b 0x54a(a3), 0x728(a2)
         0x00749d9c      5207           addq.b 0x1, d7
         0x00749d9e      0c070002       cmpi.b 0x2, d7
      < 0x00749da2      6fa0           ble.b 0x749d44
          0x00749da4      594f           subq.w 0x4, a7
          0x00749da6      3f390086cb7c   move.w 0x86cb7c, -(a7)
          0x00749dac      4eb90048d992   jsr MENU2COM.get_numeric_val
          0x00749db2      544f           addq.w 0x2, a7
          0x00749db4      261f           move.l (a7)+, d3
          0x00749db6      283c3f800000   move.l 0x3f800000, d4
          0x00749dbc      4eb900407ff8   jsr fcn.00407ff8
          0x00749dc2      2a04           move.l d4, d5
          0x00749dc4      283c3f800000   move.l 0x3f800000, d4
          0x00749dca      2605           move.l d5, d3
          0x00749dcc      4eb900407b44   jsr fcn.00407b44
          0x00749dd2      594f           subq.w 0x4, a7
          0x00749dd4      2f3c437f0000   move.l 0x437f0000, -(a7)
          0x00749dda      4eb900438bb4   jsr p_fln
          0x00749de0      584f           addq.w 0x4, a7
          0x00749de2      261f           move.l (a7)+, d3
          0x00749de4      4eb900407e92   jsr fcn.00407e92
          0x00749dea      594f           subq.w 0x4, a7
          0x00749dec      2f04           move.l d4, -(a7)
          0x00749dee      4eb9004389c4   jsr p_fexp
          0x00749df4      584f           addq.w 0x4, a7
          0x00749df6      2d5ffff8       move.l (a7)+, -0x8(a6)
          0x00749dfa      42790086d066   clr.w 0x86d066
          0x00749e00      7c01           moveq 0x1, d6
      > 0x00749e02      4d81           chk.w d1, d6
         0x00749e04      48c6           ext.l d6
         0x00749e06      2006           move.l d6, d0
         0x00749e08      e380           asl.l 0x1, d0
         0x00749e0a      43f90086cb3e   lea.l 0x86cb3e, a1
         0x00749e10      43f10800       lea.l (a1, d0.l), a1
         0x00749e14      48c6           ext.l d6
         0x00749e16      2806           move.l d6, d4
         0x00749e18      4eb900408686   jsr fcn.00408686
         0x00749e1e      594f           subq.w 0x4, a7
         0x00749e20      2f04           move.l d4, -(a7)
         0x00749e22      4eb900438bb4   jsr p_fln
         0x00749e28      584f           addq.w 0x4, a7
         0x00749e2a      261f           move.l (a7)+, d3
         0x00749e2c      2805           move.l d5, d4
         0x00749e2e      4eb900407e92   jsr fcn.00407e92
         0x00749e34      594f           subq.w 0x4, a7
         0x00749e36      2f04           move.l d4, -(a7)
         0x00749e38      4eb9004389c4   jsr p_fexp
         0x00749e3e      584f           addq.w 0x4, a7
         0x00749e40      261f           move.l (a7)+, d3
         0x00749e42      282efff8       move.l -0x8(a6), d4
         0x00749e46      4eb900407e92   jsr fcn.00407e92
         0x00749e4c      4eb900408224   jsr fcn.00408224
         0x00749e52      b881           cmp.l d1, d4
     < 0x00749e54      6302           bls.b 0x749e58
        0x00749e56      4e4f           trap 0xf
     > 0x00749e58      33440528       move.w d4, 0x528(a1)
         0x00749e5c      5246           addq.w 0x1, d6
         0x00749e5e      bc41           cmp.w d1, d6
      < 0x00749e60      6fa0           ble.b 0x749e02
          0x00749e62      1d42000c       move.b d2, 0xc(a6)
      < 0x00749e66      601e           bra.b 0x749e86
      > 0x00749e68      487aeae5       pea.l 0x74894f(pc)
          0x00749e6c      48780018       pea.l 0x18
          0x00749e70      2f17           move.l (a7), -(a7)
          0x00749e72      4eb9004047ea   jsr p_wts_o
          0x00749e78      defc000c       adda.w 0xc, a7
          0x00749e7c      4eb900404946   jsr p_wtln_o
          0x00749e82      422e000c       clr.b 0xc(a6)
      > 0x00749e86      4cdf1fff       movem.l (a7)+, d0-d7/a0-a4
           0x00749e8a      4e5e           unlk a6
           0x00749e8c      4e75           rts
 358: MENUFETTLECOM.hit_orig ();
           0x00749e8e      4e56ffb8       link.w a6, 0xffb8
           0x00749e92      bfd5           cmpa.l (a5), a7
       < 0x00749e94      6206           bhi.b 0x749e9c
          0x00749e96      44fc0002       move.w 0x2, ccr
          0x00749e9a      4e76           trapv
       > 0x00749e9c      defc003c       adda.w 0x3c, a7
           0x00749ea0      48e7fcf8       movem.l d0-d5/a0-a4, -(a7)
           0x00749ea4      45eefff8       lea.l -0x8(a6), a2
           0x00749ea8      47f90086cb44   lea.l 0x86cb44, a3
           0x00749eae      49eefffa       lea.l -0x6(a6), a4
           0x00749eb2      7402           moveq 0x2, d2
           0x00749eb4      263cffff8000   move.l 0xffff8000, d3
           0x00749eba      7801           moveq 0x1, d4
           0x00749ebc      7a0a           moveq 0xa, d5
           0x00749ebe      302e0008       move.w 0x8(a6), d0
           0x00749ec2      b044           cmp.w d4, d0
       < 0x00749ec4      6d10           blt.b 0x749ed6
          0x00749ec6      b044           cmp.w d4, d0
      < 0x00749ec8      6714           beq.b 0x749ede
         0x00749eca      0c400007       cmpi.w 0x7, d0
     < 0x00749ece      67000082       beq.w 0x749f52
    < 0x00749ed2      60000118       bra.w 0x749fec
    > 0x00749ed6      4a40           tst.w d0
    < 0x00749ed8      6704           beq.b 0x749ede
   < 0x00749eda      60000110       bra.w 0x749fec
   > 0x00749ede      4eb900518f36   jsr OUTCOM.save_out
        0x00749ee4      4eb900523cda   jsr BRUSHCOM.open_block
        0x00749eea      554f           subq.w 0x2, a7
        0x00749eec      3f3c002d       move.w 0x2d, -(a7)
        0x00749ef0      4eb900480fc2   jsr MENUCOM.get_boxon
        0x00749ef6      544f           addq.w 0x2, a7
        0x00749ef8      4a1f           tst.b (a7)+
    < 0x00749efa      6704           beq.b 0x749f00
       0x00749efc      1f02           move.b d2, -(a7)
   < 0x00749efe      6002           bra.b 0x749f02
   > 0x00749f00      4227           clr.b -(a7)
   > 0x00749f02      4eb900518dd8   jsr OUTCOM.set_out
        0x00749f08      544f           addq.w 0x2, a7
        0x00749f0a      1f02           move.b d2, -(a7)
        0x00749f0c      2f3aea5a       move.l 0x748968(pc), -(a7)
        0x00749f10      4eb90051872e   jsr OUTCOM.set_scroll
        0x00749f16      584f           addq.w 0x4, a7
        0x00749f18      1e82           move.b d2, (a7)
        0x00749f1a      2053           movea.l (a3), a0
        0x00749f1c      b1e8fffc       cmpa.l -0x4(a0), a0
    < 0x00749f20      6702           beq.b 0x749f24
       0x00749f22      4e4d           trap 0xd
    > 0x00749f24      514f           subq.w 0x8, a7
        0x00749f26      224f           movea.l a7, a1
        0x00749f28      41e80010       lea.l 0x10(a0), a0
        0x00749f2c      7007           moveq 0x7, d0
    > 0x00749f2e      12d8           move.b (a0)+, (a1)+
    < 0x00749f30      51c8fffc       dbra d0, 0x749f2e
        0x00749f34      4eb900518a2a   jsr OUTCOM.set_video_crops
        0x00749f3a      dec5           adda.w d5, a7
        0x00749f3c      4eb900523cf0   jsr BRUSHCOM.close_block
        0x00749f42      48780006       pea.l 0x6
        0x00749f46      4eb900402e42   jsr p_Delay
        0x00749f4c      584f           addq.w 0x4, a7
    < 0x00749f4e      6000009c       bra.w 0x749fec
   > 0x00749f52      4eb900523cda   jsr BRUSHCOM.open_block
        0x00749f58      4eb900518f56   jsr OUTCOM.restore_out
        0x00749f5e      554f           subq.w 0x2, a7
        0x00749f60      3f3c0065       move.w 0x65, -(a7)
        0x00749f64      4eb900480fc2   jsr MENUCOM.get_boxon
        0x00749f6a      544f           addq.w 0x2, a7
        0x00749f6c      4a1f           tst.b (a7)+
    < 0x00749f6e      6676           bne.b 0x749fe6
       0x00749f70      2053           movea.l (a3), a0
       0x00749f72      b1e8fffc       cmpa.l -0x4(a0), a0
   < 0x00749f76      6702           beq.b 0x749f7a
      0x00749f78      4e4d           trap 0xd
   > 0x00749f7a      224a           movea.l a2, a1
       0x00749f7c      41e80010       lea.l 0x10(a0), a0
       0x00749f80      7007           moveq 0x7, d0
   > 0x00749f82      12d8           move.b (a0)+, (a1)+
   < 0x00749f84      51c8fffc       dbra d0, 0x749f82
       0x00749f88      3012           move.w (a2), d0
       0x00749f8a      48c0           ext.l d0
       0x00749f8c      322efffc       move.w -0x4(a6), d1
       0x00749f90      48c1           ext.l d1
       0x00749f92      d280           add.l d0, d1
       0x00749f94      9283           sub.l d3, d1
       0x00749f96      0c810000ffff   cmpi.l 0xffff, d1
   < 0x00749f9c      6302           bls.b 0x749fa0
      0x00749f9e      4e4f           trap 0xf
   > 0x00749fa0      d283           add.l d3, d1
       0x00749fa2      3481           move.w d1, (a2)
       0x00749fa4      3014           move.w (a4), d0
       0x00749fa6      48c0           ext.l d0
       0x00749fa8      322efffe       move.w -0x2(a6), d1
       0x00749fac      48c1           ext.l d1
       0x00749fae      d280           add.l d0, d1
       0x00749fb0      9283           sub.l d3, d1
       0x00749fb2      0c810000ffff   cmpi.l 0xffff, d1
   < 0x00749fb8      6302           bls.b 0x749fbc
      0x00749fba      4e4f           trap 0xf
   > 0x00749fbc      d283           add.l d3, d1
       0x00749fbe      3881           move.w d1, (a4)
       0x00749fc0      3d52fff4       move.w (a2), -0xc(a6)
       0x00749fc4      3d54fff6       move.w (a4), -0xa(a6)
       0x00749fc8      1f02           move.b d2, -(a7)
       0x00749fca      2f2efff4       move.l -0xc(a6), -(a7)
       0x00749fce      4eb90051872e   jsr OUTCOM.set_scroll
       0x00749fd4      584f           addq.w 0x4, a7
       0x00749fd6      1e82           move.b d2, (a7)
       0x00749fd8      2f2efffc       move.l -0x4(a6), -(a7)
       0x00749fdc      2f12           move.l (a2), -(a7)
       0x00749fde      4eb900518a2a   jsr OUTCOM.set_video_crops
       0x00749fe4      dec5           adda.w d5, a7
    > 0x00749fe6      4eb900523cf0   jsr BRUSHCOM.close_block
   > 0x00749fec      4cdf1f3f       movem.l (a7)+, d0-d5/a0-a4
           0x00749ff0      4e5e           unlk a6
           0x00749ff2      4e75           rts
            ; CALL XREF from MENUFETTLECOM.interp_graph @ 0x74a23c
 240: MENUFETTLECOM.calculate_coeff ();
           0x00749ff4      4e56ffac       link.w a6, 0xffac
           0x00749ff8      bfd5           cmpa.l (a5), a7
       < 0x00749ffa      6206           bhi.b 0x74a002
          0x00749ffc      44fc0002       move.w 0x2, ccr
          0x0074a000      4e76           trapv
       > 0x0074a002      defc0048       adda.w 0x48, a7
           0x0074a006      48e7fde0       movem.l d0-d5/d7/a0-a2, -(a7)
           0x0074a00a      43f900407b44   lea.l fcn.00407b44, a1
           0x0074a010      45eefff8       lea.l -0x8(a6), a2
           0x0074a014      7a0c           moveq 0xc, d5
           0x0074a016      302e0008       move.w 0x8(a6), d0
           0x0074a01a      48c0           ext.l d0
           0x0074a01c      2200           move.l d0, d1
           0x0074a01e      5281           addq.l 0x1, d1
           0x0074a020      5281           addq.l 0x1, d1
           0x0074a022      b285           cmp.l d5, d1
       < 0x0074a024      6302           bls.b 0x74a028
          0x0074a026      4e4f           trap 0xf
       > 0x0074a028      e581           asl.l 0x2, d1
           0x0074a02a      206c002c       movea.l 0x2c(a4), a0
           0x0074a02e      2400           move.l d0, d2
           0x0074a030      5382           subq.l 0x1, d2
           0x0074a032      5282           addq.l 0x1, d2
           0x0074a034      b485           cmp.l d5, d2
       < 0x0074a036      6302           bls.b 0x74a03a
          0x0074a038      4e4f           trap 0xf
       > 0x0074a03a      e582           asl.l 0x2, d2
           0x0074a03c      28301800       move.l (a0, d1.l), d4
           0x0074a040      26302800       move.l (a0, d2.l), d3
           0x0074a044      4e91           jsr (a1)                    ; fcn.0000000a
           0x0074a046      2f04           move.l d4, -(a7)
           0x0074a048      7802           moveq 0x2, d4
           0x0074a04a      4eb900408686   jsr fcn.00408686
           0x0074a050      2f04           move.l d4, -(a7)
           0x0074a052      2604           move.l d4, d3
           0x0074a054      282f0004       move.l 0x4(a7), d4
           0x0074a058      4eb900407ff8   jsr fcn.00407ff8
           0x0074a05e      2484           move.l d4, (a2)
           0x0074a060      2400           move.l d0, d2
           0x0074a062      5482           addq.l 0x2, d2
           0x0074a064      5282           addq.l 0x1, d2
           0x0074a066      b485           cmp.l d5, d2
       < 0x0074a068      6302           bls.b 0x74a06c
          0x0074a06a      4e4f           trap 0xf
       > 0x0074a06c      e582           asl.l 0x2, d2
           0x0074a06e      5280           addq.l 0x1, d0
           0x0074a070      b085           cmp.l d5, d0
       < 0x0074a072      6302           bls.b 0x74a076
          0x0074a074      4e4f           trap 0xf
       > 0x0074a076      e580           asl.l 0x2, d0
           0x0074a078      28302800       move.l (a0, d2.l), d4
           0x0074a07c      26300800       move.l (a0, d0.l), d3
           0x0074a080      4e91           jsr (a1)                    ; fcn.0000000a
           0x0074a082      2417           move.l (a7), d2
           0x0074a084      2602           move.l d2, d3
           0x0074a086      4eb900407ff8   jsr fcn.00407ff8
           0x0074a08c      2d44fffc       move.l d4, -0x4(a6)
           0x0074a090      2f04           move.l d4, -(a7)
           0x0074a092      28301800       move.l (a0, d1.l), d4
           0x0074a096      26300800       move.l (a0, d0.l), d3
           0x0074a09a      4e91           jsr (a1)                    ; fcn.0000000a
           0x0074a09c      2e04           move.l d4, d7
           0x0074a09e      29700800000c   move.l (a0, d0.l), 0xc(a4)
           0x0074a0a4      29520010       move.l (a2), 0x10(a4)
           0x0074a0a8      281f           move.l (a7)+, d4
           0x0074a0aa      2612           move.l (a2), d3
           0x0074a0ac      4eb900407ba8   jsr fcn.00407ba8
           0x0074a0b2      2f04           move.l d4, -(a7)
           0x0074a0b4      2802           move.l d2, d4
           0x0074a0b6      2607           move.l d7, d3
           0x0074a0b8      4eb900407e92   jsr fcn.00407e92
           0x0074a0be      2604           move.l d4, d3
           0x0074a0c0      2817           move.l (a7), d4
           0x0074a0c2      4e91           jsr (a1)                    ; fcn.0000000a
           0x0074a0c4      dec5           adda.w d5, a7
           0x0074a0c6      29440018       move.l d4, 0x18(a4)
           0x0074a0ca      2f04           move.l d4, -(a7)
           0x0074a0cc      2807           move.l d7, d4
           0x0074a0ce      2612           move.l (a2), d3
           0x0074a0d0      4e91           jsr (a1)                    ; fcn.0000000a
           0x0074a0d2      2617           move.l (a7), d3
           0x0074a0d4      4e91           jsr (a1)                    ; fcn.0000000a
           0x0074a0d6      584f           addq.w 0x4, a7
           0x0074a0d8      29440014       move.l d4, 0x14(a4)
           0x0074a0dc      4cdf07bf       movem.l (a7)+, d0-d5/d7/a0-a2
           0x0074a0e0      4e5e           unlk a6
           0x0074a0e2      4e75           rts
            ; CALL XREFS from MENUFETTLECOM.interp_graph @ 0x74a268, 0x74a2aa
 156: MENUFETTLECOM.cubic_inter ();
           0x0074a0e4      4e56ffcc       link.w a6, 0xffcc
           0x0074a0e8      bfd5           cmpa.l (a5), a7
       < 0x0074a0ea      6206           bhi.b 0x74a0f2
          0x0074a0ec      44fc0002       move.w 0x2, ccr
          0x0074a0f0      4e76           trapv
       > 0x0074a0f2      defc0030       adda.w 0x30, a7
           0x0074a0f6      48e799f0       movem.l d0/d3-d4/d7/a0-a3, -(a7)
           0x0074a0fa      41ee0008       lea.l 0x8(a6), a0
           0x0074a0fe      43f900407e92   lea.l fcn.00407e92, a1
           0x0074a104      45f900407ba8   lea.l fcn.00407ba8, a2
           0x0074a10a      47ee000c       lea.l 0xc(a6), a3
           0x0074a10e      203c000000ff   move.l 0xff, d0
           0x0074a114      2810           move.l (a0), d4
           0x0074a116      262c0018       move.l 0x18(a4), d3
           0x0074a11a      4e91           jsr (a1)                    ; fcn.0000000a
           0x0074a11c      262c0014       move.l 0x14(a4), d3
           0x0074a120      4e92           jsr (a2)                    ; fcn.00000009+0x2
           0x0074a122      2610           move.l (a0), d3
           0x0074a124      4e91           jsr (a1)                    ; fcn.0000000a
           0x0074a126      262c0010       move.l 0x10(a4), d3
           0x0074a12a      4e92           jsr (a2)                    ; fcn.00000009+0x2
           0x0074a12c      2610           move.l (a0), d3
           0x0074a12e      4e91           jsr (a1)                    ; fcn.0000000a
           0x0074a130      262c000c       move.l 0xc(a4), d3
           0x0074a134      4e92           jsr (a2)                    ; fcn.00000009+0x2
           0x0074a136      2e04           move.l d4, d7
           0x0074a138      7800           moveq 0x0, d4
           0x0074a13a      4eb900408686   jsr fcn.00408686
           0x0074a140      2604           move.l d4, d3
           0x0074a142      2807           move.l d7, d4
           0x0074a144      4eb900407dd4   jsr fcn.00407dd4
       < 0x0074a14a      6c04           bge.b 0x74a150
          0x0074a14c      4253           clr.w (a3)
      < 0x0074a14e      6028           bra.b 0x74a178
      > 0x0074a150      2800           move.l d0, d4
          0x0074a152      4eb900408686   jsr fcn.00408686
          0x0074a158      2604           move.l d4, d3
          0x0074a15a      2807           move.l d7, d4
          0x0074a15c      4eb900407dd4   jsr fcn.00407dd4
      < 0x0074a162      6f04           ble.b 0x74a168
         0x0074a164      3680           move.w d0, (a3)
     < 0x0074a166      6010           bra.b 0x74a178
     > 0x0074a168      2807           move.l d7, d4
         0x0074a16a      4eb900408224   jsr fcn.00408224
         0x0074a170      b880           cmp.l d0, d4
     < 0x0074a172      6302           bls.b 0x74a176
        0x0074a174      4e4f           trap 0xf
     > 0x0074a176      3684           move.w d4, (a3)
     > 0x0074a178      4cdf0f99       movem.l (a7)+, d0/d3-d4/d7/a0-a3
           0x0074a17c      4e5e           unlk a6
           0x0074a17e      4e75           rts
            ; CALL XREF from MENUFETTLECOM.draw_graph @ 0x74a324
            0x0074a180      .byte 0x28
            0x0074a181      .byte 0x54
            ; CALL XREF from MENUFETTLECOM.hit_fettle_grap @ 0x74a86c
 344: MENUFETTLECOM.interp_graph ();
           0x0074a182      4e56ff9a       link.w a6, 0xff9a
           0x0074a186      bfd5           cmpa.l (a5), a7
       < 0x0074a188      6206           bhi.b 0x74a190
          0x0074a18a      44fc0002       move.w 0x2, ccr
          0x0074a18e      4e76           trapv
       > 0x0074a190      defc004a       adda.w 0x4a, a7
           0x0074a194      48e7dff8       movem.l d0-d1/d3-d7/a0-a4, -(a7)
           0x0074a198      47f900408686   lea.l fcn.00408686, a3
           0x0074a19e      223c000000ff   move.l 0xff, d1
           0x0074a1a4      206e000c       movea.l 0xc(a6), a0
           0x0074a1a8      7802           moveq 0x2, d4
           0x0074a1aa      4e93           jsr (a3)                    ; fcn.0000000c
           0x0074a1ac      2f04           move.l d4, -(a7)
           0x0074a1ae      26280004       move.l 0x4(a0), d3
           0x0074a1b2      4eb900407e92   jsr fcn.00407e92
           0x0074a1b8      26280008       move.l 0x8(a0), d3
           0x0074a1bc      4eb900407b44   jsr fcn.00407b44
           0x0074a1c2      2084           move.l d4, (a0)
           0x0074a1c4      281f           move.l (a7)+, d4
           0x0074a1c6      2628002c       move.l 0x2c(a0), d3
           0x0074a1ca      4eb900407e92   jsr fcn.00407e92
           0x0074a1d0      26280028       move.l 0x28(a0), d3
           0x0074a1d4      4eb900407b44   jsr fcn.00407b44
           0x0074a1da      21440030       move.l d4, 0x30(a0)
           0x0074a1de      7800           moveq 0x0, d4
           0x0074a1e0      4e93           jsr (a3)                    ; fcn.0000000c
           0x0074a1e2      2e04           move.l d4, d7
           0x0074a1e4      780a           moveq 0xa, d4
           0x0074a1e6      4e93           jsr (a3)                    ; fcn.0000000c
           0x0074a1e8      2f04           move.l d4, -(a7)
           0x0074a1ea      2801           move.l d1, d4
           0x0074a1ec      4e93           jsr (a3)                    ; fcn.0000000c
           0x0074a1ee      2604           move.l d4, d3
           0x0074a1f0      2817           move.l (a7), d4
           0x0074a1f2      4eb900407ff8   jsr fcn.00407ff8
           0x0074a1f8      584f           addq.w 0x4, a7
           0x0074a1fa      2d44ffe8       move.l d4, -0x18(a6)
           0x0074a1fe      7cff           moveq 0xff, d6
           0x0074a200      206e0008       movea.l 0x8(a6), a0
           0x0074a204      226e0008       movea.l 0x8(a6), a1
           0x0074a208      7a00           moveq 0x0, d5
       > 0x0074a20a      2807           move.l d7, d4
          0x0074a20c      4eb90040832a   jsr fcn.0040832a
          0x0074a212      48c6           ext.l d6
          0x0074a214      bc84           cmp.l d4, d6
      < 0x0074a216      672e           beq.b 0x74a246
         0x0074a218      0c460009       cmpi.w 0x9, d6
     < 0x0074a21c      6c28           bge.b 0x74a246
        0x0074a21e      0484ffff8000   subi.l 0xffff8000, d4
        0x0074a224      0c840000ffff   cmpi.l 0xffff, d4
    < 0x0074a22a      6302           bls.b 0x74a22e
       0x0074a22c      4e4f           trap 0xf
    > 0x0074a22e      0684ffff8000   addi.l 0xffff8000, d4
        0x0074a234      3c04           move.w d4, d6
        0x0074a236      3f06           move.w d6, -(a7)
        0x0074a238      49eeffe0       lea.l -0x20(a6), a4
        0x0074a23c      4ebafdb6       jsr MENUFETTLECOM.calculate_coeff(pc)
        0x0074a240      544f           addq.w 0x2, a7
        0x0074a242      286effe0       movea.l -0x20(a6), a4
     > 0x0074a246      4a2e0010       tst.b 0x10(a6)
      < 0x0074a24a      6742           beq.b 0x74a28e
         0x0074a24c      4b81           chk.w d1, d5
         0x0074a24e      554f           subq.w 0x2, a7
         0x0074a250      48c6           ext.l d6
         0x0074a252      2806           move.l d6, d4
         0x0074a254      4e93           jsr (a3)                    ; fcn.0000000c
         0x0074a256      594f           subq.w 0x4, a7
         0x0074a258      2604           move.l d4, d3
         0x0074a25a      2807           move.l d7, d4
         0x0074a25c      4eb900407b44   jsr fcn.00407b44
         0x0074a262      2e84           move.l d4, (a7)
         0x0074a264      49eeffe0       lea.l -0x20(a6), a4
         0x0074a268      4ebafe7a       jsr MENUFETTLECOM.cubic_inter(pc)
         0x0074a26c      584f           addq.w 0x4, a7
         0x0074a26e      286effe0       movea.l -0x20(a6), a4
         0x0074a272      301f           move.w (a7)+, d0
         0x0074a274      4181           chk.w d1, d0
         0x0074a276      e340           asl.w 0x1, d0
         0x0074a278      45f90086cb3e   lea.l 0x86cb3e, a2
         0x0074a27e      45f20000       lea.l (a2, d0.w), a2
         0x0074a282      302a0528       move.w 0x528(a2), d0
         0x0074a286      4181           chk.w d1, d0
         0x0074a288      13805000       move.b d0, (a1, d5.w)
     < 0x0074a28c      602e           bra.b 0x74a2bc
     > 0x0074a28e      4b81           chk.w d1, d5
         0x0074a290      554f           subq.w 0x2, a7
         0x0074a292      48c6           ext.l d6
         0x0074a294      2806           move.l d6, d4
         0x0074a296      4e93           jsr (a3)                    ; fcn.0000000c
         0x0074a298      594f           subq.w 0x4, a7
         0x0074a29a      2604           move.l d4, d3
         0x0074a29c      2807           move.l d7, d4
         0x0074a29e      4eb900407b44   jsr fcn.00407b44
         0x0074a2a4      2e84           move.l d4, (a7)
         0x0074a2a6      49eeffe0       lea.l -0x20(a6), a4
         0x0074a2aa      4ebafe38       jsr MENUFETTLECOM.cubic_inter(pc)
         0x0074a2ae      584f           addq.w 0x4, a7
         0x0074a2b0      286effe0       movea.l -0x20(a6), a4
         0x0074a2b4      301f           move.w (a7)+, d0
         0x0074a2b6      4181           chk.w d1, d0
         0x0074a2b8      11805000       move.b d0, (a0, d5.w)
     > 0x0074a2bc      2807           move.l d7, d4
          0x0074a2be      262effe8       move.l -0x18(a6), d3
          0x0074a2c2      4eb900407ba8   jsr fcn.00407ba8
          0x0074a2c8      2e04           move.l d4, d7
          0x0074a2ca      5245           addq.w 0x1, d5
          0x0074a2cc      ba41           cmp.w d1, d5
       < 0x0074a2ce      6f00ff3a       ble.w 0x74a20a
           0x0074a2d2      4cdf1ffb       movem.l (a7)+, d0-d1/d3-d7/a0-a4
           0x0074a2d6      4e5e           unlk a6
           0x0074a2d8      4e75           rts
 392: MENUFETTLECOM.draw_graph ();
           0x0074a2da      4e56ffae       link.w a6, 0xffae
           0x0074a2de      bfd5           cmpa.l (a5), a7
       < 0x0074a2e0      6206           bhi.b 0x74a2e8
          0x0074a2e2      44fc0002       move.w 0x2, ccr
          0x0074a2e6      4e76           trapv
       > 0x0074a2e8      defc004c       adda.w 0x4c, a7
           0x0074a2ec      48e7fff8       movem.l d0-d7/a0-a4, -(a7)
           0x0074a2f0      47f90086cb3e   lea.l 0x86cb3e, a3
           0x0074a2f6      2a3cffff8000   move.l 0xffff8000, d5
           0x0074a2fc      7c0a           moveq 0xa, d6
           0x0074a2fe      102e000a       move.b 0xa(a6), d0
           0x0074a302      4880           ext.w d0
           0x0074a304      7234           moveq 0x34, d1
           0x0074a306      c3c0           muls.w d0, d1
           0x0074a308      4227           clr.b -(a7)
           0x0074a30a      4a40           tst.w d0
       < 0x0074a30c      6602           bne.b 0x74a310
          0x0074a30e      5217           addq.b 0x1, (a7)
       > 0x0074a310      204b           movea.l a3, a0
           0x0074a312      41f01000       lea.l (a0, d1.w), a0
           0x0074a316      48680458       pea.l 0x458(a0)
           0x0074a31a      3200           move.w d0, d1
           0x0074a31c      e141           asl.w 0x8, d1
           0x0074a31e      204b           movea.l a3, a0
           0x0074a320      48701058       pea.l 0x58(a0, d1.w)
           0x0074a324      4ebafe5a       jsr 0x74a180(pc)
           0x0074a328      dec6           adda.w d6, a7
           0x0074a32a      286efff6       movea.l -0xa(a6), a4
           0x0074a32e      4227           clr.b -(a7)
           0x0074a330      4eb900631aee   jsr BRUSHESCOM.PAS.sel_brush
           0x0074a336      1ebc0003       move.b 0x3, (a7)
           0x0074a33a      4227           clr.b -(a7)
           0x0074a33c      4227           clr.b -(a7)
           0x0074a33e      4227           clr.b -(a7)
           0x0074a340      1f3c0001       move.b 0x1, -(a7)
           0x0074a344      4eb900523ab6   jsr BRUSHCOM.set_stamp_mode
           0x0074a34a      dec6           adda.w d6, a7
           0x0074a34c      322e0008       move.w 0x8(a6), d1
           0x0074a350      48c1           ext.l d1
           0x0074a352      ed81           asl.l 0x6, d1
           0x0074a354      9285           sub.l d5, d1
           0x0074a356      0c810000ffff   cmpi.l 0xffff, d1
       < 0x0074a35c      6302           bls.b 0x74a360
          0x0074a35e      4e4f           trap 0xf
       > 0x0074a360      d285           add.l d5, d1
           0x0074a362      3f01           move.w d1, -(a7)
           0x0074a364      4eb900521034   jsr BRUSHCOM.br_pressure
           0x0074a36a      544f           addq.w 0x2, a7
           0x0074a36c      41bc0002       chk.w 0x2, d0
           0x0074a370      c1fc0006       muls.w 0x6, d0
           0x0074a374      41fae5f6       lea.l 0x74896c(pc), a0
           0x0074a378      2f300002       move.l 0x2(a0, d0.w), -(a7)
           0x0074a37c      3f300000       move.w (a0, d0.w), -(a7)
           0x0074a380      4eb900520fa4   jsr BRUSHCOM.set_br_colour
           0x0074a386      5c4f           addq.w 0x6, a7
           0x0074a388      102e000a       move.b 0xa(a6), d0
           0x0074a38c      4880           ext.w d0
           0x0074a38e      3200           move.w d0, d1
           0x0074a390      e141           asl.w 0x8, d1
           0x0074a392      204b           movea.l a3, a0
           0x0074a394      7e00           moveq 0x0, d7
       > 0x0074a396      3407           move.w d7, d2
          0x0074a398      c5ec0004       muls.w 0x4(a4), d2
          0x0074a39c      2802           move.l d2, d4
          0x0074a39e      7610           moveq 0x10, d3
          0x0074a3a0      4eb900406b50   jsr fcn.00406b50
          0x0074a3a6      342c0008       move.w 0x8(a4), d2
          0x0074a3aa      48c2           ext.l d2
          0x0074a3ac      d882           add.l d2, d4
          0x0074a3ae      9885           sub.l d5, d4
          0x0074a3b0      0c840000ffff   cmpi.l 0xffff, d4
      < 0x0074a3b6      6302           bls.b 0x74a3ba
         0x0074a3b8      4e4f           trap 0xf
      > 0x0074a3ba      d885           add.l d5, d4
          0x0074a3bc      3d44fffc       move.w d4, -0x4(a6)
          0x0074a3c0      48c7           ext.l d7
          0x0074a3c2      2407           move.l d7, d2
          0x0074a3c4      e782           asl.l 0x3, d2
          0x0074a3c6      0c82000000ff   cmpi.l 0xff, d2
      < 0x0074a3cc      6302           bls.b 0x74a3d0
         0x0074a3ce      4e4f           trap 0xf
      > 0x0074a3d0      43f01000       lea.l (a0, d1.w), a1
          0x0074a3d4      4283           clr.l d3
          0x0074a3d6      16312858       move.b 0x58(a1, d2.l), d3
          0x0074a3da      c7ec0006       muls.w 0x6(a4), d3
          0x0074a3de      2803           move.l d3, d4
          0x0074a3e0      7610           moveq 0x10, d3
          0x0074a3e2      4eb900406b50   jsr fcn.00406b50
          0x0074a3e8      342c000a       move.w 0xa(a4), d2
          0x0074a3ec      48c2           ext.l d2
          0x0074a3ee      4484           neg.l d4
          0x0074a3f0      d882           add.l d2, d4
          0x0074a3f2      9885           sub.l d5, d4
          0x0074a3f4      0c840000ffff   cmpi.l 0xffff, d4
      < 0x0074a3fa      6302           bls.b 0x74a3fe
         0x0074a3fc      4e4f           trap 0xf
      > 0x0074a3fe      d885           add.l d5, d4
          0x0074a400      3d44fffe       move.w d4, -0x2(a6)
          0x0074a404      0c470010       cmpi.w 0x10, d7
      < 0x0074a408      6624           bne.b 0x74a42e
         0x0074a40a      41bc0002       chk.w 0x2, d0
         0x0074a40e      7406           moveq 0x6, d2
         0x0074a410      c5c0           muls.w d0, d2
         0x0074a412      43fae56a       lea.l 0x74897e(pc), a1
         0x0074a416      5d4f           subq.w 0x6, a7
         0x0074a418      244f           movea.l a7, a2
         0x0074a41a      43f12000       lea.l (a1, d2.w), a1
         0x0074a41e      7405           moveq 0x5, d2
     > 0x0074a420      14d9           move.b (a1)+, (a2)+
     < 0x0074a422      51cafffc       dbra d2, 0x74a420
         0x0074a426      4eb900520fa4   jsr BRUSHCOM.set_br_colour
         0x0074a42c      5c4f           addq.w 0x6, a7
      > 0x0074a42e      4a47           tst.w d7
      < 0x0074a430      660e           bne.b 0x74a440
         0x0074a432      2f2efffc       move.l -0x4(a6), -(a7)
         0x0074a436      4eb900635510   jsr asm_start_line
         0x0074a43c      584f           addq.w 0x4, a7
     < 0x0074a43e      6010           bra.b 0x74a450
     > 0x0074a440      2f2efffc       move.l -0x4(a6), -(a7)
         0x0074a444      1f3c0001       move.b 0x1, -(a7)
         0x0074a448      4eb9006355c0   jsr asm_paint_draw_to
         0x0074a44e      5c4f           addq.w 0x6, a7
     > 0x0074a450      5247           addq.w 0x1, d7
          0x0074a452      0c47001f       cmpi.w 0x1f, d7
       < 0x0074a456      6f00ff3e       ble.w 0x74a396
           0x0074a45a      4cdf1fff       movem.l (a7)+, d0-d7/a0-a4
           0x0074a45e      4e5e           unlk a6
           0x0074a460      4e75           rts
            ; CALL XREF from MENUFETTLECOM.hit_fettle_grap @ 0x74a61c
 356: MENUFETTLECOM.draw_graph_box ();
           0x0074a462      4e56ffa6       link.w a6, 0xffa6
           0x0074a466      bfd5           cmpa.l (a5), a7
       < 0x0074a468      6206           bhi.b 0x74a470
          0x0074a46a      44fc0002       move.w 0x2, ccr
          0x0074a46e      4e76           trapv
       > 0x0074a470      defc004a       adda.w 0x4a, a7
           0x0074a474      48e7fff8       movem.l d0-d7/a0-a4, -(a7)
           0x0074a478      41eeffec       lea.l -0x14(a6), a0
           0x0074a47c      43fafe5c       lea.l MENUFETTLECOM.draw_graph(pc), a1
           0x0074a480      45eefff8       lea.l -0x8(a6), a2
           0x0074a484      47f900406a74   lea.l fcn.00406a74, a3
           0x0074a48a      243cffff8000   move.l 0xffff8000, d2
           0x0074a490      3a3c0080       move.w 0x80, d5
           0x0074a494      7c02           moveq 0x2, d6
           0x0074a496      7e01           moveq 0x1, d7
           0x0074a498      3f2e0008       move.w 0x8(a6), -(a7)
           0x0074a49c      4852           pea.l (a2)
           0x0074a49e      4eb90048124c   jsr MENUCOM.box_info
           0x0074a4a4      5c4f           addq.w 0x6, a7
           0x0074a4a6      302efffc       move.w -0x4(a6), d0
           0x0074a4aa      48c0           ext.l d0
           0x0074a4ac      5980           subq.l 0x4, d0
           0x0074a4ae      7804           moveq 0x4, d4
           0x0074a4b0      2600           move.l d0, d3
           0x0074a4b2      4e93           jsr (a3)                    ; fcn.0000000c
           0x0074a4b4      9882           sub.l d2, d4
           0x0074a4b6      0c840000ffff   cmpi.l 0xffff, d4
       < 0x0074a4bc      6302           bls.b 0x74a4c0
          0x0074a4be      4e4f           trap 0xf
       > 0x0074a4c0      d882           add.l d2, d4
           0x0074a4c2      3d44fff0       move.w d4, -0x10(a6)
           0x0074a4c6      302efffe       move.w -0x2(a6), d0
           0x0074a4ca      48c0           ext.l d0
           0x0074a4cc      2200           move.l d0, d1
           0x0074a4ce      5981           subq.l 0x4, d1
           0x0074a4d0      2801           move.l d1, d4
           0x0074a4d2      7602           moveq 0x2, d3
           0x0074a4d4      4eb900406b50   jsr fcn.00406b50
           0x0074a4da      3d44fff2       move.w d4, -0xe(a6)
           0x0074a4de      3212           move.w (a2), d1
           0x0074a4e0      48c1           ext.l d1
           0x0074a4e2      5481           addq.l 0x2, d1
           0x0074a4e4      7808           moveq 0x8, d4
           0x0074a4e6      2601           move.l d1, d3
           0x0074a4e8      4e93           jsr (a3)                    ; fcn.0000000c
           0x0074a4ea      9882           sub.l d2, d4
           0x0074a4ec      0c840000ffff   cmpi.l 0xffff, d4
       < 0x0074a4f2      6302           bls.b 0x74a4f6
          0x0074a4f4      4e4f           trap 0xf
       > 0x0074a4f6      d882           add.l d2, d4
           0x0074a4f8      3d44fff4       move.w d4, -0xc(a6)
           0x0074a4fc      322efffa       move.w -0x6(a6), d1
           0x0074a500      48c1           ext.l d1
           0x0074a502      d081           add.l d1, d0
           0x0074a504      5580           subq.l 0x2, d0
           0x0074a506      7808           moveq 0x8, d4
           0x0074a508      2600           move.l d0, d3
           0x0074a50a      4e93           jsr (a3)                    ; fcn.0000000c
           0x0074a50c      9882           sub.l d2, d4
           0x0074a50e      0c840000ffff   cmpi.l 0xffff, d4
       < 0x0074a514      6302           bls.b 0x74a518
          0x0074a516      4e4f           trap 0xf
       > 0x0074a518      d882           add.l d2, d4
           0x0074a51a      3d44fff6       move.w d4, -0xa(a6)
           0x0074a51e      2f2efffc       move.l -0x4(a6), -(a7)
           0x0074a522      2f12           move.l (a2), -(a7)
           0x0074a524      2f3ae328       move.l 0x74884e(pc), -(a7)
           0x0074a528      3f3ae322       move.w 0x74884c(pc), -(a7)
           0x0074a52c      48780000       pea.l 0x0
           0x0074a530      4eb90051fa64   jsr BRUSHCOM.br_draw_box
           0x0074a536      defc000e       adda.w 0xe, a7
           0x0074a53a      3eb90086cb66   move.w 0x86cb66, (a7)
           0x0074a540      4eb900480fc2   jsr MENUCOM.get_boxon
           0x0074a546      544f           addq.w 0x2, a7
           0x0074a548      4a1f           tst.b (a7)+
       < 0x0074a54a      671c           beq.b 0x74a568
          0x0074a54c      4227           clr.b -(a7)
          0x0074a54e      3f05           move.w d5, -(a7)
          0x0074a550      2848           movea.l a0, a4
          0x0074a552      4e91           jsr (a1)                    ; fcn.0000000a
          0x0074a554      584f           addq.w 0x4, a7
          0x0074a556      2850           movea.l (a0), a4
          0x0074a558      1f06           move.b d6, -(a7)
          0x0074a55a      3f05           move.w d5, -(a7)
          0x0074a55c      2848           movea.l a0, a4
          0x0074a55e      4e91           jsr (a1)                    ; fcn.0000000a
          0x0074a560      584f           addq.w 0x4, a7
          0x0074a562      2850           movea.l (a0), a4
          0x0074a564      1f07           move.b d7, -(a7)
      < 0x0074a566      604a           bra.b 0x74a5b2
      > 0x0074a568      554f           subq.w 0x2, a7
          0x0074a56a      3f390086cb68   move.w 0x86cb68, -(a7)
          0x0074a570      4eb900480fc2   jsr MENUCOM.get_boxon
          0x0074a576      544f           addq.w 0x2, a7
          0x0074a578      4a1f           tst.b (a7)+
      < 0x0074a57a      671c           beq.b 0x74a598
         0x0074a57c      4227           clr.b -(a7)
         0x0074a57e      3f05           move.w d5, -(a7)
         0x0074a580      2848           movea.l a0, a4
         0x0074a582      4e91           jsr (a1)                    ; fcn.0000000a
         0x0074a584      584f           addq.w 0x4, a7
         0x0074a586      2850           movea.l (a0), a4
         0x0074a588      1f07           move.b d7, -(a7)
         0x0074a58a      3f05           move.w d5, -(a7)
         0x0074a58c      2848           movea.l a0, a4
         0x0074a58e      4e91           jsr (a1)                    ; fcn.0000000a
         0x0074a590      584f           addq.w 0x4, a7
         0x0074a592      2850           movea.l (a0), a4
         0x0074a594      1f06           move.b d6, -(a7)
     < 0x0074a596      601a           bra.b 0x74a5b2
     > 0x0074a598      1f07           move.b d7, -(a7)
         0x0074a59a      3f05           move.w d5, -(a7)
         0x0074a59c      2848           movea.l a0, a4
         0x0074a59e      4e91           jsr (a1)                    ; fcn.0000000a
         0x0074a5a0      584f           addq.w 0x4, a7
         0x0074a5a2      2850           movea.l (a0), a4
         0x0074a5a4      1f06           move.b d6, -(a7)
         0x0074a5a6      3f05           move.w d5, -(a7)
         0x0074a5a8      2848           movea.l a0, a4
         0x0074a5aa      4e91           jsr (a1)                    ; fcn.0000000a
         0x0074a5ac      584f           addq.w 0x4, a7
         0x0074a5ae      2850           movea.l (a0), a4
         0x0074a5b0      4227           clr.b -(a7)
     > 0x0074a5b2      3f3c00c0       move.w 0xc0, -(a7)
           0x0074a5b6      2848           movea.l a0, a4
           0x0074a5b8      4e91           jsr (a1)                    ; fcn.0000000a
           0x0074a5ba      584f           addq.w 0x4, a7
           0x0074a5bc      2850           movea.l (a0), a4
           0x0074a5be      4cdf1fff       movem.l (a7)+, d0-d7/a0-a4
           0x0074a5c2      4e5e           unlk a6
           0x0074a5c4      4e75           rts
            ; CALL XREF from MENUFETTLECOM.hit_fettle_valu @ 0x74a98e
 718: MENUFETTLECOM.hit_fettle_grap ();
           0x0074a5c6      4e56ffa2       link.w a6, 0xffa2
           0x0074a5ca      bfd5           cmpa.l (a5), a7
       < 0x0074a5cc      6206           bhi.b 0x74a5d4
          0x0074a5ce      44fc0002       move.w 0x2, ccr
          0x0074a5d2      4e76           trapv
       > 0x0074a5d4      defc0058       adda.w 0x58, a7
           0x0074a5d8      48e7fff8       movem.l d0-d7/a0-a4, -(a7)
           0x0074a5dc      45f90086cb3e   lea.l 0x86cb3e, a2
           0x0074a5e2      47f900406a74   lea.l fcn.00406a74, a3
           0x0074a5e8      302e0008       move.w 0x8(a6), d0
           0x0074a5ec      0c400004       cmpi.w 0x4, d0
       < 0x0074a5f0      6d10           blt.b 0x74a602
          0x0074a5f2      0c400004       cmpi.w 0x4, d0
      < 0x0074a5f6      672e           beq.b 0x74a626
         0x0074a5f8      0c400015       cmpi.w 0x15, d0
     < 0x0074a5fc      6728           beq.b 0x74a626
    < 0x0074a5fe      6000028c       bra.w 0x74a88c
    > 0x0074a602      0c400002       cmpi.w 0x2, d0
    < 0x0074a606      6700023a       beq.w 0x74a842
       0x0074a60a      0c400003       cmpi.w 0x3, d0
   < 0x0074a60e      6704           beq.b 0x74a614
  < 0x0074a610      6000027a       bra.w 0x74a88c
  > 0x0074a614      3f2e000a       move.w 0xa(a6), -(a7)
      0x0074a618      49eefffa       lea.l -0x6(a6), a4
      0x0074a61c      4ebafe44       jsr MENUFETTLECOM.draw_graph_box(pc)
  > 0x0074a620      544f           addq.w 0x2, a7
 < 0x0074a622      60000268       bra.w 0x74a88c
 > 0x0074a626      4eb9004558e4   jsr CURSORCOM.cursor_off
      0x0074a62c      48780001       pea.l 0x1
      0x0074a630      4eb900402e42   jsr p_Delay
      0x0074a636      584f           addq.w 0x4, a7
      0x0074a638      20790086cb48   movea.l 0x86cb48, a0
      0x0074a63e      b1e8fffc       cmpa.l -0x4(a0), a0
  < 0x0074a642      6702           beq.b 0x74a646
     0x0074a644      4e4d           trap 0xd
  > 0x0074a646      0c400004       cmpi.w 0x4, d0
  < 0x0074a64a      663c           bne.b 0x74a688
     0x0074a64c      32280016       move.w 0x16(a0), d1
     0x0074a650      c3fc0014       muls.w 0x14, d1
     0x0074a654      3428001a       move.w 0x1a(a0), d2
     0x0074a658      48c2           ext.l d2
     0x0074a65a      d282           add.l d2, d1
     0x0074a65c      7802           moveq 0x2, d4
     0x0074a65e      2602           move.l d2, d3
     0x0074a660      4e93           jsr (a3)                    ; fcn.0000000c
     0x0074a662      2604           move.l d4, d3
     0x0074a664      2801           move.l d1, d4
     0x0074a666      4eb900406b50   jsr fcn.00406b50
     0x0074a66c      0484ffff8000   subi.l 0xffff8000, d4
     0x0074a672      0c840000ffff   cmpi.l 0xffff, d4
 < 0x0074a678      6302           bls.b 0x74a67c
    0x0074a67a      4e4f           trap 0xf
 > 0x0074a67c      0684ffff8000   addi.l 0xffff8000, d4
     0x0074a682      33c40086cb5c   move.w d4, 0x86cb5c
  > 0x0074a688      3228001c       move.w 0x1c(a0), d1
      0x0074a68c      48c1           ext.l d1
      0x0074a68e      34280018       move.w 0x18(a0), d2
      0x0074a692      48c2           ext.l d2
      0x0074a694      4482           neg.l d2
      0x0074a696      d481           add.l d1, d2
      0x0074a698      283c000001fe   move.l 0x1fe, d4
      0x0074a69e      2602           move.l d2, d3
      0x0074a6a0      4e93           jsr (a3)                    ; fcn.0000000c
      0x0074a6a2      d881           add.l d1, d4
      0x0074a6a4      2f04           move.l d4, -(a7)
      0x0074a6a6      7802           moveq 0x2, d4
      0x0074a6a8      2601           move.l d1, d3
      0x0074a6aa      4e93           jsr (a3)                    ; fcn.0000000c
      0x0074a6ac      2604           move.l d4, d3
      0x0074a6ae      2817           move.l (a7), d4
      0x0074a6b0      4eb900406b50   jsr fcn.00406b50
      0x0074a6b6      584f           addq.w 0x4, a7
      0x0074a6b8      0484ffff8000   subi.l 0xffff8000, d4
      0x0074a6be      0c840000ffff   cmpi.l 0xffff, d4
  < 0x0074a6c4      6302           bls.b 0x74a6c8
     0x0074a6c6      4e4f           trap 0xf
  > 0x0074a6c8      0684ffff8000   addi.l 0xffff8000, d4
      0x0074a6ce      3a04           move.w d4, d5
      0x0074a6d0      0c4500ff       cmpi.w 0xff, d5
  < 0x0074a6d4      6f04           ble.b 0x74a6da
     0x0074a6d6      3a3c00ff       move.w 0xff, d5
  > 0x0074a6da      48c5           ext.l d5
      0x0074a6dc      2805           move.l d5, d4
      0x0074a6de      4eb900408686   jsr fcn.00408686
      0x0074a6e4      2f04           move.l d4, -(a7)
      0x0074a6e6      7e00           moveq 0x0, d7
  > 0x0074a6e8      554f           subq.w 0x2, a7
     0x0074a6ea      4887           ext.w d7
     0x0074a6ec      3207           move.w d7, d1
     0x0074a6ee      e341           asl.w 0x1, d1
     0x0074a6f0      204a           movea.l a2, a0
     0x0074a6f2      3f301026       move.w 0x26(a0, d1.w), -(a7)
     0x0074a6f6      4eb900480fc2   jsr MENUCOM.get_boxon
     0x0074a6fc      544f           addq.w 0x2, a7
     0x0074a6fe      4a1f           tst.b (a7)+
 < 0x0074a700      6616           bne.b 0x74a718
    0x0074a702      554f           subq.w 0x2, a7
    0x0074a704      3f390086cb6a   move.w 0x86cb6a, -(a7)
    0x0074a70a      4eb900480fc2   jsr MENUCOM.get_boxon
    0x0074a710      544f           addq.w 0x2, a7
    0x0074a712      4a1f           tst.b (a7)+
 < 0x0074a714      670000ca       beq.w 0x74a7e0
 > 0x0074a718      32390086cb5c   move.w 0x86cb5c, d1
     0x0074a71e      48c1           ext.l d1
     0x0074a720      2401           move.l d1, d2
     0x0074a722      5282           addq.l 0x1, d2
     0x0074a724      0c820000000c   cmpi.l 0xc, d2
 < 0x0074a72a      6302           bls.b 0x74a72e
    0x0074a72c      4e4f           trap 0xf
 > 0x0074a72e      e582           asl.l 0x2, d2
     0x0074a730      4887           ext.w d7
     0x0074a732      7634           moveq 0x34, d3
     0x0074a734      c7c7           muls.w d7, d3
     0x0074a736      204a           movea.l a2, a0
     0x0074a738      41f03000       lea.l (a0, d3.w), a0
     0x0074a73c      2f08           move.l a0, -(a7)
     0x0074a73e      43f02800       lea.l (a0, d2.l), a1
     0x0074a742      23440458       move.l d4, 0x458(a1)
     0x0074a746      4eb900408224   jsr fcn.00408224
     0x0074a74c      4484           neg.l d4
     0x0074a74e      d885           add.l d5, d4
     0x0074a750      7602           moveq 0x2, d3
     0x0074a752      4eb900406b50   jsr fcn.00406b50
     0x0074a758      0484ffff8000   subi.l 0xffff8000, d4
     0x0074a75e      0c840000ffff   cmpi.l 0xffff, d4
 < 0x0074a764      6302           bls.b 0x74a768
    0x0074a766      4e4f           trap 0xf
 > 0x0074a768      0684ffff8000   addi.l 0xffff8000, d4
     0x0074a76e      3c04           move.w d4, d6
     0x0074a770      0c410009       cmpi.w 0x9, d1
 < 0x0074a774      6c2e           bge.b 0x74a7a4
    0x0074a776      2401           move.l d1, d2
    0x0074a778      5282           addq.l 0x1, d2
    0x0074a77a      5282           addq.l 0x1, d2
    0x0074a77c      0c820000000c   cmpi.l 0xc, d2
 < 0x0074a782      6302           bls.b 0x74a786
    0x0074a784      4e4f           trap 0xf
 > 0x0074a786      e582           asl.l 0x2, d2
    0x0074a788      43f02800       lea.l (a0, d2.l), a1
    0x0074a78c      48c6           ext.l d6
    0x0074a78e      2806           move.l d6, d4
    0x0074a790      4eb900408686   jsr fcn.00408686
    0x0074a796      26290458       move.l 0x458(a1), d3
    0x0074a79a      4eb900407ba8   jsr fcn.00407ba8
    0x0074a7a0      23440458       move.l d4, 0x458(a1)
 > 0x0074a7a4      0c410001       cmpi.w 0x1, d1
 < 0x0074a7a8      6e04           bgt.b 0x74a7ae
    0x0074a7aa      584f           addq.w 0x4, a7
 < 0x0074a7ac      6032           bra.b 0x74a7e0
 > 0x0074a7ae      2401           move.l d1, d2
     0x0074a7b0      5382           subq.l 0x1, d2
     0x0074a7b2      5282           addq.l 0x1, d2
     0x0074a7b4      0c820000000c   cmpi.l 0xc, d2
 < 0x0074a7ba      6302           bls.b 0x74a7be
    0x0074a7bc      4e4f           trap 0xf
 > 0x0074a7be      e582           asl.l 0x2, d2
     0x0074a7c0      2057           movea.l (a7), a0
     0x0074a7c2      41f02800       lea.l (a0, d2.l), a0
     0x0074a7c6      48c6           ext.l d6
     0x0074a7c8      2806           move.l d6, d4
     0x0074a7ca      4eb900408686   jsr fcn.00408686
     0x0074a7d0      26280458       move.l 0x458(a0), d3
     0x0074a7d4      4eb900407ba8   jsr fcn.00407ba8
     0x0074a7da      21440458       move.l d4, 0x458(a0)
     0x0074a7de      584f           addq.w 0x4, a7
 > 0x0074a7e0      2817           move.l (a7), d4
     0x0074a7e2      5207           addq.b 0x1, d7
     0x0074a7e4      0c070002       cmpi.b 0x2, d7
  < 0x0074a7e8      6f00fefe       ble.w 0x74a6e8
      0x0074a7ec      544f           addq.w 0x2, a7
      0x0074a7ee      3eb90086cb5a   move.w 0x86cb5a, (a7)
      0x0074a7f4      4eb900481472   jsr MENUCOM.draw_box
      0x0074a7fa      1ebc0001       move.b 0x1, (a7)
      0x0074a7fe      554f           subq.w 0x2, a7
      0x0074a800      4eb900401d86   jsr p_Task_Priority
      0x0074a806      3217           move.w (a7), d1
      0x0074a808      43bc0007       chk.w 0x7, d1
      0x0074a80c      3e81           move.w d1, (a7)
      0x0074a80e      4eb900456ede   jsr PAD.flag_on_abort
      0x0074a814      3ebc0065       move.w 0x65, (a7)
      0x0074a818      4eb900480fc2   jsr MENUCOM.get_boxon
      0x0074a81e      544f           addq.w 0x2, a7
      0x0074a820      4a1f           tst.b (a7)+
  < 0x0074a822      6706           beq.b 0x74a82a
     0x0074a824      1f3c0002       move.b 0x2, -(a7)
 < 0x0074a828      6004           bra.b 0x74a82e
 > 0x0074a82a      1f3c0001       move.b 0x1, -(a7)
 > 0x0074a82e      4ebaeb08       jsr MENUFETTLECOM.do_fettle(pc)
      0x0074a832      544f           addq.w 0x2, a7
      0x0074a834      4227           clr.b -(a7)
      0x0074a836      4267           clr.w -(a7)
      0x0074a838      4eb900456ede   jsr PAD.flag_on_abort
      0x0074a83e      584f           addq.w 0x4, a7
  < 0x0074a840      604a           bra.b 0x74a88c
  > 0x0074a842      7e00           moveq 0x0, d7
  > 0x0074a844      4887           ext.w d7
     0x0074a846      7034           moveq 0x34, d0
     0x0074a848      c1c7           muls.w d7, d0
     0x0074a84a      4227           clr.b -(a7)
     0x0074a84c      4a07           tst.b d7
 < 0x0074a84e      6602           bne.b 0x74a852
    0x0074a850      5217           addq.b 0x1, (a7)
 > 0x0074a852      204a           movea.l a2, a0
     0x0074a854      41f00000       lea.l (a0, d0.w), a0
     0x0074a858      48680458       pea.l 0x458(a0)
     0x0074a85c      4887           ext.w d7
     0x0074a85e      3007           move.w d7, d0
     0x0074a860      e140           asl.w 0x8, d0
     0x0074a862      204a           movea.l a2, a0
     0x0074a864      48700058       pea.l 0x58(a0, d0.w)
     0x0074a868      49eefffa       lea.l -0x6(a6), a4
     0x0074a86c      4ebaf914       jsr MENUFETTLECOM.interp_graph(pc)
     0x0074a870      defc000a       adda.w 0xa, a7
     0x0074a874      5207           addq.b 0x1, d7
     0x0074a876      0c070002       cmpi.b 0x2, d7
  < 0x0074a87a      6fc8           ble.b 0x74a844
      0x0074a87c      3f390086cb5a   move.w 0x86cb5a, -(a7)
      0x0074a882      4eb900481472   jsr MENUCOM.draw_box
 < 0x0074a888      6000fd96       bra.w 0x74a620
 > 0x0074a88c      4cdf1fff       movem.l (a7)+, d0-d7/a0-a4
           0x0074a890      4e5e           unlk a6
           0x0074a892      4e75           rts
            ; CALL XREF from MENUFETTLECOM.hit_fettle @ 0x74c0f2
 1694: MENUFETTLECOM.hit_fettle_valu ();
           0x0074a894      4e56ff6e       link.w a6, 0xff6e
           0x0074a898      bfd5           cmpa.l (a5), a7
       < 0x0074a89a      6206           bhi.b 0x74a8a2
          0x0074a89c      44fc0002       move.w 0x2, ccr
          0x0074a8a0      4e76           trapv
       > 0x0074a8a2      defc0064       adda.w 0x64, a7
           0x0074a8a6      48e7fff8       movem.l d0-d7/a0-a4, -(a7)
           0x0074a8aa      49f90086cb3e   lea.l 0x86cb3e, a4
           0x0074a8b0      302e0008       move.w 0x8(a6), d0
           0x0074a8b4      41fae0da       lea.l 0x748990(pc), a0
           0x0074a8b8      3200           move.w d0, d1
           0x0074a8ba      e649           lsr.w 0x3, d1
           0x0074a8bc      0c410020       cmpi.w 0x20, d1
       < 0x0074a8c0      6d04           blt.b 0x74a8c6
          0x0074a8c2      7200           moveq 0x0, d1
      < 0x0074a8c4      6004           bra.b 0x74a8ca
      > 0x0074a8c6      01301000       btst.l d0, (a0, d1.w)
      < 0x0074a8ca      670004b2       beq.w 0x74ad7e
          0x0074a8ce      554f           subq.w 0x2, a7
          0x0074a8d0      3f390086cb5e   move.w 0x86cb5e, -(a7)
          0x0074a8d6      4eb900480fc2   jsr MENUCOM.get_boxon
          0x0074a8dc      544f           addq.w 0x2, a7
          0x0074a8de      4a1f           tst.b (a7)+
      < 0x0074a8e0      670000fc       beq.w 0x74a9de
         0x0074a8e4      7000           moveq 0x0, d0
     > 0x0074a8e6      1d40ffd8       move.b d0, -0x28(a6)
        0x0074a8ea      322e000a       move.w 0xa(a6), d1
        0x0074a8ee      b2790086cb6a   cmp.w 0x86cb6a, d1
    < 0x0074a8f4      6712           beq.b 0x74a908
       0x0074a8f6      4880           ext.w d0
       0x0074a8f8      3200           move.w d0, d1
       0x0074a8fa      e341           asl.w 0x1, d1
       0x0074a8fc      204c           movea.l a4, a0
       0x0074a8fe      342e000a       move.w 0xa(a6), d2
       0x0074a902      b4701026       cmp.w 0x26(a0, d1.w), d2
   < 0x0074a906      6664           bne.b 0x74a96c
   > 0x0074a908      4880           ext.w d0
       0x0074a90a      204c           movea.l a4, a0
       0x0074a90c      41f00000       lea.l (a0, d0.w), a0
       0x0074a910      12280728       move.b 0x728(a0), d1
       0x0074a914      4401           neg.b d1
       0x0074a916      5201           addq.b 0x1, d1
       0x0074a918      4881           ext.w d1
       0x0074a91a      43bc0001       chk.w 0x1, d1
       0x0074a91e      11410728       move.b d1, 0x728(a0)
       0x0074a922      7234           moveq 0x34, d1
       0x0074a924      c3c0           muls.w d0, d1
       0x0074a926      204c           movea.l a4, a0
       0x0074a928      283c000000ff   move.l 0xff, d4
       0x0074a92e      4eb900408686   jsr fcn.00408686
       0x0074a934      2f04           move.l d4, -(a7)
       0x0074a936      7e00           moveq 0x0, d7
   > 0x0074a938      48c7           ext.l d7
      0x0074a93a      2407           move.l d7, d2
      0x0074a93c      5282           addq.l 0x1, d2
      0x0074a93e      0c820000000c   cmpi.l 0xc, d2
  < 0x0074a944      6302           bls.b 0x74a948
     0x0074a946      4e4f           trap 0xf
  > 0x0074a948      e582           asl.l 0x2, d2
      0x0074a94a      43f01000       lea.l (a0, d1.w), a1
      0x0074a94e      43f12800       lea.l (a1, d2.l), a1
      0x0074a952      26290458       move.l 0x458(a1), d3
      0x0074a956      4eb900407b44   jsr fcn.00407b44
      0x0074a95c      23440458       move.l d4, 0x458(a1)
      0x0074a960      2817           move.l (a7), d4
      0x0074a962      5247           addq.w 0x1, d7
      0x0074a964      0c47000a       cmpi.w 0xa, d7
   < 0x0074a968      6fce           ble.b 0x74a938
       0x0074a96a      584f           addq.w 0x4, a7
   > 0x0074a96c      5200           addq.b 0x1, d0
        0x0074a96e      0c000002       cmpi.b 0x2, d0
     < 0x0074a972      6f00ff72       ble.w 0x74a8e6
         0x0074a976      3f390086cb5e   move.w 0x86cb5e, -(a7)
         0x0074a97c      4227           clr.b -(a7)
         0x0074a97e      4eb900483776   jsr MENUCOM.swtch_box
         0x0074a984      544f           addq.w 0x2, a7
         0x0074a986      3eae000a       move.w 0xa(a6), (a7)
         0x0074a98a      3f3c0002       move.w 0x2, -(a7)
         0x0074a98e      4ebafc36       jsr MENUFETTLECOM.hit_fettle_grap(pc)
         0x0074a992      544f           addq.w 0x2, a7
         0x0074a994      1ebc0001       move.b 0x1, (a7)
         0x0074a998      554f           subq.w 0x2, a7
         0x0074a99a      4eb900401d86   jsr p_Task_Priority
         0x0074a9a0      3017           move.w (a7), d0
         0x0074a9a2      41bc0007       chk.w 0x7, d0
         0x0074a9a6      3e80           move.w d0, (a7)
         0x0074a9a8      4eb900456ede   jsr PAD.flag_on_abort
         0x0074a9ae      3ebc0065       move.w 0x65, (a7)
         0x0074a9b2      4eb900480fc2   jsr MENUCOM.get_boxon
         0x0074a9b8      544f           addq.w 0x2, a7
         0x0074a9ba      4a1f           tst.b (a7)+
     < 0x0074a9bc      6706           beq.b 0x74a9c4
        0x0074a9be      1f3c0002       move.b 0x2, -(a7)
    < 0x0074a9c2      6004           bra.b 0x74a9c8
    > 0x0074a9c4      1f3c0001       move.b 0x1, -(a7)
    > 0x0074a9c8      4ebae96e       jsr MENUFETTLECOM.do_fettle(pc)
         0x0074a9cc      544f           addq.w 0x2, a7
         0x0074a9ce      4227           clr.b -(a7)
         0x0074a9d0      4267           clr.w -(a7)
         0x0074a9d2      4eb900456ede   jsr PAD.flag_on_abort
         0x0074a9d8      584f           addq.w 0x4, a7
     < 0x0074a9da      600003a2       bra.w 0x74ad7e
     > 0x0074a9de      554f           subq.w 0x2, a7
         0x0074a9e0      3f390086cb60   move.w 0x86cb60, -(a7)
         0x0074a9e6      4eb900480fc2   jsr MENUCOM.get_boxon
         0x0074a9ec      544f           addq.w 0x2, a7
         0x0074a9ee      4a1f           tst.b (a7)+
     < 0x0074a9f0      6700030c       beq.w 0x74acfe
        0x0074a9f4      302e000a       move.w 0xa(a6), d0
        0x0074a9f8      b0790086cb6a   cmp.w 0x86cb6a, d0
    < 0x0074a9fe      6708           beq.b 0x74aa08
       0x0074aa00      b0790086cb64   cmp.w 0x86cb64, d0
   < 0x0074aa06      6642           bne.b 0x74aa4a
   > 0x0074aa08      42390086d266   clr.b 0x86d266
       0x0074aa0e      7e00           moveq 0x0, d7
   > 0x0074aa10      48c7           ext.l d7
      0x0074aa12      2007           move.l d7, d0
      0x0074aa14      5280           addq.l 0x1, d0
      0x0074aa16      0c800000000c   cmpi.l 0xc, d0
  < 0x0074aa1c      6302           bls.b 0x74aa20
     0x0074aa1e      4e4f           trap 0xf
  > 0x0074aa20      e580           asl.l 0x2, d0
      0x0074aa22      204c           movea.l a4, a0
      0x0074aa24      41f00800       lea.l (a0, d0.l), a0
      0x0074aa28      48c7           ext.l d7
      0x0074aa2a      2807           move.l d7, d4
      0x0074aa2c      4eb900408686   jsr fcn.00408686
      0x0074aa32      263c41cc0000   move.l 0x41cc0000, d3
      0x0074aa38      4eb900407e92   jsr fcn.00407e92
      0x0074aa3e      21440458       move.l d4, 0x458(a0)
      0x0074aa42      5247           addq.w 0x1, d7
      0x0074aa44      0c47000a       cmpi.w 0xa, d7
   < 0x0074aa48      6fc6           ble.b 0x74aa10
   > 0x0074aa4a      302e000a       move.w 0xa(a6), d0
        0x0074aa4e      b0790086cb6a   cmp.w 0x86cb6a, d0
    < 0x0074aa54      6708           beq.b 0x74aa5e
       0x0074aa56      b0790086cb66   cmp.w 0x86cb66, d0
   < 0x0074aa5c      6642           bne.b 0x74aaa0
   > 0x0074aa5e      42390086d267   clr.b 0x86d267
       0x0074aa64      7e00           moveq 0x0, d7
   > 0x0074aa66      48c7           ext.l d7
      0x0074aa68      2007           move.l d7, d0
      0x0074aa6a      5280           addq.l 0x1, d0
      0x0074aa6c      0c800000000c   cmpi.l 0xc, d0
  < 0x0074aa72      6302           bls.b 0x74aa76
     0x0074aa74      4e4f           trap 0xf
  > 0x0074aa76      e580           asl.l 0x2, d0
      0x0074aa78      204c           movea.l a4, a0
      0x0074aa7a      41f00800       lea.l (a0, d0.l), a0
      0x0074aa7e      48c7           ext.l d7
      0x0074aa80      2807           move.l d7, d4
      0x0074aa82      4eb900408686   jsr fcn.00408686
      0x0074aa88      263c41cc0000   move.l 0x41cc0000, d3
      0x0074aa8e      4eb900407e92   jsr fcn.00407e92
      0x0074aa94      2144048c       move.l d4, 0x48c(a0)
      0x0074aa98      5247           addq.w 0x1, d7
      0x0074aa9a      0c47000a       cmpi.w 0xa, d7
   < 0x0074aa9e      6fc6           ble.b 0x74aa66
   > 0x0074aaa0      302e000a       move.w 0xa(a6), d0
        0x0074aaa4      b0790086cb6a   cmp.w 0x86cb6a, d0
    < 0x0074aaaa      6708           beq.b 0x74aab4
       0x0074aaac      b0790086cb68   cmp.w 0x86cb68, d0
   < 0x0074aab2      6642           bne.b 0x74aaf6
   > 0x0074aab4      42390086d268   clr.b 0x86d268
       0x0074aaba      7e00           moveq 0x0, d7
   > 0x0074aabc      48c7           ext.l d7
      0x0074aabe      2007           move.l d7, d0
      0x0074aac0      5280           addq.l 0x1, d0
      0x0074aac2      0c800000000c   cmpi.l 0xc, d0
  < 0x0074aac8      6302           bls.b 0x74aacc
     0x0074aaca      4e4f           trap 0xf
  > 0x0074aacc      e580           asl.l 0x2, d0
      0x0074aace      204c           movea.l a4, a0
      0x0074aad0      41f00800       lea.l (a0, d0.l), a0
      0x0074aad4      48c7           ext.l d7
      0x0074aad6      2807           move.l d7, d4
      0x0074aad8      4eb900408686   jsr fcn.00408686
      0x0074aade      263c41cc0000   move.l 0x41cc0000, d3
      0x0074aae4      4eb900407e92   jsr fcn.00407e92
      0x0074aaea      214404c0       move.l d4, 0x4c0(a0)
      0x0074aaee      5247           addq.w 0x1, d7
      0x0074aaf0      0c47000a       cmpi.w 0xa, d7
   < 0x0074aaf4      6fc6           ble.b 0x74aabc
   > 0x0074aaf6      302e000a       move.w 0xa(a6), d0
        0x0074aafa      b0790086cb6a   cmp.w 0x86cb6a, d0
    < 0x0074ab00      6710           beq.b 0x74ab12
       0x0074ab02      b0790086cb70   cmp.w 0x86cb70, d0
   < 0x0074ab08      6708           beq.b 0x74ab12
      0x0074ab0a      b0790086cb76   cmp.w 0x86cb76, d0
  < 0x0074ab10      662e           bne.b 0x74ab40
  > 0x0074ab12      3f390086cb76   move.w 0x86cb76, -(a7)
       0x0074ab18      7864           moveq 0x64, d4
       0x0074ab1a      4eb900408686   jsr fcn.00408686
       0x0074ab20      2f04           move.l d4, -(a7)
       0x0074ab22      4227           clr.b -(a7)
       0x0074ab24      1f3c0001       move.b 0x1, -(a7)
       0x0074ab28      4eb90048da84   jsr MENU2COM.set_numeric_val
       0x0074ab2e      504f           addq.w 0x8, a7
       0x0074ab30      3eb90086cb76   move.w 0x86cb76, (a7)
       0x0074ab36      4227           clr.b -(a7)
       0x0074ab38      4eb900483776   jsr MENUCOM.swtch_box
       0x0074ab3e      584f           addq.w 0x4, a7
  > 0x0074ab40      302e000a       move.w 0xa(a6), d0
        0x0074ab44      b0790086cb6a   cmp.w 0x86cb6a, d0
    < 0x0074ab4a      6710           beq.b 0x74ab5c
       0x0074ab4c      b0790086cb6e   cmp.w 0x86cb6e, d0
   < 0x0074ab52      6708           beq.b 0x74ab5c
      0x0074ab54      b0790086cb78   cmp.w 0x86cb78, d0
  < 0x0074ab5a      662e           bne.b 0x74ab8a
  > 0x0074ab5c      3f390086cb78   move.w 0x86cb78, -(a7)
       0x0074ab62      7864           moveq 0x64, d4
       0x0074ab64      4eb900408686   jsr fcn.00408686
       0x0074ab6a      2f04           move.l d4, -(a7)
       0x0074ab6c      4227           clr.b -(a7)
       0x0074ab6e      1f3c0001       move.b 0x1, -(a7)
       0x0074ab72      4eb90048da84   jsr MENU2COM.set_numeric_val
       0x0074ab78      504f           addq.w 0x8, a7
       0x0074ab7a      3eb90086cb78   move.w 0x86cb78, (a7)
       0x0074ab80      4227           clr.b -(a7)
       0x0074ab82      4eb900483776   jsr MENUCOM.swtch_box
       0x0074ab88      584f           addq.w 0x4, a7
  > 0x0074ab8a      302e000a       move.w 0xa(a6), d0
        0x0074ab8e      b0790086cb6a   cmp.w 0x86cb6a, d0
    < 0x0074ab94      6710           beq.b 0x74aba6
       0x0074ab96      b0790086cb6e   cmp.w 0x86cb6e, d0
   < 0x0074ab9c      6708           beq.b 0x74aba6
      0x0074ab9e      b0790086cb7a   cmp.w 0x86cb7a, d0
  < 0x0074aba4      662e           bne.b 0x74abd4
  > 0x0074aba6      3f390086cb7a   move.w 0x86cb7a, -(a7)
       0x0074abac      7800           moveq 0x0, d4
       0x0074abae      4eb900408686   jsr fcn.00408686
       0x0074abb4      2f04           move.l d4, -(a7)
       0x0074abb6      4227           clr.b -(a7)
       0x0074abb8      1f3c0001       move.b 0x1, -(a7)
       0x0074abbc      4eb90048da84   jsr MENU2COM.set_numeric_val
       0x0074abc2      504f           addq.w 0x8, a7
       0x0074abc4      3eb90086cb78   move.w 0x86cb78, (a7)
       0x0074abca      4227           clr.b -(a7)
       0x0074abcc      4eb900483776   jsr MENUCOM.swtch_box
       0x0074abd2      584f           addq.w 0x4, a7
  > 0x0074abd4      302e000a       move.w 0xa(a6), d0
        0x0074abd8      b0790086cb6a   cmp.w 0x86cb6a, d0
    < 0x0074abde      6710           beq.b 0x74abf0
       0x0074abe0      b0790086cb6e   cmp.w 0x86cb6e, d0
   < 0x0074abe6      6708           beq.b 0x74abf0
      0x0074abe8      b0790086cb7c   cmp.w 0x86cb7c, d0
  < 0x0074abee      662e           bne.b 0x74ac1e
  > 0x0074abf0      3f390086cb7c   move.w 0x86cb7c, -(a7)
       0x0074abf6      7801           moveq 0x1, d4
       0x0074abf8      4eb900408686   jsr fcn.00408686
       0x0074abfe      2f04           move.l d4, -(a7)
       0x0074ac00      4227           clr.b -(a7)
       0x0074ac02      1f3c0001       move.b 0x1, -(a7)
       0x0074ac06      4eb90048da84   jsr MENU2COM.set_numeric_val
       0x0074ac0c      504f           addq.w 0x8, a7
       0x0074ac0e      3eb90086cb7c   move.w 0x86cb7c, (a7)
       0x0074ac14      4227           clr.b -(a7)
       0x0074ac16      4eb900483776   jsr MENUCOM.swtch_box
       0x0074ac1c      584f           addq.w 0x4, a7
  > 0x0074ac1e      7864           moveq 0x64, d4
        0x0074ac20      4eb900408686   jsr fcn.00408686
        0x0074ac26      7a00           moveq 0x0, d5
    > 0x0074ac28      4885           ext.w d5
       0x0074ac2a      3005           move.w d5, d0
       0x0074ac2c      e340           asl.w 0x1, d0
       0x0074ac2e      204c           movea.l a4, a0
       0x0074ac30      322e000a       move.w 0xa(a6), d1
       0x0074ac34      b2790086cb6a   cmp.w 0x86cb6a, d1
   < 0x0074ac3a      6720           beq.b 0x74ac5c
      0x0074ac3c      322e000a       move.w 0xa(a6), d1
      0x0074ac40      b2790086cb72   cmp.w 0x86cb72, d1
  < 0x0074ac46      6714           beq.b 0x74ac5c
     0x0074ac48      322e000a       move.w 0xa(a6), d1
     0x0074ac4c      b2700040       cmp.w 0x40(a0, d0.w), d1
 < 0x0074ac50      670a           beq.b 0x74ac5c
    0x0074ac52      322e000a       move.w 0xa(a6), d1
    0x0074ac56      b2700048       cmp.w 0x48(a0, d0.w), d1
 < 0x0074ac5a      6622           bne.b 0x74ac7e
 > 0x0074ac5c      3f300048       move.w 0x48(a0, d0.w), -(a7)
       0x0074ac60      2f04           move.l d4, -(a7)
       0x0074ac62      4227           clr.b -(a7)
       0x0074ac64      1f3c0001       move.b 0x1, -(a7)
       0x0074ac68      4eb90048da84   jsr MENU2COM.set_numeric_val
       0x0074ac6e      504f           addq.w 0x8, a7
       0x0074ac70      3eb00048       move.w 0x48(a0, d0.w), (a7)
       0x0074ac74      4227           clr.b -(a7)
       0x0074ac76      4eb900483776   jsr MENUCOM.swtch_box
       0x0074ac7c      584f           addq.w 0x4, a7
 > 0x0074ac7e      5205           addq.b 0x1, d5
       0x0074ac80      0c050003       cmpi.b 0x3, d5
    < 0x0074ac84      6fa2           ble.b 0x74ac28
        0x0074ac86      7800           moveq 0x0, d4
        0x0074ac88      4eb900408686   jsr fcn.00408686
        0x0074ac8e      7c00           moveq 0x0, d6
    > 0x0074ac90      4886           ext.w d6
       0x0074ac92      3006           move.w d6, d0
       0x0074ac94      e340           asl.w 0x1, d0
       0x0074ac96      204c           movea.l a4, a0
       0x0074ac98      322e000a       move.w 0xa(a6), d1
       0x0074ac9c      b2790086cb6a   cmp.w 0x86cb6a, d1
   < 0x0074aca2      6716           beq.b 0x74acba
      0x0074aca4      322e000a       move.w 0xa(a6), d1
      0x0074aca8      b2790086cb74   cmp.w 0x86cb74, d1
  < 0x0074acae      670a           beq.b 0x74acba
     0x0074acb0      322e000a       move.w 0xa(a6), d1
     0x0074acb4      b2700050       cmp.w 0x50(a0, d0.w), d1
 < 0x0074acb8      6622           bne.b 0x74acdc
 > 0x0074acba      3f300050       move.w 0x50(a0, d0.w), -(a7)
      0x0074acbe      2f04           move.l d4, -(a7)
      0x0074acc0      4227           clr.b -(a7)
      0x0074acc2      1f3c0001       move.b 0x1, -(a7)
      0x0074acc6      4eb90048da84   jsr MENU2COM.set_numeric_val
      0x0074accc      504f           addq.w 0x8, a7
      0x0074acce      3eb00050       move.w 0x50(a0, d0.w), (a7)
      0x0074acd2      4227           clr.b -(a7)
      0x0074acd4      4eb900483776   jsr MENUCOM.swtch_box
      0x0074acda      584f           addq.w 0x4, a7
 > 0x0074acdc      5206           addq.b 0x1, d6
       0x0074acde      0c060002       cmpi.b 0x2, d6
    < 0x0074ace2      6fac           ble.b 0x74ac90
        0x0074ace4      3f390086cb60   move.w 0x86cb60, -(a7)
        0x0074acea      4227           clr.b -(a7)
        0x0074acec      4eb900483776   jsr MENUCOM.swtch_box
        0x0074acf2      584f           addq.w 0x4, a7
        0x0074acf4      3d7c00020008   move.w 0x2, 0x8(a6)
    < 0x0074acfa      60000082       bra.w 0x74ad7e
    > 0x0074acfe      7a00           moveq 0x0, d5
    > 0x0074ad00      4885           ext.w d5
       0x0074ad02      3005           move.w d5, d0
       0x0074ad04      e340           asl.w 0x1, d0
       0x0074ad06      204c           movea.l a4, a0
       0x0074ad08      322e000a       move.w 0xa(a6), d1
       0x0074ad0c      b2700048       cmp.w 0x48(a0, d0.w), d1
   < 0x0074ad10      670a           beq.b 0x74ad1c
      0x0074ad12      322e000a       move.w 0xa(a6), d1
      0x0074ad16      b2700040       cmp.w 0x40(a0, d0.w), d1
  < 0x0074ad1a      665a           bne.b 0x74ad76
  > 0x0074ad1c      4885           ext.w d5
      0x0074ad1e      3005           move.w d5, d0
      0x0074ad20      e340           asl.w 0x1, d0
      0x0074ad22      204c           movea.l a4, a0
      0x0074ad24      7c00           moveq 0x0, d6
  > 0x0074ad26      322e000a       move.w 0xa(a6), d1
     0x0074ad2a      b2700048       cmp.w 0x48(a0, d0.w), d1
 < 0x0074ad2e      661c           bne.b 0x74ad4c
    0x0074ad30      4886           ext.w d6
    0x0074ad32      3206           move.w d6, d1
    0x0074ad34      e341           asl.w 0x1, d1
    0x0074ad36      224c           movea.l a4, a1
    0x0074ad38      3f311040       move.w 0x40(a1, d1.w), -(a7)
    0x0074ad3c      4227           clr.b -(a7)
    0x0074ad3e      bc05           cmp.b d5, d6
 < 0x0074ad40      6602           bne.b 0x74ad44
    0x0074ad42      5217           addq.b 0x1, (a7)
 > 0x0074ad44      4eb900483776   jsr MENUCOM.swtch_box
    0x0074ad4a      584f           addq.w 0x4, a7
 > 0x0074ad4c      4886           ext.w d6
     0x0074ad4e      3206           move.w d6, d1
     0x0074ad50      e341           asl.w 0x1, d1
     0x0074ad52      224c           movea.l a4, a1
     0x0074ad54      3f311048       move.w 0x48(a1, d1.w), -(a7)
     0x0074ad58      4227           clr.b -(a7)
     0x0074ad5a      342e000a       move.w 0xa(a6), d2
     0x0074ad5e      b4711048       cmp.w 0x48(a1, d1.w), d2
 < 0x0074ad62      6602           bne.b 0x74ad66
    0x0074ad64      5217           addq.b 0x1, (a7)
 > 0x0074ad66      4eb900483776   jsr MENUCOM.swtch_box
     0x0074ad6c      584f           addq.w 0x4, a7
     0x0074ad6e      5206           addq.b 0x1, d6
     0x0074ad70      0c060003       cmpi.b 0x3, d6
  < 0x0074ad74      6fb0           ble.b 0x74ad26
  > 0x0074ad76      5205           addq.b 0x1, d5
       0x0074ad78      0c050003       cmpi.b 0x3, d5
    < 0x0074ad7c      6f82           ble.b 0x74ad00
    > 0x0074ad7e      302e0008       move.w 0x8(a6), d0
           0x0074ad82      0c400002       cmpi.w 0x2, d0
       < 0x0074ad86      66000b76       bne.w 0x74b8fe
          0x0074ad8a      594f           subq.w 0x4, a7
          0x0074ad8c      3f390086cb7c   move.w 0x86cb7c, -(a7)
          0x0074ad92      4eb90048d992   jsr MENU2COM.get_numeric_val
          0x0074ad98      544f           addq.w 0x2, a7
          0x0074ad9a      261f           move.l (a7)+, d3
          0x0074ad9c      283c3f800000   move.l 0x3f800000, d4
          0x0074ada2      4eb900407ff8   jsr fcn.00407ff8
          0x0074ada8      2d44ffe0       move.l d4, -0x20(a6)
          0x0074adac      2604           move.l d4, d3
          0x0074adae      283c3f800000   move.l 0x3f800000, d4
          0x0074adb4      4eb900407b44   jsr fcn.00407b44
          0x0074adba      594f           subq.w 0x4, a7
          0x0074adbc      2f3c437f0000   move.l 0x437f0000, -(a7)
          0x0074adc2      4eb900438bb4   jsr p_fln
          0x0074adc8      584f           addq.w 0x4, a7
          0x0074adca      261f           move.l (a7)+, d3
          0x0074adcc      4eb900407e92   jsr fcn.00407e92
          0x0074add2      594f           subq.w 0x4, a7
          0x0074add4      2f04           move.l d4, -(a7)
          0x0074add6      4eb9004389c4   jsr p_fexp
          0x0074addc      584f           addq.w 0x4, a7
          0x0074adde      2d5fffdc       move.l (a7)+, -0x24(a6)
          0x0074ade2      42790086d066   clr.w 0x86d066
          0x0074ade8      7e01           moveq 0x1, d7
      > 0x0074adea      4fbc00ff       chk.w 0xff, d7
         0x0074adee      48c7           ext.l d7
         0x0074adf0      2007           move.l d7, d0
         0x0074adf2      e380           asl.l 0x1, d0
         0x0074adf4      204c           movea.l a4, a0
         0x0074adf6      41f00800       lea.l (a0, d0.l), a0
         0x0074adfa      48c7           ext.l d7
         0x0074adfc      2807           move.l d7, d4
         0x0074adfe      4eb900408686   jsr fcn.00408686
         0x0074ae04      594f           subq.w 0x4, a7
         0x0074ae06      2f04           move.l d4, -(a7)
         0x0074ae08      4eb900438bb4   jsr p_fln
         0x0074ae0e      584f           addq.w 0x4, a7
         0x0074ae10      261f           move.l (a7)+, d3
         0x0074ae12      282effe0       move.l -0x20(a6), d4
         0x0074ae16      4eb900407e92   jsr fcn.00407e92
         0x0074ae1c      594f           subq.w 0x4, a7
         0x0074ae1e      2f04           move.l d4, -(a7)
         0x0074ae20      4eb9004389c4   jsr p_fexp
         0x0074ae26      584f           addq.w 0x4, a7
         0x0074ae28      261f           move.l (a7)+, d3
         0x0074ae2a      282effdc       move.l -0x24(a6), d4
         0x0074ae2e      4eb900407e92   jsr fcn.00407e92
         0x0074ae34      4eb900408224   jsr fcn.00408224
         0x0074ae3a      0c84000000ff   cmpi.l 0xff, d4
     < 0x0074ae40      6302           bls.b 0x74ae44
        0x0074ae42      4e4f           trap 0xf
     > 0x0074ae44      31440528       move.w d4, 0x528(a0)
         0x0074ae48      5247           addq.w 0x1, d7
         0x0074ae4a      0c4700ff       cmpi.w 0xff, d7
      < 0x0074ae4e      6f9a           ble.b 0x74adea
          0x0074ae50      7800           moveq 0x0, d4
          0x0074ae52      4eb900408686   jsr fcn.00408686
          0x0074ae58      2f04           move.l d4, -(a7)
          0x0074ae5a      7800           moveq 0x0, d4
          0x0074ae5c      4eb900408686   jsr fcn.00408686
          0x0074ae62      2f04           move.l d4, -(a7)
          0x0074ae64      283c000000ff   move.l 0xff, d4
          0x0074ae6a      4eb900408686   jsr fcn.00408686
          0x0074ae70      2f04           move.l d4, -(a7)
          0x0074ae72      7800           moveq 0x0, d4
          0x0074ae74      4eb900408686   jsr fcn.00408686
          0x0074ae7a      2f04           move.l d4, -(a7)
          0x0074ae7c      7000           moveq 0x0, d0
      > 0x0074ae7e      1d40ffd8       move.b d0, -0x28(a6)
         0x0074ae82      594f           subq.w 0x4, a7
         0x0074ae84      3f390086cb78   move.w 0x86cb78, -(a7)
         0x0074ae8a      4eb90048d992   jsr MENU2COM.get_numeric_val
         0x0074ae90      544f           addq.w 0x2, a7
         0x0074ae92      281f           move.l (a7)+, d4
         0x0074ae94      4eb90040832a   jsr fcn.0040832a
         0x0074ae9a      048400000064   subi.l 0x64, d4
         0x0074aea0      4eb900408686   jsr fcn.00408686
         0x0074aea6      263c3f43d70a   move.l 0x3f43d70a, d3
         0x0074aeac      4eb900407e92   jsr fcn.00407e92
         0x0074aeb2      2d44ffe8       move.l d4, -0x18(a6)
         0x0074aeb6      2f04           move.l d4, -(a7)
         0x0074aeb8      594f           subq.w 0x4, a7
         0x0074aeba      3f390086cb78   move.w 0x86cb78, -(a7)
         0x0074aec0      4eb90048d992   jsr MENU2COM.get_numeric_val
         0x0074aec6      544f           addq.w 0x2, a7
         0x0074aec8      281f           move.l (a7)+, d4
         0x0074aeca      4eb90040832a   jsr fcn.0040832a
         0x0074aed0      048400000064   subi.l 0x64, d4
         0x0074aed6      4eb900408686   jsr fcn.00408686
         0x0074aedc      263c3edb573f   move.l 0x3edb573f, d3
         0x0074aee2      4eb900407e92   jsr fcn.00407e92
         0x0074aee8      2a04           move.l d4, d5
         0x0074aeea      594f           subq.w 0x4, a7
         0x0074aeec      3f390086cb7a   move.w 0x86cb7a, -(a7)
         0x0074aef2      4eb90048d992   jsr MENU2COM.get_numeric_val
         0x0074aef8      544f           addq.w 0x2, a7
         0x0074aefa      281f           move.l (a7)+, d4
         0x0074aefc      4eb90040832a   jsr fcn.0040832a
         0x0074af02      0484ffff8000   subi.l 0xffff8000, d4
         0x0074af08      0c840000ffff   cmpi.l 0xffff, d4
     < 0x0074af0e      6302           bls.b 0x74af12
        0x0074af10      4e4f           trap 0xf
     > 0x0074af12      0684ffff8000   addi.l 0xffff8000, d4
         0x0074af18      3d44ffd4       move.w d4, -0x2c(a6)
         0x0074af1c      4880           ext.w d0
         0x0074af1e      3200           move.w d0, d1
         0x0074af20      0c410002       cmpi.w 0x2, d1
     < 0x0074af24      6302           bls.b 0x74af28
        0x0074af26      4e4e           trap 0xe
     > 0x0074af28      d241           add.w d1, d1
         0x0074af2a      323b1006       move.w 0x74af32(pc, d1.w), d1
         0x0074af2e      4efb1002       jmp 0x74af32(pc, d1.w)
          0x0074af32      00060056       ori.b 0x56, d6
          0x0074af36      01a8594f       bclr.b d0, 0x594f(a0)
          0x0074af3a      3f390086cb76   move.w 0x86cb76, -(a7)
          0x0074af40      4eb90048d992   jsr MENU2COM.get_numeric_val
          0x0074af46      544f           addq.w 0x2, a7
          0x0074af48      281f           move.l (a7)+, d4
          0x0074af4a      4eb90040832a   jsr fcn.0040832a
          0x0074af50      048400000064   subi.l 0x64, d4
          0x0074af56      4eb900408686   jsr fcn.00408686
          0x0074af5c      263c3f233333   move.l 0x3f233333, d3
          0x0074af62      4eb900407e92   jsr fcn.00407e92
          0x0074af68      2d44ffe4       move.l d4, -0x1c(a6)
          0x0074af6c      7800           moveq 0x0, d4
          0x0074af6e      4eb900408686   jsr fcn.00408686
          0x0074af74      2d44fff0       move.l d4, -0x10(a6)
          0x0074af78      2d44fff4       move.l d4, -0xc(a6)
          0x0074af7c      2d44fff8       move.l d4, -0x8(a6)
      > 0x0074af80      2d44fffc       move.l d4, -0x4(a6)
     < 0x0074af84      6000027e       bra.w 0x74b204
        0x0074af88      594f           subq.w 0x4, a7
        0x0074af8a      3f390086cb92   move.w 0x86cb92, -(a7)
        0x0074af90      4eb90048d992   jsr MENU2COM.get_numeric_val
        0x0074af96      544f           addq.w 0x2, a7
        0x0074af98      281f           move.l (a7)+, d4
        0x0074af9a      4eb90040832a   jsr fcn.0040832a
        0x0074afa0      2f04           move.l d4, -(a7)
        0x0074afa2      594f           subq.w 0x4, a7
        0x0074afa4      3f390086cb90   move.w 0x86cb90, -(a7)
        0x0074afaa      4eb90048d992   jsr MENU2COM.get_numeric_val
        0x0074afb0      544f           addq.w 0x2, a7
        0x0074afb2      261f           move.l (a7)+, d3
        0x0074afb4      283c3f000000   move.l 0x3f000000, d4
        0x0074afba      4eb900407e92   jsr fcn.00407e92
        0x0074afc0      4eb90040832a   jsr fcn.0040832a
        0x0074afc6      2217           move.l (a7), d1
        0x0074afc8      4484           neg.l d4
        0x0074afca      d881           add.l d1, d4
        0x0074afcc      584f           addq.w 0x4, a7
        0x0074afce      4eb900408686   jsr fcn.00408686
        0x0074afd4      263c3f233333   move.l 0x3f233333, d3
        0x0074afda      4eb900407e92   jsr fcn.00407e92
        0x0074afe0      2d44ffe4       move.l d4, -0x1c(a6)
        0x0074afe4      7802           moveq 0x2, d4
        0x0074afe6      4eb900408686   jsr fcn.00408686
        0x0074afec      2f04           move.l d4, -(a7)
        0x0074afee      2604           move.l d4, d3
        0x0074aff0      282f0004       move.l 0x4(a7), d4
        0x0074aff4      4eb900407ff8   jsr fcn.00407ff8
        0x0074affa      2d44ffe8       move.l d4, -0x18(a6)
        0x0074affe      2805           move.l d5, d4
        0x0074b000      261f           move.l (a7)+, d3
        0x0074b002      4eb900407ff8   jsr fcn.00407ff8
        0x0074b008      2a04           move.l d4, d5
        0x0074b00a      594f           subq.w 0x4, a7
        0x0074b00c      3f390086cb8c   move.w 0x86cb8c, -(a7)
        0x0074b012      4eb90048d992   jsr MENU2COM.get_numeric_val
        0x0074b018      544f           addq.w 0x2, a7
        0x0074b01a      281f           move.l (a7)+, d4
        0x0074b01c      4eb90040832a   jsr fcn.0040832a
        0x0074b022      048400000064   subi.l 0x64, d4
        0x0074b028      4eb900408686   jsr fcn.00408686
        0x0074b02e      263c3f43d70a   move.l 0x3f43d70a, d3
        0x0074b034      4eb900407e92   jsr fcn.00407e92
        0x0074b03a      2d44fff0       move.l d4, -0x10(a6)
        0x0074b03e      594f           subq.w 0x4, a7
        0x0074b040      3f390086cb8c   move.w 0x86cb8c, -(a7)
        0x0074b046      4eb90048d992   jsr MENU2COM.get_numeric_val
        0x0074b04c      544f           addq.w 0x2, a7
        0x0074b04e      281f           move.l (a7)+, d4
        0x0074b050      4eb90040832a   jsr fcn.0040832a
        0x0074b056      048400000064   subi.l 0x64, d4
        0x0074b05c      4eb900408686   jsr fcn.00408686
        0x0074b062      263c3edb573f   move.l 0x3edb573f, d3
        0x0074b068      4eb900407e92   jsr fcn.00407e92
        0x0074b06e      2d44fff4       move.l d4, -0xc(a6)
        0x0074b072      594f           subq.w 0x4, a7
        0x0074b074      3f390086cb88   move.w 0x86cb88, -(a7)
        0x0074b07a      4eb90048d992   jsr MENU2COM.get_numeric_val
        0x0074b080      544f           addq.w 0x2, a7
        0x0074b082      281f           move.l (a7)+, d4
        0x0074b084      4eb90040832a   jsr fcn.0040832a
        0x0074b08a      048400000064   subi.l 0x64, d4
        0x0074b090      4eb900408686   jsr fcn.00408686
        0x0074b096      263c3f43d70a   move.l 0x3f43d70a, d3
        0x0074b09c      4eb900407e92   jsr fcn.00407e92
        0x0074b0a2      2d44fff8       move.l d4, -0x8(a6)
        0x0074b0a6      594f           subq.w 0x4, a7
        0x0074b0a8      3f390086cb88   move.w 0x86cb88, -(a7)
    > 0x0074b0ae      4eb90048d992   jsr MENU2COM.get_numeric_val
       0x0074b0b4      544f           addq.w 0x2, a7
       0x0074b0b6      281f           move.l (a7)+, d4
       0x0074b0b8      4eb90040832a   jsr fcn.0040832a
       0x0074b0be      048400000064   subi.l 0x64, d4
       0x0074b0c4      4eb900408686   jsr fcn.00408686
       0x0074b0ca      263c3edb573f   move.l 0x3edb573f, d3
       0x0074b0d0      4eb900407e92   jsr fcn.00407e92
    < 0x0074b0d6      6000fea8       bra.w 0x74af80
        0x0074b0da      594f           subq.w 0x4, a7
        0x0074b0dc      3f390086cb8e   move.w 0x86cb8e, -(a7)
        0x0074b0e2      4eb90048d992   jsr MENU2COM.get_numeric_val
        0x0074b0e8      544f           addq.w 0x2, a7
        0x0074b0ea      281f           move.l (a7)+, d4
        0x0074b0ec      4eb90040832a   jsr fcn.0040832a
        0x0074b0f2      2f04           move.l d4, -(a7)
        0x0074b0f4      594f           subq.w 0x4, a7
        0x0074b0f6      3f390086cb90   move.w 0x86cb90, -(a7)
        0x0074b0fc      4eb90048d992   jsr MENU2COM.get_numeric_val
        0x0074b102      544f           addq.w 0x2, a7
        0x0074b104      261f           move.l (a7)+, d3
        0x0074b106      283c3f000000   move.l 0x3f000000, d4
        0x0074b10c      4eb900407e92   jsr fcn.00407e92
        0x0074b112      4eb90040832a   jsr fcn.0040832a
        0x0074b118      2217           move.l (a7), d1
        0x0074b11a      4484           neg.l d4
        0x0074b11c      d881           add.l d1, d4
        0x0074b11e      584f           addq.w 0x4, a7
        0x0074b120      4eb900408686   jsr fcn.00408686
        0x0074b126      263c3f233333   move.l 0x3f233333, d3
        0x0074b12c      4eb900407e92   jsr fcn.00407e92
        0x0074b132      2d44ffe4       move.l d4, -0x1c(a6)
        0x0074b136      7802           moveq 0x2, d4
        0x0074b138      4eb900408686   jsr fcn.00408686
        0x0074b13e      2f04           move.l d4, -(a7)
        0x0074b140      2604           move.l d4, d3
        0x0074b142      282f0004       move.l 0x4(a7), d4
        0x0074b146      4eb900407ff8   jsr fcn.00407ff8
        0x0074b14c      2d44ffe8       move.l d4, -0x18(a6)
        0x0074b150      2805           move.l d5, d4
        0x0074b152      261f           move.l (a7)+, d3
        0x0074b154      4eb900407ff8   jsr fcn.00407ff8
        0x0074b15a      2a04           move.l d4, d5
        0x0074b15c      594f           subq.w 0x4, a7
        0x0074b15e      3f390086cb8a   move.w 0x86cb8a, -(a7)
        0x0074b164      4eb90048d992   jsr MENU2COM.get_numeric_val
        0x0074b16a      544f           addq.w 0x2, a7
        0x0074b16c      281f           move.l (a7)+, d4
        0x0074b16e      4eb90040832a   jsr fcn.0040832a
        0x0074b174      048400000064   subi.l 0x64, d4
        0x0074b17a      4eb900408686   jsr fcn.00408686
        0x0074b180      263c3f43d70a   move.l 0x3f43d70a, d3
        0x0074b186      4eb900407e92   jsr fcn.00407e92
        0x0074b18c      2d44fff0       move.l d4, -0x10(a6)
        0x0074b190      594f           subq.w 0x4, a7
        0x0074b192      3f390086cb8a   move.w 0x86cb8a, -(a7)
        0x0074b198      4eb90048d992   jsr MENU2COM.get_numeric_val
        0x0074b19e      544f           addq.w 0x2, a7
        0x0074b1a0      281f           move.l (a7)+, d4
        0x0074b1a2      4eb90040832a   jsr fcn.0040832a
        0x0074b1a8      048400000064   subi.l 0x64, d4
        0x0074b1ae      4eb900408686   jsr fcn.00408686
        0x0074b1b4      263c3edb573f   move.l 0x3edb573f, d3
        0x0074b1ba      4eb900407e92   jsr fcn.00407e92
        0x0074b1c0      2d44fff4       move.l d4, -0xc(a6)
        0x0074b1c4      594f           subq.w 0x4, a7
        0x0074b1c6      3f390086cb86   move.w 0x86cb86, -(a7)
        0x0074b1cc      4eb90048d992   jsr MENU2COM.get_numeric_val
        0x0074b1d2      544f           addq.w 0x2, a7
        0x0074b1d4      281f           move.l (a7)+, d4
        0x0074b1d6      4eb90040832a   jsr fcn.0040832a
        0x0074b1dc      048400000064   subi.l 0x64, d4
        0x0074b1e2      4eb900408686   jsr fcn.00408686
        0x0074b1e8      263c3f43d70a   move.l 0x3f43d70a, d3
        0x0074b1ee      4eb900407e92   jsr fcn.00407e92
        0x0074b1f4      2d44fff8       move.l d4, -0x8(a6)
        0x0074b1f8      594f           subq.w 0x4, a7
        0x0074b1fa      3f390086cb86   move.w 0x86cb86, -(a7)
    < 0x0074b200      6000feac       bra.w 0x74b0ae
     > 0x0074b204      584f           addq.w 0x4, a7
          0x0074b206      4880           ext.w d0
          0x0074b208      204c           movea.l a4, a0
          0x0074b20a      41f00000       lea.l (a0, d0.w), a0
          0x0074b20e      4a280728       tst.b 0x728(a0)
      < 0x0074b212      6710           beq.b 0x74b224
         0x0074b214      086e0007ffe4   bchg.b 0x7, -0x1c(a6)
         0x0074b21a      086e0007ffe8   bchg.b 0x7, -0x18(a6)
         0x0074b220      0845001f       bchg.b 0x1f, d5
      > 0x0074b224      4880           ext.w d0
          0x0074b226      7234           moveq 0x34, d1
          0x0074b228      c3c0           muls.w d0, d1
          0x0074b22a      204c           movea.l a4, a0
          0x0074b22c      7e00           moveq 0x0, d7
      > 0x0074b22e      48c7           ext.l d7
         0x0074b230      2407           move.l d7, d2
         0x0074b232      5282           addq.l 0x1, d2
         0x0074b234      0c820000000c   cmpi.l 0xc, d2
     < 0x0074b23a      6302           bls.b 0x74b23e
        0x0074b23c      4e4f           trap 0xf
     > 0x0074b23e      e582           asl.l 0x2, d2
         0x0074b240      43f01000       lea.l (a0, d1.w), a1
         0x0074b244      43f12800       lea.l (a1, d2.l), a1
         0x0074b248      48c7           ext.l d7
         0x0074b24a      2807           move.l d7, d4
         0x0074b24c      4eb900408686   jsr fcn.00408686
         0x0074b252      263c41cc0000   move.l 0x41cc0000, d3
         0x0074b258      4eb900407e92   jsr fcn.00407e92
         0x0074b25e      262effe4       move.l -0x1c(a6), d3
         0x0074b262      4eb900407ba8   jsr fcn.00407ba8
         0x0074b268      23440458       move.l d4, 0x458(a1)
         0x0074b26c      5247           addq.w 0x1, d7
         0x0074b26e      0c47000a       cmpi.w 0xa, d7
      < 0x0074b272      6fba           ble.b 0x74b22e
          0x0074b274      2805           move.l d5, d4
          0x0074b276      2617           move.l (a7), d3
          0x0074b278      4eb900407dd4   jsr fcn.00407dd4
      < 0x0074b27e      6d0000a0       blt.w 0x74b320
         0x0074b282      4880           ext.w d0
         0x0074b284      7234           moveq 0x34, d1
         0x0074b286      c3c0           muls.w d0, d1
         0x0074b288      204c           movea.l a4, a0
         0x0074b28a      41f01000       lea.l (a0, d1.w), a0
         0x0074b28e      28280460       move.l 0x460(a0), d4
         0x0074b292      2605           move.l d5, d3
         0x0074b294      4eb900407b44   jsr fcn.00407b44
         0x0074b29a      21440460       move.l d4, 0x460(a0)
         0x0074b29e      28280464       move.l 0x464(a0), d4
         0x0074b2a2      262effe8       move.l -0x18(a6), d3
         0x0074b2a6      4eb900407b44   jsr fcn.00407b44
         0x0074b2ac      21440464       move.l d4, 0x464(a0)
         0x0074b2b0      28280468       move.l 0x468(a0), d4
         0x0074b2b4      262effe8       move.l -0x18(a6), d3
         0x0074b2b8      4eb900407b44   jsr fcn.00407b44
         0x0074b2be      21440468       move.l d4, 0x468(a0)
         0x0074b2c2      2828046c       move.l 0x46c(a0), d4
         0x0074b2c6      2605           move.l d5, d3
         0x0074b2c8      4eb900407b44   jsr fcn.00407b44
         0x0074b2ce      2144046c       move.l d4, 0x46c(a0)
         0x0074b2d2      28280474       move.l 0x474(a0), d4
         0x0074b2d6      2605           move.l d5, d3
         0x0074b2d8      4eb900407ba8   jsr fcn.00407ba8
         0x0074b2de      21440474       move.l d4, 0x474(a0)
         0x0074b2e2      28280478       move.l 0x478(a0), d4
         0x0074b2e6      262effe8       move.l -0x18(a6), d3
         0x0074b2ea      4eb900407ba8   jsr fcn.00407ba8
         0x0074b2f0      21440478       move.l d4, 0x478(a0)
         0x0074b2f4      2828047c       move.l 0x47c(a0), d4
         0x0074b2f8      262effe8       move.l -0x18(a6), d3
         0x0074b2fc      4eb900407ba8   jsr fcn.00407ba8
         0x0074b302      2144047c       move.l d4, 0x47c(a0)
         0x0074b306      28280480       move.l 0x480(a0), d4
         0x0074b30a      2605           move.l d5, d3
         0x0074b30c      4eb900407ba8   jsr fcn.00407ba8
         0x0074b312      21440480       move.l d4, 0x480(a0)
         0x0074b316      222f0004       move.l 0x4(a7), d1
         0x0074b31a      21410484       move.l d1, 0x484(a0)
     < 0x0074b31e      6052           bra.b 0x74b372
     > 0x0074b320      4880           ext.w d0
         0x0074b322      7234           moveq 0x34, d1
         0x0074b324      c3c0           muls.w d0, d1
         0x0074b326      204c           movea.l a4, a0
         0x0074b328      7e00           moveq 0x0, d7
     > 0x0074b32a      48c7           ext.l d7
        0x0074b32c      2407           move.l d7, d2
        0x0074b32e      5282           addq.l 0x1, d2
        0x0074b330      0c820000000c   cmpi.l 0xc, d2
    < 0x0074b336      6302           bls.b 0x74b33a
       0x0074b338      4e4f           trap 0xf
    > 0x0074b33a      e582           asl.l 0x2, d2
        0x0074b33c      43f01000       lea.l (a0, d1.w), a1
        0x0074b340      43f12800       lea.l (a1, d2.l), a1
        0x0074b344      48c7           ext.l d7
        0x0074b346      7405           moveq 0x5, d2
        0x0074b348      9487           sub.l d7, d2
        0x0074b34a      2802           move.l d2, d4
        0x0074b34c      4eb900408686   jsr fcn.00408686
        0x0074b352      2605           move.l d5, d3
        0x0074b354      4eb900407e92   jsr fcn.00407e92
        0x0074b35a      2604           move.l d4, d3
        0x0074b35c      28290458       move.l 0x458(a1), d4
        0x0074b360      4eb900407b44   jsr fcn.00407b44
        0x0074b366      23440458       move.l d4, 0x458(a1)
        0x0074b36a      5247           addq.w 0x1, d7
        0x0074b36c      0c47000a       cmpi.w 0xa, d7
     < 0x0074b370      6fb8           ble.b 0x74b32a
     > 0x0074b372      282efff4       move.l -0xc(a6), d4
          0x0074b376      262f0008       move.l 0x8(a7), d3
          0x0074b37a      4eb900407dd4   jsr fcn.00407dd4
      < 0x0074b380      6d56           blt.b 0x74b3d8
         0x0074b382      4880           ext.w d0
         0x0074b384      7234           moveq 0x34, d1
         0x0074b386      c3c0           muls.w d0, d1
         0x0074b388      204c           movea.l a4, a0
         0x0074b38a      41f01000       lea.l (a0, d1.w), a0
         0x0074b38e      28280460       move.l 0x460(a0), d4
         0x0074b392      262efff4       move.l -0xc(a6), d3
         0x0074b396      4eb900407b44   jsr fcn.00407b44
         0x0074b39c      21440460       move.l d4, 0x460(a0)
         0x0074b3a0      28280464       move.l 0x464(a0), d4
         0x0074b3a4      262efff0       move.l -0x10(a6), d3
         0x0074b3a8      4eb900407b44   jsr fcn.00407b44
         0x0074b3ae      21440464       move.l d4, 0x464(a0)
         0x0074b3b2      28280468       move.l 0x468(a0), d4
         0x0074b3b6      262efff0       move.l -0x10(a6), d3
         0x0074b3ba      4eb900407b44   jsr fcn.00407b44
         0x0074b3c0      21440468       move.l d4, 0x468(a0)
         0x0074b3c4      2828046c       move.l 0x46c(a0), d4
         0x0074b3c8      262efff4       move.l -0xc(a6), d3
         0x0074b3cc      4eb900407b44   jsr fcn.00407b44
         0x0074b3d2      2144046c       move.l d4, 0x46c(a0)
     < 0x0074b3d6      6060           bra.b 0x74b438
     > 0x0074b3d8      4880           ext.w d0
         0x0074b3da      7234           moveq 0x34, d1
         0x0074b3dc      c3c0           muls.w d0, d1
         0x0074b3de      204c           movea.l a4, a0
         0x0074b3e0      7e00           moveq 0x0, d7
     > 0x0074b3e2      48c7           ext.l d7
        0x0074b3e4      2407           move.l d7, d2
        0x0074b3e6      5282           addq.l 0x1, d2
        0x0074b3e8      0c820000000c   cmpi.l 0xc, d2
    < 0x0074b3ee      6302           bls.b 0x74b3f2
       0x0074b3f0      4e4f           trap 0xf
    > 0x0074b3f2      e582           asl.l 0x2, d2
        0x0074b3f4      43f01000       lea.l (a0, d1.w), a1
        0x0074b3f8      43f12800       lea.l (a1, d2.l), a1
        0x0074b3fc      48c7           ext.l d7
        0x0074b3fe      7405           moveq 0x5, d2
        0x0074b400      9487           sub.l d7, d2
        0x0074b402      2802           move.l d2, d4
        0x0074b404      4eb900408686   jsr fcn.00408686
        0x0074b40a      263c3f000000   move.l 0x3f000000, d3
        0x0074b410      4eb900407e92   jsr fcn.00407e92
        0x0074b416      262efff4       move.l -0xc(a6), d3
        0x0074b41a      4eb900407e92   jsr fcn.00407e92
        0x0074b420      2604           move.l d4, d3
        0x0074b422      28290458       move.l 0x458(a1), d4
        0x0074b426      4eb900407b44   jsr fcn.00407b44
        0x0074b42c      23440458       move.l d4, 0x458(a1)
        0x0074b430      5247           addq.w 0x1, d7
        0x0074b432      0c470004       cmpi.w 0x4, d7
     < 0x0074b436      6faa           ble.b 0x74b3e2
     > 0x0074b438      282efffc       move.l -0x4(a6), d4
          0x0074b43c      262f000c       move.l 0xc(a7), d3
          0x0074b440      4eb900407dd4   jsr fcn.00407dd4
      < 0x0074b446      6d56           blt.b 0x74b49e
         0x0074b448      4880           ext.w d0
         0x0074b44a      7234           moveq 0x34, d1
         0x0074b44c      c3c0           muls.w d0, d1
         0x0074b44e      204c           movea.l a4, a0
         0x0074b450      41f01000       lea.l (a0, d1.w), a0
         0x0074b454      28280474       move.l 0x474(a0), d4
         0x0074b458      262efffc       move.l -0x4(a6), d3
         0x0074b45c      4eb900407ba8   jsr fcn.00407ba8
         0x0074b462      21440474       move.l d4, 0x474(a0)
         0x0074b466      28280478       move.l 0x478(a0), d4
         0x0074b46a      262efff8       move.l -0x8(a6), d3
         0x0074b46e      4eb900407ba8   jsr fcn.00407ba8
         0x0074b474      21440478       move.l d4, 0x478(a0)
         0x0074b478      2828047c       move.l 0x47c(a0), d4
         0x0074b47c      262efff8       move.l -0x8(a6), d3
         0x0074b480      4eb900407ba8   jsr fcn.00407ba8
         0x0074b486      2144047c       move.l d4, 0x47c(a0)
         0x0074b48a      28280480       move.l 0x480(a0), d4
         0x0074b48e      262efffc       move.l -0x4(a6), d3
         0x0074b492      4eb900407ba8   jsr fcn.00407ba8
         0x0074b498      21440480       move.l d4, 0x480(a0)
     < 0x0074b49c      6060           bra.b 0x74b4fe
     > 0x0074b49e      4880           ext.w d0
         0x0074b4a0      7234           moveq 0x34, d1
         0x0074b4a2      c3c0           muls.w d0, d1
         0x0074b4a4      204c           movea.l a4, a0
         0x0074b4a6      7e06           moveq 0x6, d7
     > 0x0074b4a8      48c7           ext.l d7
        0x0074b4aa      2407           move.l d7, d2
        0x0074b4ac      5282           addq.l 0x1, d2
        0x0074b4ae      0c820000000c   cmpi.l 0xc, d2
    < 0x0074b4b4      6302           bls.b 0x74b4b8
       0x0074b4b6      4e4f           trap 0xf
    > 0x0074b4b8      e582           asl.l 0x2, d2
        0x0074b4ba      43f01000       lea.l (a0, d1.w), a1
        0x0074b4be      43f12800       lea.l (a1, d2.l), a1
        0x0074b4c2      48c7           ext.l d7
        0x0074b4c4      7405           moveq 0x5, d2
        0x0074b4c6      9487           sub.l d7, d2
        0x0074b4c8      2802           move.l d2, d4
        0x0074b4ca      4eb900408686   jsr fcn.00408686
        0x0074b4d0      263c3f000000   move.l 0x3f000000, d3
        0x0074b4d6      4eb900407e92   jsr fcn.00407e92
        0x0074b4dc      262efffc       move.l -0x4(a6), d3
        0x0074b4e0      4eb900407e92   jsr fcn.00407e92
        0x0074b4e6      2604           move.l d4, d3
        0x0074b4e8      28290458       move.l 0x458(a1), d4
        0x0074b4ec      4eb900407b44   jsr fcn.00407b44
        0x0074b4f2      23440458       move.l d4, 0x458(a1)
        0x0074b4f6      5247           addq.w 0x1, d7
        0x0074b4f8      0c47000a       cmpi.w 0xa, d7
     < 0x0074b4fc      6faa           ble.b 0x74b4a8
     > 0x0074b4fe      322effd4       move.w -0x2c(a6), d1
          0x0074b502      48c1           ext.l d1
          0x0074b504      83fc0002       divs.w 0x2, d1
          0x0074b508      3c01           move.w d1, d6
          0x0074b50a      4a00           tst.b d0
      < 0x0074b50c      66000332       bne.w 0x74b840
         0x0074b510      4a6effd4       tst.w -0x2c(a6)
     < 0x0074b514      6f00018c       ble.w 0x74b6a2
        0x0074b518      322effd4       move.w -0x2c(a6), d1
        0x0074b51c      08010000       btst.b 0x0, d1
    < 0x0074b520      670000f0       beq.w 0x74b612
       0x0074b524      48c6           ext.l d6
       0x0074b526      2206           move.l d6, d1
       0x0074b528      5281           addq.l 0x1, d1
       0x0074b52a      0481ffff8000   subi.l 0xffff8000, d1
       0x0074b530      0c810000ffff   cmpi.l 0xffff, d1
   < 0x0074b536      6302           bls.b 0x74b53a
      0x0074b538      4e4f           trap 0xf
   > 0x0074b53a      0681ffff8000   addi.l 0xffff8000, d1
       0x0074b540      3c01           move.w d1, d6
       0x0074b542      4880           ext.w d0
       0x0074b544      7234           moveq 0x34, d1
       0x0074b546      c3c0           muls.w d0, d1
       0x0074b548      204c           movea.l a4, a0
       0x0074b54a      7802           moveq 0x2, d4
       0x0074b54c      4eb900408686   jsr fcn.00408686
       0x0074b552      2f04           move.l d4, -(a7)
       0x0074b554      3f06           move.w d6, -(a7)
       0x0074b556      7e0a           moveq 0xa, d7
   > 0x0074b558      be57           cmp.w (a7), d7
  < 0x0074b55a      6d76           blt.b 0x74b5d2
     0x0074b55c      48c7           ext.l d7
     0x0074b55e      2407           move.l d7, d2
     0x0074b560      5282           addq.l 0x1, d2
     0x0074b562      0c820000000c   cmpi.l 0xc, d2
  < 0x0074b568      6302           bls.b 0x74b56c
     0x0074b56a      4e4f           trap 0xf
  > 0x0074b56c      e582           asl.l 0x2, d2
     0x0074b56e      43f01000       lea.l (a0, d1.w), a1
     0x0074b572      43f12800       lea.l (a1, d2.l), a1
     0x0074b576      48c7           ext.l d7
     0x0074b578      48c6           ext.l d6
     0x0074b57a      2407           move.l d7, d2
     0x0074b57c      9486           sub.l d6, d2
     0x0074b57e      2602           move.l d2, d3
     0x0074b580      5283           addq.l 0x1, d3
     0x0074b582      5283           addq.l 0x1, d3
     0x0074b584      0c830000000c   cmpi.l 0xc, d3
  < 0x0074b58a      6302           bls.b 0x74b58e
     0x0074b58c      4e4f           trap 0xf
  > 0x0074b58e      e583           asl.l 0x2, d3
     0x0074b590      45f01000       lea.l (a0, d1.w), a2
     0x0074b594      45f23800       lea.l (a2, d3.l), a2
     0x0074b598      5282           addq.l 0x1, d2
     0x0074b59a      0c820000000c   cmpi.l 0xc, d2
  < 0x0074b5a0      6302           bls.b 0x74b5a4
     0x0074b5a2      4e4f           trap 0xf
  > 0x0074b5a4      e582           asl.l 0x2, d2
     0x0074b5a6      47f01000       lea.l (a0, d1.w), a3
     0x0074b5aa      47f32800       lea.l (a3, d2.l), a3
     0x0074b5ae      282a0458       move.l 0x458(a2), d4
     0x0074b5b2      262b0458       move.l 0x458(a3), d3
     0x0074b5b6      4eb900407ba8   jsr fcn.00407ba8
     0x0074b5bc      262f0002       move.l 0x2(a7), d3
     0x0074b5c0      4eb900407ff8   jsr fcn.00407ff8
     0x0074b5c6      23440458       move.l d4, 0x458(a1)
     0x0074b5ca      282f0002       move.l 0x2(a7), d4
     0x0074b5ce      5347           subq.w 0x1, d7
  < 0x0074b5d0      6886           bvc.b 0x74b558
  > 0x0074b5d2      5c4f           addq.w 0x6, a7
       0x0074b5d4      7234           moveq 0x34, d1
       0x0074b5d6      c3c0           muls.w d0, d1
       0x0074b5d8      204c           movea.l a4, a0
       0x0074b5da      41f01000       lea.l (a0, d1.w), a0
       0x0074b5de      48c6           ext.l d6
       0x0074b5e0      2f06           move.l d6, -(a7)
       0x0074b5e2      5397           subq.l 0x1, (a7)
       0x0074b5e4      7e00           moveq 0x0, d7
   > 0x0074b5e6      be6f0002       cmp.w 0x2(a7), d7
  < 0x0074b5ea      6e20           bgt.b 0x74b60c
     0x0074b5ec      48c7           ext.l d7
     0x0074b5ee      2207           move.l d7, d1
     0x0074b5f0      5281           addq.l 0x1, d1
     0x0074b5f2      0c810000000c   cmpi.l 0xc, d1
  < 0x0074b5f8      6302           bls.b 0x74b5fc
     0x0074b5fa      4e4f           trap 0xf
  > 0x0074b5fc      e581           asl.l 0x2, d1
     0x0074b5fe      43f01800       lea.l (a0, d1.l), a1
     0x0074b602      2368045c0458   move.l 0x45c(a0), 0x458(a1)
     0x0074b608      5247           addq.w 0x1, d7
  < 0x0074b60a      68da           bvc.b 0x74b5e6
  > 0x0074b60c      584f           addq.w 0x4, a7
  < 0x0074b60e      60000230       bra.w 0x74b840
  > 0x0074b612      4880           ext.w d0
      0x0074b614      7234           moveq 0x34, d1
      0x0074b616      c3c0           muls.w d0, d1
      0x0074b618      204c           movea.l a4, a0
      0x0074b61a      3f06           move.w d6, -(a7)
      0x0074b61c      7e0a           moveq 0xa, d7
  > 0x0074b61e      be57           cmp.w (a7), d7
  < 0x0074b620      6d42           blt.b 0x74b664
     0x0074b622      48c7           ext.l d7
     0x0074b624      2407           move.l d7, d2
     0x0074b626      5282           addq.l 0x1, d2
     0x0074b628      0c820000000c   cmpi.l 0xc, d2
  < 0x0074b62e      6302           bls.b 0x74b632
     0x0074b630      4e4f           trap 0xf
  > 0x0074b632      e582           asl.l 0x2, d2
     0x0074b634      43f01000       lea.l (a0, d1.w), a1
     0x0074b638      43f12800       lea.l (a1, d2.l), a1
     0x0074b63c      48c7           ext.l d7
     0x0074b63e      48c6           ext.l d6
     0x0074b640      2407           move.l d7, d2
     0x0074b642      9486           sub.l d6, d2
     0x0074b644      5282           addq.l 0x1, d2
     0x0074b646      0c820000000c   cmpi.l 0xc, d2
  < 0x0074b64c      6302           bls.b 0x74b650
     0x0074b64e      4e4f           trap 0xf
  > 0x0074b650      e582           asl.l 0x2, d2
     0x0074b652      45f01000       lea.l (a0, d1.w), a2
     0x0074b656      45f22800       lea.l (a2, d2.l), a2
     0x0074b65a      236a04580458   move.l 0x458(a2), 0x458(a1)
     0x0074b660      5347           subq.w 0x1, d7
  < 0x0074b662      68ba           bvc.b 0x74b61e
  > 0x0074b664      544f           addq.w 0x2, a7
      0x0074b666      7234           moveq 0x34, d1
      0x0074b668      c3c0           muls.w d0, d1
      0x0074b66a      204c           movea.l a4, a0
      0x0074b66c      41f01000       lea.l (a0, d1.w), a0
      0x0074b670      48c6           ext.l d6
      0x0074b672      2f06           move.l d6, -(a7)
      0x0074b674      5397           subq.l 0x1, (a7)
      0x0074b676      7e00           moveq 0x0, d7
  > 0x0074b678      be6f0002       cmp.w 0x2(a7), d7
  < 0x0074b67c      6e20           bgt.b 0x74b69e
     0x0074b67e      48c7           ext.l d7
     0x0074b680      2207           move.l d7, d1
     0x0074b682      5281           addq.l 0x1, d1
     0x0074b684      0c810000000c   cmpi.l 0xc, d1
  < 0x0074b68a      6302           bls.b 0x74b68e
     0x0074b68c      4e4f           trap 0xf
  > 0x0074b68e      e581           asl.l 0x2, d1
     0x0074b690      43f01800       lea.l (a0, d1.l), a1
     0x0074b694      2368045c0458   move.l 0x45c(a0), 0x458(a1)
     0x0074b69a      5247           addq.w 0x1, d7
  < 0x0074b69c      68da           bvc.b 0x74b678
  < 0x0074b69e      6000ff6c       bra.w 0x74b60c
    > 0x0074b6a2      4a6effd4       tst.w -0x2c(a6)
    < 0x0074b6a6      6c000198       bge.w 0x74b840
       0x0074b6aa      322effd4       move.w -0x2c(a6), d1
       0x0074b6ae      08010000       btst.b 0x0, d1
   < 0x0074b6b2      670000e8       beq.w 0x74b79c
      0x0074b6b6      4880           ext.w d0
      0x0074b6b8      7234           moveq 0x34, d1
      0x0074b6ba      c3c0           muls.w d0, d1
      0x0074b6bc      204c           movea.l a4, a0
      0x0074b6be      7802           moveq 0x2, d4
      0x0074b6c0      4eb900408686   jsr fcn.00408686
      0x0074b6c6      2f04           move.l d4, -(a7)
      0x0074b6c8      48c6           ext.l d6
      0x0074b6ca      4878000a       pea.l 0xa
      0x0074b6ce      dd97           add.l d6, (a7)
      0x0074b6d0      7e00           moveq 0x0, d7
      0x0074b6d2      be97           cmp.l (a7), d7
  < 0x0074b6d4      6e0c           bgt.b 0x74b6e2
     0x0074b6d6      2417           move.l (a7), d2
     0x0074b6d8      0c8200007fff   cmpi.l 0x7fff, d2
  < 0x0074b6de      6f02           ble.b 0x74b6e2
     0x0074b6e0      4e4f           trap 0xf
  > 0x0074b6e2      be6f0002       cmp.w 0x2(a7), d7
  < 0x0074b6e6      6e76           bgt.b 0x74b75e
     0x0074b6e8      48c7           ext.l d7
     0x0074b6ea      2407           move.l d7, d2
     0x0074b6ec      5282           addq.l 0x1, d2
     0x0074b6ee      0c820000000c   cmpi.l 0xc, d2
  < 0x0074b6f4      6302           bls.b 0x74b6f8
     0x0074b6f6      4e4f           trap 0xf
  > 0x0074b6f8      e582           asl.l 0x2, d2
     0x0074b6fa      43f01000       lea.l (a0, d1.w), a1
     0x0074b6fe      43f12800       lea.l (a1, d2.l), a1
     0x0074b702      48c7           ext.l d7
     0x0074b704      48c6           ext.l d6
     0x0074b706      2407           move.l d7, d2
     0x0074b708      9486           sub.l d6, d2
     0x0074b70a      2602           move.l d2, d3
     0x0074b70c      5283           addq.l 0x1, d3
     0x0074b70e      0c830000000c   cmpi.l 0xc, d3
  < 0x0074b714      6302           bls.b 0x74b718
     0x0074b716      4e4f           trap 0xf
  > 0x0074b718      e583           asl.l 0x2, d3
     0x0074b71a      45f01000       lea.l (a0, d1.w), a2
     0x0074b71e      45f23800       lea.l (a2, d3.l), a2
     0x0074b722      5282           addq.l 0x1, d2
     0x0074b724      5282           addq.l 0x1, d2
     0x0074b726      0c820000000c   cmpi.l 0xc, d2
  < 0x0074b72c      6302           bls.b 0x74b730
     0x0074b72e      4e4f           trap 0xf
  > 0x0074b730      e582           asl.l 0x2, d2
     0x0074b732      47f01000       lea.l (a0, d1.w), a3
     0x0074b736      47f32800       lea.l (a3, d2.l), a3
     0x0074b73a      282a0458       move.l 0x458(a2), d4
     0x0074b73e      262b0458       move.l 0x458(a3), d3
     0x0074b742      4eb900407ba8   jsr fcn.00407ba8
     0x0074b748      262f0004       move.l 0x4(a7), d3
     0x0074b74c      4eb900407ff8   jsr fcn.00407ff8
     0x0074b752      23440458       move.l d4, 0x458(a1)
     0x0074b756      282f0004       move.l 0x4(a7), d4
     0x0074b75a      5247           addq.w 0x1, d7
  < 0x0074b75c      6884           bvc.b 0x74b6e2
  > 0x0074b75e      504f           addq.w 0x8, a7
      0x0074b760      7234           moveq 0x34, d1
      0x0074b762      c3c0           muls.w d0, d1
      0x0074b764      204c           movea.l a4, a0
      0x0074b766      41f01000       lea.l (a0, d1.w), a0
      0x0074b76a      48c6           ext.l d6
      0x0074b76c      720b           moveq 0xb, d1
      0x0074b76e      d286           add.l d6, d1
      0x0074b770      3e01           move.w d1, d7
  > 0x0074b772      0c47000a       cmpi.w 0xa, d7
  < 0x0074b776      6e20           bgt.b 0x74b798
     0x0074b778      48c7           ext.l d7
     0x0074b77a      2207           move.l d7, d1
     0x0074b77c      5281           addq.l 0x1, d1
     0x0074b77e      0c810000000c   cmpi.l 0xc, d1
  < 0x0074b784      6302           bls.b 0x74b788
     0x0074b786      4e4f           trap 0xf
  > 0x0074b788      e581           asl.l 0x2, d1
     0x0074b78a      43f01800       lea.l (a0, d1.l), a1
     0x0074b78e      236804840458   move.l 0x484(a0), 0x458(a1)
     0x0074b794      5247           addq.w 0x1, d7
  < 0x0074b796      68da           bvc.b 0x74b772
  < 0x0074b798      600000a6       bra.w 0x74b840
  > 0x0074b79c      4880           ext.w d0
      0x0074b79e      7234           moveq 0x34, d1
      0x0074b7a0      c3c0           muls.w d0, d1
      0x0074b7a2      204c           movea.l a4, a0
      0x0074b7a4      48c6           ext.l d6
      0x0074b7a6      4878000a       pea.l 0xa
      0x0074b7aa      dd97           add.l d6, (a7)
      0x0074b7ac      7e00           moveq 0x0, d7
      0x0074b7ae      be97           cmp.l (a7), d7
  < 0x0074b7b0      6e0c           bgt.b 0x74b7be
     0x0074b7b2      2417           move.l (a7), d2
     0x0074b7b4      0c8200007fff   cmpi.l 0x7fff, d2
  < 0x0074b7ba      6f02           ble.b 0x74b7be
     0x0074b7bc      4e4f           trap 0xf
  > 0x0074b7be      be6f0002       cmp.w 0x2(a7), d7
  < 0x0074b7c2      6e42           bgt.b 0x74b806
     0x0074b7c4      48c7           ext.l d7
     0x0074b7c6      2407           move.l d7, d2
     0x0074b7c8      5282           addq.l 0x1, d2
     0x0074b7ca      0c820000000c   cmpi.l 0xc, d2
  < 0x0074b7d0      6302           bls.b 0x74b7d4
     0x0074b7d2      4e4f           trap 0xf
  > 0x0074b7d4      e582           asl.l 0x2, d2
     0x0074b7d6      43f01000       lea.l (a0, d1.w), a1
     0x0074b7da      43f12800       lea.l (a1, d2.l), a1
     0x0074b7de      48c7           ext.l d7
     0x0074b7e0      48c6           ext.l d6
     0x0074b7e2      2407           move.l d7, d2
     0x0074b7e4      9486           sub.l d6, d2
     0x0074b7e6      5282           addq.l 0x1, d2
     0x0074b7e8      0c820000000c   cmpi.l 0xc, d2
  < 0x0074b7ee      6302           bls.b 0x74b7f2
     0x0074b7f0      4e4f           trap 0xf
  > 0x0074b7f2      e582           asl.l 0x2, d2
     0x0074b7f4      45f01000       lea.l (a0, d1.w), a2
     0x0074b7f8      45f22800       lea.l (a2, d2.l), a2
     0x0074b7fc      236a04580458   move.l 0x458(a2), 0x458(a1)
     0x0074b802      5247           addq.w 0x1, d7
  < 0x0074b804      68b8           bvc.b 0x74b7be
  > 0x0074b806      584f           addq.w 0x4, a7
      0x0074b808      7234           moveq 0x34, d1
      0x0074b80a      c3c0           muls.w d0, d1
      0x0074b80c      204c           movea.l a4, a0
      0x0074b80e      41f01000       lea.l (a0, d1.w), a0
      0x0074b812      48c6           ext.l d6
      0x0074b814      720b           moveq 0xb, d1
      0x0074b816      d286           add.l d6, d1
      0x0074b818      3e01           move.w d1, d7
  > 0x0074b81a      0c47000a       cmpi.w 0xa, d7
  < 0x0074b81e      6e20           bgt.b 0x74b840
     0x0074b820      48c7           ext.l d7
     0x0074b822      2207           move.l d7, d1
     0x0074b824      5281           addq.l 0x1, d1
     0x0074b826      0c810000000c   cmpi.l 0xc, d1
  < 0x0074b82c      6302           bls.b 0x74b830
     0x0074b82e      4e4f           trap 0xf
  > 0x0074b830      e581           asl.l 0x2, d1
     0x0074b832      43f01800       lea.l (a0, d1.l), a1
     0x0074b836      236804840458   move.l 0x484(a0), 0x458(a1)
     0x0074b83c      5247           addq.w 0x1, d7
  < 0x0074b83e      68da           bvc.b 0x74b81a
  > 0x0074b840      4880           ext.w d0
          0x0074b842      204c           movea.l a4, a0
          0x0074b844      41f00000       lea.l (a0, d0.w), a0
          0x0074b848      4a280728       tst.b 0x728(a0)
      < 0x0074b84c      674c           beq.b 0x74b89a
         0x0074b84e      4880           ext.w d0
         0x0074b850      7234           moveq 0x34, d1
         0x0074b852      c3c0           muls.w d0, d1
         0x0074b854      204c           movea.l a4, a0
         0x0074b856      283c000000ff   move.l 0xff, d4
         0x0074b85c      4eb900408686   jsr fcn.00408686
         0x0074b862      2f04           move.l d4, -(a7)
         0x0074b864      7e00           moveq 0x0, d7
     > 0x0074b866      48c7           ext.l d7
        0x0074b868      2407           move.l d7, d2
        0x0074b86a      5282           addq.l 0x1, d2
        0x0074b86c      0c820000000c   cmpi.l 0xc, d2
    < 0x0074b872      6302           bls.b 0x74b876
       0x0074b874      4e4f           trap 0xf
    > 0x0074b876      e582           asl.l 0x2, d2
        0x0074b878      43f01000       lea.l (a0, d1.w), a1
        0x0074b87c      43f12800       lea.l (a1, d2.l), a1
        0x0074b880      26290458       move.l 0x458(a1), d3
        0x0074b884      4eb900407b44   jsr fcn.00407b44
        0x0074b88a      23440458       move.l d4, 0x458(a1)
        0x0074b88e      2817           move.l (a7), d4
        0x0074b890      5247           addq.w 0x1, d7
        0x0074b892      0c47000a       cmpi.w 0xa, d7
     < 0x0074b896      6fce           ble.b 0x74b866
         0x0074b898      584f           addq.w 0x4, a7
      > 0x0074b89a      2817           move.l (a7), d4
          0x0074b89c      5200           addq.b 0x1, d0
          0x0074b89e      0c000002       cmpi.b 0x2, d0
       < 0x0074b8a2      6f00f5da       ble.w 0x74ae7e              ; MENUFETTLECOM.hit_fettle_valu+0x5ea
           0x0074b8a6      defc000e       adda.w 0xe, a7
           0x0074b8aa      3eae000a       move.w 0xa(a6), (a7)
           0x0074b8ae      3f3c0002       move.w 0x2, -(a7)
           0x0074b8b2      4ebaed12       jsr MENUFETTLECOM.hit_fettle_grap(pc)
           0x0074b8b6      544f           addq.w 0x2, a7
           0x0074b8b8      1ebc0001       move.b 0x1, (a7)
           0x0074b8bc      554f           subq.w 0x2, a7
           0x0074b8be      4eb900401d86   jsr p_Task_Priority
           0x0074b8c4      3017           move.w (a7), d0
           0x0074b8c6      41bc0007       chk.w 0x7, d0
           0x0074b8ca      3e80           move.w d0, (a7)
           0x0074b8cc      4eb900456ede   jsr PAD.flag_on_abort
           0x0074b8d2      3ebc0065       move.w 0x65, (a7)
           0x0074b8d6      4eb900480fc2   jsr MENUCOM.get_boxon
           0x0074b8dc      544f           addq.w 0x2, a7
           0x0074b8de      4a1f           tst.b (a7)+
       < 0x0074b8e0      6706           beq.b 0x74b8e8
          0x0074b8e2      1f3c0002       move.b 0x2, -(a7)
      < 0x0074b8e6      6004           bra.b 0x74b8ec
      > 0x0074b8e8      1f3c0001       move.b 0x1, -(a7)
      > 0x0074b8ec      4ebada4a       jsr MENUFETTLECOM.do_fettle(pc)
           0x0074b8f0      544f           addq.w 0x2, a7
           0x0074b8f2      4227           clr.b -(a7)
           0x0074b8f4      4267           clr.w -(a7)
           0x0074b8f6      4eb900456ede   jsr PAD.flag_on_abort
           0x0074b8fc      584f           addq.w 0x4, a7
        > 0x0074b8fe      4cdf1fff       movem.l (a7)+, d0-d7/a0-a4
            0x0074b902      4e5e           unlk a6
            0x0074b904      4e75           rts
            ; CALL XREF from MENUFETTLECOM.hit_setup_do_al @ 0x74bc3c
            ; CALL XREF from MENUFETTLECOM.hit_fettle @ 0x74be8c
 96: MENUFETTLECOM.exit_fettle ();
           0x0074b906      4e56ffde       link.w a6, 0xffde
           0x0074b90a      bfd5           cmpa.l (a5), a7
       < 0x0074b90c      6206           bhi.b 0x74b914
          0x0074b90e      44fc0002       move.w 0x2, ccr
          0x0074b912      4e76           trapv
       > 0x0074b914      defc0020       adda.w 0x20, a7
           0x0074b918      48e781c0       movem.l d0/d7/a0-a1, -(a7)
           0x0074b91c      7e01           moveq 0x1, d7
       > 0x0074b91e      48c7           ext.l d7
          0x0074b920      2007           move.l d7, d0
          0x0074b922      5380           subq.l 0x1, d0
          0x0074b924      0c8000000003   cmpi.l 0x3, d0
      < 0x0074b92a      6302           bls.b 0x74b92e
         0x0074b92c      4e4f           trap 0xf
      > 0x0074b92e      e580           asl.l 0x2, d0
          0x0074b930      41f90086cb3e   lea.l 0x86cb3e, a0
          0x0074b936      41f00800       lea.l (a0, d0.l), a0
          0x0074b93a      2268072c       movea.l 0x72c(a0), a1
          0x0074b93e      b2fc0001       cmpa.w 0x1, a1
      < 0x0074b942      6712           beq.b 0x74b956
         0x0074b944      4868072c       pea.l 0x72c(a0)
         0x0074b948      2f3c0000cf00   move.l 0xcf00, -(a7)
         0x0074b94e      4eb900403b98   jsr p_Dispos
         0x0074b954      504f           addq.w 0x8, a7
      > 0x0074b956      5247           addq.w 0x1, d7
          0x0074b958      0c470004       cmpi.w 0x4, d7
       < 0x0074b95c      6fc0           ble.b 0x74b91e
           0x0074b95e      4cdf0381       movem.l (a7)+, d0/d7/a0-a1
           0x0074b962      4e5e           unlk a6
           0x0074b964      4e75           rts
            ; CALL XREF from MENUFETTLECOM.hit_setup_do_al @ 0x74bab6
 140: MENUFETTLECOM.heap_ok ();
           0x0074b966      4e56ffd6       link.w a6, 0xffd6
           0x0074b96a      bfd5           cmpa.l (a5), a7
       < 0x0074b96c      6206           bhi.b 0x74b974
          0x0074b96e      44fc0002       move.w 0x2, ccr
          0x0074b972      4e76           trapv
       > 0x0074b974      defc0028       adda.w 0x28, a7
           0x0074b978      48e7c1c0       movem.l d0-d1/d7/a0-a1, -(a7)
           0x0074b97c      7201           moveq 0x1, d1
           0x0074b97e      1d410008       move.b d1, 0x8(a6)
           0x0074b982      7e01           moveq 0x1, d7
       > 0x0074b984      48c7           ext.l d7
          0x0074b986      2007           move.l d7, d0
          0x0074b988      5380           subq.l 0x1, d0
          0x0074b98a      0c8000000003   cmpi.l 0x3, d0
      < 0x0074b990      6302           bls.b 0x74b994
         0x0074b992      4e4f           trap 0xf
      > 0x0074b994      e580           asl.l 0x2, d0
          0x0074b996      41f90086cb3e   lea.l 0x86cb3e, a0
          0x0074b99c      41f00800       lea.l (a0, d0.l), a0
          0x0074b9a0      2268072c       movea.l 0x72c(a0), a1
          0x0074b9a4      b2c1           cmpa.w d1, a1
      < 0x0074b9a6      6620           bne.b 0x74b9c8
         0x0074b9a8      4868072c       pea.l 0x72c(a0)
         0x0074b9ac      2f3c0000cf00   move.l 0xcf00, -(a7)
         0x0074b9b2      4eb900403a92   jsr p_New
         0x0074b9b8      504f           addq.w 0x8, a7
         0x0074b9ba      2268072c       movea.l 0x72c(a0), a1
         0x0074b9be      b2c1           cmpa.w d1, a1
     < 0x0074b9c0      6620           bne.b 0x74b9e2
        0x0074b9c2      422e0008       clr.b 0x8(a6)
    < 0x0074b9c6      601a           bra.b 0x74b9e2
    > 0x0074b9c8      487acfe7       pea.l 0x7489b1(pc)
        0x0074b9cc      4878001d       pea.l 0x1d
        0x0074b9d0      2f17           move.l (a7), -(a7)
        0x0074b9d2      4eb9004047ea   jsr p_wts_o
        0x0074b9d8      defc000c       adda.w 0xc, a7
        0x0074b9dc      4eb900404946   jsr p_wtln_o
    > 0x0074b9e2      5247           addq.w 0x1, d7
          0x0074b9e4      0c470004       cmpi.w 0x4, d7
       < 0x0074b9e8      6f9a           ble.b 0x74b984
           0x0074b9ea      4cdf0383       movem.l (a7)+, d0-d1/d7/a0-a1
           0x0074b9ee      4e5e           unlk a6
           0x0074b9f0      4e75           rts
 598: MENUFETTLECOM.hit_setup_do_al ();
           0x0074b9f2      4e56ffb0       link.w a6, 0xffb0
           0x0074b9f6      bfd5           cmpa.l (a5), a7
       < 0x0074b9f8      6206           bhi.b 0x74ba00
          0x0074b9fa      44fc0002       move.w 0x2, ccr
          0x0074b9fe      4e76           trapv
       > 0x0074ba00      defc0050       adda.w 0x50, a7
           0x0074ba04      48e7fff8       movem.l d0-d7/a0-a4, -(a7)
           0x0074ba08      47f90086cb40   lea.l 0x86cb40, a3
           0x0074ba0e      49f90086cb44   lea.l 0x86cb44, a4
           0x0074ba14      7202           moveq 0x2, d1
           0x0074ba16      7404           moveq 0x4, d2
           0x0074ba18      7a2c           moveq 0x2c, d5
           0x0074ba1a      7c01           moveq 0x1, d6
           0x0074ba1c      7e1f           moveq 0x1f, d7
           0x0074ba1e      302e0008       move.w 0x8(a6), d0
           0x0074ba22      b046           cmp.w d6, d0
       < 0x0074ba24      6600021a       bne.w 0x74bc40
          0x0074ba28      4eb9004558e4   jsr CURSORCOM.cursor_off
          0x0074ba2e      2053           movea.l (a3), a0
          0x0074ba30      b1e8fffc       cmpa.l -0x4(a0), a0
      < 0x0074ba34      6702           beq.b 0x74ba38
         0x0074ba36      4e4d           trap 0xd
      > 0x0074ba38      1010           move.b (a0), d0
          0x0074ba3a      4880           ext.w d0
          0x0074ba3c      4182           chk.w d2, d0
          0x0074ba3e      c1c5           muls.w d5, d0
          0x0074ba40      2254           movea.l (a4), a1
          0x0074ba42      b3e9fffc       cmpa.l -0x4(a1), a1
      < 0x0074ba46      6702           beq.b 0x74ba4a
         0x0074ba48      4e4d           trap 0xd
      > 0x0074ba4a      45f90086cb4c   lea.l 0x86cb4c, a2
          0x0074ba50      43f10010       lea.l 0x10(a1, d0.w), a1
          0x0074ba54      7007           moveq 0x7, d0
      > 0x0074ba56      14d9           move.b (a1)+, (a2)+
      < 0x0074ba58      51c8fffc       dbra d0, 0x74ba56
          0x0074ba5c      4a280001       tst.b 0x1(a0)
      < 0x0074ba60      6752           beq.b 0x74bab4
         0x0074ba62      30390086cb4c   move.w 0x86cb4c, d0
         0x0074ba68      48c0           ext.l d0
         0x0074ba6a      81c1           divs.w d1, d0
         0x0074ba6c      33c00086cb4c   move.w d0, 0x86cb4c
         0x0074ba72      30390086cb4e   move.w 0x86cb4e, d0
         0x0074ba78      48c0           ext.l d0
         0x0074ba7a      048000000080   subi.l 0x80, d0
         0x0074ba80      2800           move.l d0, d4
         0x0074ba82      7602           moveq 0x2, d3
         0x0074ba84      4eb900406b50   jsr fcn.00406b50
         0x0074ba8a      06440080       addi.w 0x80, d4
         0x0074ba8e      33c40086cb4e   move.w d4, 0x86cb4e
         0x0074ba94      30390086cb50   move.w 0x86cb50, d0
         0x0074ba9a      48c0           ext.l d0
         0x0074ba9c      81c1           divs.w d1, d0
         0x0074ba9e      33c00086cb50   move.w d0, 0x86cb50
         0x0074baa4      30390086cb52   move.w 0x86cb52, d0
         0x0074baaa      48c0           ext.l d0
         0x0074baac      81c1           divs.w d1, d0
         0x0074baae      33c00086cb52   move.w d0, 0x86cb52
      > 0x0074bab4      554f           subq.w 0x2, a7
          0x0074bab6      4ebafeae       jsr MENUFETTLECOM.heap_ok(pc)
          0x0074baba      4a1f           tst.b (a7)+
      < 0x0074babc      67000150       beq.w 0x74bc0e
         0x0074bac0      554f           subq.w 0x2, a7
         0x0074bac2      3f07           move.w d7, -(a7)
         0x0074bac4      4eb900480fc2   jsr MENUCOM.get_boxon
         0x0074baca      544f           addq.w 0x2, a7
         0x0074bacc      4a1f           tst.b (a7)+
     < 0x0074bace      670a           beq.b 0x74bada
        0x0074bad0      3f07           move.w d7, -(a7)
        0x0074bad2      4eb9004836a4   jsr MENUCOM.push_box
        0x0074bad8      544f           addq.w 0x2, a7
     > 0x0074bada      554f           subq.w 0x2, a7
         0x0074badc      3f3c002d       move.w 0x2d, -(a7)
         0x0074bae0      4eb900480fc2   jsr MENUCOM.get_boxon
         0x0074bae6      544f           addq.w 0x2, a7
         0x0074bae8      4a1f           tst.b (a7)+
     < 0x0074baea      670c           beq.b 0x74baf8
        0x0074baec      3f3c002d       move.w 0x2d, -(a7)
        0x0074baf0      4eb9004836a4   jsr MENUCOM.push_box
        0x0074baf6      544f           addq.w 0x2, a7
     > 0x0074baf8      3f3c0065       move.w 0x65, -(a7)
         0x0074bafc      4227           clr.b -(a7)
         0x0074bafe      4eb900483776   jsr MENUCOM.swtch_box
         0x0074bb04      584f           addq.w 0x4, a7
         0x0074bb06      302e000a       move.w 0xa(a6), d0
         0x0074bb0a      b0790086cb56   cmp.w 0x86cb56, d0
     < 0x0074bb10      660000c4       bne.w 0x74bbd6
        0x0074bb14      1f06           move.b d6, -(a7)
        0x0074bb16      554f           subq.w 0x2, a7
        0x0074bb18      4eb900401d86   jsr p_Task_Priority
        0x0074bb1e      3017           move.w (a7), d0
        0x0074bb20      41bc0007       chk.w 0x7, d0
        0x0074bb24      3e80           move.w d0, (a7)
        0x0074bb26      4eb900456ede   jsr PAD.flag_on_abort
        0x0074bb2c      544f           addq.w 0x2, a7
        0x0074bb2e      1e81           move.b d1, (a7)
        0x0074bb30      4ebad806       jsr MENUFETTLECOM.do_fettle(pc)
        0x0074bb34      4217           clr.b (a7)
        0x0074bb36      4267           clr.w -(a7)
        0x0074bb38      4eb900456ede   jsr PAD.flag_on_abort
        0x0074bb3e      3e85           move.w d5, (a7)
        0x0074bb40      4eb900480fc2   jsr MENUCOM.get_boxon
        0x0074bb46      544f           addq.w 0x2, a7
        0x0074bb48      4a1f           tst.b (a7)+
    < 0x0074bb4a      6746           beq.b 0x74bb92
       0x0074bb4c      2053           movea.l (a3), a0
       0x0074bb4e      b1e8fffc       cmpa.l -0x4(a0), a0
   < 0x0074bb52      6702           beq.b 0x74bb56
      0x0074bb54      4e4d           trap 0xd
   > 0x0074bb56      1010           move.b (a0), d0
       0x0074bb58      4880           ext.w d0
       0x0074bb5a      4182           chk.w d2, d0
       0x0074bb5c      c1c5           muls.w d5, d0
       0x0074bb5e      1f01           move.b d1, -(a7)
       0x0074bb60      4227           clr.b -(a7)
       0x0074bb62      2054           movea.l (a4), a0
       0x0074bb64      b1e8fffc       cmpa.l -0x4(a0), a0
   < 0x0074bb68      6702           beq.b 0x74bb6c
      0x0074bb6a      4e4d           trap 0xd
   > 0x0074bb6c      514f           subq.w 0x8, a7
       0x0074bb6e      224f           movea.l a7, a1
       0x0074bb70      41f00010       lea.l 0x10(a0, d0.w), a0
       0x0074bb74      7007           moveq 0x7, d0
   > 0x0074bb76      12d8           move.b (a0)+, (a1)+
   < 0x0074bb78      51c8fffc       dbra d0, 0x74bb76
       0x0074bb7c      2f3ace50       move.l 0x7489ce(pc), -(a7)
       0x0074bb80      1f01           move.b d1, -(a7)
       0x0074bb82      4227           clr.b -(a7)
       0x0074bb84      4227           clr.b -(a7)
       0x0074bb86      4eb9005233f0   jsr BRUSHCOM.br_paste
       0x0074bb8c      defc0016       adda.w 0x16, a7
   < 0x0074bb90      6042           bra.b 0x74bbd4
   > 0x0074bb92      2053           movea.l (a3), a0
       0x0074bb94      b1e8fffc       cmpa.l -0x4(a0), a0
   < 0x0074bb98      6702           beq.b 0x74bb9c
      0x0074bb9a      4e4d           trap 0xd
   > 0x0074bb9c      1010           move.b (a0), d0
       0x0074bb9e      4880           ext.w d0
       0x0074bba0      4182           chk.w d2, d0
       0x0074bba2      c1c5           muls.w d5, d0
       0x0074bba4      1f3c0003       move.b 0x3, -(a7)
       0x0074bba8      1f01           move.b d1, -(a7)
       0x0074bbaa      1f02           move.b d2, -(a7)
       0x0074bbac      2f3ace24       move.l 0x7489d2(pc), -(a7)
       0x0074bbb0      2054           movea.l (a4), a0
       0x0074bbb2      b1e8fffc       cmpa.l -0x4(a0), a0
   < 0x0074bbb6      6702           beq.b 0x74bbba
      0x0074bbb8      4e4d           trap 0xd
   > 0x0074bbba      514f           subq.w 0x8, a7
       0x0074bbbc      224f           movea.l a7, a1
       0x0074bbbe      41f00010       lea.l 0x10(a0, d0.w), a0
       0x0074bbc2      7007           moveq 0x7, d0
   > 0x0074bbc4      12d8           move.b (a0)+, (a1)+
   < 0x0074bbc6      51c8fffc       dbra d0, 0x74bbc4
       0x0074bbca      4eb900522722   jsr BRUSHCOM.str_any_str_cop
       0x0074bbd0      defc0012       adda.w 0x12, a7
   < 0x0074bbd4      6066           bra.b 0x74bc3c
    > 0x0074bbd6      3f390086cb58   move.w 0x86cb58, -(a7)
        0x0074bbdc      4227           clr.b -(a7)
        0x0074bbde      4eb900483972   jsr MENUCOM.set_enable_box
        0x0074bbe4      544f           addq.w 0x2, a7
        0x0074bbe6      3eb90086cb56   move.w 0x86cb56, (a7)
        0x0074bbec      4227           clr.b -(a7)
        0x0074bbee      4eb900483972   jsr MENUCOM.set_enable_box
        0x0074bbf4      544f           addq.w 0x2, a7
        0x0074bbf6      3ebc005f       move.w 0x5f, (a7)
        0x0074bbfa      1f06           move.b d6, -(a7)
        0x0074bbfc      4eb900483776   jsr MENUCOM.swtch_box
        0x0074bc02      544f           addq.w 0x2, a7
        0x0074bc04      4217           clr.b (a7)
        0x0074bc06      4ebad730       jsr MENUFETTLECOM.do_fettle(pc)
        0x0074bc0a      544f           addq.w 0x2, a7
    < 0x0074bc0c      6032           bra.b 0x74bc40
    > 0x0074bc0e      9efc000a       suba.w 0xa, a7
        0x0074bc12      204f           movea.l a7, a0
        0x0074bc14      43facdc1       lea.l 0x7489d7(pc), a1
        0x0074bc18      7008           moveq 0x8, d0
    > 0x0074bc1a      10d9           move.b (a1)+, (a0)+
    < 0x0074bc1c      51c8fffc       dbra d0, 0x74bc1a
        0x0074bc20      3f390086cb54   move.w 0x86cb54, -(a7)
        0x0074bc26      486f0002       pea.l 0x2(a7)
        0x0074bc2a      48780001       pea.l 0x1
        0x0074bc2e      48780009       pea.l 0x9
        0x0074bc32      4eb900483af8   jsr MENUCOM.box_error
        0x0074bc38      defc0018       adda.w 0x18, a7
    > 0x0074bc3c      4ebafcc8       jsr MENUFETTLECOM.exit_fettle(pc)
     > 0x0074bc40      4cdf1fff       movem.l (a7)+, d0-d7/a0-a4
           0x0074bc44      4e5e           unlk a6
           0x0074bc46      4e75           rts
            ; CALL XREF from MENUEFFECTCOM.send_to_submenu @ 0x745ab6
 1208: MENUFETTLECOM.hit_fettle ();
           0x0074bc48      4e56ff94       link.w a6, 0xff94
           0x0074bc4c      bfd5           cmpa.l (a5), a7
       < 0x0074bc4e      6206           bhi.b 0x74bc56
          0x0074bc50      44fc0002       move.w 0x2, ccr
          0x0074bc54      4e76           trapv
       > 0x0074bc56      defc005e       adda.w 0x5e, a7
           0x0074bc5a      48e7fff8       movem.l d0-d7/a0-a4, -(a7)
           0x0074bc5e      47f900480fc2   lea.l MENUCOM.get_boxon, a3
           0x0074bc64      49f90086cb54   lea.l 0x86cb54, a4
           0x0074bc6a      20790086cb48   movea.l 0x86cb48, a0
           0x0074bc70      b1e8fffc       cmpa.l -0x4(a0), a0
       < 0x0074bc74      6702           beq.b 0x74bc78
          0x0074bc76      4e4d           trap 0xd
       > 0x0074bc78      302e0008       move.w 0x8(a6), d0
           0x0074bc7c      0c40000a       cmpi.w 0xa, d0
       < 0x0074bc80      6c1a           bge.b 0x74bc9c
          0x0074bc82      0c400002       cmpi.w 0x2, d0
      < 0x0074bc86      6d28           blt.b 0x74bcb0
         0x0074bc88      0c400002       cmpi.w 0x2, d0
     < 0x0074bc8c      6700028c       beq.w 0x74bf1a
        0x0074bc90      0c400009       cmpi.w 0x9, d0
    < 0x0074bc94      670002c8       beq.w 0x74bf5e
   < 0x0074bc98      6000045e       bra.w 0x74c0f8
   > 0x0074bc9c      0c40000a       cmpi.w 0xa, d0
   < 0x0074bca0      67000448       beq.w 0x74c0ea
      0x0074bca4      0c40001e       cmpi.w 0x1e, d0
  < 0x0074bca8      670001bc       beq.w 0x74be66
 < 0x0074bcac      6000044a       bra.w 0x74c0f8
 > 0x0074bcb0      4a40           tst.w d0
 < 0x0074bcb2      670001b2       beq.w 0x74be66
    0x0074bcb6      0c400001       cmpi.w 0x1, d0
 < 0x0074bcba      6704           beq.b 0x74bcc0
 < 0x0074bcbc      6000043a       bra.w 0x74c0f8
 > 0x0074bcc0      302e000a       move.w 0xa(a6), d0
    0x0074bcc4      b054           cmp.w (a4), d0
 < 0x0074bcc6      665c           bne.b 0x74bd24
    0x0074bcc8      554f           subq.w 0x2, a7
    0x0074bcca      3f3c001f       move.w 0x1f, -(a7)
    0x0074bcce      4e93           jsr (a3)                    ; fcn.0000000c
    0x0074bcd0      544f           addq.w 0x2, a7
    0x0074bcd2      4a1f           tst.b (a7)+
 < 0x0074bcd4      670c           beq.b 0x74bce2
    0x0074bcd6      3f3c001f       move.w 0x1f, -(a7)
    0x0074bcda      4eb9004836a4   jsr MENUCOM.push_box
    0x0074bce0      544f           addq.w 0x2, a7
 > 0x0074bce2      554f           subq.w 0x2, a7
    0x0074bce4      3f3c002d       move.w 0x2d, -(a7)
    0x0074bce8      4e93           jsr (a3)                    ; fcn.0000000c
    0x0074bcea      544f           addq.w 0x2, a7
    0x0074bcec      4a1f           tst.b (a7)+
 < 0x0074bcee      670c           beq.b 0x74bcfc
    0x0074bcf0      3f3c002d       move.w 0x2d, -(a7)
    0x0074bcf4      4eb9004836a4   jsr MENUCOM.push_box
    0x0074bcfa      544f           addq.w 0x2, a7
 > 0x0074bcfc      3f390086cb56   move.w 0x86cb56, -(a7)
    0x0074bd02      1f3c0001       move.b 0x1, -(a7)
    0x0074bd06      4eb900483972   jsr MENUCOM.set_enable_box
    0x0074bd0c      544f           addq.w 0x2, a7
    0x0074bd0e      3eb90086cb58   move.w 0x86cb58, (a7)
    0x0074bd14      1f3c0001       move.b 0x1, -(a7)
    0x0074bd18      4eb900483972   jsr MENUCOM.set_enable_box
 > 0x0074bd1e      584f           addq.w 0x4, a7
 < 0x0074bd20      60000140       bra.w 0x74be62
 > 0x0074bd24      0c400065       cmpi.w 0x65, d0
 < 0x0074bd28      6630           bne.b 0x74bd5a
    0x0074bd2a      1f3c0001       move.b 0x1, -(a7)
    0x0074bd2e      554f           subq.w 0x2, a7
    0x0074bd30      4eb900401d86   jsr p_Task_Priority
    0x0074bd36      3217           move.w (a7), d1
    0x0074bd38      43bc0007       chk.w 0x7, d1
    0x0074bd3c      3e81           move.w d1, (a7)
    0x0074bd3e      4eb900456ede   jsr PAD.flag_on_abort
    0x0074bd44      544f           addq.w 0x2, a7
    0x0074bd46      1ebc0002       move.b 0x2, (a7)
    0x0074bd4a      4ebad5ec       jsr MENUFETTLECOM.do_fettle(pc)
    0x0074bd4e      4217           clr.b (a7)
    0x0074bd50      4267           clr.w -(a7)
    0x0074bd52      4eb900456ede   jsr PAD.flag_on_abort
 < 0x0074bd58      60c4           bra.b 0x74bd1e
 > 0x0074bd5a      b0790086cb94   cmp.w 0x86cb94, d0
 < 0x0074bd60      66000100       bne.w 0x74be62
    0x0074bd64      554f           subq.w 0x2, a7
    0x0074bd66      3f3c0065       move.w 0x65, -(a7)
    0x0074bd6a      4e93           jsr (a3)                    ; fcn.0000000c
    0x0074bd6c      544f           addq.w 0x2, a7
    0x0074bd6e      4a1f           tst.b (a7)+
 < 0x0074bd70      6630           bne.b 0x74bda2
    0x0074bd72      1f3c0001       move.b 0x1, -(a7)
    0x0074bd76      554f           subq.w 0x2, a7
    0x0074bd78      4eb900401d86   jsr p_Task_Priority
    0x0074bd7e      3217           move.w (a7), d1
    0x0074bd80      43bc0007       chk.w 0x7, d1
    0x0074bd84      3e81           move.w d1, (a7)
    0x0074bd86      4eb900456ede   jsr PAD.flag_on_abort
    0x0074bd8c      544f           addq.w 0x2, a7
    0x0074bd8e      1ebc0002       move.b 0x2, (a7)
    0x0074bd92      4ebad5a4       jsr MENUFETTLECOM.do_fettle(pc)
    0x0074bd96      4217           clr.b (a7)
    0x0074bd98      4267           clr.w -(a7)
    0x0074bd9a      4eb900456ede   jsr PAD.flag_on_abort
    0x0074bda0      584f           addq.w 0x4, a7
 > 0x0074bda2      554f           subq.w 0x2, a7
    0x0074bda4      3f3c002c       move.w 0x2c, -(a7)
    0x0074bda8      4e93           jsr (a3)                    ; fcn.0000000c
    0x0074bdaa      544f           addq.w 0x2, a7
    0x0074bdac      4a1f           tst.b (a7)+
 < 0x0074bdae      6756           beq.b 0x74be06
    0x0074bdb0      22790086cb40   movea.l 0x86cb40, a1
    0x0074bdb6      b3e9fffc       cmpa.l -0x4(a1), a1
 < 0x0074bdba      6702           beq.b 0x74bdbe
    0x0074bdbc      4e4d           trap 0xd
 > 0x0074bdbe      1211           move.b (a1), d1
    0x0074bdc0      4881           ext.w d1
    0x0074bdc2      43bc0004       chk.w 0x4, d1
    0x0074bdc6      c3fc002c       muls.w 0x2c, d1
    0x0074bdca      1f3c0002       move.b 0x2, -(a7)
    0x0074bdce      4227           clr.b -(a7)
    0x0074bdd0      22790086cb44   movea.l 0x86cb44, a1
    0x0074bdd6      b3e9fffc       cmpa.l -0x4(a1), a1
 < 0x0074bdda      6702           beq.b 0x74bdde
    0x0074bddc      4e4d           trap 0xd
 > 0x0074bdde      514f           subq.w 0x8, a7
    0x0074bde0      244f           movea.l a7, a2
    0x0074bde2      43f11010       lea.l 0x10(a1, d1.w), a1
    0x0074bde6      7207           moveq 0x7, d1
 > 0x0074bde8      14d9           move.b (a1)+, (a2)+
 < 0x0074bdea      51c9fffc       dbra d1, 0x74bde8
    0x0074bdee      2f3acbf0       move.l 0x7489e0(pc), -(a7)
    0x0074bdf2      1f3c0002       move.b 0x2, -(a7)
    0x0074bdf6      4227           clr.b -(a7)
    0x0074bdf8      4227           clr.b -(a7)
    0x0074bdfa      4eb9005233f0   jsr BRUSHCOM.br_paste
    0x0074be00      defc0016       adda.w 0x16, a7
 < 0x0074be04      6052           bra.b 0x74be58
 > 0x0074be06      22790086cb40   movea.l 0x86cb40, a1
    0x0074be0c      b3e9fffc       cmpa.l -0x4(a1), a1
 < 0x0074be10      6702           beq.b 0x74be14
    0x0074be12      4e4d           trap 0xd
 > 0x0074be14      1211           move.b (a1), d1
    0x0074be16      4881           ext.w d1
    0x0074be18      43bc0004       chk.w 0x4, d1
    0x0074be1c      c3fc002c       muls.w 0x2c, d1
    0x0074be20      1f3c0003       move.b 0x3, -(a7)
    0x0074be24      1f3c0002       move.b 0x2, -(a7)
    0x0074be28      1f3c0004       move.b 0x4, -(a7)
    0x0074be2c      2f3acbb6       move.l 0x7489e4(pc), -(a7)
    0x0074be30      22790086cb44   movea.l 0x86cb44, a1
    0x0074be36      b3e9fffc       cmpa.l -0x4(a1), a1
 < 0x0074be3a      6702           beq.b 0x74be3e
    0x0074be3c      4e4d           trap 0xd
 > 0x0074be3e      514f           subq.w 0x8, a7
    0x0074be40      244f           movea.l a7, a2
    0x0074be42      43f11010       lea.l 0x10(a1, d1.w), a1
    0x0074be46      7207           moveq 0x7, d1
 > 0x0074be48      14d9           move.b (a1)+, (a2)+
 < 0x0074be4a      51c9fffc       dbra d1, 0x74be48
    0x0074be4e      4eb900522722   jsr BRUSHCOM.str_any_str_cop
    0x0074be54      defc0012       adda.w 0x12, a7
 > 0x0074be58      3f14           move.w (a4), -(a7)
    0x0074be5a      4eb9004836a4   jsr MENUCOM.push_box
    0x0074be60      544f           addq.w 0x2, a7
 > 0x0074be62      60000294       bra.w 0x74c0f8
 > 0x0074be66      302e000a       move.w 0xa(a6), d0
      0x0074be6a      b054           cmp.w (a4), d0
  < 0x0074be6c      6600009a       bne.w 0x74bf08
     0x0074be70      3f3c0065       move.w 0x65, -(a7)
     0x0074be74      4227           clr.b -(a7)
     0x0074be76      4eb900483776   jsr MENUCOM.swtch_box
     0x0074be7c      544f           addq.w 0x2, a7
     0x0074be7e      3ebc005f       move.w 0x5f, (a7)
     0x0074be82      4227           clr.b -(a7)
     0x0074be84      4eb900483776   jsr MENUCOM.swtch_box
     0x0074be8a      584f           addq.w 0x4, a7
     0x0074be8c      4ebafa78       jsr MENUFETTLECOM.exit_fettle(pc)
     0x0074be90      4eb900518f96   jsr OUTCOM.normal_set_out
     0x0074be96      1f3c0002       move.b 0x2, -(a7)
     0x0074be9a      2f3acb4c       move.l 0x7489e8(pc), -(a7)
     0x0074be9e      4eb90051872e   jsr OUTCOM.set_scroll
     0x0074bea4      584f           addq.w 0x4, a7
     0x0074bea6      1ebc0003       move.b 0x3, (a7)
     0x0074beaa      3f3c0100       move.w 0x100, -(a7)
     0x0074beae      2f3acb3c       move.l 0x7489ec(pc), -(a7)
     0x0074beb2      2f3acb3c       move.l 0x7489f0(pc), -(a7)
     0x0074beb6      4eb900518898   jsr OUTCOM.set_zoom
     0x0074bebc      defc000c       adda.w 0xc, a7
     0x0074bec0      22790086cb40   movea.l 0x86cb40, a1
     0x0074bec6      b3e9fffc       cmpa.l -0x4(a1), a1
 < 0x0074beca      6702           beq.b 0x74bece
    0x0074becc      4e4d           trap 0xd
 > 0x0074bece      1211           move.b (a1), d1
     0x0074bed0      4881           ext.w d1
     0x0074bed2      43bc0004       chk.w 0x4, d1
     0x0074bed6      c3fc002c       muls.w 0x2c, d1
     0x0074beda      1f3c0002       move.b 0x2, -(a7)
     0x0074bede      22790086cb44   movea.l 0x86cb44, a1
     0x0074bee4      b3e9fffc       cmpa.l -0x4(a1), a1
 < 0x0074bee8      6702           beq.b 0x74beec
    0x0074beea      4e4d           trap 0xd
 > 0x0074beec      514f           subq.w 0x8, a7
     0x0074beee      244f           movea.l a7, a2
     0x0074bef0      43f11010       lea.l 0x10(a1, d1.w), a1
     0x0074bef4      7207           moveq 0x7, d1
 > 0x0074bef6      14d9           move.b (a1)+, (a2)+
 < 0x0074bef8      51c9fffc       dbra d1, 0x74bef6
     0x0074befc      4eb900518a2a   jsr OUTCOM.set_video_crops
     0x0074bf02      defc000a       adda.w 0xa, a7
 < 0x0074bf06      600e           bra.b 0x74bf16
 > 0x0074bf08      0c400065       cmpi.w 0x65, d0
 < 0x0074bf0c      6608           bne.b 0x74bf16
    0x0074bf0e      4227           clr.b -(a7)
    0x0074bf10      4ebad426       jsr MENUFETTLECOM.do_fettle(pc)
    0x0074bf14      544f           addq.w 0x2, a7
 > 0x0074bf16      600001e0       bra.w 0x74c0f8
  > 0x0074bf1a      302e000a       move.w 0xa(a6), d0
       0x0074bf1e      0c40001f       cmpi.w 0x1f, d0
   < 0x0074bf22      670c           beq.b 0x74bf30
      0x0074bf24      0c400025       cmpi.w 0x25, d0
  < 0x0074bf28      6706           beq.b 0x74bf30
     0x0074bf2a      0c400023       cmpi.w 0x23, d0
 < 0x0074bf2e      660c           bne.b 0x74bf3c
 > 0x0074bf30      3f14           move.w (a4), -(a7)
  > 0x0074bf32      4eb9004836a4   jsr MENUCOM.push_box
     0x0074bf38      544f           addq.w 0x2, a7
 < 0x0074bf3a      601e           bra.b 0x74bf5a
 > 0x0074bf3c      0c400020       cmpi.w 0x20, d0
 < 0x0074bf40      6608           bne.b 0x74bf4a
    0x0074bf42      3f390086cb94   move.w 0x86cb94, -(a7)
 < 0x0074bf48      60e8           bra.b 0x74bf32
 > 0x0074bf4a      0c40002c       cmpi.w 0x2c, d0
  < 0x0074bf4e      6706           beq.b 0x74bf56
     0x0074bf50      0c40002d       cmpi.w 0x2d, d0
 < 0x0074bf54      6604           bne.b 0x74bf5a
 > 0x0074bf56      4ebad264       jsr MENUFETTLECOM.fettle_set_out(pc)
 < 0x0074bf5a      6000019c       bra.w 0x74c0f8
  > 0x0074bf5e      4eb90047b9c8   jsr CNTLCOM.update_cursor
       0x0074bf64      7c28           moveq 0x28, d6
       0x0074bf66      554f           subq.w 0x2, a7
       0x0074bf68      3f390086cb70   move.w 0x86cb70, -(a7)
       0x0074bf6e      4e93           jsr (a3)                    ; fcn.0000000c
       0x0074bf70      544f           addq.w 0x2, a7
       0x0074bf72      4a1f           tst.b (a7)+
   < 0x0074bf74      6708           beq.b 0x74bf7e
      0x0074bf76      3a390086cb76   move.w 0x86cb76, d5
  < 0x0074bf7c      6056           bra.b 0x74bfd4
  > 0x0074bf7e      554f           subq.w 0x2, a7
      0x0074bf80      3f390086cb6e   move.w 0x86cb6e, -(a7)
      0x0074bf86      4e93           jsr (a3)                    ; fcn.0000000c
      0x0074bf88      544f           addq.w 0x2, a7
      0x0074bf8a      4a1f           tst.b (a7)+
  < 0x0074bf8c      673c           beq.b 0x74bfca
     0x0074bf8e      554f           subq.w 0x2, a7
     0x0074bf90      3f390086cb7a   move.w 0x86cb7a, -(a7)
     0x0074bf96      4e93           jsr (a3)                    ; fcn.0000000c
     0x0074bf98      544f           addq.w 0x2, a7
     0x0074bf9a      4a1f           tst.b (a7)+
 < 0x0074bf9c      6708           beq.b 0x74bfa6
    0x0074bf9e      3a390086cb7a   move.w 0x86cb7a, d5
 < 0x0074bfa4      602e           bra.b 0x74bfd4
 > 0x0074bfa6      554f           subq.w 0x2, a7
     0x0074bfa8      3f390086cb7c   move.w 0x86cb7c, -(a7)
     0x0074bfae      4e93           jsr (a3)                    ; fcn.0000000c
     0x0074bfb0      544f           addq.w 0x2, a7
     0x0074bfb2      4a1f           tst.b (a7)+
 < 0x0074bfb4      670c           beq.b 0x74bfc2
    0x0074bfb6      3a390086cb7c   move.w 0x86cb7c, d5
    0x0074bfbc      3c3c0640       move.w 0x640, d6
 < 0x0074bfc0      6012           bra.b 0x74bfd4
 > 0x0074bfc2      3a390086cb78   move.w 0x86cb78, d5
 < 0x0074bfc8      600a           bra.b 0x74bfd4
 > 0x0074bfca      554f           subq.w 0x2, a7
     0x0074bfcc      4eb900482154   jsr MENUCOM.get_crnt_numeri
     0x0074bfd2      3a1f           move.w (a7)+, d5
 > 0x0074bfd4      554f           subq.w 0x2, a7
       0x0074bfd6      3f390086cb6e   move.w 0x86cb6e, -(a7)
       0x0074bfdc      4e93           jsr (a3)                    ; fcn.0000000c
       0x0074bfde      544f           addq.w 0x2, a7
       0x0074bfe0      4a1f           tst.b (a7)+
   < 0x0074bfe2      6620           bne.b 0x74c004
      0x0074bfe4      554f           subq.w 0x2, a7
      0x0074bfe6      3f390086cb70   move.w 0x86cb70, -(a7)
      0x0074bfec      4e93           jsr (a3)                    ; fcn.0000000c
      0x0074bfee      544f           addq.w 0x2, a7
      0x0074bff0      4a1f           tst.b (a7)+
  < 0x0074bff2      6610           bne.b 0x74c004
     0x0074bff4      554f           subq.w 0x2, a7
     0x0074bff6      3f390086cb74   move.w 0x86cb74, -(a7)
     0x0074bffc      4e93           jsr (a3)                    ; fcn.0000000c
     0x0074bffe      544f           addq.w 0x2, a7
     0x0074c000      4a1f           tst.b (a7)+
 < 0x0074c002      6760           beq.b 0x74c064
 > 0x0074c004      4a45           tst.w d5
  < 0x0074c006      670000e0       beq.w 0x74c0e8
     0x0074c00a      3f05           move.w d5, -(a7)
     0x0074c00c      30280012       move.w 0x12(a0), d0
     0x0074c010      48c0           ext.l d0
     0x0074c012      32280014       move.w 0x14(a0), d1
     0x0074c016      48c1           ext.l d1
     0x0074c018      4481           neg.l d1
     0x0074c01a      d280           add.l d0, d1
     0x0074c01c      2801           move.l d1, d4
     0x0074c01e      4eb900408686   jsr fcn.00408686
     0x0074c024      594f           subq.w 0x4, a7
     0x0074c026      2f04           move.l d4, -(a7)
     0x0074c028      48c6           ext.l d6
     0x0074c02a      2806           move.l d6, d4
     0x0074c02c      4eb900408686   jsr fcn.00408686
     0x0074c032      2604           move.l d4, d3
     0x0074c034      2817           move.l (a7), d4
     0x0074c036      4eb900407ff8   jsr fcn.00407ff8
     0x0074c03c      3f05           move.w d5, -(a7)
     0x0074c03e      4eb90048d992   jsr MENU2COM.get_numeric_val
     0x0074c044      544f           addq.w 0x2, a7
     0x0074c046      261f           move.l (a7)+, d3
     0x0074c048      4eb900407ba8   jsr fcn.00407ba8
     0x0074c04e      2e84           move.l d4, (a7)
     0x0074c050      4227           clr.b -(a7)
     0x0074c052      1f3c0001       move.b 0x1, -(a7)
     0x0074c056      4eb90048da84   jsr MENU2COM.set_numeric_val
     0x0074c05c      defc000a       adda.w 0xa, a7
 < 0x0074c060      60000086       bra.w 0x74c0e8
 > 0x0074c064      48c6           ext.l d6
     0x0074c066      2806           move.l d6, d4
     0x0074c068      4eb900408686   jsr fcn.00408686
     0x0074c06e      2f04           move.l d4, -(a7)
     0x0074c070      7e00           moveq 0x0, d7
 > 0x0074c072      4887           ext.w d7
    0x0074c074      3007           move.w d7, d0
    0x0074c076      e340           asl.w 0x1, d0
    0x0074c078      43f90086cb3e   lea.l 0x86cb3e, a1
    0x0074c07e      554f           subq.w 0x2, a7
    0x0074c080      3f310040       move.w 0x40(a1, d0.w), -(a7)
    0x0074c084      4e93           jsr (a3)                    ; fcn.0000000c
    0x0074c086      544f           addq.w 0x2, a7
    0x0074c088      4a1f           tst.b (a7)+
 < 0x0074c08a      6750           beq.b 0x74c0dc
    0x0074c08c      3f310048       move.w 0x48(a1, d0.w), -(a7)
    0x0074c090      32280012       move.w 0x12(a0), d1
    0x0074c094      48c1           ext.l d1
    0x0074c096      34280014       move.w 0x14(a0), d2
    0x0074c09a      48c2           ext.l d2
    0x0074c09c      4482           neg.l d2
    0x0074c09e      d481           add.l d1, d2
    0x0074c0a0      2802           move.l d2, d4
    0x0074c0a2      4eb900408686   jsr fcn.00408686
    0x0074c0a8      594f           subq.w 0x4, a7
    0x0074c0aa      262f0006       move.l 0x6(a7), d3
    0x0074c0ae      4eb900407ff8   jsr fcn.00407ff8
    0x0074c0b4      594f           subq.w 0x4, a7
    0x0074c0b6      3f310048       move.w 0x48(a1, d0.w), -(a7)
    0x0074c0ba      4eb90048d992   jsr MENU2COM.get_numeric_val
    0x0074c0c0      544f           addq.w 0x2, a7
    0x0074c0c2      261f           move.l (a7)+, d3
    0x0074c0c4      4eb900407ba8   jsr fcn.00407ba8
    0x0074c0ca      2e84           move.l d4, (a7)
    0x0074c0cc      4227           clr.b -(a7)
    0x0074c0ce      1f3c0001       move.b 0x1, -(a7)
    0x0074c0d2      4eb90048da84   jsr MENU2COM.set_numeric_val
    0x0074c0d8      defc000a       adda.w 0xa, a7
 > 0x0074c0dc      2817           move.l (a7), d4
    0x0074c0de      5207           addq.b 0x1, d7
    0x0074c0e0      0c070003       cmpi.b 0x3, d7
 < 0x0074c0e4      6f8c           ble.b 0x74c072
 > 0x0074c0e6      584f           addq.w 0x4, a7
 > 0x0074c0e8      600e           bra.b 0x74c0f8
   > 0x0074c0ea      3f2e000a       move.w 0xa(a6), -(a7)
       0x0074c0ee      3f3c0002       move.w 0x2, -(a7)
       0x0074c0f2      4ebae7a0       jsr MENUFETTLECOM.hit_fettle_valu(pc)
 < 0x0074c0f6      60ee           bra.b 0x74c0e6
 > 0x0074c0f8      4cdf1fff       movem.l (a7)+, d0-d7/a0-a4
           0x0074c0fc      4e5e           unlk a6
           0x0074c0fe      4e75           rts
 2988: MENUFETTLECOM.menu_fettle_ini ();
           0x0074c100      4e56fd78       link.w a6, 0xfd78
           0x0074c104      bfd5           cmpa.l (a5), a7
       < 0x0074c106      6206           bhi.b 0x74c10e
          0x0074c108      44fc0002       move.w 0x2, ccr
          0x0074c10c      4e76           trapv
       > 0x0074c10e      defc017e       adda.w 0x17e, a7
           0x0074c112      48e7fff8       movem.l d0-d7/a0-a4, -(a7)
           0x0074c116      554f           subq.w 0x2, a7
           0x0074c118      48790086cb3f   pea.l 0x86cb3f
           0x0074c11e      4eb900475c00   jsr CONFIG.cfg_size_x4
           0x0074c124      584f           addq.w 0x4, a7
           0x0074c126      101f           move.b (a7)+, d0
           0x0074c128      4880           ext.w d0
           0x0074c12a      41bc0001       chk.w 0x1, d0
           0x0074c12e      13c00086cb3e   move.b d0, 0x86cb3e
           0x0074c134      594f           subq.w 0x4, a7
           0x0074c136      4eb9006336cc   jsr HANDCOM.get_hugeness_pt
           0x0074c13c      23d70086cb40   move.l (a7), 0x86cb40
           0x0074c142      4eb9006338d8   jsr HANDCOM.get_areas_ptr
           0x0074c148      23d70086cb44   move.l (a7), 0x86cb44
           0x0074c14e      4eb90047b70e   jsr CNTLCOM.get_pen_info_pt
           0x0074c154      23df0086cb48   move.l (a7)+, 0x86cb48
           0x0074c15a      33ee00080086.  move.w 0x8(a6), 0x86cb54.l
           0x0074c162      5d4f           subq.w 0x6, a7
           0x0074c164      204f           movea.l a7, a0
           0x0074c166      43facfad       lea.l 0x749115(pc), a1
           0x0074c16a      7005           moveq 0x5, d0
       > 0x0074c16c      10d9           move.b (a1)+, (a0)+
       < 0x0074c16e      51c8fffc       dbra d0, 0x74c16c
           0x0074c172      48790086cb56   pea.l 0x86cb56
           0x0074c178      3f3c0013       move.w 0x13, -(a7)
           0x0074c17c      3f3c0001       move.w 0x1, -(a7)
           0x0074c180      3f3c0005       move.w 0x5, -(a7)
           0x0074c184      3f3c0001       move.w 0x1, -(a7)
           0x0074c188      1f3c0005       move.b 0x5, -(a7)
           0x0074c18c      4227           clr.b -(a7)
           0x0074c18e      3f390086cb54   move.w 0x86cb54, -(a7)
           0x0074c194      4267           clr.w -(a7)
           0x0074c196      2f3acf5c       move.l 0x7490f4(pc), -(a7)
           0x0074c19a      486f0018       pea.l 0x18(a7)
           0x0074c19e      48780001       pea.l 0x1
           0x0074c1a2      48780006       pea.l 0x6
           0x0074c1a6      486d0010       pea.l 0x10(a5)
           0x0074c1aa      487af846       pea.l MENUFETTLECOM.hit_setup_do_al(pc)
           0x0074c1ae      4eb900487aa6   jsr MENUCOM.new_box
           0x0074c1b4      defc0028       adda.w 0x28, a7
           0x0074c1b8      2ebacf62       move.l 0x74911c(pc), (a7)
           0x0074c1bc      2f7acf620004   move.l 0x749120(pc), 0x4(a7)
           0x0074c1c2      1f7acf600008   move.b 0x749124(pc), 0x8(a7)
           0x0074c1c8      48790086cb58   pea.l 0x86cb58
           0x0074c1ce      3f3c0013       move.w 0x13, -(a7)
           0x0074c1d2      3f3c0002       move.w 0x2, -(a7)
           0x0074c1d6      3f3c0005       move.w 0x5, -(a7)
           0x0074c1da      3f3c0001       move.w 0x1, -(a7)
           0x0074c1de      1f3c0005       move.b 0x5, -(a7)
           0x0074c1e2      4227           clr.b -(a7)
           0x0074c1e4      3f390086cb54   move.w 0x86cb54, -(a7)
           0x0074c1ea      4267           clr.w -(a7)
           0x0074c1ec      2f3acf06       move.l 0x7490f4(pc), -(a7)
           0x0074c1f0      486f0018       pea.l 0x18(a7)
           0x0074c1f4      48780001       pea.l 0x1
           0x0074c1f8      48780009       pea.l 0x9
           0x0074c1fc      486d0010       pea.l 0x10(a5)
           0x0074c200      487af7f0       pea.l MENUFETTLECOM.hit_setup_do_al(pc)
           0x0074c204      4eb900487aa6   jsr MENUCOM.new_box
           0x0074c20a      defc0034       adda.w 0x34, a7
           0x0074c20e      3ebacf16       move.w 0x749126(pc), (a7)
           0x0074c212      3f3c005f       move.w 0x5f, -(a7)
           0x0074c216      4267           clr.w -(a7)
           0x0074c218      4267           clr.w -(a7)
           0x0074c21a      4267           clr.w -(a7)
           0x0074c21c      4267           clr.w -(a7)
           0x0074c21e      1f3c0002       move.b 0x2, -(a7)
           0x0074c222      4227           clr.b -(a7)
           0x0074c224      3f390086cb54   move.w 0x86cb54, -(a7)
           0x0074c22a      4267           clr.w -(a7)
           0x0074c22c      2f3acec6       move.l 0x7490f4(pc), -(a7)
           0x0074c230      486f0016       pea.l 0x16(a7)
           0x0074c234      48780001       pea.l 0x1
           0x0074c238      48780002       pea.l 0x2
           0x0074c23c      486d0010       pea.l 0x10(a5)
           0x0074c240      487900481fee   pea.l MENUCOM.hit_nothing
           0x0074c246      4eb900487686   jsr MENUCOM.def_box
           0x0074c24c      defc0024       adda.w 0x24, a7
           0x0074c250      204f           movea.l a7, a0
           0x0074c252      43faced5       lea.l 0x749129(pc), a1
           0x0074c256      7007           moveq 0x7, d0
       > 0x0074c258      10d9           move.b (a1)+, (a0)+
       < 0x0074c25a      51c8fffc       dbra d0, 0x74c258
           0x0074c25e      48790086cb5e   pea.l 0x86cb5e
           0x0074c264      3f3c000e       move.w 0xe, -(a7)
           0x0074c268      3f3c0001       move.w 0x1, -(a7)
           0x0074c26c      3f3c0003       move.w 0x3, -(a7)
           0x0074c270      3f3c0001       move.w 0x1, -(a7)
           0x0074c274      1f3c0002       move.b 0x2, -(a7)
           0x0074c278      4227           clr.b -(a7)
           0x0074c27a      3f3c005f       move.w 0x5f, -(a7)
           0x0074c27e      4267           clr.w -(a7)
           0x0074c280      2f3ace72       move.l 0x7490f4(pc), -(a7)
           0x0074c284      486f0018       pea.l 0x18(a7)
           0x0074c288      48780001       pea.l 0x1
           0x0074c28c      48780008       pea.l 0x8
           0x0074c290      486d0010       pea.l 0x10(a5)
           0x0074c294      487900481fee   pea.l MENUCOM.hit_nothing
           0x0074c29a      4eb900487aa6   jsr MENUCOM.new_box
           0x0074c2a0      defc0030       adda.w 0x30, a7
           0x0074c2a4      2ebace8e       move.l 0x749134(pc), (a7)
           0x0074c2a8      3f3ace88       move.w 0x749132(pc), -(a7)
           0x0074c2ac      48790086cb60   pea.l 0x86cb60
           0x0074c2b2      3f3c0011       move.w 0x11, -(a7)
           0x0074c2b6      3f3c0001       move.w 0x1, -(a7)
           0x0074c2ba      3f3c0003       move.w 0x3, -(a7)
           0x0074c2be      3f3c0001       move.w 0x1, -(a7)
           0x0074c2c2      1f3c0002       move.b 0x2, -(a7)
           0x0074c2c6      4227           clr.b -(a7)
           0x0074c2c8      3f3c005f       move.w 0x5f, -(a7)
           0x0074c2cc      3f390086cb5e   move.w 0x86cb5e, -(a7)
           0x0074c2d2      2f3ace20       move.l 0x7490f4(pc), -(a7)
           0x0074c2d6      486f0018       pea.l 0x18(a7)
           0x0074c2da      48780001       pea.l 0x1
           0x0074c2de      48780006       pea.l 0x6
           0x0074c2e2      486d0010       pea.l 0x10(a5)
           0x0074c2e6      487adba6       pea.l MENUFETTLECOM.hit_orig(pc)
           0x0074c2ea      4eb900487aa6   jsr MENUCOM.new_box
           0x0074c2f0      defc0028       adda.w 0x28, a7
           0x0074c2f4      204f           movea.l a7, a0
           0x0074c2f6      43face41       lea.l 0x749139(pc), a1
           0x0074c2fa      7009           moveq 0x9, d0
       > 0x0074c2fc      10d9           move.b (a1)+, (a0)+
       < 0x0074c2fe      51c8fffc       dbra d0, 0x74c2fc
           0x0074c302      48790086cb70   pea.l 0x86cb70
           0x0074c308      3f3c000e       move.w 0xe, -(a7)
           0x0074c30c      3f3c0002       move.w 0x2, -(a7)
           0x0074c310      3f3c0006       move.w 0x6, -(a7)
           0x0074c314      3f3c0001       move.w 0x1, -(a7)
           0x0074c318      1f3c0001       move.b 0x1, -(a7)
           0x0074c31c      4227           clr.b -(a7)
           0x0074c31e      3f3c005f       move.w 0x5f, -(a7)
           0x0074c322      4267           clr.w -(a7)
           0x0074c324      2f3acdce       move.l 0x7490f4(pc), -(a7)
           0x0074c328      486f0018       pea.l 0x18(a7)
           0x0074c32c      48780001       pea.l 0x1
           0x0074c330      4878000a       pea.l 0xa
           0x0074c334      486d0010       pea.l 0x10(a5)
           0x0074c338      487ae55a       pea.l MENUFETTLECOM.hit_fettle_valu(pc)
           0x0074c33c      4eb900487aa6   jsr MENUCOM.new_box
           0x0074c342      defc0034       adda.w 0x34, a7
           0x0074c346      3ebacdfc       move.w 0x749144(pc), (a7)
           0x0074c34a      48790086cb76   pea.l 0x86cb76
           0x0074c350      3f3c0014       move.w 0x14, -(a7)
           0x0074c354      3f3c0002       move.w 0x2, -(a7)
           0x0074c358      3f3c0006       move.w 0x6, -(a7)
           0x0074c35c      3f3c0001       move.w 0x1, -(a7)
           0x0074c360      1f3c0008       move.b 0x8, -(a7)
           0x0074c364      1f3c0002       move.b 0x2, -(a7)
           0x0074c368      3f390086cb70   move.w 0x86cb70, -(a7)
           0x0074c36e      4267           clr.w -(a7)
           0x0074c370      2f3acd82       move.l 0x7490f4(pc), -(a7)
           0x0074c374      486f0018       pea.l 0x18(a7)
           0x0074c378      48780001       pea.l 0x1
           0x0074c37c      48780002       pea.l 0x2
           0x0074c380      486d0010       pea.l 0x10(a5)
           0x0074c384      487ae50e       pea.l MENUFETTLECOM.hit_fettle_valu(pc)
           0x0074c388      4eb900487aa6   jsr MENUCOM.new_box
           0x0074c38e      defc002e       adda.w 0x2e, a7
           0x0074c392      7864           moveq 0x64, d4
           0x0074c394      4eb900408686   jsr fcn.00408686
           0x0074c39a      2f04           move.l d4, -(a7)
           0x0074c39c      7800           moveq 0x0, d4
           0x0074c39e      4eb900408686   jsr fcn.00408686
           0x0074c3a4      2f04           move.l d4, -(a7)
           0x0074c3a6      283c000000c8   move.l 0xc8, d4
           0x0074c3ac      4eb900408686   jsr fcn.00408686
           0x0074c3b2      3f390086cb76   move.w 0x86cb76, -(a7)
           0x0074c3b8      202f0006       move.l 0x6(a7), d0
           0x0074c3bc      2f00           move.l d0, -(a7)
           0x0074c3be      202f0006       move.l 0x6(a7), d0
           0x0074c3c2      2f00           move.l d0, -(a7)
           0x0074c3c4      2f04           move.l d4, -(a7)
           0x0074c3c6      4267           clr.w -(a7)
           0x0074c3c8      4267           clr.w -(a7)
           0x0074c3ca      4eb90048d4ae   jsr MENU2COM.make_numeric_bo
           0x0074c3d0      defc0010       adda.w 0x10, a7
           0x0074c3d4      3eb90086cb76   move.w 0x86cb76, (a7)
           0x0074c3da      9efc00fc       suba.w 0xfc, a7
           0x0074c3de      2f3acd66       move.l 0x749146(pc), -(a7)
           0x0074c3e2      2f7acd660004   move.l 0x74914a(pc), 0x4(a7)
           0x0074c3e8      3f7acd640008   move.w 0x74914e(pc), 0x8(a7)
           0x0074c3ee      1f7acd60000a   move.b 0x749150(pc), 0xa(a7)
           0x0074c3f4      4eb90048442e   jsr MENUCOM.set_box_macro_n
           0x0074c3fa      defc00fe       adda.w 0xfe, a7
           0x0074c3fe      2ebacd56       move.l 0x749156(pc), (a7)
           0x0074c402      2f3acd4e       move.l 0x749152(pc), -(a7)
           0x0074c406      48790086cb6e   pea.l 0x86cb6e
           0x0074c40c      3f3c000e       move.w 0xe, -(a7)
           0x0074c410      3f3c0003       move.w 0x3, -(a7)
           0x0074c414      3f3c0006       move.w 0x6, -(a7)
           0x0074c418      3f3c0001       move.w 0x1, -(a7)
           0x0074c41c      1f3c0001       move.b 0x1, -(a7)
           0x0074c420      4227           clr.b -(a7)
           0x0074c422      3f3c005f       move.w 0x5f, -(a7)
           0x0074c426      3f390086cb70   move.w 0x86cb70, -(a7)
           0x0074c42c      2f3accc6       move.l 0x7490f4(pc), -(a7)
           0x0074c430      486f0018       pea.l 0x18(a7)
           0x0074c434      48780001       pea.l 0x1
           0x0074c438      48780008       pea.l 0x8
           0x0074c43c      486d0010       pea.l 0x10(a5)
           0x0074c440      487ae452       pea.l MENUFETTLECOM.hit_fettle_valu(pc)
           0x0074c444      4eb900487aa6   jsr MENUCOM.new_box
           0x0074c44a      defc0032       adda.w 0x32, a7
           0x0074c44e      1ebacd0b       move.b 0x74915b(pc), (a7)
           0x0074c452      1f7acd080001   move.b 0x74915c(pc), 0x1(a7)
           0x0074c458      48790086cb78   pea.l 0x86cb78
           0x0074c45e      3f3c0014       move.w 0x14, -(a7)
           0x0074c462      3f3c0003       move.w 0x3, -(a7)
           0x0074c466      3f3c0006       move.w 0x6, -(a7)
           0x0074c46a      3f3c0001       move.w 0x1, -(a7)
           0x0074c46e      1f3c0008       move.b 0x8, -(a7)
           0x0074c472      1f3c0002       move.b 0x2, -(a7)
           0x0074c476      3f390086cb6e   move.w 0x86cb6e, -(a7)
           0x0074c47c      4267           clr.w -(a7)
           0x0074c47e      2f3acc74       move.l 0x7490f4(pc), -(a7)
           0x0074c482      486f0018       pea.l 0x18(a7)
           0x0074c486      48780001       pea.l 0x1
           0x0074c48a      48780002       pea.l 0x2
           0x0074c48e      486d0010       pea.l 0x10(a5)
           0x0074c492      487ae400       pea.l MENUFETTLECOM.hit_fettle_valu(pc)
           0x0074c496      4eb900487aa6   jsr MENUCOM.new_box
           0x0074c49c      defc002c       adda.w 0x2c, a7
           0x0074c4a0      3eb90086cb78   move.w 0x86cb78, (a7)
           0x0074c4a6      202f0006       move.l 0x6(a7), d0
           0x0074c4aa      2f00           move.l d0, -(a7)
           0x0074c4ac      202f0006       move.l 0x6(a7), d0
           0x0074c4b0      2f00           move.l d0, -(a7)
           0x0074c4b2      2f04           move.l d4, -(a7)
           0x0074c4b4      4267           clr.w -(a7)
           0x0074c4b6      4267           clr.w -(a7)
           0x0074c4b8      4eb90048d4ae   jsr MENU2COM.make_numeric_bo
           0x0074c4be      defc0010       adda.w 0x10, a7
           0x0074c4c2      3eb90086cb78   move.w 0x86cb78, (a7)
           0x0074c4c8      9efc0100       suba.w 0x100, a7
           0x0074c4cc      204f           movea.l a7, a0
           0x0074c4ce      43facc8d       lea.l 0x74915d(pc), a1
           0x0074c4d2      7008           moveq 0x8, d0
       > 0x0074c4d4      10d9           move.b (a1)+, (a0)+
       < 0x0074c4d6      51c8fffc       dbra d0, 0x74c4d4
           0x0074c4da      4eb90048442e   jsr MENUCOM.set_box_macro_n
           0x0074c4e0      defc00f6       adda.w 0xf6, a7
           0x0074c4e4      204f           movea.l a7, a0
           0x0074c4e6      43facc7f       lea.l 0x749167(pc), a1
           0x0074c4ea      700a           moveq 0xa, d0
       > 0x0074c4ec      10d9           move.b (a1)+, (a0)+
       < 0x0074c4ee      51c8fffc       dbra d0, 0x74c4ec
           0x0074c4f2      48790086cb7a   pea.l 0x86cb7a
           0x0074c4f8      3f3c0014       move.w 0x14, -(a7)
           0x0074c4fc      3f3c0002       move.w 0x2, -(a7)
           0x0074c500      3f3c0006       move.w 0x6, -(a7)
           0x0074c504      3f3c0001       move.w 0x1, -(a7)
           0x0074c508      1f3c0008       move.b 0x8, -(a7)
           0x0074c50c      1f3c0002       move.b 0x2, -(a7)
           0x0074c510      3f390086cb6e   move.w 0x86cb6e, -(a7)
           0x0074c516      3f390086cb78   move.w 0x86cb78, -(a7)
           0x0074c51c      2f3acbd6       move.l 0x7490f4(pc), -(a7)
           0x0074c520      486f0018       pea.l 0x18(a7)
           0x0074c524      48780001       pea.l 0x1
           0x0074c528      4878000b       pea.l 0xb
           0x0074c52c      486d0010       pea.l 0x10(a5)
           0x0074c530      487ae362       pea.l MENUFETTLECOM.hit_fettle_valu(pc)
           0x0074c534      4eb900487aa6   jsr MENUCOM.new_box
           0x0074c53a      defc0036       adda.w 0x36, a7
           0x0074c53e      3eb90086cb7a   move.w 0x86cb7a, (a7)
           0x0074c544      202f0002       move.l 0x2(a7), d0
           0x0074c548      2f00           move.l d0, -(a7)
           0x0074c54a      78f6           moveq 0xf6, d4
           0x0074c54c      4eb900408686   jsr fcn.00408686
           0x0074c552      2f04           move.l d4, -(a7)
           0x0074c554      780a           moveq 0xa, d4
           0x0074c556      4eb900408686   jsr fcn.00408686
           0x0074c55c      2f04           move.l d4, -(a7)
           0x0074c55e      4267           clr.w -(a7)
           0x0074c560      4267           clr.w -(a7)
           0x0074c562      4eb90048d4ae   jsr MENU2COM.make_numeric_bo
           0x0074c568      defc0012       adda.w 0x12, a7
           0x0074c56c      204f           movea.l a7, a0
           0x0074c56e      43facc03       lea.l 0x749173(pc), a1
           0x0074c572      7006           moveq 0x6, d0
       > 0x0074c574      10d9           move.b (a1)+, (a0)+
       < 0x0074c576      51c8fffc       dbra d0, 0x74c574
           0x0074c57a      48790086cb7c   pea.l 0x86cb7c
           0x0074c580      3f3c0014       move.w 0x14, -(a7)
           0x0074c584      3f3c0004       move.w 0x4, -(a7)
           0x0074c588      3f3c0006       move.w 0x6, -(a7)
           0x0074c58c      3f3c0001       move.w 0x1, -(a7)
           0x0074c590      1f3c0008       move.b 0x8, -(a7)
           0x0074c594      1f3c0002       move.b 0x2, -(a7)
           0x0074c598      3f390086cb6e   move.w 0x86cb6e, -(a7)
           0x0074c59e      3f390086cb7a   move.w 0x86cb7a, -(a7)
           0x0074c5a4      2f3acb4e       move.l 0x7490f4(pc), -(a7)
           0x0074c5a8      486f0018       pea.l 0x18(a7)
           0x0074c5ac      48780001       pea.l 0x1
           0x0074c5b0      48780007       pea.l 0x7
           0x0074c5b4      486d0010       pea.l 0x10(a5)
           0x0074c5b8      487ae2da       pea.l MENUFETTLECOM.hit_fettle_valu(pc)
           0x0074c5bc      4eb900487aa6   jsr MENUCOM.new_box
           0x0074c5c2      defc0032       adda.w 0x32, a7
           0x0074c5c6      3eb90086cb7c   move.w 0x86cb7c, (a7)
           0x0074c5cc      7801           moveq 0x1, d4
           0x0074c5ce      4eb900408686   jsr fcn.00408686
           0x0074c5d4      2f04           move.l d4, -(a7)
           0x0074c5d6      2f3c3dcccccd   move.l 0x3dcccccd, -(a7)
           0x0074c5dc      7805           moveq 0x5, d4
           0x0074c5de      4eb900408686   jsr fcn.00408686
           0x0074c5e4      2f04           move.l d4, -(a7)
           0x0074c5e6      3f3c0001       move.w 0x1, -(a7)
           0x0074c5ea      3f3c0002       move.w 0x2, -(a7)
           0x0074c5ee      4eb90048d4ae   jsr MENU2COM.make_numeric_bo
           0x0074c5f4      defc000e       adda.w 0xe, a7
           0x0074c5f8      1ebacb81       move.b 0x74917b(pc), (a7)
           0x0074c5fc      1f7acb7e0001   move.b 0x74917c(pc), 0x1(a7)
           0x0074c602      1f7acb790002   move.b 0x74917d(pc), 0x2(a7)
           0x0074c608      1f7acb740003   move.b 0x74917e(pc), 0x3(a7)
           0x0074c60e      48790086cb74   pea.l 0x86cb74
           0x0074c614      3f3c000e       move.w 0xe, -(a7)
           0x0074c618      3f3c0004       move.w 0x4, -(a7)
           0x0074c61c      3f3c0003       move.w 0x3, -(a7)
           0x0074c620      3f3c0001       move.w 0x1, -(a7)
           0x0074c624      1f3c0001       move.b 0x1, -(a7)
           0x0074c628      4227           clr.b -(a7)
           0x0074c62a      3f3c005f       move.w 0x5f, -(a7)
           0x0074c62e      3f390086cb6e   move.w 0x86cb6e, -(a7)
           0x0074c634      2f3acabe       move.l 0x7490f4(pc), -(a7)
           0x0074c638      486f0018       pea.l 0x18(a7)
           0x0074c63c      48780001       pea.l 0x1
           0x0074c640      48780004       pea.l 0x4
           0x0074c644      486d0010       pea.l 0x10(a5)
           0x0074c648      487ae24a       pea.l MENUFETTLECOM.hit_fettle_valu(pc)
           0x0074c64c      4eb900487aa6   jsr MENUCOM.new_box
           0x0074c652      defc0030       adda.w 0x30, a7
           0x0074c656      7c00           moveq 0x0, d6
           0x0074c658      7800           moveq 0x0, d4
           0x0074c65a      4eb900408686   jsr fcn.00408686
           0x0074c660      2f04           move.l d4, -(a7)
           0x0074c662      789c           moveq 0x9c, d4
           0x0074c664      4eb900408686   jsr fcn.00408686
           0x0074c66a      2f04           move.l d4, -(a7)
           0x0074c66c      7864           moveq 0x64, d4
           0x0074c66e      4eb900408686   jsr fcn.00408686
           0x0074c674      7000           moveq 0x0, d0
       > 0x0074c676      1d40fefd       move.b d0, -0x103(a6)
          0x0074c67a      4880           ext.w d0
          0x0074c67c      3200           move.w d0, d1
          0x0074c67e      e341           asl.w 0x1, d1
          0x0074c680      41f90086cb3e   lea.l 0x86cb3e, a0
          0x0074c686      4880           ext.w d0
          0x0074c688      3400           move.w d0, d2
          0x0074c68a      e142           asl.w 0x8, d2
          0x0074c68c      43fac766       lea.l 0x748df4(pc), a1
          0x0074c690      9efc0100       suba.w 0x100, a7
          0x0074c694      244f           movea.l a7, a2
          0x0074c696      43f12000       lea.l (a1, d2.w), a1
          0x0074c69a      743f           moveq 0x3f, d2
      > 0x0074c69c      24d9           move.l (a1)+, (a2)+
      < 0x0074c69e      51cafffc       dbra d2, 0x74c69c
          0x0074c6a2      48701050       pea.l 0x50(a0, d1.w)
          0x0074c6a6      3f3c0014       move.w 0x14, -(a7)
          0x0074c6aa      4880           ext.w d0
          0x0074c6ac      3f3c0002       move.w 0x2, -(a7)
          0x0074c6b0      d157           add.w d0, (a7)
          0x0074c6b2      3f3c0006       move.w 0x6, -(a7)
          0x0074c6b6      3f3c0001       move.w 0x1, -(a7)
          0x0074c6ba      1f3c0008       move.b 0x8, -(a7)
          0x0074c6be      1f3c0002       move.b 0x2, -(a7)
          0x0074c6c2      3f390086cb74   move.w 0x86cb74, -(a7)
          0x0074c6c8      3f06           move.w d6, -(a7)
          0x0074c6ca      2f3aca28       move.l 0x7490f4(pc), -(a7)
          0x0074c6ce      486f0018       pea.l 0x18(a7)
          0x0074c6d2      48780000       pea.l 0x0
          0x0074c6d6      487800ff       pea.l 0xff
          0x0074c6da      486d0010       pea.l 0x10(a5)
          0x0074c6de      487ae1b4       pea.l MENUFETTLECOM.hit_fettle_valu(pc)
          0x0074c6e2      4eb900487aa6   jsr MENUCOM.new_box
          0x0074c6e8      defc012a       adda.w 0x12a, a7
          0x0074c6ec      3eb01050       move.w 0x50(a0, d1.w), (a7)
          0x0074c6f0      242f0006       move.l 0x6(a7), d2
          0x0074c6f4      2f02           move.l d2, -(a7)
          0x0074c6f6      242f0006       move.l 0x6(a7), d2
          0x0074c6fa      2f02           move.l d2, -(a7)
          0x0074c6fc      2f04           move.l d4, -(a7)
          0x0074c6fe      4267           clr.w -(a7)
          0x0074c700      4267           clr.w -(a7)
          0x0074c702      4eb90048d4ae   jsr MENU2COM.make_numeric_bo
          0x0074c708      defc0012       adda.w 0x12, a7
          0x0074c70c      3c301050       move.w 0x50(a0, d1.w), d6
          0x0074c710      5200           addq.b 0x1, d0
          0x0074c712      0c000002       cmpi.b 0x2, d0
       < 0x0074c716      6f00ff5e       ble.w 0x74c676
           0x0074c71a      584f           addq.w 0x4, a7
           0x0074c71c      3ebaca62       move.w 0x749180(pc), (a7)
           0x0074c720      1f7aca600002   move.b 0x749182(pc), 0x2(a7)
           0x0074c726      48790086cb72   pea.l 0x86cb72
           0x0074c72c      3f3c0011       move.w 0x11, -(a7)
           0x0074c730      3f3c0004       move.w 0x4, -(a7)
           0x0074c734      3f3c0003       move.w 0x3, -(a7)
           0x0074c738      3f3c0001       move.w 0x1, -(a7)
           0x0074c73c      1f3c0001       move.b 0x1, -(a7)
           0x0074c740      4227           clr.b -(a7)
           0x0074c742      3f3c005f       move.w 0x5f, -(a7)
           0x0074c746      3f390086cb74   move.w 0x86cb74, -(a7)
           0x0074c74c      2f3ac9a6       move.l 0x7490f4(pc), -(a7)
           0x0074c750      486f0018       pea.l 0x18(a7)
           0x0074c754      48780001       pea.l 0x1
           0x0074c758      48780003       pea.l 0x3
           0x0074c75c      486d0010       pea.l 0x10(a5)
           0x0074c760      487ae132       pea.l MENUFETTLECOM.hit_fettle_valu(pc)
           0x0074c764      4eb900487aa6   jsr MENUCOM.new_box
           0x0074c76a      defc0030       adda.w 0x30, a7
           0x0074c76e      7a00           moveq 0x0, d5
           0x0074c770      7c00           moveq 0x0, d6
           0x0074c772      7864           moveq 0x64, d4
           0x0074c774      4eb900408686   jsr fcn.00408686
           0x0074c77a      2f04           move.l d4, -(a7)
           0x0074c77c      7800           moveq 0x0, d4
           0x0074c77e      4eb900408686   jsr fcn.00408686
           0x0074c784      2f04           move.l d4, -(a7)
           0x0074c786      283c000000c8   move.l 0xc8, d4
           0x0074c78c      4eb900408686   jsr fcn.00408686
           0x0074c792      2f04           move.l d4, -(a7)
           0x0074c794      7000           moveq 0x0, d0
       > 0x0074c796      1d40fefe       move.b d0, -0x102(a6)
          0x0074c79a      4880           ext.w d0
          0x0074c79c      3200           move.w d0, d1
          0x0074c79e      e341           asl.w 0x1, d1
          0x0074c7a0      41f90086cb3e   lea.l 0x86cb3e, a0
          0x0074c7a6      4880           ext.w d0
          0x0074c7a8      7402           moveq 0x2, d2
          0x0074c7aa      d440           add.w d0, d2
          0x0074c7ac      4880           ext.w d0
          0x0074c7ae      3600           move.w d0, d3
          0x0074c7b0      e143           asl.w 0x8, d3
          0x0074c7b2      3f03           move.w d3, -(a7)
          0x0074c7b4      43fac23e       lea.l 0x7489f4(pc), a1
          0x0074c7b8      9efc0100       suba.w 0x100, a7
          0x0074c7bc      244f           movea.l a7, a2
          0x0074c7be      43f13000       lea.l (a1, d3.w), a1
          0x0074c7c2      763f           moveq 0x3f, d3
      > 0x0074c7c4      24d9           move.l (a1)+, (a2)+
      < 0x0074c7c6      51cbfffc       dbra d3, 0x74c7c4
          0x0074c7ca      48701040       pea.l 0x40(a0, d1.w)
          0x0074c7ce      3f3c0014       move.w 0x14, -(a7)
          0x0074c7d2      3f02           move.w d2, -(a7)
          0x0074c7d4      3f3c0003       move.w 0x3, -(a7)
          0x0074c7d8      3f3c0001       move.w 0x1, -(a7)
          0x0074c7dc      1f3c0003       move.b 0x3, -(a7)
          0x0074c7e0      4227           clr.b -(a7)
          0x0074c7e2      3f390086cb72   move.w 0x86cb72, -(a7)
          0x0074c7e8      3f05           move.w d5, -(a7)
          0x0074c7ea      2f3ac908       move.l 0x7490f4(pc), -(a7)
          0x0074c7ee      486f0018       pea.l 0x18(a7)
          0x0074c7f2      48780000       pea.l 0x0
          0x0074c7f6      487800ff       pea.l 0xff
          0x0074c7fa      486d0010       pea.l 0x10(a5)
          0x0074c7fe      487ae094       pea.l MENUFETTLECOM.hit_fettle_valu(pc)
          0x0074c802      4eb900487aa6   jsr MENUCOM.new_box
          0x0074c808      defc012a       adda.w 0x12a, a7
          0x0074c80c      3eb01040       move.w 0x40(a0, d1.w), (a7)
          0x0074c810      1f3c0001       move.b 0x1, -(a7)
          0x0074c814      4eb900483776   jsr MENUCOM.swtch_box
          0x0074c81a      584f           addq.w 0x4, a7
          0x0074c81c      3a301040       move.w 0x40(a0, d1.w), d5
          0x0074c820      3f3ac962       move.w 0x749184(pc), -(a7)
          0x0074c824      48701048       pea.l 0x48(a0, d1.w)
          0x0074c828      3f3c0017       move.w 0x17, -(a7)
          0x0074c82c      3f02           move.w d2, -(a7)
          0x0074c82e      3f3c0004       move.w 0x4, -(a7)
          0x0074c832      3f3c0001       move.w 0x1, -(a7)
          0x0074c836      1f3c0008       move.b 0x8, -(a7)
          0x0074c83a      1f3c0002       move.b 0x2, -(a7)
          0x0074c83e      3f390086cb72   move.w 0x86cb72, -(a7)
          0x0074c844      3f06           move.w d6, -(a7)
          0x0074c846      2f3ac8ac       move.l 0x7490f4(pc), -(a7)
          0x0074c84a      486f0018       pea.l 0x18(a7)
          0x0074c84e      48780001       pea.l 0x1
          0x0074c852      48780002       pea.l 0x2
          0x0074c856      486d0010       pea.l 0x10(a5)
          0x0074c85a      487ae038       pea.l MENUFETTLECOM.hit_fettle_valu(pc)
          0x0074c85e      4eb900487aa6   jsr MENUCOM.new_box
          0x0074c864      defc002c       adda.w 0x2c, a7
          0x0074c868      3eb01048       move.w 0x48(a0, d1.w), (a7)
          0x0074c86c      242f000c       move.l 0xc(a7), d2
          0x0074c870      2f02           move.l d2, -(a7)
          0x0074c872      242f000c       move.l 0xc(a7), d2
          0x0074c876      2f02           move.l d2, -(a7)
          0x0074c878      2f04           move.l d4, -(a7)
          0x0074c87a      4267           clr.w -(a7)
          0x0074c87c      4267           clr.w -(a7)
          0x0074c87e      4eb90048d4ae   jsr MENU2COM.make_numeric_bo
          0x0074c884      defc0012       adda.w 0x12, a7
          0x0074c888      3417           move.w (a7), d2
          0x0074c88a      43fac168       lea.l 0x7489f4(pc), a1
          0x0074c88e      3f02           move.w d2, -(a7)
          0x0074c890      2f09           move.l a1, -(a7)
          0x0074c892      7403           moveq 0x3, d2
          0x0074c894      43eeff00       lea.l -0x100(a6), a1
          0x0074c898      45fac8ed       lea.l 0x749187(pc), a2
      > 0x0074c89c      12da           move.b (a2)+, (a1)+
      < 0x0074c89e      51cafffc       dbra d2, 0x74c89c
          0x0074c8a2      245f           movea.l (a7)+, a2
          0x0074c8a4      341f           move.w (a7)+, d2
          0x0074c8a6      4243           clr.w d3
          0x0074c8a8      16322000       move.b (a2, d2.w), d3
          0x0074c8ac      5803           addq.b 0x4, d3
      < 0x0074c8ae      6406           bcc.b 0x74c8b6
         0x0074c8b0      4eb900406c8a   jsr p_strovr
      > 0x0074c8b6      4243           clr.w d3
          0x0074c8b8      16322000       move.b (a2, d2.w), d3
          0x0074c8bc      383c00ff       move.w 0xff, d4
          0x0074c8c0      5944           subq.w 0x4, d4
          0x0074c8c2      b644           cmp.w d4, d3
      < 0x0074c8c4      6302           bls.b 0x74c8c8
         0x0074c8c6      3604           move.w d4, d3
      > 0x0074c8c8      1d7c0004feff   move.b 0x4, -0x101(a6)
          0x0074c8ce      d72efeff       add.b d3, -0x101(a6)
          0x0074c8d2      5303           subq.b 0x1, d3
      < 0x0074c8d4      650a           bcs.b 0x74c8e0
         0x0074c8d6      47f22001       lea.l 0x1(a2, d2.w), a3
     > 0x0074c8da      12db           move.b (a3)+, (a1)+
     < 0x0074c8dc      51cbfffc       dbra d3, 0x74c8da
      > 0x0074c8e0      3f301048       move.w 0x48(a0, d1.w), -(a7)
          0x0074c8e4      9efc0100       suba.w 0x100, a7
          0x0074c8e8      224f           movea.l a7, a1
          0x0074c8ea      45eefeff       lea.l -0x101(a6), a2
          0x0074c8ee      343c00ff       move.w 0xff, d2
      > 0x0074c8f2      12da           move.b (a2)+, (a1)+
      < 0x0074c8f4      51cafffc       dbra d2, 0x74c8f2
          0x0074c8f8      4eb90048442e   jsr MENUCOM.set_box_macro_n
          0x0074c8fe      defc0102       adda.w 0x102, a7
          0x0074c902      3c301048       move.w 0x48(a0, d1.w), d6
          0x0074c906      544f           addq.w 0x2, a7
          0x0074c908      2817           move.l (a7), d4
          0x0074c90a      5200           addq.b 0x1, d0
          0x0074c90c      0c000003       cmpi.b 0x3, d0
       < 0x0074c910      6f00fe84       ble.w 0x74c796
           0x0074c914      5c4f           addq.w 0x6, a7
           0x0074c916      2ebac874       move.l 0x74918c(pc), (a7)
           0x0074c91a      1f7ac8740004   move.b 0x749190(pc), 0x4(a7)
           0x0074c920      3f3c0065       move.w 0x65, -(a7)
           0x0074c924      3f3c000e       move.w 0xe, -(a7)
           0x0074c928      3f3c0005       move.w 0x5, -(a7)
           0x0074c92c      3f3c0003       move.w 0x3, -(a7)
           0x0074c930      3f3c0001       move.w 0x1, -(a7)
           0x0074c934      1f3c0002       move.b 0x2, -(a7)
           0x0074c938      4227           clr.b -(a7)
           0x0074c93a      3f3c005f       move.w 0x5f, -(a7)
           0x0074c93e      4267           clr.w -(a7)
           0x0074c940      2f3ac7b2       move.l 0x7490f4(pc), -(a7)
           0x0074c944      486f0016       pea.l 0x16(a7)
           0x0074c948      48780001       pea.l 0x1
           0x0074c94c      48780005       pea.l 0x5
           0x0074c950      486d0010       pea.l 0x10(a5)
           0x0074c954      487af2f2       pea.l MENUFETTLECOM.hit_fettle(pc)
           0x0074c958      4eb900487686   jsr MENUCOM.def_box
           0x0074c95e      defc002c       adda.w 0x2c, a7
           0x0074c962      2ebac82e       move.l 0x749192(pc), (a7)
           0x0074c966      48790086cb94   pea.l 0x86cb94
           0x0074c96c      3f3c0011       move.w 0x11, -(a7)
           0x0074c970      3f3c0005       move.w 0x5, -(a7)
           0x0074c974      3f3c0003       move.w 0x3, -(a7)
           0x0074c978      3f3c0001       move.w 0x1, -(a7)
           0x0074c97c      1f3c0005       move.b 0x5, -(a7)
           0x0074c980      4227           clr.b -(a7)
           0x0074c982      3f3c005f       move.w 0x5f, -(a7)
           0x0074c986      4267           clr.w -(a7)
           0x0074c988      2f3ac76a       move.l 0x7490f4(pc), -(a7)
           0x0074c98c      486f0018       pea.l 0x18(a7)
           0x0074c990      48780001       pea.l 0x1
           0x0074c994      48780004       pea.l 0x4
           0x0074c998      486d0010       pea.l 0x10(a5)
           0x0074c99c      487af2aa       pea.l MENUFETTLECOM.hit_fettle(pc)
           0x0074c9a0      4eb900487aa6   jsr MENUCOM.new_box
           0x0074c9a6      defc002c       adda.w 0x2c, a7
           0x0074c9aa      1ebac7eb       move.b 0x749197(pc), (a7)
           0x0074c9ae      1f7ac7e80001   move.b 0x749198(pc), 0x1(a7)
           0x0074c9b4      1f7ac7e30002   move.b 0x749199(pc), 0x2(a7)
           0x0074c9ba      48790086cb6a   pea.l 0x86cb6a
           0x0074c9c0      3f3c0014       move.w 0x14, -(a7)
           0x0074c9c4      3f3c0001       move.w 0x1, -(a7)
           0x0074c9c8      3f3c0002       move.w 0x2, -(a7)
           0x0074c9cc      3f3c0001       move.w 0x1, -(a7)
           0x0074c9d0      1f3c0001       move.b 0x1, -(a7)
           0x0074c9d4      4227           clr.b -(a7)
           0x0074c9d6      3f3c005f       move.w 0x5f, -(a7)
           0x0074c9da      3f390086cb74   move.w 0x86cb74, -(a7)
           0x0074c9e0      2f3ac712       move.l 0x7490f4(pc), -(a7)
           0x0074c9e4      486f0018       pea.l 0x18(a7)
           0x0074c9e8      48780001       pea.l 0x1
           0x0074c9ec      48780003       pea.l 0x3
           0x0074c9f0      486d0010       pea.l 0x10(a5)
           0x0074c9f4      487ade9e       pea.l MENUFETTLECOM.hit_fettle_valu(pc)
           0x0074c9f8      4eb900487aa6   jsr MENUCOM.new_box
           0x0074c9fe      defc002e       adda.w 0x2e, a7
           0x0074ca02      3eb90086cb6a   move.w 0x86cb6a, (a7)
           0x0074ca08      4eb900481d90   jsr MENUCOM.swtch_on_box
           0x0074ca0e      5d4f           subq.w 0x6, a7
           0x0074ca10      204f           movea.l a7, a0
           0x0074ca12      43fac787       lea.l 0x74919b(pc), a1
           0x0074ca16      7006           moveq 0x6, d0
       > 0x0074ca18      10d9           move.b (a1)+, (a0)+
       < 0x0074ca1a      51c8fffc       dbra d0, 0x74ca18
           0x0074ca1e      48790086cb64   pea.l 0x86cb64
           0x0074ca24      3f3c0016       move.w 0x16, -(a7)
           0x0074ca28      3f3c0001       move.w 0x1, -(a7)
           0x0074ca2c      3f3c0002       move.w 0x2, -(a7)
           0x0074ca30      3f3c0001       move.w 0x1, -(a7)
           0x0074ca34      1f3c0001       move.b 0x1, -(a7)
           0x0074ca38      4227           clr.b -(a7)
           0x0074ca3a      3f3c005f       move.w 0x5f, -(a7)
           0x0074ca3e      3f390086cb6a   move.w 0x86cb6a, -(a7)
           0x0074ca44      2f3ac6ae       move.l 0x7490f4(pc), -(a7)
           0x0074ca48      486f0018       pea.l 0x18(a7)
           0x0074ca4c      48780001       pea.l 0x1
           0x0074ca50      48780007       pea.l 0x7
           0x0074ca54      486d0010       pea.l 0x10(a5)
           0x0074ca58      487ade3a       pea.l MENUFETTLECOM.hit_fettle_valu(pc)
           0x0074ca5c      4eb900487aa6   jsr MENUCOM.new_box
           0x0074ca62      defc0030       adda.w 0x30, a7
           0x0074ca66      1ebac73b       move.b 0x7491a3(pc), (a7)
           0x0074ca6a      1f7ac7380001   move.b 0x7491a4(pc), 0x1(a7)
           0x0074ca70      1f7ac7330002   move.b 0x7491a5(pc), 0x2(a7)
           0x0074ca76      1f7ac72e0003   move.b 0x7491a6(pc), 0x3(a7)
           0x0074ca7c      48790086cb66   pea.l 0x86cb66
           0x0074ca82      3f3c0018       move.w 0x18, -(a7)
           0x0074ca86      3f3c0001       move.w 0x1, -(a7)
           0x0074ca8a      3f3c0002       move.w 0x2, -(a7)
           0x0074ca8e      3f3c0001       move.w 0x1, -(a7)
           0x0074ca92      1f3c0001       move.b 0x1, -(a7)
           0x0074ca96      4227           clr.b -(a7)
           0x0074ca98      3f3c005f       move.w 0x5f, -(a7)
           0x0074ca9c      3f390086cb64   move.w 0x86cb64, -(a7)
           0x0074caa2      2f3ac650       move.l 0x7490f4(pc), -(a7)
           0x0074caa6      486f0018       pea.l 0x18(a7)
           0x0074caaa      48780001       pea.l 0x1
           0x0074caae      48780004       pea.l 0x4
           0x0074cab2      486d0010       pea.l 0x10(a5)
           0x0074cab6      487adddc       pea.l MENUFETTLECOM.hit_fettle_valu(pc)
           0x0074caba      4eb900487aa6   jsr MENUCOM.new_box
           0x0074cac0      defc002c       adda.w 0x2c, a7
           0x0074cac4      2ebac6e2       move.l 0x7491a8(pc), (a7)
           0x0074cac8      48790086cb68   pea.l 0x86cb68
           0x0074cace      3f3c001a       move.w 0x1a, -(a7)
           0x0074cad2      3f3c0001       move.w 0x1, -(a7)
           0x0074cad6      3f3c0002       move.w 0x2, -(a7)
           0x0074cada      3f3c0001       move.w 0x1, -(a7)
           0x0074cade      1f3c0001       move.b 0x1, -(a7)
           0x0074cae2      4227           clr.b -(a7)
           0x0074cae4      3f3c005f       move.w 0x5f, -(a7)
           0x0074cae8      3f390086cb66   move.w 0x86cb66, -(a7)
           0x0074caee      2f3ac604       move.l 0x7490f4(pc), -(a7)
           0x0074caf2      486f0018       pea.l 0x18(a7)
           0x0074caf6      48780001       pea.l 0x1
           0x0074cafa      48780004       pea.l 0x4
           0x0074cafe      486d0010       pea.l 0x10(a5)
           0x0074cb02      487add90       pea.l MENUFETTLECOM.hit_fettle_valu(pc)
           0x0074cb06      4eb900487aa6   jsr MENUCOM.new_box
           0x0074cb0c      defc002e       adda.w 0x2e, a7
           0x0074cb10      1ebac69b       move.b 0x7491ad(pc), (a7)
           0x0074cb14      1f7ac6980001   move.b 0x7491ae(pc), 0x1(a7)
           0x0074cb1a      48790086cb5a   pea.l 0x86cb5a
           0x0074cb20      3f3c0014       move.w 0x14, -(a7)
           0x0074cb24      3f3c0002       move.w 0x2, -(a7)
           0x0074cb28      3f3c0008       move.w 0x8, -(a7)
           0x0074cb2c      3f3c0004       move.w 0x4, -(a7)
           0x0074cb30      1f3c0010       move.b 0x10, -(a7)
           0x0074cb34      1f3c0001       move.b 0x1, -(a7)
           0x0074cb38      3f390086cb6a   move.w 0x86cb6a, -(a7)
           0x0074cb3e      4267           clr.w -(a7)
           0x0074cb40      2f3ac5b2       move.l 0x7490f4(pc), -(a7)
           0x0074cb44      486f0018       pea.l 0x18(a7)
           0x0074cb48      48780001       pea.l 0x1
           0x0074cb4c      48780002       pea.l 0x2
           0x0074cb50      486d0010       pea.l 0x10(a5)
           0x0074cb54      487ada70       pea.l MENUFETTLECOM.hit_fettle_grap(pc)
           0x0074cb58      4eb900487aa6   jsr MENUCOM.new_box
           0x0074cb5e      defc002c       adda.w 0x2c, a7
           0x0074cb62      3eb90086cb5a   move.w 0x86cb5a, (a7)
           0x0074cb68      9efc0100       suba.w 0x100, a7
           0x0074cb6c      204f           movea.l a7, a0
           0x0074cb6e      43fac63f       lea.l 0x7491af(pc), a1
           0x0074cb72      700c           moveq 0xc, d0
       > 0x0074cb74      10d9           move.b (a1)+, (a0)+
       < 0x0074cb76      51c8fffc       dbra d0, 0x74cb74
           0x0074cb7a      4eb90048442e   jsr MENUCOM.set_box_macro_n
           0x0074cb80      defc0100       adda.w 0x100, a7
           0x0074cb84      3eb90086cb64   move.w 0x86cb64, (a7)
           0x0074cb8a      3f390086cb5a   move.w 0x86cb5a, -(a7)
           0x0074cb90      4eb900486f94   jsr MENUCOM.add_slave
           0x0074cb96      544f           addq.w 0x2, a7
           0x0074cb98      3eb90086cb66   move.w 0x86cb66, (a7)
           0x0074cb9e      3f390086cb5a   move.w 0x86cb5a, -(a7)
           0x0074cba4      4eb900486f94   jsr MENUCOM.add_slave
           0x0074cbaa      544f           addq.w 0x2, a7
           0x0074cbac      3eb90086cb68   move.w 0x86cb68, (a7)
           0x0074cbb2      3f390086cb5a   move.w 0x86cb5a, -(a7)
           0x0074cbb8      4eb900486f94   jsr MENUCOM.add_slave
           0x0074cbbe      584f           addq.w 0x4, a7
           0x0074cbc0      7e01           moveq 0x1, d7
       > 0x0074cbc2      48c7           ext.l d7
          0x0074cbc4      2007           move.l d7, d0
          0x0074cbc6      5380           subq.l 0x1, d0
          0x0074cbc8      0c8000000003   cmpi.l 0x3, d0
      < 0x0074cbce      6302           bls.b 0x74cbd2
         0x0074cbd0      4e4f           trap 0xf
      > 0x0074cbd2      e580           asl.l 0x2, d0
          0x0074cbd4      41f90086cb3e   lea.l 0x86cb3e, a0
          0x0074cbda      41f00800       lea.l (a0, d0.l), a0
          0x0074cbde      217c00000001.  move.l 0x1, 0x72c(a0)
          0x0074cbe6      5247           addq.w 0x1, d7
          0x0074cbe8      0c470004       cmpi.w 0x4, d7
       < 0x0074cbec      6fd4           ble.b 0x74cbc2
           0x0074cbee      7e00           moveq 0x0, d7
       > 0x0074cbf0      4fbc00ff       chk.w 0xff, d7
          0x0074cbf4      48c7           ext.l d7
          0x0074cbf6      2007           move.l d7, d0
          0x0074cbf8      e380           asl.l 0x1, d0
          0x0074cbfa      41f90086cb3e   lea.l 0x86cb3e, a0
          0x0074cc00      41f00800       lea.l (a0, d0.l), a0
          0x0074cc04      4fbc00ff       chk.w 0xff, d7
          0x0074cc08      31470528       move.w d7, 0x528(a0)
          0x0074cc0c      5247           addq.w 0x1, d7
          0x0074cc0e      0c4700ff       cmpi.w 0xff, d7
       < 0x0074cc12      6fdc           ble.b 0x74cbf0
           0x0074cc14      7000           moveq 0x0, d0
       > 0x0074cc16      1d40fefc       move.b d0, -0x104(a6)
          0x0074cc1a      4880           ext.w d0
          0x0074cc1c      41f90086cb3e   lea.l 0x86cb3e, a0
          0x0074cc22      41f00000       lea.l (a0, d0.w), a0
          0x0074cc26      42280728       clr.b 0x728(a0)
          0x0074cc2a      4880           ext.w d0
          0x0074cc2c      7234           moveq 0x34, d1
          0x0074cc2e      c3c0           muls.w d0, d1
          0x0074cc30      41f90086cb3e   lea.l 0x86cb3e, a0
          0x0074cc36      7e00           moveq 0x0, d7
      > 0x0074cc38      48c7           ext.l d7
         0x0074cc3a      2407           move.l d7, d2
         0x0074cc3c      5282           addq.l 0x1, d2
         0x0074cc3e      0c820000000c   cmpi.l 0xc, d2
     < 0x0074cc44      6302           bls.b 0x74cc48
        0x0074cc46      4e4f           trap 0xf
     > 0x0074cc48      e582           asl.l 0x2, d2
         0x0074cc4a      43f01000       lea.l (a0, d1.w), a1
         0x0074cc4e      43f12800       lea.l (a1, d2.l), a1
         0x0074cc52      48c7           ext.l d7
         0x0074cc54      2807           move.l d7, d4
         0x0074cc56      4eb900408686   jsr fcn.00408686
         0x0074cc5c      263c41cc0000   move.l 0x41cc0000, d3
         0x0074cc62      4eb900407e92   jsr fcn.00407e92
         0x0074cc68      23440458       move.l d4, 0x458(a1)
         0x0074cc6c      5247           addq.w 0x1, d7
         0x0074cc6e      0c47000a       cmpi.w 0xa, d7
      < 0x0074cc72      6fc4           ble.b 0x74cc38
          0x0074cc74      4880           ext.w d0
          0x0074cc76      3200           move.w d0, d1
          0x0074cc78      e141           asl.w 0x8, d1
          0x0074cc7a      41f90086cb3e   lea.l 0x86cb3e, a0
          0x0074cc80      7e00           moveq 0x0, d7
      > 0x0074cc82      4fbc00ff       chk.w 0xff, d7
         0x0074cc86      43f01000       lea.l (a0, d1.w), a1
         0x0074cc8a      4fbc00ff       chk.w 0xff, d7
         0x0074cc8e      13877058       move.b d7, 0x58(a1, d7.w)
         0x0074cc92      5247           addq.w 0x1, d7
         0x0074cc94      0c4700ff       cmpi.w 0xff, d7
      < 0x0074cc98      6fe8           ble.b 0x74cc82
          0x0074cc9a      5200           addq.b 0x1, d0
          0x0074cc9c      0c000002       cmpi.b 0x2, d0
       < 0x0074cca0      6f00ff74       ble.w 0x74cc16
           0x0074cca4      4cdf1fff       movem.l (a7)+, d0-d7/a0-a4
           0x0074cca8      4e5e           unlk a6
