            ;-- MENUEFFECTCOM:
            0x0073d95e      .byte 0x00
            0x0073d95f      .byte 0x88
            0x0073d960      .byte 0x00
            0x0073d961      .byte 0x46
            0x0073d962      .byte 0x00
            0x0073d963      .byte 0xd2
            0x0073d964      .byte 0x00
            0x0073d965      .byte 0x51
            0x0073d966      .byte 0x00
            0x0073d967      .byte 0x80
            0x0073d968      .byte 0x00
            0x0073d969      .byte 0x80
            0x0073d96a      .byte 0x00
            0x0073d96b      .byte 0x3c
            0x0073d96c      .byte 0x00
            0x0073d96d      .byte 0x80
            0x0073d96e      .byte 0x00
            0x0073d96f      .byte 0x80
            0x0073d970      .byte 0x00
            0x0073d971      .byte 0x32
            0x0073d972      .byte 0x00
            0x0073d973      .byte 0x80
            0x0073d974      .byte 0x00
            0x0073d975      .byte 0x80
            0x0073d976      .byte 0x00
            0x0073d977      .byte 0x10
            0x0073d978      .byte 0x00
            0x0073d979      .byte 0x80
            0x0073d97a      .byte 0x00
            0x0073d97b      .byte 0x80
            0x0073d97c      .byte 0x00
            0x0073d97d      .byte 0xa7
            0x0073d97e      .byte 0x00
            0x0073d97f      .byte 0x72
            0x0073d980      .byte 0x00
            0x0073d981      .byte 0x9e
            0x0073d982      .byte 0x00
            0x0073d983      .byte 0xbf
            0x0073d984      .byte 0x00
            0x0073d985      .byte 0x80
            0x0073d986      .byte 0x00
            0x0073d987      .byte 0x80
            0x0073d988      .byte 0x00
            0x0073d989      .byte 0xa0
            0x0073d98a      .byte 0x00
            0x0073d98b      .byte 0x96
            0x0073d98c      .byte 0x00
            0x0073d98d      .byte 0x74
            0x0073d98e      .byte 0x00
            0x0073d98f      .byte 0x23
            0x0073d990      .byte 0x00
            0x0073d991      .byte 0xf0
            0x0073d992      .byte 0x00
            0x0073d993      .byte 0x6e
            0x0073d994      .byte 0x00
            0x0073d995      .byte 0x8c
            0x0073d996      .byte 0x00
            0x0073d997      .byte 0x6e
            0x0073d998      .byte 0x00
            0x0073d999      .byte 0x6e
            0x0073d99a      .byte 0x00
            0x0073d99b      .byte 0xc4
            0x0073d99c      .byte 0x00
            0x0073d99d      .byte 0x31
            0x0073d99e      .byte 0x00
            0x0073d99f      .byte 0x8c
            0x0073d9a0      .byte 0x00
            0x0073d9a1      .byte 0xa8
            0x0073d9a2      .byte 0x00
            0x0073d9a3      .byte 0x28
            0x0073d9a4      .byte 0x00
            0x0073d9a5      .byte 0xb1
            0x0073d9a6      .byte 0x00
            0x0073d9a7      .byte 0x00
            0x0073d9a8      .byte 0x00
            0x0073d9a9      .byte 0x80
            0x0073d9aa      .byte 0x00
            0x0073d9ab      .byte 0x80
            0x0073d9ac      .byte 0x00
            0x0073d9ad      .byte 0xff
            0x0073d9ae      .byte 0x00
            0x0073d9af      .byte 0x80
            0x0073d9b0      .byte 0x00
            0x0073d9b1      .byte 0x80
            0x0073d9b2      .byte 0x00
            0x0073d9b3      .byte 0xcc
            0x0073d9b4      .byte 0x00
            0x0073d9b5      .byte 0x80
            0x0073d9b6      .byte 0x00
            0x0073d9b7      .byte 0x80
            0x0073d9b8      .byte 0x00
            0x0073d9b9      .byte 0xad
            0x0073d9ba      .byte 0x00
            0x0073d9bb      .byte 0x80
            0x0073d9bc      .byte 0x00
            0x0073d9bd      .byte 0x80
            0x0073d9be      .byte 0x00
            0x0073d9bf      .byte 0xeb
            0x0073d9c0      .byte 0x00
            0x0073d9c1      .byte 0x80
            0x0073d9c2      .byte 0x00
            0x0073d9c3      .byte 0x80
            0x0073d9c4      .byte 0x00
            0x0073d9c5      .byte 0x10
            0x0073d9c6      .byte 0x00
            0x0073d9c7      .byte 0x80
            0x0073d9c8      .byte 0x00
            0x0073d9c9      .byte 0x80
            0x0073d9ca      .byte 0x00
            0x0073d9cb      .byte 0x80
            0x0073d9cc      .byte 0x00
            0x0073d9cd      .byte 0x80
            0x0073d9ce      .byte 0x00
            0x0073d9cf      .byte 0x80
            0x0073d9d0      .byte 0x00
            0x0073d9d1      .byte 0x51
            0x0073d9d2      .byte 0x00
            0x0073d9d3      .byte 0x5a
            0x0073d9d4      .byte 0x00
            0x0073d9d5      .byte 0xf0
            0x0073d9d6      .byte 0x00
            0x0073d9d7      .byte 0xd2
            0x0073d9d8      .byte 0x00
            0x0073d9d9      .byte 0x10
            0x0073d9da      .byte 0x00
            0x0073d9db      .byte 0x92
            0x0073d9dc      .byte 0x00
            0x0073d9dd      .byte 0x29
            0x0073d9de      .byte 0x00
            0x0073d9df      .byte 0xf0
            0x0073d9e0      .byte 0x00
            0x0073d9e1      .byte 0x6e
            0x0073d9e2      .byte 0x00
            0x0073d9e3      .byte 0x91
            0x0073d9e4      .byte 0x00
            0x0073d9e5      .byte 0x36
            0x0073d9e6      .byte 0x00
            0x0073d9e7      .byte 0x22
            0x0073d9e8      .byte 0x00
            0x0073d9e9      .byte 0xa2
            0x0073d9ea      .byte 0x00
            0x0073d9eb      .byte 0x2c
            0x0073d9ec      .byte 0x00
            0x0073d9ed      .byte 0x8e
            0x0073d9ee      .byte 0x00
            0x0073d9ef      .byte 0x83
            0x0073d9f0      .byte 0x00
            0x0073d9f1      .byte 0x9c
            0x0073d9f2      .byte 0x00
            0x0073d9f3      .byte 0x2c
            0x0073d9f4      .byte 0x00
            0x0073d9f5      .byte 0x70
            0x0073d9f6      .byte 0x00
            0x0073d9f7      .byte 0x48
            0x0073d9f8      .byte 0x00
            0x0073d9f9      .byte 0x3a
            0x0073d9fa      .byte 0x00
            0x0073d9fb      .byte 0x54
            0x0073d9fc      .byte 0x00
            0x0073d9fd      .byte 0xb8
            0x0073d9fe      .byte 0x00
            0x0073d9ff      .byte 0xc6
            0x0073da00      .byte 0x00
            0x0073da01      .byte 0x41
            0x0073da02      .byte 0x00
            0x0073da03      .byte 0x64
            0x0073da04      .byte 0x00
            0x0073da05      .byte 0xd4
            0x0073da06      .byte 0x00
            0x0073da07      .byte 0x23
            0x0073da08      .byte 0x00
            0x0073da09      .byte 0xd4
            0x0073da0a      .byte 0x00
            0x0073da0b      .byte 0x72
            0x0073da0c      .byte 0x00
            0x0073da0d      .byte 0xd2
            0x0073da0e      .byte 0x00
            0x0073da0f      .byte 0x10
            0x0073da10      .byte 0x00
            0x0073da11      .byte 0x92
            0x0073da12      .byte 0x00
            0x0073da13      .byte 0xaa
            0x0073da14      .byte 0x00
            0x0073da15      .byte 0xa6
            0x0073da16      .byte 0x00
            0x0073da17      .byte 0x10
            0x0073da18      .byte 0x00
            0x0073da19      .byte 0x91
            0x0073da1a      .byte 0x00
            0x0073da1b      .byte 0x36
            0x0073da1c      .byte 0x00
            0x0073da1d      .byte 0x22
            0x0073da1e      .byte 0x00
            0x0073da1f      .byte 0x6a
            0x0073da20      .byte 0x00
            0x0073da21      .byte 0xca
            0x0073da22      .byte 0x00
            0x0073da23      .byte 0xde
            0x0073da24      .byte 0x00
            0x0073da25      .byte 0x51
            0x0073da26      .byte 0x00
            0x0073da27      .byte 0x5a
            0x0073da28      .byte 0x00
            0x0073da29      .byte 0xf0
            0x0073da2a      .byte 0x00
            0x0073da2b      .byte 0x29
            0x0073da2c      .byte 0x00
            0x0073da2d      .byte 0xf0
            0x0073da2e      .byte 0x00
            0x0073da2f      .byte 0x6e
            0x0073da30      .byte 0x00
            0x0073da31      .byte 0x78
            0x0073da32      .byte 0x02
            0x0073da33      .byte 0xd8
            0x0073da34      .byte 0x01
            0x0073da35      .byte 0xf8
            0x0073da36      .byte 0x0b
            0x0073da37      .byte 0x60
            0x0073da38      .byte 0x01
            0x0073da39      .byte 0xf8
            0x0073da3a      .byte 0x05
            0x0073da3b      .byte 0xb0
            0x0073da3c      .byte 0x07
            0x0073da3d      .byte 0xf8
            0x0073da3e      .byte 0x0b
            0x0073da3f      .byte 0x60
            0x0073da40      .byte 0x00
            0x0073da41      .byte 0x00
            0x0073da42      .byte 0x00
            0x0073da43      .byte 0x00
            0x0073da44      .byte 0x00
            0x0073da45      .byte 0x00
            0x0073da46      .byte 0x00
            0x0073da47      .byte 0x00
            0x0073da48      .byte 0x00
            0x0073da49      .byte 0x00
            0x0073da4a      .byte 0x3f
            0x0073da4b      .byte 0x80
            0x0073da4c      .byte 0x00
            0x0073da4d      .byte 0x00
            0x0073da4e      .byte 0x3f
            0x0073da4f      .byte 0x80
            0x0073da50      .byte 0x00
            0x0073da51      .byte 0x00
            0x0073da52      .byte 0x00
            0x0073da53      .byte 0x00
            0x0073da54      .byte 0x00
            0x0073da55      .byte 0x00
            0x0073da56      .byte 0x00
            0x0073da57      .byte 0x00
            0x0073da58      .byte 0x00
            0x0073da59      .byte 0x00
            0x0073da5a      .byte 0x02
            0x0073da5b      .byte 0x00
            0x0073da5c      .byte 0x00
            0x0073da5d      .byte 0x00
            0x0073da5e      .byte 0x3f
            0x0073da5f      .byte 0x80
            0x0073da60      .byte 0x00
            0x0073da61      .byte 0x00
            0x0073da62      .byte 0x3f
            0x0073da63      .byte 0x80
            0x0073da64      .byte 0x00
            0x0073da65      .byte 0x00
            0x0073da66      .byte 0x00
            0x0073da67      .byte 0x00
            0x0073da68      .byte 0x00
            0x0073da69      .byte 0x00
            0x0073da6a      .byte 0x00
            0x0073da6b      .byte 0x00
            0x0073da6c      .byte 0x00
            0x0073da6d      .byte 0x00
            0x0073da6e      .byte 0x02
            0x0073da6f      .byte 0xc7
            0x0073da70      .byte 0x01
            0x0073da71      .byte 0xe5
            0x0073da72      .byte 0x03
            0x0073da73      .byte 0x00
            0x0073da74      .byte 0x01
            0x0073da75      .byte 0xe4
            0x0073da76      .byte 0x02
            0x0073da77      .byte 0xbd
            0x0073da78      .byte 0x02
            0x0073da79      .byte 0x3f
            0x0073da7a      .byte 0x00
            0x0073da7b      .byte 0x2a
            0x0073da7c      .byte 0x01
            0x0073da7d      .byte 0x00
            0x0073da7e      .byte 0x00
            0x0073da7f      .byte 0x36
            0x0073da80      .byte 0x01
            0x0073da81      .byte 0x00
            0x0073da82      .byte 0x00
            0x0073da83      .byte 0x1d
            0x0073da84      .byte 0x02
            0x0073da85      .byte 0x00
            0x0073da86      .byte 0x08
            0x0073da87      .byte 0x00
            0x0073da88      .byte 0x00
            0x0073da89      .byte 0x00
            0x0073da8a      .byte 0x00
            0x0073da8b      .byte 0x00
            0x0073da8c      .byte 0x00
            0x0073da8d      .byte 0x00
            0x0073da8e      .byte 0x00
            0x0073da8f      .byte 0x00
            0x0073da90      .byte 0x00
            0x0073da91      .byte 0x00
            0x0073da92      .byte 0x00
            0x0073da93      .byte 0x00
            0x0073da94      .byte 0x05
            0x0073da95      .byte 0x00
            0x0073da96      .byte 0x00
            0x0073da97      .byte 0x00
            0x0073da98      .byte 0x00
            0x0073da99      .byte 0x00
            0x0073da9a      .byte 0x05
            0x0073da9b      .byte 0x00
            0x0073da9c      .byte 0x00
            0x0073da9d      .byte 0x00
            0x0073da9e      .byte 0x00
            0x0073da9f      .byte 0x00
            0x0073daa0      .byte 0x06
            0x0073daa1      .byte 0x00
            0x0073daa2      .byte 0x05
            0x0073daa3      .byte 0x00
            0x0073daa4      .byte 0x07
            0x0073daa5      .byte 0x00
            0x0073daa6      .byte 0x00
            0x0073daa7      .byte 0x00
            0x0073daa8      .byte 0x00
            0x0073daa9      .byte 0x80
            0x0073daaa      .byte 0x00
            0x0073daab      .byte 0x80
            0x0073daac      .byte 0x00
            0x0073daad      .byte 0x00
            0x0073daae      .byte 0x00
            0x0073daaf      .byte 0x80
            0x0073dab0      .byte 0x00
            0x0073dab1      .byte 0x80
            0x0073dab2      .byte 0x00
            0x0073dab3      .byte 0x00
            0x0073dab4      .byte 0x00
            0x0073dab5      .byte 0x82
            0x0073dab6      .byte 0x00
            0x0073dab7      .byte 0x00
            0x0073dab8      .byte 0x00
            0x0073dab9      .byte 0x32
            0x0073daba      .byte 0x13
            0x0073dabb     .string "keyer_graphic area " ; len=19
            0x0073dace      .byte 0x0b
            0x0073dacf     .string ", lum size " ; len=11
            0x0073dada      .byte 0x0b
            0x0073dadb     .string "write_area " ; len=11
            0x0073dae6      .byte 0x07
            0x0073dae7     .string ", ladj " ; len=7
            0x0073daee      .byte 0x07
            0x0073daef     .string ", radj " ; len=7
            0x0073daf6      .byte 0x0f
            0x0073daf7     .string "v out of range " ; len=15
            0x0073db06      .byte 0x09
            0x0073db07     .string " at xpos " ; len=9
            0x0073db10      .byte 0x0f
            0x0073db11     .string "u out of range " ; len=15
            0x0073db20      .byte 0x09
            0x0073db21     .string " at ypos " ; len=9
            0x0073db2a      .byte 0x0f
            0x0073db2b     .string "y out of range " ; len=15
            0x0073db3a      .byte 0x09
            0x0073db3b     .string " at ypos " ; len=9
            0x0073db44      .byte 0x07
            0x0073db45     .string "uv inc " ; len=7
            0x0073db4c      .byte 0x02
            0x0073db4d      .byte 0x2c
            0x0073db4e      .byte 0x20
            0x0073db4f      .byte 0x0b
            0x0073db50     .string ", final uv " ; len=11
            0x0073db5b      .byte 0x02
            0x0073db5c      .byte 0x2c
            0x0073db5d      .byte 0x20
            0x0073db5e      .byte 0x09
            0x0073db5f     .string "box area " ; len=9
            0x0073db68      .byte 0x08
            0x0073db69      .byte 0x00
            0x0073db6a      .byte 0x00
            0x0073db6b      .byte 0x00
            0x0073db6c      .byte 0x00
            0x0073db6d      .byte 0x00
            0x0073db6e      .byte 0x00
            0x0073db6f      .byte 0x00
            0x0073db70      .byte 0x00
            0x0073db71      .byte 0x00
            0x0073db72      .byte 0x00
            0x0073db73      .byte 0x00
            0x0073db74      .byte 0x00
            0x0073db75      .byte 0x00
            0x0073db76      .byte 0x00
            0x0073db77      .byte 0x00
            0x0073db78      .byte 0x00
            0x0073db79      .byte 0x00
            0x0073db7a      .byte 0x00
            0x0073db7b      .byte 0x00
            0x0073db7c      .byte 0x00
            0x0073db7d      .byte 0x00
            0x0073db7e      .byte 0x00
            0x0073db7f      .byte 0x00
            0x0073db80      .byte 0x00
            0x0073db81      .byte 0x00
            0x0073db82      .byte 0x00
            0x0073db83      .byte 0x00
            0x0073db84      .byte 0x00
            0x0073db85      .byte 0x00
            0x0073db86      .byte 0x00
            0x0073db87      .byte 0x00
            0x0073db88      .byte 0x70
            0x0073db89      .byte 0x00
            0x0073db8a      .byte 0x00
            0x0073db8b      .byte 0x00
            0x0073db8c      .byte 0x00
            0x0073db8d      .byte 0x00
            0x0073db8e      .byte 0x00
            0x0073db8f      .byte 0x00
            0x0073db90      .byte 0x00
            0x0073db91      .byte 0x00
            0x0073db92      .byte 0x00
            0x0073db93      .byte 0x00
            0x0073db94      .byte 0x00
            0x0073db95      .byte 0x00
            0x0073db96      .byte 0x00
            0x0073db97      .byte 0x00
            0x0073db98      .byte 0x00
            0x0073db99      .byte 0x00
            0x0073db9a      .byte 0x00
            0x0073db9b      .byte 0x00
            0x0073db9c      .byte 0x00
            0x0073db9d      .byte 0x00
            0x0073db9e      .byte 0x00
            0x0073db9f      .byte 0x00
            0x0073dba0      .byte 0x00
            0x0073dba1      .byte 0x00
            0x0073dba2      .byte 0x00
            0x0073dba3      .byte 0x00
            0x0073dba4      .byte 0x00
            0x0073dba5      .byte 0x00
            0x0073dba6      .byte 0x00
            0x0073dba7      .byte 0x00
            0x0073dba8      .byte 0x00
            0x0073dba9      .byte 0x00
            0x0073dbaa      .byte 0x01
            0x0073dbab      .byte 0x02
            0x0073dbac      .byte 0x96
            0x0073dbad      .byte 0x00
            0x0073dbae      .byte 0x02
            0x0073dbaf      .byte 0x3c
            0x0073dbb0      .byte 0x3c
            0x0073dbb1      .byte 0x00
            0x0073dbb2      .byte 0x94
            0x0073dbb3      .byte 0x00
            0x0073dbb4      .byte 0x97
            0x0073dbb5      .byte 0x00
            0x0073dbb6      .byte 0x96
            0x0073dbb7      .byte 0x00
            0x0073dbb8      .byte 0x96
            0x0073dbb9      .byte 0x00
            0x0073dbba      .byte 0x96
            0x0073dbbb      .byte 0x00
            0x0073dbbc      .byte 0x96
            0x0073dbbd      .byte 0x00
            0x0073dbbe      .byte 0x96
            0x0073dbbf      .byte 0x00
            0x0073dbc0      .byte 0x96
            0x0073dbc1      .byte 0x00
            0x0073dbc2      .byte 0x97
            0x0073dbc3      .byte 0x00
            0x0073dbc4      .byte 0x14
            0x0073dbc5      .byte 0x01
            0x0073dbc6      .byte 0x94
            0x0073dbc7      .byte 0x00
            0x0073dbc8      .byte 0x86
            0x0073dbc9      .byte 0x02
            0x0073dbca      .byte 0x3e
            0x0073dbcb      .byte 0x99
            0x0073dbcc      .byte 0x16
            0x0073dbcd      .byte 0x87
            0x0073dbce      .byte 0x3f
            0x0073dbcf      .byte 0x16
            0x0073dbd0      .byte 0x45
            0x0073dbd1      .byte 0xa2
            0x0073dbd2      .byte 0x3d
            0x0073dbd3      .byte 0xe9
            0x0073dbd4      .byte 0x78
            0x0073dbd5      .byte 0xd5
            0x0073dbd6      .byte 0xbe
            0x0073dbd7      .byte 0xac
            0x0073dbd8      .byte 0xc9
            0x0073dbd9      .byte 0x1a
            0x0073dbda      .byte 0xbf
            0x0073dbdb      .byte 0x29
            0x0073dbdc      .byte 0x9b
            0x0073dbdd      .byte 0x84
            0x0073dbde      .byte 0x3f
            0x0073dbdf      .byte 0x80
            0x0073dbe0      .byte 0x00
            0x0073dbe1      .byte 0x00
            0x0073dbe2      .byte 0x3f
            0x0073dbe3      .byte 0x80
            0x0073dbe4      .byte 0x00
            0x0073dbe5      .byte 0x00
            0x0073dbe6      .byte 0xbf
            0x0073dbe7      .byte 0x56
            0x0073dbe8      .byte 0x5e
            0x0073dbe9      .byte 0x38
            0x0073dbea      .byte 0xbe
            0x0073dbeb      .byte 0x26
            0x0073dbec      .byte 0x87
            0x0073dbed      .byte 0x1f
            0x0073dbee      .byte 0x3e
            0x0073dbef      .byte 0x99
            0x0073dbf0      .byte 0x16
            0x0073dbf1      .byte 0x87
            0x0073dbf2      .byte 0x3f
            0x0073dbf3      .byte 0x16
            0x0073dbf4      .byte 0x45
            0x0073dbf5      .byte 0xa2
            0x0073dbf6      .byte 0x3d
            0x0073dbf7      .byte 0xe9
            0x0073dbf8      .byte 0x78
            0x0073dbf9      .byte 0xd5
            0x0073dbfa      .byte 0xbe
            0x0073dbfb      .byte 0x30
            0x0073dbfc      .byte 0xba
            0x0073dbfd      .byte 0xfd
            0x0073dbfe      .byte 0xbe
            0x0073dbff      .byte 0xad
            0x0073dc00      .byte 0x7a
            0x0073dc01      .byte 0xc3
            0x0073dc02      .byte 0x3f
            0x0073dc03      .byte 0x02
            0x0073dc04      .byte 0xec
            0x0073dc05      .byte 0x21
            0x0073dc06      .byte 0x3f
            0x0073dc07      .byte 0x02
            0x0073dc08      .byte 0xec
            0x0073dc09      .byte 0x21
            0x0073dc0a      .byte 0xbe
            0x0073dc0b      .byte 0xdb
            0x0073dc0c      .byte 0x43
            0x0073dc0d      .byte 0x26
            0x0073dc0e      .byte 0xbd
            0x0073dc0f      .byte 0xaa
            0x0073dc10      .byte 0x54
            0x0073dc11      .byte 0x6f
            0x0073dc12      .byte 0x3f
            0x0073dc13      .byte 0x80
            0x0073dc14      .byte 0x00
            0x0073dc15      .byte 0x00
            0x0073dc16      .byte 0x00
            0x0073dc17      .byte 0x00
            0x0073dc18      .byte 0x00
            0x0073dc19      .byte 0x00
            0x0073dc1a      .byte 0x3f
            0x0073dc1b      .byte 0xaf
            0x0073dc1c      .byte 0x73
            0x0073dc1d      .byte 0x46
            0x0073dc1e      .byte 0x3f
            0x0073dc1f      .byte 0x80
            0x0073dc20      .byte 0x00
            0x0073dc21      .byte 0x00
            0x0073dc22      .byte 0xbe
            0x0073dc23      .byte 0xac
            0x0073dc24      .byte 0x43
            0x0073dc25      .byte 0xca
            0x0073dc26      .byte 0xbf
            0x0073dc27      .byte 0x32
            0x0073dc28      .byte 0xbc
            0x0073dc29      .byte 0xf5
            0x0073dc2a      .byte 0x3f
            0x0073dc2b      .byte 0x80
            0x0073dc2c      .byte 0x00
            0x0073dc2d      .byte 0x00
            0x0073dc2e      .byte 0x3f
            0x0073dc2f      .byte 0xdd
            0x0073dc30      .byte 0xc0
            0x0073dc31      .byte 0xce
            0x0073dc32      .byte 0x00
            0x0073dc33      .byte 0x00
            0x0073dc34      .byte 0x00
            0x0073dc35      .byte 0x00
            0x0073dc36      .byte 0x00
            0x0073dc37      .byte 0x00
            0x0073dc38      .byte 0x00
            0x0073dc39      .byte 0x00
            0x0073dc3a      .byte 0x00
            0x0073dc3b      .byte 0x00
            0x0073dc3c      .byte 0x00
            0x0073dc3d      .byte 0x00
            0x0073dc3e      .byte 0x00
            0x0073dc3f      .byte 0x00
            0x0073dc40      .byte 0x00
            0x0073dc41      .byte 0x00
            0x0073dc42      .byte 0x00
            0x0073dc43      .byte 0x00
            0x0073dc44      .byte 0x00
            0x0073dc45      .byte 0x00
            0x0073dc46      .byte 0x00
            0x0073dc47      .byte 0x00
            0x0073dc48      .byte 0x00
            0x0073dc49      .byte 0x00
            0x0073dc4a      .byte 0x00
            0x0073dc4b      .byte 0x00
            0x0073dc4c      .byte 0x00
            0x0073dc4d      .byte 0x00
            0x0073dc4e      .byte 0x00
            0x0073dc4f      .byte 0x00
            0x0073dc50      .byte 0x00
            0x0073dc51      .byte 0x00
            0x0073dc52      .byte 0x00
            0x0073dc53      .byte 0x00
            0x0073dc54      .byte 0x00
            0x0073dc55      .byte 0x00
            0x0073dc56      .byte 0x00
            0x0073dc57      .byte 0x00
            0x0073dc58      .byte 0x00
            0x0073dc59      .byte 0x00
            0x0073dc5a      .byte 0x03
            0x0073dc5b      .byte 0x79
            0x0073dc5c      .byte 0x6f
            0x0073dc5d      .byte 0x3a
            0x0073dc5e      .byte 0x04
            0x0073dc5f      .byte 0x20
            0x0073dc60      .byte 0x75
            0x0073dc61      .byte 0x6f
            0x0073dc62      .byte 0x3a
            0x0073dc63      .byte 0x04
            0x0073dc64      .byte 0x20
            0x0073dc65      .byte 0x76
            0x0073dc66      .byte 0x6f
            0x0073dc67      .byte 0x3a
            0x0073dc68      .byte 0x03
            0x0073dc69      .byte 0x79
            0x0073dc6a      .byte 0x79
            0x0073dc6b      .byte 0x3a
            0x0073dc6c      .byte 0x04
            0x0073dc6d      .byte 0x20
            0x0073dc6e      .byte 0x75
            0x0073dc6f      .byte 0x79
            0x0073dc70      .byte 0x3a
            0x0073dc71      .byte 0x04
            0x0073dc72      .byte 0x20
            0x0073dc73      .byte 0x76
            0x0073dc74      .byte 0x79
            0x0073dc75      .byte 0x3a
            0x0073dc76      .byte 0x03
            0x0073dc77      .byte 0x79
            0x0073dc78      .byte 0x75
            0x0073dc79      .byte 0x3a
            0x0073dc7a      .byte 0x04
            0x0073dc7b      .byte 0x20
            0x0073dc7c      .byte 0x75
            0x0073dc7d      .byte 0x75
            0x0073dc7e      .byte 0x3a
            0x0073dc7f      .byte 0x04
            0x0073dc80      .byte 0x20
            0x0073dc81      .byte 0x76
            0x0073dc82      .byte 0x75
            0x0073dc83      .byte 0x3a
            0x0073dc84      .byte 0x03
            0x0073dc85      .byte 0x79
            0x0073dc86      .byte 0x76
            0x0073dc87      .byte 0x3a
            0x0073dc88      .byte 0x04
            0x0073dc89      .byte 0x20
            0x0073dc8a      .byte 0x75
            0x0073dc8b      .byte 0x76
            0x0073dc8c      .byte 0x3a
            0x0073dc8d      .byte 0x04
            0x0073dc8e      .byte 0x20
            0x0073dc8f      .byte 0x76
            0x0073dc90      .byte 0x76
            0x0073dc91      .byte 0x3a
            0x0073dc92      .byte 0x03
            0x0073dc93      .byte 0x00
            0x0073dc94      .byte 0x64
            0x0073dc95      .byte 0x00
            0x0073dc96      .byte 0x2f
            0x0073dc97      .byte 0x00
            0x0073dc98      .byte 0x0d
            0x0073dc99      .byte 0x00
            0x0073dc9a      .byte 0x6f
            0x0073dc9b      .byte 0x00
            0x0073dc9c      .byte 0x08
            0x0073dc9d      .byte 0x00
            0x0073dc9e      .byte 0x75
            0x0073dc9f      .byte 0x00
            0x0073dca0      .byte 0x18
            0x0073dca1      .byte 0x00
            0x0073dca2      .byte 0x00
            0x0073dca3      .byte 0x02
            0x0073dca4      .byte 0x00
            0x0073dca5      .byte 0x01
            0x0073dca6      .byte 0x00
            0x0073dca7      .byte 0x00
            0x0073dca8      .byte 0x00
            0x0073dca9      .byte 0x01
            0x0073dcaa      .byte 0x00
            0x0073dcab      .byte 0x01
            0x0073dcac      .byte 0x00
            0x0073dcad      .byte 0x00
            0x0073dcae      .byte 0x00
            0x0073dcaf      .byte 0x00
            0x0073dcb0      .byte 0x00
            0x0073dcb1      .byte 0x00
            0x0073dcb2      .byte 0x00
            0x0073dcb3      .byte 0x00
            0x0073dcb4      .byte 0x00
            0x0073dcb5      .byte 0x00
            0x0073dcb6      .byte 0x00
            0x0073dcb7      .byte 0x00
            0x0073dcb8      .byte 0x00
            0x0073dcb9      .byte 0x00
            0x0073dcba      .byte 0x00
            0x0073dcbb      .byte 0x00
            0x0073dcbc      .byte 0x00
            0x0073dcbd      .byte 0x00
            0x0073dcbe      .byte 0x00
            0x0073dcbf      .byte 0x00
            0x0073dcc0      .byte 0x40
            0x0073dcc1      .byte 0x00
            0x0073dcc2      .byte 0x20
            0x0073dcc3      .byte 0x00
            0x0073dcc4      .byte 0x00
            0x0073dcc5      .byte 0x00
            0x0073dcc6      .byte 0x00
            0x0073dcc7      .byte 0x00
            0x0073dcc8      .byte 0x00
            0x0073dcc9      .byte 0x00
            0x0073dcca      .byte 0x00
            0x0073dccb      .byte 0x00
            0x0073dccc      .byte 0x00
            0x0073dccd      .byte 0x00
            0x0073dcce      .byte 0x00
            0x0073dccf      .byte 0x03
            0x0073dcd0      .byte 0x00
            0x0073dcd1      .byte 0x02
            0x0073dcd2      .byte 0x00
            0x0073dcd3      .byte 0x00
            0x0073dcd4      .byte 0x00
            0x0073dcd5      .byte 0x02
            0x0073dcd6      .byte 0x00
            0x0073dcd7      .byte 0x01
            0x0073dcd8      .byte 0x00
            0x0073dcd9      .byte 0x01
            0x0073dcda      .byte 0x00
            0x0073dcdb      .byte 0x02
            0x0073dcdc      .byte 0x00
            0x0073dcdd      .byte 0x00
            0x0073dcde      .byte 0x00
            0x0073dcdf      .byte 0x00
            0x0073dce0      .byte 0x00
            0x0073dce1      .byte 0x00
            0x0073dce2      .byte 0x00
            0x0073dce3      .byte 0x00
            0x0073dce4      .byte 0x00
            0x0073dce5      .byte 0x00
            0x0073dce6      .byte 0x00
            0x0073dce7      .byte 0x00
            0x0073dce8      .byte 0x00
            0x0073dce9      .byte 0x00
            0x0073dcea      .byte 0x00
            0x0073dceb      .byte 0x00
            0x0073dcec      .byte 0x40
            0x0073dced      .byte 0x00
            0x0073dcee      .byte 0x40
            0x0073dcef      .byte 0x00
            0x0073dcf0      .byte 0x40
            0x0073dcf1      .byte 0x00
            0x0073dcf2      .byte 0x00
            0x0073dcf3      .byte 0x00
            0x0073dcf4      .byte 0x00
            0x0073dcf5      .byte 0x00
            0x0073dcf6      .byte 0x00
            0x0073dcf7      .byte 0x00
            0x0073dcf8      .byte 0x00
            0x0073dcf9      .byte 0x00
            0x0073dcfa      .byte 0x00
            0x0073dcfb      .byte 0x04
            0x0073dcfc      .byte 0x00
            0x0073dcfd      .byte 0x03
            0x0073dcfe      .byte 0x00
            0x0073dcff      .byte 0x00
            0x0073dd00      .byte 0x00
            0x0073dd01      .byte 0x03
            0x0073dd02      .byte 0x00
            0x0073dd03      .byte 0x01
            0x0073dd04      .byte 0x00
            0x0073dd05      .byte 0x02
            0x0073dd06      .byte 0x00
            0x0073dd07      .byte 0x02
            0x0073dd08      .byte 0x00
            0x0073dd09      .byte 0x01
            0x0073dd0a      .byte 0x00
            0x0073dd0b      .byte 0x03
            0x0073dd0c      .byte 0x00
            0x0073dd0d      .byte 0x00
            0x0073dd0e      .byte 0x00
            0x0073dd0f      .byte 0x00
            0x0073dd10      .byte 0x00
            0x0073dd11      .byte 0x00
            0x0073dd12      .byte 0x00
            0x0073dd13      .byte 0x00
            0x0073dd14      .byte 0x00
            0x0073dd15      .byte 0x00
            0x0073dd16      .byte 0x00
            0x0073dd17      .byte 0x00
            0x0073dd18      .byte 0x40
            0x0073dd19      .byte 0x00
            0x0073dd1a      .byte 0x40
            0x0073dd1b      .byte 0x00
            0x0073dd1c      .byte 0x40
            0x0073dd1d      .byte 0x00
            0x0073dd1e      .byte 0x40
            0x0073dd1f      .byte 0x00
            0x0073dd20      .byte 0x00
            0x0073dd21      .byte 0x00
            0x0073dd22      .byte 0x00
            0x0073dd23      .byte 0x00
            0x0073dd24      .byte 0x00
            0x0073dd25      .byte 0x00
            0x0073dd26      .byte 0x00
            0x0073dd27      .byte 0x06
            0x0073dd28      .byte 0x00
            0x0073dd29      .byte 0x04
            0x0073dd2a      .byte 0x00
            0x0073dd2b      .byte 0x00
            0x0073dd2c      .byte 0x00
            0x0073dd2d      .byte 0x04
            0x0073dd2e      .byte 0x00
            0x0073dd2f      .byte 0x01
            0x0073dd30      .byte 0x00
            0x0073dd31      .byte 0x03
            0x0073dd32      .byte 0x00
            0x0073dd33      .byte 0x02
            0x0073dd34      .byte 0x00
            0x0073dd35      .byte 0x03
            0x0073dd36      .byte 0x00
            0x0073dd37      .byte 0x03
            0x0073dd38      .byte 0x00
            0x0073dd39      .byte 0x02
            0x0073dd3a      .byte 0x00
            0x0073dd3b      .byte 0x03
            0x0073dd3c      .byte 0x00
            0x0073dd3d      .byte 0x01
            0x0073dd3e      .byte 0x00
            0x0073dd3f      .byte 0x04
            0x0073dd40      .byte 0x00
            0x0073dd41      .byte 0x00
            0x0073dd42      .byte 0x00
            0x0073dd43      .byte 0x00
            0x0073dd44      .byte 0x40
            0x0073dd45      .byte 0x00
            0x0073dd46      .byte 0x40
            0x0073dd47      .byte 0x00
            0x0073dd48      .byte 0x40
            0x0073dd49      .byte 0x00
            0x0073dd4a      .byte 0x40
            0x0073dd4b      .byte 0x00
            0x0073dd4c      .byte 0x40
            0x0073dd4d      .byte 0x00
            0x0073dd4e      .byte 0x40
            0x0073dd4f      .byte 0x00
            0x0073dd50      .byte 0x00
            0x0073dd51      .byte 0x00
            0x0073dd52      .byte 0x00
            0x0073dd53      .byte 0x07
            0x0073dd54      .byte 0x00
            0x0073dd55      .byte 0x05
            0x0073dd56      .byte 0x00
            0x0073dd57      .byte 0x00
            0x0073dd58      .byte 0x00
            0x0073dd59      .byte 0x05
            0x0073dd5a      .byte 0x00
            0x0073dd5b      .byte 0x01
            0x0073dd5c      .byte 0x00
            0x0073dd5d      .byte 0x04
            0x0073dd5e      .byte 0x00
            0x0073dd5f      .byte 0x02
            0x0073dd60      .byte 0x00
            0x0073dd61      .byte 0x04
            0x0073dd62      .byte 0x00
            0x0073dd63      .byte 0x03
            0x0073dd64      .byte 0x00
            0x0073dd65      .byte 0x03
            0x0073dd66      .byte 0x00
            0x0073dd67      .byte 0x04
            0x0073dd68      .byte 0x00
            0x0073dd69      .byte 0x02
            0x0073dd6a      .byte 0x00
            0x0073dd6b      .byte 0x04
            0x0073dd6c      .byte 0x00
            0x0073dd6d      .byte 0x01
            0x0073dd6e      .byte 0x00
            0x0073dd6f      .byte 0x05
            0x0073dd70      .byte 0x40
            0x0073dd71      .byte 0x00
            0x0073dd72      .byte 0x40
            0x0073dd73      .byte 0x00
            0x0073dd74      .byte 0x40
            0x0073dd75      .byte 0x00
            0x0073dd76      .byte 0x40
            0x0073dd77      .byte 0x00
            0x0073dd78      .byte 0x40
            0x0073dd79      .byte 0x00
            0x0073dd7a      .byte 0x40
            0x0073dd7b      .byte 0x00
            0x0073dd7c      .byte 0x40
            0x0073dd7d      .byte 0x00
            0x0073dd7e      .byte 0x18
            0x0073dd7f      .byte 0x00
            0x0073dd80      .byte 0x31
            0x0073dd81      .byte 0x00
            0x0073dd82      .byte 0x00
            0x0073dd83      .byte 0x01
            0x0073dd84      .byte 0x20
            0x0073dd85      .byte 0x00
            0x0073dd86      .byte 0x40
            0x0073dd87      .byte 0x00
            0x0073dd88      .byte 0x01
            0x0073dd89      .byte 0x00
            0x0073dd8a      .byte 0x00
            0x0073dd8b      .byte 0x00
            0x0073dd8c      .byte 0x00
            0x0073dd8d      .byte 0x80
            0x0073dd8e      .byte 0x00
            0x0073dd8f      .byte 0x00
            0x0073dd90      .byte 0x00
            0x0073dd91      .byte 0x80
            0x0073dd92      .byte 0x17
            0x0073dd93     .string "Bad effects data format" ; len=23
            0x0073ddaa      .byte 0x00
            0x0073ddab      .byte 0x00
            0x0073ddac      .byte 0xa9
            0x0073ddad      .byte 0x45
            0x0073ddae      .byte 0x00
            0x0073ddaf      .byte 0x00
            0x0073ddb0      .byte 0x78
            0x0073ddb1      .byte 0x8d
            0x0073ddb2      .byte 0x00
            0x0073ddb3      .byte 0x00
            0x0073ddb4      .byte 0x07
            0x0073ddb5      .byte 0x2d
            0x0073ddb6      .byte 0x00
            0x0073ddb7      .byte 0x00
            0x0073ddb8      .byte 0x72
            0x0073ddb9      .byte 0x9d
            0x0073ddba      .byte 0x00
            0x0073ddbb      .byte 0x00
            0x0073ddbc      .byte 0x39
            0x0073ddbd      .byte 0xdd
            0x0073ddbe      .byte 0x00
            0x0073ddbf      .byte 0x00
            0x0073ddc0      .byte 0x00
            0x0073ddc1      .byte 0x65
            0x0073ddc2      .byte 0x00
            0x0073ddc3      .byte 0x00
            0x0073ddc4      .byte 0x57
            0x0073ddc5      .byte 0x05
            0x0073ddc6      .byte 0x00
            0x0073ddc7      .byte 0x00
            0x0073ddc8      .byte 0x72
            0x0073ddc9      .byte 0xcd
            0x0073ddca      .byte 0x00
            0x0073ddcb      .byte 0x00
            0x0073ddcc      .byte 0x17
            0x0073ddcd      .byte 0x35
            0x0073ddce      .byte 0x00
            0x0073ddcf      .byte 0x00
            0x0073ddd0      .byte 0x09
            0x0073ddd1      .byte 0x7d
            0x0073ddd2      .byte 0x00
            0x0073ddd3      .byte 0x00
            0x0073ddd4      .byte 0x4a
            0x0073ddd5      .byte 0x9d
            0x0073ddd6      .byte 0x00
            0x0073ddd7      .byte 0x00
            0x0073ddd8      .byte 0xd4
            0x0073ddd9      .byte 0xe5
            0x0073ddda      .byte 0x00
            0x0073dddb      .byte 0x00
            0x0073dddc      .byte 0x30
            0x0073dddd      .byte 0x1d
            0x0073ddde      .byte 0x00
            0x0073dddf      .byte 0x00
            0x0073dde0      .byte 0xd7
            0x0073dde1      .byte 0x0d
            0x0073dde2      .byte 0x00
            0x0073dde3      .byte 0x00
            0x0073dde4      .byte 0x3b
            0x0073dde5      .byte 0x35
            0x0073dde6      .byte 0x00
            0x0073dde7      .byte 0x00
            0x0073dde8      .byte 0x7f
            0x0073dde9      .byte 0x2d
            0x0073ddea      .byte 0x0c
            0x0073ddeb     .string " Setup data " ; len=12
            0x0073ddf7      .byte 0x10
            0x0073ddf8     .string " Draw in stereo " ; len=16
            0x0073de08      .byte 0x12
            0x0073de09     .string " Draw guide spots " ; len=18
            0x0073de1b      .byte 0x00
            0x0073de1c      .byte 0x40
            0x0073de1d      .byte 0x00
            0x0073de1e      .byte 0x96
            0x0073de1f      .byte 0x00
            0x0073de20      .byte 0x03
            0x0073de21      .byte 0x00
            0x0073de22      .byte 0x00
            0x0073de23      .byte 0x00
            0x0073de24      .byte 0x00
            0x0073de25      .byte 0x00
            0x0073de26      .byte 0x00
            0x0073de27      .byte 0x00
            0x0073de28      .byte 0x00
            0x0073de29      .byte 0x00
            0x0073de2a      .byte 0x00
            0x0073de2b      .byte 0x00
            0x0073de2c      .byte 0x00
            0x0073de2d      .byte 0x00
            0x0073de2e      .byte 0x00
            0x0073de2f      .byte 0x00
            0x0073de30      .byte 0x00
            0x0073de31      .byte 0x00
            0x0073de32      .byte 0x00
            0x0073de33      .byte 0x00
            0x0073de34      .byte 0x00
            0x0073de35      .byte 0x00
            0x0073de36      .byte 0x00
            0x0073de37      .byte 0x00
            0x0073de38      .byte 0x00
            0x0073de39      .byte 0x00
            0x0073de3a      .byte 0x00
            0x0073de3b      .byte 0x00
            0x0073de3c      .byte 0x00
            0x0073de3d      .byte 0x00
            0x0073de3e      .byte 0x00
            0x0073de3f      .byte 0x00
            0x0073de40      .byte 0x04
            0x0073de41      .byte 0x66
            0x0073de42      .byte 0x75
            0x0073de43      .byte 0x6c
            0x0073de44      .byte 0x6c
            0x0073de45      .byte 0x00
            0x0073de46      .byte 0x91
            0x0073de47      .byte 0x00
            0x0073de48      .byte 0x00
            0x0073de49      .byte 0x04
            0x0073de4a      .byte 0x02
            0x0073de4b      .byte 0x00
            0x0073de4c      .byte 0x00
            0x0073de4d      .byte 0x00
            0x0073de4e      .byte 0x00
            0x0073de4f      .byte 0x00
            0x0073de50      .byte 0x00
            0x0073de51      .byte 0x00
            0x0073de52      .byte 0x00
            0x0073de53      .byte 0x00
            0x0073de54      .byte 0x00
            0x0073de55      .byte 0x00
            0x0073de56      .byte 0x00
            0x0073de57      .byte 0x00
            0x0073de58      .byte 0x00
            0x0073de59      .byte 0x00
            0x0073de5a      .byte 0x00
            0x0073de5b      .byte 0x00
            0x0073de5c      .byte 0x00
            0x0073de5d      .byte 0x00
            0x0073de5e      .byte 0x00
            0x0073de5f      .byte 0x00
            0x0073de60      .byte 0x00
            0x0073de61      .byte 0x00
            0x0073de62      .byte 0x00
            0x0073de63      .byte 0x00
            0x0073de64      .byte 0x00
            0x0073de65      .byte 0x00
            0x0073de66      .byte 0x00
            0x0073de67      .byte 0x00
            0x0073de68      .byte 0x0c
            0x0073de69      .byte 0x00
            0x0073de6a      .byte 0x18
            0x0073de6b      .byte 0x08
            0x0073de6c     .string " key hit" ; len=8
            0x0073de74      .byte 0x07
            0x0073de75     .string "Effects" ; len=7
            0x0073de7c      .byte 0x07
            0x0073de7d     .string "overlay" ; len=7
            0x0073de84      .byte 0x08
            0x0073de85     .string "do>>>all" ; len=8
            0x0073de8d      .byte 0x0b
            0x0073de8e     .string "<<d<o>>p<en" ; len=11
            0x0073de99      .byte 0x02
            0x0073de9a      .byte 0x20
            0x0073de9b      .byte 0x20
            0x0073de9c      .byte 0x09
            0x0073de9d     .string "hicon min" ; len=9
            0x0073dea6      .byte 0x02
            0x0073dea7      .byte 0x20
            0x0073dea8      .byte 0x20
            0x0073dea9      .byte 0x09
            0x0073deaa     .string "hicon max" ; len=9
            0x0073deb3      .byte 0x0a
            0x0073deb4     .string "colour map" ; len=10
            0x0073debe      .byte 0x0d
            0x0073debf     .string "colour fettle" ; len=13
            0x0073decc      .byte 0x05
            0x0073decd     .string "hicon" ; len=5
            0x0073ded2      .byte 0x08
            0x0073ded3     .string "do>>>all" ; len=8
            0x0073dedb      .byte 0x0b
            0x0073dedc     .string "<<d<o>>p<en" ; len=11
            0x0073dee7      .byte 0x02
            0x0073dee8      .byte 0x20
            0x0073dee9      .byte 0x20
            0x0073deea      .byte 0x07
            0x0073deeb     .string "min col" ; len=7
            0x0073def2      .byte 0x02
            0x0073def3      .byte 0x6c
            0x0073def4      .byte 0x6f
            0x0073def5      .byte 0x02
            0x0073def6      .byte 0x3c
            0x0073def7      .byte 0x3e
            0x0073def8      .byte 0x07
            0x0073def9     .string "min val" ; len=7
            0x0073df00      .byte 0x02
            0x0073df01      .byte 0x20
            0x0073df02      .byte 0x20
            0x0073df03      .byte 0x07
            0x0073df04     .string "max col" ; len=7
            0x0073df0b      .byte 0x02
            0x0073df0c      .byte 0x68
            0x0073df0d      .byte 0x69
            0x0073df0e      .byte 0x02
            0x0073df0f      .byte 0x3c
            0x0073df10      .byte 0x3e
            0x0073df11      .byte 0x07
            0x0073df12     .string "max val" ; len=7
            0x0073df19      .byte 0x0d
            0x0073df1a     .string "black>>>white" ; len=13
            0x0073df27      .byte 0x05
            0x0073df28     .string "keyer" ; len=5
            0x0073df2d      .byte 0x03
            0x0073df2e      .byte 0x6c
            0x0073df2f      .byte 0x75
            0x0073df30      .byte 0x6d
            0x0073df31      .byte 0x03
            0x0073df32      .byte 0x63
            0x0073df33      .byte 0x68
            0x0073df34      .byte 0x72
            0x0073df35      .byte 0x04
            0x0073df36      .byte 0x3c
            0x0073df37      .byte 0x6d
            0x0073df38      .byte 0x69
            0x0073df39      .byte 0x78
            0x0073df3a      .byte 0x03
            0x0073df3b      .byte 0x6c
            0x0073df3c      .byte 0x75
            0x0073df3d      .byte 0x6d
            0x0073df3e      .byte 0x03
            0x0073df3f      .byte 0x63
            0x0073df40      .byte 0x68
            0x0073df41      .byte 0x72
            0x0073df42      .byte 0x04
            0x0073df43      .byte 0x3c
            0x0073df44      .byte 0x61
            0x0073df45      .byte 0x64
            0x0073df46      .byte 0x64
            0x0073df47      .byte 0x05
            0x0073df48     .string "<<rem" ; len=5
            0x0073df4d      .byte 0x03
            0x0073df4e      .byte 0x72
            0x0073df4f      .byte 0x65
            0x0073df50      .byte 0x76
            0x0073df51      .byte 0x0c
            0x0073df52     .string "softness>>>>" ; len=12
            0x0073df5e      .byte 0x05
            0x0073df5f     .string "reset" ; len=5
            0x0073df64      .byte 0x04
            0x0073df65      .byte 0x75
            0x0073df66      .byte 0x6e
            0x0073df67      .byte 0x64
            0x0073df68      .byte 0x6f
            0x0073df69      .byte 0x02
            0x0073df6a      .byte 0x20
            0x0073df6b      .byte 0x20
            0x0073df6c      .byte 0x09
            0x0073df6d     .string "key graph" ; len=9
            0x0073df76      .byte 0x08
            0x0073df77     .string "<<values" ; len=8
            0x0073df7f      .byte 0x06
            0x0073df80     .string "values" ; len=6
            0x0073df86      .byte 0x01
            0x0073df87      .byte 0x79
            0x0073df88      .byte 0x01
            0x0073df89      .byte 0x75
            0x0073df8a      .byte 0x01
            0x0073df8b      .byte 0x76
            0x0073df8c      .byte 0x02
            0x0073df8d      .byte 0x3c
            0x0073df8e      .byte 0x3c
            0x0073df8f      .byte 0x08
            0x0073df90     .string "key low " ; len=8
            0x0073df98      .byte 0x02
            0x0073df99      .byte 0x3c
            0x0073df9a      .byte 0x3c
            0x0073df9b      .byte 0x09
            0x0073df9c     .string "key high " ; len=9
            0x0073dfa5      .byte 0x02
            0x0073dfa6      .byte 0x3c
            0x0073dfa7      .byte 0x3c
            0x0073dfa8      .byte 0x09
            0x0073dfa9     .string "key soft " ; len=9
            0x0073dfb2      .byte 0x02
            0x0073dfb3      .byte 0x3c
            0x0073dfb4      .byte 0x3c
            0x0073dfb5      .byte 0x08
            0x0073dfb6     .string "key pen " ; len=8
            0x0073dfbe      .byte 0x05
            0x0073dfbf     .string "<<low" ; len=5
            0x0073dfc4      .byte 0x06
            0x0073dfc5     .string "<<high" ; len=6
            0x0073dfcb      .byte 0x06
            0x0073dfcc     .string "<<soft" ; len=6
            0x0073dfd2      .byte 0x05
            0x0073dfd3     .string "<<pen" ; len=5
            0x0073dfd8      .byte 0x04
            0x0073dfd9      .byte 0x67
            0x0073dfda      .byte 0x72
            0x0073dfdb      .byte 0x6f
            0x0073dfdc      .byte 0x77
            0x0073dfdd      .byte 0x04
            0x0073dfde      .byte 0x5c
            0x0073dfdf      .byte 0x6e
            0x0073dfe0      .byte 0x3c
            0x0073dfe1      .byte 0x3c
            0x0073dfe2      .byte 0x08
            0x0073dfe3     .string "grow num" ; len=8
            0x0073dfeb      .byte 0x03
            0x0073dfec      .byte 0x72
            0x0073dfed      .byte 0x65
            0x0073dfee      .byte 0x76
            0x0073dfef      .byte 0x06
            0x0073dff0     .string "fields" ; len=6
            0x0073dff6      .byte 0x04
            0x0073dff7      .byte 0x62
            0x0073dff8      .byte 0x6c
            0x0073dff9      .byte 0x75
            0x0073dffa      .byte 0x72
            0x0073dffb      .byte 0x04
            0x0073dffc      .byte 0x5c
            0x0073dffd      .byte 0x6e
            0x0073dffe      .byte 0x3c
            0x0073dfff      .byte 0x3c
            0x0073e000      .byte 0x08
            0x0073e001     .string "blur num" ; len=8
            0x0073e009      .byte 0x06
            0x0073e00a     .string "colour" ; len=6
            0x0073e010      .byte 0x09
            0x0073e011     .string "use keyer" ; len=9
            0x0073e01a      .byte 0x0b
            0x0073e01b     .string "luma chroma" ; len=11
            0x0073e026      .byte 0x0a
            0x0073e027     .string "\n%>bright" ; len=10
            0x0073e031      .byte 0x08
            0x0073e032     .string "\n%>cont" ; len=8
            0x0073e03a      .byte 0x07
            0x0073e03b     .string "\n%>sat" ; len=7
            0x0073e042      .byte 0x06
            0x0073e043     .string "\n>hue" ; len=6
            0x0073e049      .byte 0x05
            0x0073e04a     .string "<cast" ; len=5
            0x0073e04f      .byte 0x06
            0x0073e050     .string "\n%>>R" ; len=6
            0x0073e056      .byte 0x06
            0x0073e057     .string "\n%>>G" ; len=6
            0x0073e05d      .byte 0x06
            0x0073e05e     .string "\n%>>B" ; len=6
            0x0073e064      .byte 0x04
            0x0073e065      .byte 0x67
            0x0073e066      .byte 0x61
            0x0073e067      .byte 0x69
            0x0073e068      .byte 0x6e
            0x0073e069      .byte 0x06
            0x0073e06a     .string "\n%>>R" ; len=6
            0x0073e070      .byte 0x06
            0x0073e071     .string "\n%>>G" ; len=6
            0x0073e077      .byte 0x06
            0x0073e078     .string "\n%>>B" ; len=6
            0x0073e07e      .byte 0x03
            0x0073e07f      .byte 0x6d
            0x0073e080      .byte 0x61
            0x0073e081      .byte 0x70
            0x0073e082      .byte 0x0b
            0x0073e083     .string "<p<o<s<t<er" ; len=11
            0x0073e08e      .byte 0x02
            0x0073e08f      .byte 0x3c
            0x0073e090      .byte 0x3e
            0x0073e091      .byte 0x0c
            0x0073e092     .string "poster value" ; len=12
            0x0073e09e      .byte 0x04
            0x0073e09f      .byte 0x6f
            0x0073e0a0      .byte 0x72
            0x0073e0a1      .byte 0x69
            0x0073e0a2      .byte 0x67
            0x0073e0a3      .byte 0x03
            0x0073e0a4      .byte 0x61
            0x0073e0a5      .byte 0x6c
            0x0073e0a6      .byte 0x6c
            0x0073e0a7      .byte 0x0c
            0x0073e0a8     .string "<<m<o<s<ai<c" ; len=12
            0x0073e0b4      .byte 0x04
            0x0073e0b5      .byte 0x64
            0x0073e0b6      .byte 0x6f
            0x0073e0b7      .byte 0x74
            0x0073e0b8      .byte 0x73
            0x0073e0b9      .byte 0x03
            0x0073e0ba      .byte 0x68
            0x0073e0bb      .byte 0x65
            0x0073e0bc      .byte 0x78
            0x0073e0bd      .byte 0x05
            0x0073e0be     .string "ontop" ; len=5
            0x0073e0c3      .byte 0x03
            0x0073e0c4      .byte 0x75
            0x0073e0c5      .byte 0x70
            0x0073e0c6      .byte 0x64
            0x0073e0c7      .byte 0x04
            0x0073e0c8      .byte 0x73
            0x0073e0c9      .byte 0x61
            0x0073e0ca      .byte 0x6d
            0x0073e0cb      .byte 0x65
            0x0073e0cc      .byte 0x04
            0x0073e0cd      .byte 0x73
            0x0073e0ce      .byte 0x69
            0x0073e0cf      .byte 0x7a
            0x0073e0d0      .byte 0x65
            0x0073e0d1      .byte 0x03
            0x0073e0d2      .byte 0x69
            0x0073e0d3      .byte 0x6e
            0x0073e0d4      .byte 0x63
            0x0073e0d5      .byte 0x05
            0x0073e0d6     .string "<<rnd" ; len=5
            0x0073e0db      .byte 0x06
            0x0073e0dc     .string "<<pres" ; len=6
            0x0073e0e2      .byte 0x0d
            0x0073e0e3     .string "colour fettle" ; len=13
            0x0073e0f0      .byte 0x06
            0x0073e0f1     .string "mosaic" ; len=6
            0x0073e0f7      .byte 0x06
            0x0073e0f8     .string "H <<<<" ; len=6
            0x0073e0fe      .byte 0x06
            0x0073e0ff     .string "V <<<<" ; len=6
            0x0073e105      .byte 0x0a
            0x0073e106     .string "field mode" ; len=10
            0x0073e110      .byte 0x00
            0x0073e111      .byte 0x08
            0x0073e112      .byte 0x00
            0x0073e113      .byte 0x00
            0x0073e114      .byte 0x02
            0x0073e115      .byte 0x31
            0x0073e116      .byte 0x20
            0x0073e117      .byte 0x02
            0x0073e118      .byte 0x32
            0x0073e119      .byte 0x20
            0x0073e11a      .byte 0x10
            0x0073e11b      .byte 0x04
            0x0073e11c      .byte 0x00
            0x0073e11d      .byte 0x00
            0x0073e11e      .byte 0x08
            0x0073e11f     .string "clip bar" ; len=8
            0x0073e127      .byte 0x00
            0x0073e128      .byte 0x00
            0x0073e129      .byte 0x04
            0x0073e12a      .byte 0x00
            0x0073e12b      .byte 0x00
            0x0073e12c      .byte 0x02
            0x0073e12d      .byte 0x3c
            0x0073e12e      .byte 0x3e
            0x0073e12f      .byte 0x0a
            0x0073e130     .string "clip frame" ; len=10
            0x0073e13a      .byte 0x00
            0x0073e13b      .byte 0x04
            0x0073e13c      .byte 0x00
            0x0073e13d      .byte 0x00
            0x0073e13e      .byte 0x05
            0x0073e13f     .string "of>>>" ; len=5
            0x0073e144      .byte 0x02
            0x0073e145      .byte 0x2a
            0x0073e146      .byte 0x2a
            0x0073e147      .byte 0x00
            0x0073e148      .byte 0x00
            0x0073e149      .byte 0x04
            0x0073e14a      .byte 0x00
            0x0073e14b      .byte 0x00
            0x0073e14c      .byte 0x06
            0x0073e14d     .string "<<bgnd" ; len=6
            0x0073e153      .byte 0x00
            0x0073e154      .byte 0x00
            0x0073e155      .byte 0x04
            0x0073e156      .byte 0x00
            0x0073e157      .byte 0x00
            0x0073e158      .byte 0x06
            0x0073e159     .string "<<ne<w" ; len=6
            0x0073e15f      .byte 0x00
            0x0073e160      .byte 0x00
            0x0073e161      .byte 0x04
            0x0073e162      .byte 0x00
            0x0073e163      .byte 0x00
            0x0073e164      .byte 0x08
            0x0073e165      .byte 0x3c
            0x0073e166      .byte 0x64
            0x0073e167      .byte 0x6f
            0x0073e168      .byte 0x3e
            0x0073e169      .byte 0x63
            0x0073e16a      .byte 0x6c
            0x0073e16b      .byte 0x69
            0x0073e16c      .byte 0x70
            0x0073e16d      .byte 0x69
            ; CALL XREF from MENUEFFECTCOM.hit_do_pen @ 0x74515e
            ; CALL XREF from MENUEFFECTCOM.after_sell @ 0x7459aa
 24: MENUEFFECTCOM.check_clips ();
           0x0073e16e      4e56ffba       link.w a6, 0xffba
           0x0073e172      bfd5           cmpa.l (a5), a7
       < 0x0073e174      6206           bhi.b 0x73e17c
          0x0073e176      44fc0002       move.w 0x2, ccr
          0x0073e17a      4e76           trapv
       > 0x0073e17c      defc003e       adda.w 0x3e, a7
           0x0073e180      48e7c3f8       movem.l d0-d1/d6-d7/a0-a4, -(a7)
           0x0073e184      f227e001       fmovem fp0, -(a7)
            0x0073e188      43f900483972   lea.l MENUCOM.set_enable_box, a1
            0x0073e18e      45f90086bbf6   lea.l 0x86bbf6, a2
            0x0073e194      47f90086bbf8   lea.l 0x86bbf8, a3
            0x0073e19a      7201           moveq 0x1, d1
            0x0073e19c      594f           subq.w 0x4, a7
            0x0073e19e      4eb900707d80   jsr GORDON_DUMMY.get_cur_clip
            0x0073e1a4      285f           movea.l (a7)+, a4
            0x0073e1a6      7e00           moveq 0x0, d7
            0x0073e1a8      554f           subq.w 0x2, a7
            0x0073e1aa      486efffe       pea.l -0x2(a6)
            0x0073e1ae      4eb90070821e   jsr DENNIS_DUMMY.e_disk_ok
            0x0073e1b4      584f           addq.w 0x4, a7
            0x0073e1b6      4a1f           tst.b (a7)+
        < 0x0073e1b8      6706           beq.b 0x73e1c0
           0x0073e1ba      b8c1           cmpa.w d1, a4
       < 0x0073e1bc      6702           beq.b 0x73e1c0
          0x0073e1be      5207           addq.b 0x1, d7
       > 0x0073e1c0      b8c1           cmpa.w d1, a4
        < 0x0073e1c2      6604           bne.b 0x73e1c8
           0x0073e1c4      7c00           moveq 0x0, d6
       < 0x0073e1c6      603e           bra.b 0x73e206
       > 0x0073e1c8      7c00           moveq 0x0, d6
           0x0073e1ca      206c0010       movea.l 0x10(a4), a0
           0x0073e1ce      b0c1           cmpa.w d1, a0
       < 0x0073e1d0      6702           beq.b 0x73e1d4
          0x0073e1d2      5206           addq.b 0x1, d6
       > 0x0073e1d4      3f12           move.w (a2), -(a7)
           0x0073e1d6      f22c40000018   fmove.l 0x18(a4), fp0
           0x0073e1dc      f2276400       fmove.s fp0, -(a7)
           0x0073e1e0      4227           clr.b -(a7)
           0x0073e1e2      1f01           move.b d1, -(a7)
           0x0073e1e4      4eb90048da84   jsr MENU2COM.set_numeric_val
           0x0073e1ea      504f           addq.w 0x8, a7
           0x0073e1ec      3e93           move.w (a3), (a7)
           0x0073e1ee      f22c4000001c   fmove.l 0x1c(a4), fp0
           0x0073e1f4      f2276400       fmove.s fp0, -(a7)
           0x0073e1f8      4227           clr.b -(a7)
           0x0073e1fa      1f01           move.b d1, -(a7)
           0x0073e1fc      4eb90048da84   jsr MENU2COM.set_numeric_val
           0x0073e202      defc000a       adda.w 0xa, a7
       > 0x0073e206      3f390086bbf4   move.w 0x86bbf4, -(a7)
            0x0073e20c      1f07           move.b d7, -(a7)
            0x0073e20e      4e91           jsr (a1)                    ; fcn.0000000a
            0x0073e210      544f           addq.w 0x2, a7
            0x0073e212      3e92           move.w (a2), (a7)
            0x0073e214      1f07           move.b d7, -(a7)
            0x0073e216      4e91           jsr (a1)                    ; fcn.0000000a
            0x0073e218      544f           addq.w 0x2, a7
            0x0073e21a      3e93           move.w (a3), (a7)
            0x0073e21c      1f07           move.b d7, -(a7)
            0x0073e21e      4e91           jsr (a1)                    ; fcn.0000000a
            0x0073e220      544f           addq.w 0x2, a7
            0x0073e222      3eb90086bbfa   move.w 0x86bbfa, (a7)
            0x0073e228      1f07           move.b d7, -(a7)
            0x0073e22a      4e91           jsr (a1)                    ; fcn.0000000a
            0x0073e22c      544f           addq.w 0x2, a7
            0x0073e22e      3eb90086bbfc   move.w 0x86bbfc, (a7)
            0x0073e234      1f06           move.b d6, -(a7)
            0x0073e236      cf17           and.b d7, (a7)
            0x0073e238      4e91           jsr (a1)                    ; fcn.0000000a
            0x0073e23a      584f           addq.w 0x4, a7
            0x0073e23c      7c00           moveq 0x0, d6
            0x0073e23e      4a07           tst.b d7
        < 0x0073e240      673c           beq.b 0x73e27e
           0x0073e242      594f           subq.w 0x4, a7
           0x0073e244      4eb900707d9e   jsr GORDON_DUMMY.get_bgnd_clip
           0x0073e24a      205f           movea.l (a7)+, a0
           0x0073e24c      b0c1           cmpa.w d1, a0
       < 0x0073e24e      672e           beq.b 0x73e27e
          0x0073e250      554f           subq.w 0x2, a7
          0x0073e252      3f390086944c   move.w 0x86944c, -(a7)
          0x0073e258      4eb900480fc2   jsr MENUCOM.get_boxon
          0x0073e25e      544f           addq.w 0x2, a7
          0x0073e260      4a1f           tst.b (a7)+
      < 0x0073e262      671a           beq.b 0x73e27e
         0x0073e264      554f           subq.w 0x2, a7
         0x0073e266      3f3900869428   move.w 0x869428, -(a7)
         0x0073e26c      4eb900480fc2   jsr MENUCOM.get_boxon
         0x0073e272      544f           addq.w 0x2, a7
         0x0073e274      101f           move.b (a7)+, d0
         0x0073e276      4400           neg.b d0
         0x0073e278      5200           addq.b 0x1, d0
     < 0x0073e27a      6702           beq.b 0x73e27e
        0x0073e27c      5206           addq.b 0x1, d6
     > 0x0073e27e      3f390086bbfe   move.w 0x86bbfe, -(a7)
            0x0073e284      1f06           move.b d6, -(a7)
            0x0073e286      4e91           jsr (a1)                    ; fcn.0000000a
            0x0073e288      584f           addq.w 0x4, a7
            0x0073e28a      4a06           tst.b d6
        < 0x0073e28c      6610           bne.b 0x73e29e
           0x0073e28e      3f390086bbfe   move.w 0x86bbfe, -(a7)
           0x0073e294      4227           clr.b -(a7)
           0x0073e296      4eb900483776   jsr MENUCOM.swtch_box
           0x0073e29c      584f           addq.w 0x4, a7
        > 0x0073e29e      f21fd080       fmovem (a7)+, fp0
            0x0073e2a2      4cdf1fc3       movem.l (a7)+, d0-d1/d6-d7/a0-a4
            0x0073e2a6      4e5e           unlk a6
            0x0073e2a8      4e75           rts
            ; CALL XREF from K91_LIBOPS.k91_overlay @ 0x64ea62
            ; CALL XREF from MENUEFFECTCOM.do_overlayer @ 0x743a36
 24: MENUEFFECTCOM.fx_overlay ();
           0x0073e2aa      4e56ff8a       link.w a6, 0xff8a
           0x0073e2ae      bfd5           cmpa.l (a5), a7
       < 0x0073e2b0      6206           bhi.b 0x73e2b8
          0x0073e2b2      44fc0002       move.w 0x2, ccr
          0x0073e2b6      4e76           trapv
       > 0x0073e2b8      defc0072       adda.w 0x72, a7
           0x0073e2bc      48e7fff8       movem.l d0-d7/a0-a4, -(a7)
           0x0073e2c0      f227e001       fmovem fp0, -(a7)
            0x0073e2c4      43f9008693f2   lea.l 0x8693f2, a1
            0x0073e2ca      45ee0008       lea.l 0x8(a6), a2
            0x0073e2ce      47ee000a       lea.l 0xa(a6), a3
            0x0073e2d2      49f90051f338   lea.l BRUSHCOM.b_control_state, a4
            0x0073e2d8      2a3c000000ff   move.l 0xff, d5
            0x0073e2de      7c0a           moveq 0xa, d6
            0x0073e2e0      3013           move.w (a3), d0
            0x0073e2e2      b052           cmp.w (a2), d0
        < 0x0073e2e4      6200008c       bhi.w 0x73e372
           0x0073e2e8      4a40           tst.w d0
           0x0073e2ea      02800000ffff   andi.l 0xffff, d0
           0x0073e2f0      2f00           move.l d0, -(a7)
           0x0073e2f2      5397           subq.l 0x1, (a7)
           0x0073e2f4      7e00           moveq 0x0, d7
       > 0x0073e2f6      be6f0002       cmp.w 0x2(a7), d7
      < 0x0073e2fa      6e0c           bgt.b 0x73e308
         0x0073e2fc      2049           movea.l a1, a0
         0x0073e2fe      423071202816   clr.b 0x2816(a0, d7.w)
         0x0073e304      5247           addq.w 0x1, d7
      < 0x0073e306      68ee           bvc.b 0x73e2f6
      > 0x0073e308      584f           addq.w 0x4, a7
           0x0073e30a      3213           move.w (a3), d1
           0x0073e30c      b252           cmp.w (a2), d1
       < 0x0073e30e      674c           beq.b 0x73e35c
          0x0073e310      4282           clr.l d2
          0x0073e312      3412           move.w (a2), d2
          0x0073e314      4283           clr.l d3
          0x0073e316      3613           move.w (a3), d3
          0x0073e318      9483           sub.l d3, d2
          0x0073e31a      4284           clr.l d4
          0x0073e31c      3812           move.w (a2), d4
          0x0073e31e      5384           subq.l 0x1, d4
          0x0073e320      2f04           move.l d4, -(a7)
          0x0073e322      3e01           move.w d1, d7
      > 0x0073e324      be6f0002       cmp.w 0x2(a7), d7
     < 0x0073e328      6e30           bgt.b 0x73e35a
        0x0073e32a      2049           movea.l a1, a0
        0x0073e32c      48c7           ext.l d7
        0x0073e32e      2807           move.l d7, d4
        0x0073e330      9883           sub.l d3, d4
        0x0073e332      4c054800       muls.l d5, d4
        0x0073e336      594f           subq.w 0x4, a7
        0x0073e338      f2044000       fmove.l d4, fp0
        0x0073e33c      f2024020       fdiv.l d2, fp0
        0x0073e340      f2276400       fmove.s fp0, -(a7)
        0x0073e344      4eb9004081d2   jsr p_round
        0x0073e34a      584f           addq.w 0x4, a7
        0x0073e34c      11af00037120.  move.b 0x3(a7), 0x2816(a0, d7.w)
        0x0073e354      584f           addq.w 0x4, a7
        0x0073e356      5247           addq.w 0x1, d7
     < 0x0073e358      68ca           bvc.b 0x73e324
     > 0x0073e35a      584f           addq.w 0x4, a7
       > 0x0073e35c      3e12           move.w (a2), d7
       > 0x0073e35e      be45           cmp.w d5, d7
      < 0x0073e360      6e0c           bgt.b 0x73e36e
         0x0073e362      2049           movea.l a1, a0
         0x0073e364      118571202816   move.b d5, 0x2816(a0, d7.w)
         0x0073e36a      5247           addq.w 0x1, d7
      < 0x0073e36c      68f0           bvc.b 0x73e35e
      < 0x0073e36e      60000086       bra.w 0x73e3f6
       > 0x0073e372      4a52           tst.w (a2)
           0x0073e374      4280           clr.l d0
           0x0073e376      3012           move.w (a2), d0
           0x0073e378      5380           subq.l 0x1, d0
           0x0073e37a      2f00           move.l d0, -(a7)
           0x0073e37c      7e00           moveq 0x0, d7
       > 0x0073e37e      be6f0002       cmp.w 0x2(a7), d7
      < 0x0073e382      6e0c           bgt.b 0x73e390
         0x0073e384      2049           movea.l a1, a0
         0x0073e386      118571202816   move.b d5, 0x2816(a0, d7.w)
         0x0073e38c      5247           addq.w 0x1, d7
      < 0x0073e38e      68ee           bvc.b 0x73e37e
      > 0x0073e390      584f           addq.w 0x4, a7
           0x0073e392      4280           clr.l d0
           0x0073e394      3013           move.w (a3), d0
           0x0073e396      4281           clr.l d1
           0x0073e398      3212           move.w (a2), d1
           0x0073e39a      9081           sub.l d1, d0
           0x0073e39c      2f00           move.l d0, -(a7)
           0x0073e39e      4282           clr.l d2
           0x0073e3a0      3413           move.w (a3), d2
           0x0073e3a2      5382           subq.l 0x1, d2
           0x0073e3a4      2f02           move.l d2, -(a7)
           0x0073e3a6      3e12           move.w (a2), d7
       > 0x0073e3a8      be6f0002       cmp.w 0x2(a7), d7
      < 0x0073e3ac      6e34           bgt.b 0x73e3e2
         0x0073e3ae      2049           movea.l a1, a0
         0x0073e3b0      48c7           ext.l d7
         0x0073e3b2      2407           move.l d7, d2
         0x0073e3b4      9481           sub.l d1, d2
         0x0073e3b6      4c052800       muls.l d5, d2
         0x0073e3ba      594f           subq.w 0x4, a7
         0x0073e3bc      f2024000       fmove.l d2, fp0
         0x0073e3c0      f2004020       fdiv.l d0, fp0
         0x0073e3c4      f2276400       fmove.s fp0, -(a7)
         0x0073e3c8      4eb9004081d2   jsr p_round
         0x0073e3ce      584f           addq.w 0x4, a7
         0x0073e3d0      2005           move.l d5, d0
         0x0073e3d2      909f           sub.l (a7)+, d0
         0x0073e3d4      118071202816   move.b d0, 0x2816(a0, d7.w)
         0x0073e3da      202f0004       move.l 0x4(a7), d0
         0x0073e3de      5247           addq.w 0x1, d7
      < 0x0073e3e0      68c6           bvc.b 0x73e3a8
      > 0x0073e3e2      504f           addq.w 0x8, a7
           0x0073e3e4      3e13           move.w (a3), d7
       > 0x0073e3e6      be45           cmp.w d5, d7
      < 0x0073e3e8      6e0c           bgt.b 0x73e3f6
         0x0073e3ea      2049           movea.l a1, a0
         0x0073e3ec      423071202816   clr.b 0x2816(a0, d7.w)
         0x0073e3f2      5247           addq.w 0x1, d7
      < 0x0073e3f4      68f0           bvc.b 0x73e3e6
      > 0x0073e3f6      4a2e000c       tst.b 0xc(a6)
        < 0x0073e3fa      6634           bne.b 0x73e430
           0x0073e3fc      554f           subq.w 0x2, a7
           0x0073e3fe      2f2e0012       move.l 0x12(a6), -(a7)
           0x0073e402      2f2e000e       move.l 0xe(a6), -(a7)
           0x0073e406      41f90086bc08   lea.l 0x86bc08, a0
           0x0073e40c      2f08           move.l a0, -(a7)
           0x0073e40e      9ec6           suba.w d6, a7
           0x0073e410      3f3c0038       move.w 0x38, -(a7)
           0x0073e414      4e94           jsr (a4)                    ; fcn.0000000d
           0x0073e416      514f           subq.w 0x8, a7
           0x0073e418      3f3c0045       move.w 0x45, -(a7)
           0x0073e41c      4e94           jsr (a4)                    ; fcn.0000000d
           0x0073e41e      514f           subq.w 0x8, a7
           0x0073e420      3f3c00aa       move.w 0xaa, -(a7)
           0x0073e424      4e94           jsr (a4)                    ; fcn.0000000d
           0x0073e426      544f           addq.w 0x2, a7
           0x0073e428      4eb900516dbc   jsr 0x516dbc
       < 0x0073e42e      6056           bra.b 0x73e486
       > 0x0073e430      102e000c       move.b 0xc(a6), d0
           0x0073e434      0c000003       cmpi.b 0x3, d0
       < 0x0073e438      661a           bne.b 0x73e454
          0x0073e43a      554f           subq.w 0x2, a7
          0x0073e43c      2f2e0012       move.l 0x12(a6), -(a7)
          0x0073e440      2f2e000e       move.l 0xe(a6), -(a7)
          0x0073e444      41f90086bc08   lea.l 0x86bc08, a0
          0x0073e44a      2f08           move.l a0, -(a7)
          0x0073e44c      9ec6           suba.w d6, a7
          0x0073e44e      3f3c0037       move.w 0x37, -(a7)
      < 0x0073e452      6018           bra.b 0x73e46c
      > 0x0073e454      554f           subq.w 0x2, a7
          0x0073e456      2f2e0012       move.l 0x12(a6), -(a7)
          0x0073e45a      2f2e000e       move.l 0xe(a6), -(a7)
          0x0073e45e      41f90086bc08   lea.l 0x86bc08, a0
          0x0073e464      2f08           move.l a0, -(a7)
          0x0073e466      9ec6           suba.w d6, a7
          0x0073e468      3f3c0036       move.w 0x36, -(a7)
      > 0x0073e46c      4e94           jsr (a4)                    ; fcn.0000000d
           0x0073e46e      514f           subq.w 0x8, a7
           0x0073e470      3f3c0045       move.w 0x45, -(a7)
           0x0073e474      4e94           jsr (a4)                    ; fcn.0000000d
           0x0073e476      514f           subq.w 0x8, a7
           0x0073e478      3f3c00aa       move.w 0xaa, -(a7)
           0x0073e47c      4e94           jsr (a4)                    ; fcn.0000000d
           0x0073e47e      544f           addq.w 0x2, a7
           0x0073e480      4eb900516b42   jsr 0x516b42
       > 0x0073e486      defc002a       adda.w 0x2a, a7
            0x0073e48a      1e1f           move.b (a7)+, d7
            0x0073e48c      1d470016       move.b d7, 0x16(a6)
            0x0073e490      f21fd080       fmovem (a7)+, fp0
            0x0073e494      4cdf1fff       movem.l (a7)+, d0-d7/a0-a4
            0x0073e498      4e5e           unlk a6
            0x0073e49a      4e75           rts
            ; XREFS: CALL 0x0073e638  CALL 0x0073eafc  CALL 0x0073fbc6  
            ; XREFS: CALL 0x007417b4  CALL 0x007421e8  CALL 0x007428bc  
 106: MENUEFFECTCOM.allocate_effect ();
           0x0073e49c      4e56ffe4       link.w a6, 0xffe4
           0x0073e4a0      bfd5           cmpa.l (a5), a7
       < 0x0073e4a2      6206           bhi.b 0x73e4aa
          0x0073e4a4      44fc0002       move.w 0x2, ccr
          0x0073e4a8      4e76           trapv
       > 0x0073e4aa      defc001c       adda.w 0x1c, a7
           0x0073e4ae      48e780c0       movem.l d0/a0-a1, -(a7)
           0x0073e4b2      41f900869422   lea.l 0x869422, a0
           0x0073e4b8      43f900869412   lea.l 0x869412, a1
           0x0073e4be      48780001       pea.l 0x1
           0x0073e4c2      2010           move.l (a0), d0
           0x0073e4c4      b09f           cmp.l (a7)+, d0
       < 0x0073e4c6      670a           beq.b 0x73e4d2
          0x0073e4c8      4850           pea.l (a0)
          0x0073e4ca      4eb900632826   jsr CACHECOM.remove_cache_re
          0x0073e4d0      584f           addq.w 0x4, a7
       > 0x0073e4d2      514f           subq.w 0x8, a7
           0x0073e4d4      4227           clr.b -(a7)
           0x0073e4d6      4eb9006336ea   jsr HANDCOM.get_area
           0x0073e4dc      544f           addq.w 0x2, a7
           0x0073e4de      229f           move.l (a7)+, (a1)
           0x0073e4e0      23d700869416   move.l (a7), 0x869416
           0x0073e4e6      4217           clr.b (a7)
           0x0073e4e8      4850           pea.l (a0)
           0x0073e4ea      4851           pea.l (a1)
           0x0073e4ec      4eb900632858   jsr CACHECOM.new_cache_rec
           0x0073e4f2      defc000a       adda.w 0xa, a7
           0x0073e4f6      4eb90040452a   jsr p_Assert
           0x0073e4fc      544f           addq.w 0x2, a7
           0x0073e4fe      4cdf0301       movem.l (a7)+, d0/a0-a1
           0x0073e502      4e5e           unlk a6
           0x0073e504      4e75           rts
            ; CALL XREF from MENUEFFECTCOM.do_key @ 0x73fd92
 204: MENUEFFECTCOM.bgnd_clip_buy ();
           0x0073e506      4e56ffb4       link.w a6, 0xffb4
           0x0073e50a      bfd5           cmpa.l (a5), a7
       < 0x0073e50c      6206           bhi.b 0x73e514
          0x0073e50e      44fc0002       move.w 0x2, ccr
          0x0073e512      4e76           trapv
       > 0x0073e514      defc0048       adda.w 0x48, a7
           0x0073e518      48e7e088       movem.l d0-d2/a0/a4, -(a7)
           0x0073e51c      41ee0012       lea.l 0x12(a6), a0
           0x0073e520      7201           moveq 0x1, d1
           0x0073e522      740e           moveq 0xe, d2
           0x0073e524      594f           subq.w 0x4, a7
           0x0073e526      4eb900707d9e   jsr GORDON_DUMMY.get_bgnd_clip
           0x0073e52c      285f           movea.l (a7)+, a4
           0x0073e52e      b8c1           cmpa.w d1, a4
       < 0x0073e530      67000098       beq.w 0x73e5ca
          0x0073e534      3010           move.w (a0), d0
          0x0073e536      48c0           ext.l d0
          0x0073e538      b0ac0020       cmp.l 0x20(a4), d0
      < 0x0073e53c      6c02           bge.b 0x73e540
     < 0x0073e53e      6006           bra.b 0x73e546
     > 0x0073e540      b0ac0024       cmp.l 0x24(a4), d0
     < 0x0073e544      6f04           ble.b 0x73e54a
     > 0x0073e546      30ac0022       move.w 0x22(a4), (a0)
      > 0x0073e54a      554f           subq.w 0x2, a7
          0x0073e54c      1f01           move.b d1, -(a7)
          0x0073e54e      2f0c           move.l a4, -(a7)
          0x0073e550      3010           move.w (a0), d0
          0x0073e552      48c0           ext.l d0
          0x0073e554      2f00           move.l d0, -(a7)
          0x0073e556      4227           clr.b -(a7)
          0x0073e558      4227           clr.b -(a7)
          0x0073e55a      4eb900707e3a   jsr GORDON_DUMMY.clip_buy
          0x0073e560      dec2           adda.w d2, a7
          0x0073e562      4a1f           tst.b (a7)+
          0x0073e564      4a2e0010       tst.b 0x10(a6)
      < 0x0073e568      671c           beq.b 0x73e586
         0x0073e56a      554f           subq.w 0x2, a7
         0x0073e56c      4227           clr.b -(a7)
         0x0073e56e      2f0c           move.l a4, -(a7)
         0x0073e570      3010           move.w (a0), d0
         0x0073e572      48c0           ext.l d0
         0x0073e574      5280           addq.l 0x1, d0
         0x0073e576      2f00           move.l d0, -(a7)
         0x0073e578      4227           clr.b -(a7)
         0x0073e57a      4227           clr.b -(a7)
         0x0073e57c      4eb900707e3a   jsr GORDON_DUMMY.clip_buy
         0x0073e582      dec2           adda.w d2, a7
         0x0073e584      4a1f           tst.b (a7)+
      > 0x0073e586      554f           subq.w 0x2, a7
          0x0073e588      3f3af4fc       move.w 0x73da86(pc), -(a7)
          0x0073e58c      4227           clr.b -(a7)
          0x0073e58e      2f2e000c       move.l 0xc(a6), -(a7)
          0x0073e592      2f2e0008       move.l 0x8(a6), -(a7)
          0x0073e596      2f3af4f4       move.l 0x73da8c(pc), -(a7)
          0x0073e59a      2f3af4ec       move.l 0x73da88(pc), -(a7)
          0x0073e59e      2f3af4f0       move.l 0x73da90(pc), -(a7)
          0x0073e5a2      1f01           move.b d1, -(a7)
          0x0073e5a4      486d0010       pea.l 0x10(a5)
          0x0073e5a8      487900707e84   pea.l GORDON_DUMMY.clip_reset
          0x0073e5ae      486d0010       pea.l 0x10(a5)
          0x0073e5b2      487900520728   pea.l BRUSHCOM.br_do_nothing
          0x0073e5b8      48790086bd09   pea.l 0x86bd09
          0x0073e5be      4eb900520734   jsr BRUSHCOM.br_disk_live
          0x0073e5c4      defc002e       adda.w 0x2e, a7
          0x0073e5c8      4a1f           tst.b (a7)+
       > 0x0073e5ca      4cdf1107       movem.l (a7)+, d0-d2/a0/a4
           0x0073e5ce      4e5e           unlk a6
           0x0073e5d0      4e75           rts
            ; CALL XREF from MENUEFFECTCOM.update_clip_fra @ 0x744eb8
 750: MENUEFFECTCOM.effect_clip_buy ();
           0x0073e5d2      4e56ff74       link.w a6, 0xff74
           0x0073e5d6      bfd5           cmpa.l (a5), a7
       < 0x0073e5d8      6206           bhi.b 0x73e5e0
          0x0073e5da      44fc0002       move.w 0x2, ccr
          0x0073e5de      4e76           trapv
       > 0x0073e5e0      defc0068       adda.w 0x68, a7
           0x0073e5e4      48e7fff8       movem.l d0-d7/a0-a4, -(a7)
           0x0073e5e8      43f900869412   lea.l 0x869412, a1
           0x0073e5ee      45ee000a       lea.l 0xa(a6), a2
           0x0073e5f2      47f900707e3a   lea.l GORDON_DUMMY.clip_buy, a3
           0x0073e5f8      760e           moveq 0xe, d3
           0x0073e5fa      7801           moveq 0x1, d4
           0x0073e5fc      7a02           moveq 0x2, d5
           0x0073e5fe      594f           subq.w 0x4, a7
           0x0073e600      4eb900707d80   jsr GORDON_DUMMY.get_cur_clip
           0x0073e606      285f           movea.l (a7)+, a4
           0x0073e608      7c00           moveq 0x0, d6
           0x0073e60a      206c0014       movea.l 0x14(a4), a0
           0x0073e60e      b0c4           cmpa.w d4, a0
       < 0x0073e610      6726           beq.b 0x73e638
          0x0073e612      554f           subq.w 0x2, a7
          0x0073e614      3f3c001f       move.w 0x1f, -(a7)
          0x0073e618      4eb900480fc2   jsr MENUCOM.get_boxon
          0x0073e61e      3f3c002c       move.w 0x2c, -(a7)
          0x0073e622      4eb900480fc2   jsr MENUCOM.get_boxon
          0x0073e628      544f           addq.w 0x2, a7
          0x0073e62a      102f0002       move.b 0x2(a7), d0
          0x0073e62e      801f           or.b (a7)+, d0
          0x0073e630      544f           addq.w 0x2, a7
          0x0073e632      4a00           tst.b d0
      < 0x0073e634      6702           beq.b 0x73e638
         0x0073e636      5206           addq.b 0x1, d6
      > 0x0073e638      4ebafe62       jsr MENUEFFECTCOM.allocate_effect(pc)
           0x0073e63c      554f           subq.w 0x2, a7
           0x0073e63e      3f390086bbfc   move.w 0x86bbfc, -(a7)
           0x0073e644      4eb900480f72   jsr MENUCOM.active_box
           0x0073e64a      544f           addq.w 0x2, a7
           0x0073e64c      4a1f           tst.b (a7)+
       < 0x0073e64e      6704           beq.b 0x73e654
          0x0073e650      7e01           moveq 0x1, d7
      < 0x0073e652      6002           bra.b 0x73e656
      > 0x0073e654      7e00           moveq 0x0, d7
      > 0x0073e656      4a06           tst.b d6
       < 0x0073e658      670000aa       beq.w 0x73e704
          0x0073e65c      554f           subq.w 0x2, a7
          0x0073e65e      1f05           move.b d5, -(a7)
          0x0073e660      2f0c           move.l a4, -(a7)
          0x0073e662      302e000c       move.w 0xc(a6), d0
          0x0073e666      48c0           ext.l d0
          0x0073e668      2f00           move.l d0, -(a7)
          0x0073e66a      1f05           move.b d5, -(a7)
          0x0073e66c      1f12           move.b (a2), -(a7)
          0x0073e66e      4e93           jsr (a3)                    ; fcn.0000000c
          0x0073e670      dec3           adda.w d3, a7
          0x0073e672      4a1f           tst.b (a7)+
      < 0x0073e674      6764           beq.b 0x73e6da
         0x0073e676      554f           subq.w 0x2, a7
         0x0073e678      4227           clr.b -(a7)
         0x0073e67a      2f0c           move.l a4, -(a7)
         0x0073e67c      302e000c       move.w 0xc(a6), d0
         0x0073e680      48c0           ext.l d0
         0x0073e682      2f00           move.l d0, -(a7)
         0x0073e684      1f07           move.b d7, -(a7)
         0x0073e686      1f12           move.b (a2), -(a7)
         0x0073e688      4e93           jsr (a3)                    ; fcn.0000000c
         0x0073e68a      dec3           adda.w d3, a7
         0x0073e68c      4a1f           tst.b (a7)+
         0x0073e68e      554f           subq.w 0x2, a7
         0x0073e690      3f3af402       move.w 0x73da94(pc), -(a7)
         0x0073e694      1f04           move.b d4, -(a7)
         0x0073e696      2f3900869416   move.l 0x869416, -(a7)
         0x0073e69c      2f11           move.l (a1), -(a7)
         0x0073e69e      514f           subq.w 0x8, a7
         0x0073e6a0      4227           clr.b -(a7)
         0x0073e6a2      4eb9006336ea   jsr HANDCOM.get_area
         0x0073e6a8      544f           addq.w 0x2, a7
         0x0073e6aa      2f3af3ea       move.l 0x73da96(pc), -(a7)
         0x0073e6ae      1f04           move.b d4, -(a7)
         0x0073e6b0      486d0010       pea.l 0x10(a5)
         0x0073e6b4      487900707e84   pea.l GORDON_DUMMY.clip_reset
         0x0073e6ba      486d0010       pea.l 0x10(a5)
         0x0073e6be      487900520728   pea.l BRUSHCOM.br_do_nothing
         0x0073e6c4      48790086bd09   pea.l 0x86bd09
         0x0073e6ca      4eb900520734   jsr BRUSHCOM.br_disk_live
         0x0073e6d0      defc002e       adda.w 0x2e, a7
         0x0073e6d4      4a1f           tst.b (a7)+
     < 0x0073e6d6      672c           beq.b 0x73e704
    < 0x0073e6d8      602a           bra.b 0x73e704
    > 0x0073e6da      2f3af2d2       move.l 0x73d9ae(pc), -(a7)
        0x0073e6de      3f3af2cc       move.w 0x73d9ac(pc), -(a7)
        0x0073e6e2      4eb900520fa4   jsr BRUSHCOM.set_br_colour
        0x0073e6e8      584f           addq.w 0x4, a7
        0x0073e6ea      1e85           move.b d5, (a7)
        0x0073e6ec      1f04           move.b d4, -(a7)
        0x0073e6ee      514f           subq.w 0x8, a7
        0x0073e6f0      4227           clr.b -(a7)
        0x0073e6f2      4eb9006336ea   jsr HANDCOM.get_area
        0x0073e6f8      544f           addq.w 0x2, a7
        0x0073e6fa      4eb9005213b4   jsr BRUSHCOM.br_wipe
        0x0073e700      defc000c       adda.w 0xc, a7
    > 0x0073e704      554f           subq.w 0x2, a7
           0x0073e706      1f04           move.b d4, -(a7)
           0x0073e708      2f0c           move.l a4, -(a7)
           0x0073e70a      302e000c       move.w 0xc(a6), d0
           0x0073e70e      48c0           ext.l d0
           0x0073e710      2f00           move.l d0, -(a7)
           0x0073e712      1f07           move.b d7, -(a7)
           0x0073e714      1f12           move.b (a2), -(a7)
           0x0073e716      4e93           jsr (a3)                    ; fcn.0000000c
           0x0073e718      dec3           adda.w d3, a7
           0x0073e71a      4a1f           tst.b (a7)+
           0x0073e71c      302e000c       move.w 0xc(a6), d0
           0x0073e720      48c0           ext.l d0
           0x0073e722      29400018       move.l d0, 0x18(a4)
           0x0073e726      4a2e0008       tst.b 0x8(a6)
       < 0x0073e72a      672c           beq.b 0x73e758
          0x0073e72c      4a06           tst.b d6
      < 0x0073e72e      6714           beq.b 0x73e744
         0x0073e730      554f           subq.w 0x2, a7
         0x0073e732      4227           clr.b -(a7)
         0x0073e734      2f0c           move.l a4, -(a7)
         0x0073e736      2f00           move.l d0, -(a7)
         0x0073e738      5297           addq.l 0x1, (a7)
         0x0073e73a      1f05           move.b d5, -(a7)
         0x0073e73c      1f12           move.b (a2), -(a7)
         0x0073e73e      4e93           jsr (a3)                    ; fcn.0000000c
         0x0073e740      dec3           adda.w d3, a7
         0x0073e742      4a1f           tst.b (a7)+
      > 0x0073e744      554f           subq.w 0x2, a7
          0x0073e746      4227           clr.b -(a7)
          0x0073e748      2f0c           move.l a4, -(a7)
          0x0073e74a      2f00           move.l d0, -(a7)
          0x0073e74c      5297           addq.l 0x1, (a7)
          0x0073e74e      1f07           move.b d7, -(a7)
          0x0073e750      1f12           move.b (a2), -(a7)
          0x0073e752      4e93           jsr (a3)                    ; fcn.0000000c
          0x0073e754      dec3           adda.w d3, a7
          0x0073e756      4a1f           tst.b (a7)+
       > 0x0073e758      554f           subq.w 0x2, a7
           0x0073e75a      3f3af33e       move.w 0x73da9a(pc), -(a7)
           0x0073e75e      4227           clr.b -(a7)
           0x0073e760      2f3900869416   move.l 0x869416, -(a7)
           0x0073e766      2f11           move.l (a1), -(a7)
           0x0073e768      514f           subq.w 0x8, a7
           0x0073e76a      4227           clr.b -(a7)
           0x0073e76c      4eb9006336ea   jsr HANDCOM.get_area
           0x0073e772      544f           addq.w 0x2, a7
           0x0073e774      2f3af326       move.l 0x73da9c(pc), -(a7)
           0x0073e778      1f04           move.b d4, -(a7)
           0x0073e77a      486d0010       pea.l 0x10(a5)
           0x0073e77e      487900707e84   pea.l GORDON_DUMMY.clip_reset
           0x0073e784      486d0010       pea.l 0x10(a5)
           0x0073e788      487900520728   pea.l BRUSHCOM.br_do_nothing
           0x0073e78e      48790086bd09   pea.l 0x86bd09
           0x0073e794      4eb900520734   jsr BRUSHCOM.br_disk_live
           0x0073e79a      defc002e       adda.w 0x2e, a7
           0x0073e79e      4a1f           tst.b (a7)+
           0x0073e7a0      1012           move.b (a2), d0
           0x0073e7a2      4880           ext.w d0
           0x0073e7a4      013af2fa       btst.l d0, 0x73daa0(pc)
       < 0x0073e7a8      6700010e       beq.w 0x73e8b8
          0x0073e7ac      514f           subq.w 0x8, a7
          0x0073e7ae      4227           clr.b -(a7)
          0x0073e7b0      4eb9006336ea   jsr HANDCOM.get_area
          0x0073e7b6      544f           addq.w 0x2, a7
          0x0073e7b8      2d5ffff0       move.l (a7)+, -0x10(a6)
          0x0073e7bc      2d5ffff4       move.l (a7)+, -0xc(a6)
          0x0073e7c0      3d51fff8       move.w (a1), -0x8(a6)
          0x0073e7c4      3d51fffc       move.w (a1), -0x4(a6)
          0x0073e7c8      b004           cmp.b d4, d0
      < 0x0073e7ca      6620           bne.b 0x73e7ec
         0x0073e7cc      323900869414   move.w 0x869414, d1
         0x0073e7d2      48c1           ext.l d1
         0x0073e7d4      2401           move.l d1, d2
         0x0073e7d6      5482           addq.l 0x2, d2
         0x0073e7d8      3d42fffa       move.w d2, -0x6(a6)
         0x0073e7dc      342efff2       move.w -0xe(a6), d2
         0x0073e7e0      48c2           ext.l d2
         0x0073e7e2      5282           addq.l 0x1, d2
         0x0073e7e4      3d42fff2       move.w d2, -0xe(a6)
         0x0073e7e8      5281           addq.l 0x1, d1
     < 0x0073e7ea      601e           bra.b 0x73e80a
     > 0x0073e7ec      323900869414   move.w 0x869414, d1
         0x0073e7f2      48c1           ext.l d1
         0x0073e7f4      2401           move.l d1, d2
         0x0073e7f6      5282           addq.l 0x1, d2
         0x0073e7f8      3d42fffa       move.w d2, -0x6(a6)
         0x0073e7fc      342efff2       move.w -0xe(a6), d2
         0x0073e800      48c2           ext.l d2
         0x0073e802      5482           addq.l 0x2, d2
         0x0073e804      3d42fff2       move.w d2, -0xe(a6)
         0x0073e808      5481           addq.l 0x2, d1
     > 0x0073e80a      3d41fffe       move.w d1, -0x2(a6)
          0x0073e80e      4a06           tst.b d6
      < 0x0073e810      6756           beq.b 0x73e868
         0x0073e812      9efc000a       suba.w 0xa, a7
         0x0073e816      3f3c0033       move.w 0x33, -(a7)
         0x0073e81a      4eb90051f338   jsr BRUSHCOM.b_control_state
         0x0073e820      3ebc8000       move.w 0x8000, (a7)
         0x0073e824      3f3c4000       move.w 0x4000, -(a7)
         0x0073e828      2f2efff8       move.l -0x8(a6), -(a7)
         0x0073e82c      2f2efff4       move.l -0xc(a6), -(a7)
         0x0073e830      2f2efff0       move.l -0x10(a6), -(a7)
         0x0073e834      4eb900708018   jsr GORDON_DUMMY.gord_field_copy
         0x0073e83a      dec3           adda.w d3, a7
         0x0073e83c      3ebc0035       move.w 0x35, (a7)
         0x0073e840      4eb90051f338   jsr BRUSHCOM.b_control_state
         0x0073e846      3ebc8000       move.w 0x8000, (a7)
         0x0073e84a      3f3c4000       move.w 0x4000, -(a7)
         0x0073e84e      2f2efff8       move.l -0x8(a6), -(a7)
         0x0073e852      2f2efff4       move.l -0xc(a6), -(a7)
         0x0073e856      2f2efff0       move.l -0x10(a6), -(a7)
         0x0073e85a      4eb900708018   jsr GORDON_DUMMY.gord_field_copy
         0x0073e860      dec3           adda.w d3, a7
         0x0073e862      3ebc006d       move.w 0x6d, (a7)
     < 0x0073e866      602e           bra.b 0x73e896
     > 0x0073e868      9efc000a       suba.w 0xa, a7
         0x0073e86c      3f3c0035       move.w 0x35, -(a7)
         0x0073e870      4eb90051f338   jsr BRUSHCOM.b_control_state
         0x0073e876      3ebc8000       move.w 0x8000, (a7)
         0x0073e87a      3f3c4000       move.w 0x4000, -(a7)
         0x0073e87e      2f2efff8       move.l -0x8(a6), -(a7)
         0x0073e882      2f2efff4       move.l -0xc(a6), -(a7)
         0x0073e886      2f2efff0       move.l -0x10(a6), -(a7)
         0x0073e88a      4eb900708018   jsr GORDON_DUMMY.gord_field_copy
         0x0073e890      dec3           adda.w d3, a7
         0x0073e892      3ebc0061       move.w 0x61, (a7)
     > 0x0073e896      4eb90051f338   jsr BRUSHCOM.b_control_state
          0x0073e89c      4257           clr.w (a7)
          0x0073e89e      3f3c4000       move.w 0x4000, -(a7)
          0x0073e8a2      2f2efffc       move.l -0x4(a6), -(a7)
          0x0073e8a6      2f2efff4       move.l -0xc(a6), -(a7)
          0x0073e8aa      2f2efff0       move.l -0x10(a6), -(a7)
          0x0073e8ae      4eb900708018   jsr GORDON_DUMMY.gord_field_copy
          0x0073e8b4      defc001a       adda.w 0x1a, a7
       > 0x0073e8b8      4cdf1fff       movem.l (a7)+, d0-d7/a0-a4
           0x0073e8bc      4e5e           unlk a6
           0x0073e8be      4e75           rts
            ; CALL XREF from MENUEFFECTCOM.do_hicon @ 0x73ebca
            ; CALL XREF from MENUEFFECTCOM.hit_do_pen @ 0x74517a
 112: MENUEFFECTCOM.hicon_set_out ();
           0x0073e8c0      4e56fff4       link.w a6, 0xfff4
           0x0073e8c4      bfd5           cmpa.l (a5), a7
       < 0x0073e8c6      6206           bhi.b 0x73e8ce
          0x0073e8c8      44fc0002       move.w 0x2, ccr
          0x0073e8cc      4e76           trapv
       > 0x0073e8ce      defc000c       adda.w 0xc, a7
           0x0073e8d2      48e70080       movem.l a0, -(a7)
           0x0073e8d6      41f900480fc2   lea.l MENUCOM.get_boxon, a0
           0x0073e8dc      554f           subq.w 0x2, a7
           0x0073e8de      3f3900869428   move.w 0x869428, -(a7)
           0x0073e8e4      4e90           jsr (a0)                    ; fcn.00000009
           0x0073e8e6      544f           addq.w 0x2, a7
           0x0073e8e8      4a1f           tst.b (a7)+
       < 0x0073e8ea      6708           beq.b 0x73e8f4
          0x0073e8ec      4eb900518f96   jsr OUTCOM.normal_set_out
      < 0x0073e8f2      6034           bra.b 0x73e928
      > 0x0073e8f4      554f           subq.w 0x2, a7
          0x0073e8f6      3f3c0042       move.w 0x42, -(a7)
          0x0073e8fa      4e90           jsr (a0)                    ; fcn.00000009
          0x0073e8fc      544f           addq.w 0x2, a7
          0x0073e8fe      4a1f           tst.b (a7)+
      < 0x0073e900      6706           beq.b 0x73e908
         0x0073e902      1f3c002b       move.b 0x2b, -(a7)
     < 0x0073e906      6018           bra.b 0x73e920
     > 0x0073e908      554f           subq.w 0x2, a7
         0x0073e90a      3f3c0043       move.w 0x43, -(a7)
         0x0073e90e      4e90           jsr (a0)                    ; fcn.00000009
         0x0073e910      544f           addq.w 0x2, a7
         0x0073e912      4a1f           tst.b (a7)+
     < 0x0073e914      6706           beq.b 0x73e91c
        0x0073e916      1f3c002c       move.b 0x2c, -(a7)
    < 0x0073e91a      6004           bra.b 0x73e920
    > 0x0073e91c      1f3c0028       move.b 0x28, -(a7)
    > 0x0073e920      4eb900518dd8   jsr OUTCOM.set_out
          0x0073e926      544f           addq.w 0x2, a7
      > 0x0073e928      4cdf0100       movem.l (a7)+, a0
           0x0073e92c      4e5e           unlk a6
           0x0073e92e      4e75           rts
            ; CALL XREF from MENUEFFECTCOM.do_hicon @ 0x73eb60
 24: MENUEFFECTCOM.setup_hicon_lut ();
           0x0073e930      4e56ff96       link.w a6, 0xff96
           0x0073e934      bfd5           cmpa.l (a5), a7
       < 0x0073e936      6206           bhi.b 0x73e93e
          0x0073e938      44fc0002       move.w 0x2, ccr
          0x0073e93c      4e76           trapv
       > 0x0073e93e      defc0068       adda.w 0x68, a7
           0x0073e942      48e7fff0       movem.l d0-d7/a0-a3, -(a7)
           0x0073e946      f227e001       fmovem fp0, -(a7)
            0x0073e94a      43f9008693f2   lea.l 0x8693f2, a1
            0x0073e950      45ee0008       lea.l 0x8(a6), a2
            0x0073e954      47ee000a       lea.l 0xa(a6), a3
            0x0073e958      2a3c000000ff   move.l 0xff, d5
            0x0073e95e      7c02           moveq 0x2, d6
            0x0073e960      3013           move.w (a3), d0
            0x0073e962      b052           cmp.w (a2), d0
        < 0x0073e964      6e00009e       bgt.w 0x73ea04
           0x0073e968      4a40           tst.w d0
       < 0x0073e96a      6d1c           blt.b 0x73e988
          0x0073e96c      48c0           ext.l d0
          0x0073e96e      2f00           move.l d0, -(a7)
          0x0073e970      5397           subq.l 0x1, (a7)
          0x0073e972      7e00           moveq 0x0, d7
      > 0x0073e974      be6f0002       cmp.w 0x2(a7), d7
     < 0x0073e978      6e0c           bgt.b 0x73e986
        0x0073e97a      2049           movea.l a1, a0
        0x0073e97c      4270732004b4   clr.w 0x4b4(a0, d7.w * 2)
        0x0073e982      5247           addq.w 0x1, d7
     < 0x0073e984      68ee           bvc.b 0x73e974
     > 0x0073e986      584f           addq.w 0x4, a7
       > 0x0073e988      3213           move.w (a3), d1
           0x0073e98a      b252           cmp.w (a2), d1
       < 0x0073e98c      675e           beq.b 0x73e9ec
          0x0073e98e      3412           move.w (a2), d2
          0x0073e990      48c2           ext.l d2
          0x0073e992      3613           move.w (a3), d3
          0x0073e994      48c3           ext.l d3
          0x0073e996      9483           sub.l d3, d2
          0x0073e998      3812           move.w (a2), d4
          0x0073e99a      48c4           ext.l d4
          0x0073e99c      5384           subq.l 0x1, d4
          0x0073e99e      2f04           move.l d4, -(a7)
          0x0073e9a0      3e01           move.w d1, d7
      > 0x0073e9a2      be6f0002       cmp.w 0x2(a7), d7
     < 0x0073e9a6      6f04           ble.b 0x73e9ac
        0x0073e9a8      594f           subq.w 0x4, a7
    < 0x0073e9aa      603e           bra.b 0x73e9ea
    > 0x0073e9ac      2f00           move.l d0, -(a7)
        0x0073e9ae      2049           movea.l a1, a0
        0x0073e9b0      48c7           ext.l d7
        0x0073e9b2      2807           move.l d7, d4
        0x0073e9b4      9883           sub.l d3, d4
        0x0073e9b6      4c054800       muls.l d5, d4
        0x0073e9ba      594f           subq.w 0x4, a7
        0x0073e9bc      f2044000       fmove.l d4, fp0
        0x0073e9c0      f2024020       fdiv.l d2, fp0
        0x0073e9c4      f2276400       fmove.s fp0, -(a7)
        0x0073e9c8      4eb9004081d2   jsr p_round
        0x0073e9ce      584f           addq.w 0x4, a7
        0x0073e9d0      7041           moveq 0x41, d0
        0x0073e9d2      4c1f0800       muls.l (a7)+, d0
        0x0073e9d6      4c460800       divs.l d6, d0
        0x0073e9da      3180732004b4   move.w d0, 0x4b4(a0, d7.w * 2)
        0x0073e9e0      2017           move.l (a7), d0
        0x0073e9e2      5247           addq.w 0x1, d7
    < 0x0073e9e4      6904           bvs.b 0x73e9ea
       0x0073e9e6      584f           addq.w 0x4, a7
    < 0x0073e9e8      60b8           bra.b 0x73e9a2
    > 0x0073e9ea      504f           addq.w 0x8, a7
       > 0x0073e9ec      3e12           move.w (a2), d7
       > 0x0073e9ee      be45           cmp.w d5, d7
      < 0x0073e9f0      6e0e           bgt.b 0x73ea00
         0x0073e9f2      2049           movea.l a1, a0
         0x0073e9f4      31bc205f7320.  move.w 0x205f, 0x4b4(a0, d7.w * 2)
         0x0073e9fc      5247           addq.w 0x1, d7
      < 0x0073e9fe      68ee           bvc.b 0x73e9ee
      < 0x0073ea00      60000096       bra.w 0x73ea98
       > 0x0073ea04      4a52           tst.w (a2)
       < 0x0073ea06      6d20           blt.b 0x73ea28
          0x0073ea08      3012           move.w (a2), d0
          0x0073ea0a      48c0           ext.l d0
          0x0073ea0c      5380           subq.l 0x1, d0
          0x0073ea0e      2f00           move.l d0, -(a7)
          0x0073ea10      7e00           moveq 0x0, d7
      > 0x0073ea12      be6f0002       cmp.w 0x2(a7), d7
     < 0x0073ea16      6e0e           bgt.b 0x73ea26
        0x0073ea18      2049           movea.l a1, a0
        0x0073ea1a      31bc205f7320.  move.w 0x205f, 0x4b4(a0, d7.w * 2)
        0x0073ea22      5247           addq.w 0x1, d7
     < 0x0073ea24      68ec           bvc.b 0x73ea12
     > 0x0073ea26      584f           addq.w 0x4, a7
       > 0x0073ea28      3013           move.w (a3), d0
           0x0073ea2a      48c0           ext.l d0
           0x0073ea2c      3212           move.w (a2), d1
           0x0073ea2e      48c1           ext.l d1
           0x0073ea30      9081           sub.l d1, d0
           0x0073ea32      2f00           move.l d0, -(a7)
           0x0073ea34      3413           move.w (a3), d2
           0x0073ea36      48c2           ext.l d2
           0x0073ea38      5382           subq.l 0x1, d2
           0x0073ea3a      2f02           move.l d2, -(a7)
           0x0073ea3c      3e12           move.w (a2), d7
       > 0x0073ea3e      be6f0002       cmp.w 0x2(a7), d7
      < 0x0073ea42      6e40           bgt.b 0x73ea84
         0x0073ea44      2049           movea.l a1, a0
         0x0073ea46      48c7           ext.l d7
         0x0073ea48      2407           move.l d7, d2
         0x0073ea4a      9481           sub.l d1, d2
         0x0073ea4c      4c052800       muls.l d5, d2
         0x0073ea50      594f           subq.w 0x4, a7
         0x0073ea52      f2024000       fmove.l d2, fp0
         0x0073ea56      f2004020       fdiv.l d0, fp0
         0x0073ea5a      f2276400       fmove.s fp0, -(a7)
         0x0073ea5e      4eb9004081d2   jsr p_round
         0x0073ea64      584f           addq.w 0x4, a7
         0x0073ea66      2005           move.l d5, d0
         0x0073ea68      909f           sub.l (a7)+, d0
         0x0073ea6a      4c3c08000000.  muls.l 0x41, d0
         0x0073ea72      4c460800       divs.l d6, d0
         0x0073ea76      3180732004b4   move.w d0, 0x4b4(a0, d7.w * 2)
         0x0073ea7c      202f0004       move.l 0x4(a7), d0
         0x0073ea80      5247           addq.w 0x1, d7
      < 0x0073ea82      68ba           bvc.b 0x73ea3e
      > 0x0073ea84      504f           addq.w 0x8, a7
           0x0073ea86      3e13           move.w (a3), d7
       > 0x0073ea88      be45           cmp.w d5, d7
      < 0x0073ea8a      6e0c           bgt.b 0x73ea98
         0x0073ea8c      2049           movea.l a1, a0
         0x0073ea8e      4270732004b4   clr.w 0x4b4(a0, d7.w * 2)
         0x0073ea94      5247           addq.w 0x1, d7
      < 0x0073ea96      68f0           bvc.b 0x73ea88
      > 0x0073ea98      7e00           moveq 0x0, d7
        > 0x0073ea9a      2049           movea.l a1, a0
           0x0073ea9c      31bc0ff07320.  move.w 0xff0, 0xb4(a0, d7.w * 2)
           0x0073eaa4      5247           addq.w 0x1, d7
           0x0073eaa6      be45           cmp.w d5, d7
        < 0x0073eaa8      6ff0           ble.b 0x73ea9a
            0x0073eaaa      7e00           moveq 0x0, d7
        > 0x0073eaac      2049           movea.l a1, a0
           0x0073eaae      31bc0ff07320.  move.w 0xff0, 0x2b4(a0, d7.w * 2)
           0x0073eab6      5247           addq.w 0x1, d7
           0x0073eab8      be45           cmp.w d5, d7
        < 0x0073eaba      6ff0           ble.b 0x73eaac
            0x0073eabc      f21fd080       fmovem (a7)+, fp0
            0x0073eac0      4cdf0fff       movem.l (a7)+, d0-d7/a0-a3
            0x0073eac4      4e5e           unlk a6
            0x0073eac6      4e75           rts
            ; CALL XREF from MENUEFFECTCOM.update_clip_fra @ 0x744efc
            ; CALL XREF from MENUEFFECTCOM.after_buy @ 0x745a14
 270: MENUEFFECTCOM.do_hicon ();
           ; var int32_t var_2h @ a7+0x2
           0x0073eac8      4e56ffbc       link.w a6, 0xffbc
           0x0073eacc      bfd5           cmpa.l (a5), a7
       < 0x0073eace      6206           bhi.b 0x73ead6
          0x0073ead0      44fc0002       move.w 0x2, ccr
          0x0073ead4      4e76           trapv
       > 0x0073ead6      defc0040       adda.w 0x40, a7
           0x0073eada      48e7fee0       movem.l d0-d6/a0-a2, -(a7)
           0x0073eade      43f900869412   lea.l 0x869412, a1
           0x0073eae4      45ee0008       lea.l 0x8(a6), a2
           0x0073eae8      7604           moveq 0x4, d3
           0x0073eaea      7812           moveq 0x12, d4
           0x0073eaec      7a0a           moveq 0xa, d5
           0x0073eaee      7c03           moveq 0x3, d6
           0x0073eaf0      102e0010       move.b 0x10(a6), d0
           0x0073eaf4      4880           ext.w d0
           0x0073eaf6      013aefaa       btst.l d0, 0x73daa2(pc)
       < 0x0073eafa      6722           beq.b 0x73eb1e
          0x0073eafc      4ebaf99e       jsr MENUEFFECTCOM.allocate_effect(pc)
          0x0073eb00      1f3c0002       move.b 0x2, -(a7)
          0x0073eb04      4227           clr.b -(a7)
          0x0073eb06      1f03           move.b d3, -(a7)
          0x0073eb08      2f390086940e   move.l 0x86940e, -(a7)
          0x0073eb0e      2f3900869416   move.l 0x869416, -(a7)
          0x0073eb14      2f11           move.l (a1), -(a7)
          0x0073eb16      4eb900522722   jsr BRUSHCOM.str_any_str_cop
          0x0073eb1c      dec4           adda.w d4, a7
       > 0x0073eb1e      b003           cmp.b d3, d0
       < 0x0073eb20      6744           beq.b 0x73eb66
          0x0073eb22      9ec5           suba.w d5, a7
          0x0073eb24      3f390086942e   move.w 0x86942e, -(a7)
          0x0073eb2a      4eb90048d992   jsr MENU2COM.get_numeric_val
          0x0073eb30      544f           addq.w 0x2, a7
          0x0073eb32      4eb9004081f8   jsr p_trunc
          0x0073eb38      584f           addq.w 0x4, a7
          0x0073eb3a      3f6f00020004   move.w 0x2(a7), 0x4(a7)
          0x0073eb40      5d4f           subq.w 0x6, a7
          0x0073eb42      3f3900869432   move.w 0x869432, -(a7)
          0x0073eb48      4eb90048d992   jsr MENU2COM.get_numeric_val
          0x0073eb4e      544f           addq.w 0x2, a7
          0x0073eb50      4eb9004081f8   jsr p_trunc
          0x0073eb56      584f           addq.w 0x4, a7
          0x0073eb58      3f6f00020004   move.w 0x2(a7), 0x4(a7)
          0x0073eb5e      584f           addq.w 0x4, a7
          0x0073eb60      4ebafdce       jsr MENUEFFECTCOM.setup_hicon_lut(pc)
          0x0073eb64      584f           addq.w 0x4, a7
       > 0x0073eb66      3211           move.w (a1), d1
           0x0073eb68      48c1           ext.l d1
           0x0073eb6a      3412           move.w (a2), d2
           0x0073eb6c      48c2           ext.l d2
           0x0073eb6e      d481           add.l d1, d2
           0x0073eb70      3d42fffc       move.w d2, -0x4(a6)
           0x0073eb74      323900869414   move.w 0x869414, d1
           0x0073eb7a      48c1           ext.l d1
           0x0073eb7c      342e000a       move.w 0xa(a6), d2
           0x0073eb80      48c2           ext.l d2
           0x0073eb82      d481           add.l d1, d2
           0x0073eb84      048200000080   subi.l 0x80, d2
           0x0073eb8a      3d42fffe       move.w d2, -0x2(a6)
           0x0073eb8e      1f06           move.b d6, -(a7)
           0x0073eb90      2f2e000c       move.l 0xc(a6), -(a7)
           0x0073eb94      2f12           move.l (a2), -(a7)
           0x0073eb96      4eb9005223fc   jsr BRUSHCOM.str_write_area
           0x0073eb9c      dec5           adda.w d5, a7
           0x0073eb9e      41f9008694a6   lea.l 0x8694a6, a0
           0x0073eba4      2f08           move.l a0, -(a7)
           0x0073eba6      1f06           move.b d6, -(a7)
           0x0073eba8      2f2efffc       move.l -0x4(a6), -(a7)
           0x0073ebac      2f2e000c       move.l 0xc(a6), -(a7)
           0x0073ebb0      2f12           move.l (a2), -(a7)
           0x0073ebb2      4eb90052abf8   jsr BRUSH2COM.br_key
           0x0073ebb8      dec4           adda.w d4, a7
           0x0073ebba      013aeee8       btst.l d0, 0x73daa4(pc)
       < 0x0073ebbe      670e           beq.b 0x73ebce
          0x0073ebc0      4a40           tst.w d0
      < 0x0073ebc2      6606           bne.b 0x73ebca
         0x0073ebc4      4eb90051f298   jsr BRUSHCOM.brush_wait
      > 0x0073ebca      4ebafcf4       jsr MENUEFFECTCOM.hicon_set_out(pc)
       > 0x0073ebce      4cdf077f       movem.l (a7)+, d0-d6/a0-a2
           0x0073ebd2      4e5e           unlk a6
           0x0073ebd4      4e75           rts
 154: MENUEFFECTCOM.update_col_boxe ();
           0x0073ebd6      4e56ffe4       link.w a6, 0xffe4
           0x0073ebda      bfd5           cmpa.l (a5), a7
       < 0x0073ebdc      6206           bhi.b 0x73ebe4
          0x0073ebde      44fc0002       move.w 0x2, ccr
          0x0073ebe2      4e76           trapv
       > 0x0073ebe4      defc001c       adda.w 0x1c, a7
           0x0073ebe8      48e780c0       movem.l d0/a0-a1, -(a7)
           0x0073ebec      41f90086942e   lea.l 0x86942e, a0
           0x0073ebf2      43f900869432   lea.l 0x869432, a1
           0x0073ebf8      302e0008       move.w 0x8(a6), d0
           0x0073ebfc      b050           cmp.w (a0), d0
       < 0x0073ebfe      662c           bne.b 0x73ec2c
          0x0073ec00      28baeea4       move.l 0x73daa6(pc), (a4)
          0x0073ec04      397aeea40004   move.w 0x73daaa(pc), 0x4(a4)
          0x0073ec0a      514f           subq.w 0x8, a7
          0x0073ec0c      3f10           move.w (a0), -(a7)
          0x0073ec0e      4eb90048d992   jsr MENU2COM.get_numeric_val
          0x0073ec14      544f           addq.w 0x2, a7
          0x0073ec16      4eb9004081f8   jsr p_trunc
          0x0073ec1c      584f           addq.w 0x4, a7
          0x0073ec1e      38af0002       move.w 0x2(a7), (a4)
          0x0073ec22      544f           addq.w 0x2, a7
          0x0073ec24      3eb90086942c   move.w 0x86942c, (a7)
      < 0x0073ec2a      602e           bra.b 0x73ec5a
      > 0x0073ec2c      b051           cmp.w (a1), d0
      < 0x0073ec2e      6638           bne.b 0x73ec68
         0x0073ec30      28baee7a       move.l 0x73daac(pc), (a4)
         0x0073ec34      397aee7a0004   move.w 0x73dab0(pc), 0x4(a4)
         0x0073ec3a      514f           subq.w 0x8, a7
         0x0073ec3c      3f11           move.w (a1), -(a7)
         0x0073ec3e      4eb90048d992   jsr MENU2COM.get_numeric_val
         0x0073ec44      544f           addq.w 0x2, a7
         0x0073ec46      4eb9004081f8   jsr p_trunc
         0x0073ec4c      584f           addq.w 0x4, a7
         0x0073ec4e      38af0002       move.w 0x2(a7), (a4)
         0x0073ec52      544f           addq.w 0x2, a7
         0x0073ec54      3eb900869430   move.w 0x869430, (a7)
      > 0x0073ec5a      2f2c0002       move.l 0x2(a4), -(a7)
          0x0073ec5e      3f14           move.w (a4), -(a7)
          0x0073ec60      4eb900484148   jsr MENUCOM.set_boxcol
          0x0073ec66      504f           addq.w 0x8, a7
       > 0x0073ec68      4cdf0301       movem.l (a7)+, d0/a0-a1
           0x0073ec6c      4e5e           unlk a6
           0x0073ec6e      4e75           rts
 24: MENUEFFECTCOM.colour_set ();
           0x0073ec70      4e56ffb8       link.w a6, 0xffb8
           0x0073ec74      bfd5           cmpa.l (a5), a7
       < 0x0073ec76      6206           bhi.b 0x73ec7e
          0x0073ec78      44fc0002       move.w 0x2, ccr
          0x0073ec7c      4e76           trapv
       > 0x0073ec7e      defc003e       adda.w 0x3e, a7
           0x0073ec82      48e7e0f8       movem.l d0-d2/a0-a4, -(a7)
           0x0073ec86      f227e001       fmovem fp0, -(a7)
            0x0073ec8a      43eefff6       lea.l -0xa(a6), a1
            0x0073ec8e      45f900480fc2   lea.l MENUCOM.get_boxon, a2
            0x0073ec94      47f900869434   lea.l 0x869434, a3
            0x0073ec9a      49f900869436   lea.l 0x869436, a4
            0x0073eca0      7208           moveq 0x8, d1
            0x0073eca2      7401           moveq 0x1, d2
            0x0073eca4      554f           subq.w 0x2, a7
            0x0073eca6      3f13           move.w (a3), -(a7)
            0x0073eca8      4e92           jsr (a2)                    ; fcn.00000009+0x2
            0x0073ecaa      544f           addq.w 0x2, a7
            0x0073ecac      4a1f           tst.b (a7)+
        < 0x0073ecae      660e           bne.b 0x73ecbe
           0x0073ecb0      554f           subq.w 0x2, a7
           0x0073ecb2      3f14           move.w (a4), -(a7)
           0x0073ecb4      4e92           jsr (a2)                    ; fcn.00000009+0x2
           0x0073ecb6      544f           addq.w 0x2, a7
           0x0073ecb8      4a1f           tst.b (a7)+
       < 0x0073ecba      670000b6       beq.w 0x73ed72
       > 0x0073ecbe      2079008693f4   movea.l 0x8693f4, a0
           0x0073ecc4      3010           move.w (a0), d0
           0x0073ecc6      48c0           ext.l d0
           0x0073ecc8      81c1           divs.w d1, d0
           0x0073ecca      3d40fffc       move.w d0, -0x4(a6)
           0x0073ecce      30280002       move.w 0x2(a0), d0
           0x0073ecd2      48c0           ext.l d0
           0x0073ecd4      81c1           divs.w d1, d0
           0x0073ecd6      06400080       addi.w 0x80, d0
           0x0073ecda      3d40fffe       move.w d0, -0x2(a6)
           0x0073ecde      5d4f           subq.w 0x6, a7
           0x0073ece0      1f3c0002       move.b 0x2, -(a7)
           0x0073ece4      4227           clr.b -(a7)
           0x0073ece6      2f2efffc       move.l -0x4(a6), -(a7)
           0x0073ecea      4eb900521048   jsr BRUSHCOM.br_get_colour
           0x0073ecf0      504f           addq.w 0x8, a7
           0x0073ecf2      229f           move.l (a7)+, (a1)
           0x0073ecf4      3d57fffa       move.w (a7), -0x6(a6)
           0x0073ecf8      3f13           move.w (a3), -(a7)
           0x0073ecfa      4e92           jsr (a2)                    ; fcn.00000009+0x2
           0x0073ecfc      544f           addq.w 0x2, a7
           0x0073ecfe      4a1f           tst.b (a7)+
       < 0x0073ed00      6732           beq.b 0x73ed34
          0x0073ed02      3f390086942e   move.w 0x86942e, -(a7)
          0x0073ed08      3011           move.w (a1), d0
          0x0073ed0a      48c0           ext.l d0
          0x0073ed0c      f2004000       fmove.l d0, fp0
          0x0073ed10      f2276400       fmove.s fp0, -(a7)
          0x0073ed14      4227           clr.b -(a7)
          0x0073ed16      1f02           move.b d2, -(a7)
          0x0073ed18      4eb90048da84   jsr MENU2COM.set_numeric_val
          0x0073ed1e      504f           addq.w 0x8, a7
          0x0073ed20      3eb90086942c   move.w 0x86942c, (a7)
          0x0073ed26      2f2efff8       move.l -0x8(a6), -(a7)
          0x0073ed2a      3f11           move.w (a1), -(a7)
          0x0073ed2c      4eb900484148   jsr MENUCOM.set_boxcol
          0x0073ed32      504f           addq.w 0x8, a7
       > 0x0073ed34      554f           subq.w 0x2, a7
           0x0073ed36      3f14           move.w (a4), -(a7)
           0x0073ed38      4e92           jsr (a2)                    ; fcn.00000009+0x2
           0x0073ed3a      544f           addq.w 0x2, a7
           0x0073ed3c      4a1f           tst.b (a7)+
       < 0x0073ed3e      6732           beq.b 0x73ed72
          0x0073ed40      3f3900869432   move.w 0x869432, -(a7)
          0x0073ed46      3011           move.w (a1), d0
          0x0073ed48      48c0           ext.l d0
          0x0073ed4a      f2004000       fmove.l d0, fp0
          0x0073ed4e      f2276400       fmove.s fp0, -(a7)
          0x0073ed52      4227           clr.b -(a7)
          0x0073ed54      1f02           move.b d2, -(a7)
          0x0073ed56      4eb90048da84   jsr MENU2COM.set_numeric_val
          0x0073ed5c      504f           addq.w 0x8, a7
          0x0073ed5e      3eb900869430   move.w 0x869430, (a7)
          0x0073ed64      2f2efff8       move.l -0x8(a6), -(a7)
          0x0073ed68      3f11           move.w (a1), -(a7)
          0x0073ed6a      4eb900484148   jsr MENUCOM.set_boxcol
          0x0073ed70      504f           addq.w 0x8, a7
       > 0x0073ed72      f21fd080       fmovem (a7)+, fp0
            0x0073ed76      4cdf1f07       movem.l (a7)+, d0-d2/a0-a4
            0x0073ed7a      4e5e           unlk a6
            0x0073ed7c      4e75           rts
            ; CALL XREF from MENUEFFECTCOM.send_to_submenu @ 0x745b06
 24: MENUEFFECTCOM.hit_hicon ();
           0x0073ed7e      4e56ff96       link.w a6, 0xff96
           0x0073ed82      bfd5           cmpa.l (a5), a7
       < 0x0073ed84      6206           bhi.b 0x73ed8c
          0x0073ed86      44fc0002       move.w 0x2, ccr
          0x0073ed8a      4e76           trapv
       > 0x0073ed8c      defc0064       adda.w 0x64, a7
           0x0073ed90      48e7fcf8       movem.l d0-d5/a0-a4, -(a7)
           0x0073ed94      f227e003       fmovem fp0-fp1, -(a7)
            0x0073ed98      43f90086942e   lea.l 0x86942e, a1
            0x0073ed9e      45f900869432   lea.l 0x869432, a2
            0x0073eda4      47f900483776   lea.l MENUCOM.swtch_box, a3
            0x0073edaa      7401           moveq 0x1, d2
            0x0073edac      760a           moveq 0xa, d3
            0x0073edae      7811           moveq 0x11, d4
            0x0073edb0      7a10           moveq 0x10, d5
            0x0073edb2      2079008693f4   movea.l 0x8693f4, a0
            0x0073edb8      302e0008       move.w 0x8(a6), d0
            0x0073edbc      b044           cmp.w d4, d0
        < 0x0073edbe      6d12           blt.b 0x73edd2
           0x0073edc0      b044           cmp.w d4, d0
       < 0x0073edc2      670002fe       beq.w 0x73f0c2
          0x0073edc6      0c40001e       cmpi.w 0x1e, d0
      < 0x0073edca      67000138       beq.w 0x73ef04
     < 0x0073edce      600002f8       bra.w 0x73f0c8
     > 0x0073edd2      b045           cmp.w d5, d0
     < 0x0073edd4      620002f2       bhi.w 0x73f0c8
        0x0073edd8      d040           add.w d0, d0
        0x0073edda      303b0006       move.w 0x73ede2(pc, d0.w), d0
        0x0073edde      4efb0002       jmp 0x73ede2(pc, d0.w)
        0x0073ede2      0122           btst.l d0, -(a2)
        0x0073ede4      0022019a       ori.b 0x9a, -(a2)
        0x0073ede8      02e602e6       
        0x0073ede9      e602           asr.b 0x3, d2
        0x0073edeb      e602           asr.b 0x3, d2
        0x0073eded      e602           asr.b 0x3, d2
        0x0073edef      e602           asr.b 0x3, d2
        0x0073edf1      e602           asr.b 0x3, d2
        0x0073edf3      1602           move.b d2, d3
        0x0073edf5      5402           addq.b 0x2, d2
        0x0073edf7      e002           asr.b 0x8, d2
        0x0073edf9      e602           asr.b 0x3, d2
        0x0073edfb      e602           asr.b 0x3, d2
        0x0073edfd      e602           asr.b 0x3, d2
        0x0073edff      e602           asr.b 0x3, d2
        0x0073ee01      1602           move.b d2, d3
        0x0073ee03      5455           addq.w 0x2, (a5)
        0x0073ee05      4f3f3900       
        0x0073ee06      3f3900869428   move.w 0x869428, -(a7)
        0x0073ee0c      4eb900480fc2   jsr MENUCOM.get_boxon
        0x0073ee12      544f           addq.w 0x2, a7
        0x0073ee14      4a1f           tst.b (a7)+
    < 0x0073ee16      670e           beq.b 0x73ee26
       0x0073ee18      3f3900869428   move.w 0x869428, -(a7)
       0x0073ee1e      4eb9004836a4   jsr MENUCOM.push_box
       0x0073ee24      544f           addq.w 0x2, a7
    > 0x0073ee26      302e000a       move.w 0xa(a6), d0
        0x0073ee2a      b0790086942a   cmp.w 0x86942a, d0
    < 0x0073ee30      6618           bne.b 0x73ee4a
       0x0073ee32      4227           clr.b -(a7)
   > 0x0073ee34      514f           subq.w 0x8, a7
      0x0073ee36      4227           clr.b -(a7)
      0x0073ee38      4eb9006336ea   jsr HANDCOM.get_area
      0x0073ee3e      544f           addq.w 0x2, a7
      0x0073ee40      4ebafc86       jsr MENUEFFECTCOM.do_hicon(pc)
      0x0073ee44      dec3           adda.w d3, a7
  < 0x0073ee46      600000b8       bra.w 0x73ef00
  > 0x0073ee4a      b07900869438   cmp.w 0x869438, d0
  < 0x0073ee50      6672           bne.b 0x73eec4
     0x0073ee52      3f3900869434   move.w 0x869434, -(a7)
     0x0073ee58      4227           clr.b -(a7)
     0x0073ee5a      4e93           jsr (a3)                    ; fcn.0000000c
     0x0073ee5c      544f           addq.w 0x2, a7
     0x0073ee5e      3eb900869436   move.w 0x869436, (a7)
     0x0073ee64      4227           clr.b -(a7)
     0x0073ee66      4e93           jsr (a3)                    ; fcn.0000000c
     0x0073ee68      544f           addq.w 0x2, a7
     0x0073ee6a      3e91           move.w (a1), (a7)
     0x0073ee6c      4227           clr.b -(a7)
     0x0073ee6e      4e93           jsr (a3)                    ; fcn.0000000c
     0x0073ee70      544f           addq.w 0x2, a7
     0x0073ee72      3e92           move.w (a2), (a7)
     0x0073ee74      4227           clr.b -(a7)
     0x0073ee76      4e93           jsr (a3)                    ; fcn.0000000c
     0x0073ee78      544f           addq.w 0x2, a7
     0x0073ee7a      3e91           move.w (a1), (a7)
     0x0073ee7c      f2054000       fmove.l d5, fp0
     0x0073ee80      f2276400       fmove.s fp0, -(a7)
     0x0073ee84      4227           clr.b -(a7)
     0x0073ee86      1f02           move.b d2, -(a7)
     0x0073ee88      4eb90048da84   jsr MENU2COM.set_numeric_val
     0x0073ee8e      504f           addq.w 0x8, a7
     0x0073ee90      3e91           move.w (a1), (a7)
     0x0073ee92      49eefffa       lea.l -0x6(a6), a4
     0x0073ee96      4ebafd3e       jsr MENUEFFECTCOM.update_col_boxe(pc)
     0x0073ee9a      3e92           move.w (a2), (a7)
     0x0073ee9c      f23c40000000.  fmove.l 0xeb, fp0
     0x0073eea4      f2276400       fmove.s fp0, -(a7)
     0x0073eea8      4227           clr.b -(a7)
     0x0073eeaa      1f02           move.b d2, -(a7)
     0x0073eeac      4eb90048da84   jsr MENU2COM.set_numeric_val
     0x0073eeb2      504f           addq.w 0x8, a7
     0x0073eeb4      3e92           move.w (a2), (a7)
     0x0073eeb6      49eefffa       lea.l -0x6(a6), a4
     0x0073eeba      4ebafd1a       jsr MENUEFFECTCOM.update_col_boxe(pc)
     0x0073eebe      1e82           move.b d2, (a7)
  < 0x0073eec0      6000ff72       bra.w 0x73ee34
   > 0x0073eec4      b051           cmp.w (a1), d0
   < 0x0073eec6      6704           beq.b 0x73eecc
      0x0073eec8      b052           cmp.w (a2), d0
  < 0x0073eeca      6614           bne.b 0x73eee0
  > 0x0073eecc      3f3900869434   move.w 0x869434, -(a7)
      0x0073eed2      4227           clr.b -(a7)
      0x0073eed4      4e93           jsr (a3)                    ; fcn.0000000c
      0x0073eed6      544f           addq.w 0x2, a7
      0x0073eed8      3eb900869436   move.w 0x869436, (a7)
  < 0x0073eede      601a           bra.b 0x73eefa
  > 0x0073eee0      b07900869434   cmp.w 0x869434, d0
  < 0x0073eee6      6708           beq.b 0x73eef0
     0x0073eee8      b07900869436   cmp.w 0x869436, d0
  < 0x0073eeee      6610           bne.b 0x73ef00
  > 0x0073eef0      3f11           move.w (a1), -(a7)
      0x0073eef2      4227           clr.b -(a7)
      0x0073eef4      4e93           jsr (a3)                    ; fcn.0000000c
      0x0073eef6      544f           addq.w 0x2, a7
      0x0073eef8      3e92           move.w (a2), (a7)
   > 0x0073eefa      4227           clr.b -(a7)
       0x0073eefc      4e93           jsr (a3)                    ; fcn.0000000c
       0x0073eefe      584f           addq.w 0x4, a7
  < 0x0073ef00      600001c6       bra.w 0x73f0c8
    > 0x0073ef04      302e000a       move.w 0xa(a6), d0
        0x0073ef08      b0790086942a   cmp.w 0x86942a, d0
    < 0x0073ef0e      6608           bne.b 0x73ef18
       0x0073ef10      4eb900518f96   jsr OUTCOM.normal_set_out
   < 0x0073ef16      6060           bra.b 0x73ef78
   > 0x0073ef18      b0790086942c   cmp.w 0x86942c, d0
   < 0x0073ef1e      661c           bne.b 0x73ef3c
      0x0073ef20      5d4f           subq.w 0x6, a7
      0x0073ef22      3f390086942c   move.w 0x86942c, -(a7)
      0x0073ef28      4eb900481196   jsr MENUCOM.get_boxcol
      0x0073ef2e      544f           addq.w 0x2, a7
      0x0073ef30      2d5ffffa       move.l (a7)+, -0x6(a6)
      0x0073ef34      3d5ffffe       move.w (a7)+, -0x2(a6)
      0x0073ef38      3f11           move.w (a1), -(a7)
  < 0x0073ef3a      6022           bra.b 0x73ef5e
  > 0x0073ef3c      b07900869430   cmp.w 0x869430, d0
  < 0x0073ef42      6634           bne.b 0x73ef78
     0x0073ef44      5d4f           subq.w 0x6, a7
     0x0073ef46      3f3900869430   move.w 0x869430, -(a7)
     0x0073ef4c      4eb900481196   jsr MENUCOM.get_boxcol
     0x0073ef52      544f           addq.w 0x2, a7
     0x0073ef54      2d5ffffa       move.l (a7)+, -0x6(a6)
     0x0073ef58      3d5ffffe       move.w (a7)+, -0x2(a6)
     0x0073ef5c      3f12           move.w (a2), -(a7)
  > 0x0073ef5e      322efffa       move.w -0x6(a6), d1
      0x0073ef62      48c1           ext.l d1
      0x0073ef64      f2014000       fmove.l d1, fp0
      0x0073ef68      f2276400       fmove.s fp0, -(a7)
      0x0073ef6c      4227           clr.b -(a7)
      0x0073ef6e      1f02           move.b d2, -(a7)
      0x0073ef70      4eb90048da84   jsr MENU2COM.set_numeric_val
      0x0073ef76      dec3           adda.w d3, a7
  > 0x0073ef78      6000014e       bra.w 0x73f0c8
       0x0073ef7c      554f           subq.w 0x2, a7
       0x0073ef7e      4eb900482154   jsr MENUCOM.get_crnt_numeri
       0x0073ef84      302e000a       move.w 0xa(a6), d0
       0x0073ef88      b057           cmp.w (a7), d0
   < 0x0073ef8a      6620           bne.b 0x73efac
      0x0073ef8c      3f00           move.w d0, -(a7)
      0x0073ef8e      49eefffa       lea.l -0x6(a6), a4
      0x0073ef92      4ebafc42       jsr MENUEFFECTCOM.update_col_boxe(pc)
      0x0073ef96      1e82           move.b d2, (a7)
  > 0x0073ef98      514f           subq.w 0x8, a7
     0x0073ef9a      4227           clr.b -(a7)
     0x0073ef9c      4eb9006336ea   jsr HANDCOM.get_area
     0x0073efa2      544f           addq.w 0x2, a7
     0x0073efa4      4ebafb22       jsr MENUEFFECTCOM.do_hicon(pc)
     0x0073efa8      dec3           adda.w d3, a7
  < 0x0073efaa      6046           bra.b 0x73eff2
  > 0x0073efac      0c400025       cmpi.w 0x25, d0
  < 0x0073efb0      6706           beq.b 0x73efb8
     0x0073efb2      0c400023       cmpi.w 0x23, d0
  < 0x0073efb6      6604           bne.b 0x73efbc
  > 0x0073efb8      4227           clr.b -(a7)
  < 0x0073efba      60dc           bra.b 0x73ef98
  > 0x0073efbc      0c400043       cmpi.w 0x43, d0
   < 0x0073efc0      662c           bne.b 0x73efee
      0x0073efc2      1f3c0002       move.b 0x2, -(a7)
      0x0073efc6      1f3c0003       move.b 0x3, -(a7)
      0x0073efca      4227           clr.b -(a7)
      0x0073efcc      2f390086940e   move.l 0x86940e, -(a7)
      0x0073efd2      2f390086941e   move.l 0x86941e, -(a7)
      0x0073efd8      2f390086941a   move.l 0x86941a, -(a7)
      0x0073efde      4eb900522722   jsr BRUSHCOM.str_any_str_cop
      0x0073efe4      defc0012       adda.w 0x12, a7
      0x0073efe8      4eb90051f298   jsr BRUSHCOM.brush_wait
   > 0x0073efee      4ebaf8d0       jsr MENUEFFECTCOM.hicon_set_out(pc)
  > 0x0073eff2      544f           addq.w 0x2, a7
   < 0x0073eff4      600000d2       bra.w 0x73f0c8
      0x0073eff8      4a39008693f2   tst.b 0x8693f2
  < 0x0073effe      6632           bne.b 0x73f032
     0x0073f000      554f           subq.w 0x2, a7
     0x0073f002      4eb900482154   jsr MENUCOM.get_crnt_numeri
     0x0073f008      4a5f           tst.w (a7)+
  < 0x0073f00a      6606           bne.b 0x73f012
     0x0073f00c      4ebafc62       jsr MENUEFFECTCOM.colour_set(pc)
  < 0x0073f010      6006           bra.b 0x73f018
  > 0x0073f012      4eb9004558e4   jsr CURSORCOM.cursor_off
  > 0x0073f018      1f02           move.b d2, -(a7)
     0x0073f01a      514f           subq.w 0x8, a7
     0x0073f01c      4227           clr.b -(a7)
     0x0073f01e      4eb9006336ea   jsr HANDCOM.get_area
     0x0073f024      544f           addq.w 0x2, a7
     0x0073f026      4ebafaa0       jsr MENUEFFECTCOM.do_hicon(pc)
     0x0073f02a      dec3           adda.w d3, a7
     0x0073f02c      13c2008693f2   move.b d2, 0x8693f2
  > 0x0073f032      60000094       bra.w 0x73f0c8
      0x0073f036      554f           subq.w 0x2, a7
      0x0073f038      4eb900482154   jsr MENUCOM.get_crnt_numeri
      0x0073f03e      4a5f           tst.w (a7)+
  < 0x0073f040      6610           bne.b 0x73f052
     0x0073f042      4eb90047b9c8   jsr CNTLCOM.update_cursor
     0x0073f048      4ebafc26       jsr MENUEFFECTCOM.colour_set(pc)
     0x0073f04c      1f02           move.b d2, -(a7)
     0x0073f04e      514f           subq.w 0x8, a7
  < 0x0073f050      605e           bra.b 0x73f0b0
  > 0x0073f052      554f           subq.w 0x2, a7
      0x0073f054      4eb900482154   jsr MENUCOM.get_crnt_numeri
      0x0073f05a      30280012       move.w 0x12(a0), d0
      0x0073f05e      48c0           ext.l d0
      0x0073f060      32280014       move.w 0x14(a0), d1
      0x0073f064      48c1           ext.l d1
      0x0073f066      4481           neg.l d1
      0x0073f068      d280           add.l d0, d1
      0x0073f06a      f2014000       fmove.l d1, fp0
      0x0073f06e      f23c40200000.  fdiv.l 0x14, fp0
      0x0073f076      5d4f           subq.w 0x6, a7
      0x0073f078      4eb900482154   jsr MENUCOM.get_crnt_numeri
      0x0073f07e      4eb90048d992   jsr MENU2COM.get_numeric_val
      0x0073f084      544f           addq.w 0x2, a7
      0x0073f086      f2174480       fmove.s (a7), fp1
      0x0073f08a      f20000a2       fadd fp0, fp1
      0x0073f08e      f2176480       fmove.s fp1, (a7)
      0x0073f092      4227           clr.b -(a7)
      0x0073f094      1f02           move.b d2, -(a7)
      0x0073f096      4eb90048da84   jsr MENU2COM.set_numeric_val
      0x0073f09c      504f           addq.w 0x8, a7
      0x0073f09e      4eb900482154   jsr MENUCOM.get_crnt_numeri
      0x0073f0a4      49eefffa       lea.l -0x6(a6), a4
      0x0073f0a8      4ebafb2c       jsr MENUEFFECTCOM.update_col_boxe(pc)
      0x0073f0ac      1e82           move.b d2, (a7)
      0x0073f0ae      514f           subq.w 0x8, a7
  > 0x0073f0b0      4227           clr.b -(a7)
      0x0073f0b2      4eb9006336ea   jsr HANDCOM.get_area
      0x0073f0b8      544f           addq.w 0x2, a7
      0x0073f0ba      4ebafa0c       jsr MENUEFFECTCOM.do_hicon(pc)
      0x0073f0be      dec3           adda.w d3, a7
  < 0x0073f0c0      6006           bra.b 0x73f0c8
  > 0x0073f0c2      4239008693f2   clr.b 0x8693f2
  > 0x0073f0c8      f21fd0c0       fmovem (a7)+, fp0-fp1
            0x0073f0cc      4cdf1f3f       movem.l (a7)+, d0-d5/a0-a4
            0x0073f0d0      4e5e           unlk a6
            0x0073f0d2      4e75           rts
 122: MENUEFFECTCOM.hit_key_values ();
           0x0073f0d4      4e56ffe4       link.w a6, 0xffe4
           0x0073f0d8      bfd5           cmpa.l (a5), a7
       < 0x0073f0da      6206           bhi.b 0x73f0e2
          0x0073f0dc      44fc0002       move.w 0x2, ccr
          0x0073f0e0      4e76           trapv
       > 0x0073f0e2      defc001c       adda.w 0x1c, a7
           0x0073f0e6      48e7c0c0       movem.l d0-d1/a0-a1, -(a7)
           0x0073f0ea      41f900869464   lea.l 0x869464, a0
           0x0073f0f0      43f900869462   lea.l 0x869462, a1
           0x0073f0f6      7201           moveq 0x1, d1
           0x0073f0f8      302e0008       move.w 0x8(a6), d0
           0x0073f0fc      b041           cmp.w d1, d0
       < 0x0073f0fe      6618           bne.b 0x73f118
          0x0073f100      3f10           move.w (a0), -(a7)
          0x0073f102      4227           clr.b -(a7)
          0x0073f104      4eb900483972   jsr MENUCOM.set_enable_box
          0x0073f10a      544f           addq.w 0x2, a7
          0x0073f10c      3e91           move.w (a1), (a7)
          0x0073f10e      1f01           move.b d1, -(a7)
          0x0073f110      4eb900483776   jsr MENUCOM.swtch_box
      < 0x0073f116      602c           bra.b 0x73f144
      > 0x0073f118      4a40           tst.w d0
      < 0x0073f11a      662a           bne.b 0x73f146
         0x0073f11c      3f11           move.w (a1), -(a7)
         0x0073f11e      4227           clr.b -(a7)
         0x0073f120      4eb900483776   jsr MENUCOM.swtch_box
         0x0073f126      544f           addq.w 0x2, a7
         0x0073f128      3e90           move.w (a0), (a7)
         0x0073f12a      554f           subq.w 0x2, a7
         0x0073f12c      3f3900869460   move.w 0x869460, -(a7)
         0x0073f132      4eb900480fc2   jsr MENUCOM.get_boxon
         0x0073f138      544f           addq.w 0x2, a7
         0x0073f13a      4417           neg.b (a7)
         0x0073f13c      5217           addq.b 0x1, (a7)
         0x0073f13e      4eb900483972   jsr MENUCOM.set_enable_box
      > 0x0073f144      584f           addq.w 0x4, a7
       > 0x0073f146      4cdf0303       movem.l (a7)+, d0-d1/a0-a1
           0x0073f14a      4e5e           unlk a6
           0x0073f14c      4e75           rts
            ; CALL XREF from MENUEFFECTCOM.hit_key_graph @ 0x73f728
 54: MENUEFFECTCOM.hsl_keyer ();
           0x0073f14e      4e56fff6       link.w a6, 0xfff6
           0x0073f152      bfd5           cmpa.l (a5), a7
       < 0x0073f154      6206           bhi.b 0x73f15c
          0x0073f156      44fc0002       move.w 0x2, ccr
          0x0073f15a      4e76           trapv
       > 0x0073f15c      defc000a       adda.w 0xa, a7
           0x0073f160      48e78000       movem.l d0, -(a7)
           0x0073f164      422e0008       clr.b 0x8(a6)
           0x0073f168      554f           subq.w 0x2, a7
           0x0073f16a      4eb9004755c2   jsr CONFIG.cfg_gender
           0x0073f170      101f           move.b (a7)+, d0
           0x0073f172      0c00000e       cmpi.b 0xe, d0
       < 0x0073f176      6604           bne.b 0x73f17c
          0x0073f178      522e0008       addq.b 0x1, 0x8(a6)
       > 0x0073f17c      4cdf0001       movem.l (a7)+, d0
           0x0073f180      4e5e           unlk a6
           0x0073f182      4e75           rts
            ; CALL XREF from MENUEFFECTCOM.draw_normal_gra @ 0x73f64e
 24: MENUEFFECTCOM.keyer_graphic ();
           0x0073f184      4e56ff12       link.w a6, 0xff12
           0x0073f188      bfd5           cmpa.l (a5), a7
       < 0x0073f18a      6206           bhi.b 0x73f192
          0x0073f18c      44fc0002       move.w 0x2, ccr
          0x0073f190      4e76           trapv
       > 0x0073f192      defc0082       adda.w 0x82, a7
           0x0073f196      48e7fff0       movem.l d0-d7/a0-a3, -(a7)
           0x0073f19a      f227e003       fmovem fp0-fp1, -(a7)
            0x0073f19e      43eeffa4       lea.l -0x5c(a6), a1
            0x0073f1a2      45eeffec       lea.l -0x14(a6), a2
            0x0073f1a6      47ee0010       lea.l 0x10(a6), a3
            0x0073f1aa      302e000c       move.w 0xc(a6), d0
            0x0073f1ae      48c0           ext.l d0
            0x0073f1b0      81fc0008       divs.w 0x8, d0
            0x0073f1b4      4840           swap d0
            0x0073f1b6      4a40           tst.w d0
        < 0x0073f1b8      6c02           bge.b 0x73f1bc
           0x0073f1ba      5040           addq.w 0x8, d0
        > 0x0073f1bc      48c0           ext.l d0
            0x0073f1be      2d40ffa0       move.l d0, -0x60(a6)
            0x0073f1c2      322e000c       move.w 0xc(a6), d1
            0x0073f1c6      48c1           ext.l d1
            0x0073f1c8      3413           move.w (a3), d2
            0x0073f1ca      48c2           ext.l d2
            0x0073f1cc      d282           add.l d2, d1
            0x0073f1ce      4c7c18030000.  divs.l 0x8, d1
            0x0073f1d6      4a83           tst.l d3
        < 0x0073f1d8      6c02           bge.b 0x73f1dc
           0x0073f1da      5083           addq.l 0x8, d3
        > 0x0073f1dc      2283           move.l d3, (a1)
            0x0073f1de      4a83           tst.l d3
        < 0x0073f1e0      6708           beq.b 0x73f1ea
           0x0073f1e2      22bc00000008   move.l 0x8, (a1)
           0x0073f1e8      9791           sub.l d3, (a1)
        > 0x0073f1ea      2d6e000cfff8   move.l 0xc(a6), -0x8(a6)
            0x0073f1f0      2d53fffc       move.l (a3), -0x4(a6)
            0x0073f1f4      322efff8       move.w -0x8(a6), d1
            0x0073f1f8      48c1           ext.l d1
            0x0073f1fa      9280           sub.l d0, d1
            0x0073f1fc      3d41fff8       move.w d1, -0x8(a6)
            0x0073f200      322efffc       move.w -0x4(a6), d1
            0x0073f204      48c1           ext.l d1
            0x0073f206      d081           add.l d1, d0
            0x0073f208      d091           add.l (a1), d0
            0x0073f20a      3d40fffc       move.w d0, -0x4(a6)
            0x0073f20e      302e0012       move.w 0x12(a6), d0
            0x0073f212      48c0           ext.l d0
            0x0073f214      f23c40000000.  fmove.l 0xff, fp0
            0x0073f21c      f2004020       fdiv.l d0, fp0
            0x0073f220      f23c40230000.  fmul.l 0x100, fp0
            0x0073f228      594f           subq.w 0x4, a7
            0x0073f22a      f2276400       fmove.s fp0, -(a7)
            0x0073f22e      4eb9004081d2   jsr p_round
            0x0073f234      584f           addq.w 0x4, a7
            0x0073f236      2d57ffe8       move.l (a7), -0x18(a6)
            0x0073f23a      94ae0008       sub.l 0x8(a6), d2
            0x0073f23e      f23c40800000.  fmove.l 0xff, fp1
            0x0073f246      f20240a0       fdiv.l d2, fp1
            0x0073f24a      f23c40a30000.  fmul.l 0x100, fp1
            0x0073f252      f2276480       fmove.s fp1, -(a7)
            0x0073f256      4eb9004081d2   jsr p_round
            0x0073f25c      584f           addq.w 0x4, a7
            0x0073f25e      2497           move.l (a7), (a2)
            0x0073f260      f2276400       fmove.s fp0, -(a7)
            0x0073f264      4eb9004081d2   jsr p_round
            0x0073f26a      584f           addq.w 0x4, a7
            0x0073f26c      2d5fffe4       move.l (a7)+, -0x1c(a6)
            0x0073f270      322c000e       move.w 0xe(a4), d1
            0x0073f274      48c1           ext.l d1
            0x0073f276      e181           asl.l 0x8, d1
            0x0073f278      2d41ffd0       move.l d1, -0x30(a6)
            0x0073f27c      322c0010       move.w 0x10(a4), d1
            0x0073f280      48c1           ext.l d1
            0x0073f282      e181           asl.l 0x8, d1
            0x0073f284      2d41ffd4       move.l d1, -0x2c(a6)
            0x0073f288      322c0014       move.w 0x14(a4), d1
            0x0073f28c      48c1           ext.l d1
            0x0073f28e      e181           asl.l 0x8, d1
            0x0073f290      2d41ffdc       move.l d1, -0x24(a6)
            0x0073f294      322c0016       move.w 0x16(a4), d1
            0x0073f298      48c1           ext.l d1
            0x0073f29a      e181           asl.l 0x8, d1
            0x0073f29c      2d41ffe0       move.l d1, -0x20(a6)
            0x0073f2a0      322c000c       move.w 0xc(a4), d1
            0x0073f2a4      48c1           ext.l d1
            0x0073f2a6      e181           asl.l 0x8, d1
            0x0073f2a8      2d41ffcc       move.l d1, -0x34(a6)
            0x0073f2ac      322c0012       move.w 0x12(a4), d1
            0x0073f2b0      48c1           ext.l d1
            0x0073f2b2      e181           asl.l 0x8, d1
            0x0073f2b4      2d41ffd8       move.l d1, -0x28(a6)
            0x0073f2b8      5d4f           subq.w 0x6, a7
            0x0073f2ba      3f3c002a       move.w 0x2a, -(a7)
            0x0073f2be      4eb900481196   jsr MENUCOM.get_boxcol
            0x0073f2c4      544f           addq.w 0x2, a7
            0x0073f2c6      2d5fff9a       move.l (a7)+, -0x66(a6)
            0x0073f2ca      3d5fff9e       move.w (a7)+, -0x62(a6)
            0x0073f2ce      42aeffc4       clr.l -0x3c(a6)
            0x0073f2d2      42aeffc0       clr.l -0x40(a6)
            0x0073f2d6      42aeffbc       clr.l -0x44(a6)
            0x0073f2da      42aeffb4       clr.l -0x4c(a6)
            0x0073f2de      42aeffac       clr.l -0x54(a6)
            0x0073f2e2      4eb90051f298   jsr BRUSHCOM.brush_wait
            0x0073f2e8      1f3c0001       move.b 0x1, -(a7)
            0x0073f2ec      1f3c0003       move.b 0x3, -(a7)
            0x0073f2f0      4227           clr.b -(a7)
            0x0073f2f2      2f2efffc       move.l -0x4(a6), -(a7)
            0x0073f2f6      2f2efff8       move.l -0x8(a6), -(a7)
            0x0073f2fa      4eb9005217d8   jsr BRUSHCOM.br_transfer
            0x0073f300      defc000e       adda.w 0xe, a7
            0x0073f304      322eff9c       move.w -0x64(a6), d1
            0x0073f308      48c1           ext.l d1
            0x0073f30a      e181           asl.l 0x8, d1
            0x0073f30c      342eff9a       move.w -0x66(a6), d2
            0x0073f310      48c2           ext.l d2
            0x0073f312      d282           add.l d2, d1
            0x0073f314      362eff9e       move.w -0x62(a6), d3
            0x0073f318      48c3           ext.l d3
            0x0073f31a      e183           asl.l 0x8, d3
            0x0073f31c      d483           add.l d3, d2
            0x0073f31e      5380           subq.l 0x1, d0
            0x0073f320      2f00           move.l d0, -(a7)
            0x0073f322      7000           moveq 0x0, d0
        > 0x0073f324      b097           cmp.l (a7), d0
       < 0x0073f326      6e0002d2       bgt.w 0x73f5fa
          0x0073f32a      2d40fff4       move.l d0, -0xc(a6)
          0x0073f32e      363ae63c       move.w 0x73d96c(pc), d3
          0x0073f332      48c3           ext.l d3
          0x0073f334      e183           asl.l 0x8, d3
          0x0073f336      383ae632       move.w 0x73d96a(pc), d4
          0x0073f33a      48c4           ext.l d4
          0x0073f33c      d883           add.l d3, d4
          0x0073f33e      3a04           move.w d4, d5
          0x0073f340      7c01           moveq 0x1, d6
      > 0x0073f342      bcaeffa0       cmp.l -0x60(a6), d6
     < 0x0073f346      6e0a           bgt.b 0x73f352
        0x0073f348      33c5fff50000   move.w d5, 0xfff50000
        0x0073f34e      5286           addq.l 0x1, d6
     < 0x0073f350      68f0           bvc.b 0x73f342
     > 0x0073f352      422eff95       clr.b -0x6b(a6)
          0x0073f356      262effc4       move.l -0x3c(a6), d3
          0x0073f35a      b6aeffd0       cmp.l -0x30(a6), d3
      < 0x0073f35e      6d24           blt.b 0x73f384
         0x0073f360      b6aeffdc       cmp.l -0x24(a6), d3
     < 0x0073f364      6e1e           bgt.b 0x73f384
        0x0073f366      554f           subq.w 0x2, a7
        0x0073f368      3f3900869450   move.w 0x869450, -(a7)
        0x0073f36e      4eb900480fc2   jsr MENUCOM.get_boxon
        0x0073f374      544f           addq.w 0x2, a7
        0x0073f376      161f           move.b (a7)+, d3
        0x0073f378      4403           neg.b d3
        0x0073f37a      5203           addq.b 0x1, d3
        0x0073f37c      8639008694a4   or.b 0x8694a4, d3
    < 0x0073f382      6704           beq.b 0x73f388
    > 0x0073f384      522eff95       addq.b 0x1, -0x6b(a6)
    > 0x0073f388      7e00           moveq 0x0, d7
          0x0073f38a      554f           subq.w 0x2, a7
          0x0073f38c      3f390086945c   move.w 0x86945c, -(a7)
          0x0073f392      4eb900480fc2   jsr MENUCOM.get_boxon
          0x0073f398      544f           addq.w 0x2, a7
          0x0073f39a      4a1f           tst.b (a7)+
      < 0x0073f39c      660000a2       bne.w 0x73f440
         0x0073f3a0      262effc4       move.l -0x3c(a6), d3
         0x0073f3a4      02830000ff00   andi.l 0xff00, d3
         0x0073f3aa      2f03           move.l d3, -(a7)
         0x0073f3ac      3813           move.w (a3), d4
         0x0073f3ae      48c4           ext.l d4
         0x0073f3b0      5384           subq.l 0x1, d4
         0x0073f3b2      98ae0008       sub.l 0x8(a6), d4
         0x0073f3b6      2f04           move.l d4, -(a7)
         0x0073f3b8      7c00           moveq 0x0, d6
     > 0x0073f3ba      bc97           cmp.l (a7), d6
    < 0x0073f3bc      6f04           ble.b 0x73f3c2
       0x0073f3be      594f           subq.w 0x4, a7
   < 0x0073f3c0      6076           bra.b 0x73f438
   > 0x0073f3c2      2f00           move.l d0, -(a7)
       0x0073f3c4      7800           moveq 0x0, d4
       0x0073f3c6      4a2eff95       tst.b -0x6b(a6)
   < 0x0073f3ca      660e           bne.b 0x73f3da
      0x0073f3cc      beaeffd4       cmp.l -0x2c(a6), d7
  < 0x0073f3d0      6d08           blt.b 0x73f3da
     0x0073f3d2      beaeffe0       cmp.l -0x20(a6), d7
  < 0x0073f3d6      6e02           bgt.b 0x73f3da
     0x0073f3d8      5204           addq.b 0x1, d4
  > 0x0073f3da      1d44ff94       move.b d4, -0x6c(a6)
       0x0073f3de      08060000       btst.b 0x0, d6
   < 0x0073f3e2      6716           beq.b 0x73f3fa
      0x0073f3e4      2007           move.l d7, d0
      0x0073f3e6      02800000ff00   andi.l 0xff00, d0
      0x0073f3ec      4884           ext.w d4
      0x0073f3ee      41fae6c2       lea.l 0x73dab2(pc), a0
      0x0073f3f2      d0b04400       add.l (a0, d4.w * 4), d0
      0x0073f3f6      3a00           move.w d0, d5
  < 0x0073f3f8      600c           bra.b 0x73f406
  > 0x0073f3fa      4884           ext.w d4
      0x0073f3fc      41fae6b4       lea.l 0x73dab2(pc), a0
      0x0073f400      d6b04400       add.l (a0, d4.w * 4), d3
      0x0073f404      3a03           move.w d3, d5
  > 0x0073f406      33c5fff50000   move.w d5, 0xfff50000
       0x0073f40c      2807           move.l d7, d4
       0x0073f40e      9892           sub.l (a2), d4
       0x0073f410      0c840000ff00   cmpi.l 0xff00, d4
   < 0x0073f416      6e10           bgt.b 0x73f428
      0x0073f418      0c870000ff00   cmpi.l 0xff00, d7
  < 0x0073f41e      6f08           ble.b 0x73f428
     0x0073f420      2d47ffb8       move.l d7, -0x48(a6)
     0x0073f424      2d46ffbc       move.l d6, -0x44(a6)
  > 0x0073f428      de92           add.l (a2), d7
       0x0073f42a      2017           move.l (a7), d0
       0x0073f42c      262f0008       move.l 0x8(a7), d3
       0x0073f430      5286           addq.l 0x1, d6
   < 0x0073f432      6904           bvs.b 0x73f438
      0x0073f434      584f           addq.w 0x4, a7
   < 0x0073f436      6082           bra.b 0x73f3ba
   > 0x0073f438      defc000c       adda.w 0xc, a7
     < 0x0073f43c      60000090       bra.w 0x73f4ce
     > 0x0073f440      262effc4       move.l -0x3c(a6), d3
         0x0073f444      02830000ff00   andi.l 0xff00, d3
         0x0073f44a      d6bae666       add.l 0x73dab2(pc), d3
         0x0073f44e      3813           move.w (a3), d4
         0x0073f450      48c4           ext.l d4
         0x0073f452      5384           subq.l 0x1, d4
         0x0073f454      98ae0008       sub.l 0x8(a6), d4
         0x0073f458      2f04           move.l d4, -(a7)
         0x0073f45a      7c00           moveq 0x0, d6
     > 0x0073f45c      bc97           cmp.l (a7), d6
    < 0x0073f45e      6f04           ble.b 0x73f464
       0x0073f460      594f           subq.w 0x4, a7
   < 0x0073f462      6068           bra.b 0x73f4cc
   > 0x0073f464      2f00           move.l d0, -(a7)
       0x0073f466      7800           moveq 0x0, d4
       0x0073f468      4a2eff95       tst.b -0x6b(a6)
   < 0x0073f46c      660c           bne.b 0x73f47a
      0x0073f46e      beaeffd4       cmp.l -0x2c(a6), d7
  < 0x0073f472      6d06           blt.b 0x73f47a
     0x0073f474      beaeffe0       cmp.l -0x20(a6), d7
  < 0x0073f478      6f02           ble.b 0x73f47c
  > 0x0073f47a      5204           addq.b 0x1, d4
  > 0x0073f47c      1d44ff94       move.b d4, -0x6c(a6)
       0x0073f480      08060000       btst.b 0x0, d6
   < 0x0073f484      6716           beq.b 0x73f49c
      0x0073f486      2007           move.l d7, d0
      0x0073f488      02800000ff00   andi.l 0xff00, d0
      0x0073f48e      4884           ext.w d4
      0x0073f490      41fae620       lea.l 0x73dab2(pc), a0
      0x0073f494      d0b04400       add.l (a0, d4.w * 4), d0
      0x0073f498      3a00           move.w d0, d5
  < 0x0073f49a      6002           bra.b 0x73f49e
  > 0x0073f49c      3a03           move.w d3, d5
  > 0x0073f49e      33c5fff50000   move.w d5, 0xfff50000
       0x0073f4a4      2807           move.l d7, d4
       0x0073f4a6      9892           sub.l (a2), d4
       0x0073f4a8      0c840000ff00   cmpi.l 0xff00, d4
   < 0x0073f4ae      6e10           bgt.b 0x73f4c0
      0x0073f4b0      0c870000ff00   cmpi.l 0xff00, d7
  < 0x0073f4b6      6f08           ble.b 0x73f4c0
     0x0073f4b8      2d47ffb8       move.l d7, -0x48(a6)
     0x0073f4bc      2d46ffbc       move.l d6, -0x44(a6)
  > 0x0073f4c0      de92           add.l (a2), d7
       0x0073f4c2      2017           move.l (a7), d0
       0x0073f4c4      5286           addq.l 0x1, d6
   < 0x0073f4c6      6904           bvs.b 0x73f4cc
      0x0073f4c8      584f           addq.w 0x4, a7
   < 0x0073f4ca      6090           bra.b 0x73f45c
   > 0x0073f4cc      504f           addq.w 0x8, a7
     > 0x0073f4ce      262effc4       move.l -0x3c(a6), d3
          0x0073f4d2      96aeffe8       sub.l -0x18(a6), d3
          0x0073f4d6      0c830000ff00   cmpi.l 0xff00, d3
      < 0x0073f4dc      6e1a           bgt.b 0x73f4f8
         0x0073f4de      262effc4       move.l -0x3c(a6), d3
         0x0073f4e2      0c830000ff00   cmpi.l 0xff00, d3
     < 0x0073f4e8      6f0e           ble.b 0x73f4f8
        0x0073f4ea      2d6effc4ffb0   move.l -0x3c(a6), -0x50(a6)
        0x0073f4f0      262efff4       move.l -0xc(a6), d3
        0x0073f4f4      2d43ffb4       move.l d3, -0x4c(a6)
     > 0x0073f4f8      262effc4       move.l -0x3c(a6), d3
          0x0073f4fc      d6aeffe8       add.l -0x18(a6), d3
          0x0073f500      2d43ffc4       move.l d3, -0x3c(a6)
          0x0073f504      7600           moveq 0x0, d3
          0x0073f506      282effc0       move.l -0x40(a6), d4
          0x0073f50a      b8aeffcc       cmp.l -0x34(a6), d4
      < 0x0073f50e      6d22           blt.b 0x73f532
         0x0073f510      b8aeffd8       cmp.l -0x28(a6), d4
     < 0x0073f514      6e1c           bgt.b 0x73f532
        0x0073f516      4a39008694a4   tst.b 0x8694a4
    < 0x0073f51c      6614           bne.b 0x73f532
       0x0073f51e      554f           subq.w 0x2, a7
       0x0073f520      3f390086944e   move.w 0x86944e, -(a7)
       0x0073f526      4eb900480fc2   jsr MENUCOM.get_boxon
       0x0073f52c      544f           addq.w 0x2, a7
       0x0073f52e      4a1f           tst.b (a7)+
   < 0x0073f530      6602           bne.b 0x73f534
   > 0x0073f532      5203           addq.b 0x1, d3
   > 0x0073f534      7000           moveq 0x0, d0
          0x0073f536      554f           subq.w 0x2, a7
          0x0073f538      3f390086945c   move.w 0x86945c, -(a7)
          0x0073f53e      4eb900480fc2   jsr MENUCOM.get_boxon
          0x0073f544      544f           addq.w 0x2, a7
          0x0073f546      4a1f           tst.b (a7)+
      < 0x0073f548      6602           bne.b 0x73f54c
         0x0073f54a      5200           addq.b 0x1, d0
      > 0x0073f54c      b003           cmp.b d3, d0
      < 0x0073f54e      6618           bne.b 0x73f568
         0x0073f550      2004           move.l d4, d0
         0x0073f552      4c7c08000000.  divs.l 0x100, d0
         0x0073f55a      068000008000   addi.l 0x8000, d0
         0x0073f560      3a00           move.w d0, d5
         0x0073f562      3d45ff98       move.w d5, -0x68(a6)
     < 0x0073f566      6006           bra.b 0x73f56e
     > 0x0073f568      3a01           move.w d1, d5
         0x0073f56a      3d42ff98       move.w d2, -0x68(a6)
     > 0x0073f56e      202e0008       move.l 0x8(a6), d0
          0x0073f572      4c7c08000000.  divs.l 0x2, d0
          0x0073f57a      5380           subq.l 0x1, d0
          0x0073f57c      2f00           move.l d0, -(a7)
          0x0073f57e      7c00           moveq 0x0, d6
      > 0x0073f580      bc97           cmp.l (a7), d6
     < 0x0073f582      6e12           bgt.b 0x73f596
        0x0073f584      33c5fff50000   move.w d5, 0xfff50000
        0x0073f58a      33eeff98fff5.  move.w -0x68(a6), 0xfff50000.l
        0x0073f592      5286           addq.l 0x1, d6
     < 0x0073f594      68ea           bvc.b 0x73f580
     > 0x0073f596      584f           addq.w 0x4, a7
          0x0073f598      202effc0       move.l -0x40(a6), d0
          0x0073f59c      90aeffe4       sub.l -0x1c(a6), d0
          0x0073f5a0      0c800000ff00   cmpi.l 0xff00, d0
      < 0x0073f5a6      6e1a           bgt.b 0x73f5c2
         0x0073f5a8      202effc0       move.l -0x40(a6), d0
         0x0073f5ac      0c800000ff00   cmpi.l 0xff00, d0
     < 0x0073f5b2      6f0e           ble.b 0x73f5c2
        0x0073f5b4      2d6effc0ffa8   move.l -0x40(a6), -0x58(a6)
        0x0073f5ba      202efff4       move.l -0xc(a6), d0
        0x0073f5be      2d40ffac       move.l d0, -0x54(a6)
     > 0x0073f5c2      202effc0       move.l -0x40(a6), d0
          0x0073f5c6      d0aeffe4       add.l -0x1c(a6), d0
          0x0073f5ca      2d40ffc0       move.l d0, -0x40(a6)
          0x0073f5ce      303ae39c       move.w 0x73d96c(pc), d0
          0x0073f5d2      48c0           ext.l d0
          0x0073f5d4      e180           asl.l 0x8, d0
          0x0073f5d6      363ae392       move.w 0x73d96a(pc), d3
          0x0073f5da      48c3           ext.l d3
          0x0073f5dc      d680           add.l d0, d3
          0x0073f5de      3a03           move.w d3, d5
          0x0073f5e0      7c01           moveq 0x1, d6
      > 0x0073f5e2      bc91           cmp.l (a1), d6
     < 0x0073f5e4      6e0a           bgt.b 0x73f5f0
        0x0073f5e6      33c5fff50000   move.w d5, 0xfff50000
        0x0073f5ec      5286           addq.l 0x1, d6
     < 0x0073f5ee      68f2           bvc.b 0x73f5e2
     > 0x0073f5f0      202efff4       move.l -0xc(a6), d0
          0x0073f5f4      5280           addq.l 0x1, d0
       < 0x0073f5f6      6800fd2c       bvc.w 0x73f324
       > 0x0073f5fa      584f           addq.w 0x4, a7
            0x0073f5fc      f21fd0c0       fmovem (a7)+, fp0-fp1
            0x0073f600      4cdf0fff       movem.l (a7)+, d0-d7/a0-a3
            0x0073f604      4e5e           unlk a6
            0x0073f606      4e75           rts
            ; CALL XREF from MENUEFFECTCOM.hit_key_graph @ 0x73f77c
 86: MENUEFFECTCOM.draw_normal_gra ();
           0x0073f608      4e56ffdc       link.w a6, 0xffdc
           0x0073f60c      bfd5           cmpa.l (a5), a7
       < 0x0073f60e      6206           bhi.b 0x73f616
          0x0073f610      44fc0002       move.w 0x2, ccr
          0x0073f614      4e76           trapv
       > 0x0073f616      defc0018       adda.w 0x18, a7
           0x0073f61a      48e78100       movem.l d0/d7, -(a7)
           0x0073f61e      3f3900869464   move.w 0x869464, -(a7)
           0x0073f624      486efff4       pea.l -0xc(a6)
           0x0073f628      4eb90048124c   jsr MENUCOM.box_info
           0x0073f62e      584f           addq.w 0x4, a7
           0x0073f630      4eb9004755c2   jsr CONFIG.cfg_gender
           0x0073f636      101f           move.b (a7)+, d0
           0x0073f638      0c00000e       cmpi.b 0xe, d0
       < 0x0073f63c      6604           bne.b 0x73f642
          0x0073f63e      7e20           moveq 0x20, d7
      < 0x0073f640      6002           bra.b 0x73f644
      > 0x0073f642      7e10           moveq 0x10, d7
      > 0x0073f644      2f2efff8       move.l -0x8(a6), -(a7)
           0x0073f648      2f2efff4       move.l -0xc(a6), -(a7)
           0x0073f64c      2f07           move.l d7, -(a7)
           0x0073f64e      4ebafb34       jsr MENUEFFECTCOM.keyer_graphic(pc)
           0x0073f652      defc000c       adda.w 0xc, a7
           0x0073f656      4cdf0081       movem.l (a7)+, d0/d7
           0x0073f65a      4e5e           unlk a6
           0x0073f65c      4e75           rts
 298: MENUEFFECTCOM.hit_key_graph (int32_t arg_2h);
           ; var int32_t var_14h @ a6-0x14
           ; var int32_t var_12h @ a6-0x12
           ; var int32_t var_eh @ a6-0xe
           ; arg int32_t arg_2h @ a6+0x2
           0x0073f65e      4e56ffb6       link.w a6, 0xffb6
           0x0073f662      bfd5           cmpa.l (a5), a7
       < 0x0073f664      6206           bhi.b 0x73f66c
          0x0073f666      44fc0002       move.w 0x2, ccr
          0x0073f66a      4e76           trapv
       > 0x0073f66c      defc0032       adda.w 0x32, a7
           0x0073f670      48e7e0f8       movem.l d0-d2/a0-a4, -(a7)
           0x0073f674      43f90048d992   lea.l MENU2COM.get_numeric_val, a1
           0x0073f67a      45f9004081f8   lea.l p_trunc, a2
           0x0073f680      47eeffe8       lea.l -0x18(a6), a3
           0x0073f684      7402           moveq 0x2, d2
           0x0073f686      302e0008       move.w 0x8(a6), d0
           0x0073f68a      41fae4dc       lea.l 0x73db68(pc), a0
           0x0073f68e      3200           move.w d0, d1
           0x0073f690      e649           lsr.w 0x3, d1
           0x0073f692      0c410020       cmpi.w 0x20, d1
       < 0x0073f696      6d04           blt.b 0x73f69c
          0x0073f698      7200           moveq 0x0, d1
      < 0x0073f69a      6004           bra.b 0x73f6a0
      > 0x0073f69c      01301000       btst.l d0, (a0, d1.w)
      < 0x0073f6a0      670000de       beq.w 0x73f780
          0x0073f6a4      514f           subq.w 0x8, a7
          0x0073f6a6      3f3900869466   move.w 0x869466, -(a7)
          0x0073f6ac      4e91           jsr (a1)                    ; fcn.0000000a
          0x0073f6ae      544f           addq.w 0x2, a7
          0x0073f6b0      4e92           jsr (a2)                    ; fcn.00000009+0x2
          0x0073f6b2      584f           addq.w 0x4, a7
          0x0073f6b4      36af0002       move.w 0x2(a7), (a3)
          0x0073f6b8      594f           subq.w 0x4, a7
          0x0073f6ba      3f390086946c   move.w 0x86946c, -(a7)
          0x0073f6c0      4e91           jsr (a1)                    ; fcn.0000000a
          0x0073f6c2      544f           addq.w 0x2, a7
          0x0073f6c4      4e92           jsr (a2)                    ; fcn.00000009+0x2
          0x0073f6c6      584f           addq.w 0x4, a7
          0x0073f6c8      3d6f0002ffee   move.w 0x2(a7), -0x12(a6)
          0x0073f6ce      594f           subq.w 0x4, a7
          0x0073f6d0      3f3900869468   move.w 0x869468, -(a7)
          0x0073f6d6      4e91           jsr (a1)                    ; fcn.0000000a
          0x0073f6d8      544f           addq.w 0x2, a7
          0x0073f6da      4e92           jsr (a2)                    ; fcn.00000009+0x2
          0x0073f6dc      584f           addq.w 0x4, a7
          0x0073f6de      3d6f0002ffea   move.w 0x2(a7), -0x16(a6)
          0x0073f6e4      594f           subq.w 0x4, a7
          0x0073f6e6      3f390086946e   move.w 0x86946e, -(a7)
          0x0073f6ec      4e91           jsr (a1)                    ; fcn.0000000a
          0x0073f6ee      544f           addq.w 0x2, a7
          0x0073f6f0      4e92           jsr (a2)                    ; fcn.00000009+0x2
          0x0073f6f2      584f           addq.w 0x4, a7
          0x0073f6f4      3d6f0002fff0   move.w 0x2(a7), -0x10(a6)
          0x0073f6fa      594f           subq.w 0x4, a7
          0x0073f6fc      3f390086946a   move.w 0x86946a, -(a7)
          0x0073f702      4e91           jsr (a1)                    ; fcn.0000000a
          0x0073f704      544f           addq.w 0x2, a7
          0x0073f706      4e92           jsr (a2)                    ; fcn.00000009+0x2
          0x0073f708      584f           addq.w 0x4, a7
          0x0073f70a      3d6f0002ffec   move.w 0x2(a7), -0x14(a6)
          0x0073f710      594f           subq.w 0x4, a7
          0x0073f712      3f3900869470   move.w 0x869470, -(a7)
          0x0073f718      4e91           jsr (a1)                    ; fcn.0000000a
          0x0073f71a      544f           addq.w 0x2, a7
          0x0073f71c      4e92           jsr (a2)                    ; fcn.00000009+0x2
          0x0073f71e      584f           addq.w 0x4, a7
          0x0073f720      3d6f0002fff2   move.w 0x2(a7), -0xe(a6)
          0x0073f726      544f           addq.w 0x2, a7
          0x0073f728      4ebafa24       jsr MENUEFFECTCOM.hsl_keyer(pc)
          0x0073f72c      4a1f           tst.b (a7)+
      < 0x0073f72e      6734           beq.b 0x73f764
         0x0073f730      2f2effea       move.l -0x16(a6), -(a7)
         0x0073f734      3f13           move.w (a3), -(a7)
         0x0073f736      1f02           move.b d2, -(a7)
         0x0073f738      4227           clr.b -(a7)
         0x0073f73a      486efff4       pea.l -0xc(a6)
         0x0073f73e      4eb90063bff8   jsr COLOURCOM.convert_colour
         0x0073f744      defc000a       adda.w 0xa, a7
         0x0073f748      2eaefff0       move.l -0x10(a6), (a7)
         0x0073f74c      3f2effee       move.w -0x12(a6), -(a7)
         0x0073f750      1f02           move.b d2, -(a7)
         0x0073f752      4227           clr.b -(a7)
         0x0073f754      486efffa       pea.l -0x6(a6)
         0x0073f758      4eb90063bff8   jsr COLOURCOM.convert_colour
         0x0073f75e      defc000e       adda.w 0xe, a7
     < 0x0073f762      6016           bra.b 0x73f77a
     > 0x0073f764      2d53fff4       move.l (a3), -0xc(a6)
         0x0073f768      3d6effecfff8   move.w -0x14(a6), -0x8(a6)
         0x0073f76e      2d6effeefffa   move.l -0x12(a6), -0x6(a6)
         0x0073f774      3d6efff2fffe   move.w -0xe(a6), -0x2(a6)
     > 0x0073f77a      284b           movea.l a3, a4
          0x0073f77c      4ebafe8a       jsr MENUEFFECTCOM.draw_normal_gra(pc)
       > 0x0073f780      4cdf1f07       movem.l (a7)+, d0-d2/a0-a4
           0x0073f784      4e5e           unlk a6
           0x0073f786      4e75           rts
            ; CALL XREF from MENUEFFECTCOM.do_key @ 0x73ff62
            ; CALL XREF from MENUEFFECTCOM.hit_do_pen @ 0x745164
 304: MENUEFFECTCOM.keyer_set_out ();
           0x0073f788      4e56ffd6       link.w a6, 0xffd6
           0x0073f78c      bfd5           cmpa.l (a5), a7
       < 0x0073f78e      6206           bhi.b 0x73f796
          0x0073f790      44fc0002       move.w 0x2, ccr
          0x0073f794      4e76           trapv
       > 0x0073f796      defc002a       adda.w 0x2a, a7
           0x0073f79a      48e7c0f8       movem.l d0-d1/a0-a4, -(a7)
           0x0073f79e      43f900480fc2   lea.l MENUCOM.get_boxon, a1
           0x0073f7a4      45f90086945c   lea.l 0x86945c, a2
           0x0073f7aa      47f90086bbfe   lea.l 0x86bbfe, a3
           0x0073f7b0      49f90086bd08   lea.l 0x86bd08, a4
           0x0073f7b6      7203           moveq 0x3, d1
           0x0073f7b8      4eb90051f298   jsr BRUSHCOM.brush_wait
           0x0073f7be      4eb900523cda   jsr BRUSHCOM.open_block
           0x0073f7c4      554f           subq.w 0x2, a7
           0x0073f7c6      3f3900869428   move.w 0x869428, -(a7)
           0x0073f7cc      4e91           jsr (a1)                    ; fcn.0000000a
           0x0073f7ce      544f           addq.w 0x2, a7
           0x0073f7d0      4a1f           tst.b (a7)+
       < 0x0073f7d2      670a           beq.b 0x73f7de
          0x0073f7d4      4eb900518f96   jsr OUTCOM.normal_set_out
      < 0x0073f7da      60000092       bra.w 0x73f86e
      > 0x0073f7de      4a2e0008       tst.b 0x8(a6)
      < 0x0073f7e2      660e           bne.b 0x73f7f2
         0x0073f7e4      554f           subq.w 0x2, a7
         0x0073f7e6      3f3c0042       move.w 0x42, -(a7)
         0x0073f7ea      4e91           jsr (a1)                    ; fcn.0000000a
         0x0073f7ec      544f           addq.w 0x2, a7
         0x0073f7ee      4a1f           tst.b (a7)+
     < 0x0073f7f0      6718           beq.b 0x73f80a
     > 0x0073f7f2      554f           subq.w 0x2, a7
         0x0073f7f4      3f12           move.w (a2), -(a7)
         0x0073f7f6      4e91           jsr (a1)                    ; fcn.0000000a
         0x0073f7f8      544f           addq.w 0x2, a7
         0x0073f7fa      4a1f           tst.b (a7)+
     < 0x0073f7fc      6606           bne.b 0x73f804
        0x0073f7fe      1f3c002a       move.b 0x2a, -(a7)
    < 0x0073f802      6062           bra.b 0x73f866
    > 0x0073f804      1f3c002b       move.b 0x2b, -(a7)
    < 0x0073f808      605c           bra.b 0x73f866
    > 0x0073f80a      554f           subq.w 0x2, a7
        0x0073f80c      3f3c0043       move.w 0x43, -(a7)
        0x0073f810      4e91           jsr (a1)                    ; fcn.0000000a
        0x0073f812      544f           addq.w 0x2, a7
        0x0073f814      4a1f           tst.b (a7)+
    < 0x0073f816      6718           beq.b 0x73f830
       0x0073f818      554f           subq.w 0x2, a7
       0x0073f81a      3f12           move.w (a2), -(a7)
       0x0073f81c      4e91           jsr (a1)                    ; fcn.0000000a
       0x0073f81e      544f           addq.w 0x2, a7
       0x0073f820      4a1f           tst.b (a7)+
   < 0x0073f822      6606           bne.b 0x73f82a
      0x0073f824      1f3c002d       move.b 0x2d, -(a7)
  < 0x0073f828      603c           bra.b 0x73f866
  > 0x0073f82a      1f3c002c       move.b 0x2c, -(a7)
  < 0x0073f82e      6036           bra.b 0x73f866
  > 0x0073f830      554f           subq.w 0x2, a7
      0x0073f832      3f12           move.w (a2), -(a7)
      0x0073f834      4e91           jsr (a1)                    ; fcn.0000000a
      0x0073f836      544f           addq.w 0x2, a7
      0x0073f838      4a1f           tst.b (a7)+
  < 0x0073f83a      6618           bne.b 0x73f854
     0x0073f83c      554f           subq.w 0x2, a7
     0x0073f83e      3f13           move.w (a3), -(a7)
     0x0073f840      4e91           jsr (a1)                    ; fcn.0000000a
     0x0073f842      544f           addq.w 0x2, a7
     0x0073f844      4a1f           tst.b (a7)+
 < 0x0073f846      6706           beq.b 0x73f84e
 > 0x0073f848      1f3c0001       move.b 0x1, -(a7)
 < 0x0073f84c      6018           bra.b 0x73f866
 > 0x0073f84e      1f3c0029       move.b 0x29, -(a7)
 < 0x0073f852      6012           bra.b 0x73f866
 > 0x0073f854      554f           subq.w 0x2, a7
     0x0073f856      3f13           move.w (a3), -(a7)
     0x0073f858      4e91           jsr (a1)                    ; fcn.0000000a
     0x0073f85a      544f           addq.w 0x2, a7
     0x0073f85c      4a1f           tst.b (a7)+
 < 0x0073f85e      6702           beq.b 0x73f862
 < 0x0073f860      60e6           bra.b 0x73f848
 > 0x0073f862      1f3c0028       move.b 0x28, -(a7)
 > 0x0073f866      4eb900518dd8   jsr OUTCOM.set_out
          0x0073f86c      544f           addq.w 0x2, a7
      > 0x0073f86e      1f01           move.b d1, -(a7)
           0x0073f870      1014           move.b (a4), d0
           0x0073f872      4880           ext.w d0
           0x0073f874      41f9008693f2   lea.l 0x8693f2, a0
           0x0073f87a      2f3005202918   move.l 0x2918(a0, d0.w * 4), -(a7)
           0x0073f880      4eb90051872e   jsr OUTCOM.set_scroll
           0x0073f886      584f           addq.w 0x4, a7
           0x0073f888      1e81           move.b d1, (a7)
           0x0073f88a      1014           move.b (a4), d0
           0x0073f88c      4880           ext.w d0
           0x0073f88e      41f9008693f2   lea.l 0x8693f2, a0
           0x0073f894      2f3007202934   move.l 0x2934(a0, d0.w * 8), -(a7)
           0x0073f89a      2f3007202930   move.l 0x2930(a0, d0.w * 8), -(a7)
           0x0073f8a0      4eb900518a2a   jsr OUTCOM.set_video_crops
           0x0073f8a6      defc000a       adda.w 0xa, a7
           0x0073f8aa      4eb900523cf0   jsr BRUSHCOM.close_block
           0x0073f8b0      4cdf1f03       movem.l (a7)+, d0-d1/a0-a4
           0x0073f8b4      4e5e           unlk a6
           0x0073f8b6      4e75           rts
 24: MENUEFFECTCOM.make_soft_lut ();
           0x0073f8b8      4e56ffca       link.w a6, 0xffca
           0x0073f8bc      bfd5           cmpa.l (a5), a7
       < 0x0073f8be      6206           bhi.b 0x73f8c6
          0x0073f8c0      44fc0002       move.w 0x2, ccr
          0x0073f8c4      4e76           trapv
       > 0x0073f8c6      defc0034       adda.w 0x34, a7
           0x0073f8ca      48e7c1e0       movem.l d0-d1/d7/a0-a2, -(a7)
           0x0073f8ce      f227e001       fmovem fp0, -(a7)
            0x0073f8d2      43ec0010       lea.l 0x10(a4), a1
            0x0073f8d6      45f9004081d2   lea.l p_round, a2
            0x0073f8dc      223c000000ff   move.l 0xff, d1
            0x0073f8e2      3e2e000e       move.w 0xe(a6), d7
        > 0x0073f8e6      be6e000c       cmp.w 0xc(a6), d7
       < 0x0073f8ea      6e60           bgt.b 0x73f94c
          0x0073f8ec      f2114400       fmove.s (a1), fp0
          0x0073f8f0      f22e44220008   fadd.s 0x8(a6), fp0
          0x0073f8f6      f2116400       fmove.s fp0, (a1)
          0x0073f8fa      206c0018       movea.l 0x18(a4), a0
          0x0073f8fe      594f           subq.w 0x4, a7
          0x0073f900      2f11           move.l (a1), -(a7)
          0x0073f902      4e92           jsr (a2)                    ; fcn.00000009+0x2
          0x0073f904      584f           addq.w 0x4, a7
          0x0073f906      31af00027200   move.w 0x2(a7), (a0, d7.w * 2)
          0x0073f90c      584f           addq.w 0x4, a7
          0x0073f90e      4a2c0024       tst.b 0x24(a4)
      < 0x0073f912      6724           beq.b 0x73f938
         0x0073f914      594f           subq.w 0x4, a7
         0x0073f916      f2014000       fmove.l d1, fp0
         0x0073f91a      f2114428       fsub.s (a1), fp0
         0x0073f91e      f2000023       fmul fp0, fp0
         0x0073f922      f2014020       fdiv.l d1, fp0
         0x0073f926      f2276400       fmove.s fp0, -(a7)
         0x0073f92a      4e92           jsr (a2)                    ; fcn.00000009+0x2
         0x0073f92c      584f           addq.w 0x4, a7
         0x0073f92e      2001           move.l d1, d0
         0x0073f930      909f           sub.l (a7)+, d0
         0x0073f932      31807200       move.w d0, (a0, d7.w * 2)
     < 0x0073f936      6010           bra.b 0x73f948
     > 0x0073f938      594f           subq.w 0x4, a7
         0x0073f93a      2f11           move.l (a1), -(a7)
         0x0073f93c      4e92           jsr (a2)                    ; fcn.00000009+0x2
         0x0073f93e      584f           addq.w 0x4, a7
         0x0073f940      31af00027200   move.w 0x2(a7), (a0, d7.w * 2)
         0x0073f946      584f           addq.w 0x4, a7
     > 0x0073f948      5247           addq.w 0x1, d7
       < 0x0073f94a      689a           bvc.b 0x73f8e6
       > 0x0073f94c      f21fd080       fmovem (a7)+, fp0
            0x0073f950      4cdf0783       movem.l (a7)+, d0-d1/d7/a0-a2
            0x0073f954      4e5e           unlk a6
            0x0073f956      4e75           rts
            ; XREFS: CALL 0x0073fcd8  CALL 0x0073fcf0  CALL 0x0073fd08  
            ; XREFS: CALL 0x0073fde0  CALL 0x0073fdf0  CALL 0x0073fe00  
            ; XREFS: CALL 0x0073fede  CALL 0x0073fef6  CALL 0x0073ff0e  
 24: MENUEFFECTCOM.make_key_lut ();
           0x0073f958      4e56ff86       link.w a6, 0xff86
           0x0073f95c      bfd5           cmpa.l (a5), a7
       < 0x0073f95e      6206           bhi.b 0x73f966
          0x0073f960      44fc0002       move.w 0x2, ccr
          0x0073f964      4e76           trapv
       > 0x0073f966      defc0062       adda.w 0x62, a7
           0x0073f96a      48e7fff8       movem.l d0-d7/a0-a4, -(a7)
           0x0073f96e      f227e081       fmovem fp0/fp7, -(a7)
            0x0073f972      43eefffc       lea.l -0x4(a6), a1
            0x0073f976      45eeffe4       lea.l -0x1c(a6), a2
            0x0073f97a      47f90048d992   lea.l MENU2COM.get_numeric_val, a3
            0x0073f980      283c000000ff   move.l 0xff, d4
            0x0073f986      102e000c       move.b 0xc(a6), d0
            0x0073f98a      4880           ext.w d0
            0x0073f98c      3200           move.w d0, d1
            0x0073f98e      0c410002       cmpi.w 0x2, d1
        < 0x0073f992      622c           bhi.b 0x73f9c0
           0x0073f994      d241           add.w d1, d1
           0x0073f996      323b1006       move.w 0x73f99e(pc, d1.w), d1
           0x0073f99a      4efb1002       jmp 0x73f99e(pc, d1.w)
           0x0073f99e      00060012       ori.b 0x12, d6
           0x0073f9a2      001a41f9       ori.b 0xf9, (a2)+
           0x0073f9a6      008698a62f08   ori.l 0x98a62f08, d6
         0x0073f9ac      229f           move.l (a7)+, (a1)
     < 0x0073f9ae      6010           bra.b 0x73f9c0
        0x0073f9b0      41f9008694a6   lea.l 0x8694a6, a0
     < 0x0073f9b6      60f2           bra.b 0x73f9aa
         0x0073f9b8      41f9008696a6   lea.l 0x8696a6, a0
      < 0x0073f9be      60ea           bra.b 0x73f9aa
     > 0x0073f9c0      4a2e000a       tst.b 0xa(a6)
        < 0x0073f9c4      6612           bne.b 0x73f9d8
           0x0073f9c6      2051           movea.l (a1), a0
           0x0073f9c8      7e00           moveq 0x0, d7
       > 0x0073f9ca      31847200       move.w d4, (a0, d7.w * 2)
          0x0073f9ce      5247           addq.w 0x1, d7
          0x0073f9d0      be44           cmp.w d4, d7
       < 0x0073f9d2      6ff6           ble.b 0x73f9ca
       < 0x0073f9d4      60000144       bra.w 0x73fb1a
       > 0x0073f9d8      4a39008694a4   tst.b 0x8694a4
       < 0x0073f9de      6712           beq.b 0x73f9f2
          0x0073f9e0      2051           movea.l (a1), a0
          0x0073f9e2      7e00           moveq 0x0, d7
      > 0x0073f9e4      42707200       clr.w (a0, d7.w * 2)
         0x0073f9e8      5247           addq.w 0x1, d7
         0x0073f9ea      be44           cmp.w d4, d7
      < 0x0073f9ec      6ff6           ble.b 0x73f9e4
      < 0x0073f9ee      6000012a       bra.w 0x73fb1a
      > 0x0073f9f2      41f9008693f2   lea.l 0x8693f2, a0
          0x0073f9f8      514f           subq.w 0x8, a7
          0x0073f9fa      3f300274       move.w 0x74(a0, d0.w), -(a7)
          0x0073f9fe      4e93           jsr (a3)                    ; fcn.0000000c
          0x0073fa00      544f           addq.w 0x2, a7
          0x0073fa02      4eb9004081f8   jsr p_trunc
          0x0073fa08      584f           addq.w 0x4, a7
          0x0073fa0a      3d6f0002ffee   move.w 0x2(a7), -0x12(a6)
          0x0073fa10      594f           subq.w 0x4, a7
          0x0073fa12      3f30027a       move.w 0x7a(a0, d0.w), -(a7)
          0x0073fa16      4e93           jsr (a3)                    ; fcn.0000000c
          0x0073fa18      544f           addq.w 0x2, a7
          0x0073fa1a      4eb9004081f8   jsr p_trunc
          0x0073fa20      584f           addq.w 0x4, a7
          0x0073fa22      3d6f0002fff0   move.w 0x2(a7), -0x10(a6)
          0x0073fa28      594f           subq.w 0x4, a7
          0x0073fa2a      3f3003200080   move.w 0x80(a0, d0.w * 2), -(a7)
          0x0073fa30      4e93           jsr (a3)                    ; fcn.0000000c
          0x0073fa32      544f           addq.w 0x2, a7
          0x0073fa34      4eb9004081f8   jsr p_trunc
          0x0073fa3a      584f           addq.w 0x4, a7
          0x0073fa3c      3d6f0002fff2   move.w 0x2(a7), -0xe(a6)
          0x0073fa42      584f           addq.w 0x4, a7
          0x0073fa44      322effee       move.w -0x12(a6), d1
          0x0073fa48      48c1           ext.l d1
          0x0073fa4a      342efff2       move.w -0xe(a6), d2
          0x0073fa4e      48c2           ext.l d2
          0x0073fa50      2601           move.l d1, d3
          0x0073fa52      9682           sub.l d2, d3
          0x0073fa54      3c03           move.w d3, d6
          0x0073fa56      5282           addq.l 0x1, d2
          0x0073fa58      f2044380       fmove.l d4, fp7
          0x0073fa5c      f20243a0       fdiv.l d2, fp7
          0x0073fa60      4a46           tst.w d6
      < 0x0073fa62      6f10           ble.b 0x73fa74
         0x0073fa64      f23c40000000.  fmove.l 0x0, fp0
         0x0073fa6c      f22e6400fff4   fmove.s fp0, -0xc(a6)
     < 0x0073fa72      6016           bra.b 0x73fa8a
     > 0x0073fa74      48c6           ext.l d6
         0x0073fa76      f2064000       fmove.l d6, fp0
         0x0073fa7a      f2001c23       fmul fp7, fp0
         0x0073fa7e      f200001a       fneg fp0
         0x0073fa82      f22e6400fff4   fmove.s fp0, -0xc(a6)
         0x0073fa88      7c00           moveq 0x0, d6
     > 0x0073fa8a      3f06           move.w d6, -(a7)
          0x0073fa8c      5381           subq.l 0x1, d1
          0x0073fa8e      3f01           move.w d1, -(a7)
          0x0073fa90      f2276780       fmove.s fp7, -(a7)
          0x0073fa94      284a           movea.l a2, a4
          0x0073fa96      4ebafe20       jsr MENUEFFECTCOM.make_soft_lut(pc)
          0x0073fa9a      504f           addq.w 0x8, a7
          0x0073fa9c      2852           movea.l (a2), a4
          0x0073fa9e      322efff0       move.w -0x10(a6), d1
          0x0073faa2      48c1           ext.l d1
          0x0073faa4      342efff2       move.w -0xe(a6), d2
          0x0073faa8      48c2           ext.l d2
          0x0073faaa      d481           add.l d1, d2
          0x0073faac      3a02           move.w d2, d5
          0x0073faae      ba44           cmp.w d4, d5
      < 0x0073fab0      6f02           ble.b 0x73fab4
         0x0073fab2      3a04           move.w d4, d5
      > 0x0073fab4      f2044000       fmove.l d4, fp0
          0x0073fab8      f22e6400fff4   fmove.s fp0, -0xc(a6)
          0x0073fabe      5281           addq.l 0x1, d1
          0x0073fac0      3f01           move.w d1, -(a7)
          0x0073fac2      3f05           move.w d5, -(a7)
          0x0073fac4      f2001c1a       fneg fp7, fp0
          0x0073fac8      f2276400       fmove.s fp0, -(a7)
          0x0073facc      284a           movea.l a2, a4
          0x0073face      4ebafde8       jsr MENUEFFECTCOM.make_soft_lut(pc)
          0x0073fad2      504f           addq.w 0x8, a7
          0x0073fad4      2852           movea.l (a2), a4
          0x0073fad6      48c6           ext.l d6
          0x0073fad8      2f06           move.l d6, -(a7)
          0x0073fada      5397           subq.l 0x1, (a7)
          0x0073fadc      7e00           moveq 0x0, d7
      > 0x0073fade      be6f0002       cmp.w 0x2(a7), d7
     < 0x0073fae2      6e0a           bgt.b 0x73faee
        0x0073fae4      2051           movea.l (a1), a0
        0x0073fae6      42707200       clr.w (a0, d7.w * 2)
        0x0073faea      5247           addq.w 0x1, d7
     < 0x0073faec      68f0           bvc.b 0x73fade
     > 0x0073faee      584f           addq.w 0x4, a7
          0x0073faf0      3e2effee       move.w -0x12(a6), d7
      > 0x0073faf4      be6efff0       cmp.w -0x10(a6), d7
     < 0x0073faf8      6e0a           bgt.b 0x73fb04
        0x0073fafa      2051           movea.l (a1), a0
        0x0073fafc      31847200       move.w d4, (a0, d7.w * 2)
        0x0073fb00      5247           addq.w 0x1, d7
     < 0x0073fb02      68f0           bvc.b 0x73faf4
     > 0x0073fb04      48c5           ext.l d5
          0x0073fb06      2005           move.l d5, d0
          0x0073fb08      5280           addq.l 0x1, d0
          0x0073fb0a      3e00           move.w d0, d7
      > 0x0073fb0c      be44           cmp.w d4, d7
     < 0x0073fb0e      6e0a           bgt.b 0x73fb1a
        0x0073fb10      2051           movea.l (a1), a0
        0x0073fb12      42707200       clr.w (a0, d7.w * 2)
        0x0073fb16      5247           addq.w 0x1, d7
     < 0x0073fb18      68f2           bvc.b 0x73fb0c
     > 0x0073fb1a      102e000c       move.b 0xc(a6), d0
            0x0073fb1e      4880           ext.w d0
            0x0073fb20      0c400002       cmpi.w 0x2, d0
        < 0x0073fb24      625c           bhi.b 0x73fb82
           0x0073fb26      d040           add.w d0, d0
           0x0073fb28      303b0006       move.w 0x73fb30(pc, d0.w), d0
           0x0073fb2c      4efb0002       jmp 0x73fb30(pc, d0.w)
           0x0073fb30      00060024       ori.b 0x24, d6
           0x0073fb34      003c2051       
           0x0073fb35      3c20           move.w -(a0), d6
           0x0073fb37      517e0070       
           0x0073fb38      7e00           moveq 0x0, d7
       > 0x0073fb3a      7041           moveq 0x41, d0
          0x0073fb3c      c1f07200       muls.w (a0, d7.w * 2), d0
          0x0073fb40      4c7c08000000.  divs.l 0x2, d0
          0x0073fb48      31807200       move.w d0, (a0, d7.w * 2)
          0x0073fb4c      5247           addq.w 0x1, d7
          0x0073fb4e      be44           cmp.w d4, d7
       < 0x0073fb50      6fe8           ble.b 0x73fb3a
       < 0x0073fb52      602e           bra.b 0x73fb82
          0x0073fb54      2051           movea.l (a1), a0
          0x0073fb56      7e00           moveq 0x0, d7
      > 0x0073fb58      30307200       move.w (a0, d7.w * 2), d0
         0x0073fb5c      48c0           ext.l d0
         0x0073fb5e      e980           asl.l 0x4, d0
         0x0073fb60      31807200       move.w d0, (a0, d7.w * 2)
         0x0073fb64      5247           addq.w 0x1, d7
         0x0073fb66      be44           cmp.w d4, d7
      < 0x0073fb68      6fee           ble.b 0x73fb58
      < 0x0073fb6a      6016           bra.b 0x73fb82
         0x0073fb6c      2051           movea.l (a1), a0
         0x0073fb6e      7e00           moveq 0x0, d7
     > 0x0073fb70      30307200       move.w (a0, d7.w * 2), d0
        0x0073fb74      48c0           ext.l d0
        0x0073fb76      e980           asl.l 0x4, d0
        0x0073fb78      31807200       move.w d0, (a0, d7.w * 2)
        0x0073fb7c      5247           addq.w 0x1, d7
        0x0073fb7e      be44           cmp.w d4, d7
     < 0x0073fb80      6fee           ble.b 0x73fb70
      > 0x0073fb82      f21fd081       fmovem (a7)+, fp0/fp7
            0x0073fb86      4cdf1fff       movem.l (a7)+, d0-d7/a0-a4
            0x0073fb8a      4e5e           unlk a6
            0x0073fb8c      4e75           rts
            ; CALL XREF from MENUEFFECTCOM.do_colour @ 0x741954
            ; CALL XREF from MENUEFFECTCOM.update_clip_fra @ 0x744eda
            ; CALL XREF from MENUEFFECTCOM.after_buy @ 0x7459f4
 994: MENUEFFECTCOM.do_key (int32_t arg_ah);
           ; arg int32_t arg_ah @ a6+0xa
           ; var int32_t var_2h @ a7+0x2
           0x0073fb8e      4e56ffac       link.w a6, 0xffac
           0x0073fb92      bfd5           cmpa.l (a5), a7
       < 0x0073fb94      6206           bhi.b 0x73fb9c
          0x0073fb96      44fc0002       move.w 0x2, ccr
          0x0073fb9a      4e76           trapv
       > 0x0073fb9c      defc004a       adda.w 0x4a, a7
           0x0073fba0      48e7fff8       movem.l d0-d7/a0-a4, -(a7)
           0x0073fba4      43f90086bd08   lea.l 0x86bd08, a1
           0x0073fbaa      45f900480fc2   lea.l MENUCOM.get_boxon, a2
           0x0073fbb0      47ee0008       lea.l 0x8(a6), a3
           0x0073fbb4      7603           moveq 0x3, d3
           0x0073fbb6      7801           moveq 0x1, d4
           0x0073fbb8      3a3c0102       move.w 0x102, d5
           0x0073fbbc      7c02           moveq 0x2, d6
           0x0073fbbe      082e00000010   btst.b 0x0, 0x10(a6)
       < 0x0073fbc4      6726           beq.b 0x73fbec
          0x0073fbc6      4ebae8d4       jsr MENUEFFECTCOM.allocate_effect(pc)
          0x0073fbca      1f06           move.b d6, -(a7)
          0x0073fbcc      4227           clr.b -(a7)
          0x0073fbce      4227           clr.b -(a7)
          0x0073fbd0      2f390086940e   move.l 0x86940e, -(a7)
          0x0073fbd6      2f3900869416   move.l 0x869416, -(a7)
          0x0073fbdc      2f3900869412   move.l 0x869412, -(a7)
          0x0073fbe2      4eb900522722   jsr BRUSHCOM.str_any_str_cop
          0x0073fbe8      defc0012       adda.w 0x12, a7
       > 0x0073fbec      0d2e0010       btst.l d6, 0x10(a6)
       < 0x0073fbf0      6740           beq.b 0x73fc32
          0x0073fbf2      3f3900869454   move.w 0x869454, -(a7)
          0x0073fbf8      4eb900481472   jsr MENUCOM.draw_box
          0x0073fbfe      544f           addq.w 0x2, a7
          0x0073fc00      7e00           moveq 0x0, d7
      > 0x0073fc02      4887           ext.w d7
         0x0073fc04      41f9008693f2   lea.l 0x8693f2, a0
         0x0073fc0a      3f3073200080   move.w 0x80(a0, d7.w * 2), -(a7)
         0x0073fc10      4eb900481472   jsr MENUCOM.draw_box
         0x0073fc16      3eb07274       move.w 0x74(a0, d7.w), (a7)
         0x0073fc1a      4eb900481472   jsr MENUCOM.draw_box
         0x0073fc20      3eb0727a       move.w 0x7a(a0, d7.w), (a7)
         0x0073fc24      4eb900481472   jsr MENUCOM.draw_box
         0x0073fc2a      544f           addq.w 0x2, a7
         0x0073fc2c      5207           addq.b 0x1, d7
         0x0073fc2e      be06           cmp.b d6, d7
      < 0x0073fc30      6fd0           ble.b 0x73fc02
       > 0x0073fc32      092e0010       btst.l d4, 0x10(a6)
       < 0x0073fc36      670e           beq.b 0x73fc46
          0x0073fc38      3f3900869464   move.w 0x869464, -(a7)
          0x0073fc3e      4eb900481472   jsr MENUCOM.draw_box
          0x0073fc44      544f           addq.w 0x2, a7
       > 0x0073fc46      303c7000       move.w 0x7000, d0
           0x0073fc4a      c06e0010       and.w 0x10(a6), d0
           0x0073fc4e      b07adf3a       cmp.w 0x73db8a(pc), d0
       < 0x0073fc52      67000204       beq.w 0x73fe58
          0x0073fc56      3005           move.w d5, d0
          0x0073fc58      c06e0010       and.w 0x10(a6), d0
          0x0073fc5c      b07adf2c       cmp.w 0x73db8a(pc), d0
      < 0x0073fc60      6704           beq.b 0x73fc66
         0x0073fc62      4211           clr.b (a1)
     < 0x0073fc64      6004           bra.b 0x73fc6a
     > 0x0073fc66      4411           neg.b (a1)
         0x0073fc68      5211           addq.b 0x1, (a1)
     > 0x0073fc6a      303900869412   move.w 0x869412, d0
          0x0073fc70      48c0           ext.l d0
          0x0073fc72      3213           move.w (a3), d1
          0x0073fc74      48c1           ext.l d1
          0x0073fc76      d081           add.l d1, d0
          0x0073fc78      3d40fff8       move.w d0, -0x8(a6)
          0x0073fc7c      303900869414   move.w 0x869414, d0
          0x0073fc82      48c0           ext.l d0
          0x0073fc84      342e000a       move.w 0xa(a6), d2
          0x0073fc88      48c2           ext.l d2
          0x0073fc8a      d480           add.l d0, d2
          0x0073fc8c      048200000080   subi.l 0x80, d2
          0x0073fc92      3d42fffa       move.w d2, -0x6(a6)
          0x0073fc96      1011           move.b (a1), d0
          0x0073fc98      4880           ext.w d0
          0x0073fc9a      41f9008693f2   lea.l 0x8693f2, a0
          0x0073fca0      343005202918   move.w 0x2918(a0, d0.w * 4), d2
          0x0073fca6      48c2           ext.l d2
          0x0073fca8      d481           add.l d1, d2
          0x0073fcaa      3682           move.w d2, (a3)
          0x0073fcac      322e000a       move.w 0xa(a6), d1
          0x0073fcb0      48c1           ext.l d1
          0x0073fcb2      048100000080   subi.l 0x80, d1
          0x0073fcb8      34300520291a   move.w 0x291a(a0, d0.w * 4), d2
          0x0073fcbe      48c2           ext.l d2
          0x0073fcc0      d481           add.l d1, d2
          0x0073fcc2      3d42000a       move.w d2, 0xa(a6)
          0x0073fcc6      4227           clr.b -(a7)
          0x0073fcc8      554f           subq.w 0x2, a7
          0x0073fcca      3f390086944e   move.w 0x86944e, -(a7)
          0x0073fcd0      4e92           jsr (a2)                    ; fcn.00000009+0x2
          0x0073fcd2      4217           clr.b (a7)
          0x0073fcd4      49eefff6       lea.l -0xa(a6), a4
          0x0073fcd8      4ebafc7e       jsr MENUEFFECTCOM.make_key_lut(pc)
          0x0073fcdc      584f           addq.w 0x4, a7
          0x0073fcde      1e84           move.b d4, (a7)
          0x0073fce0      554f           subq.w 0x2, a7
          0x0073fce2      3f3900869450   move.w 0x869450, -(a7)
          0x0073fce8      4e92           jsr (a2)                    ; fcn.00000009+0x2
          0x0073fcea      4217           clr.b (a7)
          0x0073fcec      49eefff6       lea.l -0xa(a6), a4
          0x0073fcf0      4ebafc66       jsr MENUEFFECTCOM.make_key_lut(pc)
          0x0073fcf4      584f           addq.w 0x4, a7
          0x0073fcf6      1e86           move.b d6, (a7)
          0x0073fcf8      554f           subq.w 0x2, a7
          0x0073fcfa      3f3900869450   move.w 0x869450, -(a7)
          0x0073fd00      4e92           jsr (a2)                    ; fcn.00000009+0x2
          0x0073fd02      4217           clr.b (a7)
          0x0073fd04      49eefff6       lea.l -0xa(a6), a4
          0x0073fd08      4ebafc4e       jsr MENUEFFECTCOM.make_key_lut(pc)
          0x0073fd0c      584f           addq.w 0x4, a7
          0x0073fd0e      1e83           move.b d3, (a7)
          0x0073fd10      2f2e000c       move.l 0xc(a6), -(a7)
          0x0073fd14      2f13           move.l (a3), -(a7)
          0x0073fd16      4eb9005223fc   jsr BRUSHCOM.str_write_area
          0x0073fd1c      defc000a       adda.w 0xa, a7
          0x0073fd20      41f9008694a6   lea.l 0x8694a6, a0
          0x0073fd26      2f08           move.l a0, -(a7)
          0x0073fd28      1f03           move.b d3, -(a7)
          0x0073fd2a      2f2efff8       move.l -0x8(a6), -(a7)
          0x0073fd2e      2f2e000c       move.l 0xc(a6), -(a7)
          0x0073fd32      2f13           move.l (a3), -(a7)
          0x0073fd34      4eb90052abf8   jsr BRUSH2COM.br_key
          0x0073fd3a      defc000e       adda.w 0xe, a7
          0x0073fd3e      3eb90086bbfe   move.w 0x86bbfe, (a7)
          0x0073fd44      4e92           jsr (a2)                    ; fcn.00000009+0x2
          0x0073fd46      544f           addq.w 0x2, a7
          0x0073fd48      4a1f           tst.b (a7)+
      < 0x0073fd4a      670001e6       beq.w 0x73ff32
         0x0073fd4e      3d53fffc       move.w (a3), -0x4(a6)
         0x0073fd52      3d6e000afffe   move.w 0xa(a6), -0x2(a6)
         0x0073fd58      9efc000a       suba.w 0xa, a7
         0x0073fd5c      3f390086bbf6   move.w 0x86bbf6, -(a7)
         0x0073fd62      4eb90048d992   jsr MENU2COM.get_numeric_val
         0x0073fd68      544f           addq.w 0x2, a7
         0x0073fd6a      4eb9004081d2   jsr p_round
         0x0073fd70      584f           addq.w 0x4, a7
         0x0073fd72      3f6f00020004   move.w 0x2(a7), 0x4(a7)
         0x0073fd78      544f           addq.w 0x2, a7
         0x0073fd7a      4217           clr.b (a7)
         0x0073fd7c      1011           move.b (a1), d0
         0x0073fd7e      4880           ext.w d0
         0x0073fd80      41f9008693f2   lea.l 0x8693f2, a0
         0x0073fd86      2f3007202934   move.l 0x2934(a0, d0.w * 8), -(a7)
         0x0073fd8c      2f3007202930   move.l 0x2930(a0, d0.w * 8), -(a7)
         0x0073fd92      4ebae772       jsr MENUEFFECTCOM.bgnd_clip_buy(pc)
         0x0073fd96      504f           addq.w 0x8, a7
         0x0073fd98      3eb900869452   move.w 0x869452, (a7)
         0x0073fd9e      4e92           jsr (a2)                    ; fcn.00000009+0x2
         0x0073fda0      544f           addq.w 0x2, a7
         0x0073fda2      4a1f           tst.b (a7)+
     < 0x0073fda4      670000ac       beq.w 0x73fe52
        0x0073fda8      1f03           move.b d3, -(a7)
        0x0073fdaa      1f06           move.b d6, -(a7)
        0x0073fdac      554f           subq.w 0x2, a7
        0x0073fdae      3f390086945c   move.w 0x86945c, -(a7)
        0x0073fdb4      4e92           jsr (a2)                    ; fcn.00000009+0x2
        0x0073fdb6      544f           addq.w 0x2, a7
        0x0073fdb8      4417           neg.b (a7)
        0x0073fdba      5217           addq.b 0x1, (a7)
        0x0073fdbc      2f3900869416   move.l 0x869416, -(a7)
        0x0073fdc2      2f3900869412   move.l 0x869412, -(a7)
        0x0073fdc8      2f2efffc       move.l -0x4(a6), -(a7)
        0x0073fdcc      4eb9005230a0   jsr BRUSHCOM.br_key_stamp
        0x0073fdd2      defc0010       adda.w 0x10, a7
        0x0073fdd6      4217           clr.b (a7)
        0x0073fdd8      4227           clr.b -(a7)
        0x0073fdda      4227           clr.b -(a7)
        0x0073fddc      49eefff6       lea.l -0xa(a6), a4
        0x0073fde0      4ebafb76       jsr MENUEFFECTCOM.make_key_lut(pc)
        0x0073fde4      584f           addq.w 0x4, a7
        0x0073fde6      1e84           move.b d4, (a7)
        0x0073fde8      1f04           move.b d4, -(a7)
        0x0073fdea      1f04           move.b d4, -(a7)
        0x0073fdec      49eefff6       lea.l -0xa(a6), a4
        0x0073fdf0      4ebafb66       jsr MENUEFFECTCOM.make_key_lut(pc)
        0x0073fdf4      584f           addq.w 0x4, a7
        0x0073fdf6      1e86           move.b d6, (a7)
        0x0073fdf8      1f04           move.b d4, -(a7)
        0x0073fdfa      1f04           move.b d4, -(a7)
        0x0073fdfc      49eefff6       lea.l -0xa(a6), a4
        0x0073fe00      4ebafb56       jsr MENUEFFECTCOM.make_key_lut(pc)
        0x0073fe04      5c4f           addq.w 0x6, a7
        0x0073fe06      41f9008694a6   lea.l 0x8694a6, a0
        0x0073fe0c      2f08           move.l a0, -(a7)
        0x0073fe0e      1f03           move.b d3, -(a7)
        0x0073fe10      2f2efff8       move.l -0x8(a6), -(a7)
        0x0073fe14      2f2e000c       move.l 0xc(a6), -(a7)
        0x0073fe18      2f13           move.l (a3), -(a7)
        0x0073fe1a      4eb90052abf8   jsr BRUSH2COM.br_key
        0x0073fe20      defc0010       adda.w 0x10, a7
        0x0073fe24      1e83           move.b d3, (a7)
        0x0073fe26      1f03           move.b d3, -(a7)
    > 0x0073fe28      554f           subq.w 0x2, a7
       0x0073fe2a      3f390086945c   move.w 0x86945c, -(a7)
       0x0073fe30      4e92           jsr (a2)                    ; fcn.00000009+0x2
       0x0073fe32      544f           addq.w 0x2, a7
       0x0073fe34      4417           neg.b (a7)
       0x0073fe36      5217           addq.b 0x1, (a7)
       0x0073fe38      2f3900869416   move.l 0x869416, -(a7)
       0x0073fe3e      2f3900869412   move.l 0x869412, -(a7)
       0x0073fe44      2f2efffc       move.l -0x4(a6), -(a7)
       0x0073fe48      4eb9005230a0   jsr BRUSHCOM.br_key_stamp
   < 0x0073fe4e      600000de       bra.w 0x73ff2e
   > 0x0073fe52      1f03           move.b d3, -(a7)
       0x0073fe54      4227           clr.b -(a7)
   < 0x0073fe56      60d0           bra.b 0x73fe28
     > 0x0073fe58      072e0010       btst.l d3, 0x10(a6)
     < 0x0073fe5c      670000d4       beq.w 0x73ff32
        0x0073fe60      303900869412   move.w 0x869412, d0
        0x0073fe66      48c0           ext.l d0
        0x0073fe68      3213           move.w (a3), d1
        0x0073fe6a      48c1           ext.l d1
        0x0073fe6c      d081           add.l d1, d0
        0x0073fe6e      3d40fff8       move.w d0, -0x8(a6)
        0x0073fe72      303900869414   move.w 0x869414, d0
        0x0073fe78      48c0           ext.l d0
        0x0073fe7a      342e000a       move.w 0xa(a6), d2
        0x0073fe7e      48c2           ext.l d2
        0x0073fe80      d480           add.l d0, d2
        0x0073fe82      048200000080   subi.l 0x80, d2
        0x0073fe88      3d42fffa       move.w d2, -0x6(a6)
        0x0073fe8c      1011           move.b (a1), d0
        0x0073fe8e      4880           ext.w d0
        0x0073fe90      41f9008693f2   lea.l 0x8693f2, a0
        0x0073fe96      343005202918   move.w 0x2918(a0, d0.w * 4), d2
        0x0073fe9c      48c2           ext.l d2
        0x0073fe9e      d481           add.l d1, d2
        0x0073fea0      3682           move.w d2, (a3)
        0x0073fea2      322e000a       move.w 0xa(a6), d1
        0x0073fea6      48c1           ext.l d1
        0x0073fea8      048100000080   subi.l 0x80, d1
        0x0073feae      34300520291a   move.w 0x291a(a0, d0.w * 4), d2
        0x0073feb4      48c2           ext.l d2
        0x0073feb6      d481           add.l d1, d2
        0x0073feb8      3d42000a       move.w d2, 0xa(a6)
        0x0073febc      1f03           move.b d3, -(a7)
        0x0073febe      2f2e000c       move.l 0xc(a6), -(a7)
        0x0073fec2      2f13           move.l (a3), -(a7)
        0x0073fec4      4eb9005223fc   jsr BRUSHCOM.str_write_area
        0x0073feca      504f           addq.w 0x8, a7
        0x0073fecc      4217           clr.b (a7)
        0x0073fece      554f           subq.w 0x2, a7
        0x0073fed0      3f390086944e   move.w 0x86944e, -(a7)
        0x0073fed6      4e92           jsr (a2)                    ; fcn.00000009+0x2
        0x0073fed8      4217           clr.b (a7)
        0x0073feda      49eefff6       lea.l -0xa(a6), a4
        0x0073fede      4ebafa78       jsr MENUEFFECTCOM.make_key_lut(pc)
        0x0073fee2      584f           addq.w 0x4, a7
        0x0073fee4      1e84           move.b d4, (a7)
        0x0073fee6      554f           subq.w 0x2, a7
        0x0073fee8      3f3900869450   move.w 0x869450, -(a7)
        0x0073feee      4e92           jsr (a2)                    ; fcn.00000009+0x2
        0x0073fef0      4217           clr.b (a7)
        0x0073fef2      49eefff6       lea.l -0xa(a6), a4
        0x0073fef6      4ebafa60       jsr MENUEFFECTCOM.make_key_lut(pc)
        0x0073fefa      584f           addq.w 0x4, a7
        0x0073fefc      1e86           move.b d6, (a7)
        0x0073fefe      554f           subq.w 0x2, a7
        0x0073ff00      3f3900869450   move.w 0x869450, -(a7)
        0x0073ff06      4e92           jsr (a2)                    ; fcn.00000009+0x2
        0x0073ff08      4217           clr.b (a7)
        0x0073ff0a      49eefff6       lea.l -0xa(a6), a4
        0x0073ff0e      4ebafa48       jsr MENUEFFECTCOM.make_key_lut(pc)
        0x0073ff12      5c4f           addq.w 0x6, a7
        0x0073ff14      41f9008694a6   lea.l 0x8694a6, a0
        0x0073ff1a      2f08           move.l a0, -(a7)
        0x0073ff1c      1f03           move.b d3, -(a7)
        0x0073ff1e      2f2efff8       move.l -0x8(a6), -(a7)
        0x0073ff22      2f2e000c       move.l 0xc(a6), -(a7)
        0x0073ff26      2f13           move.l (a3), -(a7)
        0x0073ff28      4eb90052abf8   jsr BRUSH2COM.br_key
   > 0x0073ff2e      defc0012       adda.w 0x12, a7
      > 0x0073ff32      082e00000010   btst.b 0x0, 0x10(a6)
       < 0x0073ff38      6610           bne.b 0x73ff4a
          0x0073ff3a      554f           subq.w 0x2, a7
          0x0073ff3c      3f390086bbfe   move.w 0x86bbfe, -(a7)
          0x0073ff42      4e92           jsr (a2)                    ; fcn.00000009+0x2
          0x0073ff44      544f           addq.w 0x2, a7
          0x0073ff46      4a1f           tst.b (a7)+
      < 0x0073ff48      6706           beq.b 0x73ff50
      > 0x0073ff4a      4eb90051f298   jsr BRUSHCOM.brush_wait
      > 0x0073ff50      072e0010       btst.l d3, 0x10(a6)
       < 0x0073ff54      6612           bne.b 0x73ff68
          0x0073ff56      4227           clr.b -(a7)
          0x0073ff58      082e00080011   btst.b 0x8, 0x11(a6)
      < 0x0073ff5e      6702           beq.b 0x73ff62
         0x0073ff60      5217           addq.b 0x1, (a7)
      > 0x0073ff62      4ebaf824       jsr MENUEFFECTCOM.keyer_set_out(pc)
          0x0073ff66      544f           addq.w 0x2, a7
       > 0x0073ff68      4cdf1fff       movem.l (a7)+, d0-d7/a0-a4
           0x0073ff6c      4e5e           unlk a6
           0x0073ff6e      4e75           rts
            ; CALL XREF from MENUEFFECTCOM.hit_undo_key @ 0x740130
 24: MENUEFFECTCOM.undo_key ();
           0x0073ff70      4e56ffb8       link.w a6, 0xffb8
           0x0073ff74      bfd5           cmpa.l (a5), a7
       < 0x0073ff76      6206           bhi.b 0x73ff7e
          0x0073ff78      44fc0002       move.w 0x2, ccr
          0x0073ff7c      4e76           trapv
       > 0x0073ff7e      defc0046       adda.w 0x46, a7
           0x0073ff82      48e7f1f8       movem.l d0-d3/d7/a0-a4, -(a7)
           0x0073ff86      f227e001       fmovem fp0, -(a7)
            0x0073ff8a      43f90048d992   lea.l MENU2COM.get_numeric_val, a1
            0x0073ff90      45f9004081f8   lea.l p_trunc, a2
            0x0073ff96      47f90048da84   lea.l MENU2COM.set_numeric_val, a3
            0x0073ff9c      49f900869456   lea.l 0x869456, a4
            0x0073ffa2      7201           moveq 0x1, d1
            0x0073ffa4      740a           moveq 0xa, d2
            0x0073ffa6      7602           moveq 0x2, d3
            0x0073ffa8      102e0008       move.b 0x8(a6), d0
            0x0073ffac      4880           ext.w d0
            0x0073ffae      b043           cmp.w d3, d0
        < 0x0073ffb0      6200014e       bhi.w 0x740100
           0x0073ffb4      d040           add.w d0, d0
           0x0073ffb6      303b0006       move.w 0x73ffbe(pc, d0.w), d0
           0x0073ffba      4efb0002       jmp 0x73ffbe(pc, d0.w)
           0x0073ffbe      00060016       ori.b 0x16, d6
           0x0073ffc2      009e3f144227   ori.l 0x3f144227, (a6)+
          0x0073ffc8      4eb900483972   jsr MENUCOM.set_enable_box
          0x0073ffce      584f           addq.w 0x4, a7
      < 0x0073ffd0      6000012e       bra.w 0x740100
         0x0073ffd4      7e00           moveq 0x0, d7
     > 0x0073ffd6      4887           ext.w d7
        0x0073ffd8      41f9008693f2   lea.l 0x8693f2, a0
        0x0073ffde      514f           subq.w 0x8, a7
        0x0073ffe0      3f307274       move.w 0x74(a0, d7.w), -(a7)
        0x0073ffe4      4e91           jsr (a1)                    ; fcn.0000000a
        0x0073ffe6      544f           addq.w 0x2, a7
        0x0073ffe8      4e92           jsr (a2)                    ; fcn.00000009+0x2
        0x0073ffea      584f           addq.w 0x4, a7
        0x0073ffec      31af00027320.  move.w 0x2(a7), 0xa0(a0, d7.w * 2)
        0x0073fff4      594f           subq.w 0x4, a7
        0x0073fff6      3f30727a       move.w 0x7a(a0, d7.w), -(a7)
        0x0073fffa      4e91           jsr (a1)                    ; fcn.0000000a
        0x0073fffc      544f           addq.w 0x2, a7
        0x0073fffe      4e92           jsr (a2)                    ; fcn.00000009+0x2
        0x00740000      584f           addq.w 0x4, a7
        0x00740002      31af00027320.  move.w 0x2(a7), 0xa6(a0, d7.w * 2)
        0x0074000a      594f           subq.w 0x4, a7
        0x0074000c      3f3073200080   move.w 0x80(a0, d7.w * 2), -(a7)
        0x00740012      4e91           jsr (a1)                    ; fcn.0000000a
        0x00740014      544f           addq.w 0x2, a7
        0x00740016      4e92           jsr (a2)                    ; fcn.00000009+0x2
        0x00740018      584f           addq.w 0x4, a7
        0x0074001a      31af00027320.  move.w 0x2(a7), 0xac(a0, d7.w * 2)
        0x00740022      584f           addq.w 0x4, a7
        0x00740024      5207           addq.b 0x1, d7
        0x00740026      be03           cmp.b d3, d7
     < 0x00740028      6fac           ble.b 0x73ffd6
         0x0074002a      514f           subq.w 0x8, a7
         0x0074002c      3f3900869454   move.w 0x869454, -(a7)
         0x00740032      4e91           jsr (a1)                    ; fcn.0000000a
         0x00740034      544f           addq.w 0x2, a7
         0x00740036      4e92           jsr (a2)                    ; fcn.00000009+0x2
         0x00740038      584f           addq.w 0x4, a7
         0x0074003a      33ef00020086.  move.w 0x2(a7), 0x869490.l
         0x00740042      584f           addq.w 0x4, a7
         0x00740044      4a39008694a4   tst.b 0x8694a4
     < 0x0074004a      660c           bne.b 0x740058
        0x0074004c      3f14           move.w (a4), -(a7)
        0x0074004e      1f01           move.b d1, -(a7)
        0x00740050      4eb900483972   jsr MENUCOM.set_enable_box
        0x00740056      584f           addq.w 0x4, a7
    > 0x00740058      600000a6       bra.w 0x740100
        0x0074005c      7e00           moveq 0x0, d7
    > 0x0074005e      4887           ext.w d7
       0x00740060      41f9008693f2   lea.l 0x8693f2, a0
       0x00740066      3f307274       move.w 0x74(a0, d7.w), -(a7)
       0x0074006a      3030732000a0   move.w 0xa0(a0, d7.w * 2), d0
       0x00740070      48c0           ext.l d0
       0x00740072      f2004000       fmove.l d0, fp0
       0x00740076      f2276400       fmove.s fp0, -(a7)
       0x0074007a      4227           clr.b -(a7)
       0x0074007c      1f01           move.b d1, -(a7)
       0x0074007e      4e93           jsr (a3)                    ; fcn.0000000c
       0x00740080      504f           addq.w 0x8, a7
       0x00740082      3eb0727a       move.w 0x7a(a0, d7.w), (a7)
       0x00740086      3030732000a6   move.w 0xa6(a0, d7.w * 2), d0
       0x0074008c      48c0           ext.l d0
       0x0074008e      f2004000       fmove.l d0, fp0
       0x00740092      f2276400       fmove.s fp0, -(a7)
       0x00740096      4227           clr.b -(a7)
       0x00740098      1f01           move.b d1, -(a7)
       0x0074009a      4e93           jsr (a3)                    ; fcn.0000000c
       0x0074009c      dec2           adda.w d2, a7
       0x0074009e      3f3073200080   move.w 0x80(a0, d7.w * 2), -(a7)
       0x007400a4      3030732000ac   move.w 0xac(a0, d7.w * 2), d0
       0x007400aa      48c0           ext.l d0
       0x007400ac      f2004000       fmove.l d0, fp0
       0x007400b0      f2276400       fmove.s fp0, -(a7)
       0x007400b4      4227           clr.b -(a7)
       0x007400b6      1f01           move.b d1, -(a7)
       0x007400b8      4e93           jsr (a3)                    ; fcn.0000000c
       0x007400ba      dec2           adda.w d2, a7
       0x007400bc      5207           addq.b 0x1, d7
       0x007400be      be03           cmp.b d3, d7
    < 0x007400c0      6f9c           ble.b 0x74005e
        0x007400c2      3f3900869454   move.w 0x869454, -(a7)
        0x007400c8      303900869490   move.w 0x869490, d0
        0x007400ce      48c0           ext.l d0
        0x007400d0      f2004000       fmove.l d0, fp0
        0x007400d4      f2276400       fmove.s fp0, -(a7)
        0x007400d8      4227           clr.b -(a7)
        0x007400da      1f01           move.b d1, -(a7)
        0x007400dc      4e93           jsr (a3)                    ; fcn.0000000c
        0x007400de      dec2           adda.w d2, a7
        0x007400e0      4239008694a4   clr.b 0x8694a4
        0x007400e6      3f3adac4       move.w 0x73dbac(pc), -(a7)
        0x007400ea      514f           subq.w 0x8, a7
        0x007400ec      4227           clr.b -(a7)
        0x007400ee      4eb9006336ea   jsr HANDCOM.get_area
        0x007400f4      544f           addq.w 0x2, a7
        0x007400f6      4ebafa96       jsr MENUEFFECTCOM.do_key(pc)
        0x007400fa      dec2           adda.w d2, a7
     < 0x007400fc      6000fec6       bra.w 0x73ffc4
    > 0x00740100      f21fd080       fmovem (a7)+, fp0
            0x00740104      4cdf1f8f       movem.l (a7)+, d0-d3/d7/a0-a4
            0x00740108      4e5e           unlk a6
            0x0074010a      4e75           rts
 50: MENUEFFECTCOM.hit_undo_key ();
           0x0074010c      4e56fff6       link.w a6, 0xfff6
           0x00740110      bfd5           cmpa.l (a5), a7
       < 0x00740112      6206           bhi.b 0x74011a
          0x00740114      44fc0002       move.w 0x2, ccr
          0x00740118      4e76           trapv
       > 0x0074011a      defc000a       adda.w 0xa, a7
           0x0074011e      48e78000       movem.l d0, -(a7)
           0x00740122      302e0008       move.w 0x8(a6), d0
           0x00740126      0c400001       cmpi.w 0x1, d0
       < 0x0074012a      660a           bne.b 0x740136
          0x0074012c      1f3c0002       move.b 0x2, -(a7)
          0x00740130      4ebafe3e       jsr MENUEFFECTCOM.undo_key(pc)
          0x00740134      544f           addq.w 0x2, a7
       > 0x00740136      4cdf0001       movem.l (a7)+, d0
           0x0074013a      4e5e           unlk a6
           0x0074013c      4e75           rts
 68: MENUEFFECTCOM.update_info_box ();
           0x0074013e      4e56fcc8       link.w a6, 0xfcc8
           0x00740142      bfd5           cmpa.l (a5), a7
       < 0x00740144      6206           bhi.b 0x74014c
          0x00740146      44fc0002       move.w 0x2, ccr
          0x0074014a      4e76           trapv
       > 0x0074014c      defc0236       adda.w 0x236, a7
           0x00740150      48e7f1f8       movem.l d0-d3/d7/a0-a4, -(a7)
           0x00740154      45ee000e       lea.l 0xe(a6), a2
           0x00740158      47eefeff       lea.l -0x101(a6), a3
           0x0074015c      49f9008693f2   lea.l 0x8693f2, a4
           0x00740162      7402           moveq 0x2, d2
           0x00740164      363c0100       move.w 0x100, d3
           0x00740168      7e00           moveq 0x0, d7
       > 0x0074016a      4a12           tst.b (a2)
      < 0x0074016c      670000b0       beq.w 0x74021e
         0x00740170      4887           ext.w d7
         0x00740172      3007           move.w d7, d0
         0x00740174      b042           cmp.w d2, d0
     < 0x00740176      623a           bhi.b 0x7401b2
        0x00740178      d040           add.w d0, d0
        0x0074017a      303b0006       move.w 0x740182(pc, d0.w), d0
        0x0074017e      4efb0002       jmp 0x740182(pc, d0.w)
         0x00740182      00060024       ori.b 0x24, d6
         0x00740186      002a302e0008   ori.b 0x2e, 0x8(a2)
    > 0x0074018c      48c0           ext.l d0
       0x0074018e      2f00           move.l d0, -(a7)
       0x00740190      48780003       pea.l 0x3
       0x00740194      4853           pea.l (a3)
       0x00740196      3f3c00ff       move.w 0xff, -(a7)
       0x0074019a      4eb900406e56   jsr p_strI1
       0x007401a0      defc000e       adda.w 0xe, a7
   < 0x007401a4      600c           bra.b 0x7401b2
      0x007401a6      302e000a       move.w 0xa(a6), d0
   < 0x007401aa      60e0           bra.b 0x74018c
       0x007401ac      302e000c       move.w 0xc(a6), d0
    < 0x007401b0      60da           bra.b 0x74018c
   > 0x007401b2      9ec3           suba.w d3, a7
          0x007401b4      7001           moveq 0x1, d0
          0x007401b6      41ef0001       lea.l 0x1(a7), a0
          0x007401ba      43fad9f3       lea.l 0x73dbaf(pc), a1
      > 0x007401be      10d9           move.b (a1)+, (a0)+
      < 0x007401c0      51c8fffc       dbra d0, 0x7401be
          0x007401c4      4240           clr.w d0
          0x007401c6      1013           move.b (a3), d0
          0x007401c8      5400           addq.b 0x2, d0
      < 0x007401ca      6406           bcc.b 0x7401d2
         0x007401cc      4eb900406c8a   jsr p_strovr
      > 0x007401d2      4240           clr.w d0
          0x007401d4      1013           move.b (a3), d0
          0x007401d6      323c00ff       move.w 0xff, d1
          0x007401da      5541           subq.w 0x2, d1
          0x007401dc      b041           cmp.w d1, d0
      < 0x007401de      6302           bls.b 0x7401e2
         0x007401e0      3001           move.w d1, d0
      > 0x007401e2      1e82           move.b d2, (a7)
          0x007401e4      d117           add.b d0, (a7)
          0x007401e6      5300           subq.b 0x1, d0
      < 0x007401e8      650a           bcs.b 0x7401f4
         0x007401ea      43eeff00       lea.l -0x100(a6), a1
     > 0x007401ee      10d9           move.b (a1)+, (a0)+
     < 0x007401f0      51c8fffc       dbra d0, 0x7401ee
      > 0x007401f4      9ec3           suba.w d3, a7
          0x007401f6      204f           movea.l a7, a0
          0x007401f8      43ef0100       lea.l 0x100(a7), a1
          0x007401fc      703f           moveq 0x3f, d0
      > 0x007401fe      20d9           move.l (a1)+, (a0)+
      < 0x00740200      51c8fffc       dbra d0, 0x7401fe
          0x00740204      204c           movea.l a4, a0
          0x00740206      3f3073200086   move.w 0x86(a0, d7.w * 2), -(a7)
          0x0074020c      486f0002       pea.l 0x2(a7)
          0x00740210      4267           clr.w -(a7)
          0x00740212      3f03           move.w d3, -(a7)
          0x00740214      4eb900481c8e   jsr MENUCOM.add_text_all
          0x0074021a      defc020a       adda.w 0x20a, a7
       > 0x0074021e      4887           ext.w d7
           0x00740220      204c           movea.l a4, a0
           0x00740222      3f3073200086   move.w 0x86(a0, d7.w * 2), -(a7)
           0x00740228      1f12           move.b (a2), -(a7)
           0x0074022a      4eb900483972   jsr MENUCOM.set_enable_box
           0x00740230      544f           addq.w 0x2, a7
           0x00740232      3eb900869484   move.w 0x869484, (a7)
           0x00740238      1f12           move.b (a2), -(a7)
           0x0074023a      4eb900483972   jsr MENUCOM.set_enable_box
           0x00740240      584f           addq.w 0x4, a7
           0x00740242      5207           addq.b 0x1, d7
           0x00740244      be02           cmp.b d2, d7
        < 0x00740246      6f00ff22       ble.w 0x74016a              ; MENUEFFECTCOM.update_info_box+0x2c
            0x0074024a      4cdf1f8f       movem.l (a7)+, d0-d3/d7/a0-a4
            0x0074024e      4e5e           unlk a6
            0x00740250      4e75           rts
 24: MENUEFFECTCOM.add_remove_key ();
           0x00740252      4e56ffa4       link.w a6, 0xffa4
           0x00740256      bfd5           cmpa.l (a5), a7
       < 0x00740258      6206           bhi.b 0x740260
          0x0074025a      44fc0002       move.w 0x2, ccr
          0x0074025e      4e76           trapv
       > 0x00740260      defc0052       adda.w 0x52, a7
           0x00740264      48e7fff0       movem.l d0-d7/a0-a3, -(a7)
           0x00740268      f227e001       fmovem fp0, -(a7)
            0x0074026c      43f900869488   lea.l 0x869488, a1
            0x00740272      45f90086948a   lea.l 0x86948a, a2
            0x00740278      47f90086948c   lea.l 0x86948c, a3
            0x0074027e      7602           moveq 0x2, d3
            0x00740280      7801           moveq 0x1, d4
            0x00740282      4a3900869486   tst.b 0x869486
        < 0x00740288      671c           beq.b 0x7402a6
           0x0074028a      423900869486   clr.b 0x869486
           0x00740290      32ae0008       move.w 0x8(a6), (a1)
           0x00740294      34ae0008       move.w 0x8(a6), (a2)
           0x00740298      36ae000a       move.w 0xa(a6), (a3)
           0x0074029c      33ee000a0086.  move.w 0xa(a6), 0x86948e.l
       < 0x007402a4      602c           bra.b 0x7402d2
       > 0x007402a6      302e0008       move.w 0x8(a6), d0
           0x007402aa      b051           cmp.w (a1), d0
       < 0x007402ac      6c04           bge.b 0x7402b2
          0x007402ae      3280           move.w d0, (a1)
      < 0x007402b0      6006           bra.b 0x7402b8
      > 0x007402b2      b052           cmp.w (a2), d0
      < 0x007402b4      6f02           ble.b 0x7402b8
         0x007402b6      3480           move.w d0, (a2)
      > 0x007402b8      302e000a       move.w 0xa(a6), d0
           0x007402bc      b053           cmp.w (a3), d0
       < 0x007402be      6c04           bge.b 0x7402c4
          0x007402c0      3680           move.w d0, (a3)
      < 0x007402c2      600e           bra.b 0x7402d2
      > 0x007402c4      b0790086948e   cmp.w 0x86948e, d0
      < 0x007402ca      6f06           ble.b 0x7402d2
         0x007402cc      33c00086948e   move.w d0, 0x86948e
      > 0x007402d2      554f           subq.w 0x2, a7
            0x007402d4      4eb90051f2e4   jsr BRUSHCOM.b_brush_busy
            0x007402da      4a1f           tst.b (a7)+
        < 0x007402dc      660003b2       bne.w 0x740690
           0x007402e0      3011           move.w (a1), d0
           0x007402e2      48c0           ext.l d0
           0x007402e4      81fc0008       divs.w 0x8, d0
           0x007402e8      48c0           ext.l d0
           0x007402ea      02800000fffe   andi.l 0xfffe, d0
           0x007402f0      39400010       move.w d0, 0x10(a4)
           0x007402f4      3013           move.w (a3), d0
           0x007402f6      48c0           ext.l d0
           0x007402f8      81fc0008       divs.w 0x8, d0
           0x007402fc      39400012       move.w d0, 0x12(a4)
           0x00740300      3012           move.w (a2), d0
           0x00740302      48c0           ext.l d0
           0x00740304      81fc0008       divs.w 0x8, d0
           0x00740308      48c0           ext.l d0
           0x0074030a      02800000fffe   andi.l 0xfffe, d0
           0x00740310      322c0010       move.w 0x10(a4), d1
           0x00740314      48c1           ext.l d1
           0x00740316      4481           neg.l d1
           0x00740318      d280           add.l d0, d1
           0x0074031a      39410014       move.w d1, 0x14(a4)
           0x0074031e      30390086948e   move.w 0x86948e, d0
           0x00740324      48c0           ext.l d0
           0x00740326      81fc0008       divs.w 0x8, d0
           0x0074032a      48c0           ext.l d0
           0x0074032c      322c0012       move.w 0x12(a4), d1
           0x00740330      48c1           ext.l d1
           0x00740332      4481           neg.l d1
           0x00740334      d280           add.l d0, d1
           0x00740336      39410016       move.w d1, 0x16(a4)
           0x0074033a      302c0012       move.w 0x12(a4), d0
           0x0074033e      48c0           ext.l d0
           0x00740340      068000000080   addi.l 0x80, d0
           0x00740346      39400012       move.w d0, 0x12(a4)
           0x0074034a      302c0014       move.w 0x14(a4), d0
           0x0074034e      b043           cmp.w d3, d0
       < 0x00740350      6c04           bge.b 0x740356
          0x00740352      39430014       move.w d3, 0x14(a4)
       > 0x00740356      302c0016       move.w 0x16(a4), d0
           0x0074035a      b044           cmp.w d4, d0
       < 0x0074035c      6c04           bge.b 0x740362
          0x0074035e      39440016       move.w d4, 0x16(a4)
       > 0x00740362      594f           subq.w 0x4, a7
           0x00740364      1f03           move.b d3, -(a7)
           0x00740366      4227           clr.b -(a7)
           0x00740368      2f2c0014       move.l 0x14(a4), -(a7)
           0x0074036c      2f2c0010       move.l 0x10(a4), -(a7)
           0x00740370      4eb900521dde   jsr BRUSHCOM.br_rd_store
           0x00740376      defc000c       adda.w 0xc, a7
           0x0074037a      201f           move.l (a7)+, d0
           0x0074037c      2880           move.l d0, (a4)
           0x0074037e      29400004       move.l d0, 0x4(a4)
           0x00740382      29400008       move.l d0, 0x8(a4)
           0x00740386      5480           addq.l 0x2, d0
           0x00740388      2940000c       move.l d0, 0xc(a4)
           0x0074038c      302c0016       move.w 0x16(a4), d0
           0x00740390      c1ec0014       muls.w 0x14(a4), d0
           0x00740394      2f00           move.l d0, -(a7)
           0x00740396      7e01           moveq 0x1, d7
       > 0x00740398      be6f0002       cmp.w 0x2(a7), d7
      < 0x0074039c      6e0000dc       bgt.w 0x74047a
         0x007403a0      206c0004       movea.l 0x4(a4), a0
         0x007403a4      3010           move.w (a0), d0
         0x007403a6      02800000ffff   andi.l 0xffff, d0
         0x007403ac      0280000000ff   andi.l 0xff, d0
         0x007403b2      39400050       move.w d0, 0x50(a4)
         0x007403b6      206c0008       movea.l 0x8(a4), a0
         0x007403ba      3010           move.w (a0), d0
         0x007403bc      02800000ffff   andi.l 0xffff, d0
         0x007403c2      e080           asr.l 0x8, d0
         0x007403c4      024000ff       andi.w 0xff, d0
         0x007403c8      39400052       move.w d0, 0x52(a4)
         0x007403cc      206c000c       movea.l 0xc(a4), a0
         0x007403d0      3010           move.w (a0), d0
         0x007403d2      02800000ffff   andi.l 0xffff, d0
         0x007403d8      e080           asr.l 0x8, d0
         0x007403da      024000ff       andi.w 0xff, d0
         0x007403de      39400054       move.w d0, 0x54(a4)
         0x007403e2      be44           cmp.w d4, d7
     < 0x007403e4      6632           bne.b 0x740418
        0x007403e6      1f04           move.b d4, -(a7)
        0x007403e8      2f2c0052       move.l 0x52(a4), -(a7)
        0x007403ec      3f2c0050       move.w 0x50(a4), -(a7)
        0x007403f0      4ebafd4c       jsr MENUEFFECTCOM.update_info_box(pc)
        0x007403f4      504f           addq.w 0x8, a7
        0x007403f6      396c00500044   move.w 0x50(a4), 0x44(a4)
        0x007403fc      396c00520046   move.w 0x52(a4), 0x46(a4)
        0x00740402      39400048       move.w d0, 0x48(a4)
        0x00740406      396c0050004a   move.w 0x50(a4), 0x4a(a4)
        0x0074040c      396c0052004c   move.w 0x52(a4), 0x4c(a4)
        0x00740412      3940004e       move.w d0, 0x4e(a4)
    < 0x00740416      601a           bra.b 0x740432
    > 0x00740418      322c0050       move.w 0x50(a4), d1
        0x0074041c      b26c0044       cmp.w 0x44(a4), d1
    < 0x00740420      6c06           bge.b 0x740428
       0x00740422      39410044       move.w d1, 0x44(a4)
   < 0x00740426      600a           bra.b 0x740432
   > 0x00740428      b26c004a       cmp.w 0x4a(a4), d1
   < 0x0074042c      6f04           ble.b 0x740432
      0x0074042e      3941004a       move.w d1, 0x4a(a4)
   > 0x00740432      322c0052       move.w 0x52(a4), d1
         0x00740436      b26c0046       cmp.w 0x46(a4), d1
     < 0x0074043a      6c06           bge.b 0x740442
        0x0074043c      39410046       move.w d1, 0x46(a4)
    < 0x00740440      600a           bra.b 0x74044c
    > 0x00740442      b26c004c       cmp.w 0x4c(a4), d1
    < 0x00740446      6f04           ble.b 0x74044c
       0x00740448      3941004c       move.w d1, 0x4c(a4)
    > 0x0074044c      b06c0048       cmp.w 0x48(a4), d0
     < 0x00740450      6c06           bge.b 0x740458
        0x00740452      39400048       move.w d0, 0x48(a4)
    < 0x00740456      600a           bra.b 0x740462
    > 0x00740458      b06c004e       cmp.w 0x4e(a4), d0
    < 0x0074045c      6f04           ble.b 0x740462
       0x0074045e      3940004e       move.w d0, 0x4e(a4)
    > 0x00740462      54ac0004       addq.l 0x2, 0x4(a4)
         0x00740466      08070000       btst.b 0x0, d7
     < 0x0074046a      6608           bne.b 0x740474
        0x0074046c      58ac0008       addq.l 0x4, 0x8(a4)
        0x00740470      58ac000c       addq.l 0x4, 0xc(a4)
     > 0x00740474      5247           addq.w 0x1, d7
      < 0x00740476      6800ff20       bvc.w 0x740398
      > 0x0074047a      584f           addq.w 0x4, a7
           0x0074047c      7c00           moveq 0x0, d6
       > 0x0074047e      4886           ext.w d6
          0x00740480      4886           ext.w d6
          0x00740482      41f9008693f2   lea.l 0x8693f2, a0
          0x00740488      514f           subq.w 0x8, a7
          0x0074048a      3f306274       move.w 0x74(a0, d6.w), -(a7)
          0x0074048e      4eb90048d992   jsr MENU2COM.get_numeric_val
          0x00740494      544f           addq.w 0x2, a7
          0x00740496      4eb9004081f8   jsr p_trunc
          0x0074049c      584f           addq.w 0x4, a7
          0x0074049e      39af00026238   move.w 0x2(a7), 0x38(a4, d6.w)
          0x007404a4      594f           subq.w 0x4, a7
          0x007404a6      3f30627a       move.w 0x7a(a0, d6.w), -(a7)
          0x007404aa      4eb90048d992   jsr MENU2COM.get_numeric_val
          0x007404b0      544f           addq.w 0x2, a7
          0x007404b2      4eb9004081f8   jsr p_trunc
          0x007404b8      584f           addq.w 0x4, a7
          0x007404ba      39af0002623e   move.w 0x2(a7), 0x3e(a4, d6.w)
          0x007404c0      584f           addq.w 0x4, a7
          0x007404c2      5206           addq.b 0x1, d6
          0x007404c4      bc03           cmp.b d3, d6
       < 0x007404c6      6fb6           ble.b 0x74047e
           0x007404c8      554f           subq.w 0x2, a7
           0x007404ca      3f3900869458   move.w 0x869458, -(a7)
           0x007404d0      4eb900480fc2   jsr MENUCOM.get_boxon
           0x007404d6      544f           addq.w 0x2, a7
           0x007404d8      7000           moveq 0x0, d0
           0x007404da      554f           subq.w 0x2, a7
           0x007404dc      3f390086945c   move.w 0x86945c, -(a7)
           0x007404e2      4eb900480fc2   jsr MENUCOM.get_boxon
           0x007404e8      544f           addq.w 0x2, a7
           0x007404ea      4a1f           tst.b (a7)+
       < 0x007404ec      6602           bne.b 0x7404f0
          0x007404ee      5200           addq.b 0x1, d0
       > 0x007404f0      b017           cmp.b (a7), d0
       < 0x007404f2      6642           bne.b 0x740536
          0x007404f4      7c00           moveq 0x0, d6
      > 0x007404f6      4a39008694a4   tst.b 0x8694a4
     < 0x007404fc      6710           beq.b 0x74050e
        0x007404fe      4886           ext.w d6
        0x00740500      39b462446238   move.w 0x44(a4, d6.w), 0x38(a4, d6.w)
        0x00740506      39b4624a623e   move.w 0x4a(a4, d6.w), 0x3e(a4, d6.w)
    < 0x0074050c      601e           bra.b 0x74052c
    > 0x0074050e      4886           ext.w d6
        0x00740510      30346244       move.w 0x44(a4, d6.w), d0
        0x00740514      b0746238       cmp.w 0x38(a4, d6.w), d0
    < 0x00740518      6c04           bge.b 0x74051e
       0x0074051a      39806238       move.w d0, 0x38(a4, d6.w)
    > 0x0074051e      3034624a       move.w 0x4a(a4, d6.w), d0
        0x00740522      b074623e       cmp.w 0x3e(a4, d6.w), d0
    < 0x00740526      6f04           ble.b 0x74052c
       0x00740528      3980623e       move.w d0, 0x3e(a4, d6.w)
    > 0x0074052c      5206           addq.b 0x1, d6
         0x0074052e      bc03           cmp.b d3, d6
      < 0x00740530      6fc4           ble.b 0x7404f6
      < 0x00740532      600000ca       bra.w 0x7405fe
      > 0x00740536      554f           subq.w 0x2, a7
          0x00740538      3f390086944e   move.w 0x86944e, -(a7)
          0x0074053e      4eb900480fc2   jsr MENUCOM.get_boxon
          0x00740544      544f           addq.w 0x2, a7
          0x00740546      4a1f           tst.b (a7)+
      < 0x00740548      6704           beq.b 0x74054e
         0x0074054a      7a00           moveq 0x0, d5
     < 0x0074054c      6002           bra.b 0x740550
     > 0x0074054e      7a01           moveq 0x1, d5
     > 0x00740550      1c05           move.b d5, d6
      > 0x00740552      bc03           cmp.b d3, d6
     < 0x00740554      6e0000a8       bgt.w 0x7405fe
        0x00740558      4886           ext.w d6
        0x0074055a      3034624a       move.w 0x4a(a4, d6.w), d0
        0x0074055e      48c0           ext.l d0
        0x00740560      32346238       move.w 0x38(a4, d6.w), d1
        0x00740564      48c1           ext.l d1
        0x00740566      4481           neg.l d1
        0x00740568      d280           add.l d0, d1
    < 0x0074056a      6a02           bpl.b 0x74056e
       0x0074056c      4481           neg.l d1
    > 0x0074056e      30346244       move.w 0x44(a4, d6.w), d0
        0x00740572      48c0           ext.l d0
        0x00740574      3434623e       move.w 0x3e(a4, d6.w), d2
        0x00740578      48c2           ext.l d2
        0x0074057a      4482           neg.l d2
        0x0074057c      d480           add.l d0, d2
    < 0x0074057e      6a02           bpl.b 0x740582
       0x00740580      4482           neg.l d2
    > 0x00740582      b282           cmp.l d2, d1
    < 0x00740584      6c3a           bge.b 0x7405c0
       0x00740586      422c0056       clr.b 0x56(a4)
       0x0074058a      1e05           move.b d5, d7
   > 0x0074058c      be03           cmp.b d3, d7
  < 0x0074058e      6e1a           bgt.b 0x7405aa
     0x00740590      4887           ext.w d7
     0x00740592      3034724a       move.w 0x4a(a4, d7.w), d0
     0x00740596      b0747238       cmp.w 0x38(a4, d7.w), d0
  < 0x0074059a      6d06           blt.b 0x7405a2
     0x0074059c      b074723e       cmp.w 0x3e(a4, d7.w), d0
  < 0x007405a0      6f04           ble.b 0x7405a6
  > 0x007405a2      19440056       move.b d4, 0x56(a4)
  > 0x007405a6      5207           addq.b 0x1, d7
  < 0x007405a8      68e2           bvc.b 0x74058c
  > 0x007405aa      4a2c0056       tst.b 0x56(a4)
   < 0x007405ae      6648           bne.b 0x7405f8
      0x007405b0      4886           ext.w d6
      0x007405b2      3034624a       move.w 0x4a(a4, d6.w), d0
      0x007405b6      48c0           ext.l d0
      0x007405b8      5280           addq.l 0x1, d0
      0x007405ba      39806238       move.w d0, 0x38(a4, d6.w)
  < 0x007405be      6038           bra.b 0x7405f8
  > 0x007405c0      422c0056       clr.b 0x56(a4)
      0x007405c4      1e05           move.b d5, d7
  > 0x007405c6      be03           cmp.b d3, d7
  < 0x007405c8      6e1a           bgt.b 0x7405e4
     0x007405ca      4887           ext.w d7
     0x007405cc      30347244       move.w 0x44(a4, d7.w), d0
     0x007405d0      b0747238       cmp.w 0x38(a4, d7.w), d0
  < 0x007405d4      6d06           blt.b 0x7405dc
     0x007405d6      b074723e       cmp.w 0x3e(a4, d7.w), d0
  < 0x007405da      6f04           ble.b 0x7405e0
  > 0x007405dc      19440056       move.b d4, 0x56(a4)
  > 0x007405e0      5207           addq.b 0x1, d7
  < 0x007405e2      68e2           bvc.b 0x7405c6
  > 0x007405e4      4a2c0056       tst.b 0x56(a4)
  < 0x007405e8      660e           bne.b 0x7405f8
     0x007405ea      4886           ext.w d6
     0x007405ec      30346244       move.w 0x44(a4, d6.w), d0
     0x007405f0      48c0           ext.l d0
     0x007405f2      5380           subq.l 0x1, d0
     0x007405f4      3980623e       move.w d0, 0x3e(a4, d6.w)
  > 0x007405f8      5206           addq.b 0x1, d6
     < 0x007405fa      6800ff56       bvc.w 0x740552
     > 0x007405fe      544f           addq.w 0x2, a7
           0x00740600      4854           pea.l (a4)
           0x00740602      48780000       pea.l 0x0
           0x00740606      4eb900403b98   jsr p_Dispos
           0x0074060c      504f           addq.w 0x8, a7
           0x0074060e      32ae0008       move.w 0x8(a6), (a1)
           0x00740612      34ae0008       move.w 0x8(a6), (a2)
           0x00740616      36ae000a       move.w 0xa(a6), (a3)
           0x0074061a      33ee000a0086.  move.w 0xa(a6), 0x86948e.l
           0x00740622      4239008694a4   clr.b 0x8694a4
           0x00740628      7c00           moveq 0x0, d6
       > 0x0074062a      4886           ext.w d6
          0x0074062c      41f9008693f2   lea.l 0x8693f2, a0
          0x00740632      4886           ext.w d6
          0x00740634      3f306274       move.w 0x74(a0, d6.w), -(a7)
          0x00740638      30346238       move.w 0x38(a4, d6.w), d0
          0x0074063c      48c0           ext.l d0
          0x0074063e      f2004000       fmove.l d0, fp0
          0x00740642      f2276400       fmove.s fp0, -(a7)
          0x00740646      4227           clr.b -(a7)
          0x00740648      1f04           move.b d4, -(a7)
          0x0074064a      4eb90048da84   jsr MENU2COM.set_numeric_val
          0x00740650      504f           addq.w 0x8, a7
          0x00740652      3eb0627a       move.w 0x7a(a0, d6.w), (a7)
          0x00740656      3034623e       move.w 0x3e(a4, d6.w), d0
          0x0074065a      48c0           ext.l d0
          0x0074065c      f2004000       fmove.l d0, fp0
          0x00740660      f2276400       fmove.s fp0, -(a7)
          0x00740664      4227           clr.b -(a7)
          0x00740666      1f04           move.b d4, -(a7)
          0x00740668      4eb90048da84   jsr MENU2COM.set_numeric_val
          0x0074066e      defc000a       adda.w 0xa, a7
          0x00740672      5206           addq.b 0x1, d6
          0x00740674      bc03           cmp.b d3, d6
       < 0x00740676      6fb2           ble.b 0x74062a
           0x00740678      3f3ad538       move.w 0x73dbb2(pc), -(a7)
           0x0074067c      514f           subq.w 0x8, a7
           0x0074067e      4227           clr.b -(a7)
           0x00740680      4eb9006336ea   jsr HANDCOM.get_area
           0x00740686      544f           addq.w 0x2, a7
           0x00740688      4ebaf504       jsr MENUEFFECTCOM.do_key(pc)
           0x0074068c      defc000a       adda.w 0xa, a7
        > 0x00740690      f21fd080       fmovem (a7)+, fp0
            0x00740694      4cdf0fff       movem.l (a7)+, d0-d7/a0-a3
            0x00740698      4e5e           unlk a6
            0x0074069a      4e75           rts
            ; CALL XREF from MENUEFFECTCOM.send_to_submenu @ 0x745af0
 24: MENUEFFECTCOM.hit_keyer ();
           0x0074069c      4e56ff3a       link.w a6, 0xff3a
           0x007406a0      bfd5           cmpa.l (a5), a7
       < 0x007406a2      6206           bhi.b 0x7406aa
          0x007406a4      44fc0002       move.w 0x2, ccr
          0x007406a8      4e76           trapv
       > 0x007406aa      defc006a       adda.w 0x6a, a7
           0x007406ae      48e7fff8       movem.l d0-d7/a0-a4, -(a7)
           0x007406b2      f227e003       fmovem fp0-fp1, -(a7)
            0x007406b6      45f900869458   lea.l 0x869458, a2
            0x007406bc      47f900869454   lea.l 0x869454, a3
            0x007406c2      7601           moveq 0x1, d3
            0x007406c4      780a           moveq 0xa, d4
            0x007406c6      7a02           moveq 0x2, d5
            0x007406c8      7c00           moveq 0x0, d6
            0x007406ca      2079008693f4   movea.l 0x8693f4, a0
            0x007406d0      302e0008       move.w 0x8(a6), d0
            0x007406d4      0c40001e       cmpi.w 0x1e, d0
        < 0x007406d8      6200051c       bhi.w 0x740bf6
           0x007406dc      d040           add.w d0, d0
           0x007406de      303b0006       move.w 0x7406e6(pc, d0.w), d0
           0x007406e2      4efb0002       jmp 0x7406e6(pc, d0.w)
           0x007406e6      020e003e       
           0x007406e7      0e003e02       
           0x007406e8      003e02aa       
           0x007406e9      3e02           move.w d2, d7
           0x007406eb      aa05           invalid
           0x007406ed      1005           move.b d5, d0
           0x007406ef      1005           move.b d5, d0
           0x007406f1      1005           move.b d5, d0
           0x007406f3      1005           move.b d5, d0
           0x007406f5      1003           move.b d3, d0
           0x007406f7      da03           add.b d3, d5
           0x007406f9      da04           add.b d4, d5
           0x007406fb      fc051005       invalid
           0x007406ff      1005           move.b d5, d0
           0x00740701      1003           move.b d3, d0
           0x00740703      9403           sub.b d3, d2
           0x00740705      da03           add.b d3, d5
           0x00740707      da04           add.b d4, d5
           0x00740709      fc037a03       fintrz.b d3, fp4
           0x0074070d      9403           sub.b d3, d2
           0x0074070f      7a05           moveq 0x5, d5
           0x00740711      1005           move.b d5, d0
           0x00740713      1005           move.b d5, d0
           0x00740715      1005           move.b d5, d0
           0x00740717      1005           move.b d5, d0
           0x00740719      1005           move.b d5, d0
           0x0074071b      1005           move.b d5, d0
           0x0074071d      1005           move.b d5, d0
           0x0074071f      1003           move.b d3, d0
       < 0x00740721      6002           bra.b 0x740725
          0x00740723      0e554f3f       
          0x00740724      554f           subq.w 0x2, a7
           0x00740726      3f3900869428   move.w 0x869428, -(a7)
           0x0074072c      4eb900480fc2   jsr MENUCOM.get_boxon
           0x00740732      544f           addq.w 0x2, a7
           0x00740734      4a1f           tst.b (a7)+
       < 0x00740736      670e           beq.b 0x740746
          0x00740738      3f3900869428   move.w 0x869428, -(a7)
          0x0074073e      4eb9004836a4   jsr MENUCOM.push_box
          0x00740744      544f           addq.w 0x2, a7
       > 0x00740746      302e000a       move.w 0xa(a6), d0
           0x0074074a      b0790086944c   cmp.w 0x86944c, d0
       < 0x00740750      6624           bne.b 0x740776
          0x00740752      4ebada1a       jsr MENUEFFECTCOM.check_clips(pc)
          0x00740756      3f3ad45c       move.w 0x73dbb4(pc), -(a7)
          0x0074075a      514f           subq.w 0x8, a7
          0x0074075c      4227           clr.b -(a7)
          0x0074075e      4eb9006336ea   jsr HANDCOM.get_area
          0x00740764      544f           addq.w 0x2, a7
          0x00740766      4ebaf426       jsr MENUEFFECTCOM.do_key(pc)
          0x0074076a      dec4           adda.w d4, a7
          0x0074076c      13c300869486   move.b d3, 0x869486
      < 0x00740772      6000017c       bra.w 0x7408f0
      > 0x00740776      b0790086944e   cmp.w 0x86944e, d0
      < 0x0074077c      6710           beq.b 0x74078e
         0x0074077e      b07900869450   cmp.w 0x869450, d0
     < 0x00740784      6708           beq.b 0x74078e
        0x00740786      b07900869452   cmp.w 0x869452, d0
    < 0x0074078c      6608           bne.b 0x740796
    > 0x0074078e      3f3ad426       move.w 0x73dbb6(pc), -(a7)
     < 0x00740792      6000014a       bra.w 0x7408de
    > 0x00740796      b0790086945a   cmp.w 0x86945a, d0
     < 0x0074079c      6704           beq.b 0x7407a2
        0x0074079e      b052           cmp.w (a2), d0
    < 0x007407a0      6624           bne.b 0x7407c6
    > 0x007407a2      554f           subq.w 0x2, a7
        0x007407a4      4eb900482154   jsr MENUCOM.get_crnt_numeri
        0x007407aa      4a5f           tst.w (a7)+
    < 0x007407ac      67000142       beq.w 0x7408f0
       0x007407b0      554f           subq.w 0x2, a7
       0x007407b2      4eb900482154   jsr MENUCOM.get_crnt_numeri
       0x007407b8      4227           clr.b -(a7)
       0x007407ba      4eb900483776   jsr MENUCOM.swtch_box
       0x007407c0      584f           addq.w 0x4, a7
   < 0x007407c2      6000012c       bra.w 0x7408f0
   > 0x007407c6      b0790086945c   cmp.w 0x86945c, d0
   < 0x007407cc      6640           bne.b 0x74080e
      0x007407ce      554f           subq.w 0x2, a7
      0x007407d0      3f12           move.w (a2), -(a7)
      0x007407d2      4eb900480fc2   jsr MENUCOM.get_boxon
      0x007407d8      544f           addq.w 0x2, a7
      0x007407da      4a1f           tst.b (a7)+
  < 0x007407dc      6708           beq.b 0x7407e6
     0x007407de      3f390086945a   move.w 0x86945a, -(a7)
  < 0x007407e4      6016           bra.b 0x7407fc
  > 0x007407e6      554f           subq.w 0x2, a7
      0x007407e8      3f390086945a   move.w 0x86945a, -(a7)
      0x007407ee      4eb900480fc2   jsr MENUCOM.get_boxon
      0x007407f4      544f           addq.w 0x2, a7
      0x007407f6      4a1f           tst.b (a7)+
  < 0x007407f8      670c           beq.b 0x740806
     0x007407fa      3f12           move.w (a2), -(a7)
  > 0x007407fc      1f03           move.b d3, -(a7)
     0x007407fe      4eb900483776   jsr MENUCOM.swtch_box
     0x00740804      584f           addq.w 0x4, a7
  > 0x00740806      3f3ad3b0       move.w 0x73dbb8(pc), -(a7)
  < 0x0074080a      600000d2       bra.w 0x7408de
  > 0x0074080e      b0790086945e   cmp.w 0x86945e, d0
  < 0x00740814      660000da       bne.w 0x7408f0
     0x00740818      554f           subq.w 0x2, a7
     0x0074081a      4eb900482154   jsr MENUCOM.get_crnt_numeri
     0x00740820      4a5f           tst.w (a7)+
  < 0x00740822      6712           beq.b 0x740836
     0x00740824      554f           subq.w 0x2, a7
     0x00740826      4eb900482154   jsr MENUCOM.get_crnt_numeri
     0x0074082c      4227           clr.b -(a7)
     0x0074082e      4eb900483776   jsr MENUCOM.swtch_box
     0x00740834      584f           addq.w 0x4, a7
  > 0x00740836      3f13           move.w (a3), -(a7)
     0x00740838      f2064000       fmove.l d6, fp0
     0x0074083c      f2276400       fmove.s fp0, -(a7)
     0x00740840      4227           clr.b -(a7)
     0x00740842      1f03           move.b d3, -(a7)
     0x00740844      4eb90048da84   jsr MENU2COM.set_numeric_val
     0x0074084a      dec4           adda.w d4, a7
     0x0074084c      7e00           moveq 0x0, d7
  > 0x0074084e      4887           ext.w d7
     0x00740850      43f9008693f2   lea.l 0x8693f2, a1
     0x00740856      3f317274       move.w 0x74(a1, d7.w), -(a7)
     0x0074085a      f2064000       fmove.l d6, fp0
     0x0074085e      f2276400       fmove.s fp0, -(a7)
     0x00740862      4227           clr.b -(a7)
     0x00740864      1f03           move.b d3, -(a7)
     0x00740866      4eb90048da84   jsr MENU2COM.set_numeric_val
     0x0074086c      504f           addq.w 0x8, a7
     0x0074086e      3eb1727a       move.w 0x7a(a1, d7.w), (a7)
     0x00740872      f2064000       fmove.l d6, fp0
     0x00740876      f2276400       fmove.s fp0, -(a7)
     0x0074087a      4227           clr.b -(a7)
     0x0074087c      1f03           move.b d3, -(a7)
     0x0074087e      4eb90048da84   jsr MENU2COM.set_numeric_val
     0x00740884      dec4           adda.w d4, a7
     0x00740886      3f3173200080   move.w 0x80(a1, d7.w * 2), -(a7)
     0x0074088c      f2064000       fmove.l d6, fp0
     0x00740890      f2276400       fmove.s fp0, -(a7)
     0x00740894      4227           clr.b -(a7)
     0x00740896      1f03           move.b d3, -(a7)
     0x00740898      4eb90048da84   jsr MENU2COM.set_numeric_val
     0x0074089e      dec4           adda.w d4, a7
     0x007408a0      5207           addq.b 0x1, d7
     0x007408a2      be05           cmp.b d5, d7
  < 0x007408a4      6fa8           ble.b 0x74084e
     0x007408a6      4a39008694a4   tst.b 0x8694a4
  < 0x007408ac      6708           beq.b 0x7408b6
     0x007408ae      4227           clr.b -(a7)
     0x007408b0      4ebaf6be       jsr MENUEFFECTCOM.undo_key(pc)
     0x007408b4      544f           addq.w 0x2, a7
  > 0x007408b6      13c3008694a4   move.b d3, 0x8694a4
     0x007408bc      13c300869486   move.b d3, 0x869486
     0x007408c2      3f390086945c   move.w 0x86945c, -(a7)
     0x007408c8      4227           clr.b -(a7)
     0x007408ca      4eb900483776   jsr MENUCOM.swtch_box
     0x007408d0      544f           addq.w 0x2, a7
     0x007408d2      3e92           move.w (a2), (a7)
     0x007408d4      4eb9004836a4   jsr MENUCOM.push_box
     0x007408da      3ebad2de       move.w 0x73dbba(pc), (a7)
  > 0x007408de      514f           subq.w 0x8, a7
       0x007408e0      4227           clr.b -(a7)
       0x007408e2      4eb9006336ea   jsr HANDCOM.get_area
       0x007408e8      544f           addq.w 0x2, a7
       0x007408ea      4ebaf2a2       jsr MENUEFFECTCOM.do_key(pc)
       0x007408ee      dec4           adda.w d4, a7
   < 0x007408f0      60000304       bra.w 0x740bf6
          0x007408f4      302e000a       move.w 0xa(a6), d0
          0x007408f8      b0790086944c   cmp.w 0x86944c, d0
      < 0x007408fe      6618           bne.b 0x740918
         0x00740900      4eb900518f96   jsr OUTCOM.normal_set_out
         0x00740906      3f390086bbfe   move.w 0x86bbfe, -(a7)
         0x0074090c      4227           clr.b -(a7)
         0x0074090e      4eb900483972   jsr MENUCOM.set_enable_box
         0x00740914      584f           addq.w 0x4, a7
     < 0x00740916      6074           bra.b 0x74098c
     > 0x00740918      b0790086944e   cmp.w 0x86944e, d0
     < 0x0074091e      6710           beq.b 0x740930
        0x00740920      b07900869450   cmp.w 0x869450, d0
    < 0x00740926      6708           beq.b 0x740930
       0x00740928      b07900869452   cmp.w 0x869452, d0
   < 0x0074092e      6606           bne.b 0x740936
   > 0x00740930      3f3ad28a       move.w 0x73dbbc(pc), -(a7)
    < 0x00740934      6044           bra.b 0x74097a
   > 0x00740936      b0790086945c   cmp.w 0x86945c, d0
    < 0x0074093c      664e           bne.b 0x74098c
       0x0074093e      554f           subq.w 0x2, a7
       0x00740940      3f12           move.w (a2), -(a7)
       0x00740942      4eb900480fc2   jsr MENUCOM.get_boxon
       0x00740948      544f           addq.w 0x2, a7
       0x0074094a      4a1f           tst.b (a7)+
   < 0x0074094c      6708           beq.b 0x740956
      0x0074094e      3f390086945a   move.w 0x86945a, -(a7)
  < 0x00740954      6016           bra.b 0x74096c
  > 0x00740956      554f           subq.w 0x2, a7
      0x00740958      3f390086945a   move.w 0x86945a, -(a7)
      0x0074095e      4eb900480fc2   jsr MENUCOM.get_boxon
      0x00740964      544f           addq.w 0x2, a7
      0x00740966      4a1f           tst.b (a7)+
  < 0x00740968      670c           beq.b 0x740976
     0x0074096a      3f12           move.w (a2), -(a7)
  > 0x0074096c      1f03           move.b d3, -(a7)
      0x0074096e      4eb900483776   jsr MENUCOM.swtch_box
      0x00740974      584f           addq.w 0x4, a7
   > 0x00740976      3f3ad246       move.w 0x73dbbe(pc), -(a7)
    > 0x0074097a      514f           subq.w 0x8, a7
        0x0074097c      4227           clr.b -(a7)
        0x0074097e      4eb9006336ea   jsr HANDCOM.get_area
        0x00740984      544f           addq.w 0x2, a7
        0x00740986      4ebaf206       jsr MENUEFFECTCOM.do_key(pc)
        0x0074098a      dec4           adda.w d4, a7
    < 0x0074098c      60000268       bra.w 0x740bf6
         0x00740990      554f           subq.w 0x2, a7
         0x00740992      4eb900482154   jsr MENUCOM.get_crnt_numeri
         0x00740998      302e000a       move.w 0xa(a6), d0
         0x0074099c      b057           cmp.w (a7), d0
     < 0x0074099e      6656           bne.b 0x7409f6
        0x007409a0      4239008694a4   clr.b 0x8694a4
        0x007409a6      1f03           move.b d3, -(a7)
        0x007409a8      4ebaf5c6       jsr MENUEFFECTCOM.undo_key(pc)
        0x007409ac      544f           addq.w 0x2, a7
        0x007409ae      b053           cmp.w (a3), d0
    < 0x007409b0      662c           bne.b 0x7409de
       0x007409b2      7e00           moveq 0x0, d7
   > 0x007409b4      4887           ext.w d7
      0x007409b6      43f9008693f2   lea.l 0x8693f2, a1
      0x007409bc      3f3173200080   move.w 0x80(a1, d7.w * 2), -(a7)
      0x007409c2      594f           subq.w 0x4, a7
      0x007409c4      3f13           move.w (a3), -(a7)
      0x007409c6      4eb90048d992   jsr MENU2COM.get_numeric_val
      0x007409cc      4217           clr.b (a7)
      0x007409ce      1f03           move.b d3, -(a7)
      0x007409d0      4eb90048da84   jsr MENU2COM.set_numeric_val
      0x007409d6      dec4           adda.w d4, a7
      0x007409d8      5207           addq.b 0x1, d7
      0x007409da      be05           cmp.b d5, d7
   < 0x007409dc      6fd6           ble.b 0x7409b4
    > 0x007409de      3f3ad1e0       move.w 0x73dbc0(pc), -(a7)
    > 0x007409e2      514f           subq.w 0x8, a7
       0x007409e4      4227           clr.b -(a7)
       0x007409e6      4eb9006336ea   jsr HANDCOM.get_area
       0x007409ec      544f           addq.w 0x2, a7
       0x007409ee      4ebaf19e       jsr MENUEFFECTCOM.do_key(pc)
       0x007409f2      dec4           adda.w d4, a7
   < 0x007409f4      604a           bra.b 0x740a40
   > 0x007409f6      0c400025       cmpi.w 0x25, d0
   < 0x007409fa      6706           beq.b 0x740a02
      0x007409fc      0c400023       cmpi.w 0x23, d0
  < 0x00740a00      6606           bne.b 0x740a08
  > 0x00740a02      3f3ad1be       move.w 0x73dbc2(pc), -(a7)
  < 0x00740a06      60da           bra.b 0x7409e2
  > 0x00740a08      0c400043       cmpi.w 0x43, d0
    < 0x00740a0c      662a           bne.b 0x740a38
       0x00740a0e      1f05           move.b d5, -(a7)
       0x00740a10      1f3c0003       move.b 0x3, -(a7)
       0x00740a14      4227           clr.b -(a7)
       0x00740a16      2f390086940e   move.l 0x86940e, -(a7)
       0x00740a1c      2f390086941e   move.l 0x86941e, -(a7)
       0x00740a22      2f390086941a   move.l 0x86941a, -(a7)
       0x00740a28      4eb900522722   jsr BRUSHCOM.str_any_str_cop
       0x00740a2e      defc0012       adda.w 0x12, a7
       0x00740a32      4eb90051f298   jsr BRUSHCOM.brush_wait
    > 0x00740a38      4227           clr.b -(a7)
        0x00740a3a      4ebaed4c       jsr MENUEFFECTCOM.keyer_set_out(pc)
        0x00740a3e      544f           addq.w 0x2, a7
   > 0x00740a40      544f           addq.w 0x2, a7
     < 0x00740a42      600001b2       bra.w 0x740bf6
        0x00740a46      4227           clr.b -(a7)
        0x00740a48      2f3acf7c       move.l 0x73d9c6(pc), -(a7)
        0x00740a4c      3f3acf76       move.w 0x73d9c4(pc), -(a7)
        0x00740a50      4ebaf6ec       jsr MENUEFFECTCOM.update_info_box(pc)
        0x00740a54      504f           addq.w 0x8, a7
        0x00740a56      13c300869486   move.b d3, 0x869486
    < 0x00740a5c      60000198       bra.w 0x740bf6
       0x00740a60      4227           clr.b -(a7)
       0x00740a62      2f3acf62       move.l 0x73d9c6(pc), -(a7)
       0x00740a66      3f3acf5c       move.w 0x73d9c4(pc), -(a7)
       0x00740a6a      4ebaf6d2       jsr MENUEFFECTCOM.update_info_box(pc)
       0x00740a6e      504f           addq.w 0x8, a7
       0x00740a70      13c300869486   move.b d3, 0x869486
   < 0x00740a76      6000017e       bra.w 0x740bf6
      0x00740a7a      4850           pea.l (a0)
      0x00740a7c      4eb9004ac46a   jsr MENUZOOMCOM.zoom_screen_pos
      0x00740a82      584f           addq.w 0x4, a7
      0x00740a84      3010           move.w (a0), d0
      0x00740a86      48c0           ext.l d0
      0x00740a88      81fc0008       divs.w 0x8, d0
      0x00740a8c      3d40ffd2       move.w d0, -0x2e(a6)
      0x00740a90      30280002       move.w 0x2(a0), d0
      0x00740a94      48c0           ext.l d0
      0x00740a96      81fc0008       divs.w 0x8, d0
      0x00740a9a      06400080       addi.w 0x80, d0
      0x00740a9e      3d40ffd4       move.w d0, -0x2c(a6)
      0x00740aa2      1f03           move.b d3, -(a7)
      0x00740aa4      5d4f           subq.w 0x6, a7
      0x00740aa6      1f05           move.b d5, -(a7)
      0x00740aa8      4227           clr.b -(a7)
      0x00740aaa      2f2effd2       move.l -0x2e(a6), -(a7)
      0x00740aae      4eb900521048   jsr BRUSHCOM.br_get_colour
      0x00740ab4      504f           addq.w 0x8, a7
      0x00740ab6      4ebaf686       jsr MENUEFFECTCOM.update_info_box(pc)
      0x00740aba      504f           addq.w 0x8, a7
  < 0x00740abc      60000138       bra.w 0x740bf6
     0x00740ac0      4a39008693f2   tst.b 0x8693f2
  < 0x00740ac6      6608           bne.b 0x740ad0
     0x00740ac8      1f03           move.b d3, -(a7)
     0x00740aca      4ebaf4a4       jsr MENUEFFECTCOM.undo_key(pc)
     0x00740ace      544f           addq.w 0x2, a7
  > 0x00740ad0      13c3008693f2   move.b d3, 0x8693f2
     0x00740ad6      554f           subq.w 0x2, a7
     0x00740ad8      4eb900482154   jsr MENUCOM.get_crnt_numeri
     0x00740ade      301f           move.w (a7)+, d0
     0x00740ae0      3d40000a       move.w d0, 0xa(a6)
     0x00740ae4      4a40           tst.w d0
  < 0x00740ae6      661e           bne.b 0x740b06
     0x00740ae8      4eb90047b9c8   jsr CNTLCOM.update_cursor
     0x00740aee      4850           pea.l (a0)
     0x00740af0      4eb9004ac46a   jsr MENUZOOMCOM.zoom_screen_pos
     0x00740af6      2e90           move.l (a0), (a7)
     0x00740af8      49eeffa4       lea.l -0x5c(a6), a4
     0x00740afc      4ebaf754       jsr MENUEFFECTCOM.add_remove_key(pc)
     0x00740b00      584f           addq.w 0x4, a7
  < 0x00740b02      600000dc       bra.w 0x740be0
  > 0x00740b06      4eb90047b9c8   jsr CNTLCOM.update_cursor
     0x00740b0c      4239008694a4   clr.b 0x8694a4
     0x00740b12      3f00           move.w d0, -(a7)
     0x00740b14      32280012       move.w 0x12(a0), d1
     0x00740b18      48c1           ext.l d1
     0x00740b1a      34280014       move.w 0x14(a0), d2
     0x00740b1e      48c2           ext.l d2
     0x00740b20      4482           neg.l d2
     0x00740b22      d481           add.l d1, d2
     0x00740b24      f2024000       fmove.l d2, fp0
     0x00740b28      f23c40200000.  fdiv.l 0x64, fp0
     0x00740b30      594f           subq.w 0x4, a7
     0x00740b32      3f00           move.w d0, -(a7)
     0x00740b34      4eb90048d992   jsr MENU2COM.get_numeric_val
     0x00740b3a      544f           addq.w 0x2, a7
     0x00740b3c      f2174480       fmove.s (a7), fp1
     0x00740b40      f20000a2       fadd fp0, fp1
     0x00740b44      f2176480       fmove.s fp1, (a7)
     0x00740b48      4227           clr.b -(a7)
     0x00740b4a      4227           clr.b -(a7)
     0x00740b4c      4eb90048da84   jsr MENU2COM.set_numeric_val
     0x00740b52      dec4           adda.w d4, a7
     0x00740b54      b053           cmp.w (a3), d0
  < 0x00740b56      662c           bne.b 0x740b84
     0x00740b58      7e00           moveq 0x0, d7
  > 0x00740b5a      4887           ext.w d7
     0x00740b5c      43f9008693f2   lea.l 0x8693f2, a1
     0x00740b62      3f3173200080   move.w 0x80(a1, d7.w * 2), -(a7)
     0x00740b68      594f           subq.w 0x4, a7
     0x00740b6a      3f13           move.w (a3), -(a7)
     0x00740b6c      4eb90048d992   jsr MENU2COM.get_numeric_val
     0x00740b72      4217           clr.b (a7)
     0x00740b74      4227           clr.b -(a7)
     0x00740b76      4eb90048da84   jsr MENU2COM.set_numeric_val
     0x00740b7c      dec4           adda.w d4, a7
     0x00740b7e      5207           addq.b 0x1, d7
     0x00740b80      be05           cmp.b d5, d7
  < 0x00740b82      6fd6           ble.b 0x740b5a
  > 0x00740b84      554f           subq.w 0x2, a7
     0x00740b86      3f390086bbfe   move.w 0x86bbfe, -(a7)
     0x00740b8c      4eb900480fc2   jsr MENUCOM.get_boxon
     0x00740b92      544f           addq.w 0x2, a7
     0x00740b94      4a1f           tst.b (a7)+
  < 0x00740b96      6632           bne.b 0x740bca
     0x00740b98      302e000a       move.w 0xa(a6), d0
     0x00740b9c      b053           cmp.w (a3), d0
  < 0x00740b9e      6724           beq.b 0x740bc4
     0x00740ba0      302e000a       move.w 0xa(a6), d0
     0x00740ba4      b07900869472   cmp.w 0x869472, d0
  < 0x00740baa      6718           beq.b 0x740bc4
     0x00740bac      302e000a       move.w 0xa(a6), d0
     0x00740bb0      b07900869474   cmp.w 0x869474, d0
  < 0x00740bb6      670c           beq.b 0x740bc4
     0x00740bb8      302e000a       move.w 0xa(a6), d0
     0x00740bbc      b07900869476   cmp.w 0x869476, d0
  < 0x00740bc2      6606           bne.b 0x740bca
  > 0x00740bc4      3f3acffe       move.w 0x73dbc4(pc), -(a7)
  < 0x00740bc8      6004           bra.b 0x740bce
  > 0x00740bca      3f3acffa       move.w 0x73dbc6(pc), -(a7)
  > 0x00740bce      514f           subq.w 0x8, a7
     0x00740bd0      4227           clr.b -(a7)
     0x00740bd2      4eb9006336ea   jsr HANDCOM.get_area
     0x00740bd8      544f           addq.w 0x2, a7
     0x00740bda      4ebaefb2       jsr MENUEFFECTCOM.do_key(pc)
     0x00740bde      dec4           adda.w d4, a7
  < 0x00740be0      6014           bra.b 0x740bf6
     0x00740be2      4239008693f2   clr.b 0x8693f2
     0x00740be8      13c300869486   move.b d3, 0x869486
     0x00740bee      3f3acfd8       move.w 0x73dbc8(pc), -(a7)
  < 0x00740bf2      6000fcea       bra.w 0x7408de
  > 0x00740bf6      f21fd0c0       fmovem (a7)+, fp0-fp1
            0x00740bfa      4cdf1fff       movem.l (a7)+, d0-d7/a0-a4
            0x00740bfe      4e5e           unlk a6
            0x00740c00      4e75           rts
            ; CALL XREF from MENUEFFECTCOM.do_colour @ 0x741962
            ; CALL XREF from MENUEFFECTCOM.hit_do_pen @ 0x745146
 292: MENUEFFECTCOM.colour_set_out ();
           0x00740c02      4e56ffd6       link.w a6, 0xffd6
           0x00740c06      bfd5           cmpa.l (a5), a7
       < 0x00740c08      6206           bhi.b 0x740c10
          0x00740c0a      44fc0002       move.w 0x2, ccr
          0x00740c0e      4e76           trapv
       > 0x00740c10      defc002a       adda.w 0x2a, a7
           0x00740c14      48e7e0f0       movem.l d0-d2/a0-a3, -(a7)
           0x00740c18      43f900480fc2   lea.l MENUCOM.get_boxon, a1
           0x00740c1e      45f90086945c   lea.l 0x86945c, a2
           0x00740c24      47f9008693f2   lea.l 0x8693f2, a3
           0x00740c2a      722c           moveq 0x2c, d1
           0x00740c2c      7403           moveq 0x3, d2
           0x00740c2e      4eb90051f298   jsr BRUSHCOM.brush_wait
           0x00740c34      4eb900523cda   jsr BRUSHCOM.open_block
           0x00740c3a      554f           subq.w 0x2, a7
           0x00740c3c      3f3900869428   move.w 0x869428, -(a7)
           0x00740c42      4e91           jsr (a1)                    ; fcn.0000000a
           0x00740c44      544f           addq.w 0x2, a7
           0x00740c46      4a1f           tst.b (a7)+
       < 0x00740c48      670a           beq.b 0x740c54
          0x00740c4a      4eb900518f96   jsr OUTCOM.normal_set_out
      < 0x00740c50      6000008e       bra.w 0x740ce0
      > 0x00740c54      554f           subq.w 0x2, a7
          0x00740c56      3f3900869aa8   move.w 0x869aa8, -(a7)
          0x00740c5c      4e91           jsr (a1)                    ; fcn.0000000a
          0x00740c5e      544f           addq.w 0x2, a7
          0x00740c60      4a1f           tst.b (a7)+
      < 0x00740c62      673c           beq.b 0x740ca0
         0x00740c64      554f           subq.w 0x2, a7
         0x00740c66      3f01           move.w d1, -(a7)
         0x00740c68      4e91           jsr (a1)                    ; fcn.0000000a
         0x00740c6a      544f           addq.w 0x2, a7
         0x00740c6c      4a1f           tst.b (a7)+
     < 0x00740c6e      6718           beq.b 0x740c88
        0x00740c70      554f           subq.w 0x2, a7
        0x00740c72      3f12           move.w (a2), -(a7)
        0x00740c74      4e91           jsr (a1)                    ; fcn.0000000a
        0x00740c76      544f           addq.w 0x2, a7
        0x00740c78      4a1f           tst.b (a7)+
    < 0x00740c7a      6606           bne.b 0x740c82
       0x00740c7c      1f3c002f       move.b 0x2f, -(a7)
   < 0x00740c80      6056           bra.b 0x740cd8
   > 0x00740c82      1f3c0031       move.b 0x31, -(a7)
   < 0x00740c86      6050           bra.b 0x740cd8
   > 0x00740c88      554f           subq.w 0x2, a7
       0x00740c8a      3f12           move.w (a2), -(a7)
       0x00740c8c      4e91           jsr (a1)                    ; fcn.0000000a
       0x00740c8e      544f           addq.w 0x2, a7
       0x00740c90      4a1f           tst.b (a7)+
   < 0x00740c92      6606           bne.b 0x740c9a
      0x00740c94      1f3c002e       move.b 0x2e, -(a7)
  < 0x00740c98      603e           bra.b 0x740cd8
  > 0x00740c9a      1f3c0030       move.b 0x30, -(a7)
  < 0x00740c9e      6038           bra.b 0x740cd8
  > 0x00740ca0      554f           subq.w 0x2, a7
      0x00740ca2      3f3c002d       move.w 0x2d, -(a7)
      0x00740ca6      4e91           jsr (a1)                    ; fcn.0000000a
      0x00740ca8      544f           addq.w 0x2, a7
      0x00740caa      4a1f           tst.b (a7)+
  < 0x00740cac      660e           bne.b 0x740cbc
     0x00740cae      554f           subq.w 0x2, a7
     0x00740cb0      3f3c001f       move.w 0x1f, -(a7)
     0x00740cb4      4e91           jsr (a1)                    ; fcn.0000000a
     0x00740cb6      544f           addq.w 0x2, a7
     0x00740cb8      4a1f           tst.b (a7)+
 < 0x00740cba      6706           beq.b 0x740cc2
 > 0x00740cbc      1f3c0021       move.b 0x21, -(a7)
 < 0x00740cc0      6016           bra.b 0x740cd8
 > 0x00740cc2      554f           subq.w 0x2, a7
     0x00740cc4      3f01           move.w d1, -(a7)
     0x00740cc6      4e91           jsr (a1)                    ; fcn.0000000a
     0x00740cc8      544f           addq.w 0x2, a7
     0x00740cca      4a1f           tst.b (a7)+
 < 0x00740ccc      6706           beq.b 0x740cd4
    0x00740cce      1f3c0020       move.b 0x20, -(a7)
 < 0x00740cd2      6004           bra.b 0x740cd8
 > 0x00740cd4      1f3c0001       move.b 0x1, -(a7)
 > 0x00740cd8      4eb900518dd8   jsr OUTCOM.set_out
          0x00740cde      544f           addq.w 0x2, a7
      > 0x00740ce0      1f02           move.b d2, -(a7)
           0x00740ce2      102e0008       move.b 0x8(a6), d0
           0x00740ce6      4880           ext.w d0
           0x00740ce8      204b           movea.l a3, a0
           0x00740cea      2f3005202918   move.l 0x2918(a0, d0.w * 4), -(a7)
           0x00740cf0      4eb90051872e   jsr OUTCOM.set_scroll
           0x00740cf6      584f           addq.w 0x4, a7
           0x00740cf8      1e82           move.b d2, (a7)
           0x00740cfa      102e0008       move.b 0x8(a6), d0
           0x00740cfe      4880           ext.w d0
           0x00740d00      204b           movea.l a3, a0
           0x00740d02      2f3007202934   move.l 0x2934(a0, d0.w * 8), -(a7)
           0x00740d08      2f3007202930   move.l 0x2930(a0, d0.w * 8), -(a7)
           0x00740d0e      4eb900518a2a   jsr OUTCOM.set_video_crops
           0x00740d14      defc000a       adda.w 0xa, a7
           0x00740d18      4eb900523cf0   jsr BRUSHCOM.close_block
           0x00740d1e      4cdf0f07       movem.l (a7)+, d0-d2/a0-a3
           0x00740d22      4e5e           unlk a6
           0x00740d24      4e75           rts
            ; CALL XREF from MENUEFFECTCOM.do_colour @ 0x741808
 24: MENUEFFECTCOM.do_col_poster ();
           0x00740d26      4e56ffac       link.w a6, 0xffac
           0x00740d2a      bfd5           cmpa.l (a5), a7
       < 0x00740d2c      6206           bhi.b 0x740d34
          0x00740d2e      44fc0002       move.w 0x2, ccr
          0x00740d32      4e76           trapv
       > 0x00740d34      defc0048       adda.w 0x48, a7
           0x00740d38      48e7f1c0       movem.l d0-d3/d7/a0-a1, -(a7)
           0x00740d3c      f227e081       fmovem fp0/fp7, -(a7)
            0x00740d40      43f9008693f2   lea.l 0x8693f2, a1
            0x00740d46      7410           moveq 0x10, d2
            0x00740d48      363c00ff       move.w 0xff, d3
            0x00740d4c      7e00           moveq 0x0, d7
        > 0x00740d4e      2049           movea.l a1, a0
           0x00740d50      4270732006dc   clr.w 0x6dc(a0, d7.w * 2)
           0x00740d56      5247           addq.w 0x1, d7
           0x00740d58      0c470bff       cmpi.w 0xbff, d7
        < 0x00740d5c      6ff0           ble.b 0x740d4e
            0x00740d5e      594f           subq.w 0x4, a7
            0x00740d60      3f3900869aca   move.w 0x869aca, -(a7)
            0x00740d66      4eb90048d992   jsr MENU2COM.get_numeric_val
            0x00740d6c      544f           addq.w 0x2, a7
            0x00740d6e      f21f4780       fmove.s (a7)+, fp7
            0x00740d72      7e00           moveq 0x0, d7
        > 0x00740d74      2049           movea.l a1, a0
           0x00740d76      31bc08007320.  move.w 0x800, 0x6dc(a0, d7.w * 2)
           0x00740d7e      5247           addq.w 0x1, d7
           0x00740d80      be42           cmp.w d2, d7
        < 0x00740d82      6ff0           ble.b 0x740d74
            0x00740d84      7e10           moveq 0x10, d7
        > 0x00740d86      2049           movea.l a1, a0
           0x00740d88      514f           subq.w 0x8, a7
           0x00740d8a      48c7           ext.l d7
           0x00740d8c      2007           move.l d7, d0
           0x00740d8e      9082           sub.l d2, d0
           0x00740d90      f2004000       fmove.l d0, fp0
           0x00740d94      f2001c20       fdiv fp7, fp0
           0x00740d98      f2276400       fmove.s fp0, -(a7)
           0x00740d9c      4eb9004081d2   jsr p_round
           0x00740da2      584f           addq.w 0x4, a7
           0x00740da4      f2174000       fmove.l (a7), fp0
           0x00740da8      f2001c23       fmul fp7, fp0
           0x00740dac      f2176400       fmove.s fp0, (a7)
           0x00740db0      4eb9004081d2   jsr p_round
           0x00740db6      584f           addq.w 0x4, a7
           0x00740db8      7010           moveq 0x10, d0
           0x00740dba      d09f           add.l (a7)+, d0
           0x00740dbc      ef80           asl.l 0x7, d0
           0x00740dbe      3180732006dc   move.w d0, 0x6dc(a0, d7.w * 2)
           0x00740dc4      5247           addq.w 0x1, d7
           0x00740dc6      0c4700eb       cmpi.w 0xeb, d7
        < 0x00740dca      6fba           ble.b 0x740d86
            0x00740dcc      3e3c00eb       move.w 0xeb, d7
        > 0x00740dd0      2049           movea.l a1, a0
           0x00740dd2      31bc75807320.  move.w 0x7580, 0x6dc(a0, d7.w * 2)
           0x00740dda      5247           addq.w 0x1, d7
           0x00740ddc      be43           cmp.w d3, d7
        < 0x00740dde      6ff0           ble.b 0x740dd0
            0x00740de0      7e00           moveq 0x0, d7
        > 0x00740de2      48c7           ext.l d7
           0x00740de4      203c00000500   move.l 0x500, d0
           0x00740dea      d087           add.l d7, d0
           0x00740dec      2049           movea.l a1, a0
           0x00740dee      48c7           ext.l d7
           0x00740df0      223c00000080   move.l 0x80, d1
           0x00740df6      9287           sub.l d7, d1
           0x00740df8      ef81           asl.l 0x7, d1
           0x00740dfa      31810b2006dc   move.w d1, 0x6dc(a0, d0.l * 2)
           0x00740e00      5247           addq.w 0x1, d7
           0x00740e02      be43           cmp.w d3, d7
        < 0x00740e04      6fdc           ble.b 0x740de2
            0x00740e06      7e00           moveq 0x0, d7
        > 0x00740e08      48c7           ext.l d7
           0x00740e0a      203c00000a00   move.l 0xa00, d0
           0x00740e10      d087           add.l d7, d0
           0x00740e12      2049           movea.l a1, a0
           0x00740e14      48c7           ext.l d7
           0x00740e16      223c00000080   move.l 0x80, d1
           0x00740e1c      9287           sub.l d7, d1
           0x00740e1e      ef81           asl.l 0x7, d1
           0x00740e20      31810b2006dc   move.w d1, 0x6dc(a0, d0.l * 2)
           0x00740e26      5247           addq.w 0x1, d7
           0x00740e28      be43           cmp.w d3, d7
        < 0x00740e2a      6fdc           ble.b 0x740e08
            0x00740e2c      f21fd081       fmovem (a7)+, fp0/fp7
            0x00740e30      4cdf038f       movem.l (a7)+, d0-d3/d7/a0-a1
            0x00740e34      4e5e           unlk a6
            0x00740e36      4e75           rts
            ; CALL XREF from MENUEFFECTCOM.do_colour @ 0x741822
 96: MENUEFFECTCOM.do_col_map ();
           0x00740e38      4e56ffc2       link.w a6, 0xffc2
           0x00740e3c      bfd5           cmpa.l (a5), a7
       < 0x00740e3e      6206           bhi.b 0x740e46
          0x00740e40      44fc0002       move.w 0x2, ccr
          0x00740e44      4e76           trapv
       > 0x00740e46      defc002a       adda.w 0x2a, a7
           0x00740e4a      48e7e1c0       movem.l d0-d2/d7/a0-a1, -(a7)
           0x00740e4e      43f9008693f2   lea.l 0x8693f2, a1
           0x00740e54      7402           moveq 0x2, d2
           0x00740e56      7e00           moveq 0x0, d7
       > 0x00740e58      2049           movea.l a1, a0
          0x00740e5a      4270732006dc   clr.w 0x6dc(a0, d7.w * 2)
          0x00740e60      5247           addq.w 0x1, d7
          0x00740e62      0c470bff       cmpi.w 0xbff, d7
       < 0x00740e66      6ff0           ble.b 0x740e58
           0x00740e68      514f           subq.w 0x8, a7
           0x00740e6a      4eb9006361e4   jsr PALETCOM.get_mix_area
           0x00740e70      2d5fffee       move.l (a7)+, -0x12(a6)
           0x00740e74      2d5ffff2       move.l (a7)+, -0xe(a6)
           0x00740e78      302efff4       move.w -0xc(a6), d0
           0x00740e7c      48c0           ext.l d0
           0x00740e7e      81c2           divs.w d2, d0
           0x00740e80      322efff0       move.w -0x10(a6), d1
           0x00740e84      48c1           ext.l d1
           0x00740e86      48c0           ext.l d0
           0x00740e88      d081           add.l d1, d0
           0x00740e8a      3d40fff8       move.w d0, -0x8(a6)
           0x00740e8e      7e00           moveq 0x0, d7
       > 0x00740e90      3007           move.w d7, d0
          0x00740e92      c1eefff2       muls.w -0xe(a6), d0
          0x00740e96      4c7c08000000.  divs.l 0x100, d0
           0x00740e9e      322effee       move.w -0x12(a6), d1
           0x00740ea2      48c1           ext.l d1
           0x00740ea4      d081           add.l d1, d0
           0x00740ea6      3d40fff6       move.w d0, -0xa(a6)
           0x00740eaa      5d4f           subq.w 0x6, a7
           0x00740eac      1f02           move.b d2, -(a7)
           0x00740eae      4227           clr.b -(a7)
           0x00740eb0      2f2efff6       move.l -0xa(a6), -(a7)
           0x00740eb4      4eb900521048   jsr BRUSHCOM.br_get_colour
           0x00740eba      504f           addq.w 0x8, a7
           0x00740ebc      2d5ffffa       move.l (a7)+, -0x6(a6)
           0x00740ec0      3d5ffffe       move.w (a7)+, -0x2(a6)
           0x00740ec4      2049           movea.l a1, a0
           0x00740ec6      302efffa       move.w -0x6(a6), d0
           0x00740eca      ef40           asl.w 0x7, d0
           0x00740ecc      3180732006dc   move.w d0, 0x6dc(a0, d7.w * 2)
           0x00740ed2      48c7           ext.l d7
           0x00740ed4      203c00000400   move.l 0x400, d0
           0x00740eda      d087           add.l d7, d0
           0x00740edc      2049           movea.l a1, a0
           0x00740ede      323c0080       move.w 0x80, d1
           0x00740ee2      926efffc       sub.w -0x4(a6), d1
           0x00740ee6      ef41           asl.w 0x7, d1
           0x00740ee8      31810b2006dc   move.w d1, 0x6dc(a0, d0.l * 2)
           0x00740eee      48c7           ext.l d7
           0x00740ef0      203c00000800   move.l 0x800, d0
           0x00740ef6      d087           add.l d7, d0
           0x00740ef8      2049           movea.l a1, a0
           0x00740efa      323c0080       move.w 0x80, d1
           0x00740efe      926efffe       sub.w -0x2(a6), d1
           0x00740f02      ef41           asl.w 0x7, d1
           0x00740f04      31810b2006dc   move.w d1, 0x6dc(a0, d0.l * 2)
           0x00740f0a      5247           addq.w 0x1, d7
           0x00740f0c      0c4700ff       cmpi.w 0xff, d7
        < 0x00740f10      6f00ff7e       ble.w 0x740e90              ; MENUEFFECTCOM.do_col_map+0x58
            0x00740f14      4cdf0387       movem.l (a7)+, d0-d2/d7/a0-a1
            0x00740f18      4e5e           unlk a6
            0x00740f1a      4e75           rts
 24: MENUEFFECTCOM.make_lut ();
           0x00740f1c      4e56ff94       link.w a6, 0xff94
           0x00740f20      bfd5           cmpa.l (a5), a7
       < 0x00740f22      6206           bhi.b 0x740f2a
          0x00740f24      44fc0002       move.w 0x2, ccr
          0x00740f28      4e76           trapv
       > 0x00740f2a      defc0050       adda.w 0x50, a7
           0x00740f2e      48e7fff8       movem.l d0-d7/a0-a4, -(a7)
           0x00740f32      f227e001       fmovem fp0, -(a7)
            0x00740f36      43eefffc       lea.l -0x4(a6), a1
            0x00740f3a      45eefff8       lea.l -0x8(a6), a2
            0x00740f3e      47f9004081d2   lea.l p_round, a3
            0x00740f44      223c00000080   move.l 0x80, d1
            0x00740f4a      243c00000100   move.l 0x100, d2
            0x00740f50      7610           moveq 0x10, d3
            0x00740f52      283cffffc080   move.l 0xffffc080, d4
            0x00740f58      102e0012       move.b 0x12(a6), d0
            0x00740f5c      4880           ext.w d0
            0x00740f5e      0c400004       cmpi.w 0x4, d0
        < 0x00740f62      62000104       bhi.w 0x741068
           0x00740f66      d040           add.w d0, d0
           0x00740f68      303b0006       move.w 0x740f70(pc, d0.w), d0
           0x00740f6c      4efb0002       jmp 0x740f70(pc, d0.w)
           0x00740f70      000a0084       
           0x00740f71      0a008400       eori.b 0x0, d0
           0x00740f75      cc00           and.b d0, d6
           0x00740f77      5600           addq.b 0x3, d0
           0x00740f79      f02a3c00       fmove fp0, fp7
           0x00740f7d      00080024       
           0x00740f7e      080024bc       
           0x00740f7f      0024bc00       ori.b 0x0, -(a4)
           0x00740f83      007580594ff2.  ori.w 0x8059, ([0x2e440000], 0xaaaa)
           0x00740f8d      0cf2014023f2.  cas.w d0, d5, ([0x24023f2], 0xaaaa)
           0x00740f97      2764004e       move.l -(a4), 0x4e(a3)
           0x00740f9b      9358           sub.w d1, (a0)+
           0x00740f9d      4f22           chk.l -(a2), d7
           0x00740f9f      97f22e44       suba.l 0x44(a2, d2.l), a3
           0x00740fa3      000008f2       ori.b 0xf2, d0
           0x00740fa7      0140           bchg.b d0, d0
           0x00740fa9      23f2024023f2.  move.l 0x40(a2, d0.w), 0x23f22764.l
           0x00740fb1      004e9358       
           0x00740fb2      4e93           jsr (a3)                    ; fcn.0000000c
           0x00740fb4      584f           addq.w 0x4, a7
           0x00740fb6      2011           move.l (a1), d0
           0x00740fb8      4c030800       muls.l d3, d0
           0x00740fbc      4480           neg.l d0
           0x00740fbe      d09f           add.l (a7)+, d0
           0x00740fc0      2c00           move.l d0, d6
       < 0x00740fc2      600000a4       bra.w 0x741068
          0x00740fc6      2a04           move.l d4, d5
          0x00740fc8      24bc00003f80   move.l 0x3f80, (a2)
          0x00740fce      594f           subq.w 0x4, a7
          0x00740fd0      f22e4400000c   fmove.s 0xc(a6), fp0
          0x00740fd6      f2014023       fmul.l d1, fp0
          0x00740fda      f2024023       fmul.l d2, fp0
          0x00740fde      f2276400       fmove.s fp0, -(a7)
          0x00740fe2      4e93           jsr (a3)                    ; fcn.0000000c
          0x00740fe4      584f           addq.w 0x4, a7
          0x00740fe6      229f           move.l (a7)+, (a1)
          0x00740fe8      4491           neg.l (a1)
      > 0x00740fea      2c11           move.l (a1), d6
         0x00740fec      4c016800       muls.l d1, d6
         0x00740ff0      4486           neg.l d6
     < 0x00740ff2      6074           bra.b 0x741068
        0x00740ff4      2a04           move.l d4, d5
        0x00740ff6      24bc00003f80   move.l 0x3f80, (a2)
        0x00740ffc      594f           subq.w 0x4, a7
        0x00740ffe      f22e4400000c   fmove.s 0xc(a6), fp0
        0x00741004      f2014023       fmul.l d1, fp0
        0x00741008      f2024023       fmul.l d2, fp0
        0x0074100c      f2276400       fmove.s fp0, -(a7)
        0x00741010      4e93           jsr (a3)                    ; fcn.0000000c
        0x00741012      584f           addq.w 0x4, a7
        0x00741014      229f           move.l (a7)+, (a1)
        0x00741016      4491           neg.l (a1)
        0x00741018      2c11           move.l (a1), d6
        0x0074101a      4c036800       muls.l d3, d6
        0x0074101e      4486           neg.l d6
        0x00741020      594f           subq.w 0x4, a7
        0x00741022      f22e44000008   fmove.s 0x8(a6), fp0
        0x00741028      f2014023       fmul.l d1, fp0
        0x0074102c      f2024023       fmul.l d2, fp0
        0x00741030      f2276400       fmove.s fp0, -(a7)
        0x00741034      4e93           jsr (a3)                    ; fcn.0000000c
        0x00741036      584f           addq.w 0x4, a7
        0x00741038      9c9f           sub.l (a7)+, d6
    < 0x0074103a      602c           bra.b 0x741068
       0x0074103c      2a04           move.l d4, d5
       0x0074103e      24bc00003f80   move.l 0x3f80, (a2)
       0x00741044      594f           subq.w 0x4, a7
       0x00741046      f22e4400000c   fmove.s 0xc(a6), fp0
       0x0074104c      f2014023       fmul.l d1, fp0
       0x00741050      f2024023       fmul.l d2, fp0
       0x00741054      f2276400       fmove.s fp0, -(a7)
       0x00741058      4e93           jsr (a3)                    ; fcn.0000000c
       0x0074105a      584f           addq.w 0x4, a7
       0x0074105c      229f           move.l (a7)+, (a1)
    < 0x0074105e      608a           bra.b 0x740fea
        0x00741060      7a00           moveq 0x0, d5
        0x00741062      4292           clr.l (a2)
        0x00741064      4291           clr.l (a1)
        0x00741066      7c00           moveq 0x0, d6
    > 0x00741068      41f9008693f2   lea.l 0x8693f2, a0
            0x0074106e      302e0010       move.w 0x10(a6), d0
            0x00741072      41f0032006dc   lea.l 0x6dc(a0, d0.w * 2), a0
            0x00741078      2848           movea.l a0, a4
            0x0074107a      2f0c           move.l a4, -(a7)
            0x0074107c      2d5fffe8       move.l (a7)+, -0x18(a6)
            0x00741080      06ae000001fe.  addi.l 0x1fe, -0x18(a6)
            0x00741088      4a91           tst.l (a1)
        < 0x0074108a      6622           bne.b 0x7410ae
           0x0074108c      4a86           tst.l d6
       < 0x0074108e      661e           bne.b 0x7410ae
      > 0x00741090      2f0c           move.l a4, -(a7)
         0x00741092      2017           move.l (a7), d0
         0x00741094      b0aeffe8       cmp.l -0x18(a6), d0
     < 0x00741098      6f04           ble.b 0x74109e
        0x0074109a      584f           addq.w 0x4, a7
    < 0x0074109c      6042           bra.b 0x7410e0
    > 0x0074109e      4254           clr.w (a4)
        0x007410a0      2840           movea.l d0, a4
        0x007410a2      544c           addq.w 0x2, a4
        0x007410a4      2f0c           move.l a4, -(a7)
        0x007410a6      285f           movea.l (a7)+, a4
        0x007410a8      584f           addq.w 0x4, a7
     < 0x007410aa      60e4           bra.b 0x741090
     < 0x007410ac      6032           bra.b 0x7410e0
    > 0x007410ae      2f0c           move.l a4, -(a7)
         0x007410b0      2017           move.l (a7), d0
         0x007410b2      b0aeffe8       cmp.l -0x18(a6), d0
     < 0x007410b6      6f04           ble.b 0x7410bc
        0x007410b8      584f           addq.w 0x4, a7
    < 0x007410ba      6024           bra.b 0x7410e0
    > 0x007410bc      2e06           move.l d6, d7
        0x007410be      4c427807       divs.l d2, d7
        0x007410c2      be85           cmp.l d5, d7
    < 0x007410c4      6c04           bge.b 0x7410ca
       0x007410c6      2e05           move.l d5, d7
   < 0x007410c8      6006           bra.b 0x7410d0
   > 0x007410ca      be92           cmp.l (a2), d7
   < 0x007410cc      6f02           ble.b 0x7410d0
      0x007410ce      2e12           move.l (a2), d7
   > 0x007410d0      3887           move.w d7, (a4)
        0x007410d2      2840           movea.l d0, a4
        0x007410d4      544c           addq.w 0x2, a4
        0x007410d6      2f0c           move.l a4, -(a7)
        0x007410d8      285f           movea.l (a7)+, a4
        0x007410da      dc91           add.l (a1), d6
        0x007410dc      584f           addq.w 0x4, a7
    < 0x007410de      60ce           bra.b 0x7410ae
    > 0x007410e0      f21fd080       fmovem (a7)+, fp0
            0x007410e4      4cdf1fff       movem.l (a7)+, d0-d7/a0-a4
            0x007410e8      4e5e           unlk a6
            0x007410ea      4e75           rts
 24: MENUEFFECTCOM.apply_rgb_gain ();
           0x007410ec      4e56ff64       link.w a6, 0xff64
           0x007410f0      bfd5           cmpa.l (a5), a7
       < 0x007410f2      6206           bhi.b 0x7410fa
          0x007410f4      44fc0002       move.w 0x2, ccr
          0x007410f8      4e76           trapv
       > 0x007410fa      defc0070       adda.w 0x70, a7
           0x007410fe      48e7fff0       movem.l d0-d7/a0-a3, -(a7)
           0x00741102      f227e083       fmovem fp0-fp1/fp7, -(a7)
            0x00741106      7602           moveq 0x2, d3
            0x00741108      7864           moveq 0x64, d4
            0x0074110a      f22e44000010   fmove.s 0x10(a6), fp0
            0x00741110      f2044038       fcmp.l d4, fp0
            0x00741114      f296001e       fbf.w 0x741134
            0x00741118      f22e4400000c   fmove.s 0xc(a6), fp0
            0x0074111e      f2044038       fcmp.l d4, fp0
            0x00741122      f2960010       fbf.w 0x741134
            0x00741126      f22e44000008   fmove.s 0x8(a6), fp0
            0x0074112c      f2044038       fcmp.l d4, fp0
            0x00741130      f29900fe       fbf.w 0x741230
            0x00741134      41eeffdc       lea.l -0x24(a6), a0
            0x00741138      43facafc       lea.l 0x73dc36(pc), a1
            0x0074113c      7008           moveq 0x8, d0
        > 0x0074113e      20d9           move.l (a1)+, (a0)+
        < 0x00741140      51c8fffc       dbra d0, 0x74113e
            0x00741144      7a00           moveq 0x0, d5
        > 0x00741146      4885           ext.w d5
           0x00741148      3005           move.w d5, d0
           0x0074114a      b043           cmp.w d3, d0
       < 0x0074114c      622c           bhi.b 0x74117a
          0x0074114e      d040           add.w d0, d0
          0x00741150      303b0006       move.w 0x741158(pc, d0.w), d0
          0x00741154      4efb0002       jmp 0x741158(pc, d0.w)
          0x00741158      00060012       ori.b 0x12, d6
          0x0074115c      001af22e       ori.b 0x2e, (a2)+
          0x00741160      4780           chk.w d0, d3
          0x00741162      0010f204       ori.b 0x4, (a0)
        0x00741166      43a0           chk.w -(a0), d1
    < 0x00741168      6010           bra.b 0x74117a
       0x0074116a      f22e4780000c   fmove.s 0xc(a6), fp7
    < 0x00741170      60f2           bra.b 0x741164
        0x00741172      f22e47800008   fmove.s 0x8(a6), fp7
     < 0x00741178      60ea           bra.b 0x741164
    > 0x0074117a      4885           ext.w d5
           0x0074117c      700c           moveq 0xc, d0
           0x0074117e      c1c5           muls.w d5, d0
           0x00741180      41faca90       lea.l 0x73dc12(pc), a0
           0x00741184      7c00           moveq 0x0, d6
       > 0x00741186      4886           ext.w d6
          0x00741188      720c           moveq 0xc, d1
          0x0074118a      c3c6           muls.w d6, d1
          0x0074118c      4886           ext.w d6
          0x0074118e      43f00000       lea.l (a0, d0.w), a1
          0x00741192      7e00           moveq 0x0, d7
      > 0x00741194      4887           ext.w d7
         0x00741196      45f610d4       lea.l -0x2c(a6, d1.w), a2
         0x0074119a      4887           ext.w d7
         0x0074119c      740c           moveq 0xc, d2
         0x0074119e      c5c7           muls.w d7, d2
         0x007411a0      47faca4c       lea.l 0x73dbee(pc), a3
         0x007411a4      4885           ext.w d5
         0x007411a6      47f32000       lea.l (a3, d2.w), a3
         0x007411aa      f23144006400   fmove.s (a1, d6.w * 4), fp0
         0x007411b0      f23344235400   fmul.s (a3, d5.w * 4), fp0
         0x007411b6      f2001c23       fmul fp7, fp0
         0x007411ba      f23244807408   fmove.s 0x8(a2, d7.w), fp1
         0x007411c0      f20000a2       fadd fp0, fp1
         0x007411c4      f23264807408   fmove.s fp1, 0x8(a2, d7.w)
         0x007411ca      5207           addq.b 0x1, d7
         0x007411cc      be03           cmp.b d3, d7
      < 0x007411ce      6fc4           ble.b 0x741194
          0x007411d0      5206           addq.b 0x1, d6
          0x007411d2      bc03           cmp.b d3, d6
       < 0x007411d4      6fb0           ble.b 0x741186
           0x007411d6      5205           addq.b 0x1, d5
           0x007411d8      ba03           cmp.b d3, d5
        < 0x007411da      6f00ff6a       ble.w 0x741146
            0x007411de      7c00           moveq 0x0, d6
        > 0x007411e0      4886           ext.w d6
           0x007411e2      700c           moveq 0xc, d0
           0x007411e4      c1c6           muls.w d6, d0
           0x007411e6      7e00           moveq 0x0, d7
       > 0x007411e8      4887           ext.w d7
          0x007411ea      41f40000       lea.l (a4, d0.w), a0
          0x007411ee      4887           ext.w d7
          0x007411f0      f2344400004c   fmove.s 0x4c(a4, d0.w), fp0
          0x007411f6      f236442374dc   fmul.s -0x24(a6, d7.w), fp0
          0x007411fc      f23444800050   fmove.s 0x50(a4, d0.w), fp1
          0x00741202      f23644a374e8   fmul.s -0x18(a6, d7.w), fp1
          0x00741208      f20000a2       fadd fp0, fp1
          0x0074120c      f23444000054   fmove.s 0x54(a4, d0.w), fp0
          0x00741212      f236442374f4   fmul.s -0xc(a6, d7.w), fp0
          0x00741218      f2000422       fadd fp1, fp0
          0x0074121c      f23064007470   fmove.s fp0, 0x70(a0, d7.w)
          0x00741222      5207           addq.b 0x1, d7
          0x00741224      be03           cmp.b d3, d7
       < 0x00741226      6fc0           ble.b 0x7411e8
           0x00741228      5206           addq.b 0x1, d6
           0x0074122a      bc03           cmp.b d3, d6
        < 0x0074122c      6fb2           ble.b 0x7411e0
        < 0x0074122e      6010           bra.b 0x741240
           0x00741230      41ec0070       lea.l 0x70(a4), a0
           0x00741234      43ec004c       lea.l 0x4c(a4), a1
           0x00741238      7008           moveq 0x8, d0
       > 0x0074123a      20d9           move.l (a1)+, (a0)+
       < 0x0074123c      51c8fffc       dbra d0, 0x74123a
        > 0x00741240      f21fd0c1       fmovem (a7)+, fp0-fp1/fp7
            0x00741244      4cdf0fff       movem.l (a7)+, d0-d7/a0-a3
            0x00741248      4e5e           unlk a6
            0x0074124a      4e75           rts
 24: MENUEFFECTCOM.calc_glow ();
           0x0074124c      4e56ffa4       link.w a6, 0xffa4
           0x00741250      bfd5           cmpa.l (a5), a7
       < 0x00741252      6206           bhi.b 0x74125a
          0x00741254      44fc0002       move.w 0x2, ccr
          0x00741258      4e76           trapv
       > 0x0074125a      defc0058       adda.w 0x58, a7
           0x0074125e      48e7fec0       movem.l d0-d6/a0-a1, -(a7)
           0x00741262      f227e083       fmovem fp0-fp1/fp7, -(a7)
            0x00741266      41ec0028       lea.l 0x28(a4), a0
            0x0074126a      43ec002c       lea.l 0x2c(a4), a1
            0x0074126e      7478           moveq 0x78, d2
            0x00741270      763c           moveq 0x3c, d3
            0x00741272      283c000000f0   move.l 0xf0, d4
            0x00741278      2a3c00000168   move.l 0x168, d5
            0x0074127e      2c3cbd3e4abe   move.l 0xbd3e4abe, d6
            0x00741284      302e0008       move.w 0x8(a6), d0
            0x00741288      48c0           ext.l d0
            0x0074128a      2200           move.l d0, d1
            0x0074128c      4481           neg.l d1
            0x0074128e      f2014000       fmove.l d1, fp0
            0x00741292      f2106400       fmove.s fp0, (a0)
            0x00741296      f23c40380000.  fcmp.l 0x0, fp0
            0x0074129e      f29b000e       fbf.w 0x7412ae
            0x007412a2      f2104400       fmove.s (a0), fp0
            0x007412a6      f2054022       fadd.l d5, fp0
            0x007412aa      f2106400       fmove.s fp0, (a0)
            0x007412ae      d083           add.l d3, d0
            0x007412b0      4c420801       divs.l d2, d0
            0x007412b4      4a81           tst.l d1
        < 0x007412b6      6c02           bge.b 0x7412ba
           0x007412b8      d282           add.l d2, d1
        > 0x007412ba      9243           sub.w d3, d1
        < 0x007412bc      6a02           bpl.b 0x7412c0
           0x007412be      4441           neg.w d1
        > 0x007412c0      48c1           ext.l d1
            0x007412c2      f2014380       fmove.l d1, fp7
            0x007412c6      f20343a0       fdiv.l d3, fp7
            0x007412ca      2010           move.l (a0), d0
            0x007412cc      2280           move.l d0, (a1)
            0x007412ce      f2104400       fmove.s (a0), fp0
            0x007412d2      f2044038       fcmp.l d4, fp0
            0x007412d6      f29d0018       fbf.w 0x7412f0
            0x007412da      f2054000       fmove.l d5, fp0
            0x007412de      f2104428       fsub.s (a0), fp0
            0x007412e2      f23c44233f6b.  fmul.s 0, fp0
            0x007412ea      f2024020       fdiv.l d2, fp0
        < 0x007412ee      6010           bra.b 0x741300
           0x007412f0      f2104400       fmove.s (a0), fp0
           0x007412f4      f23c44233f6b.  fmul.s 0, fp0
           0x007412fc      f2044020       fdiv.l d4, fp0
        > 0x00741300      f2106400       fmove.s fp0, (a0)
            0x00741304      f2004400       fmove.s d0, fp0
            0x00741308      f2044038       fcmp.l d4, fp0
            0x0074130c      f29d0010       fbf.w 0x74131e
            0x00741310      f2054000       fmove.l d5, fp0
            0x00741314      f2004428       fsub.s d0, fp0
            0x00741318      f2064423       fmul.s d6, fp0
        < 0x0074131c      603e           bra.b 0x74135c
           0x0074131e      f2004400       fmove.s d0, fp0
           0x00741322      f2024038       fcmp.l d2, fp0
           0x00741326      f29d0028       fbf.w 0x741350
           0x0074132a      f2044000       fmove.l d4, fp0
           0x0074132e      f2004428       fsub.s d0, fp0
           0x00741332      f23c44803f39.  fmove.s 0, fp1
           0x0074133a      f20644a8       fsub.s d6, fp1
           0x0074133e      f20000a3       fmul fp0, fp1
           0x00741342      f20240a0       fdiv.l d2, fp1
           0x00741346      f20644a2       fadd.s d6, fp1
           0x0074134a      f2116480       fmove.s fp1, (a1)
       < 0x0074134e      6014           bra.b 0x741364
          0x00741350      f2004400       fmove.s d0, fp0
          0x00741354      f23c44233f39.  fmul.s 0, fp0
       > 0x0074135c      f2024020       fdiv.l d2, fp0
           0x00741360      f2116400       fmove.s fp0, (a1)
       > 0x00741364      f23c44003f80.  fmove.s 1, fp0
            0x0074136c      f2001c22       fadd fp7, fp0
            0x00741370      f2104480       fmove.s (a0), fp1
            0x00741374      f20000a3       fmul fp0, fp1
            0x00741378      f2106480       fmove.s fp1, (a0)
            0x0074137c      f2114480       fmove.s (a1), fp1
            0x00741380      f20000a3       fmul fp0, fp1
            0x00741384      f2116480       fmove.s fp1, (a1)
            0x00741388      f21fd0c1       fmovem (a7)+, fp0-fp1/fp7
            0x0074138c      4cdf037f       movem.l (a7)+, d0-d6/a0-a1
            0x00741390      4e5e           unlk a6
            0x00741392      4e75           rts
            ; CALL XREF from MENUEFFECTCOM.do_colour @ 0x74182c
 24: MENUEFFECTCOM.do_col_knobs ();
           0x00741394      4e56ff90       link.w a6, 0xff90
           0x00741398      bfd5           cmpa.l (a5), a7
       < 0x0074139a      6206           bhi.b 0x7413a2
          0x0074139c      44fc0002       move.w 0x2, ccr
          0x007413a0      4e76           trapv
       > 0x007413a2      defc0070       adda.w 0x70, a7
           0x007413a6      48e7fff0       movem.l d0-d7/a0-a3, -(a7)
           0x007413aa      f227e007       fmovem fp0-fp2, -(a7)
            0x007413ae      41f90048d992   lea.l MENU2COM.get_numeric_val, a0
            0x007413b4      43ec0018       lea.l 0x18(a4), a1
            0x007413b8      45ec0014       lea.l 0x14(a4), a2
            0x007413bc      47ec0010       lea.l 0x10(a4), a3
            0x007413c0      7600           moveq 0x0, d3
            0x007413c2      780a           moveq 0xa, d4
            0x007413c4      7a64           moveq 0x64, d5
            0x007413c6      7c03           moveq 0x3, d6
            0x007413c8      7e04           moveq 0x4, d7
            0x007413ca      594f           subq.w 0x4, a7
            0x007413cc      3f3900869ab0   move.w 0x869ab0, -(a7)
            0x007413d2      4e90           jsr (a0)                    ; fcn.00000009
            0x007413d4      544f           addq.w 0x2, a7
            0x007413d6      f21f4400       fmove.s (a7)+, fp0
            0x007413da      f2054020       fdiv.l d5, fp0
            0x007413de      f2136400       fmove.s fp0, (a3)
            0x007413e2      594f           subq.w 0x4, a7
            0x007413e4      3f3900869ab4   move.w 0x869ab4, -(a7)
            0x007413ea      4e90           jsr (a0)                    ; fcn.00000009
            0x007413ec      544f           addq.w 0x2, a7
            0x007413ee      f21f4400       fmove.s (a7)+, fp0
            0x007413f2      f2054020       fdiv.l d5, fp0
            0x007413f6      f2134423       fmul.s (a3), fp0
            0x007413fa      f2126400       fmove.s fp0, (a2)
            0x007413fe      2953004c       move.l (a3), 0x4c(a4)
            0x00741402      f2034000       fmove.l d3, fp0
            0x00741406      f22c64000050   fmove.s fp0, 0x50(a4)
            0x0074140c      f2034000       fmove.l d3, fp0
            0x00741410      f22c64000054   fmove.s fp0, 0x54(a4)
            0x00741416      f2034000       fmove.l d3, fp0
            0x0074141a      f22c64000058   fmove.s fp0, 0x58(a4)
            0x00741420      f2034000       fmove.l d3, fp0
            0x00741424      f22c64000064   fmove.s fp0, 0x64(a4)
            0x0074142a      594f           subq.w 0x4, a7
            0x0074142c      3f3900869ab6   move.w 0x869ab6, -(a7)
            0x00741432      4e90           jsr (a0)                    ; fcn.00000009
            0x00741434      544f           addq.w 0x2, a7
            0x00741436      229f           move.l (a7)+, (a1)
            0x00741438      f2114400       fmove.s (a1), fp0
            0x0074143c      f2034038       fcmp.l d3, fp0
            0x00741440      f299006e       fbf.w 0x7414b0
            0x00741444      f2114400       fmove.s (a1), fp0
            0x00741448      f23c442340c9.  fmul.s 6, fp0
            0x00741450      f23c40200000.  fdiv.l 0x168, fp0
            0x00741458      f2116400       fmove.s fp0, (a1)
            0x0074145c      594f           subq.w 0x4, a7
            0x0074145e      2f11           move.l (a1), -(a7)
            0x00741460      4eb9004387fc   jsr p_fsin
            0x00741466      584f           addq.w 0x4, a7
            0x00741468      f21f4400       fmove.s (a7)+, fp0
            0x0074146c      f2124423       fmul.s (a2), fp0
            0x00741470      f22c64000024   fmove.s fp0, 0x24(a4)
            0x00741476      594f           subq.w 0x4, a7
            0x00741478      2f11           move.l (a1), -(a7)
            0x0074147a      4eb900438824   jsr p_fcos
            0x00741480      584f           addq.w 0x4, a7
            0x00741482      f21f4400       fmove.s (a7)+, fp0
            0x00741486      f2124423       fmul.s (a2), fp0
            0x0074148a      f22c64000020   fmove.s fp0, 0x20(a4)
            0x00741490      296c0020005c   move.l 0x20(a4), 0x5c(a4)
            0x00741496      f22c441a0024   fneg.s 0x24(a4), fp0
            0x0074149c      f22c64000060   fmove.s fp0, 0x60(a4)
            0x007414a2      296c00240068   move.l 0x24(a4), 0x68(a4)
            0x007414a8      296c0020006c   move.l 0x20(a4), 0x6c(a4)
        < 0x007414ae      601c           bra.b 0x7414cc
           0x007414b0      2952005c       move.l (a2), 0x5c(a4)
           0x007414b4      f2034000       fmove.l d3, fp0
           0x007414b8      f22c64000060   fmove.s fp0, 0x60(a4)
           0x007414be      f2034000       fmove.l d3, fp0
           0x007414c2      f22c64000068   fmove.s fp0, 0x68(a4)
           0x007414c8      2952006c       move.l (a2), 0x6c(a4)
        > 0x007414cc      594f           subq.w 0x4, a7
            0x007414ce      3f3900869ab8   move.w 0x869ab8, -(a7)
            0x007414d4      4e90           jsr (a0)                    ; fcn.00000009
            0x007414d6      554f           subq.w 0x2, a7
            0x007414d8      3f3900869aba   move.w 0x869aba, -(a7)
            0x007414de      4e90           jsr (a0)                    ; fcn.00000009
            0x007414e0      554f           subq.w 0x2, a7
            0x007414e2      3f3900869abc   move.w 0x869abc, -(a7)
            0x007414e8      4e90           jsr (a0)                    ; fcn.00000009
            0x007414ea      544f           addq.w 0x2, a7
            0x007414ec      4ebafbfe       jsr MENUEFFECTCOM.apply_rgb_gain(pc)
            0x007414f0      5c4f           addq.w 0x6, a7
            0x007414f2      3eb900869ab2   move.w 0x869ab2, (a7)
            0x007414f8      4e90           jsr (a0)                    ; fcn.00000009
            0x007414fa      544f           addq.w 0x2, a7
            0x007414fc      f21f4400       fmove.s (a7)+, fp0
            0x00741500      f2054020       fdiv.l d5, fp0
            0x00741504      f23c44283f80.  fsub.s 1, fp0
            0x0074150c      f22c64000030   fmove.s fp0, 0x30(a4)
            0x00741512      f23c40230000.  fmul.l 0xdb, fp0
            0x0074151a      f23c40220000.  fadd.l 0x10, fp0
            0x00741522      f22c64000040   fmove.s fp0, 0x40(a4)
            0x00741528      f2034000       fmove.l d3, fp0
            0x0074152c      f22c64000044   fmove.s fp0, 0x44(a4)
            0x00741532      f2034000       fmove.l d3, fp0
            0x00741536      f22c64000048   fmove.s fp0, 0x48(a4)
            0x0074153c      594f           subq.w 0x4, a7
            0x0074153e      3f3900869abe   move.w 0x869abe, -(a7)
            0x00741544      4e90           jsr (a0)                    ; fcn.00000009
            0x00741546      544f           addq.w 0x2, a7
            0x00741548      201f           move.l (a7)+, d0
            0x0074154a      29400034       move.l d0, 0x34(a4)
            0x0074154e      594f           subq.w 0x4, a7
            0x00741550      3f3900869ac0   move.w 0x869ac0, -(a7)
            0x00741556      4e90           jsr (a0)                    ; fcn.00000009
            0x00741558      544f           addq.w 0x2, a7
            0x0074155a      221f           move.l (a7)+, d1
            0x0074155c      29410038       move.l d1, 0x38(a4)
            0x00741560      594f           subq.w 0x4, a7
            0x00741562      3f3900869ac2   move.w 0x869ac2, -(a7)
            0x00741568      4e90           jsr (a0)                    ; fcn.00000009
            0x0074156a      544f           addq.w 0x2, a7
            0x0074156c      241f           move.l (a7)+, d2
            0x0074156e      2942003c       move.l d2, 0x3c(a4)
            0x00741572      f2004400       fmove.s d0, fp0
            0x00741576      f2034038       fcmp.l d3, fp0
            0x0074157a      f296001a       fbf.w 0x741596
            0x0074157e      f2014400       fmove.s d1, fp0
            0x00741582      f2034038       fcmp.l d3, fp0
            0x00741586      f296000e       fbf.w 0x741596
            0x0074158a      f2024400       fmove.s d2, fp0
            0x0074158e      f2034038       fcmp.l d3, fp0
            0x00741592      f29900b4       fbf.w 0x741648
            0x00741596      f23a4400c630   fmove.s 0x73dbc8(pc), fp0
            0x0074159c      f2004423       fmul.s d0, fp0
            0x007415a0      f23a4480c62a   fmove.s 0x73dbcc(pc), fp1
            0x007415a6      f20144a3       fmul.s d1, fp1
            0x007415aa      f20000a2       fadd fp0, fp1
            0x007415ae      f23a4400c620   fmove.s 0x73dbd0(pc), fp0
            0x007415b4      f2024423       fmul.s d2, fp0
            0x007415b8      f2000422       fadd fp1, fp0
            0x007415bc      f23c40800000.  fmove.l 0xdb, fp1
            0x007415c4      f20540a0       fdiv.l d5, fp1
            0x007415c8      f20000a3       fmul fp0, fp1
            0x007415cc      f22c44000040   fmove.s 0x40(a4), fp0
            0x007415d2      f2000422       fadd fp1, fp0
            0x007415d6      f22c64000040   fmove.s fp0, 0x40(a4)
            0x007415dc      f23a4400c5f6   fmove.s 0x73dbd4(pc), fp0
            0x007415e2      f2004423       fmul.s d0, fp0
            0x007415e6      f23a4480c5f0   fmove.s 0x73dbd8(pc), fp1
            0x007415ec      f20144a3       fmul.s d1, fp1
            0x007415f0      f20000a2       fadd fp0, fp1
            0x007415f4      f23a4400c5e6   fmove.s 0x73dbdc(pc), fp0
            0x007415fa      f2024423       fmul.s d2, fp0
            0x007415fe      f2000422       fadd fp1, fp0
            0x00741602      f23c40800000.  fmove.l 0x7f, fp1
            0x0074160a      f20540a0       fdiv.l d5, fp1
            0x0074160e      f2000423       fmul fp1, fp0
            0x00741612      f22c64000044   fmove.s fp0, 0x44(a4)
            0x00741618      f23a4400c5c6   fmove.s 0x73dbe0(pc), fp0
            0x0074161e      f2004423       fmul.s d0, fp0
            0x00741622      f23a4500c5c0   fmove.s 0x73dbe4(pc), fp2
            0x00741628      f2014523       fmul.s d1, fp2
            0x0074162c      f2000122       fadd fp0, fp2
            0x00741630      f23a4400c5b6   fmove.s 0x73dbe8(pc), fp0
            0x00741636      f2024423       fmul.s d2, fp0
            0x0074163a      f2000822       fadd fp2, fp0
            0x0074163e      f20000a3       fmul fp0, fp1
            0x00741642      f22c64800048   fmove.s fp1, 0x48(a4)
            0x00741648      4227           clr.b -(a7)
            0x0074164a      4267           clr.w -(a7)
            0x0074164c      2f2c0070       move.l 0x70(a4), -(a7)
            0x00741650      2f2c0040       move.l 0x40(a4), -(a7)
            0x00741654      4ebaf8c6       jsr MENUEFFECTCOM.make_lut(pc)
            0x00741658      dec4           adda.w d4, a7
            0x0074165a      1ebc0002       move.b 0x2, (a7)
            0x0074165e      3f3c0100       move.w 0x100, -(a7)
            0x00741662      2f2c007c       move.l 0x7c(a4), -(a7)
            0x00741666      f2034000       fmove.l d3, fp0
            0x0074166a      f2276400       fmove.s fp0, -(a7)
            0x0074166e      4ebaf8ac       jsr MENUEFFECTCOM.make_lut(pc)
            0x00741672      dec4           adda.w d4, a7
            0x00741674      1ebc0002       move.b 0x2, (a7)
            0x00741678      3f3c0200       move.w 0x200, -(a7)
            0x0074167c      2f2c0088       move.l 0x88(a4), -(a7)
            0x00741680      f2034000       fmove.l d3, fp0
            0x00741684      f2276400       fmove.s fp0, -(a7)
            0x00741688      4ebaf892       jsr MENUEFFECTCOM.make_lut(pc)
            0x0074168c      dec4           adda.w d4, a7
            0x0074168e      1ebc0001       move.b 0x1, (a7)
            0x00741692      3f3c0400       move.w 0x400, -(a7)
            0x00741696      2f2c0074       move.l 0x74(a4), -(a7)
            0x0074169a      2f2c0044       move.l 0x44(a4), -(a7)
            0x0074169e      4ebaf87c       jsr MENUEFFECTCOM.make_lut(pc)
            0x007416a2      dec4           adda.w d4, a7
            0x007416a4      1e86           move.b d6, (a7)
            0x007416a6      3f3c0500       move.w 0x500, -(a7)
            0x007416aa      2f2c0080       move.l 0x80(a4), -(a7)
            0x007416ae      f2034000       fmove.l d3, fp0
            0x007416b2      f2276400       fmove.s fp0, -(a7)
            0x007416b6      4ebaf864       jsr MENUEFFECTCOM.make_lut(pc)
            0x007416ba      dec4           adda.w d4, a7
            0x007416bc      1e86           move.b d6, (a7)
            0x007416be      3f3c0600       move.w 0x600, -(a7)
            0x007416c2      2f2c008c       move.l 0x8c(a4), -(a7)
            0x007416c6      f2034000       fmove.l d3, fp0
            0x007416ca      f2276400       fmove.s fp0, -(a7)
            0x007416ce      4ebaf84c       jsr MENUEFFECTCOM.make_lut(pc)
            0x007416d2      dec4           adda.w d4, a7
            0x007416d4      1ebc0001       move.b 0x1, (a7)
            0x007416d8      3f3c0800       move.w 0x800, -(a7)
            0x007416dc      2f2c0078       move.l 0x78(a4), -(a7)
            0x007416e0      2f2c0048       move.l 0x48(a4), -(a7)
            0x007416e4      4ebaf836       jsr MENUEFFECTCOM.make_lut(pc)
            0x007416e8      dec4           adda.w d4, a7
            0x007416ea      1e86           move.b d6, (a7)
            0x007416ec      3f3c0900       move.w 0x900, -(a7)
            0x007416f0      2f2c0084       move.l 0x84(a4), -(a7)
            0x007416f4      f2034000       fmove.l d3, fp0
            0x007416f8      f2276400       fmove.s fp0, -(a7)
            0x007416fc      4ebaf81e       jsr MENUEFFECTCOM.make_lut(pc)
            0x00741700      dec4           adda.w d4, a7
            0x00741702      1e86           move.b d6, (a7)
            0x00741704      3f3c0a00       move.w 0xa00, -(a7)
            0x00741708      2f2c0090       move.l 0x90(a4), -(a7)
            0x0074170c      f2034000       fmove.l d3, fp0
            0x00741710      f2276400       fmove.s fp0, -(a7)
            0x00741714      4ebaf806       jsr MENUEFFECTCOM.make_lut(pc)
            0x00741718      dec4           adda.w d4, a7
            0x0074171a      1e87           move.b d7, (a7)
            0x0074171c      3f3c0300       move.w 0x300, -(a7)
            0x00741720      f2034000       fmove.l d3, fp0
            0x00741724      f2276400       fmove.s fp0, -(a7)
            0x00741728      f2034000       fmove.l d3, fp0
            0x0074172c      f2276400       fmove.s fp0, -(a7)
            0x00741730      4ebaf7ea       jsr MENUEFFECTCOM.make_lut(pc)
            0x00741734      dec4           adda.w d4, a7
            0x00741736      1e87           move.b d7, (a7)
            0x00741738      3f3c0700       move.w 0x700, -(a7)
            0x0074173c      f2034000       fmove.l d3, fp0
            0x00741740      f2276400       fmove.s fp0, -(a7)
            0x00741744      f2034000       fmove.l d3, fp0
            0x00741748      f2276400       fmove.s fp0, -(a7)
            0x0074174c      4ebaf7ce       jsr MENUEFFECTCOM.make_lut(pc)
            0x00741750      dec4           adda.w d4, a7
            0x00741752      1e87           move.b d7, (a7)
            0x00741754      3f3c0b00       move.w 0xb00, -(a7)
            0x00741758      f2034000       fmove.l d3, fp0
            0x0074175c      f2276400       fmove.s fp0, -(a7)
            0x00741760      f2034000       fmove.l d3, fp0
            0x00741764      f2276400       fmove.s fp0, -(a7)
            0x00741768      4ebaf7b2       jsr MENUEFFECTCOM.make_lut(pc)
            0x0074176c      defc000c       adda.w 0xc, a7
            0x00741770      f21fd0e0       fmovem (a7)+, fp0-fp2
            0x00741774      4cdf0fff       movem.l (a7)+, d0-d7/a0-a3
            0x00741778      4e5e           unlk a6
            0x0074177a      4e75           rts
            ; CALL XREF from MENUEFFECTCOM.orig_colour @ 0x741abe
            ; CALL XREF from MENUEFFECTCOM.update_clip_fra @ 0x744f1e
            ; CALL XREF from MENUEFFECTCOM.after_buy @ 0x745a34
 500: MENUEFFECTCOM.do_colour (int32_t arg_ch, int32_t arg_eh);
           ; arg int32_t arg_ch @ a6+0xc
           ; arg int32_t arg_eh @ a6+0xe
           0x0074177c      4e56ff24       link.w a6, 0xff24
           0x00741780      bfd5           cmpa.l (a5), a7
       < 0x00741782      6206           bhi.b 0x74178a
          0x00741784      44fc0002       move.w 0x2, ccr
          0x00741788      4e76           trapv
       > 0x0074178a      defc0048       adda.w 0x48, a7
           0x0074178e      48e7fef8       movem.l d0-d6/a0-a4, -(a7)
           0x00741792      43f900481472   lea.l MENUCOM.draw_box, a1
           0x00741798      45f90086bd08   lea.l 0x86bd08, a2
           0x0074179e      47f900869412   lea.l 0x869412, a3
           0x007417a4      7a03           moveq 0x3, d5
           0x007417a6      7c0a           moveq 0xa, d6
           0x007417a8      102e0010       move.b 0x10(a6), d0
           0x007417ac      4880           ext.w d0
           0x007417ae      013ac4e2       btst.l d0, 0x73dc92(pc)
       < 0x007417b2      6728           beq.b 0x7417dc
          0x007417b4      4ebacce6       jsr MENUEFFECTCOM.allocate_effect(pc)
          0x007417b8      1f3c0002       move.b 0x2, -(a7)
          0x007417bc      4227           clr.b -(a7)
          0x007417be      1f3c0004       move.b 0x4, -(a7)
          0x007417c2      2f390086940e   move.l 0x86940e, -(a7)
          0x007417c8      2f3900869416   move.l 0x869416, -(a7)
          0x007417ce      2f13           move.l (a3), -(a7)
          0x007417d0      4eb900522722   jsr BRUSHCOM.str_any_str_cop
          0x007417d6      defc0012       adda.w 0x12, a7
      < 0x007417da      6010           bra.b 0x7417ec
      > 0x007417dc      b005           cmp.b d5, d0
      < 0x007417de      6606           bne.b 0x7417e6
         0x007417e0      4412           neg.b (a2)
         0x007417e2      5212           addq.b 0x1, (a2)
     < 0x007417e4      6008           bra.b 0x7417ee
     > 0x007417e6      013ac4ac       btst.l d0, 0x73dc94(pc)
     < 0x007417ea      6702           beq.b 0x7417ee
     > 0x007417ec      4212           clr.b (a2)
     > 0x007417ee      013ac4a6       btst.l d0, 0x73dc96(pc)
       < 0x007417f2      673c           beq.b 0x741830
          0x007417f4      554f           subq.w 0x2, a7
          0x007417f6      3f3900869ac8   move.w 0x869ac8, -(a7)
          0x007417fc      4eb900480fc2   jsr MENUCOM.get_boxon
          0x00741802      544f           addq.w 0x2, a7
          0x00741804      4a1f           tst.b (a7)+
      < 0x00741806      6706           beq.b 0x74180e
         0x00741808      4ebaf51c       jsr MENUEFFECTCOM.do_col_poster(pc)
     < 0x0074180c      6022           bra.b 0x741830
     > 0x0074180e      554f           subq.w 0x2, a7
         0x00741810      3f3900869acc   move.w 0x869acc, -(a7)
         0x00741816      4eb900480fc2   jsr MENUCOM.get_boxon
         0x0074181c      544f           addq.w 0x2, a7
         0x0074181e      4a1f           tst.b (a7)+
     < 0x00741820      6706           beq.b 0x741828
        0x00741822      4ebaf614       jsr MENUEFFECTCOM.do_col_map(pc)
    < 0x00741826      6008           bra.b 0x741830
    > 0x00741828      49eeff6c       lea.l -0x94(a6), a4
        0x0074182c      4ebafb66       jsr MENUEFFECTCOM.do_col_knobs(pc)
    > 0x00741830      102e0010       move.b 0x10(a6), d0
           0x00741834      4880           ext.w d0
           0x00741836      013ac460       btst.l d0, 0x73dc98(pc)
       < 0x0074183a      675a           beq.b 0x741896
          0x0074183c      3f3900869ab2   move.w 0x869ab2, -(a7)
          0x00741842      4e91           jsr (a1)                    ; fcn.0000000a
          0x00741844      3eb900869ab0   move.w 0x869ab0, (a7)
          0x0074184a      4e91           jsr (a1)                    ; fcn.0000000a
          0x0074184c      3eb900869ab4   move.w 0x869ab4, (a7)
          0x00741852      4e91           jsr (a1)                    ; fcn.0000000a
          0x00741854      3eb900869ab6   move.w 0x869ab6, (a7)
          0x0074185a      4e91           jsr (a1)                    ; fcn.0000000a
          0x0074185c      3eb900869ab8   move.w 0x869ab8, (a7)
          0x00741862      4e91           jsr (a1)                    ; fcn.0000000a
          0x00741864      3eb900869aba   move.w 0x869aba, (a7)
          0x0074186a      4e91           jsr (a1)                    ; fcn.0000000a
          0x0074186c      3eb900869abc   move.w 0x869abc, (a7)
          0x00741872      4e91           jsr (a1)                    ; fcn.0000000a
          0x00741874      3eb900869abe   move.w 0x869abe, (a7)
          0x0074187a      4e91           jsr (a1)                    ; fcn.0000000a
          0x0074187c      3eb900869ac0   move.w 0x869ac0, (a7)
          0x00741882      4e91           jsr (a1)                    ; fcn.0000000a
          0x00741884      3eb900869ac2   move.w 0x869ac2, (a7)
          0x0074188a      4e91           jsr (a1)                    ; fcn.0000000a
          0x0074188c      3eb900869aca   move.w 0x869aca, (a7)
          0x00741892      4e91           jsr (a1)                    ; fcn.0000000a
          0x00741894      544f           addq.w 0x2, a7
       > 0x00741896      013ac402       btst.l d0, 0x73dc9a(pc)
       < 0x0074189a      670000be       beq.w 0x74195a
          0x0074189e      3213           move.w (a3), d1
          0x007418a0      48c1           ext.l d1
          0x007418a2      342e0008       move.w 0x8(a6), d2
          0x007418a6      48c2           ext.l d2
          0x007418a8      d282           add.l d2, d1
          0x007418aa      3d41ff6c       move.w d1, -0x94(a6)
          0x007418ae      323900869414   move.w 0x869414, d1
          0x007418b4      48c1           ext.l d1
          0x007418b6      362e000a       move.w 0xa(a6), d3
          0x007418ba      48c3           ext.l d3
          0x007418bc      d283           add.l d3, d1
          0x007418be      048100000080   subi.l 0x80, d1
          0x007418c4      3d41ff6e       move.w d1, -0x92(a6)
          0x007418c8      1212           move.b (a2), d1
          0x007418ca      4881           ext.w d1
          0x007418cc      41f9008693f2   lea.l 0x8693f2, a0
          0x007418d2      383015202918   move.w 0x2918(a0, d1.w * 4), d4
          0x007418d8      48c4           ext.l d4
          0x007418da      d882           add.l d2, d4
          0x007418dc      3d44ff70       move.w d4, -0x90(a6)
          0x007418e0      048300000080   subi.l 0x80, d3
          0x007418e6      34301520291a   move.w 0x291a(a0, d1.w * 4), d2
          0x007418ec      48c2           ext.l d2
          0x007418ee      d483           add.l d3, d2
          0x007418f0      3d42ff72       move.w d2, -0x8e(a6)
          0x007418f4      3d6e000cff74   move.w 0xc(a6), -0x8c(a6)
          0x007418fa      3d6e000eff76   move.w 0xe(a6), -0x8a(a6)
          0x00741900      1f05           move.b d5, -(a7)
          0x00741902      2f2eff74       move.l -0x8c(a6), -(a7)
          0x00741906      2f2eff70       move.l -0x90(a6), -(a7)
          0x0074190a      4eb9005223fc   jsr BRUSHCOM.str_write_area
          0x00741910      dec6           adda.w d6, a7
          0x00741912      41f900869ace   lea.l 0x869ace, a0
          0x00741918      2f08           move.l a0, -(a7)
          0x0074191a      1f05           move.b d5, -(a7)
          0x0074191c      2f2eff6c       move.l -0x94(a6), -(a7)
          0x00741920      2f2eff74       move.l -0x8c(a6), -(a7)
          0x00741924      2f2eff70       move.l -0x90(a6), -(a7)
          0x00741928      4eb90052acbe   jsr BRUSH2COM.br_fettle
          0x0074192e      defc000e       adda.w 0xe, a7
          0x00741932      3eb900869aa8   move.w 0x869aa8, (a7)
          0x00741938      4eb900480fc2   jsr MENUCOM.get_boxon
          0x0074193e      544f           addq.w 0x2, a7
          0x00741940      4a1f           tst.b (a7)+
      < 0x00741942      6716           beq.b 0x74195a
         0x00741944      3f3ac356       move.w 0x73dc9c(pc), -(a7)
         0x00741948      514f           subq.w 0x8, a7
         0x0074194a      4227           clr.b -(a7)
         0x0074194c      4eb9006336ea   jsr HANDCOM.get_area
         0x00741952      544f           addq.w 0x2, a7
         0x00741954      4ebae238       jsr MENUEFFECTCOM.do_key(pc)
         0x00741958      dec6           adda.w d6, a7
      > 0x0074195a      013ac342       btst.l d0, 0x73dc9e(pc)
       < 0x0074195e      6708           beq.b 0x741968
          0x00741960      1f12           move.b (a2), -(a7)
          0x00741962      4ebaf29e       jsr MENUEFFECTCOM.colour_set_out(pc)
          0x00741966      544f           addq.w 0x2, a7
       > 0x00741968      4cdf1f7f       movem.l (a7)+, d0-d6/a0-a4
           0x0074196c      4e5e           unlk a6
           0x0074196e      4e75           rts
 70: MENUEFFECTCOM.set_default_val ();
           0x00741970      4e56ffe2       link.w a6, 0xffe2
           0x00741974      bfd5           cmpa.l (a5), a7
       < 0x00741976      6206           bhi.b 0x74197e
          0x00741978      44fc0002       move.w 0x2, ccr
          0x0074197c      4e76           trapv
       > 0x0074197e      defc0012       adda.w 0x12, a7
           0x00741982      3f2e0008       move.w 0x8(a6), -(a7)
           0x00741986      486efff4       pea.l -0xc(a6)
           0x0074198a      486efff8       pea.l -0x8(a6)
           0x0074198e      486efffc       pea.l -0x4(a6)
           0x00741992      4eb90048d944   jsr MENU2COM.get_limits_nume
           0x00741998      defc000c       adda.w 0xc, a7
           0x0074199c      3eae0008       move.w 0x8(a6), (a7)
           0x007419a0      2f2efff4       move.l -0xc(a6), -(a7)
           0x007419a4      4227           clr.b -(a7)
           0x007419a6      4227           clr.b -(a7)
           0x007419a8      4eb90048da84   jsr MENU2COM.set_numeric_val
           0x007419ae      defc000a       adda.w 0xa, a7
           0x007419b2      4e5e           unlk a6
           0x007419b4      4e75           rts
 296: MENUEFFECTCOM.orig_colour ();
           0x007419b6      4e56ffde       link.w a6, 0xffde
           0x007419ba      bfd5           cmpa.l (a5), a7
       < 0x007419bc      6206           bhi.b 0x7419c4
          0x007419be      44fc0002       move.w 0x2, ccr
          0x007419c2      4e76           trapv
       > 0x007419c4      defc0022       adda.w 0x22, a7
           0x007419c8      48e780e0       movem.l d0/a0-a2, -(a7)
           0x007419cc      41faffa2       lea.l MENUEFFECTCOM.set_default_val(pc), a0
           0x007419d0      43f900869ac6   lea.l 0x869ac6, a1
           0x007419d6      45f900869ac4   lea.l 0x869ac4, a2
           0x007419dc      422e0008       clr.b 0x8(a6)
           0x007419e0      302c000a       move.w 0xa(a4), d0
           0x007419e4      b052           cmp.w (a2), d0
       < 0x007419e6      670000ee       beq.w 0x741ad6
          0x007419ea      554f           subq.w 0x2, a7
          0x007419ec      3f12           move.w (a2), -(a7)
          0x007419ee      4eb900480fc2   jsr MENUCOM.get_boxon
          0x007419f4      544f           addq.w 0x2, a7
          0x007419f6      4a1f           tst.b (a7)+
      < 0x007419f8      670000dc       beq.w 0x741ad6
         0x007419fc      554f           subq.w 0x2, a7
         0x007419fe      4eb900482154   jsr MENUCOM.get_crnt_numeri
         0x00741a04      b05f           cmp.w (a7)+, d0
     < 0x00741a06      6616           bne.b 0x741a1e
        0x00741a08      554f           subq.w 0x2, a7
        0x00741a0a      3f00           move.w d0, -(a7)
        0x00741a0c      4eb900480fc2   jsr MENUCOM.get_boxon
        0x00741a12      544f           addq.w 0x2, a7
        0x00741a14      4a1f           tst.b (a7)+
    < 0x00741a16      6706           beq.b 0x741a1e
       0x00741a18      3f00           move.w d0, -(a7)
       0x00741a1a      4e90           jsr (a0)                    ; fcn.00000009
       0x00741a1c      544f           addq.w 0x2, a7
    > 0x00741a1e      b07900869aaa   cmp.w 0x869aaa, d0
     < 0x00741a24      6704           beq.b 0x741a2a
        0x00741a26      b051           cmp.w (a1), d0
    < 0x00741a28      6622           bne.b 0x741a4c
    > 0x00741a2a      3f3900869ab0   move.w 0x869ab0, -(a7)
        0x00741a30      4e90           jsr (a0)                    ; fcn.00000009
        0x00741a32      3eb900869ab2   move.w 0x869ab2, (a7)
        0x00741a38      4e90           jsr (a0)                    ; fcn.00000009
        0x00741a3a      3eb900869ab4   move.w 0x869ab4, (a7)
        0x00741a40      4e90           jsr (a0)                    ; fcn.00000009
        0x00741a42      3eb900869ab6   move.w 0x869ab6, (a7)
        0x00741a48      4e90           jsr (a0)                    ; fcn.00000009
        0x00741a4a      544f           addq.w 0x2, a7
    > 0x00741a4c      b07900869aac   cmp.w 0x869aac, d0
     < 0x00741a52      6704           beq.b 0x741a58
        0x00741a54      b051           cmp.w (a1), d0
    < 0x00741a56      661a           bne.b 0x741a72
    > 0x00741a58      3f3900869ab8   move.w 0x869ab8, -(a7)
        0x00741a5e      4e90           jsr (a0)                    ; fcn.00000009
        0x00741a60      3eb900869aba   move.w 0x869aba, (a7)
        0x00741a66      4e90           jsr (a0)                    ; fcn.00000009
        0x00741a68      3eb900869abc   move.w 0x869abc, (a7)
        0x00741a6e      4e90           jsr (a0)                    ; fcn.00000009
        0x00741a70      544f           addq.w 0x2, a7
    > 0x00741a72      b07900869aae   cmp.w 0x869aae, d0
     < 0x00741a78      6704           beq.b 0x741a7e
        0x00741a7a      b051           cmp.w (a1), d0
    < 0x00741a7c      661a           bne.b 0x741a98
    > 0x00741a7e      3f3900869abe   move.w 0x869abe, -(a7)
        0x00741a84      4e90           jsr (a0)                    ; fcn.00000009
        0x00741a86      3eb900869ac0   move.w 0x869ac0, (a7)
        0x00741a8c      4e90           jsr (a0)                    ; fcn.00000009
        0x00741a8e      3eb900869ac2   move.w 0x869ac2, (a7)
        0x00741a94      4e90           jsr (a0)                    ; fcn.00000009
        0x00741a96      544f           addq.w 0x2, a7
    > 0x00741a98      b07900869ac8   cmp.w 0x869ac8, d0
     < 0x00741a9e      6704           beq.b 0x741aa4
        0x00741aa0      b051           cmp.w (a1), d0
    < 0x00741aa2      660a           bne.b 0x741aae
    > 0x00741aa4      3f3900869aca   move.w 0x869aca, -(a7)
        0x00741aaa      4e90           jsr (a0)                    ; fcn.00000009
        0x00741aac      544f           addq.w 0x2, a7
    > 0x00741aae      1f3c0002       move.b 0x2, -(a7)
         0x00741ab2      514f           subq.w 0x8, a7
         0x00741ab4      4227           clr.b -(a7)
         0x00741ab6      4eb9006336ea   jsr HANDCOM.get_area
         0x00741abc      544f           addq.w 0x2, a7
         0x00741abe      4ebafcbc       jsr MENUEFFECTCOM.do_colour(pc)
         0x00741ac2      504f           addq.w 0x8, a7
         0x00741ac4      3e92           move.w (a2), (a7)
         0x00741ac6      4227           clr.b -(a7)
         0x00741ac8      4eb900483776   jsr MENUCOM.swtch_box
         0x00741ace      584f           addq.w 0x4, a7
         0x00741ad0      1d7c00010008   move.b 0x1, 0x8(a6)
      > 0x00741ad6      4cdf0701       movem.l (a7)+, d0/a0-a2
           0x00741ada      4e5e           unlk a6
           0x00741adc      4e75           rts
            ; CALL XREF from MENUEFFECTCOM.send_to_submenu @ 0x745ad6
 24: MENUEFFECTCOM.hit_colour ();
           0x00741ade      4e56ff9e       link.w a6, 0xff9e
           0x00741ae2      bfd5           cmpa.l (a5), a7
       < 0x00741ae4      6206           bhi.b 0x741aec
          0x00741ae6      44fc0002       move.w 0x2, ccr
          0x00741aea      4e76           trapv
       > 0x00741aec      defc0062       adda.w 0x62, a7
           0x00741af0      48e7fef8       movem.l d0-d6/a0-a4, -(a7)
           0x00741af4      f227e003       fmovem fp0-fp1, -(a7)
            0x00741af8      43ee000a       lea.l 0xa(a6), a1
            0x00741afc      45f9006336ea   lea.l HANDCOM.get_area, a2
            0x00741b02      47fafc78       lea.l MENUEFFECTCOM.do_colour(pc), a3
            0x00741b06      740a           moveq 0xa, d2
            0x00741b08      7602           moveq 0x2, d3
            0x00741b0a      781f           moveq 0x1f, d4
            0x00741b0c      7a11           moveq 0x11, d5
            0x00741b0e      7c04           moveq 0x4, d6
            0x00741b10      2079008693f4   movea.l 0x8693f4, a0
            0x00741b16      302e0008       move.w 0x8(a6), d0
            0x00741b1a      b045           cmp.w d5, d0
        < 0x00741b1c      6d12           blt.b 0x741b30
           0x00741b1e      b045           cmp.w d5, d0
       < 0x00741b20      67000242       beq.w 0x741d64
          0x00741b24      0c40001e       cmpi.w 0x1e, d0
      < 0x00741b28      670000e4       beq.w 0x741c0e
     < 0x00741b2c      60000250       bra.w 0x741d7e
     > 0x00741b30      0c400010       cmpi.w 0x10, d0
     < 0x00741b34      62000248       bhi.w 0x741d7e
        0x00741b38      d040           add.w d0, d0
        0x00741b3a      303b0006       move.w 0x741b42(pc, d0.w), d0
        0x00741b3e      4efb0002       jmp 0x741b42(pc, d0.w)
        0x00741b42      00cc0022       
        0x00741b43      cc00           and.b d0, d6
        0x00741b45      2201           move.l d1, d1
        0x00741b47      2a02           move.l d2, d5
        0x00741b49      3c00           move.w d0, d6
        0x00741b4b      be02           cmp.b d2, d7
        0x00741b4d      3c02           move.w d2, d6
        0x00741b4f      3c02           move.w d2, d6
        0x00741b51      3c02           move.w d2, d6
        0x00741b53      3c01           move.w d1, d6
        0x00741b55      9002           sub.b d2, d0
        0x00741b57      2201           move.l d1, d1
        0x00741b59      04010402       subi.b 0x2, d1
        0x00741b5d      3c02           move.w d2, d6
        0x00741b5f      3c02           move.w d2, d6
        0x00741b61      3c01           move.w d1, d6
        0x00741b63      9055           sub.w (a5), d0
        0x00741b65      4f3f3900       
        0x00741b66      3f3900869428   move.w 0x869428, -(a7)
        0x00741b6c      4eb900480fc2   jsr MENUCOM.get_boxon
        0x00741b72      544f           addq.w 0x2, a7
        0x00741b74      4a1f           tst.b (a7)+
    < 0x00741b76      670e           beq.b 0x741b86
       0x00741b78      3f3900869428   move.w 0x869428, -(a7)
       0x00741b7e      4eb9004836a4   jsr MENUCOM.push_box
       0x00741b84      544f           addq.w 0x2, a7
    > 0x00741b86      3011           move.w (a1), d0
        0x00741b88      b07900869aa6   cmp.w 0x869aa6, d0
    < 0x00741b8e      661e           bne.b 0x741bae
       0x00741b90      554f           subq.w 0x2, a7
       0x00741b92      3f04           move.w d4, -(a7)
       0x00741b94      4eb900480fc2   jsr MENUCOM.get_boxon
       0x00741b9a      544f           addq.w 0x2, a7
       0x00741b9c      4a1f           tst.b (a7)+
   < 0x00741b9e      670a           beq.b 0x741baa
      0x00741ba0      3f04           move.w d4, -(a7)
      0x00741ba2      4eb9004836a4   jsr MENUCOM.push_box
      0x00741ba8      544f           addq.w 0x2, a7
   > 0x00741baa      4227           clr.b -(a7)
   < 0x00741bac      6042           bra.b 0x741bf0
   > 0x00741bae      b07900869aa8   cmp.w 0x869aa8, d0
   < 0x00741bb4      6602           bne.b 0x741bb8
  < 0x00741bb6      6036           bra.b 0x741bee
  > 0x00741bb8      554f           subq.w 0x2, a7
      0x00741bba      284e           movea.l a6, a4
      0x00741bbc      4ebafdf8       jsr MENUEFFECTCOM.orig_colour(pc)
      0x00741bc0      4a1f           tst.b (a7)+
  < 0x00741bc2      6638           bne.b 0x741bfc
     0x00741bc4      3211           move.w (a1), d1
     0x00741bc6      b27900869aaa   cmp.w 0x869aaa, d1
  < 0x00741bcc      6720           beq.b 0x741bee
     0x00741bce      b27900869aae   cmp.w 0x869aae, d1
  < 0x00741bd4      6718           beq.b 0x741bee
     0x00741bd6      b27900869aac   cmp.w 0x869aac, d1
  < 0x00741bdc      6710           beq.b 0x741bee
     0x00741bde      b27900869ac8   cmp.w 0x869ac8, d1
  < 0x00741be4      6708           beq.b 0x741bee
     0x00741be6      b27900869acc   cmp.w 0x869acc, d1
  < 0x00741bec      660e           bne.b 0x741bfc
  > 0x00741bee      1f03           move.b d3, -(a7)
   > 0x00741bf0      514f           subq.w 0x8, a7
       0x00741bf2      4227           clr.b -(a7)
       0x00741bf4      4e92           jsr (a2)                    ; fcn.00000009+0x2
       0x00741bf6      544f           addq.w 0x2, a7
       0x00741bf8      4e93           jsr (a3)                    ; fcn.0000000c
       0x00741bfa      dec2           adda.w d2, a7
  > 0x00741bfc      60000180       bra.w 0x741d7e
       0x00741c00      554f           subq.w 0x2, a7
       0x00741c02      284e           movea.l a6, a4
       0x00741c04      4ebafdb0       jsr MENUEFFECTCOM.orig_colour(pc)
       0x00741c08      4a1f           tst.b (a7)+
   < 0x00741c0a      60000172       bra.w 0x741d7e
   > 0x00741c0e      3011           move.w (a1), d0
       0x00741c10      b07900869aa6   cmp.w 0x869aa6, d0
   < 0x00741c16      6608           bne.b 0x741c20
      0x00741c18      4eb900518f96   jsr OUTCOM.normal_set_out
  < 0x00741c1e      6022           bra.b 0x741c42
  > 0x00741c20      b07900869aa8   cmp.w 0x869aa8, d0
  < 0x00741c26      6610           bne.b 0x741c38
     0x00741c28      1f03           move.b d3, -(a7)
     0x00741c2a      514f           subq.w 0x8, a7
     0x00741c2c      4227           clr.b -(a7)
     0x00741c2e      4e92           jsr (a2)                    ; fcn.00000009+0x2
     0x00741c30      544f           addq.w 0x2, a7
     0x00741c32      4e93           jsr (a3)                    ; fcn.0000000c
     0x00741c34      dec2           adda.w d2, a7
  < 0x00741c36      600a           bra.b 0x741c42
  > 0x00741c38      554f           subq.w 0x2, a7
      0x00741c3a      284e           movea.l a6, a4
      0x00741c3c      4ebafd78       jsr MENUEFFECTCOM.orig_colour(pc)
      0x00741c40      4a1f           tst.b (a7)+
  < 0x00741c42      6000013a       bra.w 0x741d7e
      0x00741c46      554f           subq.w 0x2, a7
      0x00741c48      3f3900869acc   move.w 0x869acc, -(a7)
      0x00741c4e      4eb900480fc2   jsr MENUCOM.get_boxon
      0x00741c54      544f           addq.w 0x2, a7
      0x00741c56      4a1f           tst.b (a7)+
  < 0x00741c58      670e           beq.b 0x741c68
     0x00741c5a      1f03           move.b d3, -(a7)
     0x00741c5c      514f           subq.w 0x8, a7
     0x00741c5e      4227           clr.b -(a7)
     0x00741c60      4e92           jsr (a2)                    ; fcn.00000009+0x2
     0x00741c62      544f           addq.w 0x2, a7
     0x00741c64      4e93           jsr (a3)                    ; fcn.0000000c
     0x00741c66      dec2           adda.w d2, a7
  > 0x00741c68      60000114       bra.w 0x741d7e
      0x00741c6c      3011           move.w (a1), d0
      0x00741c6e      0c40000b       cmpi.w 0xb, d0
  < 0x00741c72      6608           bne.b 0x741c7c
     0x00741c74      4eb900518f96   jsr OUTCOM.normal_set_out
  < 0x00741c7a      6052           bra.b 0x741cce
  > 0x00741c7c      0c40000c       cmpi.w 0xc, d0
  < 0x00741c80      660e           bne.b 0x741c90
     0x00741c82      1f390086bd08   move.b 0x86bd08, -(a7)
  > 0x00741c88      4ebaef78       jsr MENUEFFECTCOM.colour_set_out(pc)
     0x00741c8c      544f           addq.w 0x2, a7
  < 0x00741c8e      603e           bra.b 0x741cce
  > 0x00741c90      0c400025       cmpi.w 0x25, d0
  < 0x00741c94      6706           beq.b 0x741c9c
     0x00741c96      0c400023       cmpi.w 0x23, d0
  < 0x00741c9a      6604           bne.b 0x741ca0
  > 0x00741c9c      4227           clr.b -(a7)
  < 0x00741c9e      6022           bra.b 0x741cc2
  > 0x00741ca0      0c40002c       cmpi.w 0x2c, d0
  < 0x00741ca4      670a           beq.b 0x741cb0
     0x00741ca6      b044           cmp.w d4, d0
  < 0x00741ca8      6706           beq.b 0x741cb0
     0x00741caa      0c40002d       cmpi.w 0x2d, d0
  < 0x00741cae      6604           bne.b 0x741cb4
  > 0x00741cb0      4227           clr.b -(a7)
  < 0x00741cb2      60d4           bra.b 0x741c88
  > 0x00741cb4      554f           subq.w 0x2, a7
     0x00741cb6      4eb900482154   jsr MENUCOM.get_crnt_numeri
     0x00741cbc      b05f           cmp.w (a7)+, d0
  < 0x00741cbe      660e           bne.b 0x741cce
     0x00741cc0      1f03           move.b d3, -(a7)
  > 0x00741cc2      514f           subq.w 0x8, a7
      0x00741cc4      4227           clr.b -(a7)
      0x00741cc6      4e92           jsr (a2)                    ; fcn.00000009+0x2
      0x00741cc8      544f           addq.w 0x2, a7
      0x00741cca      4e93           jsr (a3)                    ; fcn.0000000c
      0x00741ccc      dec2           adda.w d2, a7
  < 0x00741cce      600000ae       bra.w 0x741d7e
     0x00741cd2      554f           subq.w 0x2, a7
     0x00741cd4      4eb900482154   jsr MENUCOM.get_crnt_numeri
     0x00741cda      329f           move.w (a7)+, (a1)
  < 0x00741cdc      661a           bne.b 0x741cf8
     0x00741cde      554f           subq.w 0x2, a7
     0x00741ce0      3f3900869ac8   move.w 0x869ac8, -(a7)
     0x00741ce6      4eb900480fc2   jsr MENUCOM.get_boxon
     0x00741cec      544f           addq.w 0x2, a7
     0x00741cee      4a1f           tst.b (a7)+
  < 0x00741cf0      6706           beq.b 0x741cf8
     0x00741cf2      32b900869aca   move.w 0x869aca, (a1)
  > 0x00741cf8      4a51           tst.w (a1)
  < 0x00741cfa      6766           beq.b 0x741d62
     0x00741cfc      4eb90047b9c8   jsr CNTLCOM.update_cursor
     0x00741d02      1f06           move.b d6, -(a7)
     0x00741d04      514f           subq.w 0x8, a7
     0x00741d06      4227           clr.b -(a7)
     0x00741d08      4e92           jsr (a2)                    ; fcn.00000009+0x2
     0x00741d0a      544f           addq.w 0x2, a7
     0x00741d0c      4e93           jsr (a3)                    ; fcn.0000000c
     0x00741d0e      504f           addq.w 0x8, a7
     0x00741d10      3e91           move.w (a1), (a7)
     0x00741d12      30280012       move.w 0x12(a0), d0
     0x00741d16      48c0           ext.l d0
     0x00741d18      32280014       move.w 0x14(a0), d1
     0x00741d1c      48c1           ext.l d1
     0x00741d1e      4481           neg.l d1
     0x00741d20      d280           add.l d0, d1
     0x00741d22      f2014000       fmove.l d1, fp0
     0x00741d26      f23c40200000.  fdiv.l 0x32, fp0
     0x00741d2e      594f           subq.w 0x4, a7
     0x00741d30      3f11           move.w (a1), -(a7)
     0x00741d32      4eb90048d992   jsr MENU2COM.get_numeric_val
     0x00741d38      544f           addq.w 0x2, a7
     0x00741d3a      f2174480       fmove.s (a7), fp1
     0x00741d3e      f20000a2       fadd fp0, fp1
     0x00741d42      f2176480       fmove.s fp1, (a7)
     0x00741d46      4227           clr.b -(a7)
     0x00741d48      4227           clr.b -(a7)
     0x00741d4a      4eb90048da84   jsr MENU2COM.set_numeric_val
     0x00741d50      504f           addq.w 0x8, a7
     0x00741d52      1ebc0003       move.b 0x3, (a7)
     0x00741d56      514f           subq.w 0x8, a7
     0x00741d58      4227           clr.b -(a7)
     0x00741d5a      4e92           jsr (a2)                    ; fcn.00000009+0x2
     0x00741d5c      544f           addq.w 0x2, a7
     0x00741d5e      4e93           jsr (a3)                    ; fcn.0000000c
     0x00741d60      dec2           adda.w d2, a7
  > 0x00741d62      601a           bra.b 0x741d7e
  > 0x00741d64      4a390086bd08   tst.b 0x86bd08
  < 0x00741d6a      6704           beq.b 0x741d70
     0x00741d6c      1f03           move.b d3, -(a7)
  < 0x00741d6e      6002           bra.b 0x741d72
  > 0x00741d70      1f06           move.b d6, -(a7)
  > 0x00741d72      514f           subq.w 0x8, a7
      0x00741d74      4227           clr.b -(a7)
      0x00741d76      4e92           jsr (a2)                    ; fcn.00000009+0x2
      0x00741d78      544f           addq.w 0x2, a7
      0x00741d7a      4e93           jsr (a3)                    ; fcn.0000000c
      0x00741d7c      dec2           adda.w d2, a7
  > 0x00741d7e      f21fd0c0       fmovem (a7)+, fp0-fp1
            0x00741d82      4cdf1f7f       movem.l (a7)+, d0-d6/a0-a4
            0x00741d86      4e5e           unlk a6
            0x00741d88      4e75           rts
            ; CALL XREF from MENUEFFECTCOM.do_blur @ 0x7423c8
 198: MENUEFFECTCOM.blur_set_out ();
           0x00741d8a      4e56ffe2       link.w a6, 0xffe2
           0x00741d8e      bfd5           cmpa.l (a5), a7
       < 0x00741d90      6206           bhi.b 0x741d98
          0x00741d92      44fc0002       move.w 0x2, ccr
          0x00741d96      4e76           trapv
       > 0x00741d98      defc001e       adda.w 0x1e, a7
           0x00741d9c      48e7c0c0       movem.l d0-d1/a0-a1, -(a7)
           0x00741da0      43f9008693f2   lea.l 0x8693f2, a1
           0x00741da6      7203           moveq 0x3, d1
           0x00741da8      4eb90051f298   jsr BRUSHCOM.brush_wait
           0x00741dae      4eb900523cda   jsr BRUSHCOM.open_block
           0x00741db4      4a2e000a       tst.b 0xa(a6)
       < 0x00741db8      6708           beq.b 0x741dc2
          0x00741dba      4eb900518f96   jsr OUTCOM.normal_set_out
      < 0x00741dc0      603c           bra.b 0x741dfe
      > 0x00741dc2      554f           subq.w 0x2, a7
          0x00741dc4      3f3c001f       move.w 0x1f, -(a7)
          0x00741dc8      4eb900480fc2   jsr MENUCOM.get_boxon
          0x00741dce      544f           addq.w 0x2, a7
          0x00741dd0      4a1f           tst.b (a7)+
      < 0x00741dd2      6706           beq.b 0x741dda
         0x00741dd4      1f3c0028       move.b 0x28, -(a7)
     < 0x00741dd8      601c           bra.b 0x741df6
     > 0x00741dda      554f           subq.w 0x2, a7
         0x00741ddc      3f3c002c       move.w 0x2c, -(a7)
         0x00741de0      4eb900480fc2   jsr MENUCOM.get_boxon
         0x00741de6      544f           addq.w 0x2, a7
         0x00741de8      4a1f           tst.b (a7)+
     < 0x00741dea      6706           beq.b 0x741df2
        0x00741dec      1f3c0020       move.b 0x20, -(a7)
    < 0x00741df0      6004           bra.b 0x741df6
    > 0x00741df2      1f3c0001       move.b 0x1, -(a7)
    > 0x00741df6      4eb900518dd8   jsr OUTCOM.set_out
          0x00741dfc      544f           addq.w 0x2, a7
      > 0x00741dfe      1f01           move.b d1, -(a7)
           0x00741e00      102e0008       move.b 0x8(a6), d0
           0x00741e04      4880           ext.w d0
           0x00741e06      2049           movea.l a1, a0
           0x00741e08      2f3005202918   move.l 0x2918(a0, d0.w * 4), -(a7)
           0x00741e0e      4eb90051872e   jsr OUTCOM.set_scroll
           0x00741e14      584f           addq.w 0x4, a7
           0x00741e16      1e81           move.b d1, (a7)
           0x00741e18      102e0008       move.b 0x8(a6), d0
           0x00741e1c      4880           ext.w d0
           0x00741e1e      2049           movea.l a1, a0
           0x00741e20      2f3007202934   move.l 0x2934(a0, d0.w * 8), -(a7)
           0x00741e26      2f3007202930   move.l 0x2930(a0, d0.w * 8), -(a7)
           0x00741e2c      4eb900518a2a   jsr OUTCOM.set_video_crops
           0x00741e32      defc000a       adda.w 0xa, a7
           0x00741e36      4eb900523cf0   jsr BRUSHCOM.close_block
           0x00741e3c      48780001       pea.l 0x1
           0x00741e40      4eb900402e42   jsr p_Delay
           0x00741e46      584f           addq.w 0x4, a7
           0x00741e48      4cdf0303       movem.l (a7)+, d0-d1/a0-a1
           0x00741e4c      4e5e           unlk a6
           0x00741e4e      4e75           rts
 134: MENUEFFECTCOM.do_blur_stamp (int32_t arg_eh, int32_t arg_20h, int32_t arg_22h);
           ; arg int32_t arg_eh @ a6+0xe
           ; arg int32_t arg_20h @ a6+0x20
           ; arg int32_t arg_22h @ a6+0x22
           0x00741e50      4e56ffcc       link.w a6, 0xffcc
           0x00741e54      bfd5           cmpa.l (a5), a7
       < 0x00741e56      6206           bhi.b 0x741e5e
          0x00741e58      44fc0002       move.w 0x2, ccr
          0x00741e5c      4e76           trapv
       > 0x00741e5e      defc002c       adda.w 0x2c, a7
           0x00741e62      48e7c0c0       movem.l d0-d1/a0-a1, -(a7)
           0x00741e66      43ee000e       lea.l 0xe(a6), a1
           0x00741e6a      3011           move.w (a1), d0
           0x00741e6c      48c0           ext.l d0
           0x00741e6e      322e000a       move.w 0xa(a6), d1
           0x00741e72      48c1           ext.l d1
           0x00741e74      d280           add.l d0, d1
           0x00741e76      3d41fff8       move.w d1, -0x8(a6)
           0x00741e7a      302e0010       move.w 0x10(a6), d0
           0x00741e7e      48c0           ext.l d0
           0x00741e80      322e0008       move.w 0x8(a6), d1
           0x00741e84      48c1           ext.l d1
           0x00741e86      d280           add.l d0, d1
           0x00741e88      3d41fffa       move.w d1, -0x6(a6)
           0x00741e8c      2054           movea.l (a4), a0
           0x00741e8e      3d680020fffc   move.w 0x20(a0), -0x4(a6)
           0x00741e94      3d680022fffe   move.w 0x22(a0), -0x2(a6)
           0x00741e9a      32a8000c       move.w 0xc(a0), (a1)
           0x00741e9e      3d68000e0010   move.w 0xe(a0), 0x10(a6)
           0x00741ea4      302c0018       move.w 0x18(a4), d0
           0x00741ea8      48c0           ext.l d0
           0x00741eaa      81ee000c       divs.w 0xc(a6), d0
           0x00741eae      48c0           ext.l d0
           0x00741eb0      4227           clr.b -(a7)
           0x00741eb2      1f3c0003       move.b 0x3, -(a7)
           0x00741eb6      4227           clr.b -(a7)
           0x00741eb8      3f00           move.w d0, -(a7)
           0x00741eba      2f11           move.l (a1), -(a7)
           0x00741ebc      2f2efffc       move.l -0x4(a6), -(a7)
           0x00741ec0      2f2efff8       move.l -0x8(a6), -(a7)
           0x00741ec4      4eb900523258   jsr BRUSHCOM.br_mix
           0x00741eca      defc0014       adda.w 0x14, a7
           0x00741ece      4cdf0303       movem.l (a7)+, d0-d1/a0-a1
           0x00741ed2      4e5e           unlk a6
           0x00741ed4      4e75           rts
            ; CALL XREF from MENUEFFECTCOM.do_blur @ 0x742328
 24: MENUEFFECTCOM.blur ();
           0x00741ed6      4e56ff94       link.w a6, 0xff94
           0x00741eda      bfd5           cmpa.l (a5), a7
       < 0x00741edc      6206           bhi.b 0x741ee4
          0x00741ede      44fc0002       move.w 0x2, ccr
          0x00741ee2      4e76           trapv
       > 0x00741ee4      defc0056       adda.w 0x56, a7
           0x00741ee8      48e7fff8       movem.l d0-d7/a0-a4, -(a7)
           0x00741eec      f227e001       fmovem fp0, -(a7)
            0x00741ef0      45f90086bd08   lea.l 0x86bd08, a2
            0x00741ef6      47f9008693f2   lea.l 0x8693f2, a3
            0x00741efc      7603           moveq 0x3, d3
            0x00741efe      7812           moveq 0x12, d4
            0x00741f00      7a0a           moveq 0xa, d5
            0x00741f02      1012           move.b (a2), d0
            0x00741f04      4880           ext.w d0
            0x00741f06      204b           movea.l a3, a0
            0x00741f08      322c001c       move.w 0x1c(a4), d1
            0x00741f0c      48c1           ext.l d1
            0x00741f0e      343005202918   move.w 0x2918(a0, d0.w * 4), d2
            0x00741f14      48c2           ext.l d2
            0x00741f16      d481           add.l d1, d2
            0x00741f18      3d42fff4       move.w d2, -0xc(a6)
            0x00741f1c      322c001e       move.w 0x1e(a4), d1
            0x00741f20      48c1           ext.l d1
            0x00741f22      048100000080   subi.l 0x80, d1
            0x00741f28      34300520291a   move.w 0x291a(a0, d0.w * 4), d2
            0x00741f2e      48c2           ext.l d2
            0x00741f30      d481           add.l d1, d2
            0x00741f32      3d42fff6       move.w d2, -0xa(a6)
            0x00741f36      3d6efff4ffec   move.w -0xc(a6), -0x14(a6)
            0x00741f3c      3d42ffee       move.w d2, -0x12(a6)
            0x00741f40      3d6c0020fff0   move.w 0x20(a4), -0x10(a6)
            0x00741f46      3d6c0022fff2   move.w 0x22(a4), -0xe(a6)
            0x00741f4c      1f03           move.b d3, -(a7)
            0x00741f4e      4227           clr.b -(a7)
            0x00741f50      4227           clr.b -(a7)
            0x00741f52      2f2efff4       move.l -0xc(a6), -(a7)
            0x00741f56      2f2c0010       move.l 0x10(a4), -(a7)
            0x00741f5a      2f2c000c       move.l 0xc(a4), -(a7)
            0x00741f5e      4eb900522722   jsr BRUSHCOM.str_any_str_cop
            0x00741f64      dec4           adda.w d4, a7
            0x00741f66      7e01           moveq 0x1, d7
        > 0x00741f68      48c7           ext.l d7
           0x00741f6a      f22e44000008   fmove.s 0x8(a6), fp0
           0x00741f70      f2074028       fsub.l d7, fp0
           0x00741f74      f23c40380000.  fcmp.l 0x0, fp0
           0x00741f7c      f29c000a       fbf.w 0x741f88
           0x00741f80      3d7c4000fffe   move.w 0x4000, -0x2(a6)
       < 0x00741f86      6030           bra.b 0x741fb8
          0x00741f88      594f           subq.w 0x4, a7
          0x00741f8a      f23c40000000.  fmove.l 0x1, fp0
          0x00741f92      f22e44220008   fadd.s 0x8(a6), fp0
          0x00741f98      f2074028       fsub.l d7, fp0
          0x00741f9c      f23c40230000.  fmul.l 0x4000, fp0
          0x00741fa4      f2276400       fmove.s fp0, -(a7)
          0x00741fa8      4eb9004081d2   jsr p_round
          0x00741fae      584f           addq.w 0x4, a7
          0x00741fb0      3d6f0002fffe   move.w 0x2(a7), -0x2(a6)
          0x00741fb6      584f           addq.w 0x4, a7
       > 0x00741fb8      1f03           move.b d3, -(a7)
           0x00741fba      2f2efff0       move.l -0x10(a6), -(a7)
           0x00741fbe      2f2effec       move.l -0x14(a6), -(a7)
           0x00741fc2      4eb9005223fc   jsr BRUSHCOM.str_write_area
           0x00741fc8      5c4f           addq.w 0x6, a7
           0x00741fca      2eaefff4       move.l -0xc(a6), (a7)
           0x00741fce      3f3c0002       move.w 0x2, -(a7)
           0x00741fd2      2007           move.l d7, d0
           0x00741fd4      4480           neg.l d0
           0x00741fd6      3f00           move.w d0, -(a7)
           0x00741fd8      4267           clr.w -(a7)
           0x00741fda      49eeffe6       lea.l -0x1a(a6), a4
           0x00741fde      4ebafe70       jsr MENUEFFECTCOM.do_blur_stamp(pc)
           0x00741fe2      dec5           adda.w d5, a7
           0x00741fe4      286effe6       movea.l -0x1a(a6), a4
           0x00741fe8      2f2efff4       move.l -0xc(a6), -(a7)
           0x00741fec      3f03           move.w d3, -(a7)
           0x00741fee      3f07           move.w d7, -(a7)
           0x00741ff0      4267           clr.w -(a7)
           0x00741ff2      49eeffe6       lea.l -0x1a(a6), a4
           0x00741ff6      4ebafe58       jsr MENUEFFECTCOM.do_blur_stamp(pc)
           0x00741ffa      dec5           adda.w d5, a7
           0x00741ffc      286effe6       movea.l -0x1a(a6), a4
           0x00742000      2f2efff4       move.l -0xc(a6), -(a7)
           0x00742004      3f3c0004       move.w 0x4, -(a7)
           0x00742008      4267           clr.w -(a7)
           0x0074200a      48c7           ext.l d7
           0x0074200c      2007           move.l d7, d0
           0x0074200e      4480           neg.l d0
           0x00742010      3f00           move.w d0, -(a7)
           0x00742012      49eeffe6       lea.l -0x1a(a6), a4
           0x00742016      4ebafe38       jsr MENUEFFECTCOM.do_blur_stamp(pc)
           0x0074201a      dec5           adda.w d5, a7
           0x0074201c      286effe6       movea.l -0x1a(a6), a4
           0x00742020      2f2efff4       move.l -0xc(a6), -(a7)
           0x00742024      3f3c0005       move.w 0x5, -(a7)
           0x00742028      4267           clr.w -(a7)
           0x0074202a      3f07           move.w d7, -(a7)
           0x0074202c      49eeffe6       lea.l -0x1a(a6), a4
           0x00742030      4ebafe1e       jsr MENUEFFECTCOM.do_blur_stamp(pc)
           0x00742034      dec5           adda.w d5, a7
           0x00742036      286effe6       movea.l -0x1a(a6), a4
           0x0074203a      48c7           ext.l d7
           0x0074203c      5287           addq.l 0x1, d7
           0x0074203e      7c00           moveq 0x0, d6
           0x00742040      48c7           ext.l d7
           0x00742042      f22e44000008   fmove.s 0x8(a6), fp0
           0x00742048      f2074028       fsub.l d7, fp0
           0x0074204c      f23c4038ffff.  fcmp.l 0xffffffff, fp0
           0x00742054      f29a0004       fbf.w 0x74205a
           0x00742058      5206           addq.b 0x1, d6
           0x0074205a      554f           subq.w 0x2, a7
           0x0074205c      3f3c001f       move.w 0x1f, -(a7)
           0x00742060      4eb900480fc2   jsr MENUCOM.get_boxon
           0x00742066      544f           addq.w 0x2, a7
           0x00742068      4a1f           tst.b (a7)+
       < 0x0074206a      674e           beq.b 0x7420ba
          0x0074206c      4a06           tst.b d6
      < 0x0074206e      6608           bne.b 0x742078
         0x00742070      102c0024       move.b 0x24(a4), d0
         0x00742074      b003           cmp.b d3, d0
     < 0x00742076      6642           bne.b 0x7420ba
     > 0x00742078      1f03           move.b d3, -(a7)
         0x0074207a      4227           clr.b -(a7)
         0x0074207c      4227           clr.b -(a7)
         0x0074207e      2f2efff4       move.l -0xc(a6), -(a7)
         0x00742082      2f2c0010       move.l 0x10(a4), -(a7)
         0x00742086      2f2c000c       move.l 0xc(a4), -(a7)
         0x0074208a      4eb900522722   jsr BRUSHCOM.str_any_str_cop
         0x00742090      dec4           adda.w d4, a7
         0x00742092      3d6c000cfff8   move.w 0xc(a4), -0x8(a6)
         0x00742098      3d6c000efffa   move.w 0xe(a4), -0x6(a6)
         0x0074209e      4227           clr.b -(a7)
         0x007420a0      1f03           move.b d3, -(a7)
         0x007420a2      1f3c0001       move.b 0x1, -(a7)
         0x007420a6      2f2efff8       move.l -0x8(a6), -(a7)
         0x007420aa      2f2efff0       move.l -0x10(a6), -(a7)
         0x007420ae      2f2effec       move.l -0x14(a6), -(a7)
         0x007420b2      4eb900522b76   jsr BRUSHCOM.br_plane_copy
     < 0x007420b8      601c           bra.b 0x7420d6
     > 0x007420ba      4a06           tst.b d6
      < 0x007420bc      661a           bne.b 0x7420d8
         0x007420be      1f03           move.b d3, -(a7)
         0x007420c0      4227           clr.b -(a7)
         0x007420c2      4227           clr.b -(a7)
         0x007420c4      2f2efff4       move.l -0xc(a6), -(a7)
         0x007420c8      2f2c0010       move.l 0x10(a4), -(a7)
         0x007420cc      2f2c000c       move.l 0xc(a4), -(a7)
         0x007420d0      4eb900522722   jsr BRUSHCOM.str_any_str_cop
      > 0x007420d6      dec4           adda.w d4, a7
       > 0x007420d8      4a06           tst.b d6
       < 0x007420da      66000094       bne.w 0x742170
          0x007420de      102c0024       move.b 0x24(a4), d0
          0x007420e2      b003           cmp.b d3, d0
      < 0x007420e4      6600008a       bne.w 0x742170
         0x007420e8      1f03           move.b d3, -(a7)
         0x007420ea      1012           move.b (a2), d0
         0x007420ec      4400           neg.b d0
         0x007420ee      5200           addq.b 0x1, d0
         0x007420f0      4880           ext.w d0
         0x007420f2      204b           movea.l a3, a0
         0x007420f4      2f3007202934   move.l 0x2934(a0, d0.w * 8), -(a7)
         0x007420fa      2f3007202930   move.l 0x2930(a0, d0.w * 8), -(a7)
         0x00742100      4eb9005223fc   jsr BRUSHCOM.str_write_area
         0x00742106      504f           addq.w 0x8, a7
         0x00742108      1e83           move.b d3, (a7)
         0x0074210a      1f03           move.b d3, -(a7)
         0x0074210c      1f3c0004       move.b 0x4, -(a7)
         0x00742110      1012           move.b (a2), d0
         0x00742112      4880           ext.w d0
         0x00742114      204b           movea.l a3, a0
         0x00742116      2f3005202918   move.l 0x2918(a0, d0.w * 4), -(a7)
         0x0074211c      1012           move.b (a2), d0
         0x0074211e      4400           neg.b d0
         0x00742120      5200           addq.b 0x1, d0
         0x00742122      4880           ext.w d0
         0x00742124      204b           movea.l a3, a0
         0x00742126      2f3007202934   move.l 0x2934(a0, d0.w * 8), -(a7)
         0x0074212c      2f3007202930   move.l 0x2930(a0, d0.w * 8), -(a7)
         0x00742132      4eb900522722   jsr BRUSHCOM.str_any_str_cop
         0x00742138      dec4           adda.w d4, a7
         0x0074213a      1012           move.b (a2), d0
         0x0074213c      4400           neg.b d0
         0x0074213e      5200           addq.b 0x1, d0
         0x00742140      4880           ext.w d0
         0x00742142      204b           movea.l a3, a0
         0x00742144      1212           move.b (a2), d1
         0x00742146      4401           neg.b d1
         0x00742148      5201           addq.b 0x1, d1
         0x0074214a      4881           ext.w d1
         0x0074214c      224b           movea.l a3, a1
         0x0074214e      21b117202930.  move.l 0x2930(a1, d1.w * 8), 0x2920(a0, d0.w * 8)
         0x00742158      21b117202934.  move.l 0x2934(a1, d1.w * 8), 0x2924(a0, d0.w * 8)
         0x00742162      4227           clr.b -(a7)
         0x00742164      1f12           move.b (a2), -(a7)
         0x00742166      4417           neg.b (a7)
         0x00742168      5217           addq.b 0x1, (a7)
         0x0074216a      4ebafc1e       jsr MENUEFFECTCOM.blur_set_out(pc)
         0x0074216e      584f           addq.w 0x4, a7
      > 0x00742170      4a06           tst.b d6
        < 0x00742172      6700fdf4       beq.w 0x741f68
            0x00742176      1012           move.b (a2), d0
            0x00742178      4880           ext.w d0
            0x0074217a      204b           movea.l a3, a0
            0x0074217c      21aeffec0720.  move.l -0x14(a6), 0x2920(a0, d0.w * 8)
            0x00742184      21aefff00720.  move.l -0x10(a6), 0x2924(a0, d0.w * 8)
            0x0074218c      f21fd080       fmovem (a7)+, fp0
            0x00742190      4cdf1fff       movem.l (a7)+, d0-d7/a0-a4
            0x00742194      4e5e           unlk a6
            0x00742196      4e75           rts
 574: MENUEFFECTCOM.do_blur (int32_t arg_ch, int32_t arg_eh);
           ; arg int32_t arg_ch @ a6+0xc
           ; arg int32_t arg_eh @ a6+0xe
           0x00742198      4e56ff9a       link.w a6, 0xff9a
           0x0074219c      bfd5           cmpa.l (a5), a7
       < 0x0074219e      6206           bhi.b 0x7421a6
          0x007421a0      44fc0002       move.w 0x2, ccr
          0x007421a4      4e76           trapv
       > 0x007421a6      defc0052       adda.w 0x52, a7
           0x007421aa      48e7fff8       movem.l d0-d7/a0-a4, -(a7)
           0x007421ae      45f90086bd08   lea.l 0x86bd08, a2
           0x007421b4      47f9008693f2   lea.l 0x8693f2, a3
           0x007421ba      7802           moveq 0x2, d4
           0x007421bc      7a01           moveq 0x1, d5
           0x007421be      7c03           moveq 0x3, d6
           0x007421c0      7e12           moveq 0x12, d7
           0x007421c2      4a6e000c       tst.w 0xc(a6)
       < 0x007421c6      6f000206       ble.w 0x7423ce
          0x007421ca      4a6e000e       tst.w 0xe(a6)
      < 0x007421ce      6f0001fe       ble.w 0x7423ce
         0x007421d2      102e0010       move.b 0x10(a6), d0
         0x007421d6      b004           cmp.b d4, d0
     < 0x007421d8      6608           bne.b 0x7421e2
        0x007421da      1f05           move.b d5, -(a7)
        0x007421dc      4227           clr.b -(a7)
    < 0x007421de      600001e8       bra.w 0x7423c8
    > 0x007421e2      b005           cmp.b d5, d0
    < 0x007421e4      6730           beq.b 0x742216
       0x007421e6      4212           clr.b (a2)
       0x007421e8      4ebac2b2       jsr MENUEFFECTCOM.allocate_effect(pc)
       0x007421ec      23f90086bd22.  move.l 0x86bd22, 0x86bd12.l
       0x007421f6      23f90086bd26.  move.l 0x86bd26, 0x86bd16.l
       0x00742200      23f90086bd2a.  move.l 0x86bd2a, 0x86bd1a.l
       0x0074220a      23f90086bd2e.  move.l 0x86bd2e, 0x86bd1e.l
   < 0x00742214      6004           bra.b 0x74221a
   > 0x00742216      4412           neg.b (a2)
       0x00742218      5212           addq.b 0x1, (a2)
   > 0x0074221a      1212           move.b (a2), d1
        0x0074221c      4881           ext.w d1
        0x0074221e      204b           movea.l a3, a0
        0x00742220      224b           movea.l a3, a1
        0x00742222      343017202920   move.w 0x2920(a0, d1.w * 8), d2
        0x00742228      48c2           ext.l d2
        0x0074222a      363115202918   move.w 0x2918(a1, d1.w * 4), d3
        0x00742230      48c3           ext.l d3
        0x00742232      4483           neg.l d3
        0x00742234      d682           add.l d2, d3
        0x00742236      3d43ffec       move.w d3, -0x14(a6)
        0x0074223a      343017202922   move.w 0x2922(a0, d1.w * 8), d2
        0x00742240      48c2           ext.l d2
        0x00742242      36311520291a   move.w 0x291a(a1, d1.w * 4), d3
        0x00742248      48c3           ext.l d3
        0x0074224a      4483           neg.l d3
        0x0074224c      d682           add.l d2, d3
        0x0074224e      068300000080   addi.l 0x80, d3
        0x00742254      3d43ffee       move.w d3, -0x12(a6)
        0x00742258      1f06           move.b d6, -(a7)
        0x0074225a      2f3017202924   move.l 0x2924(a0, d1.w * 8), -(a7)
        0x00742260      2f3017202920   move.l 0x2920(a0, d1.w * 8), -(a7)
        0x00742266      4eb9005223fc   jsr BRUSHCOM.str_write_area
        0x0074226c      504f           addq.w 0x8, a7
        0x0074226e      1e84           move.b d4, (a7)
        0x00742270      1f06           move.b d6, -(a7)
        0x00742272      1f3c0004       move.b 0x4, -(a7)
        0x00742276      2f2effec       move.l -0x14(a6), -(a7)
        0x0074227a      1212           move.b (a2), d1
        0x0074227c      4881           ext.w d1
        0x0074227e      204b           movea.l a3, a0
        0x00742280      2f3017202924   move.l 0x2924(a0, d1.w * 8), -(a7)
        0x00742286      2f3017202920   move.l 0x2920(a0, d1.w * 8), -(a7)
        0x0074228c      4eb900522722   jsr BRUSHCOM.str_any_str_cop
        0x00742292      dec7           adda.w d7, a7
        0x00742294      3d7900869412.  move.w 0x869412, -0x8(a6)
        0x0074229c      3d7900869414.  move.w 0x869414, -0x6(a6)
        0x007422a4      3d6e000cfffc   move.w 0xc(a6), -0x4(a6)
        0x007422aa      3d6e000efffe   move.w 0xe(a6), -0x2(a6)
        0x007422b0      554f           subq.w 0x2, a7
        0x007422b2      3f3c001f       move.w 0x1f, -(a7)
        0x007422b6      4eb900480fc2   jsr MENUCOM.get_boxon
        0x007422bc      544f           addq.w 0x2, a7
        0x007422be      4a1f           tst.b (a7)+
    < 0x007422c0      6752           beq.b 0x742314
       0x007422c2      1f04           move.b d4, -(a7)
       0x007422c4      4227           clr.b -(a7)
       0x007422c6      1f05           move.b d5, -(a7)
       0x007422c8      2f2effec       move.l -0x14(a6), -(a7)
       0x007422cc      2f3900869416   move.l 0x869416, -(a7)
       0x007422d2      2f3900869412   move.l 0x869412, -(a7)
       0x007422d8      4eb900522722   jsr BRUSHCOM.str_any_str_cop
       0x007422de      dec7           adda.w d7, a7
       0x007422e0      3d7900869412.  move.w 0x869412, -0x14(a6)
       0x007422e8      3d7900869414.  move.w 0x869414, -0x12(a6)
       0x007422f0      1f05           move.b d5, -(a7)
       0x007422f2      1f06           move.b d6, -(a7)
       0x007422f4      4227           clr.b -(a7)
       0x007422f6      2f2effec       move.l -0x14(a6), -(a7)
       0x007422fa      1212           move.b (a2), d1
       0x007422fc      4881           ext.w d1
       0x007422fe      204b           movea.l a3, a0
       0x00742300      2f3017202924   move.l 0x2924(a0, d1.w * 8), -(a7)
       0x00742306      2f3017202920   move.l 0x2920(a0, d1.w * 8), -(a7)
       0x0074230c      4eb900522b76   jsr BRUSHCOM.br_plane_copy
       0x00742312      dec7           adda.w d7, a7
    > 0x00742314      594f           subq.w 0x4, a7
        0x00742316      3f390086bbe8   move.w 0x86bbe8, -(a7)
        0x0074231c      4eb90048d992   jsr MENU2COM.get_numeric_val
        0x00742322      544f           addq.w 0x2, a7
        0x00742324      49eeffec       lea.l -0x14(a6), a4
        0x00742328      4ebafbac       jsr MENUEFFECTCOM.blur(pc)
        0x0074232c      584f           addq.w 0x4, a7
        0x0074232e      122e0010       move.b 0x10(a6), d1
        0x00742332      4881           ext.w d1
        0x00742334      033ab96a       btst.l d1, 0x73dca0(pc)
    < 0x00742338      6700008a       beq.w 0x7423c4
       0x0074233c      554f           subq.w 0x2, a7
       0x0074233e      3f3c002c       move.w 0x2c, -(a7)
       0x00742342      4eb900480fc2   jsr MENUCOM.get_boxon
       0x00742348      544f           addq.w 0x2, a7
       0x0074234a      4a1f           tst.b (a7)+
   < 0x0074234c      672e           beq.b 0x74237c
      0x0074234e      1f04           move.b d4, -(a7)
      0x00742350      4227           clr.b -(a7)
      0x00742352      1412           move.b (a2), d2
      0x00742354      4882           ext.w d2
      0x00742356      204b           movea.l a3, a0
      0x00742358      2f3027202934   move.l 0x2934(a0, d2.w * 8), -(a7)
      0x0074235e      2f3027202930   move.l 0x2930(a0, d2.w * 8), -(a7)
      0x00742364      2f390086bd0a   move.l 0x86bd0a, -(a7)
      0x0074236a      1f04           move.b d4, -(a7)
      0x0074236c      4227           clr.b -(a7)
      0x0074236e      4227           clr.b -(a7)
      0x00742370      4eb9005233f0   jsr BRUSHCOM.br_paste
      0x00742376      defc0016       adda.w 0x16, a7
  < 0x0074237a      6040           bra.b 0x7423bc
  > 0x0074237c      554f           subq.w 0x2, a7
      0x0074237e      3f3c001f       move.w 0x1f, -(a7)
      0x00742382      4eb900480fc2   jsr MENUCOM.get_boxon
      0x00742388      544f           addq.w 0x2, a7
      0x0074238a      4a1f           tst.b (a7)+
  < 0x0074238c      6708           beq.b 0x742396
     0x0074238e      1f06           move.b d6, -(a7)
     0x00742390      1f04           move.b d4, -(a7)
     0x00742392      1f05           move.b d5, -(a7)
 < 0x00742394      6006           bra.b 0x74239c
 > 0x00742396      1f06           move.b d6, -(a7)
     0x00742398      1f04           move.b d4, -(a7)
     0x0074239a      4227           clr.b -(a7)
 > 0x0074239c      1412           move.b (a2), d2
      0x0074239e      4882           ext.w d2
      0x007423a0      204b           movea.l a3, a0
      0x007423a2      2f3025202918   move.l 0x2918(a0, d2.w * 4), -(a7)
      0x007423a8      2f390086bd26   move.l 0x86bd26, -(a7)
      0x007423ae      2f390086bd22   move.l 0x86bd22, -(a7)
      0x007423b4      4eb900522722   jsr BRUSHCOM.str_any_str_cop
      0x007423ba      dec7           adda.w d7, a7
  > 0x007423bc      b206           cmp.b d6, d1
   < 0x007423be      660e           bne.b 0x7423ce
      0x007423c0      1f05           move.b d5, -(a7)
  < 0x007423c2      6002           bra.b 0x7423c6
  > 0x007423c4      4227           clr.b -(a7)
  > 0x007423c6      1f12           move.b (a2), -(a7)
   > 0x007423c8      4ebaf9c0       jsr MENUEFFECTCOM.blur_set_out(pc)
        0x007423cc      584f           addq.w 0x4, a7
   > 0x007423ce      4cdf1fff       movem.l (a7)+, d0-d7/a0-a4
           0x007423d2      4e5e           unlk a6
           0x007423d4      4e75           rts
            ; CALL XREF from MENUEFFECTCOM.do_grow @ 0x7429de
 150: MENUEFFECTCOM.grow_set_out ();
           0x007423d6      4e56ffe2       link.w a6, 0xffe2
           0x007423da      bfd5           cmpa.l (a5), a7
       < 0x007423dc      6206           bhi.b 0x7423e4
          0x007423de      44fc0002       move.w 0x2, ccr
          0x007423e2      4e76           trapv
       > 0x007423e4      defc001e       adda.w 0x1e, a7
           0x007423e8      48e7c0c0       movem.l d0-d1/a0-a1, -(a7)
           0x007423ec      43f9008693f2   lea.l 0x8693f2, a1
           0x007423f2      7203           moveq 0x3, d1
           0x007423f4      4eb90051f298   jsr BRUSHCOM.brush_wait
           0x007423fa      4eb900523cda   jsr BRUSHCOM.open_block
           0x00742400      4a2e000a       tst.b 0xa(a6)
       < 0x00742404      6708           beq.b 0x74240e
          0x00742406      4eb900518f96   jsr OUTCOM.normal_set_out
      < 0x0074240c      600c           bra.b 0x74241a
      > 0x0074240e      1f3c0028       move.b 0x28, -(a7)
          0x00742412      4eb900518dd8   jsr OUTCOM.set_out
          0x00742418      544f           addq.w 0x2, a7
      > 0x0074241a      1f01           move.b d1, -(a7)
           0x0074241c      102e0008       move.b 0x8(a6), d0
           0x00742420      4880           ext.w d0
           0x00742422      2049           movea.l a1, a0
           0x00742424      2f3005202918   move.l 0x2918(a0, d0.w * 4), -(a7)
           0x0074242a      4eb90051872e   jsr OUTCOM.set_scroll
           0x00742430      584f           addq.w 0x4, a7
           0x00742432      1e81           move.b d1, (a7)
           0x00742434      102e0008       move.b 0x8(a6), d0
           0x00742438      4880           ext.w d0
           0x0074243a      2049           movea.l a1, a0
           0x0074243c      2f3007202934   move.l 0x2934(a0, d0.w * 8), -(a7)
           0x00742442      2f3007202930   move.l 0x2930(a0, d0.w * 8), -(a7)
           0x00742448      4eb900518a2a   jsr OUTCOM.set_video_crops
           0x0074244e      defc000a       adda.w 0xa, a7
           0x00742452      4eb900523cf0   jsr BRUSHCOM.close_block
           0x00742458      48780001       pea.l 0x1
           0x0074245c      4eb900402e42   jsr p_Delay
           0x00742462      584f           addq.w 0x4, a7
           0x00742464      4cdf0303       movem.l (a7)+, d0-d1/a0-a1
           0x00742468      4e5e           unlk a6
           0x0074246a      4e75           rts
 24: MENUEFFECTCOM.do_grow_stamp ();
           0x0074246c      4e56ffaa       link.w a6, 0xffaa
           0x00742470      bfd5           cmpa.l (a5), a7
       < 0x00742472      6206           bhi.b 0x74247a
          0x00742474      44fc0002       move.w 0x2, ccr
          0x00742478      4e76           trapv
       > 0x0074247a      defc004e       adda.w 0x4e, a7
           0x0074247e      48e7f3f0       movem.l d0-d3/d6-d7/a0-a3, -(a7)
           0x00742482      f227e001       fmovem fp0, -(a7)
            0x00742486      43ee0008       lea.l 0x8(a6), a1
            0x0074248a      45eefff8       lea.l -0x8(a6), a2
            0x0074248e      47ee000a       lea.l 0xa(a6), a3
            0x00742492      7603           moveq 0x3, d3
            0x00742494      702c           moveq 0x2c, d0
            0x00742496      c1ee0010       muls.w 0x10(a6), d0
            0x0074249a      41fab806       lea.l 0x73dca2(pc), a0
            0x0074249e      3e3008d4       move.w -0x2c(a0, d0.l), d7
            0x007424a2      322e0012       move.w 0x12(a6), d1
            0x007424a6      48c1           ext.l d1
            0x007424a8      83c7           divs.w d7, d1
            0x007424aa      2401           move.l d1, d2
            0x007424ac      4842           swap d2
            0x007424ae      4a42           tst.w d2
        < 0x007424b0      6c02           bge.b 0x7424b4
           0x007424b2      d447           add.w d7, d2
        > 0x007424b4      3c02           move.w d2, d6
            0x007424b6      41fab7ea       lea.l 0x73dca2(pc), a0
            0x007424ba      41f00800       lea.l (a0, d0.l), a0
            0x007424be      24b064d6       move.l -0x2a(a0, d6.w), (a2)
            0x007424c2      48c1           ext.l d1
            0x007424c4      b283           cmp.l d3, d1
        < 0x007424c6      6278           bhi.b 0x742540
           0x007424c8      d241           add.w d1, d1
           0x007424ca      323b1006       move.w 0x7424d2(pc, d1.w), d1
           0x007424ce      4efb1002       jmp 0x7424d2(pc, d1.w)
           0x007424d2      00080024       
           0x007424d3      08002400       
           0x007424d4      0024003e       ori.b 0x3e, -(a4)
           0x007424d8      00563211       ori.w 0x3211, (a6)
           0x007424dc      48c1           ext.l d1
           0x007424de      3412           move.w (a2), d2
           0x007424e0      48c2           ext.l d2
           0x007424e2      d481           add.l d1, d2
           0x007424e4      3282           move.w d2, (a1)
           0x007424e6      3213           move.w (a3), d1
           0x007424e8      48c1           ext.l d1
           0x007424ea      342efffa       move.w -0x6(a6), d2
       > 0x007424ee      48c2           ext.l d2
      > 0x007424f0      d481           add.l d1, d2
         0x007424f2      3682           move.w d2, (a3)
     < 0x007424f4      604a           bra.b 0x742540
        0x007424f6      3211           move.w (a1), d1
        0x007424f8      48c1           ext.l d1
        0x007424fa      342efffa       move.w -0x6(a6), d2
        0x007424fe      48c2           ext.l d2
        0x00742500      d481           add.l d1, d2
        0x00742502      3282           move.w d2, (a1)
        0x00742504      3213           move.w (a3), d1
        0x00742506      48c1           ext.l d1
        0x00742508      3412           move.w (a2), d2
    > 0x0074250a      48c2           ext.l d2
       0x0074250c      4482           neg.l d2
    < 0x0074250e      60e0           bra.b 0x7424f0
        0x00742510      3211           move.w (a1), d1
        0x00742512      48c1           ext.l d1
        0x00742514      342efffa       move.w -0x6(a6), d2
        0x00742518      48c2           ext.l d2
        0x0074251a      4482           neg.l d2
        0x0074251c      d481           add.l d1, d2
        0x0074251e      3282           move.w d2, (a1)
        0x00742520      3213           move.w (a3), d1
        0x00742522      48c1           ext.l d1
        0x00742524      3412           move.w (a2), d2
     < 0x00742526      60c6           bra.b 0x7424ee
         0x00742528      3211           move.w (a1), d1
         0x0074252a      48c1           ext.l d1
         0x0074252c      3412           move.w (a2), d2
         0x0074252e      48c2           ext.l d2
         0x00742530      4482           neg.l d2
         0x00742532      d481           add.l d1, d2
         0x00742534      3282           move.w d2, (a1)
         0x00742536      3213           move.w (a3), d1
         0x00742538      48c1           ext.l d1
         0x0074253a      342efffa       move.w -0x6(a6), d2
    < 0x0074253e      60ca           bra.b 0x74250a
     > 0x00742540      5d4f           subq.w 0x6, a7
            0x00742542      41fab75e       lea.l 0x73dca2(pc), a0
            0x00742546      41f00800       lea.l (a0, d0.l), a0
            0x0074254a      303062f2       move.w -0xe(a0, d6.w), d0
            0x0074254e      48c0           ext.l d0
            0x00742550      f2004000       fmove.l d0, fp0
            0x00742554      f22e4423000c   fmul.s 0xc(a6), fp0
            0x0074255a      f2276400       fmove.s fp0, -(a7)
            0x0074255e      4eb9004081d2   jsr p_round
            0x00742564      584f           addq.w 0x4, a7
            0x00742566      3f6f00020004   move.w 0x2(a7), 0x4(a7)
            0x0074256c      584f           addq.w 0x4, a7
            0x0074256e      4eb900521034   jsr BRUSHCOM.br_pressure
            0x00742574      1e83           move.b d3, (a7)
            0x00742576      1f3c0001       move.b 0x1, -(a7)
            0x0074257a      4227           clr.b -(a7)
            0x0074257c      4227           clr.b -(a7)
            0x0074257e      4227           clr.b -(a7)
            0x00742580      2054           movea.l (a4), a0
            0x00742582      2f280010       move.l 0x10(a0), -(a7)
            0x00742586      2f28000c       move.l 0xc(a0), -(a7)
            0x0074258a      2f11           move.l (a1), -(a7)
            0x0074258c      4eb900522da0   jsr BRUSHCOM.br_any_stamp
            0x00742592      defc0016       adda.w 0x16, a7
            0x00742596      f21fd080       fmovem (a7)+, fp0
            0x0074259a      4cdf0fcf       movem.l (a7)+, d0-d3/d6-d7/a0-a3
            0x0074259e      4e5e           unlk a6
            0x007425a0      4e75           rts
            ; CALL XREF from MENUEFFECTCOM.do_grow @ 0x742998
 24: MENUEFFECTCOM.grow ();
           0x007425a2      4e56ff86       link.w a6, 0xff86
           0x007425a6      bfd5           cmpa.l (a5), a7
       < 0x007425a8      6206           bhi.b 0x7425b0
          0x007425aa      44fc0002       move.w 0x2, ccr
          0x007425ae      4e76           trapv
       > 0x007425b0      defc0064       adda.w 0x64, a7
           0x007425b4      48e7fff8       movem.l d0-d7/a0-a4, -(a7)
           0x007425b8      f227e081       fmovem fp0/fp7, -(a7)
            0x007425bc      45f90086bd08   lea.l 0x86bd08, a2
            0x007425c2      47f9008693f2   lea.l 0x8693f2, a3
            0x007425c8      7803           moveq 0x3, d4
            0x007425ca      7000           moveq 0x0, d0
            0x007425cc      f22e44000008   fmove.s 0x8(a6), fp0
            0x007425d2      f23c40380000.  fcmp.l 0x0, fp0
            0x007425da      f29b0004       fbf.w 0x7425e0
            0x007425de      5200           addq.b 0x1, d0
            0x007425e0      1d40fffb       move.b d0, -0x5(a6)
            0x007425e4      f22e44180008   fabs.s 0x8(a6), fp0
            0x007425ea      f22e64000008   fmove.s fp0, 0x8(a6)
            0x007425f0      1212           move.b (a2), d1
            0x007425f2      4881           ext.w d1
            0x007425f4      204b           movea.l a3, a0
            0x007425f6      342c001c       move.w 0x1c(a4), d2
            0x007425fa      48c2           ext.l d2
            0x007425fc      363015202918   move.w 0x2918(a0, d1.w * 4), d3
            0x00742602      48c3           ext.l d3
            0x00742604      d682           add.l d2, d3
            0x00742606      3d43fff2       move.w d3, -0xe(a6)
            0x0074260a      342c001e       move.w 0x1e(a4), d2
            0x0074260e      48c2           ext.l d2
            0x00742610      048200000080   subi.l 0x80, d2
            0x00742616      36301520291a   move.w 0x291a(a0, d1.w * 4), d3
            0x0074261c      48c3           ext.l d3
            0x0074261e      d682           add.l d2, d3
            0x00742620      3d43fff4       move.w d3, -0xc(a6)
            0x00742624      342efff2       move.w -0xe(a6), d2
            0x00742628      48c2           ext.l d2
            0x0074262a      5182           subq.l 0x8, d2
            0x0074262c      3d42ffea       move.w d2, -0x16(a6)
            0x00742630      48c3           ext.l d3
            0x00742632      5183           subq.l 0x8, d3
            0x00742634      3d43ffec       move.w d3, -0x14(a6)
            0x00742638      342c0020       move.w 0x20(a4), d2
            0x0074263c      48c2           ext.l d2
            0x0074263e      068200000010   addi.l 0x10, d2
            0x00742644      3d42ffee       move.w d2, -0x12(a6)
            0x00742648      342c0022       move.w 0x22(a4), d2
            0x0074264c      48c2           ext.l d2
            0x0074264e      068200000010   addi.l 0x10, d2
            0x00742654      3d42fff0       move.w d2, -0x10(a6)
            0x00742658      486effea       pea.l -0x16(a6)
            0x0074265c      204b           movea.l a3, a0
            0x0074265e      2f3017202934   move.l 0x2934(a0, d1.w * 8), -(a7)
            0x00742664      2f3017202930   move.l 0x2930(a0, d1.w * 8), -(a7)
            0x0074266a      4eb9006335e8   jsr HANDCOM.crop_to_area
            0x00742670      defc000a       adda.w 0xa, a7
            0x00742674      1e84           move.b d4, (a7)
            0x00742676      2f2effee       move.l -0x12(a6), -(a7)
            0x0074267a      2f2effea       move.l -0x16(a6), -(a7)
            0x0074267e      4eb9005223fc   jsr BRUSHCOM.str_write_area
            0x00742684      defc000a       adda.w 0xa, a7
            0x00742688      4a00           tst.b d0
        < 0x0074268a      6718           beq.b 0x7426a4
           0x0074268c      1f04           move.b d4, -(a7)
           0x0074268e      1f3c0001       move.b 0x1, -(a7)
           0x00742692      2f2effee       move.l -0x12(a6), -(a7)
           0x00742696      2f2effea       move.l -0x16(a6), -(a7)
           0x0074269a      4eb900522c10   jsr BRUSHCOM.str_invert
           0x007426a0      defc000c       adda.w 0xc, a7
        > 0x007426a4      1f04           move.b d4, -(a7)
            0x007426a6      4227           clr.b -(a7)
            0x007426a8      1f3c0004       move.b 0x4, -(a7)
            0x007426ac      2f2efff2       move.l -0xe(a6), -(a7)
            0x007426b0      2f2c0010       move.l 0x10(a4), -(a7)
            0x007426b4      2f2c000c       move.l 0xc(a4), -(a7)
            0x007426b8      4eb900522722   jsr BRUSHCOM.str_any_str_cop
            0x007426be      defc000e       adda.w 0xe, a7
            0x007426c2      2ebab2ea       move.l 0x73d9ae(pc), (a7)
            0x007426c6      3f3ab2e4       move.w 0x73d9ac(pc), -(a7)
            0x007426ca      4eb900520fa4   jsr BRUSHCOM.set_br_colour
            0x007426d0      5c4f           addq.w 0x6, a7
            0x007426d2      7e01           moveq 0x1, d7
        > 0x007426d4      48c7           ext.l d7
           0x007426d6      f22e44000008   fmove.s 0x8(a6), fp0
           0x007426dc      f2074028       fsub.l d7, fp0
           0x007426e0      f23c40380000.  fcmp.l 0x0, fp0
           0x007426e8      f29c000c       fbf.w 0x7426f6
           0x007426ec      f23c47803f80.  fmove.s 1, fp7
       < 0x007426f4      600c           bra.b 0x742702
          0x007426f6      f2000380       fmove fp0, fp7
          0x007426fa      f23c43a20000.  fadd.l 0x1, fp7
       > 0x00742702      1f04           move.b d4, -(a7)
           0x00742704      2f2effee       move.l -0x12(a6), -(a7)
           0x00742708      2f2effea       move.l -0x16(a6), -(a7)
           0x0074270c      4eb9005223fc   jsr BRUSHCOM.str_write_area
           0x00742712      defc000a       adda.w 0xa, a7
           0x00742716      702c           moveq 0x2c, d0
           0x00742718      4c070800       muls.l d7, d0
           0x0074271c      41fab584       lea.l 0x73dca2(pc), a0
           0x00742720      303008d4       move.w -0x2c(a0, d0.l), d0
           0x00742724      c1fc0004       muls.w 0x4, d0
           0x00742728      2f00           move.l d0, -(a7)
           0x0074272a      7c01           moveq 0x1, d6
       > 0x0074272c      bc6f0002       cmp.w 0x2(a7), d6
      < 0x00742730      6e26           bgt.b 0x742758
         0x00742732      48c6           ext.l d6
         0x00742734      2006           move.l d6, d0
         0x00742736      5380           subq.l 0x1, d0
         0x00742738      3f00           move.w d0, -(a7)
         0x0074273a      3f07           move.w d7, -(a7)
         0x0074273c      f2276780       fmove.s fp7, -(a7)
         0x00742740      2f2efff2       move.l -0xe(a6), -(a7)
         0x00742744      49eeffe6       lea.l -0x1a(a6), a4
         0x00742748      4ebafd22       jsr MENUEFFECTCOM.do_grow_stamp(pc)
         0x0074274c      defc000c       adda.w 0xc, a7
         0x00742750      286effe6       movea.l -0x1a(a6), a4
         0x00742754      5246           addq.w 0x1, d6
      < 0x00742756      68d4           bvc.b 0x74272c
      > 0x00742758      584f           addq.w 0x4, a7
           0x0074275a      48c7           ext.l d7
           0x0074275c      5287           addq.l 0x1, d7
           0x0074275e      7a00           moveq 0x0, d5
           0x00742760      48c7           ext.l d7
           0x00742762      f22e44000008   fmove.s 0x8(a6), fp0
           0x00742768      f2074028       fsub.l d7, fp0
           0x0074276c      f23c4038ffff.  fcmp.l 0xffffffff, fp0
           0x00742774      f29a0004       fbf.w 0x74277a
           0x00742778      5205           addq.b 0x1, d5
           0x0074277a      4a05           tst.b d5
       < 0x0074277c      66000096       bne.w 0x742814
          0x00742780      102c0024       move.b 0x24(a4), d0
          0x00742784      b004           cmp.b d4, d0
      < 0x00742786      6600008c       bne.w 0x742814
         0x0074278a      1f04           move.b d4, -(a7)
         0x0074278c      1012           move.b (a2), d0
         0x0074278e      4400           neg.b d0
         0x00742790      5200           addq.b 0x1, d0
         0x00742792      4880           ext.w d0
         0x00742794      204b           movea.l a3, a0
         0x00742796      2f3007202934   move.l 0x2934(a0, d0.w * 8), -(a7)
         0x0074279c      2f3007202930   move.l 0x2930(a0, d0.w * 8), -(a7)
         0x007427a2      4eb9005223fc   jsr BRUSHCOM.str_write_area
         0x007427a8      504f           addq.w 0x8, a7
         0x007427aa      1e84           move.b d4, (a7)
         0x007427ac      1f04           move.b d4, -(a7)
         0x007427ae      1f3c0004       move.b 0x4, -(a7)
         0x007427b2      1012           move.b (a2), d0
         0x007427b4      4880           ext.w d0
         0x007427b6      204b           movea.l a3, a0
         0x007427b8      2f3005202918   move.l 0x2918(a0, d0.w * 4), -(a7)
         0x007427be      1012           move.b (a2), d0
         0x007427c0      4400           neg.b d0
         0x007427c2      5200           addq.b 0x1, d0
         0x007427c4      4880           ext.w d0
         0x007427c6      204b           movea.l a3, a0
         0x007427c8      2f3007202934   move.l 0x2934(a0, d0.w * 8), -(a7)
         0x007427ce      2f3007202930   move.l 0x2930(a0, d0.w * 8), -(a7)
         0x007427d4      4eb900522722   jsr BRUSHCOM.str_any_str_cop
         0x007427da      defc0012       adda.w 0x12, a7
         0x007427de      1012           move.b (a2), d0
         0x007427e0      4400           neg.b d0
         0x007427e2      5200           addq.b 0x1, d0
         0x007427e4      4880           ext.w d0
         0x007427e6      204b           movea.l a3, a0
         0x007427e8      1212           move.b (a2), d1
         0x007427ea      4401           neg.b d1
         0x007427ec      5201           addq.b 0x1, d1
         0x007427ee      4881           ext.w d1
         0x007427f0      224b           movea.l a3, a1
         0x007427f2      21b117202930.  move.l 0x2930(a1, d1.w * 8), 0x2920(a0, d0.w * 8)
         0x007427fc      21b117202934.  move.l 0x2934(a1, d1.w * 8), 0x2924(a0, d0.w * 8)
         0x00742806      4227           clr.b -(a7)
         0x00742808      1f12           move.b (a2), -(a7)
         0x0074280a      4417           neg.b (a7)
         0x0074280c      5217           addq.b 0x1, (a7)
         0x0074280e      4ebafbc6       jsr MENUEFFECTCOM.grow_set_out(pc)
         0x00742812      584f           addq.w 0x4, a7
      > 0x00742814      4a05           tst.b d5
        < 0x00742816      6700febc       beq.w 0x7426d4
            0x0074281a      1f04           move.b d4, -(a7)
            0x0074281c      2f2effee       move.l -0x12(a6), -(a7)
            0x00742820      2f2effea       move.l -0x16(a6), -(a7)
            0x00742824      4eb9005223fc   jsr BRUSHCOM.str_write_area
            0x0074282a      defc000a       adda.w 0xa, a7
            0x0074282e      4a2efffb       tst.b -0x5(a6)
        < 0x00742832      6718           beq.b 0x74284c
           0x00742834      1f04           move.b d4, -(a7)
           0x00742836      1f3c0001       move.b 0x1, -(a7)
           0x0074283a      2f2effee       move.l -0x12(a6), -(a7)
           0x0074283e      2f2effea       move.l -0x16(a6), -(a7)
           0x00742842      4eb900522c10   jsr BRUSHCOM.str_invert
           0x00742848      defc000c       adda.w 0xc, a7
        > 0x0074284c      1012           move.b (a2), d0
            0x0074284e      4880           ext.w d0
            0x00742850      204b           movea.l a3, a0
            0x00742852      21aeffea0720.  move.l -0x16(a6), 0x2920(a0, d0.w * 8)
            0x0074285a      21aeffee0720.  move.l -0x12(a6), 0x2924(a0, d0.w * 8)
            0x00742862      f21fd081       fmovem (a7)+, fp0/fp7
            0x00742866      4cdf1fff       movem.l (a7)+, d0-d7/a0-a4
            0x0074286a      4e5e           unlk a6
            0x0074286c      4e75           rts
 382: MENUEFFECTCOM.do_grow (int32_t arg_ch, int32_t arg_eh);
           ; arg int32_t arg_ch @ a6+0xc
           ; arg int32_t arg_eh @ a6+0xe
           0x0074286e      4e56ffa2       link.w a6, 0xffa2
           0x00742872      bfd5           cmpa.l (a5), a7
       < 0x00742874      6206           bhi.b 0x74287c
          0x00742876      44fc0002       move.w 0x2, ccr
          0x0074287a      4e76           trapv
       > 0x0074287c      defc004a       adda.w 0x4a, a7
           0x00742880      48e7fef8       movem.l d0-d6/a0-a4, -(a7)
           0x00742884      45f90086bd08   lea.l 0x86bd08, a2
           0x0074288a      47f9008693f2   lea.l 0x8693f2, a3
           0x00742890      7801           moveq 0x1, d4
           0x00742892      7a03           moveq 0x3, d5
           0x00742894      7c02           moveq 0x2, d6
           0x00742896      4a6e000c       tst.w 0xc(a6)
       < 0x0074289a      6f000148       ble.w 0x7429e4
          0x0074289e      4a6e000e       tst.w 0xe(a6)
      < 0x007428a2      6f000140       ble.w 0x7429e4
         0x007428a6      102e0010       move.b 0x10(a6), d0
         0x007428aa      b006           cmp.b d6, d0
     < 0x007428ac      6608           bne.b 0x7428b6
        0x007428ae      1f04           move.b d4, -(a7)
        0x007428b0      4227           clr.b -(a7)
    < 0x007428b2      6000012a       bra.w 0x7429de
    > 0x007428b6      b004           cmp.b d4, d0
    < 0x007428b8      6730           beq.b 0x7428ea
       0x007428ba      4212           clr.b (a2)
       0x007428bc      4ebabbde       jsr MENUEFFECTCOM.allocate_effect(pc)
       0x007428c0      23f90086bd22.  move.l 0x86bd22, 0x86bd12.l
       0x007428ca      23f90086bd26.  move.l 0x86bd26, 0x86bd16.l
       0x007428d4      23f90086bd2a.  move.l 0x86bd2a, 0x86bd1a.l
       0x007428de      23f90086bd2e.  move.l 0x86bd2e, 0x86bd1e.l
   < 0x007428e8      6004           bra.b 0x7428ee
   > 0x007428ea      4412           neg.b (a2)
       0x007428ec      5212           addq.b 0x1, (a2)
   > 0x007428ee      3d7900869412.  move.w 0x869412, -0x8(a6)
        0x007428f6      3d7900869414.  move.w 0x869414, -0x6(a6)
        0x007428fe      3d6e000cfffc   move.w 0xc(a6), -0x4(a6)
        0x00742904      3d6e000efffe   move.w 0xe(a6), -0x2(a6)
        0x0074290a      1212           move.b (a2), d1
        0x0074290c      4881           ext.w d1
        0x0074290e      204b           movea.l a3, a0
        0x00742910      224b           movea.l a3, a1
        0x00742912      343017202920   move.w 0x2920(a0, d1.w * 8), d2
        0x00742918      48c2           ext.l d2
        0x0074291a      363115202918   move.w 0x2918(a1, d1.w * 4), d3
        0x00742920      48c3           ext.l d3
        0x00742922      4483           neg.l d3
        0x00742924      d682           add.l d2, d3
        0x00742926      3d43ffec       move.w d3, -0x14(a6)
        0x0074292a      343017202922   move.w 0x2922(a0, d1.w * 8), d2
        0x00742930      48c2           ext.l d2
        0x00742932      36311520291a   move.w 0x291a(a1, d1.w * 4), d3
        0x00742938      48c3           ext.l d3
        0x0074293a      4483           neg.l d3
        0x0074293c      d682           add.l d2, d3
        0x0074293e      068300000080   addi.l 0x80, d3
        0x00742944      3d43ffee       move.w d3, -0x12(a6)
        0x00742948      1f05           move.b d5, -(a7)
        0x0074294a      2f3017202924   move.l 0x2924(a0, d1.w * 8), -(a7)
        0x00742950      2f3017202920   move.l 0x2920(a0, d1.w * 8), -(a7)
        0x00742956      4eb9005223fc   jsr BRUSHCOM.str_write_area
        0x0074295c      504f           addq.w 0x8, a7
        0x0074295e      1e86           move.b d6, (a7)
        0x00742960      1f05           move.b d5, -(a7)
        0x00742962      1f3c0004       move.b 0x4, -(a7)
        0x00742966      2f2effec       move.l -0x14(a6), -(a7)
        0x0074296a      1212           move.b (a2), d1
        0x0074296c      4881           ext.w d1
        0x0074296e      204b           movea.l a3, a0
        0x00742970      2f3017202924   move.l 0x2924(a0, d1.w * 8), -(a7)
        0x00742976      2f3017202920   move.l 0x2920(a0, d1.w * 8), -(a7)
        0x0074297c      4eb900522722   jsr BRUSHCOM.str_any_str_cop
        0x00742982      defc000c       adda.w 0xc, a7
        0x00742986      3eb90086bbec   move.w 0x86bbec, (a7)
        0x0074298c      4eb90048d992   jsr MENU2COM.get_numeric_val
        0x00742992      544f           addq.w 0x2, a7
        0x00742994      49eeffec       lea.l -0x14(a6), a4
        0x00742998      4ebafc08       jsr MENUEFFECTCOM.grow(pc)
        0x0074299c      584f           addq.w 0x4, a7
        0x0074299e      122e0010       move.b 0x10(a6), d1
        0x007429a2      4881           ext.w d1
        0x007429a4      033ab3d8       btst.l d1, 0x73dd7e(pc)
    < 0x007429a8      6730           beq.b 0x7429da
       0x007429aa      1f05           move.b d5, -(a7)
       0x007429ac      1f06           move.b d6, -(a7)
       0x007429ae      1f04           move.b d4, -(a7)
       0x007429b0      1412           move.b (a2), d2
       0x007429b2      4882           ext.w d2
       0x007429b4      204b           movea.l a3, a0
       0x007429b6      2f3025202918   move.l 0x2918(a0, d2.w * 4), -(a7)
       0x007429bc      2f390086bd26   move.l 0x86bd26, -(a7)
       0x007429c2      2f390086bd22   move.l 0x86bd22, -(a7)
       0x007429c8      4eb900522722   jsr BRUSHCOM.str_any_str_cop
       0x007429ce      defc0012       adda.w 0x12, a7
       0x007429d2      b205           cmp.b d5, d1
   < 0x007429d4      660e           bne.b 0x7429e4
      0x007429d6      1f04           move.b d4, -(a7)
  < 0x007429d8      6002           bra.b 0x7429dc
  > 0x007429da      4227           clr.b -(a7)
  > 0x007429dc      1f12           move.b (a2), -(a7)
   > 0x007429de      4ebaf9f6       jsr MENUEFFECTCOM.grow_set_out(pc)
        0x007429e2      584f           addq.w 0x4, a7
   > 0x007429e4      4cdf1f7f       movem.l (a7)+, d0-d6/a0-a4
           0x007429e8      4e5e           unlk a6
           0x007429ea      4e75           rts
 174: MENUEFFECTCOM.realtime_area ();
           0x007429ec      4e56ffc6       link.w a6, 0xffc6
           0x007429f0      bfd5           cmpa.l (a5), a7
       < 0x007429f2      6206           bhi.b 0x7429fa
          0x007429f4      44fc0002       move.w 0x2, ccr
          0x007429f8      4e76           trapv
       > 0x007429fa      defc002a       adda.w 0x2a, a7
           0x007429fe      48e7c0f0       movem.l d0-d1/a0-a3, -(a7)
           0x00742a02      43eefff8       lea.l -0x8(a6), a1
           0x00742a06      45eefff0       lea.l -0x10(a6), a2
           0x00742a0a      47eefffc       lea.l -0x4(a6), a3
           0x00742a0e      7250           moveq 0x50, d1
           0x00742a10      2079008693f4   movea.l 0x8693f4, a0
           0x00742a16      24a80004       move.l 0x4(a0), (a2)
           0x00742a1a      4852           pea.l (a2)
           0x00742a1c      4eb9004ac46a   jsr MENUZOOMCOM.zoom_screen_pos
           0x00742a22      584f           addq.w 0x4, a7
           0x00742a24      3012           move.w (a2), d0
           0x00742a26      48c0           ext.l d0
           0x00742a28      81fc0040       divs.w 0x40, d0
           0x00742a2c      e740           asl.w 0x3, d0
           0x00742a2e      9041           sub.w d1, d0
           0x00742a30      3280           move.w d0, (a1)
           0x00742a32      302efff2       move.w -0xe(a6), d0
           0x00742a36      48c0           ext.l d0
           0x00742a38      81fc0020       divs.w 0x20, d0
           0x00742a3c      e540           asl.w 0x2, d0
           0x00742a3e      06400080       addi.w 0x80, d0
           0x00742a42      9041           sub.w d1, d0
           0x00742a44      3d40fffa       move.w d0, -0x6(a6)
           0x00742a48      36bc00a0       move.w 0xa0, (a3)
           0x00742a4c      3d7c00a0fffe   move.w 0xa0, -0x2(a6)
           0x00742a52      2d51fff4       move.l (a1), -0xc(a6)
           0x00742a56      302efff6       move.w -0xa(a6), d0
           0x00742a5a      48c0           ext.l d0
           0x00742a5c      048000000080   subi.l 0x80, d0
           0x00742a62      3d40fff6       move.w d0, -0xa(a6)
           0x00742a66      4851           pea.l (a1)
           0x00742a68      514f           subq.w 0x8, a7
           0x00742a6a      4227           clr.b -(a7)
           0x00742a6c      4eb9006336ea   jsr HANDCOM.get_area
           0x00742a72      544f           addq.w 0x2, a7
           0x00742a74      4eb9006335e8   jsr HANDCOM.crop_to_area
           0x00742a7a      defc000c       adda.w 0xc, a7
           0x00742a7e      2d510008       move.l (a1), 0x8(a6)
           0x00742a82      2d53000c       move.l (a3), 0xc(a6)
           0x00742a86      23d10086bc00   move.l (a1), 0x86bc00
           0x00742a8c      23d30086bc04   move.l (a3), 0x86bc04
           0x00742a92      4cdf0f03       movem.l (a7)+, d0-d1/a0-a3
           0x00742a96      4e5e           unlk a6
           0x00742a98      4e75           rts
            ; CALL XREF from MENUEFFECTCOM.send_to_submenu @ 0x745b4c
 24: MENUEFFECTCOM.hit_blur_grow ();
           0x00742a9a      4e56ffa0       link.w a6, 0xffa0
           0x00742a9e      bfd5           cmpa.l (a5), a7
       < 0x00742aa0      6206           bhi.b 0x742aa8
          0x00742aa2      44fc0002       move.w 0x2, ccr
          0x00742aa6      4e76           trapv
       > 0x00742aa8      defc0060       adda.w 0x60, a7
           0x00742aac      48e7fcf8       movem.l d0-d5/a0-a4, -(a7)
           0x00742ab0      f227e003       fmovem fp0-fp1, -(a7)
            0x00742ab4      43f90086bbe6   lea.l 0x86bbe6, a1
            0x00742aba      45f90086bbec   lea.l 0x86bbec, a2
            0x00742ac0      47f900480fc2   lea.l MENUCOM.get_boxon, a3
            0x00742ac6      49f9008693f2   lea.l 0x8693f2, a4
            0x00742acc      7401           moveq 0x1, d2
            0x00742ace      760a           moveq 0xa, d3
            0x00742ad0      7802           moveq 0x2, d4
            0x00742ad2      7a1f           moveq 0x1f, d5
            0x00742ad4      2079008693f4   movea.l 0x8693f4, a0
            0x00742ada      302e0008       move.w 0x8(a6), d0
            0x00742ade      5340           subq.w 0x1, d0
            0x00742ae0      0c400010       cmpi.w 0x10, d0
        < 0x00742ae4      62000284       bhi.w 0x742d6a
           0x00742ae8      d040           add.w d0, d0
           0x00742aea      303b0006       move.w 0x742af2(pc, d0.w), d0
           0x00742aee      4efb0002       jmp 0x742af2(pc, d0.w)
           0x00742af2      002201fe       ori.b 0xfe, -(a2)
           0x00742af6      027802780278   andi.w 0x278, 0x278.w
           0x00742afc      0278027800c6   andi.w 0x278, 0xc6.w
           0x00742b02      00fe01c6       
           0x00742b03      fe01c602       fmovem d1, fp1
           0x00742b07      7802           moveq 0x2, d4
           0x00742b09      7802           moveq 0x2, d4
           0x00742b0b      7802           moveq 0x2, d4
           0x00742b0d      7800           moveq 0x0, d4
           0x00742b0f      c600           and.b d0, d3
           0x00742b11      fe01c630       fmovem d1, fp4-fp5
           0x00742b15      2e00           move.l d0, d7
           0x00742b17      0ab0790086bb.  eori.l 0x790086bb, 0x67(a0, a6.l)
           0x00742b1f      04b05166284e.  subi.l 0x5166284e, -0x47(a0, a3.l)
           0x00742b27      761f           moveq 0x1f, d3
           0x00742b29      0442271f       subi.w 0x271f, d2
           0x00742b2d      3c00           move.w d0, d6
           0x00742b2f      042f39008694   subi.b 0x0, -0x796c(a7)
           0x00742b35      0e2f3900       
           0x00742b36      2f3900869416   move.l 0x869416, -(a7)
           0x00742b3c      2f3900869412   move.l 0x869412, -(a7)
           0x00742b42      4eb900522722   jsr BRUSHCOM.str_any_str_cop
           0x00742b48      defc0012       adda.w 0x12, a7
           0x00742b4c      554f           subq.w 0x2, a7
           0x00742b4e      3f3900869428   move.w 0x869428, -(a7)
           0x00742b54      4e93           jsr (a3)                    ; fcn.0000000c
           0x00742b56      544f           addq.w 0x2, a7
           0x00742b58      4a1f           tst.b (a7)+
       < 0x00742b5a      670e           beq.b 0x742b6a
          0x00742b5c      3f3900869428   move.w 0x869428, -(a7)
          0x00742b62      4eb9004836a4   jsr MENUCOM.push_box
          0x00742b68      544f           addq.w 0x2, a7
       > 0x00742b6a      b0790086bbee   cmp.w 0x86bbee, d0
       < 0x00742b70      6624           bne.b 0x742b96
          0x00742b72      3f12           move.w (a2), -(a7)
          0x00742b74      594f           subq.w 0x4, a7
          0x00742b76      3f12           move.w (a2), -(a7)
          0x00742b78      4eb90048d992   jsr MENU2COM.get_numeric_val
          0x00742b7e      544f           addq.w 0x2, a7
          0x00742b80      f217441a       fneg.s (a7), fp0
          0x00742b84      f2176400       fmove.s fp0, (a7)
          0x00742b88      4227           clr.b -(a7)
          0x00742b8a      1f02           move.b d2, -(a7)
          0x00742b8c      4eb90048da84   jsr MENU2COM.set_numeric_val
          0x00742b92      dec3           adda.w d3, a7
      < 0x00742b94      601e           bra.b 0x742bb4
      > 0x00742b96      b0790086bbea   cmp.w 0x86bbea, d0
      < 0x00742b9c      6616           bne.b 0x742bb4
         0x00742b9e      554f           subq.w 0x2, a7
         0x00742ba0      3f05           move.w d5, -(a7)
         0x00742ba2      4e93           jsr (a3)                    ; fcn.0000000c
         0x00742ba4      544f           addq.w 0x2, a7
         0x00742ba6      4a1f           tst.b (a7)+
     < 0x00742ba8      660a           bne.b 0x742bb4
        0x00742baa      3f05           move.w d5, -(a7)
        0x00742bac      4eb9004836a4   jsr MENUCOM.push_box
        0x00742bb2      544f           addq.w 0x2, a7
    > 0x00742bb4      600001b4       bra.w 0x742d6a
          0x00742bb8      4a14           tst.b (a4)
      < 0x00742bba      6630           bne.b 0x742bec
         0x00742bbc      4eb9004558e4   jsr CURSORCOM.cursor_off
         0x00742bc2      554f           subq.w 0x2, a7
         0x00742bc4      3f11           move.w (a1), -(a7)
         0x00742bc6      4e93           jsr (a3)                    ; fcn.0000000c
         0x00742bc8      544f           addq.w 0x2, a7
         0x00742bca      4a1f           tst.b (a7)+
     < 0x00742bcc      670e           beq.b 0x742bdc
        0x00742bce      4227           clr.b -(a7)
        0x00742bd0      514f           subq.w 0x8, a7
        0x00742bd2      4ebafe18       jsr MENUEFFECTCOM.realtime_area(pc)
        0x00742bd6      4ebaf5c0       jsr MENUEFFECTCOM.do_blur(pc)
    < 0x00742bda      600c           bra.b 0x742be8
    > 0x00742bdc      4227           clr.b -(a7)
        0x00742bde      514f           subq.w 0x8, a7
        0x00742be0      4ebafe0a       jsr MENUEFFECTCOM.realtime_area(pc)
        0x00742be4      4ebafc88       jsr MENUEFFECTCOM.do_grow(pc)
    > 0x00742be8      dec3           adda.w d3, a7
         0x00742bea      1882           move.b d2, (a4)
     > 0x00742bec      6000017c       bra.w 0x742d6a
         0x00742bf0      554f           subq.w 0x2, a7
         0x00742bf2      3f11           move.w (a1), -(a7)
         0x00742bf4      4e93           jsr (a3)                    ; fcn.0000000c
         0x00742bf6      544f           addq.w 0x2, a7
         0x00742bf8      4a1f           tst.b (a7)+
     < 0x00742bfa      6758           beq.b 0x742c54
        0x00742bfc      3f390086bbe8   move.w 0x86bbe8, -(a7)
        0x00742c02      30280012       move.w 0x12(a0), d0
        0x00742c06      48c0           ext.l d0
        0x00742c08      32280014       move.w 0x14(a0), d1
        0x00742c0c      48c1           ext.l d1
        0x00742c0e      4481           neg.l d1
        0x00742c10      d280           add.l d0, d1
        0x00742c12      f2014000       fmove.l d1, fp0
        0x00742c16      f23c40200000.  fdiv.l 0xc8, fp0
        0x00742c1e      594f           subq.w 0x4, a7
        0x00742c20      3f390086bbe8   move.w 0x86bbe8, -(a7)
        0x00742c26      4eb90048d992   jsr MENU2COM.get_numeric_val
        0x00742c2c      544f           addq.w 0x2, a7
        0x00742c2e      f2174480       fmove.s (a7), fp1
        0x00742c32      f20000a2       fadd fp0, fp1
        0x00742c36      f2176480       fmove.s fp1, (a7)
        0x00742c3a      4227           clr.b -(a7)
        0x00742c3c      1f02           move.b d2, -(a7)
        0x00742c3e      4eb90048da84   jsr MENU2COM.set_numeric_val
        0x00742c44      504f           addq.w 0x8, a7
        0x00742c46      1e82           move.b d2, (a7)
        0x00742c48      514f           subq.w 0x8, a7
        0x00742c4a      4ebafda0       jsr MENUEFFECTCOM.realtime_area(pc)
        0x00742c4e      4ebaf548       jsr MENUEFFECTCOM.do_blur(pc)
    < 0x00742c52      605e           bra.b 0x742cb2
    > 0x00742c54      554f           subq.w 0x2, a7
        0x00742c56      3f390086bbea   move.w 0x86bbea, -(a7)
        0x00742c5c      4e93           jsr (a3)                    ; fcn.0000000c
        0x00742c5e      544f           addq.w 0x2, a7
        0x00742c60      4a1f           tst.b (a7)+
    < 0x00742c62      6750           beq.b 0x742cb4
       0x00742c64      3f12           move.w (a2), -(a7)
       0x00742c66      30280012       move.w 0x12(a0), d0
       0x00742c6a      48c0           ext.l d0
       0x00742c6c      32280014       move.w 0x14(a0), d1
       0x00742c70      48c1           ext.l d1
       0x00742c72      4481           neg.l d1
       0x00742c74      d280           add.l d0, d1
       0x00742c76      f2014000       fmove.l d1, fp0
       0x00742c7a      f23c40200000.  fdiv.l 0x190, fp0
       0x00742c82      594f           subq.w 0x4, a7
       0x00742c84      3f12           move.w (a2), -(a7)
       0x00742c86      4eb90048d992   jsr MENU2COM.get_numeric_val
       0x00742c8c      544f           addq.w 0x2, a7
       0x00742c8e      f2174480       fmove.s (a7), fp1
       0x00742c92      f20000a2       fadd fp0, fp1
       0x00742c96      f2176480       fmove.s fp1, (a7)
       0x00742c9a      4227           clr.b -(a7)
       0x00742c9c      1f02           move.b d2, -(a7)
       0x00742c9e      4eb90048da84   jsr MENU2COM.set_numeric_val
       0x00742ca4      504f           addq.w 0x8, a7
       0x00742ca6      1e82           move.b d2, (a7)
       0x00742ca8      514f           subq.w 0x8, a7
       0x00742caa      4ebafd40       jsr MENUEFFECTCOM.realtime_area(pc)
       0x00742cae      4ebafbbe       jsr MENUEFFECTCOM.do_grow(pc)
    > 0x00742cb2      dec3           adda.w d3, a7
    > 0x00742cb4      600000b4       bra.w 0x742d6a
        0x00742cb8      554f           subq.w 0x2, a7
        0x00742cba      3f11           move.w (a1), -(a7)
        0x00742cbc      4e93           jsr (a3)                    ; fcn.0000000c
        0x00742cbe      544f           addq.w 0x2, a7
        0x00742cc0      4a1f           tst.b (a7)+
    < 0x00742cc2      6714           beq.b 0x742cd8
       0x00742cc4      1f04           move.b d4, -(a7)
       0x00742cc6      514f           subq.w 0x8, a7
       0x00742cc8      4227           clr.b -(a7)
       0x00742cca      4eb9006336ea   jsr HANDCOM.get_area
       0x00742cd0      544f           addq.w 0x2, a7
       0x00742cd2      4ebaf4c4       jsr MENUEFFECTCOM.do_blur(pc)
   < 0x00742cd6      6012           bra.b 0x742cea
   > 0x00742cd8      1f04           move.b d4, -(a7)
       0x00742cda      514f           subq.w 0x8, a7
       0x00742cdc      4227           clr.b -(a7)
       0x00742cde      4eb9006336ea   jsr HANDCOM.get_area
       0x00742ce4      544f           addq.w 0x2, a7
       0x00742ce6      4ebafb86       jsr MENUEFFECTCOM.do_grow(pc)
   > 0x00742cea      dec3           adda.w d3, a7
        0x00742cec      4214           clr.b (a4)
    < 0x00742cee      607a           bra.b 0x742d6a
       0x00742cf0      302e000a       move.w 0xa(a6), d0
       0x00742cf4      b0790086bbe8   cmp.w 0x86bbe8, d0
   < 0x00742cfa      6704           beq.b 0x742d00
      0x00742cfc      b052           cmp.w (a2), d0
  < 0x00742cfe      666a           bne.b 0x742d6a
  > 0x00742d00      554f           subq.w 0x2, a7
      0x00742d02      3f11           move.w (a1), -(a7)
      0x00742d04      4e93           jsr (a3)                    ; fcn.0000000c
      0x00742d06      544f           addq.w 0x2, a7
      0x00742d08      4a1f           tst.b (a7)+
  < 0x00742d0a      6714           beq.b 0x742d20
     0x00742d0c      4227           clr.b -(a7)
     0x00742d0e      2f390086bc04   move.l 0x86bc04, -(a7)
     0x00742d14      2f390086bc00   move.l 0x86bc00, -(a7)
     0x00742d1a      4ebaf47c       jsr MENUEFFECTCOM.do_blur(pc)
  < 0x00742d1e      6012           bra.b 0x742d32
  > 0x00742d20      4227           clr.b -(a7)
      0x00742d22      2f390086bc04   move.l 0x86bc04, -(a7)
      0x00742d28      2f390086bc00   move.l 0x86bc00, -(a7)
      0x00742d2e      4ebafb3e       jsr MENUEFFECTCOM.do_grow(pc)
  > 0x00742d32      dec3           adda.w d3, a7
      0x00742d34      554f           subq.w 0x2, a7
      0x00742d36      3f11           move.w (a1), -(a7)
      0x00742d38      4e93           jsr (a3)                    ; fcn.0000000c
      0x00742d3a      544f           addq.w 0x2, a7
      0x00742d3c      4a1f           tst.b (a7)+
  < 0x00742d3e      6714           beq.b 0x742d54
     0x00742d40      1f04           move.b d4, -(a7)
     0x00742d42      514f           subq.w 0x8, a7
     0x00742d44      4227           clr.b -(a7)
     0x00742d46      4eb9006336ea   jsr HANDCOM.get_area
     0x00742d4c      544f           addq.w 0x2, a7
     0x00742d4e      4ebaf448       jsr MENUEFFECTCOM.do_blur(pc)
  < 0x00742d52      6012           bra.b 0x742d66
  > 0x00742d54      1f04           move.b d4, -(a7)
      0x00742d56      514f           subq.w 0x8, a7
      0x00742d58      4227           clr.b -(a7)
      0x00742d5a      4eb9006336ea   jsr HANDCOM.get_area
      0x00742d60      544f           addq.w 0x2, a7
      0x00742d62      4ebafb0a       jsr MENUEFFECTCOM.do_grow(pc)
  > 0x00742d66      dec3           adda.w d3, a7
      0x00742d68      4214           clr.b (a4)
  > 0x00742d6a      f21fd0c0       fmovem (a7)+, fp0-fp1
            0x00742d6e      4cdf1f3f       movem.l (a7)+, d0-d5/a0-a4
            0x00742d72      4e5e           unlk a6
            0x00742d74      4e75           rts
 176: MENUEFFECTCOM.dots_set_out ();
           0x00742d76      4e56ffe2       link.w a6, 0xffe2
           0x00742d7a      bfd5           cmpa.l (a5), a7
       < 0x00742d7c      6206           bhi.b 0x742d84
          0x00742d7e      44fc0002       move.w 0x2, ccr
          0x00742d82      4e76           trapv
       > 0x00742d84      defc001e       adda.w 0x1e, a7
           0x00742d88      48e7c0c0       movem.l d0-d1/a0-a1, -(a7)
           0x00742d8c      43f9008693f2   lea.l 0x8693f2, a1
           0x00742d92      7203           moveq 0x3, d1
           0x00742d94      4eb90051f298   jsr BRUSHCOM.brush_wait
           0x00742d9a      4eb900523cda   jsr BRUSHCOM.open_block
           0x00742da0      554f           subq.w 0x2, a7
           0x00742da2      3f3900869428   move.w 0x869428, -(a7)
           0x00742da8      4eb900480fc2   jsr MENUCOM.get_boxon
           0x00742dae      544f           addq.w 0x2, a7
           0x00742db0      4a1f           tst.b (a7)+
       < 0x00742db2      6708           beq.b 0x742dbc
          0x00742db4      4eb900518f96   jsr OUTCOM.normal_set_out
      < 0x00742dba      6024           bra.b 0x742de0
      > 0x00742dbc      554f           subq.w 0x2, a7
          0x00742dbe      3f3c002c       move.w 0x2c, -(a7)
          0x00742dc2      4eb900480fc2   jsr MENUCOM.get_boxon
          0x00742dc8      544f           addq.w 0x2, a7
          0x00742dca      4a1f           tst.b (a7)+
      < 0x00742dcc      6706           beq.b 0x742dd4
         0x00742dce      1f3c0020       move.b 0x20, -(a7)
     < 0x00742dd2      6004           bra.b 0x742dd8
     > 0x00742dd4      1f3c0001       move.b 0x1, -(a7)
     > 0x00742dd8      4eb900518dd8   jsr OUTCOM.set_out
          0x00742dde      544f           addq.w 0x2, a7
      > 0x00742de0      1f01           move.b d1, -(a7)
           0x00742de2      102e0008       move.b 0x8(a6), d0
           0x00742de6      4880           ext.w d0
           0x00742de8      2049           movea.l a1, a0
           0x00742dea      2f3005202918   move.l 0x2918(a0, d0.w * 4), -(a7)
           0x00742df0      4eb90051872e   jsr OUTCOM.set_scroll
           0x00742df6      584f           addq.w 0x4, a7
           0x00742df8      1e81           move.b d1, (a7)
           0x00742dfa      102e0008       move.b 0x8(a6), d0
           0x00742dfe      4880           ext.w d0
           0x00742e00      2049           movea.l a1, a0
           0x00742e02      2f3007202934   move.l 0x2934(a0, d0.w * 8), -(a7)
           0x00742e08      2f3007202930   move.l 0x2930(a0, d0.w * 8), -(a7)
           0x00742e0e      4eb900518a2a   jsr OUTCOM.set_video_crops
           0x00742e14      defc000a       adda.w 0xa, a7
           0x00742e18      4eb900523cf0   jsr BRUSHCOM.close_block
           0x00742e1e      4cdf0303       movem.l (a7)+, d0-d1/a0-a1
           0x00742e22      4e5e           unlk a6
           0x00742e24      4e75           rts
 24: MENUEFFECTCOM.draw_dots ();
           0x00742e26      4e56ff4a       link.w a6, 0xff4a
           0x00742e2a      bfd5           cmpa.l (a5), a7
       < 0x00742e2c      6206           bhi.b 0x742e34
          0x00742e2e      44fc0002       move.w 0x2, ccr
          0x00742e32      4e76           trapv
       > 0x00742e34      defc0082       adda.w 0x82, a7
           0x00742e38      48e7fff8       movem.l d0-d7/a0-a4, -(a7)
           0x00742e3c      f227e0e1       fmovem fp0/fp5-fp7, -(a7)
            0x00742e40      47ee0022       lea.l 0x22(a6), a3
            0x00742e44      49eeffcc       lea.l -0x34(a6), a4
            0x00742e48      7801           moveq 0x1, d4
            0x00742e4a      422efff6       clr.b -0xa(a6)
            0x00742e4e      594f           subq.w 0x4, a7
            0x00742e50      f23c40000000.  fmove.l 0x168, fp0
            0x00742e58      f2134420       fdiv.s (a3), fp0
            0x00742e5c      f2276400       fmove.s fp0, -(a7)
            0x00742e60      4eb9004081f8   jsr p_trunc
            0x00742e66      584f           addq.w 0x4, a7
            0x00742e68      f2134680       fmove.s (a3), fp5
            0x00742e6c      f21f42a3       fmul.l (a7)+, fp5
            0x00742e70      f200169a       fneg fp5
            0x00742e74      f23c42a20000.  fadd.l 0x168, fp5
            0x00742e7c      2d6e0010fff8   move.l 0x10(a6), -0x8(a6)
            0x00742e82      2d6e0014fffc   move.l 0x14(a6), -0x4(a6)
            0x00742e88      3d44fffe       move.w d4, -0x2(a6)
            0x00742e8c      594f           subq.w 0x4, a7
            0x00742e8e      f23c40000000.  fmove.l 0x120, fp0
            0x00742e96      f2134420       fdiv.s (a3), fp0
            0x00742e9a      f2276400       fmove.s fp0, -(a7)
            0x00742e9e      4eb9004081f8   jsr p_trunc
            0x00742ea4      584f           addq.w 0x4, a7
            0x00742ea6      3e2f0002       move.w 0x2(a7), d7
            0x00742eaa      584f           addq.w 0x4, a7
            0x00742eac      48c7           ext.l d7
            0x00742eae      f2134700       fmove.s (a3), fp6
            0x00742eb2      f2074323       fmul.l d7, fp6
            0x00742eb6      f2001b1a       fneg fp6
            0x00742eba      f23c43220000.  fadd.l 0x120, fp6
            0x00742ec2      08070000       btst.b 0x0, d7
        < 0x00742ec6      670a           beq.b 0x742ed2
           0x00742ec8      4a2e0020       tst.b 0x20(a6)
       < 0x00742ecc      6704           beq.b 0x742ed2
          0x00742ece      1d44fff6       move.b d4, -0xa(a6)
       > 0x00742ed2      4eb90051f298   jsr BRUSHCOM.brush_wait
            0x00742ed8      1f3c0003       move.b 0x3, -(a7)
            0x00742edc      4227           clr.b -(a7)
            0x00742ede      4227           clr.b -(a7)
            0x00742ee0      4227           clr.b -(a7)
            0x00742ee2      1f04           move.b d4, -(a7)
            0x00742ee4      4eb900523ab6   jsr BRUSHCOM.set_stamp_mode
            0x00742eea      defc000a       adda.w 0xa, a7
            0x00742eee      206e001c       movea.l 0x1c(a6), a0
        > 0x00742ef2      f23c43380000.  fcmp.l 0x240, fp6
           0x00742efa      f29b0274       fbf.w 0x743170
           0x00742efe      594f           subq.w 0x4, a7
           0x00742f00      f2276700       fmove.s fp6, -(a7)
           0x00742f04      4eb9004081d2   jsr p_round
           0x00742f0a      584f           addq.w 0x4, a7
           0x00742f0c      3d6f0002ffde   move.w 0x2(a7), -0x22(a6)
           0x00742f12      584f           addq.w 0x4, a7
           0x00742f14      43f9008693f2   lea.l 0x8693f2, a1
           0x00742f1a      302effde       move.w -0x22(a6), d0
           0x00742f1e      247105201edc   movea.l 0x1edc(a1, d0.w * 4), a2
           0x00742f24      b4c4           cmpa.w d4, a2
       < 0x00742f26      6644           bne.b 0x742f6c
          0x00742f28      48c0           ext.l d0
          0x00742f2a      223c00000080   move.l 0x80, d1
          0x00742f30      d280           add.l d0, d1
          0x00742f32      3d41fffa       move.w d1, -0x6(a6)
          0x00742f36      594f           subq.w 0x4, a7
          0x00742f38      1f3c0002       move.b 0x2, -(a7)
          0x00742f3c      4227           clr.b -(a7)
          0x00742f3e      2f2efffc       move.l -0x4(a6), -(a7)
          0x00742f42      2f2efff8       move.l -0x8(a6), -(a7)
          0x00742f46      4eb900521dde   jsr BRUSHCOM.br_rd_store
          0x00742f4c      defc000c       adda.w 0xc, a7
          0x00742f50      239f05201edc   move.l (a7)+, 0x1edc(a1, d0.w * 4)
          0x00742f56      1f3c0003       move.b 0x3, -(a7)
          0x00742f5a      4227           clr.b -(a7)
          0x00742f5c      4227           clr.b -(a7)
          0x00742f5e      4227           clr.b -(a7)
          0x00742f60      1f04           move.b d4, -(a7)
          0x00742f62      4eb900523ab6   jsr BRUSHCOM.set_stamp_mode
          0x00742f68      defc000a       adda.w 0xa, a7
       > 0x00742f6c      2d7105201edc.  move.l 0x1edc(a1, d0.w * 4), -0x30(a6)
           0x00742f74      f2001780       fmove fp5, fp7
           0x00742f78      4a2e0020       tst.b 0x20(a6)
       < 0x00742f7c      672c           beq.b 0x742faa
          0x00742f7e      4a2efff6       tst.b -0xa(a6)
      < 0x00742f82      671e           beq.b 0x742fa2
         0x00742f84      594f           subq.w 0x4, a7
         0x00742f86      f2134400       fmove.s (a3), fp0
         0x00742f8a      f23c40200000.  fdiv.l 0x2, fp0
         0x00742f92      f2276400       fmove.s fp0, -(a7)
         0x00742f96      4eb9004081d2   jsr p_round
         0x00742f9c      584f           addq.w 0x4, a7
         0x00742f9e      f21f43a2       fadd.l (a7)+, fp7
      > 0x00742fa2      442efff6       neg.b -0xa(a6)
          0x00742fa6      522efff6       addq.b 0x1, -0xa(a6)
      > 0x00742faa      f23c43b80000.  fcmp.l 0x2d0, fp7
          0x00742fb2      f29b01b4       fbf.w 0x743168
          0x00742fb6      594f           subq.w 0x4, a7
          0x00742fb8      f2276780       fmove.s fp7, -(a7)
          0x00742fbc      4eb9004081d2   jsr p_round
          0x00742fc2      584f           addq.w 0x4, a7
          0x00742fc4      3e2f0002       move.w 0x2(a7), d7
          0x00742fc8      584f           addq.w 0x4, a7
          0x00742fca      48c7           ext.l d7
          0x00742fcc      2007           move.l d7, d0
          0x00742fce      e380           asl.l 0x1, d0
          0x00742fd0      d0aeffd0       add.l -0x30(a6), d0
          0x00742fd4      2880           move.l d0, (a4)
          0x00742fd6      08070000       btst.b 0x0, d7
      < 0x00742fda      672a           beq.b 0x743006
         0x00742fdc      2240           movea.l d0, a1
         0x00742fde      3211           move.w (a1), d1
         0x00742fe0      48c1           ext.l d1
         0x00742fe2      2401           move.l d1, d2
         0x00742fe4      e182           asl.l 0x8, d2
         0x00742fe6      3c02           move.w d2, d6
         0x00742fe8      02810000ff00   andi.l 0xff00, d1
         0x00742fee      3d41ffe8       move.w d1, -0x18(a6)
         0x00742ff2      2880           move.l d0, (a4)
         0x00742ff4      5494           addq.l 0x2, (a4)
         0x00742ff6      2254           movea.l (a4), a1
         0x00742ff8      3211           move.w (a1), d1
         0x00742ffa      48c1           ext.l d1
         0x00742ffc      02810000ff00   andi.l 0xff00, d1
         0x00743002      3a01           move.w d1, d5
     < 0x00743004      6028           bra.b 0x74302e
     > 0x00743006      2240           movea.l d0, a1
         0x00743008      3211           move.w (a1), d1
         0x0074300a      48c1           ext.l d1
         0x0074300c      2401           move.l d1, d2
         0x0074300e      e182           asl.l 0x8, d2
         0x00743010      3c02           move.w d2, d6
         0x00743012      02810000ff00   andi.l 0xff00, d1
         0x00743018      3a01           move.w d1, d5
         0x0074301a      2880           move.l d0, (a4)
         0x0074301c      5494           addq.l 0x2, (a4)
         0x0074301e      2254           movea.l (a4), a1
         0x00743020      3211           move.w (a1), d1
         0x00743022      48c1           ext.l d1
         0x00743024      02810000ff00   andi.l 0xff00, d1
         0x0074302a      3d41ffe8       move.w d1, -0x18(a6)
     > 0x0074302e      303c6255       move.w 0x6255, d0
          0x00743032      c1d0           muls.w (a0), d0
          0x00743034      068000003619   addi.l 0x3619, d0
          0x0074303a      3080           move.w d0, (a0)
          0x0074303c      594f           subq.w 0x4, a7
          0x0074303e      48c0           ext.l d0
          0x00743040      f2004000       fmove.l d0, fp0
          0x00743044      f22e44230018   fmul.s 0x18(a6), fp0
          0x0074304a      f2001c22       fadd fp7, fp0
          0x0074304e      f23c40230000.  fmul.l 0x8, fp0
          0x00743056      f2276400       fmove.s fp0, -(a7)
          0x0074305a      4eb9004081d2   jsr p_round
          0x00743060      584f           addq.w 0x4, a7
          0x00743062      226e0026       movea.l 0x26(a6), a1
          0x00743066      32290010       move.w 0x10(a1), d1
          0x0074306a      48c1           ext.l d1
          0x0074306c      d297           add.l (a7), d1
          0x0074306e      3d41ffd4       move.w d1, -0x2c(a6)
          0x00743072      c1fc6255       muls.w 0x6255, d0
          0x00743076      068000003619   addi.l 0x3619, d0
          0x0074307c      3080           move.w d0, (a0)
          0x0074307e      594f           subq.w 0x4, a7
          0x00743080      48c0           ext.l d0
          0x00743082      f2004000       fmove.l d0, fp0
          0x00743086      f22e44230018   fmul.s 0x18(a6), fp0
          0x0074308c      f2001822       fadd fp6, fp0
          0x00743090      f23c40230000.  fmul.l 0x8, fp0
          0x00743098      f2276400       fmove.s fp0, -(a7)
          0x0074309c      4eb9004081d2   jsr p_round
          0x007430a2      584f           addq.w 0x4, a7
          0x007430a4      30290010       move.w 0x10(a1), d0
          0x007430a8      48c0           ext.l d0
          0x007430aa      d09f           add.l (a7)+, d0
          0x007430ac      3d40ffd6       move.w d0, -0x2a(a6)
          0x007430b0      322effd4       move.w -0x2c(a6), d1
          0x007430b4      48c1           ext.l d1
          0x007430b6      83fc0008       divs.w 0x8, d1
          0x007430ba      3d41ffd8       move.w d1, -0x28(a6)
          0x007430be      48c0           ext.l d0
          0x007430c0      2200           move.l d0, d1
          0x007430c2      83fc0008       divs.w 0x8, d1
          0x007430c6      3d41ffda       move.w d1, -0x26(a6)
          0x007430ca      342effd8       move.w -0x28(a6), d2
          0x007430ce      02420007       andi.w 0x7, d2
          0x007430d2      33c2fff80040   move.w d2, 0xfff80040
          0x007430d8      3629000a       move.w 0xa(a1), d3
          0x007430dc      48c3           ext.l d3
          0x007430de      5383           subq.l 0x1, d3
          0x007430e0      48c2           ext.l d2
          0x007430e2      d483           add.l d3, d2
          0x007430e4      33c2fff80044   move.w d2, 0xfff80044
          0x007430ea      3429000c       move.w 0xc(a1), d2
          0x007430ee      48c2           ext.l d2
          0x007430f0      5382           subq.l 0x1, d2
          0x007430f2      33c2fff80046   move.w d2, 0xfff80046
          0x007430f8      342e0008       move.w 0x8(a6), d2
          0x007430fc      48c2           ext.l d2
          0x007430fe      362effd8       move.w -0x28(a6), d3
          0x00743102      48c3           ext.l d3
          0x00743104      d682           add.l d2, d3
          0x00743106      33c3fff840f0   move.w d3, 0xfff840f0
          0x0074310c      342e000a       move.w 0xa(a6), d2
          0x00743110      48c2           ext.l d2
          0x00743112      48c1           ext.l d1
          0x00743114      d282           add.l d2, d1
          0x00743116      33c1fff840f2   move.w d1, 0xfff840f2
          0x0074311c      02400007       andi.w 0x7, d0
          0x00743120      322effd4       move.w -0x2c(a6), d1
          0x00743124      02410007       andi.w 0x7, d1
          0x00743128      eb41           asl.w 0x5, d1
          0x0074312a      584f           addq.w 0x4, a7
          0x0074312c      43f11000       lea.l (a1, d1.w), a1
          0x00743130      33f10416fff8.  move.w 0x16(a1, d0.w), 0xfff80070.l
          0x00743138      33f10418fff8.  move.w 0x18(a1, d0.w), 0xfff80072.l
          0x00743140      4eb90051f298   jsr BRUSHCOM.brush_wait
          0x00743146      33c6fff80006   move.w d6, 0xfff80006
          0x0074314c      33c5fff80008   move.w d5, 0xfff80008
          0x00743152      33eeffe8fff8.  move.w -0x18(a6), 0xfff80008.l
          0x0074315a      4279fff80000   clr.w 0xfff80000
          0x00743160      f21347a2       fadd.s (a3), fp7
      < 0x00743164      6000fe44       bra.w 0x742faa
           0x00743168      f2134722       fadd.s (a3), fp6
        < 0x0074316c      6000fd84       bra.w 0x742ef2
            0x00743170      f21fd087       fmovem (a7)+, fp0/fp5-fp7
            0x00743174      4cdf1fff       movem.l (a7)+, d0-d7/a0-a4
            0x00743178      4e5e           unlk a6
            0x0074317a      4e75           rts
            ; CALL XREF from MENUEFFECTCOM.update_clip_fra @ 0x744f40
            ; CALL XREF from MENUEFFECTCOM.after_buy @ 0x745a54
 24: MENUEFFECTCOM.do_dots ();
           0x0074317c      4e56ff90       link.w a6, 0xff90
           0x00743180      bfd5           cmpa.l (a5), a7
       < 0x00743182      6206           bhi.b 0x74318a
          0x00743184      44fc0002       move.w 0x2, ccr
          0x00743188      4e76           trapv
       > 0x0074318a      defc0066       adda.w 0x66, a7
           0x0074318e      48e7fff8       movem.l d0-d7/a0-a4, -(a7)
           0x00743192      f227e001       fmovem fp0, -(a7)
            0x00743196      45f90086bd08   lea.l 0x86bd08, a2
            0x0074319c      47eefff8       lea.l -0x8(a6), a3
            0x007431a0      49eefffc       lea.l -0x4(a6), a4
            0x007431a4      7603           moveq 0x3, d3
            0x007431a6      7801           moveq 0x1, d4
            0x007431a8      7a0a           moveq 0xa, d5
            0x007431aa      7c06           moveq 0x6, d6
            0x007431ac      102e0010       move.b 0x10(a6), d0
            0x007431b0      b004           cmp.b d4, d0
        < 0x007431b2      6606           bne.b 0x7431ba
           0x007431b4      4412           neg.b (a2)
           0x007431b6      5212           addq.b 0x1, (a2)
       < 0x007431b8      603c           bra.b 0x7431f6
       > 0x007431ba      4212           clr.b (a2)
           0x007431bc      4880           ext.w d0
           0x007431be      013aabc0       btst.l d0, 0x73dd80(pc)
       < 0x007431c2      6732           beq.b 0x7431f6
          0x007431c4      7e00           moveq 0x0, d7
      > 0x007431c6      41f9008693f2   lea.l 0x8693f2, a0
         0x007431cc      227075201edc   movea.l 0x1edc(a0, d7.w * 4), a1
         0x007431d2      b2c4           cmpa.w d4, a1
     < 0x007431d4      6718           beq.b 0x7431ee
        0x007431d6      487075201edc   pea.l 0x1edc(a0, d7.w * 4)
        0x007431dc      48780000       pea.l 0x0
        0x007431e0      4eb900403b98   jsr p_Dispos
        0x007431e6      504f           addq.w 0x8, a7
        0x007431e8      218475201edc   move.l d4, 0x1edc(a0, d7.w * 4)
     > 0x007431ee      5247           addq.w 0x1, d7
         0x007431f0      0c470240       cmpi.w 0x240, d7
      < 0x007431f4      6fd0           ble.b 0x7431c6
       > 0x007431f6      102e0010       move.b 0x10(a6), d0
            0x007431fa      b003           cmp.b d3, d0
        < 0x007431fc      67000184       beq.w 0x743382
           0x00743200      1012           move.b (a2), d0
           0x00743202      4880           ext.w d0
           0x00743204      41f9008693f2   lea.l 0x8693f2, a0
           0x0074320a      322e0008       move.w 0x8(a6), d1
           0x0074320e      48c1           ext.l d1
           0x00743210      343005202918   move.w 0x2918(a0, d0.w * 4), d2
           0x00743216      48c2           ext.l d2
           0x00743218      d481           add.l d1, d2
           0x0074321a      3682           move.w d2, (a3)
           0x0074321c      322e000a       move.w 0xa(a6), d1
           0x00743220      48c1           ext.l d1
           0x00743222      048100000080   subi.l 0x80, d1
           0x00743228      34300520291a   move.w 0x291a(a0, d0.w * 4), d2
           0x0074322e      48c2           ext.l d2
           0x00743230      d481           add.l d1, d2
           0x00743232      3d42fffa       move.w d2, -0x6(a6)
           0x00743236      28ae000c       move.l 0xc(a6), (a4)
           0x0074323a      1f03           move.b d3, -(a7)
           0x0074323c      2f14           move.l (a4), -(a7)
           0x0074323e      2f13           move.l (a3), -(a7)
           0x00743240      4eb9005223fc   jsr BRUSHCOM.str_write_area
           0x00743246      5c4f           addq.w 0x6, a7
           0x00743248      3eb90086bbd8   move.w 0x86bbd8, (a7)
           0x0074324e      4eb900480fc2   jsr MENUCOM.get_boxon
           0x00743254      544f           addq.w 0x2, a7
           0x00743256      4a1f           tst.b (a7)+
       < 0x00743258      6720           beq.b 0x74327a
          0x0074325a      1f3c0002       move.b 0x2, -(a7)
          0x0074325e      1f03           move.b d3, -(a7)
          0x00743260      4227           clr.b -(a7)
          0x00743262      594f           subq.w 0x4, a7
          0x00743264      4227           clr.b -(a7)
          0x00743266      4eb9006338f6   jsr HANDCOM.get_point
          0x0074326c      544f           addq.w 0x2, a7
          0x0074326e      2f14           move.l (a4), -(a7)
          0x00743270      2f13           move.l (a3), -(a7)
          0x00743272      4eb900522722   jsr BRUSHCOM.str_any_str_cop
      < 0x00743278      6018           bra.b 0x743292
      > 0x0074327a      3f3c00ff       move.w 0xff, -(a7)
          0x0074327e      2f3aa746       move.l 0x73d9c6(pc), -(a7)
          0x00743282      3f3aa740       move.w 0x73d9c4(pc), -(a7)
          0x00743286      1f03           move.b d3, -(a7)
          0x00743288      2f14           move.l (a4), -(a7)
          0x0074328a      2f13           move.l (a3), -(a7)
          0x0074328c      4eb9005215a8   jsr BRUSHCOM.br_wipe_colour
      > 0x00743292      defc0012       adda.w 0x12, a7
           0x00743296      9ec5           suba.w d5, a7
           0x00743298      3f390086bbe0   move.w 0x86bbe0, -(a7)
           0x0074329e      4eb90048d992   jsr MENU2COM.get_numeric_val
           0x007432a4      544f           addq.w 0x2, a7
           0x007432a6      4eb9004081d2   jsr p_round
           0x007432ac      584f           addq.w 0x4, a7
           0x007432ae      3f6f00020004   move.w 0x2(a7), 0x4(a7)
           0x007432b4      584f           addq.w 0x4, a7
           0x007432b6      4eb90063631c   jsr PALETCOM.set_br_radius
           0x007432bc      1e86           move.b d6, (a7)
           0x007432be      4eb900631aee   jsr BRUSHESCOM.PAS.sel_brush
           0x007432c4      1e92           move.b (a2), (a7)
           0x007432c6      4ebafaae       jsr MENUEFFECTCOM.dots_set_out(pc)
           0x007432ca      3f390086bbdc   move.w 0x86bbdc, -(a7)
           0x007432d0      4eb900480fc2   jsr MENUCOM.get_boxon
           0x007432d6      544f           addq.w 0x2, a7
           0x007432d8      4a1f           tst.b (a7)+
       < 0x007432da      6708           beq.b 0x7432e4
          0x007432dc      33fc002a0086.  move.w 0x2a, 0x86bbd2.l
       > 0x007432e4      9ec5           suba.w d5, a7
           0x007432e6      3f390086bbe4   move.w 0x86bbe4, -(a7)
           0x007432ec      4eb90048d992   jsr MENU2COM.get_numeric_val
           0x007432f2      544f           addq.w 0x2, a7
           0x007432f4      f23c40000000.  fmove.l 0x4000, fp0
           0x007432fc      f2174423       fmul.s (a7), fp0
           0x00743300      f23c40200000.  fdiv.l 0x64, fp0
           0x00743308      f2176400       fmove.s fp0, (a7)
           0x0074330c      4eb9004081d2   jsr p_round
           0x00743312      584f           addq.w 0x4, a7
           0x00743314      3f6f00020004   move.w 0x2(a7), 0x4(a7)
           0x0074331a      584f           addq.w 0x4, a7
           0x0074331c      4eb900521034   jsr BRUSHCOM.br_pressure
           0x00743322      554f           subq.w 0x2, a7
           0x00743324      1f06           move.b d6, -(a7)
           0x00743326      4eb900631bae   jsr BRUSHESCOM.PAS.get_br_data
           0x0074332c      554f           subq.w 0x2, a7
           0x0074332e      3f390086bbe2   move.w 0x86bbe2, -(a7)
           0x00743334      4eb90048d992   jsr MENU2COM.get_numeric_val
           0x0074333a      3f390086bbd6   move.w 0x86bbd6, -(a7)
           0x00743340      4eb900480fc2   jsr MENUCOM.get_boxon
           0x00743346      544f           addq.w 0x2, a7
           0x00743348      48790086bbd2   pea.l 0x86bbd2
           0x0074334e      594f           subq.w 0x4, a7
           0x00743350      3f390086bbde   move.w 0x86bbde, -(a7)
           0x00743356      4eb90048d992   jsr MENU2COM.get_numeric_val
           0x0074335c      544f           addq.w 0x2, a7
           0x0074335e      f2174400       fmove.s (a7), fp0
           0x00743362      f23c40200000.  fdiv.l 0x8000, fp0
           0x0074336a      f2176400       fmove.s fp0, (a7)
           0x0074336e      2f2e000c       move.l 0xc(a6), -(a7)
           0x00743372      2f2e0008       move.l 0x8(a6), -(a7)
           0x00743376      2f14           move.l (a4), -(a7)
           0x00743378      2f13           move.l (a3), -(a7)
           0x0074337a      4ebafaaa       jsr MENUEFFECTCOM.draw_dots(pc)
           0x0074337e      defc0022       adda.w 0x22, a7
        > 0x00743382      1f12           move.b (a2), -(a7)
            0x00743384      4ebaf9f0       jsr MENUEFFECTCOM.dots_set_out(pc)
            0x00743388      544f           addq.w 0x2, a7
            0x0074338a      f21fd080       fmovem (a7)+, fp0
            0x0074338e      4cdf1fff       movem.l (a7)+, d0-d7/a0-a4
            0x00743392      4e5e           unlk a6
            0x00743394      4e75           rts
            ; CALL XREF from MENUEFFECTCOM.send_to_submenu @ 0x745b76
 24: MENUEFFECTCOM.hit_dots ();
           0x00743396      4e56ffa2       link.w a6, 0xffa2
           0x0074339a      bfd5           cmpa.l (a5), a7
       < 0x0074339c      6206           bhi.b 0x7433a4
          0x0074339e      44fc0002       move.w 0x2, ccr
          0x007433a2      4e76           trapv
       > 0x007433a4      defc005c       adda.w 0x5c, a7
           0x007433a8      48e7f9f8       movem.l d0-d4/d7/a0-a4, -(a7)
           0x007433ac      f227e003       fmovem fp0-fp1, -(a7)
            0x007433b0      45ee000a       lea.l 0xa(a6), a2
            0x007433b4      47f9006336ea   lea.l HANDCOM.get_area, a3
            0x007433ba      49fafdc0       lea.l MENUEFFECTCOM.do_dots(pc), a4
            0x007433be      7401           moveq 0x1, d2
            0x007433c0      760a           moveq 0xa, d3
            0x007433c2      7811           moveq 0x11, d4
            0x007433c4      302e0008       move.w 0x8(a6), d0
            0x007433c8      b044           cmp.w d4, d0
        < 0x007433ca      6d12           blt.b 0x7433de
           0x007433cc      b044           cmp.w d4, d0
       < 0x007433ce      670001f4       beq.w 0x7435c4
          0x007433d2      0c40001e       cmpi.w 0x1e, d0
      < 0x007433d6      67000094       beq.w 0x74346c
     < 0x007433da      6000021a       bra.w 0x7435f6
     > 0x007433de      0c400010       cmpi.w 0x10, d0
     < 0x007433e2      62000212       bhi.w 0x7435f6
        0x007433e6      d040           add.w d0, d0
        0x007433e8      303b0006       move.w 0x7433f0(pc, d0.w), d0
        0x007433ec      4efb0002       jmp 0x7433f0(pc, d0.w)
        0x007433f0      007c0022       ori.w 0x22, sr
        0x007433f4      00ea0206       
        0x007433f5      ea02           asr.b 0x5, d2
        0x007433f7      06020602       addi.b 0x2, d2
        0x007433fb      06020602       addi.b 0x2, d2
        0x007433ff      06020601       addi.b 0x1, d2
        0x00743403      5201           addq.b 0x1, d1
        0x00743405      d402           add.b d2, d2
        0x00743407      06020602       addi.b 0x2, d2
        0x0074340b      06020602       addi.b 0x2, d2
        0x0074340f      06015255       addi.b 0x55, d1
        0x00743413      4f3f3900       
        0x00743414      3f3900869428   move.w 0x869428, -(a7)
        0x0074341a      4eb900480fc2   jsr MENUCOM.get_boxon
        0x00743420      544f           addq.w 0x2, a7
        0x00743422      4a1f           tst.b (a7)+
    < 0x00743424      670e           beq.b 0x743434
       0x00743426      3f3900869428   move.w 0x869428, -(a7)
       0x0074342c      4eb9004836a4   jsr MENUCOM.push_box
       0x00743432      544f           addq.w 0x2, a7
    > 0x00743434      3012           move.w (a2), d0
        0x00743436      b0790086bbd4   cmp.w 0x86bbd4, d0
    < 0x0074343c      6604           bne.b 0x743442
       0x0074343e      4227           clr.b -(a7)
   < 0x00743440      601a           bra.b 0x74345c
   > 0x00743442      b0790086bbd6   cmp.w 0x86bbd6, d0
   < 0x00743448      6710           beq.b 0x74345a
      0x0074344a      b0790086bbd8   cmp.w 0x86bbd8, d0
  < 0x00743450      6708           beq.b 0x74345a
     0x00743452      b0790086bbdc   cmp.w 0x86bbdc, d0
  < 0x00743458      660e           bne.b 0x743468
  > 0x0074345a      1f02           move.b d2, -(a7)
   > 0x0074345c      514f           subq.w 0x8, a7
        0x0074345e      4227           clr.b -(a7)
        0x00743460      4e93           jsr (a3)                    ; fcn.0000000c
        0x00743462      544f           addq.w 0x2, a7
        0x00743464      4e94           jsr (a4)                    ; fcn.0000000d
        0x00743466      dec3           adda.w d3, a7
  < 0x00743468      6000018c       bra.w 0x7435f6
    > 0x0074346c      3012           move.w (a2), d0
        0x0074346e      b0790086bbd4   cmp.w 0x86bbd4, d0
    < 0x00743474      663a           bne.b 0x7434b0
       0x00743476      4eb900518f96   jsr OUTCOM.normal_set_out
       0x0074347c      7e00           moveq 0x0, d7
   > 0x0074347e      41f9008693f2   lea.l 0x8693f2, a0
      0x00743484      227075201edc   movea.l 0x1edc(a0, d7.w * 4), a1
      0x0074348a      b2c2           cmpa.w d2, a1
  < 0x0074348c      6718           beq.b 0x7434a6
     0x0074348e      487075201edc   pea.l 0x1edc(a0, d7.w * 4)
     0x00743494      48780000       pea.l 0x0
     0x00743498      4eb900403b98   jsr p_Dispos
     0x0074349e      504f           addq.w 0x8, a7
     0x007434a0      218275201edc   move.l d2, 0x1edc(a0, d7.w * 4)
  > 0x007434a6      5247           addq.w 0x1, d7
      0x007434a8      0c470240       cmpi.w 0x240, d7
   < 0x007434ac      6fd0           ble.b 0x74347e
   < 0x007434ae      6026           bra.b 0x7434d6
   > 0x007434b0      b0790086bbd6   cmp.w 0x86bbd6, d0
   < 0x007434b6      6710           beq.b 0x7434c8
      0x007434b8      b0790086bbd8   cmp.w 0x86bbd8, d0
  < 0x007434be      6708           beq.b 0x7434c8
     0x007434c0      b0790086bbdc   cmp.w 0x86bbdc, d0
  < 0x007434c6      660e           bne.b 0x7434d6
  > 0x007434c8      1f02           move.b d2, -(a7)
       0x007434ca      514f           subq.w 0x8, a7
       0x007434cc      4227           clr.b -(a7)
       0x007434ce      4e93           jsr (a3)                    ; fcn.0000000c
       0x007434d0      544f           addq.w 0x2, a7
       0x007434d2      4e94           jsr (a4)                    ; fcn.0000000d
       0x007434d4      dec3           adda.w d3, a7
  < 0x007434d6      6000011e       bra.w 0x7435f6
       0x007434da      3012           move.w (a2), d0
       0x007434dc      0c40000b       cmpi.w 0xb, d0
   < 0x007434e0      6608           bne.b 0x7434ea
      0x007434e2      4eb900518f96   jsr OUTCOM.normal_set_out
  < 0x007434e8      6054           bra.b 0x74353e
  > 0x007434ea      0c40000c       cmpi.w 0xc, d0
  < 0x007434ee      660e           bne.b 0x7434fe
     0x007434f0      1f390086bd08   move.b 0x86bd08, -(a7)
  > 0x007434f6      4ebaf87e       jsr MENUEFFECTCOM.dots_set_out(pc)
     0x007434fa      544f           addq.w 0x2, a7
  < 0x007434fc      6040           bra.b 0x74353e
  > 0x007434fe      0c400025       cmpi.w 0x25, d0
  < 0x00743502      6706           beq.b 0x74350a
     0x00743504      0c400023       cmpi.w 0x23, d0
  < 0x00743508      6604           bne.b 0x74350e
  > 0x0074350a      4227           clr.b -(a7)
  < 0x0074350c      6024           bra.b 0x743532
  > 0x0074350e      0c40002c       cmpi.w 0x2c, d0
  < 0x00743512      670c           beq.b 0x743520
     0x00743514      0c40001f       cmpi.w 0x1f, d0
  < 0x00743518      6706           beq.b 0x743520
     0x0074351a      0c40002d       cmpi.w 0x2d, d0
  < 0x0074351e      6604           bne.b 0x743524
  > 0x00743520      4227           clr.b -(a7)
  < 0x00743522      60d2           bra.b 0x7434f6
  > 0x00743524      554f           subq.w 0x2, a7
     0x00743526      4eb900482154   jsr MENUCOM.get_crnt_numeri
     0x0074352c      b05f           cmp.w (a7)+, d0
  < 0x0074352e      660e           bne.b 0x74353e
     0x00743530      1f02           move.b d2, -(a7)
  > 0x00743532      514f           subq.w 0x8, a7
      0x00743534      4227           clr.b -(a7)
      0x00743536      4e93           jsr (a3)                    ; fcn.0000000c
      0x00743538      544f           addq.w 0x2, a7
      0x0074353a      4e94           jsr (a4)                    ; fcn.0000000d
      0x0074353c      dec3           adda.w d3, a7
  < 0x0074353e      600000b6       bra.w 0x7435f6
      0x00743542      554f           subq.w 0x2, a7
      0x00743544      4eb900482154   jsr MENUCOM.get_crnt_numeri
      0x0074354a      349f           move.w (a7)+, (a2)
  < 0x0074354c      6606           bne.b 0x743554
     0x0074354e      34b90086bbe2   move.w 0x86bbe2, (a2)
  > 0x00743554      4eb90047b9c8   jsr CNTLCOM.update_cursor
      0x0074355a      2079008693f4   movea.l 0x8693f4, a0
      0x00743560      3f12           move.w (a2), -(a7)
      0x00743562      30280012       move.w 0x12(a0), d0
      0x00743566      48c0           ext.l d0
      0x00743568      32280014       move.w 0x14(a0), d1
      0x0074356c      48c1           ext.l d1
      0x0074356e      4481           neg.l d1
      0x00743570      d280           add.l d0, d1
      0x00743572      f2014000       fmove.l d1, fp0
      0x00743576      f23c40200000.  fdiv.l 0x32, fp0
      0x0074357e      594f           subq.w 0x4, a7
      0x00743580      3f12           move.w (a2), -(a7)
      0x00743582      4eb90048d992   jsr MENU2COM.get_numeric_val
      0x00743588      544f           addq.w 0x2, a7
      0x0074358a      f2174480       fmove.s (a7), fp1
      0x0074358e      f20000a2       fadd fp0, fp1
      0x00743592      f2176480       fmove.s fp1, (a7)
      0x00743596      4227           clr.b -(a7)
      0x00743598      1f02           move.b d2, -(a7)
      0x0074359a      4eb90048da84   jsr MENU2COM.set_numeric_val
      0x007435a0      5c4f           addq.w 0x6, a7
      0x007435a2      3eb90086bbda   move.w 0x86bbda, (a7)
      0x007435a8      4eb900480fc2   jsr MENUCOM.get_boxon
      0x007435ae      544f           addq.w 0x2, a7
      0x007435b0      4a1f           tst.b (a7)+
  < 0x007435b2      670e           beq.b 0x7435c2
     0x007435b4      1f02           move.b d2, -(a7)
     0x007435b6      514f           subq.w 0x8, a7
     0x007435b8      4227           clr.b -(a7)
     0x007435ba      4e93           jsr (a3)                    ; fcn.0000000c
     0x007435bc      544f           addq.w 0x2, a7
     0x007435be      4e94           jsr (a4)                    ; fcn.0000000d
     0x007435c0      dec3           adda.w d3, a7
  > 0x007435c2      6032           bra.b 0x7435f6
   > 0x007435c4      554f           subq.w 0x2, a7
       0x007435c6      3f390086bbda   move.w 0x86bbda, -(a7)
       0x007435cc      4eb900480fc2   jsr MENUCOM.get_boxon
       0x007435d2      544f           addq.w 0x2, a7
       0x007435d4      4a1f           tst.b (a7)+
   < 0x007435d6      6708           beq.b 0x7435e0
      0x007435d8      4a390086bd08   tst.b 0x86bd08
  < 0x007435de      6706           beq.b 0x7435e6
  > 0x007435e0      1f3c0002       move.b 0x2, -(a7)
  < 0x007435e4      6004           bra.b 0x7435ea
  > 0x007435e6      1f3c0003       move.b 0x3, -(a7)
   > 0x007435ea      514f           subq.w 0x8, a7
       0x007435ec      4227           clr.b -(a7)
       0x007435ee      4e93           jsr (a3)                    ; fcn.0000000c
       0x007435f0      544f           addq.w 0x2, a7
       0x007435f2      4e94           jsr (a4)                    ; fcn.0000000d
       0x007435f4      dec3           adda.w d3, a7
  > 0x007435f6      f21fd0c0       fmovem (a7)+, fp0-fp1
            0x007435fa      4cdf1f9f       movem.l (a7)+, d0-d4/d7/a0-a4
            0x007435fe      4e5e           unlk a6
            0x00743600      4e75           rts
 74: MENUEFFECTCOM.x_hosepipe_alig ();
           0x00743602      4e56fff0       link.w a6, 0xfff0
           0x00743606      bfd5           cmpa.l (a5), a7
       < 0x00743608      6206           bhi.b 0x743610
          0x0074360a      44fc0002       move.w 0x2, ccr
          0x0074360e      4e76           trapv
       > 0x00743610      defc0010       adda.w 0x10, a7
           0x00743614      48e7c080       movem.l d0-d1/a0, -(a7)
           0x00743618      41ec0008       lea.l 0x8(a4), a0
           0x0074361c      3010           move.w (a0), d0
           0x0074361e      02400007       andi.w 0x7, d0
           0x00743622      48c0           ext.l d0
           0x00743624      322c000c       move.w 0xc(a4), d1
           0x00743628      48c1           ext.l d1
           0x0074362a      d280           add.l d0, d1
           0x0074362c      5e81           addq.l 0x7, d1
           0x0074362e      02810000fff8   andi.l 0xfff8, d1
           0x00743634      3941000c       move.w d1, 0xc(a4)
           0x00743638      3010           move.w (a0), d0
           0x0074363a      48c0           ext.l d0
           0x0074363c      02800000fff8   andi.l 0xfff8, d0
           0x00743642      3080           move.w d0, (a0)
           0x00743644      4cdf0103       movem.l (a7)+, d0-d1/a0
           0x00743648      4e5e           unlk a6
           0x0074364a      4e75           rts
            ; CALL XREF from MENUEFFECTCOM.do_effects @ 0x74405c
 50: MENUEFFECTCOM.do_hiconer ();
           0x0074364c      4e56ffd6       link.w a6, 0xffd6
           0x00743650      bfd5           cmpa.l (a5), a7
       < 0x00743652      6206           bhi.b 0x74365a
          0x00743654      44fc0002       move.w 0x2, ccr
          0x00743658      4e76           trapv
       > 0x0074365a      defc0026       adda.w 0x26, a7
           0x0074365e      48e7e080       movem.l d0-d2/a0, -(a7)
           0x00743662      41ec0008       lea.l 0x8(a4), a0
           0x00743666      7202           moveq 0x2, d1
           0x00743668      7403           moveq 0x3, d2
           0x0074366a      102c0010       move.b 0x10(a4), d0
           0x0074366e      4880           ext.w d0
           0x00743670      b041           cmp.w d1, d0
       < 0x00743672      6268           bhi.b 0x7436dc
          0x00743674      d040           add.w d0, d0
          0x00743676      303b0006       move.w 0x74367e(pc, d0.w), d0
          0x0074367a      4efb0002       jmp 0x74367e(pc, d0.w)
           0x0074367e      00060040       ori.b 0x40, d6
           0x00743682      00584eba       ori.w 0x4eba, (a0)+
           0x00743686      ff7c3d50       frestore 0x50
           0x0074368a      fffc           invalid
           0x0074368c      3d6c000afffe   move.w 0xa(a4), -0x2(a6)
           0x00743692      1f01           move.b d1, -(a7)
           0x00743694      2f2c000c       move.l 0xc(a4), -(a7)
           0x00743698      2f10           move.l (a0), -(a7)
           0x0074369a      4ebab42c       jsr MENUEFFECTCOM.do_hicon(pc)
           0x0074369e      504f           addq.w 0x8, a7
           0x007436a0      1e82           move.b d2, (a7)
           0x007436a2      1f01           move.b d1, -(a7)
           0x007436a4      1f3c0001       move.b 0x1, -(a7)
           0x007436a8      2f2efffc       move.l -0x4(a6), -(a7)
           0x007436ac      2f2c000c       move.l 0xc(a4), -(a7)
           0x007436b0      2f10           move.l (a0), -(a7)
           0x007436b2      4eb900522722   jsr BRUSHCOM.str_any_str_cop
           0x007436b8      defc0012       adda.w 0x12, a7
       < 0x007436bc      601e           bra.b 0x7436dc
          0x007436be      1f02           move.b d2, -(a7)
      > 0x007436c0      514f           subq.w 0x8, a7
         0x007436c2      4227           clr.b -(a7)
         0x007436c4      4eb9006336ea   jsr HANDCOM.get_area
         0x007436ca      544f           addq.w 0x2, a7
         0x007436cc      4ebab3fa       jsr MENUEFFECTCOM.do_hicon(pc)
         0x007436d0      defc000a       adda.w 0xa, a7
     < 0x007436d4      6006           bra.b 0x7436dc
        0x007436d6      1f3c0004       move.b 0x4, -(a7)
     < 0x007436da      60e4           bra.b 0x7436c0
     > 0x007436dc      554f           subq.w 0x2, a7
            0x007436de      4eb900402f52   jsr p_Flagged
            0x007436e4      1d5f0008       move.b (a7)+, 0x8(a6)
            0x007436e8      4cdf0107       movem.l (a7)+, d0-d2/a0
            0x007436ec      4e5e           unlk a6
            0x007436ee      4e75           rts
            ; CALL XREF from MENUEFFECTCOM.do_effects @ 0x744076
 92: MENUEFFECTCOM.do_keyer ();
           0x007436f0      4e56ffc4       link.w a6, 0xffc4
           0x007436f4      bfd5           cmpa.l (a5), a7
       < 0x007436f6      6206           bhi.b 0x7436fe
          0x007436f8      44fc0002       move.w 0x2, ccr
          0x007436fc      4e76           trapv
       > 0x007436fe      defc0036       adda.w 0x36, a7
           0x00743702      48e7f0f0       movem.l d0-d3/a0-a3, -(a7)
           0x00743706      41ec0008       lea.l 0x8(a4), a0
           0x0074370a      43f90086bbfe   lea.l 0x86bbfe, a1
           0x00743710      45f900480fc2   lea.l MENUCOM.get_boxon, a2
           0x00743716      47eefffe       lea.l -0x2(a6), a3
           0x0074371a      7202           moveq 0x2, d1
           0x0074371c      7403           moveq 0x3, d2
           0x0074371e      7601           moveq 0x1, d3
           0x00743720      554f           subq.w 0x2, a7
           0x00743722      3f11           move.w (a1), -(a7)
           0x00743724      4e92           jsr (a2)                    ; fcn.00000009+0x2
           0x00743726      544f           addq.w 0x2, a7
           0x00743728      4a1f           tst.b (a7)+
       < 0x0074372a      6706           beq.b 0x743732
          0x0074372c      36baa47a       move.w 0x73dba8(pc), (a3)
      < 0x00743730      6004           bra.b 0x743736
      > 0x00743732      36baa64e       move.w 0x73dd82(pc), (a3)
      > 0x00743736      102c0010       move.b 0x10(a4), d0
           0x0074373a      4880           ext.w d0
           0x0074373c      b041           cmp.w d1, d0
       < 0x0074373e      620000aa       bhi.w 0x7437ea
          0x00743742      d040           add.w d0, d0
          0x00743744      303b0006       move.w 0x74374c(pc, d0.w), d0
          0x00743748      4efb0002       jmp 0x74374c(pc, d0.w)
           0x0074374c      0006007a       ori.b 0x7a, d6
           0x00743750      00984ebafeae   ori.l 0x4ebafeae, (a0)+
           0x00743756      3d50fffa       move.w (a0), -0x6(a6)
           0x0074375a      3d6c000afffc   move.w 0xa(a4), -0x4(a6)
           0x00743760      554f           subq.w 0x2, a7
           0x00743762      3f11           move.w (a1), -(a7)
           0x00743764      4e92           jsr (a2)                    ; fcn.00000009+0x2
           0x00743766      544f           addq.w 0x2, a7
           0x00743768      4a1f           tst.b (a7)+
       < 0x0074376a      671c           beq.b 0x743788
          0x0074376c      1f02           move.b d2, -(a7)
          0x0074376e      1f01           move.b d1, -(a7)
          0x00743770      4227           clr.b -(a7)
          0x00743772      2f2efffa       move.l -0x6(a6), -(a7)
          0x00743776      2f2c000c       move.l 0xc(a4), -(a7)
          0x0074377a      2f10           move.l (a0), -(a7)
          0x0074377c      4eb900522722   jsr BRUSHCOM.str_any_str_cop
          0x00743782      defc0012       adda.w 0x12, a7
      < 0x00743786      603c           bra.b 0x7437c4
      > 0x00743788      1f02           move.b d2, -(a7)
          0x0074378a      1f01           move.b d1, -(a7)
          0x0074378c      1f03           move.b d3, -(a7)
          0x0074378e      2f2efffa       move.l -0x6(a6), -(a7)
          0x00743792      2f2c000c       move.l 0xc(a4), -(a7)
          0x00743796      2f10           move.l (a0), -(a7)
          0x00743798      4eb900522722   jsr BRUSHCOM.str_any_str_cop
          0x0074379e      defc000e       adda.w 0xe, a7
          0x007437a2      3eb90086945c   move.w 0x86945c, (a7)
          0x007437a8      4e92           jsr (a2)                    ; fcn.00000009+0x2
          0x007437aa      544f           addq.w 0x2, a7
          0x007437ac      4a1f           tst.b (a7)+
      < 0x007437ae      6614           bne.b 0x7437c4
         0x007437b0      1f01           move.b d1, -(a7)
         0x007437b2      1f03           move.b d3, -(a7)
         0x007437b4      2f2c000c       move.l 0xc(a4), -(a7)
         0x007437b8      2f10           move.l (a0), -(a7)
         0x007437ba      4eb900522c10   jsr BRUSHCOM.str_invert
         0x007437c0      defc000c       adda.w 0xc, a7
     > 0x007437c4      6024           bra.b 0x7437ea
          0x007437c6      303c2000       move.w 0x2000, d0
      > 0x007437ca      8053           or.w (a3), d0
         0x007437cc      3f00           move.w d0, -(a7)
         0x007437ce      514f           subq.w 0x8, a7
         0x007437d0      4227           clr.b -(a7)
         0x007437d2      4eb9006336ea   jsr HANDCOM.get_area
         0x007437d8      544f           addq.w 0x2, a7
         0x007437da      4ebac3b2       jsr MENUEFFECTCOM.do_key(pc)
         0x007437de      defc000a       adda.w 0xa, a7
     < 0x007437e2      6006           bra.b 0x7437ea
        0x007437e4      303c4000       move.w 0x4000, d0
     < 0x007437e8      60e0           bra.b 0x7437ca
     > 0x007437ea      554f           subq.w 0x2, a7
            0x007437ec      4eb900402f52   jsr p_Flagged
            0x007437f2      1d5f0008       move.b (a7)+, 0x8(a6)
            0x007437f6      4cdf0f0f       movem.l (a7)+, d0-d3/a0-a3
            0x007437fa      4e5e           unlk a6
            0x007437fc      4e75           rts
            ; CALL XREF from MENUEFFECTCOM.do_effects @ 0x7440e0
 68: MENUEFFECTCOM.do_colourer ();
           0x007437fe      4e56ffc2       link.w a6, 0xffc2
           0x00743802      bfd5           cmpa.l (a5), a7
       < 0x00743804      6206           bhi.b 0x74380c
          0x00743806      44fc0002       move.w 0x2, ccr
          0x0074380a      4e76           trapv
       > 0x0074380c      defc003a       adda.w 0x3a, a7
           0x00743810      48e7f0f0       movem.l d0-d3/a0-a3, -(a7)
           0x00743814      41ec0008       lea.l 0x8(a4), a0
           0x00743818      43ec000c       lea.l 0xc(a4), a1
           0x0074381c      45eefffc       lea.l -0x4(a6), a2
           0x00743820      47f900480fc2   lea.l MENUCOM.get_boxon, a3
           0x00743826      7202           moveq 0x2, d1
           0x00743828      7403           moveq 0x3, d2
           0x0074382a      7601           moveq 0x1, d3
           0x0074382c      102c0010       move.b 0x10(a4), d0
           0x00743830      4880           ext.w d0
           0x00743832      b041           cmp.w d1, d0
       < 0x00743834      620000ca       bhi.w 0x743900
          0x00743838      d040           add.w d0, d0
          0x0074383a      303b0006       move.w 0x743842(pc, d0.w), d0
          0x0074383e      4efb0002       jmp 0x743842(pc, d0.w)
           0x00743842      0006009e       ori.b 0x9e, d6
           0x00743846      00b84ebafdb8.  ori.l 0x4ebafdb8, 0x3490.w
           0x0074384e      3d6c000afffe   move.w 0xa(a4), -0x2(a6)
           0x00743854      1f03           move.b d3, -(a7)
           0x00743856      2f11           move.l (a1), -(a7)
           0x00743858      2f10           move.l (a0), -(a7)
           0x0074385a      4ebadf20       jsr MENUEFFECTCOM.do_colour(pc)
           0x0074385e      5c4f           addq.w 0x6, a7
           0x00743860      3eb900869aa8   move.w 0x869aa8, (a7)
           0x00743866      4e93           jsr (a3)                    ; fcn.0000000c
           0x00743868      544f           addq.w 0x2, a7
           0x0074386a      4a1f           tst.b (a7)+
       < 0x0074386c      673e           beq.b 0x7438ac
          0x0074386e      554f           subq.w 0x2, a7
          0x00743870      3f390086945c   move.w 0x86945c, -(a7)
          0x00743876      4e93           jsr (a3)                    ; fcn.0000000c
          0x00743878      544f           addq.w 0x2, a7
          0x0074387a      4a1f           tst.b (a7)+
      < 0x0074387c      6612           bne.b 0x743890
         0x0074387e      1f02           move.b d2, -(a7)
         0x00743880      1f03           move.b d3, -(a7)
         0x00743882      2f11           move.l (a1), -(a7)
         0x00743884      2f10           move.l (a0), -(a7)
         0x00743886      4eb900522c10   jsr BRUSHCOM.str_invert
         0x0074388c      defc000c       adda.w 0xc, a7
      > 0x00743890      1f01           move.b d1, -(a7)
          0x00743892      4227           clr.b -(a7)
          0x00743894      2f11           move.l (a1), -(a7)
          0x00743896      2f10           move.l (a0), -(a7)
          0x00743898      2f12           move.l (a2), -(a7)
          0x0074389a      1f02           move.b d2, -(a7)
      > 0x0074389c      4227           clr.b -(a7)
         0x0074389e      4227           clr.b -(a7)
         0x007438a0      4eb9005233f0   jsr BRUSHCOM.br_paste
         0x007438a6      defc0016       adda.w 0x16, a7
     < 0x007438aa      6032           bra.b 0x7438de
     > 0x007438ac      554f           subq.w 0x2, a7
         0x007438ae      3f3c002c       move.w 0x2c, -(a7)
         0x007438b2      4e93           jsr (a3)                    ; fcn.0000000c
         0x007438b4      544f           addq.w 0x2, a7
         0x007438b6      4a1f           tst.b (a7)+
     < 0x007438b8      670e           beq.b 0x7438c8
        0x007438ba      1f01           move.b d1, -(a7)
        0x007438bc      4227           clr.b -(a7)
        0x007438be      2f11           move.l (a1), -(a7)
        0x007438c0      2f10           move.l (a0), -(a7)
        0x007438c2      2f12           move.l (a2), -(a7)
        0x007438c4      1f01           move.b d1, -(a7)
     < 0x007438c6      60d4           bra.b 0x74389c
      > 0x007438c8      1f02           move.b d2, -(a7)
          0x007438ca      1f01           move.b d1, -(a7)
          0x007438cc      4227           clr.b -(a7)
          0x007438ce      2f12           move.l (a2), -(a7)
          0x007438d0      2f11           move.l (a1), -(a7)
          0x007438d2      2f10           move.l (a0), -(a7)
          0x007438d4      4eb900522722   jsr BRUSHCOM.str_any_str_cop
          0x007438da      defc0012       adda.w 0x12, a7
     < 0x007438de      6020           bra.b 0x743900
          0x007438e0      1f3c0005       move.b 0x5, -(a7)
      > 0x007438e4      514f           subq.w 0x8, a7
         0x007438e6      4227           clr.b -(a7)
         0x007438e8      4eb9006336ea   jsr HANDCOM.get_area
         0x007438ee      544f           addq.w 0x2, a7
         0x007438f0      4ebade8a       jsr MENUEFFECTCOM.do_colour(pc)
         0x007438f4      defc000a       adda.w 0xa, a7
     < 0x007438f8      6006           bra.b 0x743900
        0x007438fa      1f3c0006       move.b 0x6, -(a7)
     < 0x007438fe      60e4           bra.b 0x7438e4
     > 0x00743900      554f           subq.w 0x2, a7
            0x00743902      4eb900402f52   jsr p_Flagged
            0x00743908      1d5f0008       move.b (a7)+, 0x8(a6)
            0x0074390c      4cdf0f0f       movem.l (a7)+, d0-d3/a0-a3
            0x00743910      4e5e           unlk a6
            0x00743912      4e75           rts
            ; CALL XREF from MENUEFFECTCOM.do_effects @ 0x74410c
 56: MENUEFFECTCOM.do_blur_grower ();
           0x00743914      4e56ffdc       link.w a6, 0xffdc
           0x00743918      bfd5           cmpa.l (a5), a7
       < 0x0074391a      6206           bhi.b 0x743922
          0x0074391c      44fc0002       move.w 0x2, ccr
          0x00743920      4e76           trapv
       > 0x00743922      defc0024       adda.w 0x24, a7
           0x00743926      48e7f080       movem.l d0-d3/a0, -(a7)
           0x0074392a      41f90086bbe6   lea.l 0x86bbe6, a0
           0x00743930      7203           moveq 0x3, d1
           0x00743932      740a           moveq 0xa, d2
           0x00743934      7604           moveq 0x4, d3
           0x00743936      102c0010       move.b 0x10(a4), d0
           0x0074393a      4880           ext.w d0
           0x0074393c      0c400002       cmpi.w 0x2, d0
       < 0x00743940      627e           bhi.b 0x7439c0
          0x00743942      d040           add.w d0, d0
          0x00743944      303b0006       move.w 0x74394c(pc, d0.w), d0
          0x00743948      4efb0002       jmp 0x74394c(pc, d0.w)
           0x0074394c      0006003c       ori.b 0x3c, d6
           0x00743950      003c4eba       
           0x00743951      3c4e           movea.w a6, a6
           0x00743953      bafcae55       cmpa.w 0xae55, a5
           0x00743957      4f3f104e       
           0x00743958      3f10           move.w (a0), -(a7)
           0x0074395a      4eb900480fc2   jsr MENUCOM.get_boxon
           0x00743960      544f           addq.w 0x2, a7
           0x00743962      4a1f           tst.b (a7)+
       < 0x00743964      6710           beq.b 0x743976
          0x00743966      1f01           move.b d1, -(a7)
          0x00743968      2f2c000c       move.l 0xc(a4), -(a7)
          0x0074396c      2f2c0008       move.l 0x8(a4), -(a7)
          0x00743970      4ebae826       jsr MENUEFFECTCOM.do_blur(pc)
      < 0x00743974      600e           bra.b 0x743984
      > 0x00743976      1f01           move.b d1, -(a7)
          0x00743978      2f2c000c       move.l 0xc(a4), -(a7)
          0x0074397c      2f2c0008       move.l 0x8(a4), -(a7)
          0x00743980      4ebaeeec       jsr MENUEFFECTCOM.do_grow(pc)
      > 0x00743984      dec2           adda.w d2, a7
       < 0x00743986      6038           bra.b 0x7439c0
          0x00743988      554f           subq.w 0x2, a7
          0x0074398a      3f10           move.w (a0), -(a7)
          0x0074398c      4eb900480fc2   jsr MENUCOM.get_boxon
          0x00743992      544f           addq.w 0x2, a7
          0x00743994      4a1f           tst.b (a7)+
      < 0x00743996      6714           beq.b 0x7439ac
         0x00743998      1f03           move.b d3, -(a7)
         0x0074399a      514f           subq.w 0x8, a7
         0x0074399c      4227           clr.b -(a7)
         0x0074399e      4eb9006336ea   jsr HANDCOM.get_area
         0x007439a4      544f           addq.w 0x2, a7
         0x007439a6      4ebae7f0       jsr MENUEFFECTCOM.do_blur(pc)
     < 0x007439aa      6012           bra.b 0x7439be
     > 0x007439ac      1f03           move.b d3, -(a7)
         0x007439ae      514f           subq.w 0x8, a7
         0x007439b0      4227           clr.b -(a7)
         0x007439b2      4eb9006336ea   jsr HANDCOM.get_area
         0x007439b8      544f           addq.w 0x2, a7
         0x007439ba      4ebaeeb2       jsr MENUEFFECTCOM.do_grow(pc)
     > 0x007439be      dec2           adda.w d2, a7
       > 0x007439c0      554f           subq.w 0x2, a7
            0x007439c2      4eb900402f52   jsr p_Flagged
            0x007439c8      1d5f0008       move.b (a7)+, 0x8(a6)
            0x007439cc      4cdf010f       movem.l (a7)+, d0-d3/a0
            0x007439d0      4e5e           unlk a6
            0x007439d2      4e75           rts
            ; CALL XREF from MENUEFFECTCOM.do_effects @ 0x74403c
 124: MENUEFFECTCOM.do_overlayer ();
           0x007439d4      4e56ffdc       link.w a6, 0xffdc
           0x007439d8      bfd5           cmpa.l (a5), a7
       < 0x007439da      6206           bhi.b 0x7439e2
          0x007439dc      44fc0002       move.w 0x2, ccr
          0x007439e0      4e76           trapv
       > 0x007439e2      defc0018       adda.w 0x18, a7
           0x007439e6      48e78000       movem.l d0, -(a7)
           0x007439ea      7002           moveq 0x2, d0
           0x007439ec      1f00           move.b d0, -(a7)
           0x007439ee      4eb900518dd8   jsr OUTCOM.set_out
           0x007439f4      594f           subq.w 0x4, a7
           0x007439f6      3f390086942c   move.w 0x86942c, -(a7)
           0x007439fc      4eb900481196   jsr MENUCOM.get_boxcol
           0x00743a02      544f           addq.w 0x2, a7
           0x00743a04      2d5ffff4       move.l (a7)+, -0xc(a6)
           0x00743a08      3d57fff8       move.w (a7), -0x8(a6)
           0x00743a0c      594f           subq.w 0x4, a7
           0x00743a0e      3f3900869430   move.w 0x869430, -(a7)
           0x00743a14      4eb900481196   jsr MENUCOM.get_boxcol
           0x00743a1a      544f           addq.w 0x2, a7
           0x00743a1c      2d5ffffa       move.l (a7)+, -0x6(a6)
           0x00743a20      3d57fffe       move.w (a7), -0x2(a6)
           0x00743a24      2f2c000c       move.l 0xc(a4), -(a7)
           0x00743a28      2f2c0008       move.l 0x8(a4), -(a7)
           0x00743a2c      1f00           move.b d0, -(a7)
           0x00743a2e      3f2efff4       move.w -0xc(a6), -(a7)
           0x00743a32      3f2efffa       move.w -0x6(a6), -(a7)
           0x00743a36      4ebaa872       jsr MENUEFFECTCOM.fx_overlay(pc)
           0x00743a3a      defc000e       adda.w 0xe, a7
           0x00743a3e      1d5f0008       move.b (a7)+, 0x8(a6)
           0x00743a42      4eb900518f96   jsr OUTCOM.normal_set_out
           0x00743a48      4cdf0001       movem.l (a7)+, d0
           0x00743a4c      4e5e           unlk a6
           0x00743a4e      4e75           rts
            ; CALL XREF from MENUEFFECTCOM.do_effects @ 0x744090
 258: MENUEFFECTCOM.do_field (int32_t arg_ah);
           ; arg int32_t arg_ah @ a6+0xa
           0x00743a50      4e56ffb4       link.w a6, 0xffb4
           0x00743a54      bfd5           cmpa.l (a5), a7
       < 0x00743a56      6206           bhi.b 0x743a5e
          0x00743a58      44fc0002       move.w 0x2, ccr
          0x00743a5c      4e76           trapv
       > 0x00743a5e      defc0036       adda.w 0x36, a7
           0x00743a62      48e7c1f0       movem.l d0-d1/d7/a0-a3, -(a7)
           0x00743a66      41f900480fc2   lea.l MENUCOM.get_boxon, a0
           0x00743a6c      43eefff0       lea.l -0x10(a6), a1
           0x00743a70      45eefff4       lea.l -0xc(a6), a2
           0x00743a74      47ec0008       lea.l 0x8(a4), a3
           0x00743a78      7002           moveq 0x2, d0
           0x00743a7a      7203           moveq 0x3, d1
           0x00743a7c      554f           subq.w 0x2, a7
           0x00743a7e      3f3c001f       move.w 0x1f, -(a7)
           0x00743a82      4e90           jsr (a0)                    ; fcn.00000009
           0x00743a84      544f           addq.w 0x2, a7
           0x00743a86      4a1f           tst.b (a7)+
       < 0x00743a88      6704           beq.b 0x743a8e
          0x00743a8a      7e01           moveq 0x1, d7
      < 0x00743a8c      6002           bra.b 0x743a90
      > 0x00743a8e      7e00           moveq 0x0, d7
      > 0x00743a90      514f           subq.w 0x8, a7
           0x00743a92      4eb9006339f2   jsr HANDCOM.get_picture_are
           0x00743a98      229f           move.l (a7)+, (a1)
           0x00743a9a      249f           move.l (a7)+, (a2)
           0x00743a9c      1f3aa2ea       move.b 0x73dd88(pc), -(a7)
           0x00743aa0      4eb90063278a   jsr CACHECOM.clear_cache
           0x00743aa6      1e80           move.b d0, (a7)
           0x00743aa8      4227           clr.b -(a7)
           0x00743aaa      1f3c0004       move.b 0x4, -(a7)
           0x00743aae      2f3aa2da       move.l 0x73dd8a(pc), -(a7)
           0x00743ab2      2f12           move.l (a2), -(a7)
           0x00743ab4      2f11           move.l (a1), -(a7)
           0x00743ab6      4eb900522722   jsr BRUSHCOM.str_any_str_cop
           0x00743abc      defc000e       adda.w 0xe, a7
           0x00743ac0      2e92           move.l (a2), (a7)
           0x00743ac2      2f11           move.l (a1), -(a7)
           0x00743ac4      2f3aa2c8       move.l 0x73dd8e(pc), -(a7)
           0x00743ac8      554f           subq.w 0x2, a7
           0x00743aca      3f3900869442   move.w 0x869442, -(a7)
           0x00743ad0      4e90           jsr (a0)                    ; fcn.00000009
           0x00743ad2      1e81           move.b d1, (a7)
           0x00743ad4      1f07           move.b d7, -(a7)
           0x00743ad6      4eb90052aa42   jsr BRUSH2COM.br_field_interp
           0x00743adc      defc0010       adda.w 0x10, a7
           0x00743ae0      3ebc4000       move.w 0x4000, (a7)
           0x00743ae4      4eb900521034   jsr BRUSHCOM.br_pressure
           0x00743aea      544f           addq.w 0x2, a7
           0x00743aec      3d53ffec       move.w (a3), -0x14(a6)
           0x00743af0      3d6c000affee   move.w 0xa(a4), -0x12(a6)
           0x00743af6      554f           subq.w 0x2, a7
           0x00743af8      3f3c002c       move.w 0x2c, -(a7)
           0x00743afc      4e90           jsr (a0)                    ; fcn.00000009
           0x00743afe      544f           addq.w 0x2, a7
           0x00743b00      4a1f           tst.b (a7)+
       < 0x00743b02      6720           beq.b 0x743b24
          0x00743b04      1f00           move.b d0, -(a7)
          0x00743b06      4227           clr.b -(a7)
          0x00743b08      2f2c000c       move.l 0xc(a4), -(a7)
          0x00743b0c      2f13           move.l (a3), -(a7)
          0x00743b0e      2f2effec       move.l -0x14(a6), -(a7)
          0x00743b12      1f00           move.b d0, -(a7)
          0x00743b14      4227           clr.b -(a7)
          0x00743b16      4227           clr.b -(a7)
          0x00743b18      4eb9005233f0   jsr BRUSHCOM.br_paste
          0x00743b1e      defc0016       adda.w 0x16, a7
      < 0x00743b22      601a           bra.b 0x743b3e
      > 0x00743b24      1f01           move.b d1, -(a7)
          0x00743b26      1f00           move.b d0, -(a7)
          0x00743b28      1f07           move.b d7, -(a7)
          0x00743b2a      2f2effec       move.l -0x14(a6), -(a7)
          0x00743b2e      2f2c000c       move.l 0xc(a4), -(a7)
          0x00743b32      2f13           move.l (a3), -(a7)
          0x00743b34      4eb900522722   jsr BRUSHCOM.str_any_str_cop
          0x00743b3a      defc0012       adda.w 0x12, a7
      > 0x00743b3e      554f           subq.w 0x2, a7
           0x00743b40      4eb900402f52   jsr p_Flagged
           0x00743b46      1d5f0008       move.b (a7)+, 0x8(a6)
           0x00743b4a      4cdf0f83       movem.l (a7)+, d0-d1/d7/a0-a3
           0x00743b4e      4e5e           unlk a6
           0x00743b50      4e75           rts
            ; CALL XREF from MENUEFFECTCOM.do_effects @ 0x7440c4
 510: MENUEFFECTCOM.do_mosaic ();
           ; var int32_t var_1eh @ a6-0x1e
           0x00743b52      4e56ff8e       link.w a6, 0xff8e
           0x00743b56      bfd5           cmpa.l (a5), a7
       < 0x00743b58      6206           bhi.b 0x743b60
          0x00743b5a      44fc0002       move.w 0x2, ccr
          0x00743b5e      4e76           trapv
       > 0x00743b60      defc0054       adda.w 0x54, a7
           0x00743b64      48e7fff0       movem.l d0-d7/a0-a3, -(a7)
           0x00743b68      41eeffec       lea.l -0x14(a6), a0
           0x00743b6c      43eefff8       lea.l -0x8(a6), a1
           0x00743b70      45eeffe8       lea.l -0x18(a6), a2
           0x00743b74      47eefff0       lea.l -0x10(a6), a3
           0x00743b78      7802           moveq 0x2, d4
           0x00743b7a      554f           subq.w 0x2, a7
           0x00743b7c      3f3c001f       move.w 0x1f, -(a7)
           0x00743b80      4eb900480fc2   jsr MENUCOM.get_boxon
           0x00743b86      544f           addq.w 0x2, a7
           0x00743b88      4a1f           tst.b (a7)+
       < 0x00743b8a      6714           beq.b 0x743ba0
          0x00743b8c      1d7c0001ffe3   move.b 0x1, -0x1d(a6)
          0x00743b92      3f3c4000       move.w 0x4000, -(a7)
          0x00743b96      4eb900521034   jsr BRUSHCOM.br_pressure
          0x00743b9c      544f           addq.w 0x2, a7
      < 0x00743b9e      6004           bra.b 0x743ba4
      > 0x00743ba0      422effe3       clr.b -0x1d(a6)
      > 0x00743ba4      514f           subq.w 0x8, a7
           0x00743ba6      3f390086944a   move.w 0x86944a, -(a7)
           0x00743bac      4eb90048d992   jsr MENU2COM.get_numeric_val
           0x00743bb2      544f           addq.w 0x2, a7
           0x00743bb4      4eb9004081f8   jsr p_trunc
           0x00743bba      584f           addq.w 0x4, a7
           0x00743bbc      3e2f0002       move.w 0x2(a7), d7
           0x00743bc0      594f           subq.w 0x4, a7
           0x00743bc2      3f3900869448   move.w 0x869448, -(a7)
           0x00743bc8      4eb90048d992   jsr MENU2COM.get_numeric_val
           0x00743bce      544f           addq.w 0x2, a7
           0x00743bd0      4eb9004081f8   jsr p_trunc
           0x00743bd6      584f           addq.w 0x4, a7
           0x00743bd8      32af0002       move.w 0x2(a7), (a1)
           0x00743bdc      584f           addq.w 0x4, a7
           0x00743bde      48c7           ext.l d7
           0x00743be0      2007           move.l d7, d0
           0x00743be2      81c4           divs.w d4, d0
           0x00743be4      322c0008       move.w 0x8(a4), d1
           0x00743be8      48c1           ext.l d1
           0x00743bea      48c0           ext.l d0
           0x00743bec      d081           add.l d1, d0
           0x00743bee      3480           move.w d0, (a2)
           0x00743bf0      3011           move.w (a1), d0
           0x00743bf2      48c0           ext.l d0
           0x00743bf4      81c4           divs.w d4, d0
           0x00743bf6      342c000a       move.w 0xa(a4), d2
           0x00743bfa      48c2           ext.l d2
           0x00743bfc      48c0           ext.l d0
           0x00743bfe      d082           add.l d2, d0
           0x00743c00      3d40ffea       move.w d0, -0x16(a6)
           0x00743c04      3081           move.w d1, (a0)
           0x00743c06      3687           move.w d7, (a3)
           0x00743c08      3d42ffee       move.w d2, -0x12(a6)
           0x00743c0c      3d51fff2       move.w (a1), -0xe(a6)
           0x00743c10      302c000c       move.w 0xc(a4), d0
           0x00743c14      48c0           ext.l d0
           0x00743c16      d081           add.l d1, d0
           0x00743c18      5380           subq.l 0x1, d0
           0x00743c1a      3c00           move.w d0, d6
           0x00743c1c      302c000e       move.w 0xe(a4), d0
           0x00743c20      48c0           ext.l d0
           0x00743c22      d082           add.l d2, d0
           0x00743c24      5380           subq.l 0x1, d0
           0x00743c26      3a00           move.w d0, d5
           0x00743c28      48c7           ext.l d7
           0x00743c2a      2007           move.l d7, d0
           0x00743c2c      81c4           divs.w d4, d0
           0x00743c2e      322c0008       move.w 0x8(a4), d1
           0x00743c32      48c1           ext.l d1
           0x00743c34      48c0           ext.l d0
           0x00743c36      d081           add.l d1, d0
       > 0x00743c38      342effee       move.w -0x12(a6), d2
          0x00743c3c      48c2           ext.l d2
          0x00743c3e      362efff2       move.w -0xe(a6), d3
          0x00743c42      48c3           ext.l d3
          0x00743c44      d682           add.l d2, d3
          0x00743c46      48c5           ext.l d5
          0x00743c48      b685           cmp.l d5, d3
      < 0x00743c4a      6f0a           ble.b 0x743c56
         0x00743c4c      48c5           ext.l d5
         0x00743c4e      2605           move.l d5, d3
         0x00743c50      9682           sub.l d2, d3
         0x00743c52      3d43fff2       move.w d3, -0xe(a6)
     > 0x00743c56      3410           move.w (a0), d2
         0x00743c58      48c2           ext.l d2
         0x00743c5a      3613           move.w (a3), d3
         0x00743c5c      48c3           ext.l d3
         0x00743c5e      d682           add.l d2, d3
         0x00743c60      48c6           ext.l d6
         0x00743c62      b686           cmp.l d6, d3
     < 0x00743c64      6f08           ble.b 0x743c6e
        0x00743c66      48c6           ext.l d6
        0x00743c68      2606           move.l d6, d3
        0x00743c6a      9682           sub.l d2, d3
        0x00743c6c      3683           move.w d3, (a3)
     > 0x00743c6e      5d4f           subq.w 0x6, a7
         0x00743c70      1f04           move.b d4, -(a7)
         0x00743c72      1f2effe3       move.b -0x1d(a6), -(a7)
         0x00743c76      2f12           move.l (a2), -(a7)
         0x00743c78      4eb900521048   jsr BRUSHCOM.br_get_colour
         0x00743c7e      504f           addq.w 0x8, a7
         0x00743c80      4eb900520fa4   jsr BRUSHCOM.set_br_colour
         0x00743c86      544f           addq.w 0x2, a7
         0x00743c88      3ebc002c       move.w 0x2c, (a7)
         0x00743c8c      4eb900480fc2   jsr MENUCOM.get_boxon
         0x00743c92      544f           addq.w 0x2, a7
         0x00743c94      4a1f           tst.b (a7)+
     < 0x00743c96      671e           beq.b 0x743cb6
        0x00743c98      1f04           move.b d4, -(a7)
        0x00743c9a      4227           clr.b -(a7)
        0x00743c9c      2f13           move.l (a3), -(a7)
        0x00743c9e      2f10           move.l (a0), -(a7)
        0x00743ca0      2f10           move.l (a0), -(a7)
        0x00743ca2      1f04           move.b d4, -(a7)
        0x00743ca4      4227           clr.b -(a7)
        0x00743ca6      1f3c0001       move.b 0x1, -(a7)
        0x00743caa      4eb9005233f0   jsr BRUSHCOM.br_paste
        0x00743cb0      defc0016       adda.w 0x16, a7
    < 0x00743cb4      6014           bra.b 0x743cca
    > 0x00743cb6      1f04           move.b d4, -(a7)
        0x00743cb8      1f2effe3       move.b -0x1d(a6), -(a7)
        0x00743cbc      2f13           move.l (a3), -(a7)
        0x00743cbe      2f10           move.l (a0), -(a7)
        0x00743cc0      4eb9005213b4   jsr BRUSHCOM.br_wipe
        0x00743cc6      defc000c       adda.w 0xc, a7
    > 0x00743cca      3412           move.w (a2), d2
         0x00743ccc      48c2           ext.l d2
         0x00743cce      48c7           ext.l d7
         0x00743cd0      d487           add.l d7, d2
         0x00743cd2      3482           move.w d2, (a2)
         0x00743cd4      b446           cmp.w d6, d2
     < 0x00743cd6      6f0a           ble.b 0x743ce2
        0x00743cd8      48c2           ext.l d2
        0x00743cda      48c7           ext.l d7
        0x00743cdc      2602           move.l d2, d3
        0x00743cde      9687           sub.l d7, d3
        0x00743ce0      3483           move.w d3, (a2)
     > 0x00743ce2      3410           move.w (a0), d2
         0x00743ce4      48c2           ext.l d2
         0x00743ce6      48c7           ext.l d7
         0x00743ce8      d487           add.l d7, d2
         0x00743cea      3082           move.w d2, (a0)
         0x00743cec      b446           cmp.w d6, d2
     < 0x00743cee      6d00ff66       blt.w 0x743c56
          0x00743cf2      3480           move.w d0, (a2)
          0x00743cf4      3081           move.w d1, (a0)
          0x00743cf6      3687           move.w d7, (a3)
          0x00743cf8      342effea       move.w -0x16(a6), d2
          0x00743cfc      48c2           ext.l d2
          0x00743cfe      3611           move.w (a1), d3
          0x00743d00      48c3           ext.l d3
          0x00743d02      d682           add.l d2, d3
          0x00743d04      3d43ffea       move.w d3, -0x16(a6)
          0x00743d08      b645           cmp.w d5, d3
      < 0x00743d0a      6f0e           ble.b 0x743d1a
         0x00743d0c      48c3           ext.l d3
         0x00743d0e      3411           move.w (a1), d2
         0x00743d10      48c2           ext.l d2
         0x00743d12      4482           neg.l d2
         0x00743d14      d483           add.l d3, d2
         0x00743d16      3d42ffea       move.w d2, -0x16(a6)
      > 0x00743d1a      342effee       move.w -0x12(a6), d2
          0x00743d1e      48c2           ext.l d2
          0x00743d20      3611           move.w (a1), d3
          0x00743d22      48c3           ext.l d3
          0x00743d24      d682           add.l d2, d3
          0x00743d26      3d43ffee       move.w d3, -0x12(a6)
          0x00743d2a      554f           subq.w 0x2, a7
          0x00743d2c      4eb900402f52   jsr p_Flagged
          0x00743d32      1d5fffe2       move.b (a7)+, -0x1e(a6)
          0x00743d36      b645           cmp.w d5, d3
      < 0x00743d38      6c08           bge.b 0x743d42
         0x00743d3a      4a2effe2       tst.b -0x1e(a6)
      < 0x00743d3e      6700fef8       beq.w 0x743c38
      > 0x00743d42      1d6effe20008   move.b -0x1e(a6), 0x8(a6)
           0x00743d48      4cdf0fff       movem.l (a7)+, d0-d7/a0-a3
           0x00743d4c      4e5e           unlk a6
           0x00743d4e      4e75           rts
            ; CALL XREF from MENUEFFECTCOM.do_effects @ 0x7440aa
 90: MENUEFFECTCOM.do_slow_col_map ();
           0x00743d50      4e56fb86       link.w a6, 0xfb86
           0x00743d54      bfd5           cmpa.l (a5), a7
       < 0x00743d56      6206           bhi.b 0x743d5e
          0x00743d58      44fc0002       move.w 0x2, ccr
          0x00743d5c      4e76           trapv
       > 0x00743d5e      defc005c       adda.w 0x5c, a7
           0x00743d62      48e7fff0       movem.l d0-d7/a0-a3, -(a7)
           0x00743d66      43ec000c       lea.l 0xc(a4), a1
           0x00743d6a      45ec0008       lea.l 0x8(a4), a2
           0x00743d6e      47f90051f338   lea.l BRUSHCOM.b_control_state, a3
           0x00743d74      7402           moveq 0x2, d2
           0x00743d76      760a           moveq 0xa, d3
           0x00743d78      7800           moveq 0x0, d4
           0x00743d7a      514f           subq.w 0x8, a7
           0x00743d7c      4eb9006361e4   jsr PALETCOM.get_mix_area
           0x00743d82      2d5ffff8       move.l (a7)+, -0x8(a6)
           0x00743d86      2d5ffffc       move.l (a7)+, -0x4(a6)
           0x00743d8a      302efffe       move.w -0x2(a6), d0
           0x00743d8e      48c0           ext.l d0
           0x00743d90      81c2           divs.w d2, d0
           0x00743d92      322efffa       move.w -0x6(a6), d1
           0x00743d96      48c1           ext.l d1
           0x00743d98      48c0           ext.l d0
           0x00743d9a      d081           add.l d1, d0
           0x00743d9c      3d40ffec       move.w d0, -0x14(a6)
           0x00743da0      7e00           moveq 0x0, d7
       > 0x00743da2      3007           move.w d7, d0
          0x00743da4      c0eefffc       mulu.w -0x4(a6), d0
          0x00743da8      4c7c00000000.  divu.l 0x100, d0
           0x00743db0      322efff8       move.w -0x8(a6), d1
           0x00743db4      48c1           ext.l d1
           0x00743db6      d081           add.l d1, d0
           0x00743db8      3d40ffea       move.w d0, -0x16(a6)
           0x00743dbc      5d4f           subq.w 0x6, a7
           0x00743dbe      1f02           move.b d2, -(a7)
           0x00743dc0      4227           clr.b -(a7)
           0x00743dc2      2f2effea       move.l -0x16(a6), -(a7)
           0x00743dc6      4eb900521048   jsr BRUSHCOM.br_get_colour
           0x00743dcc      504f           addq.w 0x8, a7
           0x00743dce      2d5ffff2       move.l (a7)+, -0xe(a6)
           0x00743dd2      3d5ffff6       move.w (a7)+, -0xa(a6)
           0x00743dd6      02870000ffff   andi.l 0xffff, d7
           0x00743ddc      302efff4       move.w -0xc(a6), d0
           0x00743de0      48c0           ext.l d0
           0x00743de2      e180           asl.l 0x8, d0
           0x00743de4      322efff2       move.w -0xe(a6), d1
           0x00743de8      48c1           ext.l d1
           0x00743dea      8081           or.l d1, d0
           0x00743dec      3d807b20fbe4   move.w d0, 0xfbe4(a6, d7.l * 2)
           0x00743df2      302efff6       move.w -0xa(a6), d0
           0x00743df6      48c0           ext.l d0
           0x00743df8      e180           asl.l 0x8, d0
           0x00743dfa      8280           or.l d0, d1
           0x00743dfc      3d817b20fde4   move.w d1, 0xfde4(a6, d7.l * 2)
           0x00743e02      5247           addq.w 0x1, d7
           0x00743e04      0c4700ff       cmpi.w 0xff, d7
        < 0x00743e08      6398           bls.b 0x743da2              ; MENUEFFECTCOM.do_slow_col_map+0x52
            0x00743e0a      3012           move.w (a2), d0
            0x00743e0c      0900           btst.l d4, d0
        < 0x00743e0e      6710           beq.b 0x743e20
           0x00743e10      3012           move.w (a2), d0
           0x00743e12      48c0           ext.l d0
           0x00743e14      5380           subq.l 0x1, d0
           0x00743e16      3480           move.w d0, (a2)
           0x00743e18      3011           move.w (a1), d0
           0x00743e1a      48c0           ext.l d0
           0x00743e1c      5280           addq.l 0x1, d0
           0x00743e1e      3280           move.w d0, (a1)
        > 0x00743e20      3011           move.w (a1), d0
            0x00743e22      0900           btst.l d4, d0
        < 0x00743e24      6708           beq.b 0x743e2e
           0x00743e26      3011           move.w (a1), d0
           0x00743e28      48c0           ext.l d0
           0x00743e2a      5280           addq.l 0x1, d0
           0x00743e2c      3280           move.w d0, (a1)
        > 0x00743e2e      554f           subq.w 0x2, a7
            0x00743e30      3f3c001f       move.w 0x1f, -(a7)
            0x00743e34      4eb900480fc2   jsr MENUCOM.get_boxon
            0x00743e3a      544f           addq.w 0x2, a7
            0x00743e3c      4a1f           tst.b (a7)+
        < 0x00743e3e      6724           beq.b 0x743e64
           0x00743e40      554f           subq.w 0x2, a7
           0x00743e42      2f11           move.l (a1), -(a7)
           0x00743e44      2f12           move.l (a2), -(a7)
           0x00743e46      41eefbe4       lea.l -0x41c(a6), a0
           0x00743e4a      2f08           move.l a0, -(a7)
           0x00743e4c      41eefde4       lea.l -0x21c(a6), a0
           0x00743e50      2f08           move.l a0, -(a7)
           0x00743e52      9ec3           suba.w d3, a7
           0x00743e54      3f3c0039       move.w 0x39, -(a7)
           0x00743e58      4e93           jsr (a3)                    ; fcn.0000000c
           0x00743e5a      514f           subq.w 0x8, a7
           0x00743e5c      3f3c0045       move.w 0x45, -(a7)
       < 0x00743e60      600000c4       bra.w 0x743f26
       > 0x00743e64      554f           subq.w 0x2, a7
           0x00743e66      3f3c002c       move.w 0x2c, -(a7)
           0x00743e6a      4eb900480fc2   jsr MENUCOM.get_boxon
           0x00743e70      544f           addq.w 0x2, a7
           0x00743e72      4a1f           tst.b (a7)+
       < 0x00743e74      67000090       beq.w 0x743f06
          0x00743e78      3a2c000e       move.w 0xe(a4), d5
          0x00743e7c      397c0001000e   move.w 0x1, 0xe(a4)
          0x00743e82      7e00           moveq 0x0, d7
      > 0x00743e84      554f           subq.w 0x2, a7
         0x00743e86      2f11           move.l (a1), -(a7)
         0x00743e88      2f12           move.l (a2), -(a7)
         0x00743e8a      41eefbe4       lea.l -0x41c(a6), a0
         0x00743e8e      2f08           move.l a0, -(a7)
         0x00743e90      41eefde4       lea.l -0x21c(a6), a0
         0x00743e94      2f08           move.l a0, -(a7)
         0x00743e96      9ec3           suba.w d3, a7
         0x00743e98      3f3c0036       move.w 0x36, -(a7)
         0x00743e9c      4e93           jsr (a3)                    ; fcn.0000000c
         0x00743e9e      514f           subq.w 0x8, a7
         0x00743ea0      3f3c0043       move.w 0x43, -(a7)
         0x00743ea4      4e93           jsr (a3)                    ; fcn.0000000c
         0x00743ea6      544f           addq.w 0x2, a7
         0x00743ea8      4eb900517040   jsr 0x517040
         0x00743eae      defc0024       adda.w 0x24, a7
         0x00743eb2      1c1f           move.b (a7)+, d6
         0x00743eb4      3d52ffee       move.w (a2), -0x12(a6)
         0x00743eb8      3d6c000afff0   move.w 0xa(a4), -0x10(a6)
         0x00743ebe      3f3c4000       move.w 0x4000, -(a7)
         0x00743ec2      4eb900521034   jsr BRUSHCOM.br_pressure
         0x00743ec8      1e82           move.b d2, (a7)
         0x00743eca      4227           clr.b -(a7)
         0x00743ecc      2f11           move.l (a1), -(a7)
         0x00743ece      2f12           move.l (a2), -(a7)
         0x00743ed0      2f2effee       move.l -0x12(a6), -(a7)
         0x00743ed4      1f02           move.b d2, -(a7)
         0x00743ed6      4227           clr.b -(a7)
         0x00743ed8      4227           clr.b -(a7)
         0x00743eda      4eb9005233f0   jsr BRUSHCOM.br_paste
         0x00743ee0      defc0016       adda.w 0x16, a7
         0x00743ee4      302c000a       move.w 0xa(a4), d0
         0x00743ee8      48c0           ext.l d0
         0x00743eea      5280           addq.l 0x1, d0
         0x00743eec      3940000a       move.w d0, 0xa(a4)
         0x00743ef0      02870000ffff   andi.l 0xffff, d7
         0x00743ef6      5287           addq.l 0x1, d7
         0x00743ef8      4a06           tst.b d6
     < 0x00743efa      6604           bne.b 0x743f00
        0x00743efc      be45           cmp.w d5, d7
     < 0x00743efe      6384           bls.b 0x743e84
     > 0x00743f00      1d460008       move.b d6, 0x8(a6)
      < 0x00743f04      6032           bra.b 0x743f38
      > 0x00743f06      554f           subq.w 0x2, a7
          0x00743f08      2f11           move.l (a1), -(a7)
          0x00743f0a      2f12           move.l (a2), -(a7)
          0x00743f0c      41eefbe4       lea.l -0x41c(a6), a0
          0x00743f10      2f08           move.l a0, -(a7)
          0x00743f12      41eefde4       lea.l -0x21c(a6), a0
          0x00743f16      2f08           move.l a0, -(a7)
          0x00743f18      9ec3           suba.w d3, a7
          0x00743f1a      3f3c0036       move.w 0x36, -(a7)
          0x00743f1e      4e93           jsr (a3)                    ; fcn.0000000c
          0x00743f20      514f           subq.w 0x8, a7
          0x00743f22      3f3c0042       move.w 0x42, -(a7)
      > 0x00743f26      4e93           jsr (a3)                    ; fcn.0000000c
           0x00743f28      544f           addq.w 0x2, a7
           0x00743f2a      4eb900517040   jsr 0x517040
           0x00743f30      defc0024       adda.w 0x24, a7
           0x00743f34      1d5f0008       move.b (a7)+, 0x8(a6)
      > 0x00743f38      4cdf0fff       movem.l (a7)+, d0-d7/a0-a3
            0x00743f3c      4e5e           unlk a6
            0x00743f3e      4e75           rts
            ; CALL XREF from MENUEFFECTCOM.do_effects @ 0x744128
 54: MENUEFFECTCOM.do_doter ();
           0x00743f40      4e56ffd6       link.w a6, 0xffd6
           0x00743f44      bfd5           cmpa.l (a5), a7
       < 0x00743f46      6206           bhi.b 0x743f4e
          0x00743f48      44fc0002       move.w 0x2, ccr
          0x00743f4c      4e76           trapv
       > 0x00743f4e      defc002a       adda.w 0x2a, a7
           0x00743f52      48e7c0c0       movem.l d0-d1/a0-a1, -(a7)
           0x00743f56      41ec0008       lea.l 0x8(a4), a0
           0x00743f5a      43ec000c       lea.l 0xc(a4), a1
           0x00743f5e      7202           moveq 0x2, d1
           0x00743f60      102c0010       move.b 0x10(a4), d0
           0x00743f64      4880           ext.w d0
           0x00743f66      b041           cmp.w d1, d0
       < 0x00743f68      62000088       bhi.w 0x743ff2
          0x00743f6c      d040           add.w d0, d0
          0x00743f6e      303b0006       move.w 0x743f76(pc, d0.w), d0
          0x00743f72      4efb0002       jmp 0x743f76(pc, d0.w)
           0x00743f76      0006005c       ori.b 0x5c, d6
           0x00743f7a      00764ebaf684   ori.w 0x4eba, -0x7c(a6, a7.w)
           0x00743f80      4227           clr.b -(a7)
           0x00743f82      2f11           move.l (a1), -(a7)
           0x00743f84      2f10           move.l (a0), -(a7)
           0x00743f86      4ebaf1f4       jsr MENUEFFECTCOM.do_dots(pc)
           0x00743f8a      5c4f           addq.w 0x6, a7
           0x00743f8c      3ebc002c       move.w 0x2c, (a7)
           0x00743f90      4eb900480fc2   jsr MENUCOM.get_boxon
           0x00743f96      544f           addq.w 0x2, a7
           0x00743f98      4a1f           tst.b (a7)+
       < 0x00743f9a      671c           beq.b 0x743fb8
          0x00743f9c      1f01           move.b d1, -(a7)
          0x00743f9e      4227           clr.b -(a7)
          0x00743fa0      2f11           move.l (a1), -(a7)
          0x00743fa2      2f10           move.l (a0), -(a7)
          0x00743fa4      2f10           move.l (a0), -(a7)
          0x00743fa6      1f01           move.b d1, -(a7)
          0x00743fa8      4227           clr.b -(a7)
          0x00743faa      4227           clr.b -(a7)
          0x00743fac      4eb9005233f0   jsr BRUSHCOM.br_paste
          0x00743fb2      defc0016       adda.w 0x16, a7
      < 0x00743fb6      6018           bra.b 0x743fd0
      > 0x00743fb8      1f3c0003       move.b 0x3, -(a7)
          0x00743fbc      1f01           move.b d1, -(a7)
          0x00743fbe      4227           clr.b -(a7)
          0x00743fc0      2f10           move.l (a0), -(a7)
          0x00743fc2      2f11           move.l (a1), -(a7)
          0x00743fc4      2f10           move.l (a0), -(a7)
          0x00743fc6      4eb900522722   jsr BRUSHCOM.str_any_str_cop
          0x00743fcc      defc0012       adda.w 0x12, a7
      < 0x00743fd0      6020           bra.b 0x743ff2
          0x00743fd2      1f3c0004       move.b 0x4, -(a7)
      > 0x00743fd6      514f           subq.w 0x8, a7
         0x00743fd8      4227           clr.b -(a7)
         0x00743fda      4eb9006336ea   jsr HANDCOM.get_area
         0x00743fe0      544f           addq.w 0x2, a7
         0x00743fe2      4ebaf198       jsr MENUEFFECTCOM.do_dots(pc)
         0x00743fe6      defc000a       adda.w 0xa, a7
     < 0x00743fea      6006           bra.b 0x743ff2
        0x00743fec      1f3c0005       move.b 0x5, -(a7)
     < 0x00743ff0      60e4           bra.b 0x743fd6
     > 0x00743ff2      554f           subq.w 0x2, a7
            0x00743ff4      4eb900402f52   jsr p_Flagged
            0x00743ffa      1d5f0008       move.b (a7)+, 0x8(a6)
            0x00743ffe      4cdf0303       movem.l (a7)+, d0-d1/a0-a1
            0x00744002      4e5e           unlk a6
            0x00744004      4e75           rts
            ; CALL XREF from MENUEFFECTCOM.hit_do_all @ 0x7451e6
            ; CALL XREF from MENUEFFECTCOM.do_effect_area @ 0x74588c
 312: MENUEFFECTCOM.do_effects ();
           0x00744006      4e56fff0       link.w a6, 0xfff0
           0x0074400a      bfd5           cmpa.l (a5), a7
       < 0x0074400c      6206           bhi.b 0x744014
          0x0074400e      44fc0002       move.w 0x2, ccr
          0x00744012      4e76           trapv
       > 0x00744014      defc0010       adda.w 0x10, a7
           0x00744018      48e70088       movem.l a0/a4, -(a7)
           0x0074401c      41f900480fc2   lea.l MENUCOM.get_boxon, a0
           0x00744022      4227           clr.b -(a7)
           0x00744024      4eb900522436   jsr BRUSHCOM.set_write_en
           0x0074402a      3f390086943a   move.w 0x86943a, -(a7)
           0x00744030      4e90           jsr (a0)                    ; fcn.00000009
           0x00744032      544f           addq.w 0x2, a7
           0x00744034      4a1f           tst.b (a7)+
       < 0x00744036      6710           beq.b 0x744048
          0x00744038      554f           subq.w 0x2, a7
          0x0074403a      284e           movea.l a6, a4
          0x0074403c      4ebaf996       jsr MENUEFFECTCOM.do_overlayer(pc)
 > 0x00744040      1d5f0012       move.b (a7)+, 0x12(a6)
 < 0x00744044      600000f0       bra.w 0x744136
 > 0x00744048      554f           subq.w 0x2, a7
     0x0074404a      3f390086942a   move.w 0x86942a, -(a7)
     0x00744050      4e90           jsr (a0)                    ; fcn.00000009
     0x00744052      544f           addq.w 0x2, a7
     0x00744054      4a1f           tst.b (a7)+
 < 0x00744056      670a           beq.b 0x744062
    0x00744058      554f           subq.w 0x2, a7
    0x0074405a      284e           movea.l a6, a4
    0x0074405c      4ebaf5ee       jsr MENUEFFECTCOM.do_hiconer(pc)
 < 0x00744060      60de           bra.b 0x744040
 > 0x00744062      554f           subq.w 0x2, a7
     0x00744064      3f390086944c   move.w 0x86944c, -(a7)
     0x0074406a      4e90           jsr (a0)                    ; fcn.00000009
     0x0074406c      544f           addq.w 0x2, a7
     0x0074406e      4a1f           tst.b (a7)+
 < 0x00744070      670a           beq.b 0x74407c
    0x00744072      554f           subq.w 0x2, a7
    0x00744074      284e           movea.l a6, a4
    0x00744076      4ebaf678       jsr MENUEFFECTCOM.do_keyer(pc)
 < 0x0074407a      60c4           bra.b 0x744040
 > 0x0074407c      554f           subq.w 0x2, a7
     0x0074407e      3f3900869440   move.w 0x869440, -(a7)
     0x00744084      4e90           jsr (a0)                    ; fcn.00000009
     0x00744086      544f           addq.w 0x2, a7
     0x00744088      4a1f           tst.b (a7)+
 < 0x0074408a      670a           beq.b 0x744096
    0x0074408c      554f           subq.w 0x2, a7
    0x0074408e      284e           movea.l a6, a4
    0x00744090      4ebaf9be       jsr MENUEFFECTCOM.do_field(pc)
 < 0x00744094      60aa           bra.b 0x744040
  > 0x00744096      554f           subq.w 0x2, a7
      0x00744098      3f390086943e   move.w 0x86943e, -(a7)
      0x0074409e      4e90           jsr (a0)                    ; fcn.00000009
      0x007440a0      544f           addq.w 0x2, a7
      0x007440a2      4a1f           tst.b (a7)+
  < 0x007440a4      670a           beq.b 0x7440b0
     0x007440a6      554f           subq.w 0x2, a7
     0x007440a8      284e           movea.l a6, a4
     0x007440aa      4ebafca4       jsr MENUEFFECTCOM.do_slow_col_map(pc)
  < 0x007440ae      6090           bra.b 0x744040
   > 0x007440b0      554f           subq.w 0x2, a7
       0x007440b2      3f3900869446   move.w 0x869446, -(a7)
       0x007440b8      4e90           jsr (a0)                    ; fcn.00000009
       0x007440ba      544f           addq.w 0x2, a7
       0x007440bc      4a1f           tst.b (a7)+
   < 0x007440be      670c           beq.b 0x7440cc
      0x007440c0      554f           subq.w 0x2, a7
      0x007440c2      284e           movea.l a6, a4
      0x007440c4      4ebafa8c       jsr MENUEFFECTCOM.do_mosaic(pc)
   < 0x007440c8      6000ff76       bra.w 0x744040
    > 0x007440cc      554f           subq.w 0x2, a7
        0x007440ce      3f3900869aa6   move.w 0x869aa6, -(a7)
        0x007440d4      4e90           jsr (a0)                    ; fcn.00000009
        0x007440d6      544f           addq.w 0x2, a7
        0x007440d8      4a1f           tst.b (a7)+
    < 0x007440da      670c           beq.b 0x7440e8
       0x007440dc      554f           subq.w 0x2, a7
       0x007440de      284e           movea.l a6, a4
       0x007440e0      4ebaf71c       jsr MENUEFFECTCOM.do_colourer(pc)
    < 0x007440e4      6000ff5a       bra.w 0x744040
     > 0x007440e8      554f           subq.w 0x2, a7
         0x007440ea      3f390086bbe6   move.w 0x86bbe6, -(a7)
         0x007440f0      4e90           jsr (a0)                    ; fcn.00000009
         0x007440f2      544f           addq.w 0x2, a7
         0x007440f4      4a1f           tst.b (a7)+
     < 0x007440f6      6610           bne.b 0x744108
        0x007440f8      554f           subq.w 0x2, a7
        0x007440fa      3f390086bbea   move.w 0x86bbea, -(a7)
        0x00744100      4e90           jsr (a0)                    ; fcn.00000009
        0x00744102      544f           addq.w 0x2, a7
        0x00744104      4a1f           tst.b (a7)+
    < 0x00744106      670c           beq.b 0x744114
    > 0x00744108      554f           subq.w 0x2, a7
        0x0074410a      284e           movea.l a6, a4
        0x0074410c      4ebaf806       jsr MENUEFFECTCOM.do_blur_grower(pc)
    < 0x00744110      6000ff2e       bra.w 0x744040
    > 0x00744114      554f           subq.w 0x2, a7
          0x00744116      3f390086bbd4   move.w 0x86bbd4, -(a7)
          0x0074411c      4e90           jsr (a0)                    ; fcn.00000009
          0x0074411e      544f           addq.w 0x2, a7
          0x00744120      4a1f           tst.b (a7)+
      < 0x00744122      670c           beq.b 0x744130
         0x00744124      554f           subq.w 0x2, a7
         0x00744126      284e           movea.l a6, a4
         0x00744128      4ebafe16       jsr MENUEFFECTCOM.do_doter(pc)
      < 0x0074412c      6000ff12       bra.w 0x744040
       > 0x00744130      1d7c00010012   move.b 0x1, 0x12(a6)
 > 0x00744136      4cdf1100       movem.l (a7)+, a0/a4
           0x0074413a      4e5e           unlk a6
           0x0074413c      4e75           rts
            ; CALL XREF from K91_LIBOPS.save_effects_se @ 0x64fea4
 24: MENUEFFECTCOM.get_eff_data ();
           0x0074413e      4e56ffcc       link.w a6, 0xffcc
           0x00744142      bfd5           cmpa.l (a5), a7
       < 0x00744144      6206           bhi.b 0x74414c
          0x00744146      44fc0002       move.w 0x2, ccr
          0x0074414a      4e76           trapv
       > 0x0074414c      defc0034       adda.w 0x34, a7
           0x00744150      48e7e0c0       movem.l d0-d2/a0-a1, -(a7)
           0x00744154      f227e001       fmovem fp0, -(a7)
            0x00744158      43f90048d992   lea.l MENU2COM.get_numeric_val, a1
            0x0074415e      7401           moveq 0x1, d2
            0x00744160      206e0008       movea.l 0x8(a6), a0
            0x00744164      2082           move.l d2, (a0)
            0x00744166      302e000c       move.w 0xc(a6), d0
            0x0074416a      b042           cmp.w d2, d0
        < 0x0074416c      660000d0       bne.w 0x74423e
           0x00744170      554f           subq.w 0x2, a7
           0x00744172      3f390086944e   move.w 0x86944e, -(a7)
           0x00744178      4eb900480fc2   jsr MENUCOM.get_boxon
           0x0074417e      544f           addq.w 0x2, a7
           0x00744180      121f           move.b (a7)+, d1
           0x00744182      49c1           extb.l d1
           0x00744184      f2014000       fmove.l d1, fp0
           0x00744188      f22864000004   fmove.s fp0, 0x4(a0)
           0x0074418e      554f           subq.w 0x2, a7
           0x00744190      3f3900869450   move.w 0x869450, -(a7)
           0x00744196      4eb900480fc2   jsr MENUCOM.get_boxon
           0x0074419c      544f           addq.w 0x2, a7
           0x0074419e      101f           move.b (a7)+, d0
           0x007441a0      49c0           extb.l d0
           0x007441a2      f2004000       fmove.l d0, fp0
           0x007441a6      f22864000008   fmove.s fp0, 0x8(a0)
           0x007441ac      594f           subq.w 0x4, a7
           0x007441ae      3f3900869454   move.w 0x869454, -(a7)
           0x007441b4      4e91           jsr (a1)                    ; fcn.0000000a
           0x007441b6      544f           addq.w 0x2, a7
           0x007441b8      2157000c       move.l (a7), 0xc(a0)
           0x007441bc      3f3900869466   move.w 0x869466, -(a7)
           0x007441c2      4e91           jsr (a1)                    ; fcn.0000000a
           0x007441c4      544f           addq.w 0x2, a7
           0x007441c6      21570010       move.l (a7), 0x10(a0)
           0x007441ca      3f3900869468   move.w 0x869468, -(a7)
           0x007441d0      4e91           jsr (a1)                    ; fcn.0000000a
           0x007441d2      544f           addq.w 0x2, a7
           0x007441d4      21570014       move.l (a7), 0x14(a0)
           0x007441d8      3f390086946a   move.w 0x86946a, -(a7)
           0x007441de      4e91           jsr (a1)                    ; fcn.0000000a
           0x007441e0      544f           addq.w 0x2, a7
           0x007441e2      21570018       move.l (a7), 0x18(a0)
           0x007441e6      3f390086946c   move.w 0x86946c, -(a7)
           0x007441ec      4e91           jsr (a1)                    ; fcn.0000000a
           0x007441ee      544f           addq.w 0x2, a7
           0x007441f0      2157001c       move.l (a7), 0x1c(a0)
           0x007441f4      3f390086946e   move.w 0x86946e, -(a7)
           0x007441fa      4e91           jsr (a1)                    ; fcn.0000000a
           0x007441fc      544f           addq.w 0x2, a7
           0x007441fe      21570020       move.l (a7), 0x20(a0)
           0x00744202      3f3900869470   move.w 0x869470, -(a7)
           0x00744208      4e91           jsr (a1)                    ; fcn.0000000a
           0x0074420a      544f           addq.w 0x2, a7
           0x0074420c      21570024       move.l (a7), 0x24(a0)
           0x00744210      3f3900869472   move.w 0x869472, -(a7)
           0x00744216      4e91           jsr (a1)                    ; fcn.0000000a
           0x00744218      544f           addq.w 0x2, a7
           0x0074421a      21570028       move.l (a7), 0x28(a0)
           0x0074421e      3f3900869474   move.w 0x869474, -(a7)
           0x00744224      4e91           jsr (a1)                    ; fcn.0000000a
           0x00744226      544f           addq.w 0x2, a7
           0x00744228      2157002c       move.l (a7), 0x2c(a0)
           0x0074422c      3f3900869476   move.w 0x869476, -(a7)
           0x00744232      4e91           jsr (a1)                    ; fcn.0000000a
           0x00744234      544f           addq.w 0x2, a7
           0x00744236      215f0030       move.l (a7)+, 0x30(a0)
       < 0x0074423a      600000a6       bra.w 0x7442e2
       > 0x0074423e      0c400002       cmpi.w 0x2, d0
       < 0x00744242      6600009e       bne.w 0x7442e2
          0x00744246      594f           subq.w 0x4, a7
          0x00744248      3f3900869ab0   move.w 0x869ab0, -(a7)
          0x0074424e      4e91           jsr (a1)                    ; fcn.0000000a
          0x00744250      544f           addq.w 0x2, a7
          0x00744252      21570004       move.l (a7), 0x4(a0)
          0x00744256      3f3900869ab2   move.w 0x869ab2, -(a7)
          0x0074425c      4e91           jsr (a1)                    ; fcn.0000000a
          0x0074425e      544f           addq.w 0x2, a7
          0x00744260      21570008       move.l (a7), 0x8(a0)
          0x00744264      3f3900869ab4   move.w 0x869ab4, -(a7)
          0x0074426a      4e91           jsr (a1)                    ; fcn.0000000a
          0x0074426c      544f           addq.w 0x2, a7
          0x0074426e      2157000c       move.l (a7), 0xc(a0)
          0x00744272      3f3900869ab6   move.w 0x869ab6, -(a7)
          0x00744278      4e91           jsr (a1)                    ; fcn.0000000a
          0x0074427a      544f           addq.w 0x2, a7
          0x0074427c      21570010       move.l (a7), 0x10(a0)
          0x00744280      3f3900869ab8   move.w 0x869ab8, -(a7)
          0x00744286      4e91           jsr (a1)                    ; fcn.0000000a
          0x00744288      544f           addq.w 0x2, a7
          0x0074428a      21570014       move.l (a7), 0x14(a0)
          0x0074428e      3f3900869aba   move.w 0x869aba, -(a7)
          0x00744294      4e91           jsr (a1)                    ; fcn.0000000a
          0x00744296      544f           addq.w 0x2, a7
          0x00744298      21570018       move.l (a7), 0x18(a0)
          0x0074429c      3f3900869abc   move.w 0x869abc, -(a7)
          0x007442a2      4e91           jsr (a1)                    ; fcn.0000000a
          0x007442a4      544f           addq.w 0x2, a7
          0x007442a6      2157001c       move.l (a7), 0x1c(a0)
          0x007442aa      3f3900869abe   move.w 0x869abe, -(a7)
          0x007442b0      4e91           jsr (a1)                    ; fcn.0000000a
          0x007442b2      544f           addq.w 0x2, a7
          0x007442b4      21570020       move.l (a7), 0x20(a0)
          0x007442b8      3f3900869ac0   move.w 0x869ac0, -(a7)
          0x007442be      4e91           jsr (a1)                    ; fcn.0000000a
          0x007442c0      544f           addq.w 0x2, a7
          0x007442c2      21570024       move.l (a7), 0x24(a0)
          0x007442c6      3f3900869ac2   move.w 0x869ac2, -(a7)
          0x007442cc      4e91           jsr (a1)                    ; fcn.0000000a
          0x007442ce      544f           addq.w 0x2, a7
          0x007442d0      21570028       move.l (a7), 0x28(a0)
          0x007442d4      3f3900869aca   move.w 0x869aca, -(a7)
          0x007442da      4e91           jsr (a1)                    ; fcn.0000000a
          0x007442dc      544f           addq.w 0x2, a7
          0x007442de      215f002c       move.l (a7)+, 0x2c(a0)
       > 0x007442e2      f21fd080       fmovem (a7)+, fp0
            0x007442e6      4cdf0307       movem.l (a7)+, d0-d2/a0-a1
            0x007442ea      4e5e           unlk a6
            0x007442ec      4e75           rts
            ; CALL XREF from K91_LIBOPS.fetch_effects_s @ 0x64defc
 24: MENUEFFECTCOM.set_eff_data ();
           0x007442ee      4e56ffcc       link.w a6, 0xffcc
           0x007442f2      bfd5           cmpa.l (a5), a7
       < 0x007442f4      6206           bhi.b 0x7442fc
          0x007442f6      44fc0002       move.w 0x2, ccr
          0x007442fa      4e76           trapv
       > 0x007442fc      defc0034       adda.w 0x34, a7
           0x00744300      48e7c0c0       movem.l d0-d1/a0-a1, -(a7)
           0x00744304      f227e001       fmovem fp0, -(a7)
            0x00744308      43f90048da84   lea.l MENU2COM.set_numeric_val, a1
            0x0074430e      7201           moveq 0x1, d1
            0x00744310      422e000e       clr.b 0xe(a6)
            0x00744314      206e0008       movea.l 0x8(a6), a0
            0x00744318      2010           move.l (a0), d0
            0x0074431a      b081           cmp.l d1, d0
        < 0x0074431c      660001de       bne.w 0x7444fc
           0x00744320      302e000c       move.w 0xc(a6), d0
           0x00744324      b041           cmp.w d1, d0
       < 0x00744326      660000fe       bne.w 0x744426
          0x0074432a      4239008694a4   clr.b 0x8694a4
          0x00744330      1f01           move.b d1, -(a7)
          0x00744332      4ebabc3c       jsr MENUEFFECTCOM.undo_key(pc)
          0x00744336      3eb90086944e   move.w 0x86944e, (a7)
          0x0074433c      4227           clr.b -(a7)
          0x0074433e      f22844000004   fmove.s 0x4(a0), fp0
          0x00744344      f2014038       fcmp.l d1, fp0
          0x00744348      f2960004       fbf.w 0x74434e
          0x0074434c      5217           addq.b 0x1, (a7)
          0x0074434e      4eb900483776   jsr MENUCOM.swtch_box
          0x00744354      544f           addq.w 0x2, a7
          0x00744356      3eb900869450   move.w 0x869450, (a7)
          0x0074435c      4227           clr.b -(a7)
          0x0074435e      f22844000008   fmove.s 0x8(a0), fp0
          0x00744364      f2014038       fcmp.l d1, fp0
          0x00744368      f2960004       fbf.w 0x74436e
          0x0074436c      5217           addq.b 0x1, (a7)
          0x0074436e      4eb900483776   jsr MENUCOM.swtch_box
          0x00744374      544f           addq.w 0x2, a7
          0x00744376      3eb900869454   move.w 0x869454, (a7)
          0x0074437c      2f28000c       move.l 0xc(a0), -(a7)
          0x00744380      4227           clr.b -(a7)
          0x00744382      4227           clr.b -(a7)
          0x00744384      4e91           jsr (a1)                    ; fcn.0000000a
          0x00744386      504f           addq.w 0x8, a7
          0x00744388      3eb900869466   move.w 0x869466, (a7)
          0x0074438e      2f280010       move.l 0x10(a0), -(a7)
          0x00744392      4227           clr.b -(a7)
          0x00744394      4227           clr.b -(a7)
          0x00744396      4e91           jsr (a1)                    ; fcn.0000000a
          0x00744398      504f           addq.w 0x8, a7
          0x0074439a      3eb900869468   move.w 0x869468, (a7)
          0x007443a0      2f280014       move.l 0x14(a0), -(a7)
          0x007443a4      4227           clr.b -(a7)
          0x007443a6      4227           clr.b -(a7)
          0x007443a8      4e91           jsr (a1)                    ; fcn.0000000a
          0x007443aa      504f           addq.w 0x8, a7
          0x007443ac      3eb90086946a   move.w 0x86946a, (a7)
          0x007443b2      2f280018       move.l 0x18(a0), -(a7)
          0x007443b6      4227           clr.b -(a7)
          0x007443b8      4227           clr.b -(a7)
          0x007443ba      4e91           jsr (a1)                    ; fcn.0000000a
          0x007443bc      504f           addq.w 0x8, a7
          0x007443be      3eb90086946c   move.w 0x86946c, (a7)
          0x007443c4      2f28001c       move.l 0x1c(a0), -(a7)
          0x007443c8      4227           clr.b -(a7)
          0x007443ca      4227           clr.b -(a7)
          0x007443cc      4e91           jsr (a1)                    ; fcn.0000000a
          0x007443ce      504f           addq.w 0x8, a7
          0x007443d0      3eb90086946e   move.w 0x86946e, (a7)
          0x007443d6      2f280020       move.l 0x20(a0), -(a7)
          0x007443da      4227           clr.b -(a7)
          0x007443dc      4227           clr.b -(a7)
          0x007443de      4e91           jsr (a1)                    ; fcn.0000000a
          0x007443e0      504f           addq.w 0x8, a7
          0x007443e2      3eb900869470   move.w 0x869470, (a7)
          0x007443e8      2f280024       move.l 0x24(a0), -(a7)
          0x007443ec      4227           clr.b -(a7)
          0x007443ee      4227           clr.b -(a7)
          0x007443f0      4e91           jsr (a1)                    ; fcn.0000000a
          0x007443f2      504f           addq.w 0x8, a7
          0x007443f4      3eb900869472   move.w 0x869472, (a7)
          0x007443fa      2f280028       move.l 0x28(a0), -(a7)
          0x007443fe      4227           clr.b -(a7)
          0x00744400      4227           clr.b -(a7)
          0x00744402      4e91           jsr (a1)                    ; fcn.0000000a
          0x00744404      504f           addq.w 0x8, a7
          0x00744406      3eb900869474   move.w 0x869474, (a7)
          0x0074440c      2f28002c       move.l 0x2c(a0), -(a7)
          0x00744410      4227           clr.b -(a7)
          0x00744412      4227           clr.b -(a7)
          0x00744414      4e91           jsr (a1)                    ; fcn.0000000a
          0x00744416      504f           addq.w 0x8, a7
          0x00744418      3eb900869476   move.w 0x869476, (a7)
          0x0074441e      2f280030       move.l 0x30(a0), -(a7)
      < 0x00744422      600000c8       bra.w 0x7444ec
      > 0x00744426      0c400002       cmpi.w 0x2, d0
      < 0x0074442a      660000ca       bne.w 0x7444f6
         0x0074442e      3f3900869ab0   move.w 0x869ab0, -(a7)
         0x00744434      2f280004       move.l 0x4(a0), -(a7)
         0x00744438      4227           clr.b -(a7)
         0x0074443a      4227           clr.b -(a7)
         0x0074443c      4e91           jsr (a1)                    ; fcn.0000000a
         0x0074443e      504f           addq.w 0x8, a7
         0x00744440      3eb900869ab2   move.w 0x869ab2, (a7)
         0x00744446      2f280008       move.l 0x8(a0), -(a7)
         0x0074444a      4227           clr.b -(a7)
         0x0074444c      4227           clr.b -(a7)
         0x0074444e      4e91           jsr (a1)                    ; fcn.0000000a
         0x00744450      504f           addq.w 0x8, a7
         0x00744452      3eb900869ab4   move.w 0x869ab4, (a7)
         0x00744458      2f28000c       move.l 0xc(a0), -(a7)
         0x0074445c      4227           clr.b -(a7)
         0x0074445e      4227           clr.b -(a7)
         0x00744460      4e91           jsr (a1)                    ; fcn.0000000a
         0x00744462      504f           addq.w 0x8, a7
         0x00744464      3eb900869ab6   move.w 0x869ab6, (a7)
         0x0074446a      2f280010       move.l 0x10(a0), -(a7)
         0x0074446e      4227           clr.b -(a7)
         0x00744470      4227           clr.b -(a7)
         0x00744472      4e91           jsr (a1)                    ; fcn.0000000a
         0x00744474      504f           addq.w 0x8, a7
         0x00744476      3eb900869ab8   move.w 0x869ab8, (a7)
         0x0074447c      2f280014       move.l 0x14(a0), -(a7)
         0x00744480      4227           clr.b -(a7)
         0x00744482      4227           clr.b -(a7)
         0x00744484      4e91           jsr (a1)                    ; fcn.0000000a
         0x00744486      504f           addq.w 0x8, a7
         0x00744488      3eb900869aba   move.w 0x869aba, (a7)
         0x0074448e      2f280018       move.l 0x18(a0), -(a7)
         0x00744492      4227           clr.b -(a7)
         0x00744494      4227           clr.b -(a7)
         0x00744496      4e91           jsr (a1)                    ; fcn.0000000a
         0x00744498      504f           addq.w 0x8, a7
         0x0074449a      3eb900869abc   move.w 0x869abc, (a7)
         0x007444a0      2f28001c       move.l 0x1c(a0), -(a7)
         0x007444a4      4227           clr.b -(a7)
         0x007444a6      4227           clr.b -(a7)
         0x007444a8      4e91           jsr (a1)                    ; fcn.0000000a
         0x007444aa      504f           addq.w 0x8, a7
         0x007444ac      3eb900869abe   move.w 0x869abe, (a7)
         0x007444b2      2f280020       move.l 0x20(a0), -(a7)
         0x007444b6      4227           clr.b -(a7)
         0x007444b8      4227           clr.b -(a7)
         0x007444ba      4e91           jsr (a1)                    ; fcn.0000000a
         0x007444bc      504f           addq.w 0x8, a7
         0x007444be      3eb900869ac0   move.w 0x869ac0, (a7)
         0x007444c4      2f280024       move.l 0x24(a0), -(a7)
         0x007444c8      4227           clr.b -(a7)
         0x007444ca      4227           clr.b -(a7)
         0x007444cc      4e91           jsr (a1)                    ; fcn.0000000a
         0x007444ce      504f           addq.w 0x8, a7
         0x007444d0      3eb900869ac2   move.w 0x869ac2, (a7)
         0x007444d6      2f280028       move.l 0x28(a0), -(a7)
         0x007444da      4227           clr.b -(a7)
         0x007444dc      4227           clr.b -(a7)
         0x007444de      4e91           jsr (a1)                    ; fcn.0000000a
         0x007444e0      504f           addq.w 0x8, a7
         0x007444e2      3eb900869aca   move.w 0x869aca, (a7)
         0x007444e8      2f28002c       move.l 0x2c(a0), -(a7)
      > 0x007444ec      4227           clr.b -(a7)
          0x007444ee      4227           clr.b -(a7)
          0x007444f0      4e91           jsr (a1)                    ; fcn.0000000a
          0x007444f2      defc000a       adda.w 0xa, a7
       > 0x007444f6      1d41000e       move.b d1, 0xe(a6)
       < 0x007444fa      601a           bra.b 0x744516
       > 0x007444fc      487a9895       pea.l 0x73dd93(pc)
           0x00744500      48780017       pea.l 0x17
           0x00744504      2f17           move.l (a7), -(a7)
           0x00744506      4eb9004047ea   jsr p_wts_o
           0x0074450c      defc000c       adda.w 0xc, a7
           0x00744510      4eb900404946   jsr p_wtln_o
       > 0x00744516      f21fd080       fmovem (a7)+, fp0
            0x0074451a      4cdf0303       movem.l (a7)+, d0-d1/a0-a1
            0x0074451e      4e5e           unlk a6
            0x00744520      4e75           rts
            ; CALL XREF from MENUEFFECTCOM.draw_stereo @ 0x744960
 20: MENUEFFECTCOM.setup_depth ();
           0x00744522      4e56ffdc       link.w a6, 0xffdc
           0x00744526      bfd5           cmpa.l (a5), a7
       < 0x00744528      6206           bhi.b 0x744530
          0x0074452a      44fc0002       move.w 0x2, ccr
          0x0074452e      4e76           trapv
       > 0x00744530      defc0024       adda.w 0x24, a7
           0x00744534      f227e001       fmovem fp0, -(a7)
            0x00744538      f23c40000000.  fmove.l 0x100, fp0
            0x00744540      f23c40200000.  fdiv.l 0x2, fp0
            0x00744548      594f           subq.w 0x4, a7
            0x0074454a      f2276400       fmove.s fp0, -(a7)
            0x0074454e      4eb9004081d2   jsr p_round
            0x00744554      584f           addq.w 0x4, a7
            0x00744556      23d70086c542   move.l (a7), 0x86c542
            0x0074455c      f2276400       fmove.s fp0, -(a7)
            0x00744560      4eb9004081d2   jsr p_round
            0x00744566      584f           addq.w 0x4, a7
            0x00744568      23df0086c53e   move.l (a7)+, 0x86c53e
            0x0074456e      f21fd080       fmovem (a7)+, fp0
            0x00744572      4e5e           unlk a6
            0x00744574      4e75           rts
 128: MENUEFFECTCOM.depth ();
           0x00744576      4e56ffd8       link.w a6, 0xffd8
           0x0074457a      bfd5           cmpa.l (a5), a7
       < 0x0074457c      6206           bhi.b 0x744584
          0x0074457e      44fc0002       move.w 0x2, ccr
          0x00744582      4e76           trapv
       > 0x00744584      defc0028       adda.w 0x28, a7
           0x00744588      48e7f0f0       movem.l d0-d3/a0-a3, -(a7)
           0x0074458c      41f90086c53e   lea.l 0x86c53e, a0
           0x00744592      43ee000c       lea.l 0xc(a6), a1
           0x00744596      45f90086c542   lea.l 0x86c542, a2
           0x0074459c      47ee0008       lea.l 0x8(a6), a3
           0x007445a0      7450           moveq 0x50, d2
           0x007445a2      763c           moveq 0x3c, d3
           0x007445a4      42ae0010       clr.l 0x10(a6)
           0x007445a8      2012           move.l (a2), d0
           0x007445aa      9082           sub.l d2, d0
           0x007445ac      b093           cmp.l (a3), d0
       < 0x007445ae      6e3e           bgt.b 0x7445ee
          0x007445b0      2012           move.l (a2), d0
          0x007445b2      d082           add.l d2, d0
          0x007445b4      2200           move.l d0, d1
          0x007445b6      048100000032   subi.l 0x32, d1
          0x007445bc      b293           cmp.l (a3), d1
      < 0x007445be      6f12           ble.b 0x7445d2
         0x007445c0      2210           move.l (a0), d1
         0x007445c2      9283           sub.l d3, d1
         0x007445c4      b291           cmp.l (a1), d1
     < 0x007445c6      6e26           bgt.b 0x7445ee
        0x007445c8      2210           move.l (a0), d1
        0x007445ca      d283           add.l d3, d1
        0x007445cc      b291           cmp.l (a1), d1
    < 0x007445ce      6f1e           ble.b 0x7445ee
   < 0x007445d0      6014           bra.b 0x7445e6
   > 0x007445d2      b093           cmp.l (a3), d0
   < 0x007445d4      6f18           ble.b 0x7445ee
      0x007445d6      2210           move.l (a0), d1
      0x007445d8      9282           sub.l d2, d1
      0x007445da      b291           cmp.l (a1), d1
  < 0x007445dc      6e10           bgt.b 0x7445ee
     0x007445de      2210           move.l (a0), d1
     0x007445e0      d282           add.l d2, d1
     0x007445e2      b291           cmp.l (a1), d1
 < 0x007445e4      6f08           ble.b 0x7445ee
 > 0x007445e6      2d7c00000100.  move.l 0x100, 0x10(a6)
 > 0x007445ee      4cdf0f0f       movem.l (a7)+, d0-d3/a0-a3
           0x007445f2      4e5e           unlk a6
           0x007445f4      4e75           rts
 60: MENUEFFECTCOM.init_psg0 ();
           0x007445f6      4e56ffd8       link.w a6, 0xffd8
           0x007445fa      bfd5           cmpa.l (a5), a7
       < 0x007445fc      6206           bhi.b 0x744604
          0x007445fe      44fc0002       move.w 0x2, ccr
          0x00744602      4e76           trapv
       > 0x00744604      defc0024       adda.w 0x24, a7
           0x00744608      48e7c1e0       movem.l d0-d1/d7/a0-a2, -(a7)
           0x0074460c      43f90086c58a   lea.l 0x86c58a, a1
           0x00744612      45f90086c586   lea.l 0x86c586, a2
           0x00744618      41fa9790       lea.l 0x73ddaa(pc), a0
           0x0074461c      202e000c       move.l 0xc(a6), d0
           0x00744620      22b00c00       move.l (a0, d0.l * 4), (a1)
           0x00744624      2491           move.l (a1), (a2)
           0x00744626      7e00           moveq 0x0, d7
           0x00744628      700a           moveq 0xa, d0
           0x0074462a      d0ae0008       add.l 0x8(a6), d0
      > 0x0074462e      2212           move.l (a2), d1
         0x00744630      4c111000       mulu.l (a1), d1
          0x00744634      5281           addq.l 0x1, d1
          0x00744636      02810000ffff   andi.l 0xffff, d1
          0x0074463c      2481           move.l d1, (a2)
          0x0074463e      5287           addq.l 0x1, d7
          0x00744640      be80           cmp.l d0, d7
       < 0x00744642      6dea           blt.b 0x74462e              ; MENUEFFECTCOM.init_psg0+0x38
           0x00744644      4a81           tst.l d1
        < 0x00744646      67e6           beq.b 0x74462e              ; MENUEFFECTCOM.init_psg0+0x38
            0x00744648      4cdf0783       movem.l (a7)+, d0-d1/d7/a0-a2
            0x0074464c      4e5e           unlk a6
            0x0074464e      4e75           rts
            ; CALL XREF from MENUEFFECTCOM.random_colour @ 0x7446a4
 36: MENUEFFECTCOM.inc_psg0 ();
           0x00744650      4e56fff4       link.w a6, 0xfff4
           0x00744654      bfd5           cmpa.l (a5), a7
       < 0x00744656      6206           bhi.b 0x74465e
          0x00744658      44fc0002       move.w 0x2, ccr
          0x0074465c      4e76           trapv
       > 0x0074465e      defc000c       adda.w 0xc, a7
           0x00744662      48e78080       movem.l d0/a0, -(a7)
           0x00744666      41f90086c586   lea.l 0x86c586, a0
           0x0074466c      2010           move.l (a0), d0
           0x0074466e      d0ae0008       add.l 0x8(a6), d0
           0x00744672      4c3900000086.  mulu.l 0x86c58a, d0
            0x0074467a      02800000ffff   andi.l 0xffff, d0
            0x00744680      2080           move.l d0, (a0)
            0x00744682      4cdf0101       movem.l (a7)+, d0/a0
            0x00744686      4e5e           unlk a6
            0x00744688      4e75           rts
 40: MENUEFFECTCOM.random_colour ();
           0x0074468a      4e56fff0       link.w a6, 0xfff0
           0x0074468e      bfd5           cmpa.l (a5), a7
       < 0x00744690      6206           bhi.b 0x744698
          0x00744692      44fc0002       move.w 0x2, ccr
          0x00744696      4e76           trapv
       > 0x00744698      defc000c       adda.w 0xc, a7
           0x0074469c      48e70100       movem.l d7, -(a7)
           0x007446a0      4878002a       pea.l 0x2a
           0x007446a4      4ebaffaa       jsr MENUEFFECTCOM.inc_psg0(pc)
           0x007446a8      584f           addq.w 0x4, a7
           0x007446aa      2e390086c586   move.l 0x86c586, d7
           0x007446b0      4c7c70070000.  divu.l 0x64, d7
            0x007446b8      02870000000f   andi.l 0xf, d7
            0x007446be      2d470008       move.l d7, 0x8(a6)
            0x007446c2      4cdf0080       movem.l (a7)+, d7
            0x007446c6      4e5e           unlk a6
            0x007446c8      4e75           rts
 110: MENUEFFECTCOM.draw_dot ();
           0x007446ca      4e56ffbc       link.w a6, 0xffbc
           0x007446ce      bfd5           cmpa.l (a5), a7
       < 0x007446d0      6206           bhi.b 0x7446d8
          0x007446d2      44fc0002       move.w 0x2, ccr
          0x007446d6      4e76           trapv
       > 0x007446d8      defc0040       adda.w 0x40, a7
           0x007446dc      48e7f1f0       movem.l d0-d3/d7/a0-a3, -(a7)
           0x007446e0      47f9008693f2   lea.l 0x8693f2, a3
           0x007446e6      204b           movea.l a3, a0
           0x007446e8      202e0008       move.l 0x8(a6), d0
           0x007446ec      224b           movea.l a3, a1
           0x007446ee      222e0008       move.l 0x8(a6), d1
           0x007446f2      242e0010       move.l 0x10(a6), d2
           0x007446f6      5382           subq.l 0x1, d2
           0x007446f8      e382           asl.l 0x1, d2
           0x007446fa      262e0010       move.l 0x10(a6), d3
           0x007446fe      e383           asl.l 0x1, d3
           0x00744700      5383           subq.l 0x1, d3
           0x00744702      2f03           move.l d3, -(a7)
           0x00744704      2e02           move.l d2, d7
       > 0x00744706      be97           cmp.l (a7), d7
      < 0x00744708      6e24           bgt.b 0x74472e
         0x0074470a      08070000       btst.b 0x0, d7
     < 0x0074470e      670e           beq.b 0x74471e
        0x00744710      244b           movea.l a3, a2
        0x00744712      35b11b203154.  move.w 0x3154(a1, d1.l * 2), 0x31a8(a2, d7.l * 2)
    < 0x0074471c      600c           bra.b 0x74472a
    > 0x0074471e      244b           movea.l a3, a2
        0x00744720      35b00b203174.  move.w 0x3174(a0, d0.l * 2), 0x31a8(a2, d7.l * 2)
    > 0x0074472a      5287           addq.l 0x1, d7
      < 0x0074472c      68d8           bvc.b 0x744706
      > 0x0074472e      584f           addq.w 0x4, a7
           0x00744730      4cdf0f8f       movem.l (a7)+, d0-d3/d7/a0-a3
           0x00744734      4e5e           unlk a6
           0x00744736      4e75           rts
 188: MENUEFFECTCOM.draw_spot_cente ();
           0x00744738      4e56ffb8       link.w a6, 0xffb8
           0x0074473c      bfd5           cmpa.l (a5), a7
       < 0x0074473e      6206           bhi.b 0x744746
          0x00744740      44fc0002       move.w 0x2, ccr
          0x00744744      4e76           trapv
       > 0x00744746      defc0034       adda.w 0x34, a7
           0x0074474a      48e7f7c0       movem.l d0-d3/d5-d7/a0-a1, -(a7)
           0x0074474e      41eeffec       lea.l -0x14(a6), a0
           0x00744752      43eefff0       lea.l -0x10(a6), a1
           0x00744756      7402           moveq 0x2, d2
           0x00744758      760c           moveq 0xc, d3
           0x0074475a      2e2e0008       move.l 0x8(a6), d7
           0x0074475e      e387           asl.l 0x1, d7
           0x00744760      2c2e0010       move.l 0x10(a6), d6
           0x00744764      e386           asl.l 0x1, d6
           0x00744766      068600000068   addi.l 0x68, d6
           0x0074476c      2a2e000c       move.l 0xc(a6), d5
           0x00744770      e385           asl.l 0x1, d5
           0x00744772      0685000000a0   addi.l 0xa0, d5
           0x00744778      2007           move.l d7, d0
           0x0074477a      e380           asl.l 0x1, d0
           0x0074477c      2206           move.l d6, d1
           0x0074477e      9280           sub.l d0, d1
           0x00744780      3081           move.w d1, (a0)
           0x00744782      4480           neg.l d0
           0x00744784      d085           add.l d5, d0
           0x00744786      3d40ffee       move.w d0, -0x12(a6)
           0x0074478a      2007           move.l d7, d0
           0x0074478c      e580           asl.l 0x2, d0
           0x0074478e      3280           move.w d0, (a1)
           0x00744790      3d40fff2       move.w d0, -0xe(a6)
           0x00744794      2f3a922a       move.l 0x73d9c0(pc), -(a7)
           0x00744798      3f3a9224       move.w 0x73d9be(pc), -(a7)
           0x0074479c      4eb900520fa4   jsr BRUSHCOM.set_br_colour
           0x007447a2      584f           addq.w 0x4, a7
           0x007447a4      1e82           move.b d2, (a7)
           0x007447a6      4227           clr.b -(a7)
           0x007447a8      2f11           move.l (a1), -(a7)
           0x007447aa      2f10           move.l (a0), -(a7)
           0x007447ac      4eb9005213b4   jsr BRUSHCOM.br_wipe
           0x007447b2      dec3           adda.w d3, a7
           0x007447b4      2006           move.l d6, d0
           0x007447b6      9087           sub.l d7, d0
           0x007447b8      3080           move.w d0, (a0)
           0x007447ba      2005           move.l d5, d0
           0x007447bc      9087           sub.l d7, d0
           0x007447be      3d40ffee       move.w d0, -0x12(a6)
           0x007447c2      2007           move.l d7, d0
           0x007447c4      e380           asl.l 0x1, d0
           0x007447c6      3280           move.w d0, (a1)
           0x007447c8      3d40fff2       move.w d0, -0xe(a6)
           0x007447cc      2f3a91f8       move.l 0x73d9c6(pc), -(a7)
           0x007447d0      3f3a91f2       move.w 0x73d9c4(pc), -(a7)
           0x007447d4      4eb900520fa4   jsr BRUSHCOM.set_br_colour
           0x007447da      584f           addq.w 0x4, a7
           0x007447dc      1e82           move.b d2, (a7)
           0x007447de      4227           clr.b -(a7)
           0x007447e0      2f11           move.l (a1), -(a7)
           0x007447e2      2f10           move.l (a0), -(a7)
           0x007447e4      4eb9005213b4   jsr BRUSHCOM.br_wipe
           0x007447ea      dec3           adda.w d3, a7
           0x007447ec      4cdf03ef       movem.l (a7)+, d0-d3/d5-d7/a0-a1
           0x007447f0      4e5e           unlk a6
           0x007447f2      4e75           rts
            ; CALL XREF from MENUEFFECTCOM.asg @ 0x744c20
 24: MENUEFFECTCOM.setup_data ();
           0x007447f4      4e56ff2e       link.w a6, 0xff2e
           0x007447f8      bfd5           cmpa.l (a5), a7
       < 0x007447fa      6206           bhi.b 0x744802
          0x007447fc      44fc0002       move.w 0x2, ccr
          0x00744800      4e76           trapv
       > 0x00744802      defc00c4       adda.w 0xc4, a7
           0x00744806      48e7f9c0       movem.l d0-d4/d7/a0-a1, -(a7)
           0x0074480a      f227e0bf       fmovem fp0-fp5/fp7, -(a7)
            0x0074480e      43f9008693f2   lea.l 0x8693f2, a1
            0x00744814      7440           moveq 0x40, d2
            0x00744816      263c00000100   move.l 0x100, d3
            0x0074481c      780f           moveq 0xf, d4
            0x0074481e      42b90086c596   clr.l 0x86c596
            0x00744824      48780007       pea.l 0x7
            0x00744828      4878002a       pea.l 0x2a
            0x0074482c      4ebafdc8       jsr MENUEFFECTCOM.init_psg0(pc)
            0x00744830      504f           addq.w 0x8, a7
            0x00744832      f23c44003f80.  fmove.s 1, fp0
            0x0074483a      f2024023       fmul.l d2, fp0
            0x0074483e      f23c44804000.  fmove.s 2, fp1
            0x00744846      f20340a3       fmul.l d3, fp1
            0x0074484a      f23c45004000.  fmove.s 2, fp2
            0x00744852      f2024123       fmul.l d2, fp2
            0x00744856      f23c45803e99.  fmove.s 0, fp3
            0x0074485e      f20241a3       fmul.l d2, fp3
            0x00744862      7e00           moveq 0x0, d7
        > 0x00744864      f23c47803e99.  fmove.s 0, fp7
           0x0074486c      f20743a3       fmul.l d7, fp7
           0x00744870      2049           movea.l a1, a0
           0x00744872      f2000600       fmove fp1, fp4
           0x00744876      f2001e28       fsub fp7, fp4
           0x0074487a      594f           subq.w 0x4, a7
           0x0074487c      f2034280       fmove.l d3, fp5
           0x00744880      f2001ea8       fsub fp7, fp5
           0x00744884      f20002a3       fmul fp0, fp5
           0x00744888      f20012a0       fdiv fp4, fp5
           0x0074488c      f23c46a23f00.  fadd.s 0, fp5
           0x00744894      f2276680       fmove.s fp5, -(a7)
           0x00744898      4eb9004081d2   jsr p_round
           0x0074489e      584f           addq.w 0x4, a7
           0x007448a0      219f7d202942   move.l (a7)+, 0x2942(a0, d7.l * 4)
           0x007448a6      594f           subq.w 0x4, a7
           0x007448a8      f2000a23       fmul fp2, fp4
           0x007448ac      f2000e20       fdiv fp3, fp4
           0x007448b0      f23c46223f00.  fadd.s 0, fp4
           0x007448b8      f2276600       fmove.s fp4, -(a7)
           0x007448bc      4eb9004081d2   jsr p_round
           0x007448c2      584f           addq.w 0x4, a7
           0x007448c4      219f7d202d46   move.l (a7)+, 0x2d46(a0, d7.l * 4)
           0x007448ca      5287           addq.l 0x1, d7
           0x007448cc      be83           cmp.l d3, d7
        < 0x007448ce      6f94           ble.b 0x744864
            0x007448d0      13fc00010086.  move.b 0x1, 0x86c53c.l
            0x007448d8      2d7a90eafffa   move.l 0x73d9c4(pc), -0x6(a6)
            0x007448de      3d7a90e8fffe   move.w 0x73d9c8(pc), -0x2(a6)
            0x007448e4      7e00           moveq 0x0, d7
        > 0x007448e6      203c000000db   move.l 0xdb, d0
           0x007448ec      4c070800       muls.l d7, d0
           0x007448f0      4c440800       divs.l d4, d0
           0x007448f4      068000000010   addi.l 0x10, d0
           0x007448fa      3d40fffa       move.w d0, -0x6(a6)
           0x007448fe      2049           movea.l a1, a0
           0x00744900      322efffe       move.w -0x2(a6), d1
           0x00744904      48c1           ext.l d1
           0x00744906      e181           asl.l 0x8, d1
           0x00744908      48c0           ext.l d0
           0x0074490a      d280           add.l d0, d1
           0x0074490c      31817b203154   move.w d1, 0x3154(a0, d7.l * 2)
           0x00744912      322efffc       move.w -0x4(a6), d1
           0x00744916      48c1           ext.l d1
           0x00744918      e181           asl.l 0x8, d1
           0x0074491a      d081           add.l d1, d0
           0x0074491c      31807b203174   move.w d0, 0x3174(a0, d7.l * 2)
           0x00744922      5287           addq.l 0x1, d7
           0x00744924      be84           cmp.l d4, d7
        < 0x00744926      6fbe           ble.b 0x7448e6
            0x00744928      f21fd0fd       fmovem (a7)+, fp0-fp5/fp7
            0x0074492c      4cdf039f       movem.l (a7)+, d0-d4/d7/a0-a1
            0x00744930      4e5e           unlk a6
            0x00744932      4e75           rts
            ; CALL XREF from MENUEFFECTCOM.asg @ 0x744c34
 62: MENUEFFECTCOM.draw_stereo ();
           0x00744934      4e56f376       link.w a6, 0xf376
           0x00744938      bfd5           cmpa.l (a5), a7
       < 0x0074493a      6206           bhi.b 0x744942
          0x0074493c      44fc0002       move.w 0x2, ccr
          0x00744940      4e76           trapv
       > 0x00744942      defc0054       adda.w 0x54, a7
           0x00744946      48e7fff8       movem.l d0-d7/a0-a4, -(a7)
           0x0074494a      43eef3d6       lea.l -0xc2a(a6), a1
           0x0074494e      45eef3e6       lea.l -0xc1a(a6), a2
           0x00744952      47eefff4       lea.l -0xc(a6), a3
           0x00744956      49eefff8       lea.l -0x8(a6), a4
           0x0074495a      283c00000100   move.l 0x100, d4
           0x00744960      4ebafbc0       jsr MENUEFFECTCOM.setup_depth(pc)
           0x00744964      7001           moveq 0x1, d0
       > 0x00744966      2d40f3ce       move.l d0, -0xc32(a6)
          0x0074496a      2204           move.l d4, d1
          0x0074496c      9280           sub.l d0, d1
          0x0074496e      2401           move.l d1, d2
          0x00744970      4c7c28030000.  divs.l 0x5, d2
           0x00744978      4a83           tst.l d3
       < 0x0074497a      6c02           bge.b 0x74497e
          0x0074497c      5a83           addq.l 0x5, d3
       > 0x0074497e      4a83           tst.l d3
       < 0x00744980      661e           bne.b 0x7449a0
          0x00744982      2f01           move.l d1, -(a7)
          0x00744984      48780001       pea.l 0x1
          0x00744988      4eb9004070e4   jsr p_wti_o
          0x0074498e      5c4f           addq.w 0x6, a7
          0x00744990      1ebc0020       move.b 0x20, (a7)
          0x00744994      48780001       pea.l 0x1
          0x00744998      4eb9004048b4   jsr p_wtc_o
          0x0074499e      5c4f           addq.w 0x6, a7
       > 0x007449a0      486d0010       pea.l 0x10(a5)
           0x007449a4      4eb90040497e   jsr p_break
           0x007449aa      584f           addq.w 0x4, a7
           0x007449ac      4c7c18020000.  divs.l 0x64, d1
           0x007449b4      4a82           tst.l d2
       < 0x007449b6      6c06           bge.b 0x7449be
          0x007449b8      068200000064   addi.l 0x64, d2
       > 0x007449be      4a82           tst.l d2
       < 0x007449c0      6606           bne.b 0x7449c8
          0x007449c2      4eb900404946   jsr p_wtln_o
       > 0x007449c8      7e01           moveq 0x1, d7
       > 0x007449ca      2d877d20f3ee   move.l d7, 0xf3ee(a6, d7.l * 4)
          0x007449d0      5287           addq.l 0x1, d7
          0x007449d2      be84           cmp.l d4, d7
       < 0x007449d4      6ff4           ble.b 0x7449ca
           0x007449d6      7e01           moveq 0x1, d7
       > 0x007449d8      594f           subq.w 0x4, a7
          0x007449da      2f07           move.l d7, -(a7)
          0x007449dc      2f00           move.l d0, -(a7)
          0x007449de      4ebafb96       jsr MENUEFFECTCOM.depth(pc)
          0x007449e2      504f           addq.w 0x8, a7
          0x007449e4      2d9f7d20fbee   move.l (a7)+, 0xfbee(a6, d7.l * 4)
          0x007449ea      5287           addq.l 0x1, d7
          0x007449ec      be84           cmp.l d4, d7
       < 0x007449ee      6fe8           ble.b 0x7449d8
           0x007449f0      7e01           moveq 0x1, d7
       > 0x007449f2      2d767d20fbee.  move.l 0xfbee(a6, d7.l * 4), -0xc1e(a6)
          0x007449fa      41f9008693f2   lea.l 0x8693f2, a0
          0x00744a00      222ef3e2       move.l -0xc1e(a6), d1
          0x00744a04      2d701d202942.  move.l 0x2942(a0, d1.l * 4), -0xc22(a6)
          0x00744a0c      2c2ef3de       move.l -0xc22(a6), d6
          0x00744a10      4c7c68060000.  divs.l 0x2, d6
          0x00744a18      4486           neg.l d6
          0x00744a1a      dc87           add.l d7, d6
          0x00744a1c      2406           move.l d6, d2
          0x00744a1e      d4aef3de       add.l -0xc22(a6), d2
          0x00744a22      2282           move.l d2, (a1)
          0x00744a24      0c8600000001   cmpi.l 0x1, d6
      < 0x00744a2a      6d000082       blt.w 0x744aae
         0x00744a2e      b484           cmp.l d4, d2
     < 0x00744a30      6e7c           bgt.b 0x744aae
        0x00744a32      1d7c0001fff2   move.b 0x1, -0xe(a6)
        0x00744a38      4a390086c53c   tst.b 0x86c53c
    < 0x00744a3e      6746           beq.b 0x744a86
       0x00744a40      24bc00000001   move.l 0x1, (a2)
       0x00744a46      2d701d202d46.  move.l 0x2d46(a0, d1.l * 4), -0xc12(a6)
   > 0x00744a4e      242ef3ee       move.l -0xc12(a6), d2
      0x00744a52      4c122800       muls.l (a2), d2
      0x00744a56      d4aef3e2       add.l -0xc1e(a6), d2
      0x00744a5a      2d42f3ea       move.l d2, -0xc16(a6)
      0x00744a5e      2607           move.l d7, d3
      0x00744a60      9692           sub.l (a2), d3
      0x00744a62      b4b63d20fbee   cmp.l 0xfbee(a6, d3.l * 4), d2
  < 0x00744a68      6d0c           blt.b 0x744a76
     0x00744a6a      2607           move.l d7, d3
     0x00744a6c      d692           add.l (a2), d3
     0x00744a6e      b4b63d20fbee   cmp.l 0xfbee(a6, d3.l * 4), d2
  < 0x00744a74      6c04           bge.b 0x744a7a
  > 0x00744a76      422efff2       clr.b -0xe(a6)
  > 0x00744a7a      5292           addq.l 0x1, (a2)
      0x00744a7c      4a2efff2       tst.b -0xe(a6)
  < 0x00744a80      6704           beq.b 0x744a86
     0x00744a82      b484           cmp.l d4, d2
  < 0x00744a84      6dc8           blt.b 0x744a4e
  > 0x00744a86      4a2efff2       tst.b -0xe(a6)
    < 0x00744a8a      6722           beq.b 0x744aae
   > 0x00744a8c      2a366d20f3ee   move.l 0xf3ee(a6, d6.l * 4), d5
      0x00744a92      ba86           cmp.l d6, d5
  < 0x00744a94      6712           beq.b 0x744aa8
     0x00744a96      ba91           cmp.l (a1), d5
  < 0x00744a98      670e           beq.b 0x744aa8
     0x00744a9a      ba91           cmp.l (a1), d5
  < 0x00744a9c      6c04           bge.b 0x744aa2
     0x00744a9e      2c05           move.l d5, d6
  < 0x00744aa0      6004           bra.b 0x744aa6
  > 0x00744aa2      2c11           move.l (a1), d6
     0x00744aa4      2285           move.l d5, (a1)
  < 0x00744aa6      60e4           bra.b 0x744a8c
  > 0x00744aa8      2d916d20f3ee   move.l (a1), 0xf3ee(a6, d6.l * 4)
    > 0x00744aae      5287           addq.l 0x1, d7
          0x00744ab0      be84           cmp.l d4, d7
       < 0x00744ab2      6f00ff3e       ble.w 0x7449f2
           0x00744ab6      2e04           move.l d4, d7
       > 0x00744ab8      beb67d20f3ee   cmp.l 0xf3ee(a6, d7.l * 4), d7
      < 0x00744abe      660e           bne.b 0x744ace
         0x00744ac0      594f           subq.w 0x4, a7
         0x00744ac2      4ebafbc6       jsr MENUEFFECTCOM.random_colour(pc)
         0x00744ac6      2d9f7d20f7ee   move.l (a7)+, 0xf7ee(a6, d7.l * 4)
     < 0x00744acc      6010           bra.b 0x744ade
     > 0x00744ace      22367d20f3ee   move.l 0xf3ee(a6, d7.l * 4), d1
         0x00744ad4      2db61d20f7ee.  move.l 0xf7ee(a6, d1.l * 4), 0xf7ee(a6, d7.l * 4)
     > 0x00744ade      2f07           move.l d7, -(a7)
          0x00744ae0      2f00           move.l d0, -(a7)
          0x00744ae2      2f367d20f7ee   move.l 0xf7ee(a6, d7.l * 4), -(a7)
          0x00744ae8      4ebafbe0       jsr MENUEFFECTCOM.draw_dot(pc)
          0x00744aec      defc000c       adda.w 0xc, a7
          0x00744af0      5387           subq.l 0x1, d7
          0x00744af2      4a87           tst.l d7
       < 0x00744af4      6ec2           bgt.b 0x744ab8
           0x00744af6      514f           subq.w 0x8, a7
           0x00744af8      1f3c000c       move.b 0xc, -(a7)
           0x00744afc      4eb9006336ea   jsr HANDCOM.get_area
           0x00744b02      544f           addq.w 0x2, a7
           0x00744b04      269f           move.l (a7)+, (a3)
           0x00744b06      289f           move.l (a7)+, (a4)
           0x00744b08      38bc0200       move.w 0x200, (a4)
           0x00744b0c      1f3c0001       move.b 0x1, -(a7)
           0x00744b10      4227           clr.b -(a7)
           0x00744b12      4227           clr.b -(a7)
           0x00744b14      2f14           move.l (a4), -(a7)
           0x00744b16      2f13           move.l (a3), -(a7)
           0x00744b18      41f90086c59a   lea.l 0x86c59a, a0
           0x00744b1e      2f08           move.l a0, -(a7)
           0x00744b20      4eb900521974   jsr BRUSHCOM.br_computer_tra
           0x00744b26      defc0012       adda.w 0x12, a7
           0x00744b2a      3d53fffc       move.w (a3), -0x4(a6)
           0x00744b2e      3d6efff6fffe   move.w -0xa(a6), -0x2(a6)
           0x00744b34      36bc0068       move.w 0x68, (a3)
           0x00744b38      2200           move.l d0, d1
           0x00744b3a      e381           asl.l 0x1, d1
           0x00744b3c      0681000000a0   addi.l 0xa0, d1
           0x00744b42      3d41fff6       move.w d1, -0xa(a6)
           0x00744b46      38bc0200       move.w 0x200, (a4)
           0x00744b4a      3d7c0001fffa   move.w 0x1, -0x6(a6)
           0x00744b50      7e01           moveq 0x1, d7
       > 0x00744b52      4227           clr.b -(a7)
          0x00744b54      1f3c0002       move.b 0x2, -(a7)
          0x00744b58      4227           clr.b -(a7)
          0x00744b5a      2f2efffc       move.l -0x4(a6), -(a7)
          0x00744b5e      2f14           move.l (a4), -(a7)
          0x00744b60      2f13           move.l (a3), -(a7)
          0x00744b62      4eb900522722   jsr BRUSHCOM.str_any_str_cop
          0x00744b68      defc0012       adda.w 0x12, a7
          0x00744b6c      322efff6       move.w -0xa(a6), d1
          0x00744b70      48c1           ext.l d1
          0x00744b72      5281           addq.l 0x1, d1
          0x00744b74      3d41fff6       move.w d1, -0xa(a6)
          0x00744b78      5287           addq.l 0x1, d7
          0x00744b7a      0c8700000002   cmpi.l 0x2, d7
       < 0x00744b80      6fd0           ble.b 0x744b52
           0x00744b82      5280           addq.l 0x1, d0
           0x00744b84      b084           cmp.l d4, d0
        < 0x00744b86      6f00fdde       ble.w 0x744966              ; MENUEFFECTCOM.draw_stereo+0x32
            0x00744b8a      4cdf1fff       movem.l (a7)+, d0-d7/a0-a4
            0x00744b8e      4e5e           unlk a6
            0x00744b90      4e75           rts
            ; CALL XREF from MENUEFFECTCOM.asg @ 0x744c48
 40: MENUEFFECTCOM.draw_guide_spot ();
           0x00744b92      4e56ffdc       link.w a6, 0xffdc
           0x00744b96      bfd5           cmpa.l (a5), a7
       < 0x00744b98      6206           bhi.b 0x744ba0
          0x00744b9a      44fc0002       move.w 0x2, ccr
          0x00744b9e      4e76           trapv
       > 0x00744ba0      defc0020       adda.w 0x20, a7
           0x00744ba4      48e7c180       movem.l d0-d1/d7/a0, -(a7)
           0x00744ba8      41f90086bd34   lea.l 0x86bd34, a0
           0x00744bae      720c           moveq 0xc, d1
           0x00744bb0      2e3c00000100   move.l 0x100, d7
           0x00744bb6      9e90           sub.l (a0), d7
           0x00744bb8      4c7c78070000.  divs.l 0x2, d7
            0x00744bc0      2f07           move.l d7, -(a7)
            0x00744bc2      487800fe       pea.l 0xfe
            0x00744bc6      48780002       pea.l 0x2
            0x00744bca      4ebafb6c       jsr MENUEFFECTCOM.draw_spot_cente(pc)
            0x00744bce      dec1           adda.w d1, a7
            0x00744bd0      2007           move.l d7, d0
            0x00744bd2      d090           add.l (a0), d0
            0x00744bd4      2f00           move.l d0, -(a7)
            0x00744bd6      487800fe       pea.l 0xfe
            0x00744bda      48780002       pea.l 0x2
            0x00744bde      4ebafb58       jsr MENUEFFECTCOM.draw_spot_cente(pc)
            0x00744be2      dec1           adda.w d1, a7
            0x00744be4      4cdf0183       movem.l (a7)+, d0-d1/d7/a0
            0x00744be8      4e5e           unlk a6
            0x00744bea      4e75           rts
            ; CALL XREF from MENUEFFECTCOM.hit_asg @ 0x744c74
 104: MENUEFFECTCOM.asg ();
           0x00744bec      4e56ffe4       link.w a6, 0xffe4
           0x00744bf0      bfd5           cmpa.l (a5), a7
       < 0x00744bf2      6206           bhi.b 0x744bfa
          0x00744bf4      44fc0002       move.w 0x2, ccr
          0x00744bf8      4e76           trapv
       > 0x00744bfa      defc001c       adda.w 0x1c, a7
           0x00744bfe      48e780c0       movem.l d0/a0-a1, -(a7)
           0x00744c02      41f9004047ea   lea.l p_wts_o, a0
           0x00744c08      43f900404946   lea.l p_wtln_o, a1
           0x00744c0e      700c           moveq 0xc, d0
           0x00744c10      487a91d9       pea.l 0x73ddeb(pc)
           0x00744c14      4878000c       pea.l 0xc
           0x00744c18      2f17           move.l (a7), -(a7)
           0x00744c1a      4e90           jsr (a0)                    ; fcn.00000009
           0x00744c1c      dec0           adda.w d0, a7
           0x00744c1e      4e91           jsr (a1)                    ; fcn.0000000a
           0x00744c20      4ebafbd2       jsr MENUEFFECTCOM.setup_data(pc)
           0x00744c24      487a91d2       pea.l 0x73ddf8(pc)
           0x00744c28      48780010       pea.l 0x10
           0x00744c2c      2f17           move.l (a7), -(a7)
           0x00744c2e      4e90           jsr (a0)                    ; fcn.00000009
           0x00744c30      dec0           adda.w d0, a7
           0x00744c32      4e91           jsr (a1)                    ; fcn.0000000a
           0x00744c34      4ebafcfe       jsr MENUEFFECTCOM.draw_stereo(pc)
           0x00744c38      487a91cf       pea.l 0x73de09(pc)
           0x00744c3c      48780012       pea.l 0x12
           0x00744c40      2f17           move.l (a7), -(a7)
           0x00744c42      4e90           jsr (a0)                    ; fcn.00000009
           0x00744c44      dec0           adda.w d0, a7
           0x00744c46      4e91           jsr (a1)                    ; fcn.0000000a
           0x00744c48      4ebaff48       jsr MENUEFFECTCOM.draw_guide_spot(pc)
           0x00744c4c      4cdf0301       movem.l (a7)+, d0/a0-a1
           0x00744c50      4e5e           unlk a6
           0x00744c52      4e75           rts
 44: MENUEFFECTCOM.hit_asg ();
           0x00744c54      4e56fff8       link.w a6, 0xfff8
           0x00744c58      bfd5           cmpa.l (a5), a7
       < 0x00744c5a      6206           bhi.b 0x744c62
          0x00744c5c      44fc0002       move.w 0x2, ccr
          0x00744c60      4e76           trapv
       > 0x00744c62      defc0008       adda.w 0x8, a7
           0x00744c66      48e78000       movem.l d0, -(a7)
           0x00744c6a      302e0008       move.w 0x8(a6), d0
           0x00744c6e      0c400001       cmpi.w 0x1, d0
       < 0x00744c72      6604           bne.b 0x744c78
          0x00744c74      4ebaff76       jsr MENUEFFECTCOM.asg(pc)
       > 0x00744c78      4cdf0001       movem.l (a7)+, d0
           0x00744c7c      4e5e           unlk a6
           0x00744c7e      4e75           rts
 140: MENUEFFECTCOM.draw_clip_bar ();
           ; var int32_t var_14h @ a6-0x14
           0x00744c80      4e56ff92       link.w a6, 0xff92
           0x00744c84      bfd5           cmpa.l (a5), a7
       < 0x00744c86      6206           bhi.b 0x744c8e
          0x00744c88      44fc0002       move.w 0x2, ccr
          0x00744c8c      4e76           trapv
       > 0x00744c8e      defc0046       adda.w 0x46, a7
           0x00744c92      48e7e7f0       movem.l d0-d2/d5-d7/a0-a3, -(a7)
           0x00744c96      43eeffe8       lea.l -0x18(a6), a1
           0x00744c9a      45eefff8       lea.l -0x8(a6), a2
           0x00744c9e      47eefffc       lea.l -0x4(a6), a3
           0x00744ca2      7412           moveq 0x12, d2
           0x00744ca4      514f           subq.w 0x8, a7
           0x00744ca6      3f390086bbf6   move.w 0x86bbf6, -(a7)
           0x00744cac      4eb90048d992   jsr MENU2COM.get_numeric_val
           0x00744cb2      544f           addq.w 0x2, a7
           0x00744cb4      4eb9004081d2   jsr p_round
           0x00744cba      584f           addq.w 0x4, a7
           0x00744cbc      2e1f           move.l (a7)+, d7
           0x00744cbe      2a07           move.l d7, d5
           0x00744cc0      5385           subq.l 0x1, d5
           0x00744cc2      2054           movea.l (a4), a0
           0x00744cc4      2e28001c       move.l 0x1c(a0), d7
           0x00744cc8      5387           subq.l 0x1, d7
           0x00744cca      4a87           tst.l d7
       < 0x00744ccc      6e04           bgt.b 0x744cd2
          0x00744cce      7a01           moveq 0x1, d5
          0x00744cd0      7e01           moveq 0x1, d7
       > 0x00744cd2      3f2e0008       move.w 0x8(a6), -(a7)
           0x00744cd6      4851           pea.l (a1)
           0x00744cd8      4eb90048124c   jsr MENUCOM.box_info
           0x00744cde      5c4f           addq.w 0x6, a7
           0x00744ce0      2d51fff0       move.l (a1), -0x10(a6)
           0x00744ce4      2d6effecfff4   move.l -0x14(a6), -0xc(a6)
           0x00744cea      302effea       move.w -0x16(a6), d0
           0x00744cee      48c0           ext.l d0
           0x00744cf0      2200           move.l d0, d1
           0x00744cf2      06810000000e   addi.l 0xe, d1
           0x00744cf8      3d41fff2       move.w d1, -0xe(a6)
           0x00744cfc      3d7c0004fff6   move.w 0x4, -0xa(a6)
           0x00744d02      322effec       move.w -0x14(a6), d1
           0x00744d06      48c1           ext.l d1
           0x00744d08      2c01           move.l d1, d6
           0x00744d0a      4c056800       muls.l d5, d6
            0x00744d0e      4c476806       divs.l d7, d6
            0x00744d12      06800000000a   addi.l 0xa, d0
            0x00744d18      3d40fffa       move.w d0, -0x6(a6)
            0x00744d1c      3d7c0002fffe   move.w 0x2, -0x2(a6)
            0x00744d22      2f2efff4       move.l -0xc(a6), -(a7)
            0x00744d26      2f2efff0       move.l -0x10(a6), -(a7)
            0x00744d2a      2f3a8c58       move.l 0x73d984(pc), -(a7)
            0x00744d2e      3f3a8c52       move.w 0x73d982(pc), -(a7)
            0x00744d32      48780000       pea.l 0x0
            0x00744d36      4eb90051fa64   jsr BRUSHCOM.br_draw_box
            0x00744d3c      dec2           adda.w d2, a7
            0x00744d3e      3491           move.w (a1), (a2)
            0x00744d40      3686           move.w d6, (a3)
        < 0x00744d42      6f18           ble.b 0x744d5c
           0x00744d44      2f13           move.l (a3), -(a7)
           0x00744d46      2f12           move.l (a2), -(a7)
           0x00744d48      2f3a8c58       move.l 0x73d9a2(pc), -(a7)
           0x00744d4c      3f3a8c52       move.w 0x73d9a0(pc), -(a7)
           0x00744d50      48780000       pea.l 0x0
           0x00744d54      4eb90051fa64   jsr BRUSHCOM.br_draw_box
           0x00744d5a      dec2           adda.w d2, a7
        > 0x00744d5c      3011           move.w (a1), d0
            0x00744d5e      48c0           ext.l d0
            0x00744d60      d086           add.l d6, d0
            0x00744d62      3480           move.w d0, (a2)
            0x00744d64      9286           sub.l d6, d1
            0x00744d66      3681           move.w d1, (a3)
            0x00744d68      4a41           tst.w d1
        < 0x00744d6a      6f18           ble.b 0x744d84
           0x00744d6c      2f13           move.l (a3), -(a7)
           0x00744d6e      2f12           move.l (a2), -(a7)
           0x00744d70      2f3a8bfa       move.l 0x73d96c(pc), -(a7)
           0x00744d74      3f3a8bf4       move.w 0x73d96a(pc), -(a7)
           0x00744d78      48780000       pea.l 0x0
           0x00744d7c      4eb90051fa64   jsr BRUSHCOM.br_draw_box
           0x00744d82      dec2           adda.w d2, a7
        > 0x00744d84      4cdf0fe7       movem.l (a7)+, d0-d2/d5-d7/a0-a3
            0x00744d88      4e5e           unlk a6
            0x00744d8a      4e75           rts
            ; CALL XREF from MENUEFFECTCOM.update_clip_fra @ 0x744e42
 24: MENUEFFECTCOM.update_clip_bar ();
           0x00744d8c      4e56ffd6       link.w a6, 0xffd6
           0x00744d90      bfd5           cmpa.l (a5), a7
       < 0x00744d92      6206           bhi.b 0x744d9a
          0x00744d94      44fc0002       move.w 0x2, ccr
          0x00744d98      4e76           trapv
       > 0x00744d9a      defc002a       adda.w 0x2a, a7
           0x00744d9e      48e780c0       movem.l d0/a0-a1, -(a7)
           0x00744da2      f227e001       fmovem fp0, -(a7)
            0x00744da6      43f90086bbf6   lea.l 0x86bbf6, a1
            0x00744dac      7001           moveq 0x1, d0
            0x00744dae      2054           movea.l (a4), a0
            0x00744db0      3f390086bbf8   move.w 0x86bbf8, -(a7)
            0x00744db6      f2284000001c   fmove.l 0x1c(a0), fp0
            0x00744dbc      f2276400       fmove.s fp0, -(a7)
            0x00744dc0      4227           clr.b -(a7)
            0x00744dc2      1f00           move.b d0, -(a7)
            0x00744dc4      4eb90048da84   jsr MENU2COM.set_numeric_val
            0x00744dca      584f           addq.w 0x4, a7
            0x00744dcc      3e91           move.w (a1), (a7)
            0x00744dce      4eb90048d992   jsr MENU2COM.get_numeric_val
            0x00744dd4      544f           addq.w 0x2, a7
            0x00744dd6      f21f4400       fmove.s (a7)+, fp0
            0x00744dda      f2284038001c   fcmp.l 0x1c(a0), fp0
            0x00744de0      f29d001c       fbf.w 0x744dfe
            0x00744de4      3f11           move.w (a1), -(a7)
            0x00744de6      f2284000001c   fmove.l 0x1c(a0), fp0
            0x00744dec      f2276400       fmove.s fp0, -(a7)
            0x00744df0      4227           clr.b -(a7)
            0x00744df2      1f00           move.b d0, -(a7)
            0x00744df4      4eb90048da84   jsr MENU2COM.set_numeric_val
            0x00744dfa      defc000a       adda.w 0xa, a7
            0x00744dfe      3f390086bbf4   move.w 0x86bbf4, -(a7)
            0x00744e04      4eb900481472   jsr MENUCOM.draw_box
            0x00744e0a      544f           addq.w 0x2, a7
            0x00744e0c      f21fd080       fmovem (a7)+, fp0
            0x00744e10      4cdf0301       movem.l (a7)+, d0/a0-a1
            0x00744e14      4e5e           unlk a6
            0x00744e16      4e75           rts
 310: MENUEFFECTCOM.update_clip_fra ();
           ; var int32_t var_2h @ a7+0x2
           0x00744e18      4e56ffe0       link.w a6, 0xffe0
           0x00744e1c      bfd5           cmpa.l (a5), a7
       < 0x00744e1e      6206           bhi.b 0x744e26
          0x00744e20      44fc0002       move.w 0x2, ccr
          0x00744e24      4e76           trapv
       > 0x00744e26      defc0020       adda.w 0x20, a7
           0x00744e2a      48e780e0       movem.l d0/a0-a2, -(a7)
           0x00744e2e      41f900480fc2   lea.l MENUCOM.get_boxon, a0
           0x00744e34      43f9006336ea   lea.l HANDCOM.get_area, a1
           0x00744e3a      45f90086bbf6   lea.l 0x86bbf6, a2
           0x00744e40      700a           moveq 0xa, d0
           0x00744e42      4ebaff48       jsr MENUEFFECTCOM.update_clip_bar(pc)
           0x00744e46      554f           subq.w 0x2, a7
           0x00744e48      3f390086bbf0   move.w 0x86bbf0, -(a7)
           0x00744e4e      4e90           jsr (a0)                    ; fcn.00000009
           0x00744e50      544f           addq.w 0x2, a7
           0x00744e52      4a1f           tst.b (a7)+
       < 0x00744e54      6742           beq.b 0x744e98
          0x00744e56      554f           subq.w 0x2, a7
          0x00744e58      3f390086bbe6   move.w 0x86bbe6, -(a7)
          0x00744e5e      4e90           jsr (a0)                    ; fcn.00000009
          0x00744e60      544f           addq.w 0x2, a7
          0x00744e62      4a1f           tst.b (a7)+
      < 0x00744e64      6610           bne.b 0x744e76
         0x00744e66      554f           subq.w 0x2, a7
         0x00744e68      3f390086bbea   move.w 0x86bbea, -(a7)
         0x00744e6e      4e90           jsr (a0)                    ; fcn.00000009
         0x00744e70      544f           addq.w 0x2, a7
         0x00744e72      4a1f           tst.b (a7)+
     < 0x00744e74      6722           beq.b 0x744e98
     > 0x00744e76      9ec0           suba.w d0, a7
         0x00744e78      3f12           move.w (a2), -(a7)
         0x00744e7a      4eb90048d992   jsr MENU2COM.get_numeric_val
         0x00744e80      544f           addq.w 0x2, a7
         0x00744e82      4eb9004081d2   jsr p_round
         0x00744e88      584f           addq.w 0x4, a7
         0x00744e8a      3f6f00020004   move.w 0x2(a7), 0x4(a7)
         0x00744e90      544f           addq.w 0x2, a7
         0x00744e92      1ebc0001       move.b 0x1, (a7)
     < 0x00744e96      601e           bra.b 0x744eb6
     > 0x00744e98      9ec0           suba.w d0, a7
          0x00744e9a      3f12           move.w (a2), -(a7)
          0x00744e9c      4eb90048d992   jsr MENU2COM.get_numeric_val
          0x00744ea2      544f           addq.w 0x2, a7
          0x00744ea4      4eb9004081d2   jsr p_round
          0x00744eaa      584f           addq.w 0x4, a7
          0x00744eac      3f6f00020004   move.w 0x2(a7), 0x4(a7)
          0x00744eb2      544f           addq.w 0x2, a7
          0x00744eb4      4217           clr.b (a7)
      > 0x00744eb6      4227           clr.b -(a7)
           0x00744eb8      4eba9718       jsr MENUEFFECTCOM.effect_clip_buy(pc)
           0x00744ebc      5c4f           addq.w 0x6, a7
           0x00744ebe      554f           subq.w 0x2, a7
           0x00744ec0      3f390086944c   move.w 0x86944c, -(a7)
           0x00744ec6      4e90           jsr (a0)                    ; fcn.00000009
           0x00744ec8      544f           addq.w 0x2, a7
           0x00744eca      4a1f           tst.b (a7)+
       < 0x00744ecc      6712           beq.b 0x744ee0
          0x00744ece      3f3a8f4c       move.w 0x73de1c(pc), -(a7)
          0x00744ed2      514f           subq.w 0x8, a7
          0x00744ed4      4227           clr.b -(a7)
          0x00744ed6      4e91           jsr (a1)                    ; fcn.0000000a
          0x00744ed8      544f           addq.w 0x2, a7
          0x00744eda      4ebaacb2       jsr MENUEFFECTCOM.do_key(pc)
      < 0x00744ede      6064           bra.b 0x744f44
      > 0x00744ee0      554f           subq.w 0x2, a7
          0x00744ee2      3f390086942a   move.w 0x86942a, -(a7)
          0x00744ee8      4e90           jsr (a0)                    ; fcn.00000009
          0x00744eea      544f           addq.w 0x2, a7
          0x00744eec      4a1f           tst.b (a7)+
      < 0x00744eee      6712           beq.b 0x744f02
         0x00744ef0      1f3c0004       move.b 0x4, -(a7)
         0x00744ef4      514f           subq.w 0x8, a7
         0x00744ef6      4227           clr.b -(a7)
         0x00744ef8      4e91           jsr (a1)                    ; fcn.0000000a
         0x00744efa      544f           addq.w 0x2, a7
         0x00744efc      4eba9bca       jsr MENUEFFECTCOM.do_hicon(pc)
     < 0x00744f00      6042           bra.b 0x744f44
     > 0x00744f02      554f           subq.w 0x2, a7
         0x00744f04      3f3900869aa6   move.w 0x869aa6, -(a7)
         0x00744f0a      4e90           jsr (a0)                    ; fcn.00000009
         0x00744f0c      544f           addq.w 0x2, a7
         0x00744f0e      4a1f           tst.b (a7)+
     < 0x00744f10      6712           beq.b 0x744f24
        0x00744f12      1f3c0006       move.b 0x6, -(a7)
        0x00744f16      514f           subq.w 0x8, a7
        0x00744f18      4227           clr.b -(a7)
        0x00744f1a      4e91           jsr (a1)                    ; fcn.0000000a
        0x00744f1c      544f           addq.w 0x2, a7
        0x00744f1e      4ebac85c       jsr MENUEFFECTCOM.do_colour(pc)
    < 0x00744f22      6020           bra.b 0x744f44
    > 0x00744f24      554f           subq.w 0x2, a7
        0x00744f26      3f390086bbd4   move.w 0x86bbd4, -(a7)
        0x00744f2c      4e90           jsr (a0)                    ; fcn.00000009
        0x00744f2e      544f           addq.w 0x2, a7
        0x00744f30      4a1f           tst.b (a7)+
    < 0x00744f32      6712           beq.b 0x744f46
       0x00744f34      1f3c0005       move.b 0x5, -(a7)
       0x00744f38      514f           subq.w 0x8, a7
       0x00744f3a      4227           clr.b -(a7)
       0x00744f3c      4e91           jsr (a1)                    ; fcn.0000000a
       0x00744f3e      544f           addq.w 0x2, a7
       0x00744f40      4ebae23a       jsr MENUEFFECTCOM.do_dots(pc)
    > 0x00744f44      dec0           adda.w d0, a7
       > 0x00744f46      4cdf0701       movem.l (a7)+, d0/a0-a2
           0x00744f4a      4e5e           unlk a6
           0x00744f4c      4e75           rts
            ; CALL XREF from MENUEFFECTCOM.after_buy @ 0x745a66
 24: MENUEFFECTCOM.hit_clip_view ();
           0x00744f4e      4e56ff9c       link.w a6, 0xff9c
           0x00744f52      bfd5           cmpa.l (a5), a7
       < 0x00744f54      6206           bhi.b 0x744f5c
          0x00744f56      44fc0002       move.w 0x2, ccr
          0x00744f5a      4e76           trapv
       > 0x00744f5c      defc0060       adda.w 0x60, a7
           0x00744f60      48e7fef8       movem.l d0-d6/a0-a4, -(a7)
           0x00744f64      f227e003       fmovem fp0-fp1, -(a7)
            0x00744f68      45eefffc       lea.l -0x4(a6), a2
            0x00744f6c      47f90086bbf6   lea.l 0x86bbf6, a3
            0x00744f72      7606           moveq 0x6, d3
            0x00744f74      7804           moveq 0x4, d4
            0x00744f76      7a0a           moveq 0xa, d5
            0x00744f78      7c01           moveq 0x1, d6
            0x00744f7a      554f           subq.w 0x2, a7
            0x00744f7c      3f390086944c   move.w 0x86944c, -(a7)
            0x00744f82      4eb900480fc2   jsr MENUCOM.get_boxon
            0x00744f88      544f           addq.w 0x2, a7
            0x00744f8a      4a1f           tst.b (a7)+
        < 0x00744f8c      671e           beq.b 0x744fac
           0x00744f8e      554f           subq.w 0x2, a7
           0x00744f90      3f390086bbfe   move.w 0x86bbfe, -(a7)
           0x00744f96      4eb900480fc2   jsr MENUCOM.get_boxon
           0x00744f9c      544f           addq.w 0x2, a7
           0x00744f9e      4a1f           tst.b (a7)+
       < 0x00744fa0      670a           beq.b 0x744fac
          0x00744fa2      594f           subq.w 0x4, a7
          0x00744fa4      4eb900707d9e   jsr GORDON_DUMMY.get_bgnd_clip
      < 0x00744faa      6008           bra.b 0x744fb4
      > 0x00744fac      594f           subq.w 0x4, a7
           0x00744fae      4eb900707d80   jsr GORDON_DUMMY.get_cur_clip
      > 0x00744fb4      249f           move.l (a7)+, (a2)
            0x00744fb6      2079008693f4   movea.l 0x8693f4, a0
            0x00744fbc      302e0008       move.w 0x8(a6), d0
            0x00744fc0      b043           cmp.w d3, d0
        < 0x00744fc2      6d12           blt.b 0x744fd6
           0x00744fc4      b043           cmp.w d3, d0
       < 0x00744fc6      67000098       beq.w 0x745060
          0x00744fca      0c400015       cmpi.w 0x15, d0
      < 0x00744fce      67000090       beq.w 0x745060
     < 0x00744fd2      6000011c       bra.w 0x7450f0
     > 0x00744fd6      3200           move.w d0, d1
         0x00744fd8      b244           cmp.w d4, d1
     < 0x00744fda      62000114       bhi.w 0x7450f0
        0x00744fde      d241           add.w d1, d1
        0x00744fe0      323b1006       move.w 0x744fe8(pc, d1.w), d1
        0x00744fe4      4efb1002       jmp 0x744fe8(pc, d1.w)
        0x00744fe8      001a001a       ori.b 0x1a, (a2)+
        0x00744fec      0056000a       ori.w 0xa, (a6)
        0x00744ff0      00783f2e000a   ori.w 0x3f2e, 0xa.w
        0x00744ff6      284a           movea.l a2, a4
        0x00744ff8      4ebafc86       jsr MENUEFFECTCOM.draw_clip_bar(pc)
        0x00744ffc      544f           addq.w 0x2, a7
    < 0x00744ffe      600000f0       bra.w 0x7450f0
       0x00745002      322e000a       move.w 0xa(a6), d1
       0x00745006      b2790086bbfc   cmp.w 0x86bbfc, d1
   < 0x0074500c      6608           bne.b 0x745016
      0x0074500e      284a           movea.l a2, a4
      0x00745010      4ebafe06       jsr MENUEFFECTCOM.update_clip_fra(pc)
  < 0x00745014      6024           bra.b 0x74503a
  > 0x00745016      b2790086bbfe   cmp.w 0x86bbfe, d1
  < 0x0074501c      661c           bne.b 0x74503a
     0x0074501e      3f3a8dfe       move.w 0x73de1e(pc), -(a7)
     0x00745022      514f           subq.w 0x8, a7
     0x00745024      4227           clr.b -(a7)
     0x00745026      4eb9006336ea   jsr HANDCOM.get_area
     0x0074502c      544f           addq.w 0x2, a7
     0x0074502e      4ebaab5e       jsr MENUEFFECTCOM.do_key(pc)
     0x00745032      dec5           adda.w d5, a7
     0x00745034      284a           movea.l a2, a4
     0x00745036      4ebafd54       jsr MENUEFFECTCOM.update_clip_bar(pc)
  > 0x0074503a      600000b4       bra.w 0x7450f0
       0x0074503e      322e000a       move.w 0xa(a6), d1
       0x00745042      b253           cmp.w (a3), d1
   < 0x00745044      6608           bne.b 0x74504e
      0x00745046      284a           movea.l a2, a4
      0x00745048      4ebafdce       jsr MENUEFFECTCOM.update_clip_fra(pc)
  < 0x0074504c      600e           bra.b 0x74505c
  > 0x0074504e      b2790086bbf4   cmp.w 0x86bbf4, d1
  < 0x00745054      6606           bne.b 0x74505c
     0x00745056      284a           movea.l a2, a4
     0x00745058      4ebafd32       jsr MENUEFFECTCOM.update_clip_bar(pc)
  > 0x0074505c      60000092       bra.w 0x7450f0
    > 0x00745060      322e000a       move.w 0xa(a6), d1
         0x00745064      b2790086bbf4   cmp.w 0x86bbf4, d1
     < 0x0074506a      66000084       bne.w 0x7450f0
        0x0074506e      4eb9004558e4   jsr CURSORCOM.cursor_off
        0x00745074      b044           cmp.w d4, d0
    < 0x00745076      662c           bne.b 0x7450a4
       0x00745078      2252           movea.l (a2), a1
       0x0074507a      2229001c       move.l 0x1c(a1), d1
       0x0074507e      5381           subq.l 0x1, d1
       0x00745080      34280016       move.w 0x16(a0), d2
       0x00745084      48c2           ext.l d2
       0x00745086      4c012800       muls.l d1, d2
       0x0074508a      3f13           move.w (a3), -(a7)
       0x0074508c      3228001a       move.w 0x1a(a0), d1
       0x00745090      48c1           ext.l d1
       0x00745092      f2024000       fmove.l d2, fp0
       0x00745096      f2014020       fdiv.l d1, fp0
       0x0074509a      f2064022       fadd.l d6, fp0
       0x0074509e      f2276400       fmove.s fp0, -(a7)
   < 0x007450a2      603a           bra.b 0x7450de
   > 0x007450a4      2252           movea.l (a2), a1
       0x007450a6      2229001c       move.l 0x1c(a1), d1
       0x007450aa      5381           subq.l 0x1, d1
       0x007450ac      34280012       move.w 0x12(a0), d2
       0x007450b0      48c2           ext.l d2
       0x007450b2      4c012800       muls.l d1, d2
       0x007450b6      3f13           move.w (a3), -(a7)
       0x007450b8      3228001a       move.w 0x1a(a0), d1
       0x007450bc      48c1           ext.l d1
       0x007450be      f2024000       fmove.l d2, fp0
       0x007450c2      f2014020       fdiv.l d1, fp0
       0x007450c6      594f           subq.w 0x4, a7
       0x007450c8      3f13           move.w (a3), -(a7)
       0x007450ca      4eb90048d992   jsr MENU2COM.get_numeric_val
       0x007450d0      544f           addq.w 0x2, a7
       0x007450d2      f2174480       fmove.s (a7), fp1
       0x007450d6      f20000a2       fadd fp0, fp1
       0x007450da      f2176480       fmove.s fp1, (a7)
   > 0x007450de      4227           clr.b -(a7)
        0x007450e0      1f06           move.b d6, -(a7)
        0x007450e2      4eb90048da84   jsr MENU2COM.set_numeric_val
        0x007450e8      dec5           adda.w d5, a7
        0x007450ea      284a           movea.l a2, a4
        0x007450ec      4ebafd2a       jsr MENUEFFECTCOM.update_clip_fra(pc)
  > 0x007450f0      f21fd0c0       fmovem (a7)+, fp0-fp1
            0x007450f4      4cdf1f7f       movem.l (a7)+, d0-d6/a0-a4
            0x007450f8      4e5e           unlk a6
            0x007450fa      4e75           rts
 138: MENUEFFECTCOM.hit_do_pen ();
           0x007450fc      4e56ffe8       link.w a6, 0xffe8
           0x00745100      bfd5           cmpa.l (a5), a7
       < 0x00745102      6206           bhi.b 0x74510a
          0x00745104      44fc0002       move.w 0x2, ccr
          0x00745108      4e76           trapv
       > 0x0074510a      defc0018       adda.w 0x18, a7
           0x0074510e      48e7c0c0       movem.l d0-d1/a0-a1, -(a7)
           0x00745112      43f900480fc2   lea.l MENUCOM.get_boxon, a1
           0x00745118      302e0008       move.w 0x8(a6), d0
           0x0074511c      41fa8d02       lea.l 0x73de20(pc), a0
           0x00745120      3200           move.w d0, d1
           0x00745122      e649           lsr.w 0x3, d1
           0x00745124      0c410020       cmpi.w 0x20, d1
       < 0x00745128      6d04           blt.b 0x74512e
          0x0074512a      7200           moveq 0x0, d1
      < 0x0074512c      6004           bra.b 0x745132
      > 0x0074512e      01301000       btst.l d0, (a0, d1.w)
      < 0x00745132      674a           beq.b 0x74517e
          0x00745134      554f           subq.w 0x2, a7
          0x00745136      3f3900869aa6   move.w 0x869aa6, -(a7)
          0x0074513c      4e91           jsr (a1)                    ; fcn.0000000a
          0x0074513e      544f           addq.w 0x2, a7
          0x00745140      4a1f           tst.b (a7)+
      < 0x00745142      670a           beq.b 0x74514e
         0x00745144      4227           clr.b -(a7)
         0x00745146      4ebababa       jsr MENUEFFECTCOM.colour_set_out(pc)
     > 0x0074514a      544f           addq.w 0x2, a7
    < 0x0074514c      6030           bra.b 0x74517e
    > 0x0074514e      554f           subq.w 0x2, a7
        0x00745150      3f390086944c   move.w 0x86944c, -(a7)
        0x00745156      4e91           jsr (a1)                    ; fcn.0000000a
        0x00745158      544f           addq.w 0x2, a7
        0x0074515a      4a1f           tst.b (a7)+
    < 0x0074515c      670c           beq.b 0x74516a
       0x0074515e      4eba900e       jsr MENUEFFECTCOM.check_clips(pc)
       0x00745162      4227           clr.b -(a7)
       0x00745164      4ebaa622       jsr MENUEFFECTCOM.keyer_set_out(pc)
    < 0x00745168      60e0           bra.b 0x74514a
     > 0x0074516a      554f           subq.w 0x2, a7
         0x0074516c      3f390086942a   move.w 0x86942a, -(a7)
         0x00745172      4e91           jsr (a1)                    ; fcn.0000000a
         0x00745174      544f           addq.w 0x2, a7
         0x00745176      4a1f           tst.b (a7)+
     < 0x00745178      6704           beq.b 0x74517e
        0x0074517a      4eba9744       jsr MENUEFFECTCOM.hicon_set_out(pc)
    > 0x0074517e      4cdf0303       movem.l (a7)+, d0-d1/a0-a1
           0x00745182      4e5e           unlk a6
           0x00745184      4e75           rts
 208: MENUEFFECTCOM.hit_do_all ();
           0x00745186      4e56ffd6       link.w a6, 0xffd6
           0x0074518a      bfd5           cmpa.l (a5), a7
       < 0x0074518c      6206           bhi.b 0x745194
          0x0074518e      44fc0002       move.w 0x2, ccr
          0x00745192      4e76           trapv
       > 0x00745194      defc002a       adda.w 0x2a, a7
           0x00745198      48e780f8       movem.l d0/a0-a4, -(a7)
           0x0074519c      41f900480fc2   lea.l MENUCOM.get_boxon, a0
           0x007451a2      43f900869aa6   lea.l 0x869aa6, a1
           0x007451a8      45f90086944c   lea.l 0x86944c, a2
           0x007451ae      47f90086942a   lea.l 0x86942a, a3
           0x007451b4      49f90086bbd4   lea.l 0x86bbd4, a4
           0x007451ba      302e0008       move.w 0x8(a6), d0
           0x007451be      0c400007       cmpi.w 0x7, d0
       < 0x007451c2      6600008a       bne.w 0x74524e
          0x007451c6      1f3c0001       move.b 0x1, -(a7)
          0x007451ca      554f           subq.w 0x2, a7
          0x007451cc      4eb900401d86   jsr p_Task_Priority
          0x007451d2      4eb900456ede   jsr PAD.flag_on_abort
          0x007451d8      4217           clr.b (a7)
          0x007451da      514f           subq.w 0x8, a7
          0x007451dc      4227           clr.b -(a7)
          0x007451de      4eb9006336ea   jsr HANDCOM.get_area
          0x007451e4      544f           addq.w 0x2, a7
          0x007451e6      4ebaee1e       jsr MENUEFFECTCOM.do_effects(pc)
          0x007451ea      defc000a       adda.w 0xa, a7
          0x007451ee      4a1f           tst.b (a7)+
          0x007451f0      4227           clr.b -(a7)
          0x007451f2      4267           clr.w -(a7)
          0x007451f4      4eb900456ede   jsr PAD.flag_on_abort
          0x007451fa      3e91           move.w (a1), (a7)
          0x007451fc      4e90           jsr (a0)                    ; fcn.00000009
          0x007451fe      544f           addq.w 0x2, a7
          0x00745200      4a1f           tst.b (a7)+
      < 0x00745202      6704           beq.b 0x745208
         0x00745204      3f11           move.w (a1), -(a7)
     < 0x00745206      602e           bra.b 0x745236
     > 0x00745208      554f           subq.w 0x2, a7
         0x0074520a      3f12           move.w (a2), -(a7)
         0x0074520c      4e90           jsr (a0)                    ; fcn.00000009
         0x0074520e      544f           addq.w 0x2, a7
         0x00745210      4a1f           tst.b (a7)+
     < 0x00745212      6704           beq.b 0x745218
        0x00745214      3f12           move.w (a2), -(a7)
    < 0x00745216      601e           bra.b 0x745236
    > 0x00745218      554f           subq.w 0x2, a7
        0x0074521a      3f13           move.w (a3), -(a7)
        0x0074521c      4e90           jsr (a0)                    ; fcn.00000009
        0x0074521e      544f           addq.w 0x2, a7
        0x00745220      4a1f           tst.b (a7)+
    < 0x00745222      6704           beq.b 0x745228
       0x00745224      3f13           move.w (a3), -(a7)
   < 0x00745226      600e           bra.b 0x745236
   > 0x00745228      554f           subq.w 0x2, a7
       0x0074522a      3f14           move.w (a4), -(a7)
       0x0074522c      4e90           jsr (a0)                    ; fcn.00000009
       0x0074522e      544f           addq.w 0x2, a7
       0x00745230      4a1f           tst.b (a7)+
   < 0x00745232      670a           beq.b 0x74523e
      0x00745234      3f14           move.w (a4), -(a7)
   > 0x00745236      4eb9004836a4   jsr MENUCOM.push_box
         0x0074523c      544f           addq.w 0x2, a7
      > 0x0074523e      3f3900869426   move.w 0x869426, -(a7)
          0x00745244      4227           clr.b -(a7)
          0x00745246      4eb900483776   jsr MENUCOM.swtch_box
          0x0074524c      584f           addq.w 0x4, a7
       > 0x0074524e      4cdf1f01       movem.l (a7)+, d0/a0-a4
           0x00745252      4e5e           unlk a6
           0x00745254      4e75           rts
 24: MENUEFFECTCOM.update_sofar ();
           0x00745256      4e56ffd8       link.w a6, 0xffd8
           0x0074525a      bfd5           cmpa.l (a5), a7
       < 0x0074525c      6206           bhi.b 0x745264
          0x0074525e      44fc0002       move.w 0x2, ccr
          0x00745262      4e76           trapv
       > 0x00745264      defc0020       adda.w 0x20, a7
           0x00745268      48e78080       movem.l d0/a0, -(a7)
           0x0074526c      f227e001       fmovem fp0, -(a7)
            0x00745270      41eefffc       lea.l -0x4(a6), a0
            0x00745274      514f           subq.w 0x8, a7
            0x00745276      4eb900633a48   jsr HANDCOM.get_screen_area
            0x0074527c      2d5ffff8       move.l (a7)+, -0x8(a6)
            0x00745280      2097           move.l (a7), (a0)
            0x00745282      3010           move.w (a0), d0
            0x00745284      48c0           ext.l d0
            0x00745286      f2004000       fmove.l d0, fp0
            0x0074528a      f22e44230008   fmul.s 0x8(a6), fp0
            0x00745290      f2276400       fmove.s fp0, -(a7)
            0x00745294      4eb9004081d2   jsr p_round
            0x0074529a      584f           addq.w 0x4, a7
            0x0074529c      30af0002       move.w 0x2(a7), (a0)
            0x007452a0      584f           addq.w 0x4, a7
            0x007452a2      302efffe       move.w -0x2(a6), d0
            0x007452a6      48c0           ext.l d0
            0x007452a8      5d80           subq.l 0x6, d0
            0x007452aa      3d40fffa       move.w d0, -0x6(a6)
            0x007452ae      3d7c0006fffe   move.w 0x6, -0x2(a6)
            0x007452b4      2f10           move.l (a0), -(a7)
            0x007452b6      2f2efff8       move.l -0x8(a6), -(a7)
            0x007452ba      4eb9004555a8   jsr CURSORCOM.filled_cursor
            0x007452c0      504f           addq.w 0x8, a7
            0x007452c2      f21fd080       fmovem (a7)+, fp0
            0x007452c6      4cdf0101       movem.l (a7)+, d0/a0
            0x007452ca      4e5e           unlk a6
            0x007452cc      4e75           rts
 24: MENUEFFECTCOM.hit_do_clip ();
           0x007452ce      4e56ff92       link.w a6, 0xff92
           0x007452d2      bfd5           cmpa.l (a5), a7
       < 0x007452d4      6206           bhi.b 0x7452dc
          0x007452d6      44fc0002       move.w 0x2, ccr
          0x007452da      4e76           trapv
       > 0x007452dc      defc0056       adda.w 0x56, a7
           0x007452e0      48e7fff8       movem.l d0-d7/a0-a4, -(a7)
           0x007452e4      f227e001       fmovem fp0, -(a7)
            0x007452e8      41f900480fc2   lea.l MENUCOM.get_boxon, a0
            0x007452ee      43eefffa       lea.l -0x6(a6), a1
            0x007452f2      45eefff0       lea.l -0x10(a6), a2
            0x007452f6      7201           moveq 0x1, d1
            0x007452f8      7402           moveq 0x2, d2
            0x007452fa      7603           moveq 0x3, d3
            0x007452fc      383c00cb       move.w 0xcb, d4
            0x00745300      302e0008       move.w 0x8(a6), d0
            0x00745304      0c400007       cmpi.w 0x7, d0
        < 0x00745308      66000322       bne.w 0x74562c
           0x0074530c      1f01           move.b d1, -(a7)
           0x0074530e      4eb900707e9a   jsr GORDON_DUMMY.cliplib_update
           0x00745314      544f           addq.w 0x2, a7
           0x00745316      4eb9004558e4   jsr CURSORCOM.cursor_off
           0x0074531c      4eb9004558c8   jsr CURSORCOM.grid_off
           0x00745322      4227           clr.b -(a7)
           0x00745324      4eb90047bc6c   jsr CNTLCOM.show_menu
           0x0074532a      4217           clr.b (a7)
           0x0074532c      4eb9004aba70   jsr MENUZOOMCOM.show_zoom
           0x00745332      544f           addq.w 0x2, a7
           0x00745334      4eb900518f36   jsr OUTCOM.save_out
           0x0074533a      554f           subq.w 0x2, a7
           0x0074533c      3f390086944c   move.w 0x86944c, -(a7)
           0x00745342      4e90           jsr (a0)                    ; fcn.00000009
           0x00745344      3f390086bbfe   move.w 0x86bbfe, -(a7)
           0x0074534a      4e90           jsr (a0)                    ; fcn.00000009
           0x0074534c      544f           addq.w 0x2, a7
           0x0074534e      101f           move.b (a7)+, d0
           0x00745350      4400           neg.b d0
           0x00745352      5200           addq.b 0x1, d0
           0x00745354      c01f           and.b (a7)+, d0
           0x00745356      554f           subq.w 0x2, a7
           0x00745358      3f3c001f       move.w 0x1f, -(a7)
           0x0074535c      4e90           jsr (a0)                    ; fcn.00000009
           0x0074535e      544f           addq.w 0x2, a7
           0x00745360      801f           or.b (a7)+, d0
           0x00745362      554f           subq.w 0x2, a7
           0x00745364      3f390086942a   move.w 0x86942a, -(a7)
           0x0074536a      4e90           jsr (a0)                    ; fcn.00000009
           0x0074536c      544f           addq.w 0x2, a7
           0x0074536e      801f           or.b (a7)+, d0
           0x00745370      1e00           move.b d0, d7
       < 0x00745372      674e           beq.b 0x7453c2
          0x00745374      554f           subq.w 0x2, a7
          0x00745376      3f390086944c   move.w 0x86944c, -(a7)
          0x0074537c      4e90           jsr (a0)                    ; fcn.00000009
          0x0074537e      544f           addq.w 0x2, a7
          0x00745380      4a1f           tst.b (a7)+
      < 0x00745382      6716           beq.b 0x74539a
         0x00745384      554f           subq.w 0x2, a7
         0x00745386      3f390086bbfe   move.w 0x86bbfe, -(a7)
         0x0074538c      4e90           jsr (a0)                    ; fcn.00000009
         0x0074538e      544f           addq.w 0x2, a7
         0x00745390      4417           neg.b (a7)
         0x00745392      5217           addq.b 0x1, (a7)
         0x00745394      4ebaa3f2       jsr MENUEFFECTCOM.keyer_set_out(pc)
     < 0x00745398      6020           bra.b 0x7453ba
     > 0x0074539a      554f           subq.w 0x2, a7
         0x0074539c      3f390086942a   move.w 0x86942a, -(a7)
         0x007453a2      4e90           jsr (a0)                    ; fcn.00000009
         0x007453a4      544f           addq.w 0x2, a7
         0x007453a6      4a1f           tst.b (a7)+
     < 0x007453a8      6706           beq.b 0x7453b0
        0x007453aa      1f3c002b       move.b 0x2b, -(a7)
    < 0x007453ae      6004           bra.b 0x7453b4
    > 0x007453b0      1f3c0014       move.b 0x14, -(a7)
    > 0x007453b4      4eb900518dd8   jsr OUTCOM.set_out
     > 0x007453ba      544f           addq.w 0x2, a7
          0x007453bc      12bc0004       move.b 0x4, (a1)
      < 0x007453c0      6002           bra.b 0x7453c4
      > 0x007453c2      1283           move.b d3, (a1)
      > 0x007453c4      594f           subq.w 0x4, a7
           0x007453c6      4eb900707d80   jsr GORDON_DUMMY.get_cur_clip
           0x007453cc      265f           movea.l (a7)+, a3
           0x007453ce      554f           subq.w 0x2, a7
           0x007453d0      3f390086944c   move.w 0x86944c, -(a7)
           0x007453d6      4e90           jsr (a0)                    ; fcn.00000009
           0x007453d8      544f           addq.w 0x2, a7
           0x007453da      4a1f           tst.b (a7)+
       < 0x007453dc      671e           beq.b 0x7453fc
          0x007453de      554f           subq.w 0x2, a7
          0x007453e0      3f390086bbfe   move.w 0x86bbfe, -(a7)
          0x007453e6      4e90           jsr (a0)                    ; fcn.00000009
          0x007453e8      544f           addq.w 0x2, a7
          0x007453ea      4a1f           tst.b (a7)+
      < 0x007453ec      670e           beq.b 0x7453fc
         0x007453ee      594f           subq.w 0x4, a7
         0x007453f0      4eb900707d9e   jsr GORDON_DUMMY.get_bgnd_clip
         0x007453f6      285f           movea.l (a7)+, a4
         0x007453f8      1283           move.b d3, (a1)
     < 0x007453fa      6002           bra.b 0x7453fe
     > 0x007453fc      284b           movea.l a3, a4
     > 0x007453fe      1f01           move.b d1, -(a7)
           0x00745400      554f           subq.w 0x2, a7
           0x00745402      4eb900401d86   jsr p_Task_Priority
           0x00745408      4eb900456ede   jsr PAD.flag_on_abort
           0x0074540e      584f           addq.w 0x4, a7
           0x00745410      7c00           moveq 0x0, d6
           0x00745412      7a01           moveq 0x1, d5
           0x00745414      7e01           moveq 0x1, d7
           0x00745416      514f           subq.w 0x8, a7
           0x00745418      3f390086bbf8   move.w 0x86bbf8, -(a7)
           0x0074541e      4eb90048d992   jsr MENU2COM.get_numeric_val
           0x00745424      544f           addq.w 0x2, a7
           0x00745426      4eb9004081d2   jsr p_round
           0x0074542c      584f           addq.w 0x4, a7
           0x0074542e      2d5ffff6       move.l (a7)+, -0xa(a6)
           0x00745432      1481           move.b d1, (a2)
       > 0x00745434      4a06           tst.b d6
      < 0x00745436      6600018c       bne.w 0x7455c4
         0x0074543a      4a05           tst.b d5
     < 0x0074543c      67000186       beq.w 0x7455c4
        0x00745440      beaefff6       cmp.l -0xa(a6), d7
    < 0x00745444      6e00017e       bgt.w 0x7455c4
       0x00745448      3f390086bbf6   move.w 0x86bbf6, -(a7)
       0x0074544e      f2074000       fmove.l d7, fp0
       0x00745452      f2276400       fmove.s fp0, -(a7)
       0x00745456      4227           clr.b -(a7)
       0x00745458      1f01           move.b d1, -(a7)
       0x0074545a      4eb90048da84   jsr MENU2COM.set_numeric_val
       0x00745460      5c4f           addq.w 0x6, a7
       0x00745462      3eb90086bbf0   move.w 0x86bbf0, (a7)
       0x00745468      4e90           jsr (a0)                    ; fcn.00000009
       0x0074546a      544f           addq.w 0x2, a7
       0x0074546c      4a1f           tst.b (a7)+
   < 0x0074546e      670000ea       beq.w 0x74555a
      0x00745472      554f           subq.w 0x2, a7
      0x00745474      3f390086bbe6   move.w 0x86bbe6, -(a7)
      0x0074547a      4e90           jsr (a0)                    ; fcn.00000009
      0x0074547c      544f           addq.w 0x2, a7
      0x0074547e      4a1f           tst.b (a7)+
  < 0x00745480      6612           bne.b 0x745494
     0x00745482      554f           subq.w 0x2, a7
     0x00745484      3f390086bbea   move.w 0x86bbea, -(a7)
     0x0074548a      4e90           jsr (a0)                    ; fcn.00000009
     0x0074548c      544f           addq.w 0x2, a7
     0x0074548e      4a1f           tst.b (a7)+
  < 0x00745490      670000c8       beq.w 0x74555a
  > 0x00745494      554f           subq.w 0x2, a7
      0x00745496      3f04           move.w d4, -(a7)
      0x00745498      4e90           jsr (a0)                    ; fcn.00000009
      0x0074549a      544f           addq.w 0x2, a7
      0x0074549c      4a1f           tst.b (a7)+
  < 0x0074549e      6706           beq.b 0x7454a6
     0x007454a0      3f07           move.w d7, -(a7)
     0x007454a2      1f02           move.b d2, -(a7)
  < 0x007454a4      6004           bra.b 0x7454aa
  > 0x007454a6      3f07           move.w d7, -(a7)
      0x007454a8      1f01           move.b d1, -(a7)
  > 0x007454aa      1f01           move.b d1, -(a7)
      0x007454ac      4eba9124       jsr MENUEFFECTCOM.effect_clip_buy(pc)
      0x007454b0      5c4f           addq.w 0x6, a7
      0x007454b2      554f           subq.w 0x2, a7
      0x007454b4      1f12           move.b (a2), -(a7)
      0x007454b6      514f           subq.w 0x8, a7
      0x007454b8      4227           clr.b -(a7)
      0x007454ba      4eb9006336ea   jsr HANDCOM.get_area
      0x007454c0      544f           addq.w 0x2, a7
      0x007454c2      4ebaeb42       jsr MENUEFFECTCOM.do_effects(pc)
      0x007454c6      defc000a       adda.w 0xa, a7
      0x007454ca      8c1f           or.b (a7)+, d6
      0x007454cc      1482           move.b d2, (a2)
      0x007454ce      554f           subq.w 0x2, a7
      0x007454d0      3f04           move.w d4, -(a7)
      0x007454d2      4e90           jsr (a0)                    ; fcn.00000009
      0x007454d4      544f           addq.w 0x2, a7
      0x007454d6      4a1f           tst.b (a7)+
  < 0x007454d8      670c           beq.b 0x7454e6
     0x007454da      554f           subq.w 0x2, a7
     0x007454dc      2f0c           move.l a4, -(a7)
     0x007454de      2f07           move.l d7, -(a7)
     0x007454e0      1f11           move.b (a1), -(a7)
     0x007454e2      1f02           move.b d2, -(a7)
  < 0x007454e4      600a           bra.b 0x7454f0
  > 0x007454e6      554f           subq.w 0x2, a7
      0x007454e8      2f0c           move.l a4, -(a7)
      0x007454ea      2f07           move.l d7, -(a7)
      0x007454ec      1f11           move.b (a1), -(a7)
      0x007454ee      1f01           move.b d1, -(a7)
  > 0x007454f0      1f01           move.b d1, -(a7)
      0x007454f2      4eb900707e54   jsr GORDON_DUMMY.clip_sell
      0x007454f8      defc000e       adda.w 0xe, a7
      0x007454fc      1a1f           move.b (a7)+, d5
      0x007454fe      554f           subq.w 0x2, a7
      0x00745500      3f04           move.w d4, -(a7)
      0x00745502      4e90           jsr (a0)                    ; fcn.00000009
      0x00745504      544f           addq.w 0x2, a7
      0x00745506      4a1f           tst.b (a7)+
  < 0x00745508      6706           beq.b 0x745510
     0x0074550a      3f07           move.w d7, -(a7)
     0x0074550c      1f01           move.b d1, -(a7)
  < 0x0074550e      6004           bra.b 0x745514
  > 0x00745510      3f07           move.w d7, -(a7)
      0x00745512      1f02           move.b d2, -(a7)
  > 0x00745514      1f01           move.b d1, -(a7)
      0x00745516      4eba90ba       jsr MENUEFFECTCOM.effect_clip_buy(pc)
      0x0074551a      5c4f           addq.w 0x6, a7
      0x0074551c      554f           subq.w 0x2, a7
      0x0074551e      1f12           move.b (a2), -(a7)
      0x00745520      514f           subq.w 0x8, a7
      0x00745522      4227           clr.b -(a7)
      0x00745524      4eb9006336ea   jsr HANDCOM.get_area
      0x0074552a      544f           addq.w 0x2, a7
      0x0074552c      4ebaead8       jsr MENUEFFECTCOM.do_effects(pc)
      0x00745530      defc000a       adda.w 0xa, a7
      0x00745534      8c1f           or.b (a7)+, d6
      0x00745536      554f           subq.w 0x2, a7
      0x00745538      3f04           move.w d4, -(a7)
      0x0074553a      4e90           jsr (a0)                    ; fcn.00000009
      0x0074553c      544f           addq.w 0x2, a7
      0x0074553e      4a1f           tst.b (a7)+
  < 0x00745540      670c           beq.b 0x74554e
     0x00745542      554f           subq.w 0x2, a7
     0x00745544      2f0c           move.l a4, -(a7)
     0x00745546      2f07           move.l d7, -(a7)
     0x00745548      1f11           move.b (a1), -(a7)
     0x0074554a      1f01           move.b d1, -(a7)
  < 0x0074554c      604e           bra.b 0x74559c
  > 0x0074554e      554f           subq.w 0x2, a7
      0x00745550      2f0c           move.l a4, -(a7)
      0x00745552      2f07           move.l d7, -(a7)
      0x00745554      1f11           move.b (a1), -(a7)
      0x00745556      1f02           move.b d2, -(a7)
  < 0x00745558      6042           bra.b 0x74559c
  > 0x0074555a      beab001c       cmp.l 0x1c(a3), d7
  < 0x0074555e      6e28           bgt.b 0x745588
     0x00745560      3f07           move.w d7, -(a7)
     0x00745562      4227           clr.b -(a7)
     0x00745564      1f01           move.b d1, -(a7)
     0x00745566      4eba906a       jsr MENUEFFECTCOM.effect_clip_buy(pc)
     0x0074556a      544f           addq.w 0x2, a7
     0x0074556c      1e92           move.b (a2), (a7)
     0x0074556e      514f           subq.w 0x8, a7
     0x00745570      4227           clr.b -(a7)
     0x00745572      4eb9006336ea   jsr HANDCOM.get_area
     0x00745578      544f           addq.w 0x2, a7
     0x0074557a      4ebaea8a       jsr MENUEFFECTCOM.do_effects(pc)
     0x0074557e      defc000a       adda.w 0xa, a7
     0x00745582      8c1f           or.b (a7)+, d6
     0x00745584      1482           move.b d2, (a2)
  < 0x00745586      600a           bra.b 0x745592
  > 0x00745588      554f           subq.w 0x2, a7
      0x0074558a      4eb900402f52   jsr p_Flagged
      0x00745590      8c1f           or.b (a7)+, d6
  > 0x00745592      554f           subq.w 0x2, a7
      0x00745594      2f0c           move.l a4, -(a7)
      0x00745596      2f07           move.l d7, -(a7)
      0x00745598      1f11           move.b (a1), -(a7)
      0x0074559a      4227           clr.b -(a7)
  > 0x0074559c      1f01           move.b d1, -(a7)
       0x0074559e      4eb900707e54   jsr GORDON_DUMMY.clip_sell
       0x007455a4      defc000e       adda.w 0xe, a7
       0x007455a8      1a1f           move.b (a7)+, d5
       0x007455aa      f2074000       fmove.l d7, fp0
       0x007455ae      f22e4020fff6   fdiv.l -0xa(a6), fp0
       0x007455b4      f2276400       fmove.s fp0, -(a7)
       0x007455b8      4ebafc9c       jsr MENUEFFECTCOM.update_sofar(pc)
       0x007455bc      584f           addq.w 0x4, a7
       0x007455be      5287           addq.l 0x1, d7
    < 0x007455c0      6000fe72       bra.w 0x745434
    > 0x007455c4      4227           clr.b -(a7)
           0x007455c6      4267           clr.w -(a7)
           0x007455c8      4eb900456ede   jsr PAD.flag_on_abort
           0x007455ce      584f           addq.w 0x4, a7
           0x007455d0      4eb900518f56   jsr OUTCOM.restore_out
           0x007455d6      4eba8b96       jsr MENUEFFECTCOM.check_clips(pc)
           0x007455da      3f390086bbf4   move.w 0x86bbf4, -(a7)
           0x007455e0      3f02           move.w d2, -(a7)
           0x007455e2      4ebaf96a       jsr MENUEFFECTCOM.hit_clip_view(pc)
           0x007455e6      544f           addq.w 0x2, a7
           0x007455e8      1e81           move.b d1, (a7)
           0x007455ea      4eb90047bc6c   jsr CNTLCOM.show_menu
           0x007455f0      1e81           move.b d1, (a7)
           0x007455f2      4eb9004aba70   jsr MENUZOOMCOM.show_zoom
           0x007455f8      544f           addq.w 0x2, a7
           0x007455fa      4eb9004ff1b6   jsr MENUGRIDCOM.redraw_grid_ove
           0x00745600      1f03           move.b d3, -(a7)
           0x00745602      4eb900707e9a   jsr GORDON_DUMMY.cliplib_update
           0x00745608      544f           addq.w 0x2, a7
           0x0074560a      4a05           tst.b d5
       < 0x0074560c      661e           bne.b 0x74562c
          0x0074560e      2f3a8831       move.l 0x73de41(pc), -(a7)
          0x00745612      3f2e000a       move.w 0xa(a6), -(a7)
          0x00745616      486f0002       pea.l 0x2(a7)
          0x0074561a      48780001       pea.l 0x1
          0x0074561e      48780004       pea.l 0x4
          0x00745622      4eb900483af8   jsr MENUCOM.box_error
          0x00745628      defc0012       adda.w 0x12, a7
       > 0x0074562c      f21fd080       fmovem (a7)+, fp0
            0x00745630      4cdf1fff       movem.l (a7)+, d0-d7/a0-a4
            0x00745634      4e5e           unlk a6
            0x00745636      4e75           rts
 72: MENUEFFECTCOM.hit_submenu ();
           0x00745638      4e56fff0       link.w a6, 0xfff0
           0x0074563c      bfd5           cmpa.l (a5), a7
       < 0x0074563e      6206           bhi.b 0x745646
          0x00745640      44fc0002       move.w 0x2, ccr
          0x00745644      4e76           trapv
       > 0x00745646      defc0010       adda.w 0x10, a7
           0x0074564a      48e78080       movem.l d0/a0, -(a7)
           0x0074564e      41f900869428   lea.l 0x869428, a0
           0x00745654      302e0008       move.w 0x8(a6), d0
           0x00745658      0c400001       cmpi.w 0x1, d0
       < 0x0074565c      661a           bne.b 0x745678
          0x0074565e      554f           subq.w 0x2, a7
          0x00745660      3f10           move.w (a0), -(a7)
          0x00745662      4eb900480fc2   jsr MENUCOM.get_boxon
          0x00745668      544f           addq.w 0x2, a7
          0x0074566a      4a1f           tst.b (a7)+
      < 0x0074566c      670a           beq.b 0x745678
         0x0074566e      3f10           move.w (a0), -(a7)
         0x00745670      4eb9004836a4   jsr MENUCOM.push_box
         0x00745676      544f           addq.w 0x2, a7
      > 0x00745678      4cdf0101       movem.l (a7)+, d0/a0
           0x0074567c      4e5e           unlk a6
           0x0074567e      4e75           rts
 420: MENUEFFECTCOM.make_pen_area ();
           ; var int32_t var_18h @ a6-0x18
           ; var int32_t var_16h @ a6-0x16
           0x00745680      4e56ffa2       link.w a6, 0xffa2
           0x00745684      bfd5           cmpa.l (a5), a7
       < 0x00745686      6206           bhi.b 0x74568e
          0x00745688      44fc0002       move.w 0x2, ccr
          0x0074568c      4e76           trapv
       > 0x0074568e      defc0046       adda.w 0x46, a7
           0x00745692      48e7fcf8       movem.l d0-d5/a0-a4, -(a7)
           0x00745696      43f900869402   lea.l 0x869402, a1
           0x0074569c      45f900869406   lea.l 0x869406, a2
           0x007456a2      47f900869404   lea.l 0x869404, a3
           0x007456a8      49f900869408   lea.l 0x869408, a4
           0x007456ae      7a08           moveq 0x8, d5
           0x007456b0      2079008693f4   movea.l 0x8693f4, a0
           0x007456b6      2d50fff4       move.l (a0), -0xc(a6)
           0x007456ba      486efff4       pea.l -0xc(a6)
           0x007456be      4eb9004ac46a   jsr MENUZOOMCOM.zoom_screen_pos
           0x007456c4      584f           addq.w 0x4, a7
           0x007456c6      486efff4       pea.l -0xc(a6)
           0x007456ca      4eb9004ff074   jsr MENUGRIDCOM.check_constrain
           0x007456d0      584f           addq.w 0x4, a7
           0x007456d2      4a2e0008       tst.b 0x8(a6)
       < 0x007456d6      673e           beq.b 0x745716
          0x007456d8      302efff4       move.w -0xc(a6), d0
          0x007456dc      48c0           ext.l d0
          0x007456de      81c5           divs.w d5, d0
          0x007456e0      33c0008693fa   move.w d0, 0x8693fa
          0x007456e6      302efff6       move.w -0xa(a6), d0
          0x007456ea      48c0           ext.l d0
          0x007456ec      81c5           divs.w d5, d0
          0x007456ee      33c0008693fc   move.w d0, 0x8693fc
          0x007456f4      594f           subq.w 0x4, a7
          0x007456f6      2f2efff4       move.l -0xc(a6), -(a7)
          0x007456fa      4eb9004ac562   jsr MENUZOOMCOM.unzoom_cursor_p
          0x00745700      584f           addq.w 0x4, a7
          0x00745702      2d5fffe8       move.l (a7)+, -0x18(a6)
          0x00745706      2f2effe8       move.l -0x18(a6), -(a7)
          0x0074570a      4eb9004553a4   jsr CURSORCOM.cross_cursor
          0x00745710      584f           addq.w 0x4, a7
      < 0x00745712      60000108       bra.w 0x74581c
      > 0x00745716      302efff4       move.w -0xc(a6), d0
          0x0074571a      48c0           ext.l d0
          0x0074571c      81c5           divs.w d5, d0
          0x0074571e      33c0008693fe   move.w d0, 0x8693fe
          0x00745724      302efff6       move.w -0xa(a6), d0
          0x00745728      48c0           ext.l d0
          0x0074572a      81c5           divs.w d5, d0
          0x0074572c      33c000869400   move.w d0, 0x869400
          0x00745732      32b9008693fa   move.w 0x8693fa, (a1)
          0x00745738      3239008693fe   move.w 0x8693fe, d1
          0x0074573e      48c1           ext.l d1
          0x00745740      3439008693fa   move.w 0x8693fa, d2
          0x00745746      48c2           ext.l d2
          0x00745748      2601           move.l d1, d3
          0x0074574a      9682           sub.l d2, d3
          0x0074574c      3483           move.w d3, (a2)
          0x0074574e      36b9008693fc   move.w 0x8693fc, (a3)
          0x00745754      48c0           ext.l d0
          0x00745756      3639008693fc   move.w 0x8693fc, d3
          0x0074575c      48c3           ext.l d3
          0x0074575e      2800           move.l d0, d4
          0x00745760      9883           sub.l d3, d4
          0x00745762      3884           move.w d4, (a4)
          0x00745764      b481           cmp.l d1, d2
      < 0x00745766      6f0a           ble.b 0x745772
         0x00745768      3281           move.w d1, (a1)
         0x0074576a      3412           move.w (a2), d2
         0x0074576c      48c2           ext.l d2
         0x0074576e      4482           neg.l d2
         0x00745770      3482           move.w d2, (a2)
      > 0x00745772      b680           cmp.l d0, d3
      < 0x00745774      6f0a           ble.b 0x745780
         0x00745776      3680           move.w d0, (a3)
         0x00745778      3214           move.w (a4), d1
         0x0074577a      48c1           ext.l d1
         0x0074577c      4481           neg.l d1
         0x0074577e      3881           move.w d1, (a4)
      > 0x00745780      3011           move.w (a1), d0
          0x00745782      48c0           ext.l d0
          0x00745784      e780           asl.l 0x3, d0
          0x00745786      3d40fff8       move.w d0, -0x8(a6)
          0x0074578a      3013           move.w (a3), d0
          0x0074578c      48c0           ext.l d0
          0x0074578e      e780           asl.l 0x3, d0
          0x00745790      3d40fffa       move.w d0, -0x6(a6)
          0x00745794      594f           subq.w 0x4, a7
          0x00745796      2f2efff8       move.l -0x8(a6), -(a7)
          0x0074579a      4eb9004ac562   jsr MENUZOOMCOM.unzoom_cursor_p
          0x007457a0      584f           addq.w 0x4, a7
          0x007457a2      2d5fffe8       move.l (a7)+, -0x18(a6)
          0x007457a6      3d6effe8ffec   move.w -0x18(a6), -0x14(a6)
          0x007457ac      3d6effeaffee   move.w -0x16(a6), -0x12(a6)
          0x007457b2      3011           move.w (a1), d0
          0x007457b4      48c0           ext.l d0
          0x007457b6      3212           move.w (a2), d1
          0x007457b8      48c1           ext.l d1
          0x007457ba      d280           add.l d0, d1
          0x007457bc      e781           asl.l 0x3, d1
          0x007457be      3d41fff8       move.w d1, -0x8(a6)
          0x007457c2      3013           move.w (a3), d0
          0x007457c4      48c0           ext.l d0
          0x007457c6      3214           move.w (a4), d1
          0x007457c8      48c1           ext.l d1
          0x007457ca      d280           add.l d0, d1
          0x007457cc      e781           asl.l 0x3, d1
          0x007457ce      3d41fffa       move.w d1, -0x6(a6)
          0x007457d2      594f           subq.w 0x4, a7
          0x007457d4      2f2efff8       move.l -0x8(a6), -(a7)
          0x007457d8      4eb9004ac562   jsr MENUZOOMCOM.unzoom_cursor_p
          0x007457de      584f           addq.w 0x4, a7
          0x007457e0      2d5fffe8       move.l (a7)+, -0x18(a6)
          0x007457e4      302effe8       move.w -0x18(a6), d0
          0x007457e8      48c0           ext.l d0
          0x007457ea      322effec       move.w -0x14(a6), d1
          0x007457ee      48c1           ext.l d1
          0x007457f0      4481           neg.l d1
          0x007457f2      d280           add.l d0, d1
          0x007457f4      3d41fff0       move.w d1, -0x10(a6)
          0x007457f8      302effea       move.w -0x16(a6), d0
          0x007457fc      48c0           ext.l d0
          0x007457fe      322effee       move.w -0x12(a6), d1
          0x00745802      48c1           ext.l d1
          0x00745804      4481           neg.l d1
          0x00745806      d280           add.l d0, d1
          0x00745808      3d41fff2       move.w d1, -0xe(a6)
          0x0074580c      2f2efff0       move.l -0x10(a6), -(a7)
          0x00745810      2f2effec       move.l -0x14(a6), -(a7)
          0x00745814      4eb900455482   jsr CURSORCOM.box_cursor
          0x0074581a      504f           addq.w 0x8, a7
      > 0x0074581c      4cdf1f3f       movem.l (a7)+, d0-d5/a0-a4
           0x00745820      4e5e           unlk a6
           0x00745822      4e75           rts
 134: MENUEFFECTCOM.do_effect_area ();
           0x00745824      4e56ffea       link.w a6, 0xffea
           0x00745828      bfd5           cmpa.l (a5), a7
       < 0x0074582a      6206           bhi.b 0x745832
          0x0074582c      44fc0002       move.w 0x2, ccr
          0x00745830      4e76           trapv
       > 0x00745832      defc0016       adda.w 0x16, a7
           0x00745836      48e78000       movem.l d0, -(a7)
           0x0074583a      302e000a       move.w 0xa(a6), d0
           0x0074583e      48c0           ext.l d0
           0x00745840      068000000080   addi.l 0x80, d0
           0x00745846      3d40000a       move.w d0, 0xa(a6)
           0x0074584a      486e0008       pea.l 0x8(a6)
           0x0074584e      514f           subq.w 0x8, a7
           0x00745850      4227           clr.b -(a7)
           0x00745852      4eb9006336ea   jsr HANDCOM.get_area
           0x00745858      544f           addq.w 0x2, a7
           0x0074585a      4eb9006335e8   jsr HANDCOM.crop_to_area
           0x00745860      defc000c       adda.w 0xc, a7
           0x00745864      4a6e000c       tst.w 0xc(a6)
       < 0x00745868      6f38           ble.b 0x7458a2
          0x0074586a      4a6e000e       tst.w 0xe(a6)
      < 0x0074586e      6f32           ble.b 0x7458a2
         0x00745870      1f3c0001       move.b 0x1, -(a7)
         0x00745874      554f           subq.w 0x2, a7
         0x00745876      4eb900401d86   jsr p_Task_Priority
         0x0074587c      4eb900456ede   jsr PAD.flag_on_abort
         0x00745882      4217           clr.b (a7)
         0x00745884      2f2e000c       move.l 0xc(a6), -(a7)
         0x00745888      2f2e0008       move.l 0x8(a6), -(a7)
         0x0074588c      4ebae778       jsr MENUEFFECTCOM.do_effects(pc)
         0x00745890      defc000a       adda.w 0xa, a7
         0x00745894      4a1f           tst.b (a7)+
         0x00745896      4227           clr.b -(a7)
         0x00745898      4267           clr.w -(a7)
         0x0074589a      4eb900456ede   jsr PAD.flag_on_abort
         0x007458a0      584f           addq.w 0x4, a7
      > 0x007458a2      4cdf0001       movem.l (a7)+, d0
           0x007458a6      4e5e           unlk a6
           0x007458a8      4e75           rts
 202: MENUEFFECTCOM.before_sell ();
           0x007458aa      4e56ffec       link.w a6, 0xffec
           0x007458ae      bfd5           cmpa.l (a5), a7
       < 0x007458b0      6206           bhi.b 0x7458b8
          0x007458b2      44fc0002       move.w 0x2, ccr
          0x007458b6      4e76           trapv
       > 0x007458b8      defc0014       adda.w 0x14, a7
           0x007458bc      48e700e0       movem.l a0-a2, -(a7)
           0x007458c0      41f900480fc2   lea.l MENUCOM.get_boxon, a0
           0x007458c6      43f900869428   lea.l 0x869428, a1
           0x007458cc      45f90086944c   lea.l 0x86944c, a2
           0x007458d2      4eb9004558e4   jsr CURSORCOM.cursor_off
           0x007458d8      4eb9004558c8   jsr CURSORCOM.grid_off
           0x007458de      4227           clr.b -(a7)
           0x007458e0      4eb90047bc6c   jsr CNTLCOM.show_menu
           0x007458e6      4217           clr.b (a7)
           0x007458e8      4eb9004aba70   jsr MENUZOOMCOM.show_zoom
           0x007458ee      544f           addq.w 0x2, a7
           0x007458f0      4eb900518f36   jsr OUTCOM.save_out
           0x007458f6      554f           subq.w 0x2, a7
           0x007458f8      3f3c001f       move.w 0x1f, -(a7)
           0x007458fc      4e90           jsr (a0)                    ; fcn.00000009
           0x007458fe      544f           addq.w 0x2, a7
           0x00745900      4a1f           tst.b (a7)+
       < 0x00745902      6768           beq.b 0x74596c
          0x00745904      554f           subq.w 0x2, a7
          0x00745906      3f11           move.w (a1), -(a7)
          0x00745908      4e90           jsr (a0)                    ; fcn.00000009
          0x0074590a      544f           addq.w 0x2, a7
          0x0074590c      4a1f           tst.b (a7)+
      < 0x0074590e      6632           bne.b 0x745942
         0x00745910      554f           subq.w 0x2, a7
         0x00745912      3f390086942a   move.w 0x86942a, -(a7)
         0x00745918      4e90           jsr (a0)                    ; fcn.00000009
         0x0074591a      544f           addq.w 0x2, a7
         0x0074591c      4a1f           tst.b (a7)+
     < 0x0074591e      661c           bne.b 0x74593c
        0x00745920      554f           subq.w 0x2, a7
        0x00745922      3f12           move.w (a2), -(a7)
        0x00745924      4e90           jsr (a0)                    ; fcn.00000009
        0x00745926      544f           addq.w 0x2, a7
        0x00745928      4a1f           tst.b (a7)+
    < 0x0074592a      6716           beq.b 0x745942
       0x0074592c      554f           subq.w 0x2, a7
       0x0074592e      3f390086945c   move.w 0x86945c, -(a7)
       0x00745934      4e90           jsr (a0)                    ; fcn.00000009
       0x00745936      544f           addq.w 0x2, a7
       0x00745938      4a1f           tst.b (a7)+
   < 0x0074593a      6606           bne.b 0x745942
   > 0x0074593c      1f3c002a       move.b 0x2a, -(a7)
   < 0x00745940      6022           bra.b 0x745964
   > 0x00745942      554f           subq.w 0x2, a7
         0x00745944      3f11           move.w (a1), -(a7)
         0x00745946      4e90           jsr (a0)                    ; fcn.00000009
         0x00745948      544f           addq.w 0x2, a7
         0x0074594a      4a1f           tst.b (a7)+
     < 0x0074594c      6612           bne.b 0x745960
        0x0074594e      554f           subq.w 0x2, a7
        0x00745950      3f12           move.w (a2), -(a7)
        0x00745952      4e90           jsr (a0)                    ; fcn.00000009
        0x00745954      544f           addq.w 0x2, a7
        0x00745956      4a1f           tst.b (a7)+
    < 0x00745958      6706           beq.b 0x745960
       0x0074595a      1f3c002b       move.b 0x2b, -(a7)
   < 0x0074595e      6004           bra.b 0x745964
   > 0x00745960      1f3c0014       move.b 0x14, -(a7)
   > 0x00745964      4eb900518dd8   jsr OUTCOM.set_out
          0x0074596a      544f           addq.w 0x2, a7
       > 0x0074596c      4cdf0700       movem.l (a7)+, a0-a2
           0x00745970      4e5e           unlk a6
           0x00745972      4e75           rts
 66: MENUEFFECTCOM.after_sell ();
           0x00745974      4e56fff6       link.w a6, 0xfff6
           0x00745978      bfd5           cmpa.l (a5), a7
       < 0x0074597a      6206           bhi.b 0x745982
          0x0074597c      44fc0002       move.w 0x2, ccr
          0x00745980      4e76           trapv
       > 0x00745982      defc000a       adda.w 0xa, a7
           0x00745986      48e78000       movem.l d0, -(a7)
           0x0074598a      7001           moveq 0x1, d0
           0x0074598c      4eb900518f56   jsr OUTCOM.restore_out
           0x00745992      1f00           move.b d0, -(a7)
           0x00745994      4eb90047bc6c   jsr CNTLCOM.show_menu
           0x0074599a      1e80           move.b d0, (a7)
           0x0074599c      4eb9004aba70   jsr MENUZOOMCOM.show_zoom
           0x007459a2      544f           addq.w 0x2, a7
           0x007459a4      4eb9004ff1b6   jsr MENUGRIDCOM.redraw_grid_ove
           0x007459aa      4eba87c2       jsr MENUEFFECTCOM.check_clips(pc)
           0x007459ae      4cdf0001       movem.l (a7)+, d0
           0x007459b2      4e5e           unlk a6
           0x007459b4      4e75           rts
 190: MENUEFFECTCOM.after_buy ();
           0x007459b6      4e56ffe8       link.w a6, 0xffe8
           0x007459ba      bfd5           cmpa.l (a5), a7
       < 0x007459bc      6206           bhi.b 0x7459c4
          0x007459be      44fc0002       move.w 0x2, ccr
          0x007459c2      4e76           trapv
       > 0x007459c4      defc0018       adda.w 0x18, a7
           0x007459c8      48e700c0       movem.l a0-a1, -(a7)
           0x007459cc      41f900480fc2   lea.l MENUCOM.get_boxon, a0
           0x007459d2      43f9006336ea   lea.l HANDCOM.get_area, a1
           0x007459d8      554f           subq.w 0x2, a7
           0x007459da      3f390086944c   move.w 0x86944c, -(a7)
           0x007459e0      4e90           jsr (a0)                    ; fcn.00000009
           0x007459e2      544f           addq.w 0x2, a7
           0x007459e4      4a1f           tst.b (a7)+
       < 0x007459e6      6712           beq.b 0x7459fa
          0x007459e8      3f3a845c       move.w 0x73de46(pc), -(a7)
          0x007459ec      514f           subq.w 0x8, a7
          0x007459ee      4227           clr.b -(a7)
          0x007459f0      4e91           jsr (a1)                    ; fcn.0000000a
          0x007459f2      544f           addq.w 0x2, a7
          0x007459f4      4ebaa198       jsr MENUEFFECTCOM.do_key(pc)
      < 0x007459f8      605e           bra.b 0x745a58
      > 0x007459fa      554f           subq.w 0x2, a7
          0x007459fc      3f390086942a   move.w 0x86942a, -(a7)
          0x00745a02      4e90           jsr (a0)                    ; fcn.00000009
          0x00745a04      544f           addq.w 0x2, a7
          0x00745a06      4a1f           tst.b (a7)+
      < 0x00745a08      6710           beq.b 0x745a1a
         0x00745a0a      4227           clr.b -(a7)
         0x00745a0c      514f           subq.w 0x8, a7
         0x00745a0e      4227           clr.b -(a7)
         0x00745a10      4e91           jsr (a1)                    ; fcn.0000000a
         0x00745a12      544f           addq.w 0x2, a7
         0x00745a14      4eba90b2       jsr MENUEFFECTCOM.do_hicon(pc)
     < 0x00745a18      603e           bra.b 0x745a58
     > 0x00745a1a      554f           subq.w 0x2, a7
         0x00745a1c      3f3900869aa6   move.w 0x869aa6, -(a7)
         0x00745a22      4e90           jsr (a0)                    ; fcn.00000009
         0x00745a24      544f           addq.w 0x2, a7
         0x00745a26      4a1f           tst.b (a7)+
     < 0x00745a28      6710           beq.b 0x745a3a
        0x00745a2a      4227           clr.b -(a7)
        0x00745a2c      514f           subq.w 0x8, a7
        0x00745a2e      4227           clr.b -(a7)
        0x00745a30      4e91           jsr (a1)                    ; fcn.0000000a
        0x00745a32      544f           addq.w 0x2, a7
        0x00745a34      4ebabd46       jsr MENUEFFECTCOM.do_colour(pc)
    < 0x00745a38      601e           bra.b 0x745a58
    > 0x00745a3a      554f           subq.w 0x2, a7
        0x00745a3c      3f390086bbd4   move.w 0x86bbd4, -(a7)
        0x00745a42      4e90           jsr (a0)                    ; fcn.00000009
        0x00745a44      544f           addq.w 0x2, a7
        0x00745a46      4a1f           tst.b (a7)+
    < 0x00745a48      6712           beq.b 0x745a5c
       0x00745a4a      4227           clr.b -(a7)
       0x00745a4c      514f           subq.w 0x8, a7
       0x00745a4e      4227           clr.b -(a7)
       0x00745a50      4e91           jsr (a1)                    ; fcn.0000000a
       0x00745a52      544f           addq.w 0x2, a7
       0x00745a54      4ebad726       jsr MENUEFFECTCOM.do_dots(pc)
    > 0x00745a58      defc000a       adda.w 0xa, a7
       > 0x00745a5c      3f390086bbf4   move.w 0x86bbf4, -(a7)
           0x00745a62      3f3c0002       move.w 0x2, -(a7)
           0x00745a66      4ebaf4e6       jsr MENUEFFECTCOM.hit_clip_view(pc)
           0x00745a6a      584f           addq.w 0x4, a7
           0x00745a6c      4cdf0300       movem.l (a7)+, a0-a1
           0x00745a70      4e5e           unlk a6
           0x00745a72      4e75           rts
            ; CALL XREF from fcn.00746094 @ 0x74615c
 278: MENUEFFECTCOM.send_to_submenu ();
           0x00745a74      4e56ffe8       link.w a6, 0xffe8
           0x00745a78      bfd5           cmpa.l (a5), a7
       < 0x00745a7a      6206           bhi.b 0x745a82
          0x00745a7c      44fc0002       move.w 0x2, ccr
          0x00745a80      4e76           trapv
       > 0x00745a82      defc0018       adda.w 0x18, a7
           0x00745a86      48e700f0       movem.l a0-a3, -(a7)
           0x00745a8a      41f900480fc2   lea.l MENUCOM.get_boxon, a0
           0x00745a90      43ec0012       lea.l 0x12(a4), a1
           0x00745a94      45ec0010       lea.l 0x10(a4), a2
           0x00745a98      47f90086942a   lea.l 0x86942a, a3
           0x00745a9e      1d7c00010008   move.b 0x1, 0x8(a6)
           0x00745aa4      554f           subq.w 0x2, a7
           0x00745aa6      3f3c005f       move.w 0x5f, -(a7)
           0x00745aaa      4e90           jsr (a0)                    ; fcn.00000009
           0x00745aac      544f           addq.w 0x2, a7
           0x00745aae      4a1f           tst.b (a7)+
       < 0x00745ab0      6710           beq.b 0x745ac2
          0x00745ab2      3f11           move.w (a1), -(a7)
          0x00745ab4      3f12           move.w (a2), -(a7)
          0x00745ab6      4eb90074bc48   jsr MENUFETTLECOM.hit_fettle
 > 0x00745abc      584f           addq.w 0x4, a7
 < 0x00745abe      600000c2       bra.w 0x745b82
 > 0x00745ac2      554f           subq.w 0x2, a7
     0x00745ac4      3f3900869aa6   move.w 0x869aa6, -(a7)
     0x00745aca      4e90           jsr (a0)                    ; fcn.00000009
     0x00745acc      544f           addq.w 0x2, a7
     0x00745ace      4a1f           tst.b (a7)+
 < 0x00745ad0      670a           beq.b 0x745adc
    0x00745ad2      3f11           move.w (a1), -(a7)
    0x00745ad4      3f12           move.w (a2), -(a7)
    0x00745ad6      4ebac006       jsr MENUEFFECTCOM.hit_colour(pc)
 < 0x00745ada      60e0           bra.b 0x745abc
  > 0x00745adc      554f           subq.w 0x2, a7
      0x00745ade      3f390086944c   move.w 0x86944c, -(a7)
      0x00745ae4      4e90           jsr (a0)                    ; fcn.00000009
      0x00745ae6      544f           addq.w 0x2, a7
      0x00745ae8      4a1f           tst.b (a7)+
  < 0x00745aea      670a           beq.b 0x745af6
     0x00745aec      3f11           move.w (a1), -(a7)
     0x00745aee      3f12           move.w (a2), -(a7)
     0x00745af0      4ebaabaa       jsr MENUEFFECTCOM.hit_keyer(pc)
  < 0x00745af4      60c6           bra.b 0x745abc
   > 0x00745af6      554f           subq.w 0x2, a7
       0x00745af8      3f13           move.w (a3), -(a7)
       0x00745afa      4e90           jsr (a0)                    ; fcn.00000009
       0x00745afc      544f           addq.w 0x2, a7
       0x00745afe      4a1f           tst.b (a7)+
   < 0x00745b00      670a           beq.b 0x745b0c
  > 0x00745b02      3f11           move.w (a1), -(a7)
     0x00745b04      3f12           move.w (a2), -(a7)
     0x00745b06      4eba9276       jsr MENUEFFECTCOM.hit_hicon(pc)
  < 0x00745b0a      60b0           bra.b 0x745abc
   > 0x00745b0c      554f           subq.w 0x2, a7
       0x00745b0e      3f3900869446   move.w 0x869446, -(a7)
       0x00745b14      4e90           jsr (a0)                    ; fcn.00000009
       0x00745b16      544f           addq.w 0x2, a7
       0x00745b18      4a1f           tst.b (a7)+
   < 0x00745b1a      670c           beq.b 0x745b28
      0x00745b1c      3f11           move.w (a1), -(a7)
      0x00745b1e      3f12           move.w (a2), -(a7)
      0x00745b20      4eb90049b99a   jsr MENUNUMPADCOM.hit_numpad
   < 0x00745b26      6094           bra.b 0x745abc
    > 0x00745b28      554f           subq.w 0x2, a7
        0x00745b2a      3f390086bbe6   move.w 0x86bbe6, -(a7)
        0x00745b30      4e90           jsr (a0)                    ; fcn.00000009
        0x00745b32      544f           addq.w 0x2, a7
        0x00745b34      4a1f           tst.b (a7)+
    < 0x00745b36      6610           bne.b 0x745b48
       0x00745b38      554f           subq.w 0x2, a7
       0x00745b3a      3f390086bbea   move.w 0x86bbea, -(a7)
       0x00745b40      4e90           jsr (a0)                    ; fcn.00000009
       0x00745b42      544f           addq.w 0x2, a7
       0x00745b44      4a1f           tst.b (a7)+
   < 0x00745b46      670c           beq.b 0x745b54
   > 0x00745b48      3f11           move.w (a1), -(a7)
       0x00745b4a      3f12           move.w (a2), -(a7)
       0x00745b4c      4ebacf4c       jsr MENUEFFECTCOM.hit_blur_grow(pc)
   < 0x00745b50      6000ff6a       bra.w 0x745abc
   > 0x00745b54      554f           subq.w 0x2, a7
         0x00745b56      3f13           move.w (a3), -(a7)
         0x00745b58      4e90           jsr (a0)                    ; fcn.00000009
         0x00745b5a      544f           addq.w 0x2, a7
         0x00745b5c      4a1f           tst.b (a7)+
     < 0x00745b5e      6702           beq.b 0x745b62
  < 0x00745b60      60a0           bra.b 0x745b02
      > 0x00745b62      554f           subq.w 0x2, a7
          0x00745b64      3f390086bbd4   move.w 0x86bbd4, -(a7)
          0x00745b6a      4e90           jsr (a0)                    ; fcn.00000009
          0x00745b6c      544f           addq.w 0x2, a7
          0x00745b6e      4a1f           tst.b (a7)+
      < 0x00745b70      670c           beq.b 0x745b7e
         0x00745b72      3f11           move.w (a1), -(a7)
         0x00745b74      3f12           move.w (a2), -(a7)
         0x00745b76      4ebad81e       jsr MENUEFFECTCOM.hit_dots(pc)
      < 0x00745b7a      6000ff40       bra.w 0x745abc
       > 0x00745b7e      422e0008       clr.b 0x8(a6)
 > 0x00745b82      4cdf0f00       movem.l (a7)+, a0-a3
           0x00745b86      4e5e           unlk a6
           0x00745b88      4e75           rts
            ; CALL XREF from MENUEFFECTCOM.rat_add_rem @ 0x745c64
 52: MENUEFFECTCOM.force_on ();
           0x00745b8a      4e56fff8       link.w a6, 0xfff8
           0x00745b8e      bfd5           cmpa.l (a5), a7
       < 0x00745b90      6206           bhi.b 0x745b98
          0x00745b92      44fc0002       move.w 0x2, ccr
          0x00745b96      4e76           trapv
       > 0x00745b98      defc0008       adda.w 0x8, a7
           0x00745b9c      554f           subq.w 0x2, a7
           0x00745b9e      3f2e0008       move.w 0x8(a6), -(a7)
           0x00745ba2      4eb900480fc2   jsr MENUCOM.get_boxon
           0x00745ba8      544f           addq.w 0x2, a7
           0x00745baa      4a1f           tst.b (a7)+
       < 0x00745bac      660c           bne.b 0x745bba
          0x00745bae      3f2e0008       move.w 0x8(a6), -(a7)
          0x00745bb2      4eb9004836a4   jsr MENUCOM.push_box
          0x00745bb8      544f           addq.w 0x2, a7
       > 0x00745bba      4e5e           unlk a6
           0x00745bbc      4e75           rts
 180: MENUEFFECTCOM.rat_add_rem ();
           0x00745bbe      4e56ffe8       link.w a6, 0xffe8
           0x00745bc2      bfd5           cmpa.l (a5), a7
       < 0x00745bc4      6206           bhi.b 0x745bcc
          0x00745bc6      44fc0002       move.w 0x2, ccr
          0x00745bca      4e76           trapv
       > 0x00745bcc      defc0018       adda.w 0x18, a7
           0x00745bd0      48e700f0       movem.l a0-a3, -(a7)
           0x00745bd4      41f900480fc2   lea.l MENUCOM.get_boxon, a0
           0x00745bda      43f900869428   lea.l 0x869428, a1
           0x00745be0      45f90086944c   lea.l 0x86944c, a2
           0x00745be6      47f90086942a   lea.l 0x86942a, a3
           0x00745bec      4a2e0008       tst.b 0x8(a6)
       < 0x00745bf0      673a           beq.b 0x745c2c
          0x00745bf2      554f           subq.w 0x2, a7
          0x00745bf4      3f11           move.w (a1), -(a7)
          0x00745bf6      4e90           jsr (a0)                    ; fcn.00000009
          0x00745bf8      544f           addq.w 0x2, a7
          0x00745bfa      4a1f           tst.b (a7)+
      < 0x00745bfc      6706           beq.b 0x745c04
         0x00745bfe      3f3c0028       move.w 0x28, -(a7)
     < 0x00745c02      6060           bra.b 0x745c64
     > 0x00745c04      554f           subq.w 0x2, a7
         0x00745c06      3f12           move.w (a2), -(a7)
         0x00745c08      4e90           jsr (a0)                    ; fcn.00000009
         0x00745c0a      544f           addq.w 0x2, a7
         0x00745c0c      4a1f           tst.b (a7)+
     < 0x00745c0e      6708           beq.b 0x745c18
        0x00745c10      3f390086945a   move.w 0x86945a, -(a7)
    < 0x00745c16      604c           bra.b 0x745c64
    > 0x00745c18      554f           subq.w 0x2, a7
        0x00745c1a      3f13           move.w (a3), -(a7)
        0x00745c1c      4e90           jsr (a0)                    ; fcn.00000009
        0x00745c1e      544f           addq.w 0x2, a7
        0x00745c20      4a1f           tst.b (a7)+
    < 0x00745c22      6746           beq.b 0x745c6a
       0x00745c24      3f3900869436   move.w 0x869436, -(a7)
   < 0x00745c2a      6038           bra.b 0x745c64
   > 0x00745c2c      554f           subq.w 0x2, a7
       0x00745c2e      3f11           move.w (a1), -(a7)
       0x00745c30      4e90           jsr (a0)                    ; fcn.00000009
       0x00745c32      544f           addq.w 0x2, a7
       0x00745c34      4a1f           tst.b (a7)+
   < 0x00745c36      6706           beq.b 0x745c3e
      0x00745c38      3f3c0027       move.w 0x27, -(a7)
  < 0x00745c3c      6026           bra.b 0x745c64
  > 0x00745c3e      554f           subq.w 0x2, a7
      0x00745c40      3f12           move.w (a2), -(a7)
      0x00745c42      4e90           jsr (a0)                    ; fcn.00000009
      0x00745c44      544f           addq.w 0x2, a7
      0x00745c46      4a1f           tst.b (a7)+
  < 0x00745c48      6708           beq.b 0x745c52
     0x00745c4a      3f3900869458   move.w 0x869458, -(a7)
 < 0x00745c50      6012           bra.b 0x745c64
 > 0x00745c52      554f           subq.w 0x2, a7
     0x00745c54      3f13           move.w (a3), -(a7)
     0x00745c56      4e90           jsr (a0)                    ; fcn.00000009
     0x00745c58      544f           addq.w 0x2, a7
     0x00745c5a      4a1f           tst.b (a7)+
 < 0x00745c5c      670c           beq.b 0x745c6a
    0x00745c5e      3f3900869434   move.w 0x869434, -(a7)
 > 0x00745c64      4ebaff24       jsr MENUEFFECTCOM.force_on(pc)
         0x00745c68      544f           addq.w 0x2, a7
      > 0x00745c6a      4cdf0f00       movem.l (a7)+, a0-a3
           0x00745c6e      4e5e           unlk a6
           0x00745c70      4e75           rts
 94: MENUEFFECTCOM.hit_effects ();
           0x00745c72      4e56ffb2       link.w a6, 0xffb2
           0x00745c76      bfd5           cmpa.l (a5), a7
       < 0x00745c78      6206           bhi.b 0x745c80
          0x00745c7a      44fc0002       move.w 0x2, ccr
          0x00745c7e      4e76           trapv
       > 0x00745c80      defc0046       adda.w 0x46, a7
           0x00745c84      48e7fff8       movem.l d0-d7/a0-a4, -(a7)
           0x00745c88      43f900480fc2   lea.l MENUCOM.get_boxon, a1
           0x00745c8e      45f900869aa6   lea.l 0x869aa6, a2
           0x00745c94      47f90086bbf2   lea.l 0x86bbf2, a3
           0x00745c9a      7601           moveq 0x1, d3
           0x00745c9c      7803           moveq 0x3, d4
           0x00745c9e      7a02           moveq 0x2, d5
           0x00745ca0      7c1e           moveq 0x1e, d6
           0x00745ca2      302e0008       move.w 0x8(a6), d0
           0x00745ca6      b046           cmp.w d6, d0
       < 0x00745ca8      6d12           blt.b 0x745cbc
          0x00745caa      b046           cmp.w d6, d0
      < 0x00745cac      67000156       beq.w 0x745e04
         0x00745cb0      0c400029       cmpi.w 0x29, d0
     < 0x00745cb4      670001f4       beq.w 0x745eaa
    < 0x00745cb8      600003da       bra.w fcn.00746094
    > 0x00745cbc      3200           move.w d0, d1
        0x00745cbe      0c410018       cmpi.w 0x18, d1
    < 0x00745cc2      620003d0       bhi.w fcn.00746094
       0x00745cc6      d241           add.w d1, d1
       0x00745cc8      323b1006       move.w 0x745cd0(pc, d1.w), d1
       0x00745ccc      4efb1002       jmp 0x745cd0(pc, d1.w)
        0x00745cd0      01340032       btst.l d0, 0x32(a4, d0.w)
        0x00745cd4      03c4           bset.b d1, d4
        0x00745cd6      03c4           bset.b d1, d4
        0x00745cd8      03c4           bset.b d1, d4
        0x00745cda      03c4           bset.b d1, d4
        0x00745cdc      03c4           bset.b d1, d4
        0x00745cde      03c4           bset.b d1, d4
        0x00745ce0      024e024e       
        0x00745ce1      4e024e02       
        0x00745ce2      024e024e       
        0x00745ce3      4e024e01       
        0x00745ce4      024e01ac       
        0x00745ce5      4e01ac01       
        0x00745ce6      01ac01ac       bclr.b d0, 0x1ac(a4)
        0x00745cea      01ac01fc       bclr.b d0, 0x1fc(a4)
        0x00745cee      024e024e       
        0x00745cef      4e024e02       
        0x00745cf0      024e024e       
        0x00745cf1      4e024e01       
        0x00745cf2      024e01e0       
        0x00745cf3      4e01e001       
        0x00745cf4      01e0           bset.b d0, -(a0)
        0x00745cf6      01fc01e0       
        0x00745cf7      fc01e003       fmovem fp0-fp1, d1
        0x00745cfb      c403           and.b d3, d2
        0x00745cfd      06038203       addi.b 0x3, d3
        0x00745d01      861f           or.b (a7)+, d3
        0x00745d03      042f39008694   subi.b 0x0, -0x796c(a7)
        0x00745d09      0e4eb900       
        0x00745d0a      4eb90051872e   jsr OUTCOM.set_scroll
        0x00745d10      584f           addq.w 0x4, a7
        0x00745d12      1e84           move.b d4, (a7)
        0x00745d14      2f390086941e   move.l 0x86941e, -(a7)
        0x00745d1a      2f390086941a   move.l 0x86941a, -(a7)
        0x00745d20      4eb900518a2a   jsr OUTCOM.set_video_crops
        0x00745d26      defc000a       adda.w 0xa, a7
        0x00745d2a      4eb9004ff1b6   jsr MENUGRIDCOM.redraw_grid_ove
        0x00745d30      3f3c0004       move.w 0x4, -(a7)
        0x00745d34      4eb90047dcbe   jsr CNTLCOM.set_control_box
        0x00745d3a      544f           addq.w 0x2, a7
        0x00745d3c      4eb900518f96   jsr OUTCOM.normal_set_out
        0x00745d42      1f03           move.b d3, -(a7)
        0x00745d44      4eb90048f2e6   jsr MENURIGHTCOM.change_right
        0x00745d4a      3f12           move.w (a2), -(a7)
        0x00745d4c      4e91           jsr (a1)                    ; fcn.0000000a
        0x00745d4e      544f           addq.w 0x2, a7
        0x00745d50      4a1f           tst.b (a7)+
    < 0x00745d52      670c           beq.b 0x745d60
       0x00745d54      3f12           move.w (a2), -(a7)
       0x00745d56      3f03           move.w d3, -(a7)
       0x00745d58      4ebabd84       jsr MENUEFFECTCOM.hit_colour(pc)
   < 0x00745d5c      60000090       bra.w 0x745dee
   > 0x00745d60      554f           subq.w 0x2, a7
       0x00745d62      3f390086944c   move.w 0x86944c, -(a7)
       0x00745d68      4e91           jsr (a1)                    ; fcn.0000000a
       0x00745d6a      544f           addq.w 0x2, a7
       0x00745d6c      4a1f           tst.b (a7)+
   < 0x00745d6e      670e           beq.b 0x745d7e
      0x00745d70      3f390086944c   move.w 0x86944c, -(a7)
      0x00745d76      3f03           move.w d3, -(a7)
      0x00745d78      4ebaa922       jsr MENUEFFECTCOM.hit_keyer(pc)
  < 0x00745d7c      6070           bra.b 0x745dee
  > 0x00745d7e      554f           subq.w 0x2, a7
      0x00745d80      3f390086942a   move.w 0x86942a, -(a7)
      0x00745d86      4e91           jsr (a1)                    ; fcn.0000000a
      0x00745d88      544f           addq.w 0x2, a7
      0x00745d8a      4a1f           tst.b (a7)+
  < 0x00745d8c      670e           beq.b 0x745d9c
     0x00745d8e      3f390086942a   move.w 0x86942a, -(a7)
     0x00745d94      3f03           move.w d3, -(a7)
     0x00745d96      4eba8fe6       jsr MENUEFFECTCOM.hit_hicon(pc)
  < 0x00745d9a      6052           bra.b 0x745dee
  > 0x00745d9c      554f           subq.w 0x2, a7
      0x00745d9e      3f390086bbe6   move.w 0x86bbe6, -(a7)
      0x00745da4      4e91           jsr (a1)                    ; fcn.0000000a
      0x00745da6      544f           addq.w 0x2, a7
      0x00745da8      4a1f           tst.b (a7)+
  < 0x00745daa      670e           beq.b 0x745dba
     0x00745dac      3f390086bbe6   move.w 0x86bbe6, -(a7)
  > 0x00745db2      3f03           move.w d3, -(a7)
     0x00745db4      4ebacce4       jsr MENUEFFECTCOM.hit_blur_grow(pc)
  < 0x00745db8      6034           bra.b 0x745dee
  > 0x00745dba      554f           subq.w 0x2, a7
      0x00745dbc      3f390086bbea   move.w 0x86bbea, -(a7)
      0x00745dc2      4e91           jsr (a1)                    ; fcn.0000000a
      0x00745dc4      544f           addq.w 0x2, a7
      0x00745dc6      4a1f           tst.b (a7)+
  < 0x00745dc8      6708           beq.b 0x745dd2
     0x00745dca      3f390086bbea   move.w 0x86bbea, -(a7)
  < 0x00745dd0      60e0           bra.b 0x745db2
  > 0x00745dd2      554f           subq.w 0x2, a7
      0x00745dd4      3f390086bbd4   move.w 0x86bbd4, -(a7)
      0x00745dda      4e91           jsr (a1)                    ; fcn.0000000a
      0x00745ddc      544f           addq.w 0x2, a7
      0x00745dde      4a1f           tst.b (a7)+
  < 0x00745de0      670e           beq.b 0x745df0
     0x00745de2      3f390086bbd4   move.w 0x86bbd4, -(a7)
     0x00745de8      3f03           move.w d3, -(a7)
     0x00745dea      4ebad5aa       jsr MENUEFFECTCOM.hit_dots(pc)
  > 0x00745dee      584f           addq.w 0x4, a7
    > 0x00745df0      3f13           move.w (a3), -(a7)
        0x00745df2      1f03           move.b d3, -(a7)
        0x00745df4      4eb900483776   jsr MENUCOM.swtch_box
        0x00745dfa      584f           addq.w 0x4, a7
        0x00745dfc      4eba8370       jsr MENUEFFECTCOM.check_clips(pc)
    < 0x00745e00      60000360       bra.w 0x746162              ; fcn.00746094+0xce
    > 0x00745e04      554f           subq.w 0x2, a7
        0x00745e06      3f3c005f       move.w 0x5f, -(a7)
        0x00745e0a      4e91           jsr (a1)                    ; fcn.0000000a
        0x00745e0c      544f           addq.w 0x2, a7
        0x00745e0e      4a1f           tst.b (a7)+
    < 0x00745e10      670e           beq.b 0x745e20
       0x00745e12      3f390086943c   move.w 0x86943c, -(a7)
       0x00745e18      4eb9004836a4   jsr MENUCOM.push_box
       0x00745e1e      544f           addq.w 0x2, a7
    > 0x00745e20      3f390086bbfe   move.w 0x86bbfe, -(a7)
        0x00745e26      4227           clr.b -(a7)
        0x00745e28      4eb900483972   jsr MENUCOM.set_enable_box
        0x00745e2e      544f           addq.w 0x2, a7
        0x00745e30      3eb90086bbfc   move.w 0x86bbfc, (a7)
        0x00745e36      4227           clr.b -(a7)
        0x00745e38      4eb900483972   jsr MENUCOM.set_enable_box
        0x00745e3e      544f           addq.w 0x2, a7
        0x00745e40      3eb90086bbfa   move.w 0x86bbfa, (a7)
        0x00745e46      4227           clr.b -(a7)
        0x00745e48      4eb900483972   jsr MENUCOM.set_enable_box
        0x00745e4e      584f           addq.w 0x4, a7
        0x00745e50      48780001       pea.l 0x1
        0x00745e54      223900869422   move.l 0x869422, d1
        0x00745e5a      b29f           cmp.l (a7)+, d1
    < 0x00745e5c      670e           beq.b 0x745e6c
       0x00745e5e      487900869422   pea.l 0x869422
       0x00745e64      4eb900632826   jsr CACHECOM.remove_cache_re
       0x00745e6a      584f           addq.w 0x4, a7
    > 0x00745e6c      3f13           move.w (a3), -(a7)
        0x00745e6e      4227           clr.b -(a7)
        ; CODE XREF from MENUEFFECTCOM @ +0x8550
    > 0x00745e70      4eb900483776   jsr MENUCOM.swtch_box
       0x00745e76      584f           addq.w 0x4, a7
   < 0x00745e78      600002e8       bra.w 0x746162              ; fcn.00746094+0xce
      0x00745e7c      4eb9004ff1b6   jsr MENUGRIDCOM.redraw_grid_ove
      0x00745e82      4eb9004558e4   jsr CURSORCOM.cursor_off
      0x00745e88      4239008693f8   clr.b 0x8693f8
      0x00745e8e      554f           subq.w 0x2, a7
      0x00745e90      3f12           move.w (a2), -(a7)
      0x00745e92      4e91           jsr (a1)                    ; fcn.0000000a
      0x00745e94      544f           addq.w 0x2, a7
      0x00745e96      4a1f           tst.b (a7)+
  < 0x00745e98      670c           beq.b 0x745ea6
     0x00745e9a      3f2e000a       move.w 0xa(a6), -(a7)
     0x00745e9e      3f00           move.w d0, -(a7)
     0x00745ea0      4ebabc3c       jsr MENUEFFECTCOM.hit_colour(pc)
     0x00745ea4      584f           addq.w 0x4, a7
  > 0x00745ea6      600002ba       bra.w 0x746162              ; fcn.00746094+0xce
   > 0x00745eaa      3f13           move.w (a3), -(a7)
       0x00745eac      1f03           move.b d3, -(a7)
    < 0x00745eae      60c0           bra.b 0x745e70
        0x00745eb0      4eb9004558e4   jsr CURSORCOM.cursor_off
        0x00745eb6      4239008693f8   clr.b 0x8693f8
        0x00745ebc      554f           subq.w 0x2, a7
        0x00745ebe      49eefff8       lea.l -0x8(a6), a4
        0x00745ec2      4ebafbb0       jsr MENUEFFECTCOM.send_to_submenu(pc)
        0x00745ec6      4a1f           tst.b (a7)+
    < 0x00745ec8      60000298       bra.w 0x746162              ; fcn.00746094+0xce
       0x00745ecc      4a39008693f8   tst.b 0x8693f8
   < 0x00745ed2      670c           beq.b 0x745ee0
      0x00745ed4      1239008693f8   move.b 0x8693f8, d1
      0x00745eda      b205           cmp.b d5, d1
  < 0x00745edc      670c           beq.b 0x745eea
  < 0x00745ede      600e           bra.b 0x745eee
  > 0x00745ee0      1f03           move.b d3, -(a7)
  > 0x00745ee2      4ebaf79c       jsr MENUEFFECTCOM.make_pen_area(pc)
     0x00745ee6      544f           addq.w 0x2, a7
  < 0x00745ee8      6004           bra.b 0x745eee
  > 0x00745eea      4227           clr.b -(a7)
   < 0x00745eec      60f4           bra.b 0x745ee2
  > 0x00745eee      554f           subq.w 0x2, a7
       0x00745ef0      3f3900869446   move.w 0x869446, -(a7)
       0x00745ef6      4e91           jsr (a1)                    ; fcn.0000000a
       0x00745ef8      544f           addq.w 0x2, a7
       0x00745efa      4a1f           tst.b (a7)+
   < 0x00745efc      661c           bne.b 0x745f1a
      0x00745efe      554f           subq.w 0x2, a7
      0x00745f00      3f3900869440   move.w 0x869440, -(a7)
      0x00745f06      4e91           jsr (a1)                    ; fcn.0000000a
      0x00745f08      544f           addq.w 0x2, a7
      0x00745f0a      4a1f           tst.b (a7)+
  < 0x00745f0c      660c           bne.b 0x745f1a
     0x00745f0e      554f           subq.w 0x2, a7
     0x00745f10      49eefff8       lea.l -0x8(a6), a4
     0x00745f14      4ebafb5e       jsr MENUEFFECTCOM.send_to_submenu(pc)
     0x00745f18      4a1f           tst.b (a7)+
  > 0x00745f1a      60000246       bra.w 0x746162              ; fcn.00746094+0xce
       0x00745f1e      554f           subq.w 0x2, a7
       0x00745f20      3f3900869428   move.w 0x869428, -(a7)
       0x00745f26      4e91           jsr (a1)                    ; fcn.0000000a
       0x00745f28      544f           addq.w 0x2, a7
       0x00745f2a      4a1f           tst.b (a7)+
   < 0x00745f2c      67000098       beq.w 0x745fc6
      0x00745f30      554f           subq.w 0x2, a7
      0x00745f32      3f3c005f       move.w 0x5f, -(a7)
      0x00745f36      4e91           jsr (a1)                    ; fcn.0000000a
      0x00745f38      544f           addq.w 0x2, a7
      0x00745f3a      4a1f           tst.b (a7)+
  < 0x00745f3c      66000088       bne.w 0x745fc6
     0x00745f40      41f90073de48   lea.l 0x73de48, a0
     0x00745f46      3200           move.w d0, d1
     0x00745f48      e649           lsr.w 0x3, d1
     0x00745f4a      0c410020       cmpi.w 0x20, d1
  < 0x00745f4e      6d04           blt.b 0x745f54
     0x00745f50      7200           moveq 0x0, d1
  < 0x00745f52      6004           bra.b 0x745f58
  > 0x00745f54      01301000       btst.l d0, (a0, d1.w)
  < 0x00745f58      673a           beq.b 0x745f94
     0x00745f5a      1239008693f8   move.b 0x8693f8, d1
     0x00745f60      b203           cmp.b d3, d1
  < 0x00745f62      6608           bne.b 0x745f6c
     0x00745f64      13c5008693f8   move.b d5, 0x8693f8
  < 0x00745f6a      6066           bra.b 0x745fd2
  > 0x00745f6c      b204           cmp.b d4, d1
  < 0x00745f6e      6662           bne.b 0x745fd2
     0x00745f70      2f3900869406   move.l 0x869406, -(a7)
     0x00745f76      2f3900869402   move.l 0x869402, -(a7)
     0x00745f7c      4ebaf8a6       jsr MENUEFFECTCOM.do_effect_area(pc)
     0x00745f80      5c4f           addq.w 0x6, a7
     0x00745f82      4217           clr.b (a7)
     0x00745f84      4eb900522436   jsr BRUSHCOM.set_write_en
     0x00745f8a      544f           addq.w 0x2, a7
     0x00745f8c      4239008693f8   clr.b 0x8693f8
  < 0x00745f92      603e           bra.b 0x745fd2
  > 0x00745f94      4a39008693f8   tst.b 0x8693f8
  < 0x00745f9a      6610           bne.b 0x745fac
     0x00745f9c      13c3008693f8   move.b d3, 0x8693f8
     0x00745fa2      1f03           move.b d3, -(a7)
  > 0x00745fa4      4ebaf6da       jsr MENUEFFECTCOM.make_pen_area(pc)
     0x00745fa8      544f           addq.w 0x2, a7
  < 0x00745faa      6026           bra.b 0x745fd2
  > 0x00745fac      1239008693f8   move.b 0x8693f8, d1
     0x00745fb2      4881           ext.w d1
     0x00745fb4      03390073de68   btst.l d1, 0x73de68
  < 0x00745fba      6716           beq.b 0x745fd2
     0x00745fbc      13c4008693f8   move.b d4, 0x8693f8
     0x00745fc2      4227           clr.b -(a7)
  < 0x00745fc4      60de           bra.b 0x745fa4
  > 0x00745fc6      554f           subq.w 0x2, a7
       0x00745fc8      49eefff8       lea.l -0x8(a6), a4
       0x00745fcc      4ebafaa6       jsr MENUEFFECTCOM.send_to_submenu(pc)
       0x00745fd0      4a1f           tst.b (a7)+
  < 0x00745fd2      6000018e       bra.w 0x746162              ; fcn.00746094+0xce
      0x00745fd6      322e000a       move.w 0xa(a6), d1
      0x00745fda      0c41fff5       cmpi.w 0xfff5, d1
  < 0x00745fde      660e           bne.b 0x745fee
     0x00745fe0      4ebaf8c8       jsr MENUEFFECTCOM.before_sell(pc)
     0x00745fe4      1f05           move.b d5, -(a7)
  > 0x00745fe6      4eb9004bda9a   jsr MENUANIMCOM.do_anim_op
  < 0x00745fec      605e           bra.b 0x74604c
  > 0x00745fee      0c41fff4       cmpi.w 0xfff4, d1
  < 0x00745ff2      6604           bne.b 0x745ff8
     0x00745ff4      1f03           move.b d3, -(a7)
  < 0x00745ff6      60ee           bra.b 0x745fe6
  > 0x00745ff8      0c41fff3       cmpi.w 0xfff3, d1
  < 0x00745ffc      6604           bne.b 0x746002
     0x00745ffe      1f04           move.b d4, -(a7)
  < 0x00746000      60e4           bra.b 0x745fe6
  > 0x00746002      0c41fff2       cmpi.w 0xfff2, d1
  < 0x00746006      6608           bne.b 0x746010
     0x00746008      4ebaf8a0       jsr MENUEFFECTCOM.before_sell(pc)
     0x0074600c      4227           clr.b -(a7)
  < 0x0074600e      60d6           bra.b 0x745fe6
  > 0x00746010      0c41fff1       cmpi.w 0xfff1, d1
  < 0x00746014      6620           bne.b 0x746036
     0x00746016      554f           subq.w 0x2, a7
     0x00746018      4eb90047d586   jsr CNTLCOM.get_swipe_state
     0x0074601e      141f           move.b (a7)+, d2
     0x00746020      4882           ext.w d2
     0x00746022      05390073de6a   btst.l d2, 0x73de6a
  < 0x00746028      6724           beq.b 0x74604e
     0x0074602a      3f3c001b       move.w 0x1b, -(a7)
     0x0074602e      4eb9004836a4   jsr MENUCOM.push_box
  < 0x00746034      6016           bra.b 0x74604c
  > 0x00746036      0c41fffd       cmpi.w 0xfffd, d1
  < 0x0074603a      6604           bne.b 0x746040
     0x0074603c      1f03           move.b d3, -(a7)
  < 0x0074603e      6008           bra.b 0x746048
  > 0x00746040      0c41fff9       cmpi.w 0xfff9, d1
  < 0x00746044      6608           bne.b 0x74604e
     0x00746046      4227           clr.b -(a7)
  > 0x00746048      4ebafb74       jsr MENUEFFECTCOM.rat_add_rem(pc)
  > 0x0074604c      544f           addq.w 0x2, a7
  > 0x0074604e      60000112       bra.w 0x746162              ; fcn.00746094+0xce
  < 0x00746052      6000010e       bra.w 0x746162              ; fcn.00746094+0xce
     0x00746056      322e000a       move.w 0xa(a6), d1
     0x0074605a      0c41fff5       cmpi.w 0xfff5, d1
  < 0x0074605e      660a           bne.b 0x74606a
     0x00746060      4ebaf912       jsr MENUEFFECTCOM.after_sell(pc)
  > 0x00746064      4ebaf950       jsr MENUEFFECTCOM.after_buy(pc)
  < 0x00746068      6026           bra.b 0x746090
  > 0x0074606a      0c41fff4       cmpi.w 0xfff4, d1
  < 0x0074606e      6602           bne.b 0x746072
  < 0x00746070      60f2           bra.b 0x746064
  > 0x00746072      0c41fff3       cmpi.w 0xfff3, d1
  < 0x00746076      660e           bne.b 0x746086
     0x00746078      1f3c0004       move.b 0x4, -(a7)
     0x0074607c      4eb9004bda9a   jsr MENUANIMCOM.do_anim_op
     0x00746082      544f           addq.w 0x2, a7
  < 0x00746084      600a           bra.b 0x746090
  > 0x00746086      0c41fff2       cmpi.w 0xfff2, d1
  < 0x0074608a      6604           bne.b 0x746090
     0x0074608c      4ebaf8e6       jsr MENUEFFECTCOM.after_sell(pc)
  > 0x00746090      600000d0       bra.w 0x746162              ; fcn.00746094+0xce
     ; CODE XREF from MENUEFFECTCOM.hit_effects @ 0x745cb8
 214: fcn.00746094 ();
 > 0x00746094      3200           move.w d0, d1
      0x00746096      02411000       andi.w 0x1000, d1
  < 0x0074609a      670000ba       beq.w 0x746156
     0x0074609e      554f           subq.w 0x2, a7
     0x007460a0      4eb90048f0ee   jsr MENURIGHTCOM.get_rh_mode
     0x007460a6      121f           move.b (a7)+, d1
     0x007460a8      b205           cmp.b d5, d1
 < 0x007460aa      6636           bne.b 0x7460e2
    0x007460ac      3200           move.w d0, d1
    0x007460ae      02410fff       andi.w 0xfff, d1
    0x007460b2      48c1           ext.l d1
    0x007460b4      2f01           move.l d1, -(a7)
    0x007460b6      4878ffff       pea.l 0xffff
    0x007460ba      4eb9004070e4   jsr p_wti_o
    0x007460c0      504f           addq.w 0x8, a7
    0x007460c2      48790073de6c   pea.l 0x73de6c
    0x007460c8      48780008       pea.l 0x8
    0x007460cc      2f17           move.l (a7), -(a7)
    0x007460ce      4eb9004047ea   jsr p_wts_o
    0x007460d4      defc000c       adda.w 0xc, a7
    0x007460d8      4eb900404946   jsr p_wtln_o
 < 0x007460de      60000082       bra.w 0x746162
 > 0x007460e2      3e00           move.w d0, d7
     0x007460e4      024707ff       andi.w 0x7ff, d7
     0x007460e8      0c47007a       cmpi.w 0x7a, d7
 < 0x007460ec      672c           beq.b 0x74611a
    0x007460ee      0c47005a       cmpi.w 0x5a, d7
 < 0x007460f2      6726           beq.b 0x74611a
    0x007460f4      0c470414       cmpi.w 0x414, d7
 < 0x007460f8      6720           beq.b 0x74611a
    0x007460fa      0c470418       cmpi.w 0x418, d7
 < 0x007460fe      671a           beq.b 0x74611a
    0x00746100      554f           subq.w 0x2, a7
    0x00746102      3f3c001c       move.w 0x1c, -(a7)
    0x00746106      4e91           jsr (a1)                    ; fcn.0000000a
    0x00746108      544f           addq.w 0x2, a7
    0x0074610a      4a1f           tst.b (a7)+
 < 0x0074610c      6736           beq.b 0x746144
    0x0074610e      0c47041a       cmpi.w 0x41a, d7
 < 0x00746112      6706           beq.b 0x74611a
    0x00746114      0c470416       cmpi.w 0x416, d7
 < 0x00746118      662a           bne.b 0x746144
 > 0x0074611a      3200           move.w d0, d1
     0x0074611c      02410800       andi.w 0x800, d1
 < 0x00746120      6722           beq.b 0x746144
    0x00746122      554f           subq.w 0x2, a7
    0x00746124      4eb90048f0ee   jsr MENURIGHTCOM.get_rh_mode
    0x0074612a      121f           move.b (a7)+, d1
    0x0074612c      b203           cmp.b d3, d1
 < 0x0074612e      6714           beq.b 0x746144
    0x00746130      1f3c0005       move.b 0x5, -(a7)
    ; CODE XREF from fcn.00746094 @ 0x746154
 > 0x00746134      3f2e000a       move.w 0xa(a6), -(a7)
    0x00746138      3f00           move.w d0, -(a7)
    0x0074613a      4eb90048f67e   jsr MENURIGHTCOM.rh_act
    0x00746140      5c4f           addq.w 0x6, a7
 < 0x00746142      601e           bra.b 0x746162
 > 0x00746144      554f           subq.w 0x2, a7
     0x00746146      4eb90048f0ee   jsr MENURIGHTCOM.get_rh_mode
     0x0074614c      121f           move.b (a7)+, d1
     0x0074614e      b203           cmp.b d3, d1
 < 0x00746150      6610           bne.b 0x746162
    0x00746152      1f03           move.b d3, -(a7)
 < 0x00746154      60de           bra.b 0x746134
 > 0x00746156      554f           subq.w 0x2, a7
     0x00746158      49eefff8       lea.l -0x8(a6), a4
     0x0074615c      4ebaf916       jsr MENUEFFECTCOM.send_to_submenu(pc)
     0x00746160      4a1f           tst.b (a7)+
     ; CODE XREFS from fcn.00746094 @ 0x851a, 0x7460de, 0x746142
 > 0x00746162      4cdf1fff       movem.l (a7)+, d0-d7/a0-a4
           0x00746166      4e5e           unlk a6
           0x00746168      4e75           rts
            ; CALL XREFS from MENUINITCOM.menu_def_boxes @ 0x48e906, 0x48e9a2, 0x48ea60
 24: MENUEFFECTCOM.men_effects_box ();
           0x0074616a      4e56fd98       link.w a6, 0xfd98
           0x0074616e      bfd5           cmpa.l (a5), a7
       < 0x00746170      6206           bhi.b 0x746178
          0x00746172      44fc0002       move.w 0x2, ccr
          0x00746176      4e76           trapv
       > 0x00746178      defc014a       adda.w 0x14a, a7
           0x0074617c      48e7fff8       movem.l d0-d7/a0-a4, -(a7)
           0x00746180      f227e001       fmovem fp0, -(a7)
            0x00746184      47f80001       lea.l 0x1, a3
            0x00746188      7401           moveq 0x1, d2
            0x0074618a      7602           moveq 0x2, d3
            0x0074618c      7803           moveq 0x3, d4
            0x0074618e      4239008693f2   clr.b 0x8693f2
            0x00746194      594f           subq.w 0x4, a7
            0x00746196      4eb90047b70e   jsr CNTLCOM.get_pen_info_pt
            0x0074619c      23df008693f4   move.l (a7)+, 0x8693f4
            0x007461a2      4239008693f8   clr.b 0x8693f8
            0x007461a8      4853           pea.l (a3)
            0x007461aa      23d700869422   move.l (a7), 0x869422
            0x007461b0      4eb9006338d8   jsr HANDCOM.get_areas_ptr
            0x007461b6      23d70086940a   move.l (a7), 0x86940a
            0x007461bc      4227           clr.b -(a7)
            0x007461be      4eb9006338f6   jsr HANDCOM.get_point
            0x007461c4      544f           addq.w 0x2, a7
            0x007461c6      23d70086940e   move.l (a7), 0x86940e
            0x007461cc      594f           subq.w 0x4, a7
            0x007461ce      4227           clr.b -(a7)
            0x007461d0      4eb9006336ea   jsr HANDCOM.get_area
            0x007461d6      544f           addq.w 0x2, a7
            0x007461d8      23df0086941a   move.l (a7)+, 0x86941a
            0x007461de      23df0086941e   move.l (a7)+, 0x86941e
            0x007461e4      30390086941e   move.w 0x86941e, d0
            0x007461ea      48c0           ext.l d0
            0x007461ec      81c3           divs.w d3, d0
            0x007461ee      32390086941a   move.w 0x86941a, d1
            0x007461f4      48c1           ext.l d1
            0x007461f6      48c0           ext.l d0
            0x007461f8      d081           add.l d1, d0
            0x007461fa      048000000050   subi.l 0x50, d0
            0x00746200      33c00086bc00   move.w d0, 0x86bc00
            0x00746206      303900869420   move.w 0x869420, d0
            0x0074620c      48c0           ext.l d0
            0x0074620e      81c3           divs.w d3, d0
            0x00746210      32390086941c   move.w 0x86941c, d1
            0x00746216      48c1           ext.l d1
            0x00746218      48c0           ext.l d0
            0x0074621a      d081           add.l d1, d0
            0x0074621c      048000000050   subi.l 0x50, d0
            0x00746222      33c00086bc02   move.w d0, 0x86bc02
            0x00746228      33fc00a00086.  move.w 0xa0, 0x86bc04.l
            0x00746230      33fc00a00086.  move.w 0xa0, 0x86bc06.l
            0x00746238      42390086bd08   clr.b 0x86bd08
            0x0074623e      594f           subq.w 0x4, a7
            0x00746240      1f3c0004       move.b 0x4, -(a7)
            0x00746244      4eb9006338f6   jsr HANDCOM.get_point
            0x0074624a      544f           addq.w 0x2, a7
            0x0074624c      23d70086bd0a   move.l (a7), 0x86bd0a
            0x00746252      594f           subq.w 0x4, a7
            0x00746254      1f3c0004       move.b 0x4, -(a7)
            0x00746258      4eb9006336ea   jsr HANDCOM.get_area
            0x0074625e      544f           addq.w 0x2, a7
            0x00746260      23df0086bd22   move.l (a7)+, 0x86bd22
            0x00746266      23d70086bd26   move.l (a7), 0x86bd26
            0x0074626c      1f3c0005       move.b 0x5, -(a7)
            0x00746270      4eb9006338f6   jsr HANDCOM.get_point
            0x00746276      544f           addq.w 0x2, a7
            0x00746278      23d70086bd0e   move.l (a7), 0x86bd0e
            0x0074627e      594f           subq.w 0x4, a7
            0x00746280      1f3c0005       move.b 0x5, -(a7)
            0x00746284      4eb9006336ea   jsr HANDCOM.get_area
            0x0074628a      544f           addq.w 0x2, a7
            0x0074628c      23df0086bd2a   move.l (a7)+, 0x86bd2a
            0x00746292      23df0086bd2e   move.l (a7)+, 0x86bd2e
            0x00746298      23f90086bd22.  move.l 0x86bd22, 0x86bd12.l
            0x007462a2      23f90086bd26.  move.l 0x86bd26, 0x86bd16.l
            0x007462ac      23f90086bd2a.  move.l 0x86bd2a, 0x86bd1a.l
            0x007462b6      23f90086bd2e.  move.l 0x86bd2e, 0x86bd1e.l
            0x007462c0      594f           subq.w 0x4, a7
            0x007462c2      2f390073de75   move.l 0x73de75, -(a7)
            0x007462c8      3f790073de79.  move.w 0x73de79, 0x4(a7)
            0x007462d0      1f790073de7b.  move.b 0x73de7b, 0x6(a7)
            0x007462d8      3f3c0004       move.w 0x4, -(a7)
            0x007462dc      3f02           move.w d2, -(a7)
            0x007462de      3f04           move.w d4, -(a7)
            0x007462e0      3f3c0005       move.w 0x5, -(a7)
            0x007462e4      3f02           move.w d2, -(a7)
            0x007462e6      1f03           move.b d3, -(a7)
            0x007462e8      4227           clr.b -(a7)
            0x007462ea      3f02           move.w d2, -(a7)
            0x007462ec      3f2e0008       move.w 0x8(a6), -(a7)
            0x007462f0      2f390073db8a   move.l 0x73db8a, -(a7)
            0x007462f6      486f0016       pea.l 0x16(a7)
            0x007462fa      4853           pea.l (a3)
            0x007462fc      48780007       pea.l 0x7
            0x00746300      486d0010       pea.l 0x10(a5)
            0x00746304      487af96c       pea.l MENUEFFECTCOM.hit_effects(pc)
            0x00746308      4eb900487686   jsr MENUCOM.def_box
            0x0074630e      defc0032       adda.w 0x32, a7
            0x00746312      42790086944c   clr.w 0x86944c
            0x00746318      42790086942a   clr.w 0x86942a
            0x0074631e      427900869434   clr.w 0x869434
            0x00746324      42790086942e   clr.w 0x86942e
            0x0074632a      427900869436   clr.w 0x869436
            0x00746330      427900869432   clr.w 0x869432
            0x00746336      42790086943a   clr.w 0x86943a
            0x0074633c      42790086943e   clr.w 0x86943e
            0x00746342      42790086943c   clr.w 0x86943c
            0x00746348      427900869aa6   clr.w 0x869aa6
            0x0074634e      42790086bbe6   clr.w 0x86bbe6
            0x00746354      42790086bbe8   clr.w 0x86bbe8
            0x0074635a      42790086bbea   clr.w 0x86bbea
            0x00746360      42790086bbec   clr.w 0x86bbec
            0x00746366      427900869446   clr.w 0x869446
            0x0074636c      42790086bbd4   clr.w 0x86bbd4
            0x00746372      42790086bbfe   clr.w 0x86bbfe
            0x00746378      42790086bbf4   clr.w 0x86bbf4
            0x0074637e      42790086bbf6   clr.w 0x86bbf6
            0x00746384      42790086bbfc   clr.w 0x86bbfc
            0x0074638a      42790086bbfa   clr.w 0x86bbfa
            0x00746390      554f           subq.w 0x2, a7
            0x00746392      4eb900475a5a   jsr CONFIG.cfg_dougal
            0x00746398      4a1f           tst.b (a7)+
        < 0x0074639a      660e           bne.b 0x7463aa
           0x0074639c      554f           subq.w 0x2, a7
           0x0074639e      4eb900523ca0   jsr BRUSHCOM.b_8m_disk_store
           0x007463a4      4a1f           tst.b (a7)+
       < 0x007463a6      66000328       bne.w 0x7466d0
       > 0x007463aa      594f           subq.w 0x4, a7
           0x007463ac      2f390073de7d   move.l 0x73de7d, -(a7)
           0x007463b2      3f790073de81.  move.w 0x73de81, 0x4(a7)
           0x007463ba      1f790073de83.  move.b 0x73de83, 0x6(a7)
           0x007463c2      48790086943a   pea.l 0x86943a
           0x007463c8      3f3c0007       move.w 0x7, -(a7)
           0x007463cc      3f02           move.w d2, -(a7)
           0x007463ce      3f3c0006       move.w 0x6, -(a7)
           0x007463d2      3f02           move.w d2, -(a7)
           0x007463d4      1f03           move.b d3, -(a7)
           0x007463d6      4227           clr.b -(a7)
           0x007463d8      3f3c0004       move.w 0x4, -(a7)
           0x007463dc      4267           clr.w -(a7)
           0x007463de      2f390073db8a   move.l 0x73db8a, -(a7)
           0x007463e4      486f0018       pea.l 0x18(a7)
           0x007463e8      4853           pea.l (a3)
           0x007463ea      48780007       pea.l 0x7
           0x007463ee      486d0010       pea.l 0x10(a5)
           0x007463f2      487af244       pea.l MENUEFFECTCOM.hit_submenu(pc)
           0x007463f6      4eb900487aa6   jsr MENUCOM.new_box
           0x007463fc      defc0030       adda.w 0x30, a7
           0x00746400      2eb90073de89   move.l 0x73de89, (a7)
           0x00746406      2f390073de85   move.l 0x73de85, -(a7)
           0x0074640c      487900869426   pea.l 0x869426
           0x00746412      3f3c0013       move.w 0x13, -(a7)
           0x00746416      3f02           move.w d2, -(a7)
           0x00746418      3f04           move.w d4, -(a7)
           0x0074641a      3f02           move.w d2, -(a7)
           0x0074641c      1f3c0004       move.b 0x4, -(a7)
           0x00746420      4227           clr.b -(a7)
           0x00746422      3f390086943a   move.w 0x86943a, -(a7)
           0x00746428      4267           clr.w -(a7)
           0x0074642a      2f390073db8a   move.l 0x73db8a, -(a7)
           0x00746430      486f0018       pea.l 0x18(a7)
           0x00746434      4853           pea.l (a3)
           0x00746436      48780008       pea.l 0x8
           0x0074643a      486d0010       pea.l 0x10(a5)
           0x0074643e      487aed46       pea.l MENUEFFECTCOM.hit_do_all(pc)
           0x00746442      4eb900487aa6   jsr MENUCOM.new_box
           0x00746448      defc0028       adda.w 0x28, a7
           0x0074644c      2eb90073de8e   move.l 0x73de8e, (a7)
           0x00746452      2f790073de92.  move.l 0x73de92, 0x4(a7)
           0x0074645a      3f790073de96.  move.w 0x73de96, 0x8(a7)
           0x00746462      1f790073de98.  move.b 0x73de98, 0xa(a7)
           0x0074646a      487900869428   pea.l 0x869428
           0x00746470      3f3c0016       move.w 0x16, -(a7)
           0x00746474      3f02           move.w d2, -(a7)
           0x00746476      3f04           move.w d4, -(a7)
           0x00746478      3f02           move.w d2, -(a7)
           0x0074647a      1f3c0004       move.b 0x4, -(a7)
           0x0074647e      4227           clr.b -(a7)
           0x00746480      3f390086943a   move.w 0x86943a, -(a7)
           0x00746486      4267           clr.w -(a7)
           0x00746488      2f390073db8a   move.l 0x73db8a, -(a7)
           0x0074648e      486f0018       pea.l 0x18(a7)
           0x00746492      4853           pea.l (a3)
           0x00746494      4878000b       pea.l 0xb
           0x00746498      486d0010       pea.l 0x10(a5)
           0x0074649c      487aec5e       pea.l MENUEFFECTCOM.hit_do_pen(pc)
           0x007464a0      4eb900487aa6   jsr MENUCOM.new_box
           0x007464a6      defc0038       adda.w 0x38, a7
           0x007464aa      3d43fee4       move.w d3, -0x11c(a6)
           0x007464ae      3f390073de9a   move.w 0x73de9a, -(a7)
           0x007464b4      48790086942c   pea.l 0x86942c
           0x007464ba      3f3c000e       move.w 0xe, -(a7)
           0x007464be      3f02           move.w d2, -(a7)
           0x007464c0      3f02           move.w d2, -(a7)
           0x007464c2      3f02           move.w d2, -(a7)
           0x007464c4      1f3c000e       move.b 0xe, -(a7)
           0x007464c8      1f3c0006       move.b 0x6, -(a7)
           0x007464cc      3f390086943a   move.w 0x86943a, -(a7)
           0x007464d2      4267           clr.w -(a7)
           0x007464d4      2f390073db8a   move.l 0x73db8a, -(a7)
           0x007464da      486f0018       pea.l 0x18(a7)
           0x007464de      4853           pea.l (a3)
           0x007464e0      48780002       pea.l 0x2
           0x007464e4      486d0010       pea.l 0x10(a5)
           0x007464e8      487900481fee   pea.l MENUCOM.hit_nothing
           0x007464ee      4eb900487aa6   jsr MENUCOM.new_box
           0x007464f4      defc002c       adda.w 0x2c, a7
           0x007464f8      3eb90086942c   move.w 0x86942c, (a7)
           0x007464fe      9efc00fc       suba.w 0xfc, a7
           0x00746502      2f390073de9c   move.l 0x73de9c, -(a7)
           0x00746508      2f790073dea0.  move.l 0x73dea0, 0x4(a7)
           0x00746510      3f790073dea4.  move.w 0x73dea4, 0x8(a7)
           0x00746518      4eb90048442e   jsr MENUCOM.set_box_macro_n
           0x0074651e      defc0100       adda.w 0x100, a7
           0x00746522      3eb90086942c   move.w 0x86942c, (a7)
           0x00746528      2f390073d9c6   move.l 0x73d9c6, -(a7)
           0x0074652e      3f390073d9c4   move.w 0x73d9c4, -(a7)
           0x00746534      4eb900484148   jsr MENUCOM.set_boxcol
           0x0074653a      5c4f           addq.w 0x6, a7
           0x0074653c      3eb90073dea7   move.w 0x73dea7, (a7)
           0x00746542      487900869430   pea.l 0x869430
           0x00746548      3f3c000f       move.w 0xf, -(a7)
           0x0074654c      3f02           move.w d2, -(a7)
           0x0074654e      3f02           move.w d2, -(a7)
           0x00746550      3f02           move.w d2, -(a7)
           0x00746552      1f3c000e       move.b 0xe, -(a7)
           0x00746556      1f3c0006       move.b 0x6, -(a7)
           0x0074655a      3f390086943a   move.w 0x86943a, -(a7)
           0x00746560      4267           clr.w -(a7)
           0x00746562      2f390073db8a   move.l 0x73db8a, -(a7)
           0x00746568      486f0018       pea.l 0x18(a7)
           0x0074656c      4853           pea.l (a3)
           0x0074656e      48780002       pea.l 0x2
           0x00746572      486d0010       pea.l 0x10(a5)
           0x00746576      487900481fee   pea.l MENUCOM.hit_nothing
           0x0074657c      4eb900487aa6   jsr MENUCOM.new_box
           0x00746582      defc002c       adda.w 0x2c, a7
           0x00746586      3eb900869430   move.w 0x869430, (a7)
           0x0074658c      9efc00fc       suba.w 0xfc, a7
           0x00746590      2f390073dea9   move.l 0x73dea9, -(a7)
           0x00746596      2f790073dead.  move.l 0x73dead, 0x4(a7)
           0x0074659e      3f790073deb1.  move.w 0x73deb1, 0x8(a7)
           0x007465a6      4eb90048442e   jsr MENUCOM.set_box_macro_n
           0x007465ac      defc0100       adda.w 0x100, a7
           0x007465b0      3eb900869430   move.w 0x869430, (a7)
           0x007465b6      2f390073d9c0   move.l 0x73d9c0, -(a7)
           0x007465bc      3f390073d9be   move.w 0x73d9be, -(a7)
           0x007465c2      4eb900484148   jsr MENUCOM.set_boxcol
           0x007465c8      584f           addq.w 0x4, a7
           0x007465ca      2eb90073deba   move.l 0x73deba, (a7)
           0x007465d0      2f390073deb6   move.l 0x73deb6, -(a7)
           0x007465d6      3f390073deb4   move.w 0x73deb4, -(a7)
           0x007465dc      48790086943e   pea.l 0x86943e
           0x007465e2      3f3c0007       move.w 0x7, -(a7)
           0x007465e6      3f04           move.w d4, -(a7)
           0x007465e8      3f3c0006       move.w 0x6, -(a7)
           0x007465ec      3f02           move.w d2, -(a7)
           0x007465ee      1f03           move.b d3, -(a7)
           0x007465f0      4227           clr.b -(a7)
           0x007465f2      3f3c0004       move.w 0x4, -(a7)
           0x007465f6      3f390086943a   move.w 0x86943a, -(a7)
           0x007465fc      2f390073db8a   move.l 0x73db8a, -(a7)
           0x00746602      486f0018       pea.l 0x18(a7)
           0x00746606      4853           pea.l (a3)
           0x00746608      4878000a       pea.l 0xa
           0x0074660c      486d0010       pea.l 0x10(a5)
           0x00746610      487af026       pea.l MENUEFFECTCOM.hit_submenu(pc)
           0x00746614      4eb900487aa6   jsr MENUCOM.new_box
           0x0074661a      defc0034       adda.w 0x34, a7
           0x0074661e      3eb90086943e   move.w 0x86943e, (a7)
           0x00746624      3f3900869426   move.w 0x869426, -(a7)
           0x0074662a      4eb900486f94   jsr MENUCOM.add_slave
           0x00746630      544f           addq.w 0x2, a7
           0x00746632      3eb90086943e   move.w 0x86943e, (a7)
           0x00746638      3f3900869428   move.w 0x869428, -(a7)
           0x0074663e      4eb900486f94   jsr MENUCOM.add_slave
           0x00746644      544f           addq.w 0x2, a7
           0x00746646      4eb900475a5a   jsr CONFIG.cfg_dougal
           0x0074664c      4a1f           tst.b (a7)+
       < 0x0074664e      6676           bne.b 0x7466c6
          0x00746650      9efc000a       suba.w 0xa, a7
          0x00746654      2f390073debf   move.l 0x73debf, -(a7)
          0x0074665a      2f790073dec3.  move.l 0x73dec3, 0x4(a7)
          0x00746662      2f790073dec7.  move.l 0x73dec7, 0x8(a7)
          0x0074666a      1f790073decb.  move.b 0x73decb, 0xc(a7)
          0x00746672      48790086943c   pea.l 0x86943c
          0x00746678      3f3c0007       move.w 0x7, -(a7)
          0x0074667c      3f3c0005       move.w 0x5, -(a7)
          0x00746680      3f3c0006       move.w 0x6, -(a7)
          0x00746684      3f02           move.w d2, -(a7)
          0x00746686      1f03           move.b d3, -(a7)
          0x00746688      4227           clr.b -(a7)
          0x0074668a      3f3c0004       move.w 0x4, -(a7)
          0x0074668e      3f390086943a   move.w 0x86943a, -(a7)
          0x00746694      2f390073db8a   move.l 0x73db8a, -(a7)
          0x0074669a      486f0018       pea.l 0x18(a7)
          0x0074669e      4853           pea.l (a3)
          0x007466a0      4878000d       pea.l 0xd
          0x007466a4      486d0010       pea.l 0x10(a5)
          0x007466a8      48790074bc48   pea.l MENUFETTLECOM.hit_fettle
          0x007466ae      4eb900487aa6   jsr MENUCOM.new_box
          0x007466b4      defc0038       adda.w 0x38, a7
          0x007466b8      3eb90086943c   move.w 0x86943c, (a7)
          0x007466be      4eb90074c100   jsr MENUFETTLECOM.menu_fettle_ini
          0x007466c4      544f           addq.w 0x2, a7
       > 0x007466c6      3c390086943a   move.w 0x86943a, d6
       < 0x007466cc      60001b44       bra.w 0x748212
       > 0x007466d0      7e03           moveq 0x3, d7
           0x007466d2      554f           subq.w 0x2, a7
           0x007466d4      2f390073decd   move.l 0x73decd, -(a7)
           0x007466da      1f790073ded1.  move.b 0x73ded1, 0x4(a7)
           0x007466e2      48790086942a   pea.l 0x86942a
           0x007466e8      3f3c0007       move.w 0x7, -(a7)
           0x007466ec      3f02           move.w d2, -(a7)
           0x007466ee      3f04           move.w d4, -(a7)
           0x007466f0      3f02           move.w d2, -(a7)
           0x007466f2      1f03           move.b d3, -(a7)
           0x007466f4      4227           clr.b -(a7)
           0x007466f6      3f3c0004       move.w 0x4, -(a7)
           0x007466fa      4267           clr.w -(a7)
           0x007466fc      2f390073db8a   move.l 0x73db8a, -(a7)
           0x00746702      486f0018       pea.l 0x18(a7)
           0x00746706      4853           pea.l (a3)
           0x00746708      48780005       pea.l 0x5
           0x0074670c      486d0010       pea.l 0x10(a5)
           0x00746710      487a866c       pea.l MENUEFFECTCOM.hit_hicon(pc)
           0x00746714      4eb900487aa6   jsr MENUCOM.new_box
           0x0074671a      defc002e       adda.w 0x2e, a7
           0x0074671e      2eb90073ded7   move.l 0x73ded7, (a7)
           0x00746724      2f390073ded3   move.l 0x73ded3, -(a7)
           0x0074672a      487900869426   pea.l 0x869426
           0x00746730      3f3c000e       move.w 0xe, -(a7)
           0x00746734      3f02           move.w d2, -(a7)
           0x00746736      3f04           move.w d4, -(a7)
           0x00746738      3f02           move.w d2, -(a7)
           0x0074673a      1f3c0004       move.b 0x4, -(a7)
           0x0074673e      4227           clr.b -(a7)
           0x00746740      3f390086942a   move.w 0x86942a, -(a7)
           0x00746746      4267           clr.w -(a7)
           0x00746748      2f390073db8a   move.l 0x73db8a, -(a7)
           0x0074674e      486f0018       pea.l 0x18(a7)
           0x00746752      4853           pea.l (a3)
           0x00746754      48780008       pea.l 0x8
           0x00746758      486d0010       pea.l 0x10(a5)
           0x0074675c      487aea28       pea.l MENUEFFECTCOM.hit_do_all(pc)
           0x00746760      4eb900487aa6   jsr MENUCOM.new_box
           0x00746766      defc0028       adda.w 0x28, a7
           0x0074676a      2eb90073dedc   move.l 0x73dedc, (a7)
           0x00746770      2f790073dee0.  move.l 0x73dee0, 0x4(a7)
           0x00746778      3f790073dee4.  move.w 0x73dee4, 0x8(a7)
           0x00746780      1f790073dee6.  move.b 0x73dee6, 0xa(a7)
           0x00746788      487900869428   pea.l 0x869428
           0x0074678e      3f3c0011       move.w 0x11, -(a7)
           0x00746792      3f02           move.w d2, -(a7)
           0x00746794      3f04           move.w d4, -(a7)
           0x00746796      3f02           move.w d2, -(a7)
           0x00746798      1f3c0004       move.b 0x4, -(a7)
           0x0074679c      4227           clr.b -(a7)
           0x0074679e      3f390086942a   move.w 0x86942a, -(a7)
           0x007467a4      4267           clr.w -(a7)
           0x007467a6      2f390073db8a   move.l 0x73db8a, -(a7)
           0x007467ac      486f0018       pea.l 0x18(a7)
           0x007467b0      4853           pea.l (a3)
           0x007467b2      4878000b       pea.l 0xb
           0x007467b6      486d0010       pea.l 0x10(a5)
           0x007467ba      487ae940       pea.l MENUEFFECTCOM.hit_do_pen(pc)
           0x007467be      4eb900487aa6   jsr MENUCOM.new_box
           0x007467c4      defc0036       adda.w 0x36, a7
           0x007467c8      3eb90073dee8   move.w 0x73dee8, (a7)
           0x007467ce      48790086942c   pea.l 0x86942c
           0x007467d4      3f3c000e       move.w 0xe, -(a7)
           0x007467d8      3f03           move.w d3, -(a7)
           0x007467da      3f02           move.w d2, -(a7)
           0x007467dc      3f02           move.w d2, -(a7)
           0x007467de      1f3c000e       move.b 0xe, -(a7)
           0x007467e2      1f3c0006       move.b 0x6, -(a7)
           0x007467e6      3f390086942a   move.w 0x86942a, -(a7)
           0x007467ec      4267           clr.w -(a7)
           0x007467ee      2f390073db8a   move.l 0x73db8a, -(a7)
           0x007467f4      486f0018       pea.l 0x18(a7)
           0x007467f8      4853           pea.l (a3)
           0x007467fa      48780002       pea.l 0x2
           0x007467fe      486d0010       pea.l 0x10(a5)
           0x00746802      487a857a       pea.l MENUEFFECTCOM.hit_hicon(pc)
           0x00746806      4eb900487aa6   jsr MENUCOM.new_box
           0x0074680c      defc002c       adda.w 0x2c, a7
           0x00746810      3eb90086942c   move.w 0x86942c, (a7)
           0x00746816      9efc00fc       suba.w 0xfc, a7
           0x0074681a      2f390073deea   move.l 0x73deea, -(a7)
           0x00746820      2f790073deee.  move.l 0x73deee, 0x4(a7)
           0x00746828      4eb90048442e   jsr MENUCOM.set_box_macro_n
           0x0074682e      defc0100       adda.w 0x100, a7
           0x00746832      3eb90086942c   move.w 0x86942c, (a7)
           0x00746838      2f390073d9c6   move.l 0x73d9c6, -(a7)
           0x0074683e      3f390073d9c4   move.w 0x73d9c4, -(a7)
           0x00746844      4eb900484148   jsr MENUCOM.set_boxcol
           0x0074684a      5c4f           addq.w 0x6, a7
           0x0074684c      3eb90073def3   move.w 0x73def3, (a7)
           0x00746852      487900869434   pea.l 0x869434
           0x00746858      3f3c000f       move.w 0xf, -(a7)
           0x0074685c      3f03           move.w d3, -(a7)
           0x0074685e      3f03           move.w d3, -(a7)
           0x00746860      3f02           move.w d2, -(a7)
           0x00746862      1f03           move.b d3, -(a7)
           0x00746864      4227           clr.b -(a7)
           0x00746866      3f390086942a   move.w 0x86942a, -(a7)
           0x0074686c      4267           clr.w -(a7)
           0x0074686e      2f390073db8a   move.l 0x73db8a, -(a7)
           0x00746874      486f0018       pea.l 0x18(a7)
           0x00746878      4853           pea.l (a3)
           0x0074687a      48780002       pea.l 0x2
           0x0074687e      486d0010       pea.l 0x10(a5)
           0x00746882      487a84fa       pea.l MENUEFFECTCOM.hit_hicon(pc)
           0x00746886      4eb900487aa6   jsr MENUCOM.new_box
           0x0074688c      defc002c       adda.w 0x2c, a7
           0x00746890      3eb90073def6   move.w 0x73def6, (a7)
           0x00746896      48790086942e   pea.l 0x86942e
           0x0074689c      3f3c0011       move.w 0x11, -(a7)
           0x007468a0      3f03           move.w d3, -(a7)
           0x007468a2      3f04           move.w d4, -(a7)
           0x007468a4      3f02           move.w d2, -(a7)
           0x007468a6      1f3c0008       move.b 0x8, -(a7)
           0x007468aa      1f03           move.b d3, -(a7)
           0x007468ac      3f390086942a   move.w 0x86942a, -(a7)
           0x007468b2      4267           clr.w -(a7)
           0x007468b4      2f390073db8a   move.l 0x73db8a, -(a7)
           0x007468ba      486f0018       pea.l 0x18(a7)
           0x007468be      4853           pea.l (a3)
           0x007468c0      48780002       pea.l 0x2
           0x007468c4      486d0010       pea.l 0x10(a5)
           0x007468c8      487a84b4       pea.l MENUEFFECTCOM.hit_hicon(pc)
           0x007468cc      4eb900487aa6   jsr MENUCOM.new_box
           0x007468d2      defc002c       adda.w 0x2c, a7
           0x007468d6      3eb90086942e   move.w 0x86942e, (a7)
           0x007468dc      9efc00fc       suba.w 0xfc, a7
           0x007468e0      2f390073def8   move.l 0x73def8, -(a7)
           0x007468e6      2f790073defc.  move.l 0x73defc, 0x4(a7)
           0x007468ee      4eb90048442e   jsr MENUCOM.set_box_macro_n
           0x007468f4      defc0100       adda.w 0x100, a7
           0x007468f8      3eb90086942e   move.w 0x86942e, (a7)
           0x007468fe      f23c40000000.  fmove.l 0x10, fp0
           0x00746906      f2276400       fmove.s fp0, -(a7)
           0x0074690a      f23c40000000.  fmove.l 0x0, fp0
           0x00746912      f2276400       fmove.s fp0, -(a7)
           0x00746916      f23c40000000.  fmove.l 0xff, fp0
           0x0074691e      f2276400       fmove.s fp0, -(a7)
           0x00746922      3f3cfffc       move.w 0xfffc, -(a7)
           0x00746926      4267           clr.w -(a7)
           0x00746928      4eb90048d4ae   jsr MENU2COM.make_numeric_bo
           0x0074692e      defc0010       adda.w 0x10, a7
           0x00746932      3eb90073df01   move.w 0x73df01, (a7)
           0x00746938      487900869430   pea.l 0x869430
           0x0074693e      3f3c000e       move.w 0xe, -(a7)
           0x00746942      3f04           move.w d4, -(a7)
           0x00746944      3f02           move.w d2, -(a7)
           0x00746946      3f02           move.w d2, -(a7)
           0x00746948      1f3c000e       move.b 0xe, -(a7)
           0x0074694c      1f3c0006       move.b 0x6, -(a7)
           0x00746950      3f390086942a   move.w 0x86942a, -(a7)
           0x00746956      4267           clr.w -(a7)
           0x00746958      2f390073db8a   move.l 0x73db8a, -(a7)
           0x0074695e      486f0018       pea.l 0x18(a7)
           0x00746962      4853           pea.l (a3)
           0x00746964      48780002       pea.l 0x2
           0x00746968      486d0010       pea.l 0x10(a5)
           0x0074696c      487a8410       pea.l MENUEFFECTCOM.hit_hicon(pc)
           0x00746970      4eb900487aa6   jsr MENUCOM.new_box
           0x00746976      defc002c       adda.w 0x2c, a7
           0x0074697a      3eb900869430   move.w 0x869430, (a7)
           0x00746980      9efc00fc       suba.w 0xfc, a7
           0x00746984      2f390073df03   move.l 0x73df03, -(a7)
           0x0074698a      2f790073df07.  move.l 0x73df07, 0x4(a7)
           0x00746992      4eb90048442e   jsr MENUCOM.set_box_macro_n
           0x00746998      defc0100       adda.w 0x100, a7
           0x0074699c      3eb900869430   move.w 0x869430, (a7)
           0x007469a2      2f390073d9c0   move.l 0x73d9c0, -(a7)
           0x007469a8      3f390073d9be   move.w 0x73d9be, -(a7)
           0x007469ae      4eb900484148   jsr MENUCOM.set_boxcol
           0x007469b4      5c4f           addq.w 0x6, a7
           0x007469b6      3eb90073df0c   move.w 0x73df0c, (a7)
           0x007469bc      487900869436   pea.l 0x869436
           0x007469c2      3f3c000f       move.w 0xf, -(a7)
           0x007469c6      3f04           move.w d4, -(a7)
           0x007469c8      3f03           move.w d3, -(a7)
           0x007469ca      3f02           move.w d2, -(a7)
           0x007469cc      1f03           move.b d3, -(a7)
           0x007469ce      4227           clr.b -(a7)
           0x007469d0      3f390086942a   move.w 0x86942a, -(a7)
           0x007469d6      3f3900869434   move.w 0x869434, -(a7)
           0x007469dc      2f390073db8a   move.l 0x73db8a, -(a7)
           0x007469e2      486f0018       pea.l 0x18(a7)
           0x007469e6      4853           pea.l (a3)
           0x007469e8      48780002       pea.l 0x2
           0x007469ec      486d0010       pea.l 0x10(a5)
           0x007469f0      487a838c       pea.l MENUEFFECTCOM.hit_hicon(pc)
           0x007469f4      4eb900487aa6   jsr MENUCOM.new_box
           0x007469fa      defc002c       adda.w 0x2c, a7
           0x007469fe      3eb90073df0f   move.w 0x73df0f, (a7)
           0x00746a04      487900869432   pea.l 0x869432
           0x00746a0a      3f3c0011       move.w 0x11, -(a7)
           0x00746a0e      3f04           move.w d4, -(a7)
           0x00746a10      3f04           move.w d4, -(a7)
           0x00746a12      3f02           move.w d2, -(a7)
           0x00746a14      1f3c0008       move.b 0x8, -(a7)
           0x00746a18      1f03           move.b d3, -(a7)
           0x00746a1a      3f390086942a   move.w 0x86942a, -(a7)
           0x00746a20      3f390086942e   move.w 0x86942e, -(a7)
           0x00746a26      2f390073db8a   move.l 0x73db8a, -(a7)
           0x00746a2c      486f0018       pea.l 0x18(a7)
           0x00746a30      4853           pea.l (a3)
           0x00746a32      48780002       pea.l 0x2
           0x00746a36      486d0010       pea.l 0x10(a5)
           0x00746a3a      487a8342       pea.l MENUEFFECTCOM.hit_hicon(pc)
           0x00746a3e      4eb900487aa6   jsr MENUCOM.new_box
           0x00746a44      defc002c       adda.w 0x2c, a7
           0x00746a48      3eb900869432   move.w 0x869432, (a7)
           0x00746a4e      9efc00fc       suba.w 0xfc, a7
           0x00746a52      2f390073df11   move.l 0x73df11, -(a7)
           0x00746a58      2f790073df15.  move.l 0x73df15, 0x4(a7)
           0x00746a60      4eb90048442e   jsr MENUCOM.set_box_macro_n
           0x00746a66      defc0100       adda.w 0x100, a7
           0x00746a6a      3eb900869432   move.w 0x869432, (a7)
           0x00746a70      f23c40000000.  fmove.l 0xeb, fp0
           0x00746a78      f2276400       fmove.s fp0, -(a7)
           0x00746a7c      f23c40000000.  fmove.l 0x0, fp0
           0x00746a84      f2276400       fmove.s fp0, -(a7)
           0x00746a88      f23c40000000.  fmove.l 0xff, fp0
           0x00746a90      f2276400       fmove.s fp0, -(a7)
           0x00746a94      3f3cfffc       move.w 0xfffc, -(a7)
           0x00746a98      4267           clr.w -(a7)
           0x00746a9a      4eb90048d4ae   jsr MENU2COM.make_numeric_bo
           0x00746aa0      584f           addq.w 0x4, a7
           0x00746aa2      2eb90073df1a   move.l 0x73df1a, (a7)
           0x00746aa8      2f790073df1e.  move.l 0x73df1e, 0x4(a7)
           0x00746ab0      2f790073df22.  move.l 0x73df22, 0x8(a7)
           0x00746ab8      1f790073df26.  move.b 0x73df26, 0xc(a7)
           0x00746ac0      487900869438   pea.l 0x869438
           0x00746ac6      3f3c000e       move.w 0xe, -(a7)
           0x00746aca      3f3c0004       move.w 0x4, -(a7)
           0x00746ace      3f3c0006       move.w 0x6, -(a7)
           0x00746ad2      3f02           move.w d2, -(a7)
           0x00746ad4      1f3c0005       move.b 0x5, -(a7)
           0x00746ad8      4227           clr.b -(a7)
           0x00746ada      3f390086942a   move.w 0x86942a, -(a7)
           0x00746ae0      4267           clr.w -(a7)
           0x00746ae2      2f390073db8a   move.l 0x73db8a, -(a7)
           0x00746ae8      486f0018       pea.l 0x18(a7)
           0x00746aec      4853           pea.l (a3)
           0x00746aee      4878000d       pea.l 0xd
           0x00746af2      486d0010       pea.l 0x10(a5)
           0x00746af6      487a8286       pea.l MENUEFFECTCOM.hit_hicon(pc)
           0x00746afa      4eb900487aa6   jsr MENUCOM.new_box
           0x00746b00      defc003a       adda.w 0x3a, a7
           0x00746b04      3d7c0005fee4   move.w 0x5, -0x11c(a6)
           0x00746b0a      554f           subq.w 0x2, a7
           0x00746b0c      2f390073df28   move.l 0x73df28, -(a7)
           0x00746b12      1f790073df2c.  move.b 0x73df2c, 0x4(a7)
           0x00746b1a      48790086944c   pea.l 0x86944c
           0x00746b20      3f3c000a       move.w 0xa, -(a7)
           0x00746b24      3f02           move.w d2, -(a7)
           0x00746b26      3f04           move.w d4, -(a7)
           0x00746b28      3f02           move.w d2, -(a7)
           0x00746b2a      1f03           move.b d3, -(a7)
           0x00746b2c      4227           clr.b -(a7)
           0x00746b2e      3f3c0004       move.w 0x4, -(a7)
           0x00746b32      3f390086942a   move.w 0x86942a, -(a7)
           0x00746b38      2f390073db8a   move.l 0x73db8a, -(a7)
           0x00746b3e      486f0018       pea.l 0x18(a7)
           0x00746b42      4853           pea.l (a3)
           0x00746b44      48780005       pea.l 0x5
           0x00746b48      486d0010       pea.l 0x10(a5)
           0x00746b4c      487a9b4e       pea.l MENUEFFECTCOM.hit_keyer(pc)
           0x00746b50      4eb900487aa6   jsr MENUCOM.new_box
           0x00746b56      defc0030       adda.w 0x30, a7
           0x00746b5a      3eb90086944c   move.w 0x86944c, (a7)
           0x00746b60      3f3900869426   move.w 0x869426, -(a7)
           0x00746b66      4eb900486f94   jsr MENUCOM.add_slave
           0x00746b6c      544f           addq.w 0x2, a7
           0x00746b6e      3eb90086944c   move.w 0x86944c, (a7)
           0x00746b74      3f3900869428   move.w 0x869428, -(a7)
           0x00746b7a      4eb900486f94   jsr MENUCOM.add_slave
           0x00746b80      544f           addq.w 0x2, a7
           0x00746b82      4eb9004755c2   jsr CONFIG.cfg_gender
           0x00746b88      101f           move.b (a7)+, d0
           0x00746b8a      0c00000b       cmpi.b 0xb, d0
       < 0x00746b8e      66000104       bne.w 0x746c94
          0x00746b92      554f           subq.w 0x2, a7
          0x00746b94      3f390073df2e   move.w 0x73df2e, -(a7)
          0x00746b9a      1f790073df30.  move.b 0x73df30, 0x2(a7)
          0x00746ba2      48790086944e   pea.l 0x86944e
          0x00746ba8      3f3c000e       move.w 0xe, -(a7)
          0x00746bac      3f03           move.w d3, -(a7)
          0x00746bae      3f03           move.w d3, -(a7)
          0x00746bb0      3f02           move.w d2, -(a7)
          0x00746bb2      1f04           move.b d4, -(a7)
          0x00746bb4      4227           clr.b -(a7)
          0x00746bb6      3f390086944c   move.w 0x86944c, -(a7)
          0x00746bbc      4267           clr.w -(a7)
          0x00746bbe      2f390073db8a   move.l 0x73db8a, -(a7)
          0x00746bc4      486f0018       pea.l 0x18(a7)
          0x00746bc8      4853           pea.l (a3)
          0x00746bca      48780003       pea.l 0x3
          0x00746bce      486d0010       pea.l 0x10(a5)
          0x00746bd2      487a9ac8       pea.l MENUEFFECTCOM.hit_keyer(pc)
          0x00746bd6      4eb900487aa6   jsr MENUCOM.new_box
          0x00746bdc      defc002e       adda.w 0x2e, a7
          0x00746be0      3eb90086944e   move.w 0x86944e, (a7)
          0x00746be6      4eb900481d90   jsr MENUCOM.swtch_on_box
          0x00746bec      3f390073df32   move.w 0x73df32, -(a7)
          0x00746bf2      1f790073df34.  move.b 0x73df34, 0x2(a7)
          0x00746bfa      487900869450   pea.l 0x869450
          0x00746c00      3f3c0010       move.w 0x10, -(a7)
          0x00746c04      3f03           move.w d3, -(a7)
          0x00746c06      3f03           move.w d3, -(a7)
          0x00746c08      3f02           move.w d2, -(a7)
          0x00746c0a      1f04           move.b d4, -(a7)
          0x00746c0c      4227           clr.b -(a7)
          0x00746c0e      3f390086944c   move.w 0x86944c, -(a7)
          0x00746c14      3f390086944e   move.w 0x86944e, -(a7)
          0x00746c1a      2f390073db8a   move.l 0x73db8a, -(a7)
          0x00746c20      486f0018       pea.l 0x18(a7)
          0x00746c24      4853           pea.l (a3)
          0x00746c26      48780003       pea.l 0x3
          0x00746c2a      486d0010       pea.l 0x10(a5)
          0x00746c2e      487a9a6c       pea.l MENUEFFECTCOM.hit_keyer(pc)
          0x00746c32      4eb900487aa6   jsr MENUCOM.new_box
          0x00746c38      defc002e       adda.w 0x2e, a7
          0x00746c3c      3eb900869450   move.w 0x869450, (a7)
          0x00746c42      4eb900481d90   jsr MENUCOM.swtch_on_box
          0x00746c48      544f           addq.w 0x2, a7
          0x00746c4a      2f390073df36   move.l 0x73df36, -(a7)
          0x00746c50      487900869452   pea.l 0x869452
          0x00746c56      3f3c0012       move.w 0x12, -(a7)
          0x00746c5a      3f03           move.w d3, -(a7)
          0x00746c5c      3f03           move.w d3, -(a7)
          0x00746c5e      3f02           move.w d2, -(a7)
          0x00746c60      1f3c0004       move.b 0x4, -(a7)
          0x00746c64      4227           clr.b -(a7)
          0x00746c66      3f390086944c   move.w 0x86944c, -(a7)
          0x00746c6c      4267           clr.w -(a7)
          0x00746c6e      2f390073db8a   move.l 0x73db8a, -(a7)
          0x00746c74      486f0018       pea.l 0x18(a7)
          0x00746c78      4853           pea.l (a3)
          0x00746c7a      48780004       pea.l 0x4
          0x00746c7e      486d0010       pea.l 0x10(a5)
          0x00746c82      487a9a18       pea.l MENUEFFECTCOM.hit_keyer(pc)
          0x00746c86      4eb900487aa6   jsr MENUCOM.new_box
          0x00746c8c      defc0030       adda.w 0x30, a7
      < 0x00746c90      600000c0       bra.w 0x746d52
      > 0x00746c94      554f           subq.w 0x2, a7
          0x00746c96      3f390073df3b   move.w 0x73df3b, -(a7)
          0x00746c9c      1f790073df3d.  move.b 0x73df3d, 0x2(a7)
          0x00746ca4      48790086944e   pea.l 0x86944e
          0x00746caa      3f3c000e       move.w 0xe, -(a7)
          0x00746cae      3f03           move.w d3, -(a7)
          0x00746cb0      3f04           move.w d4, -(a7)
          0x00746cb2      3f02           move.w d2, -(a7)
          0x00746cb4      1f04           move.b d4, -(a7)
          0x00746cb6      4227           clr.b -(a7)
          0x00746cb8      3f390086944c   move.w 0x86944c, -(a7)
          0x00746cbe      4267           clr.w -(a7)
          0x00746cc0      2f390073db8a   move.l 0x73db8a, -(a7)
          0x00746cc6      486f0018       pea.l 0x18(a7)
          0x00746cca      4853           pea.l (a3)
          0x00746ccc      48780003       pea.l 0x3
          0x00746cd0      486d0010       pea.l 0x10(a5)
          0x00746cd4      487a99c6       pea.l MENUEFFECTCOM.hit_keyer(pc)
          0x00746cd8      4eb900487aa6   jsr MENUCOM.new_box
          0x00746cde      defc002e       adda.w 0x2e, a7
          0x00746ce2      3eb90086944e   move.w 0x86944e, (a7)
          0x00746ce8      4eb900481d90   jsr MENUCOM.swtch_on_box
          0x00746cee      3f390073df3f   move.w 0x73df3f, -(a7)
          0x00746cf4      1f790073df41.  move.b 0x73df41, 0x2(a7)
          0x00746cfc      487900869450   pea.l 0x869450
          0x00746d02      3f3c0011       move.w 0x11, -(a7)
          0x00746d06      3f03           move.w d3, -(a7)
          0x00746d08      3f04           move.w d4, -(a7)
          0x00746d0a      3f02           move.w d2, -(a7)
          0x00746d0c      1f04           move.b d4, -(a7)
          0x00746d0e      4227           clr.b -(a7)
          0x00746d10      3f390086944c   move.w 0x86944c, -(a7)
          0x00746d16      3f390086944e   move.w 0x86944e, -(a7)
          0x00746d1c      2f390073db8a   move.l 0x73db8a, -(a7)
          0x00746d22      486f0018       pea.l 0x18(a7)
          0x00746d26      4853           pea.l (a3)
          0x00746d28      48780003       pea.l 0x3
          0x00746d2c      486d0010       pea.l 0x10(a5)
          0x00746d30      487a996a       pea.l MENUEFFECTCOM.hit_keyer(pc)
          0x00746d34      4eb900487aa6   jsr MENUCOM.new_box
          0x00746d3a      defc002e       adda.w 0x2e, a7
          0x00746d3e      3eb900869450   move.w 0x869450, (a7)
          0x00746d44      4eb900481d90   jsr MENUCOM.swtch_on_box
          0x00746d4a      544f           addq.w 0x2, a7
          0x00746d4c      427900869452   clr.w 0x869452
      > 0x00746d52      2f390073df43   move.l 0x73df43, -(a7)
           0x00746d58      487900869458   pea.l 0x869458
           0x00746d5e      3f3c000e       move.w 0xe, -(a7)
           0x00746d62      3f04           move.w d4, -(a7)
           0x00746d64      3f03           move.w d3, -(a7)
           0x00746d66      3f02           move.w d2, -(a7)
           0x00746d68      1f02           move.b d2, -(a7)
           0x00746d6a      4227           clr.b -(a7)
           0x00746d6c      3f390086944c   move.w 0x86944c, -(a7)
           0x00746d72      4267           clr.w -(a7)
           0x00746d74      2f390073db8a   move.l 0x73db8a, -(a7)
           0x00746d7a      486f0018       pea.l 0x18(a7)
           0x00746d7e      4853           pea.l (a3)
           0x00746d80      48780004       pea.l 0x4
           0x00746d84      486d0010       pea.l 0x10(a5)
           0x00746d88      487a9912       pea.l MENUEFFECTCOM.hit_keyer(pc)
           0x00746d8c      4eb900487aa6   jsr MENUCOM.new_box
           0x00746d92      defc002e       adda.w 0x2e, a7
           0x00746d96      3eb900869458   move.w 0x869458, (a7)
           0x00746d9c      1f02           move.b d2, -(a7)
           0x00746d9e      4eb900483776   jsr MENUCOM.swtch_box
           0x00746da4      554f           subq.w 0x2, a7
           0x00746da6      2eb90073df48   move.l 0x73df48, (a7)
           0x00746dac      1f790073df4c.  move.b 0x73df4c, 0x4(a7)
           0x00746db4      48790086945a   pea.l 0x86945a
           0x00746dba      3f3c0010       move.w 0x10, -(a7)
           0x00746dbe      3f04           move.w d4, -(a7)
           0x00746dc0      3f03           move.w d3, -(a7)
           0x00746dc2      3f02           move.w d2, -(a7)
           0x00746dc4      1f02           move.b d2, -(a7)
           0x00746dc6      4227           clr.b -(a7)
           0x00746dc8      3f390086944c   move.w 0x86944c, -(a7)
           0x00746dce      3f3900869458   move.w 0x869458, -(a7)
           0x00746dd4      2f390073db8a   move.l 0x73db8a, -(a7)
           0x00746dda      486f0018       pea.l 0x18(a7)
           0x00746dde      4853           pea.l (a3)
           0x00746de0      48780005       pea.l 0x5
           0x00746de4      486d0010       pea.l 0x10(a5)
           0x00746de8      487a98b2       pea.l MENUEFFECTCOM.hit_keyer(pc)
           0x00746dec      4eb900487aa6   jsr MENUCOM.new_box
           0x00746df2      defc002e       adda.w 0x2e, a7
           0x00746df6      3eb90073df4e   move.w 0x73df4e, (a7)
           0x00746dfc      1f790073df50.  move.b 0x73df50, 0x2(a7)
           0x00746e04      48790086945c   pea.l 0x86945c
           0x00746e0a      3f3c0012       move.w 0x12, -(a7)
           0x00746e0e      3f04           move.w d4, -(a7)
           0x00746e10      3f03           move.w d3, -(a7)
           0x00746e12      3f02           move.w d2, -(a7)
           0x00746e14      1f3c0004       move.b 0x4, -(a7)
           0x00746e18      4227           clr.b -(a7)
           0x00746e1a      3f390086944c   move.w 0x86944c, -(a7)
           0x00746e20      4267           clr.w -(a7)
           0x00746e22      2f390073db8a   move.l 0x73db8a, -(a7)
           0x00746e28      486f0018       pea.l 0x18(a7)
           0x00746e2c      4853           pea.l (a3)
           0x00746e2e      48780003       pea.l 0x3
           0x00746e32      486d0010       pea.l 0x10(a5)
           0x00746e36      487a9864       pea.l MENUEFFECTCOM.hit_keyer(pc)
           0x00746e3a      4eb900487aa6   jsr MENUCOM.new_box
           0x00746e40      defc002c       adda.w 0x2c, a7
           0x00746e44      2eb90073df5a   move.l 0x73df5a, (a7)
           0x00746e4a      2f390073df56   move.l 0x73df56, -(a7)
           0x00746e50      2f390073df52   move.l 0x73df52, -(a7)
           0x00746e56      487900869454   pea.l 0x869454
           0x00746e5c      3f3c000e       move.w 0xe, -(a7)
           0x00746e60      3f3c0004       move.w 0x4, -(a7)
           0x00746e64      3f3c0006       move.w 0x6, -(a7)
           0x00746e68      3f02           move.w d2, -(a7)
           0x00746e6a      1f3c0008       move.b 0x8, -(a7)
           0x00746e6e      1f03           move.b d3, -(a7)
           0x00746e70      3f390086944c   move.w 0x86944c, -(a7)
           0x00746e76      4267           clr.w -(a7)
           0x00746e78      2f390073db8a   move.l 0x73db8a, -(a7)
           0x00746e7e      486f0018       pea.l 0x18(a7)
           0x00746e82      4853           pea.l (a3)
           0x00746e84      4878000c       pea.l 0xc
           0x00746e88      486d0010       pea.l 0x10(a5)
           0x00746e8c      487a980e       pea.l MENUEFFECTCOM.hit_keyer(pc)
           0x00746e90      4eb900487aa6   jsr MENUCOM.new_box
           0x00746e96      defc0036       adda.w 0x36, a7
           0x00746e9a      3eb900869454   move.w 0x869454, (a7)
           0x00746ea0      f23c40000000.  fmove.l 0x0, fp0
           0x00746ea8      f2276400       fmove.s fp0, -(a7)
           0x00746eac      f23c40000000.  fmove.l 0x0, fp0
           0x00746eb4      f2276400       fmove.s fp0, -(a7)
           0x00746eb8      f23c40000000.  fmove.l 0xff, fp0
           0x00746ec0      f2276400       fmove.s fp0, -(a7)
           0x00746ec4      4267           clr.w -(a7)
           0x00746ec6      4267           clr.w -(a7)
           0x00746ec8      4eb90048d4ae   jsr MENU2COM.make_numeric_bo
           0x00746ece      defc000c       adda.w 0xc, a7
           0x00746ed2      2eb90073df5f   move.l 0x73df5f, (a7)
           0x00746ed8      1f790073df63.  move.b 0x73df63, 0x4(a7)
           0x00746ee0      48790086945e   pea.l 0x86945e
           0x00746ee6      3f3c000e       move.w 0xe, -(a7)
           0x00746eea      3f3c0005       move.w 0x5, -(a7)
           0x00746eee      3f04           move.w d4, -(a7)
           0x00746ef0      3f02           move.w d2, -(a7)
           0x00746ef2      1f3c0005       move.b 0x5, -(a7)
           0x00746ef6      4227           clr.b -(a7)
           0x00746ef8      3f390086944c   move.w 0x86944c, -(a7)
           0x00746efe      4267           clr.w -(a7)
           0x00746f00      2f390073db8a   move.l 0x73db8a, -(a7)
           0x00746f06      486f0018       pea.l 0x18(a7)
           0x00746f0a      4853           pea.l (a3)
           0x00746f0c      48780005       pea.l 0x5
           0x00746f10      486d0010       pea.l 0x10(a5)
           0x00746f14      487a9786       pea.l MENUEFFECTCOM.hit_keyer(pc)
           0x00746f18      4eb900487aa6   jsr MENUCOM.new_box
           0x00746f1e      defc002e       adda.w 0x2e, a7
           0x00746f22      2eb90073df65   move.l 0x73df65, (a7)
           0x00746f28      487900869456   pea.l 0x869456
           0x00746f2e      3f3c0011       move.w 0x11, -(a7)
           0x00746f32      3f3c0005       move.w 0x5, -(a7)
           0x00746f36      3f04           move.w d4, -(a7)
           0x00746f38      3f02           move.w d2, -(a7)
           0x00746f3a      1f3c0005       move.b 0x5, -(a7)
           0x00746f3e      4227           clr.b -(a7)
           0x00746f40      3f390086944c   move.w 0x86944c, -(a7)
           0x00746f46      4267           clr.w -(a7)
           0x00746f48      2f390073db8a   move.l 0x73db8a, -(a7)
           0x00746f4e      486f0018       pea.l 0x18(a7)
           0x00746f52      4853           pea.l (a3)
           0x00746f54      48780004       pea.l 0x4
           0x00746f58      486d0010       pea.l 0x10(a5)
           0x00746f5c      487a91ae       pea.l MENUEFFECTCOM.hit_undo_key(pc)
           0x00746f60      4eb900487aa6   jsr MENUCOM.new_box
           0x00746f66      defc002e       adda.w 0x2e, a7
           0x00746f6a      3eb90073df6a   move.w 0x73df6a, (a7)
           0x00746f70      487900869464   pea.l 0x869464
           0x00746f76      3f3c0014       move.w 0x14, -(a7)
           0x00746f7a      3f03           move.w d3, -(a7)
           0x00746f7c      3f3c0006       move.w 0x6, -(a7)
           0x00746f80      3f3c0004       move.w 0x4, -(a7)
           0x00746f84      1f3c0010       move.b 0x10, -(a7)
           0x00746f88      1f02           move.b d2, -(a7)
           0x00746f8a      3f390086944c   move.w 0x86944c, -(a7)
           0x00746f90      4267           clr.w -(a7)
           0x00746f92      2f390073db8a   move.l 0x73db8a, -(a7)
           0x00746f98      486f0018       pea.l 0x18(a7)
           0x00746f9c      4853           pea.l (a3)
           0x00746f9e      48780002       pea.l 0x2
           0x00746fa2      486d0010       pea.l 0x10(a5)
           0x00746fa6      487a86b6       pea.l MENUEFFECTCOM.hit_key_graph(pc)
           0x00746faa      4eb900487aa6   jsr MENUCOM.new_box
           0x00746fb0      defc002c       adda.w 0x2c, a7
           0x00746fb4      3eb900869464   move.w 0x869464, (a7)
           0x00746fba      9efc00fc       suba.w 0xfc, a7
           0x00746fbe      2f390073df6c   move.l 0x73df6c, -(a7)
           0x00746fc4      2f790073df70.  move.l 0x73df70, 0x4(a7)
           0x00746fcc      3f790073df74.  move.w 0x73df74, 0x8(a7)
           0x00746fd4      4eb90048442e   jsr MENUCOM.set_box_macro_n
           0x00746fda      defc00fe       adda.w 0xfe, a7
           0x00746fde      2eb90073df7b   move.l 0x73df7b, (a7)
           0x00746fe4      2f390073df77   move.l 0x73df77, -(a7)
           0x00746fea      487900869460   pea.l 0x869460
           0x00746ff0      3f3c0014       move.w 0x14, -(a7)
           0x00746ff4      3f02           move.w d2, -(a7)
           0x00746ff6      3f04           move.w d4, -(a7)
           0x00746ff8      3f02           move.w d2, -(a7)
           0x00746ffa      1f3c0004       move.b 0x4, -(a7)
           0x00746ffe      4227           clr.b -(a7)
           0x00747000      3f390086944c   move.w 0x86944c, -(a7)
           0x00747006      4267           clr.w -(a7)
           0x00747008      2f390073db8a   move.l 0x73db8a, -(a7)
           0x0074700e      486f0018       pea.l 0x18(a7)
           0x00747012      4853           pea.l (a3)
           0x00747014      48780008       pea.l 0x8
           0x00747018      486d0010       pea.l 0x10(a5)
           0x0074701c      487a80b6       pea.l MENUEFFECTCOM.hit_key_values(pc)
           0x00747020      4eb900487aa6   jsr MENUCOM.new_box
           0x00747026      defc0030       adda.w 0x30, a7
           0x0074702a      2eb90073df82   move.l 0x73df82, (a7)
           0x00747030      3f390073df80   move.w 0x73df80, -(a7)
           0x00747036      487900869462   pea.l 0x869462
           0x0074703c      4267           clr.w -(a7)
           0x0074703e      4267           clr.w -(a7)
           0x00747040      4267           clr.w -(a7)
           0x00747042      4267           clr.w -(a7)
           0x00747044      1f3c0004       move.b 0x4, -(a7)
           0x00747048      4227           clr.b -(a7)
           0x0074704a      3f390086944c   move.w 0x86944c, -(a7)
           0x00747050      4267           clr.w -(a7)
           0x00747052      2f390073db8a   move.l 0x73db8a, -(a7)
           0x00747058      486f0018       pea.l 0x18(a7)
           0x0074705c      4853           pea.l (a3)
           0x0074705e      48780006       pea.l 0x6
           0x00747062      486d0010       pea.l 0x10(a5)
           0x00747066      487900481fee   pea.l MENUCOM.hit_nothing
           0x0074706c      4eb900487aa6   jsr MENUCOM.new_box
           0x00747072      defc0032       adda.w 0x32, a7
           0x00747076      3c3900869454   move.w 0x869454, d6
           0x0074707c      7a00           moveq 0x0, d5
       > 0x0074707e      4885           ext.w d5
          0x00747080      3005           move.w d5, d0
          0x00747082      b043           cmp.w d3, d0
      < 0x00747084      622c           bhi.b 0x7470b2
         0x00747086      d040           add.w d0, d0
         0x00747088      303b0006       move.w 0x747090(pc, d0.w), d0
         0x0074708c      4efb0002       jmp 0x747090(pc, d0.w)
         0x00747090      00060010       ori.b 0x10, d6
         0x00747094      001a3d79       ori.b 0x79, (a2)+
         0x00747098      0073df86feec   ori.w 0xdf86, -0x14(a3, a7.l)
     < 0x0074709e      6012           bra.b 0x7470b2
        0x007470a0      3d790073df88.  move.w 0x73df88, -0x114(a6)
    < 0x007470a8      6008           bra.b 0x7470b2
       0x007470aa      3d790073df8a.  move.w 0x73df8a, -0x114(a6)
    > 0x007470b2      4885           ext.w d5
          0x007470b4      3e05           move.w d5, d7
          0x007470b6      cfc3           muls.w d3, d7
          0x007470b8      06470014       addi.w 0x14, d7
          0x007470bc      4885           ext.w d5
          0x007470be      41f9008693f2   lea.l 0x8693f2, a0
          0x007470c4      3f390073df8d   move.w 0x73df8d, -(a7)
          0x007470ca      48705274       pea.l 0x74(a0, d5.w)
          0x007470ce      3f07           move.w d7, -(a7)
          0x007470d0      3f03           move.w d3, -(a7)
          0x007470d2      3f03           move.w d3, -(a7)
          0x007470d4      3f02           move.w d2, -(a7)
          0x007470d6      1f3c0008       move.b 0x8, -(a7)
          0x007470da      1f03           move.b d3, -(a7)
          0x007470dc      3f3900869462   move.w 0x869462, -(a7)
          0x007470e2      3f06           move.w d6, -(a7)
          0x007470e4      2f390073db8a   move.l 0x73db8a, -(a7)
          0x007470ea      486f0018       pea.l 0x18(a7)
          0x007470ee      4853           pea.l (a3)
          0x007470f0      48780002       pea.l 0x2
          0x007470f4      486d0010       pea.l 0x10(a5)
          0x007470f8      487a95a2       pea.l MENUEFFECTCOM.hit_keyer(pc)
          0x007470fc      4eb900487aa6   jsr MENUCOM.new_box
          0x00747102      defc002c       adda.w 0x2c, a7
          0x00747106      3eb05274       move.w 0x74(a0, d5.w), (a7)
          0x0074710a      9efc0100       suba.w 0x100, a7
          0x0074710e      7007           moveq 0x7, d0
          0x00747110      43ef0001       lea.l 0x1(a7), a1
          0x00747114      45f90073df90   lea.l 0x73df90, a2
      > 0x0074711a      12da           move.b (a2)+, (a1)+
      < 0x0074711c      51c8fffc       dbra d0, 0x74711a
          0x00747120      4240           clr.w d0
          0x00747122      102efeec       move.b -0x114(a6), d0
          0x00747126      5000           addq.b 0x8, d0
      < 0x00747128      6406           bcc.b 0x747130
         0x0074712a      4eb900406c8a   jsr p_strovr
      > 0x00747130      4240           clr.w d0
          0x00747132      102efeec       move.b -0x114(a6), d0
          0x00747136      323c00ff       move.w 0xff, d1
          0x0074713a      5141           subq.w 0x8, d1
          0x0074713c      b041           cmp.w d1, d0
      < 0x0074713e      6302           bls.b 0x747142
         0x00747140      3001           move.w d1, d0
      > 0x00747142      1ebc0008       move.b 0x8, (a7)
          0x00747146      d117           add.b d0, (a7)
          0x00747148      5300           subq.b 0x1, d0
      < 0x0074714a      650a           bcs.b 0x747156
         0x0074714c      45eefeed       lea.l -0x113(a6), a2
     > 0x00747150      12da           move.b (a2)+, (a1)+
     < 0x00747152      51c8fffc       dbra d0, 0x747150
      > 0x00747156      4eb90048442e   jsr MENUCOM.set_box_macro_n
          0x0074715c      defc0100       adda.w 0x100, a7
          0x00747160      3eb05274       move.w 0x74(a0, d5.w), (a7)
          0x00747164      f23c40000000.  fmove.l 0x0, fp0
          0x0074716c      f2276400       fmove.s fp0, -(a7)
          0x00747170      f23c40000000.  fmove.l 0x0, fp0
          0x00747178      f2276400       fmove.s fp0, -(a7)
          0x0074717c      f23c40000000.  fmove.l 0xff, fp0
          0x00747184      f2276400       fmove.s fp0, -(a7)
          0x00747188      3f3cfffd       move.w 0xfffd, -(a7)
          0x0074718c      4267           clr.w -(a7)
          0x0074718e      4eb90048d4ae   jsr MENU2COM.make_numeric_bo
          0x00747194      defc0010       adda.w 0x10, a7
          0x00747198      3eb90073df99   move.w 0x73df99, (a7)
          0x0074719e      4870527a       pea.l 0x7a(a0, d5.w)
          0x007471a2      3f07           move.w d7, -(a7)
          0x007471a4      3f04           move.w d4, -(a7)
          0x007471a6      3f03           move.w d3, -(a7)
          0x007471a8      3f02           move.w d2, -(a7)
          0x007471aa      1f3c0008       move.b 0x8, -(a7)
          0x007471ae      1f03           move.b d3, -(a7)
          0x007471b0      3f3900869462   move.w 0x869462, -(a7)
          0x007471b6      3f305274       move.w 0x74(a0, d5.w), -(a7)
          0x007471ba      2f390073db8a   move.l 0x73db8a, -(a7)
          0x007471c0      486f0018       pea.l 0x18(a7)
          0x007471c4      4853           pea.l (a3)
          0x007471c6      48780002       pea.l 0x2
          0x007471ca      486d0010       pea.l 0x10(a5)
          0x007471ce      487a94cc       pea.l MENUEFFECTCOM.hit_keyer(pc)
          0x007471d2      4eb900487aa6   jsr MENUCOM.new_box
          0x007471d8      defc002c       adda.w 0x2c, a7
          0x007471dc      3eb0527a       move.w 0x7a(a0, d5.w), (a7)
          0x007471e0      9efc0100       suba.w 0x100, a7
          0x007471e4      7008           moveq 0x8, d0
          0x007471e6      43ef0001       lea.l 0x1(a7), a1
          0x007471ea      45f90073df9c   lea.l 0x73df9c, a2
      > 0x007471f0      12da           move.b (a2)+, (a1)+
      < 0x007471f2      51c8fffc       dbra d0, 0x7471f0
          0x007471f6      4240           clr.w d0
          0x007471f8      102efeec       move.b -0x114(a6), d0
          0x007471fc      06000009       addi.b 0x9, d0
      < 0x00747200      6406           bcc.b 0x747208
         0x00747202      4eb900406c8a   jsr p_strovr
      > 0x00747208      4240           clr.w d0
          0x0074720a      102efeec       move.b -0x114(a6), d0
          0x0074720e      323c00ff       move.w 0xff, d1
          0x00747212      04410009       subi.w 0x9, d1
          0x00747216      b041           cmp.w d1, d0
      < 0x00747218      6302           bls.b 0x74721c
         0x0074721a      3001           move.w d1, d0
      > 0x0074721c      1ebc0009       move.b 0x9, (a7)
          0x00747220      d117           add.b d0, (a7)
          0x00747222      5300           subq.b 0x1, d0
      < 0x00747224      650a           bcs.b 0x747230
         0x00747226      45eefeed       lea.l -0x113(a6), a2
     > 0x0074722a      12da           move.b (a2)+, (a1)+
     < 0x0074722c      51c8fffc       dbra d0, 0x74722a
      > 0x00747230      4eb90048442e   jsr MENUCOM.set_box_macro_n
          0x00747236      defc0100       adda.w 0x100, a7
          0x0074723a      3eb0527a       move.w 0x7a(a0, d5.w), (a7)
          0x0074723e      f23c40000000.  fmove.l 0x0, fp0
          0x00747246      f2276400       fmove.s fp0, -(a7)
          0x0074724a      f23c40000000.  fmove.l 0x0, fp0
          0x00747252      f2276400       fmove.s fp0, -(a7)
          0x00747256      f23c40000000.  fmove.l 0xff, fp0
          0x0074725e      f2276400       fmove.s fp0, -(a7)
          0x00747262      3f3cfffd       move.w 0xfffd, -(a7)
          0x00747266      4267           clr.w -(a7)
          0x00747268      4eb90048d4ae   jsr MENU2COM.make_numeric_bo
          0x0074726e      defc0010       adda.w 0x10, a7
          0x00747272      3eb90073dfa6   move.w 0x73dfa6, (a7)
          0x00747278      487053200080   pea.l 0x80(a0, d5.w * 2)
          0x0074727e      3f07           move.w d7, -(a7)
          0x00747280      3f3c0004       move.w 0x4, -(a7)
          0x00747284      3f03           move.w d3, -(a7)
          0x00747286      3f02           move.w d2, -(a7)
          0x00747288      1f3c0008       move.b 0x8, -(a7)
          0x0074728c      1f03           move.b d3, -(a7)
          0x0074728e      3f3900869462   move.w 0x869462, -(a7)
          0x00747294      3f30527a       move.w 0x7a(a0, d5.w), -(a7)
          0x00747298      2f390073db8a   move.l 0x73db8a, -(a7)
          0x0074729e      486f0018       pea.l 0x18(a7)
          0x007472a2      4853           pea.l (a3)
          0x007472a4      48780002       pea.l 0x2
          0x007472a8      486d0010       pea.l 0x10(a5)
          0x007472ac      487a93ee       pea.l MENUEFFECTCOM.hit_keyer(pc)
          0x007472b0      4eb900487aa6   jsr MENUCOM.new_box
          0x007472b6      defc002e       adda.w 0x2e, a7
          0x007472ba      3f3053200080   move.w 0x80(a0, d5.w * 2), -(a7)
          0x007472c0      9efc0100       suba.w 0x100, a7
          0x007472c4      7008           moveq 0x8, d0
          0x007472c6      43ef0001       lea.l 0x1(a7), a1
          0x007472ca      45f90073dfa9   lea.l 0x73dfa9, a2
      > 0x007472d0      12da           move.b (a2)+, (a1)+
      < 0x007472d2      51c8fffc       dbra d0, 0x7472d0
          0x007472d6      4240           clr.w d0
          0x007472d8      102efeec       move.b -0x114(a6), d0
          0x007472dc      06000009       addi.b 0x9, d0
      < 0x007472e0      6406           bcc.b 0x7472e8
         0x007472e2      4eb900406c8a   jsr p_strovr
      > 0x007472e8      4240           clr.w d0
          0x007472ea      102efeec       move.b -0x114(a6), d0
          0x007472ee      323c00ff       move.w 0xff, d1
          0x007472f2      04410009       subi.w 0x9, d1
          0x007472f6      b041           cmp.w d1, d0
      < 0x007472f8      6302           bls.b 0x7472fc
         0x007472fa      3001           move.w d1, d0
      > 0x007472fc      1ebc0009       move.b 0x9, (a7)
          0x00747300      d117           add.b d0, (a7)
          0x00747302      5300           subq.b 0x1, d0
      < 0x00747304      650a           bcs.b 0x747310
         0x00747306      45eefeed       lea.l -0x113(a6), a2
     > 0x0074730a      12da           move.b (a2)+, (a1)+
     < 0x0074730c      51c8fffc       dbra d0, 0x74730a
      > 0x00747310      4eb90048442e   jsr MENUCOM.set_box_macro_n
          0x00747316      defc0102       adda.w 0x102, a7
          0x0074731a      3f3053200080   move.w 0x80(a0, d5.w * 2), -(a7)
          0x00747320      f23c40000000.  fmove.l 0x0, fp0
          0x00747328      f2276400       fmove.s fp0, -(a7)
          0x0074732c      f23c40000000.  fmove.l 0x0, fp0
          0x00747334      f2276400       fmove.s fp0, -(a7)
          0x00747338      f23c40000000.  fmove.l 0xff, fp0
          0x00747340      f2276400       fmove.s fp0, -(a7)
          0x00747344      3f3cfffd       move.w 0xfffd, -(a7)
          0x00747348      4267           clr.w -(a7)
          0x0074734a      4eb90048d4ae   jsr MENU2COM.make_numeric_bo
          0x00747350      defc0010       adda.w 0x10, a7
          0x00747354      3eb90073dfb3   move.w 0x73dfb3, (a7)
          0x0074735a      487053200086   pea.l 0x86(a0, d5.w * 2)
          0x00747360      3f07           move.w d7, -(a7)
          0x00747362      3f3c0005       move.w 0x5, -(a7)
          0x00747366      3f03           move.w d3, -(a7)
          0x00747368      3f02           move.w d2, -(a7)
          0x0074736a      4227           clr.b -(a7)
          0x0074736c      1f02           move.b d2, -(a7)
          0x0074736e      3f3900869462   move.w 0x869462, -(a7)
          0x00747374      4267           clr.w -(a7)
          0x00747376      2f390073db8a   move.l 0x73db8a, -(a7)
          0x0074737c      486f0018       pea.l 0x18(a7)
          0x00747380      4853           pea.l (a3)
          0x00747382      48780002       pea.l 0x2
          0x00747386      486d0010       pea.l 0x10(a5)
          0x0074738a      487900481fee   pea.l MENUCOM.hit_nothing
          0x00747390      4eb900487aa6   jsr MENUCOM.new_box
          0x00747396      defc002e       adda.w 0x2e, a7
          0x0074739a      3f3053200086   move.w 0x86(a0, d5.w * 2), -(a7)
          0x007473a0      9efc0100       suba.w 0x100, a7
          0x007473a4      7007           moveq 0x7, d0
          0x007473a6      43ef0001       lea.l 0x1(a7), a1
          0x007473aa      45f90073dfb6   lea.l 0x73dfb6, a2
      > 0x007473b0      12da           move.b (a2)+, (a1)+
      < 0x007473b2      51c8fffc       dbra d0, 0x7473b0
          0x007473b6      4240           clr.w d0
          0x007473b8      102efeec       move.b -0x114(a6), d0
          0x007473bc      5000           addq.b 0x8, d0
      < 0x007473be      6406           bcc.b 0x7473c6
         0x007473c0      4eb900406c8a   jsr p_strovr
      > 0x007473c6      4240           clr.w d0
          0x007473c8      102efeec       move.b -0x114(a6), d0
          0x007473cc      323c00ff       move.w 0xff, d1
          0x007473d0      5141           subq.w 0x8, d1
          0x007473d2      b041           cmp.w d1, d0
      < 0x007473d4      6302           bls.b 0x7473d8
         0x007473d6      3001           move.w d1, d0
      > 0x007473d8      1ebc0008       move.b 0x8, (a7)
          0x007473dc      d117           add.b d0, (a7)
          0x007473de      5300           subq.b 0x1, d0
      < 0x007473e0      650a           bcs.b 0x7473ec
         0x007473e2      45eefeed       lea.l -0x113(a6), a2
     > 0x007473e6      12da           move.b (a2)+, (a1)+
     < 0x007473e8      51c8fffc       dbra d0, 0x7473e6
      > 0x007473ec      4eb90048442e   jsr MENUCOM.set_box_macro_n
          0x007473f2      defc0102       adda.w 0x102, a7
          0x007473f6      3c3053200080   move.w 0x80(a0, d5.w * 2), d6
          0x007473fc      5205           addq.b 0x1, d5
          0x007473fe      ba03           cmp.b d3, d5
       < 0x00747400      6f00fc7c       ble.w 0x74707e
           0x00747404      48c7           ext.l d7
           0x00747406      5487           addq.l 0x2, d7
           0x00747408      554f           subq.w 0x2, a7
           0x0074740a      2f390073dfbf   move.l 0x73dfbf, -(a7)
           0x00747410      1f790073dfc3.  move.b 0x73dfc3, 0x4(a7)
           0x00747418      487900869480   pea.l 0x869480
           0x0074741e      3f07           move.w d7, -(a7)
           0x00747420      3f03           move.w d3, -(a7)
           0x00747422      3f03           move.w d3, -(a7)
           0x00747424      3f02           move.w d2, -(a7)
           0x00747426      4227           clr.b -(a7)
           0x00747428      1f02           move.b d2, -(a7)
           0x0074742a      3f3900869462   move.w 0x869462, -(a7)
           0x00747430      4267           clr.w -(a7)
           0x00747432      2f390073db8a   move.l 0x73db8a, -(a7)
           0x00747438      486f0018       pea.l 0x18(a7)
           0x0074743c      4853           pea.l (a3)
           0x0074743e      48780005       pea.l 0x5
           0x00747442      486d0010       pea.l 0x10(a5)
           0x00747446      487900481fee   pea.l MENUCOM.hit_nothing
           0x0074744c      4eb900487aa6   jsr MENUCOM.new_box
           0x00747452      defc002e       adda.w 0x2e, a7
           0x00747456      2eb90073dfc7   move.l 0x73dfc7, (a7)
           0x0074745c      3f390073dfc5   move.w 0x73dfc5, -(a7)
           0x00747462      487900869482   pea.l 0x869482
           0x00747468      3f07           move.w d7, -(a7)
           0x0074746a      3f04           move.w d4, -(a7)
           0x0074746c      3f03           move.w d3, -(a7)
           0x0074746e      3f02           move.w d2, -(a7)
           0x00747470      4227           clr.b -(a7)
           0x00747472      1f02           move.b d2, -(a7)
           0x00747474      3f3900869462   move.w 0x869462, -(a7)
           0x0074747a      4267           clr.w -(a7)
           0x0074747c      2f390073db8a   move.l 0x73db8a, -(a7)
           0x00747482      486f0018       pea.l 0x18(a7)
           0x00747486      4853           pea.l (a3)
           0x00747488      48780006       pea.l 0x6
           0x0074748c      486d0010       pea.l 0x10(a5)
           0x00747490      487900481fee   pea.l MENUCOM.hit_nothing
           0x00747496      4eb900487aa6   jsr MENUCOM.new_box
           0x0074749c      defc002e       adda.w 0x2e, a7
           0x007474a0      2eb90073dfce   move.l 0x73dfce, (a7)
           0x007474a6      3f390073dfcc   move.w 0x73dfcc, -(a7)
           0x007474ac      48790086947e   pea.l 0x86947e
           0x007474b2      3f07           move.w d7, -(a7)
           0x007474b4      3f3c0004       move.w 0x4, -(a7)
           0x007474b8      3f03           move.w d3, -(a7)
           0x007474ba      3f02           move.w d2, -(a7)
           0x007474bc      4227           clr.b -(a7)
           0x007474be      1f02           move.b d2, -(a7)
           0x007474c0      3f3900869462   move.w 0x869462, -(a7)
           0x007474c6      4267           clr.w -(a7)
           0x007474c8      2f390073db8a   move.l 0x73db8a, -(a7)
           0x007474ce      486f0018       pea.l 0x18(a7)
           0x007474d2      4853           pea.l (a3)
           0x007474d4      48780006       pea.l 0x6
           0x007474d8      486d0010       pea.l 0x10(a5)
           0x007474dc      487900481fee   pea.l MENUCOM.hit_nothing
           0x007474e2      4eb900487aa6   jsr MENUCOM.new_box
           0x007474e8      defc002c       adda.w 0x2c, a7
           0x007474ec      2eb90073dfd3   move.l 0x73dfd3, (a7)
           0x007474f2      1f790073dfd7.  move.b 0x73dfd7, 0x4(a7)
           0x007474fa      487900869484   pea.l 0x869484
           0x00747500      3f07           move.w d7, -(a7)
           0x00747502      3f3c0005       move.w 0x5, -(a7)
           0x00747506      3f03           move.w d3, -(a7)
           0x00747508      3f02           move.w d2, -(a7)
           0x0074750a      4227           clr.b -(a7)
           0x0074750c      1f02           move.b d2, -(a7)
           0x0074750e      3f3900869462   move.w 0x869462, -(a7)
           0x00747514      4267           clr.w -(a7)
           0x00747516      2f390073db8a   move.l 0x73db8a, -(a7)
           0x0074751c      486f0018       pea.l 0x18(a7)
           0x00747520      4853           pea.l (a3)
           0x00747522      48780005       pea.l 0x5
           0x00747526      486d0010       pea.l 0x10(a5)
           0x0074752a      487900481fee   pea.l MENUCOM.hit_nothing
           0x00747530      4eb900487aa6   jsr MENUCOM.new_box
           0x00747536      defc0032       adda.w 0x32, a7
           0x0074753a      13c2008694a4   move.b d2, 0x8694a4
           0x00747540      13c200869486   move.b d2, 0x869486
           0x00747546      4227           clr.b -(a7)
           0x00747548      4eba8a26       jsr MENUEFFECTCOM.undo_key(pc)
           0x0074754c      544f           addq.w 0x2, a7
           0x0074754e      2f390073dfd9   move.l 0x73dfd9, -(a7)
           0x00747554      48790086bbea   pea.l 0x86bbea
           0x0074755a      3f3c0007       move.w 0x7, -(a7)
           0x0074755e      3f03           move.w d3, -(a7)
           0x00747560      3f04           move.w d4, -(a7)
           0x00747562      3f02           move.w d2, -(a7)
           0x00747564      1f03           move.b d3, -(a7)
           0x00747566      4227           clr.b -(a7)
           0x00747568      3f3c0004       move.w 0x4, -(a7)
           0x0074756c      3f390086942a   move.w 0x86942a, -(a7)
           0x00747572      2f390073db8a   move.l 0x73db8a, -(a7)
           0x00747578      486f0018       pea.l 0x18(a7)
           0x0074757c      4853           pea.l (a3)
           0x0074757e      48780004       pea.l 0x4
           0x00747582      486d0010       pea.l 0x10(a5)
           0x00747586      487ab512       pea.l MENUEFFECTCOM.hit_blur_grow(pc)
           0x0074758a      4eb900487aa6   jsr MENUCOM.new_box
           0x00747590      defc002e       adda.w 0x2e, a7
           0x00747594      3eb90086bbea   move.w 0x86bbea, (a7)
           0x0074759a      3f3900869426   move.w 0x869426, -(a7)
           0x007475a0      4eb900486f94   jsr MENUCOM.add_slave
           0x007475a6      544f           addq.w 0x2, a7
           0x007475a8      3eb90086bbea   move.w 0x86bbea, (a7)
           0x007475ae      3f3900869428   move.w 0x869428, -(a7)
           0x007475b4      4eb900486f94   jsr MENUCOM.add_slave
           0x007475ba      2eb90073dfde   move.l 0x73dfde, (a7)
           0x007475c0      48790086bbec   pea.l 0x86bbec
           0x007475c6      3f3c000e       move.w 0xe, -(a7)
           0x007475ca      3f03           move.w d3, -(a7)
           0x007475cc      3f04           move.w d4, -(a7)
           0x007475ce      3f02           move.w d2, -(a7)
           0x007475d0      1f3c0008       move.b 0x8, -(a7)
           0x007475d4      1f03           move.b d3, -(a7)
           0x007475d6      3f390086bbea   move.w 0x86bbea, -(a7)
           0x007475dc      4267           clr.w -(a7)
           0x007475de      2f390073db8a   move.l 0x73db8a, -(a7)
           0x007475e4      486f0018       pea.l 0x18(a7)
           0x007475e8      4853           pea.l (a3)
           0x007475ea      48780004       pea.l 0x4
           0x007475ee      486d0010       pea.l 0x10(a5)
           0x007475f2      487ab4a6       pea.l MENUEFFECTCOM.hit_blur_grow(pc)
           0x007475f6      4eb900487aa6   jsr MENUCOM.new_box
           0x007475fc      defc002e       adda.w 0x2e, a7
           0x00747600      3eb90086bbec   move.w 0x86bbec, (a7)
           0x00747606      9efc00fc       suba.w 0xfc, a7
           0x0074760a      2f390073dfe2   move.l 0x73dfe2, -(a7)
           0x00747610      2f790073dfe6.  move.l 0x73dfe6, 0x4(a7)
           0x00747618      1f790073dfea.  move.b 0x73dfea, 0x8(a7)
           0x00747620      4eb90048442e   jsr MENUCOM.set_box_macro_n
           0x00747626      defc0100       adda.w 0x100, a7
           0x0074762a      3eb90086bbec   move.w 0x86bbec, (a7)
           0x00747630      f23c4000ffff.  fmove.l 0xffffffff, fp0
           0x00747638      f2276400       fmove.s fp0, -(a7)
           0x0074763c      f23c4000ffff.  fmove.l 0xfffffffb, fp0
           0x00747644      f2276400       fmove.s fp0, -(a7)
           0x00747648      f23c40000000.  fmove.l 0x5, fp0
           0x00747650      f2276400       fmove.s fp0, -(a7)
           0x00747654      4267           clr.w -(a7)
           0x00747656      3f04           move.w d4, -(a7)
           0x00747658      4eb90048d4ae   jsr MENU2COM.make_numeric_bo
           0x0074765e      defc000e       adda.w 0xe, a7
           0x00747662      3eb90073dfec   move.w 0x73dfec, (a7)
           0x00747668      1f790073dfee.  move.b 0x73dfee, 0x2(a7)
           0x00747670      48790086bbee   pea.l 0x86bbee
           0x00747676      3f3c0011       move.w 0x11, -(a7)
           0x0074767a      3f03           move.w d3, -(a7)
           0x0074767c      3f04           move.w d4, -(a7)
           0x0074767e      3f02           move.w d2, -(a7)
           0x00747680      1f3c0005       move.b 0x5, -(a7)
           0x00747684      4227           clr.b -(a7)
           0x00747686      3f390086bbea   move.w 0x86bbea, -(a7)
           0x0074768c      4267           clr.w -(a7)
           0x0074768e      2f390073db8a   move.l 0x73db8a, -(a7)
           0x00747694      486f0018       pea.l 0x18(a7)
           0x00747698      4853           pea.l (a3)
           0x0074769a      48780003       pea.l 0x3
           0x0074769e      486d0010       pea.l 0x10(a5)
           0x007476a2      487ab3f6       pea.l MENUEFFECTCOM.hit_blur_grow(pc)
           0x007476a6      4eb900487aa6   jsr MENUCOM.new_box
           0x007476ac      defc002c       adda.w 0x2c, a7
           0x007476b0      2eb90073dff2   move.l 0x73dff2, (a7)
           0x007476b6      3f390073dff0   move.w 0x73dff0, -(a7)
           0x007476bc      48790086bbf0   pea.l 0x86bbf0
           0x007476c2      3f3c000e       move.w 0xe, -(a7)
           0x007476c6      3f04           move.w d4, -(a7)
           0x007476c8      3f04           move.w d4, -(a7)
           0x007476ca      3f02           move.w d2, -(a7)
           0x007476cc      1f3c0004       move.b 0x4, -(a7)
           0x007476d0      4227           clr.b -(a7)
           0x007476d2      3f390086bbea   move.w 0x86bbea, -(a7)
           0x007476d8      4267           clr.w -(a7)
           0x007476da      2f390073db8a   move.l 0x73db8a, -(a7)
           0x007476e0      486f0018       pea.l 0x18(a7)
           0x007476e4      4853           pea.l (a3)
           0x007476e6      48780006       pea.l 0x6
           0x007476ea      486d0010       pea.l 0x10(a5)
           0x007476ee      487900481fee   pea.l MENUCOM.hit_nothing
           0x007476f4      4eb900487aa6   jsr MENUCOM.new_box
           0x007476fa      defc002e       adda.w 0x2e, a7
           0x007476fe      2eb90073dff7   move.l 0x73dff7, (a7)
           0x00747704      48790086bbe6   pea.l 0x86bbe6
           0x0074770a      3f3c000a       move.w 0xa, -(a7)
           0x0074770e      3f03           move.w d3, -(a7)
           0x00747710      3f04           move.w d4, -(a7)
           0x00747712      3f02           move.w d2, -(a7)
           0x00747714      1f03           move.b d3, -(a7)
           0x00747716      4227           clr.b -(a7)
           0x00747718      3f3c0004       move.w 0x4, -(a7)
           0x0074771c      3f390086942a   move.w 0x86942a, -(a7)
           0x00747722      2f390073db8a   move.l 0x73db8a, -(a7)
           0x00747728      486f0018       pea.l 0x18(a7)
           0x0074772c      4853           pea.l (a3)
           0x0074772e      48780004       pea.l 0x4
           0x00747732      486d0010       pea.l 0x10(a5)
           0x00747736      487ab362       pea.l MENUEFFECTCOM.hit_blur_grow(pc)
           0x0074773a      4eb900487aa6   jsr MENUCOM.new_box
           0x00747740      defc002e       adda.w 0x2e, a7
           0x00747744      3eb90086bbe6   move.w 0x86bbe6, (a7)
           0x0074774a      3f3900869426   move.w 0x869426, -(a7)
           0x00747750      4eb900486f94   jsr MENUCOM.add_slave
           0x00747756      544f           addq.w 0x2, a7
           0x00747758      3eb90086bbe6   move.w 0x86bbe6, (a7)
           0x0074775e      3f3900869428   move.w 0x869428, -(a7)
           0x00747764      4eb900486f94   jsr MENUCOM.add_slave
           0x0074776a      2eb90073dffc   move.l 0x73dffc, (a7)
           0x00747770      48790086bbe8   pea.l 0x86bbe8
           0x00747776      3f3c000e       move.w 0xe, -(a7)
           0x0074777a      3f03           move.w d3, -(a7)
           0x0074777c      3f04           move.w d4, -(a7)
           0x0074777e      3f02           move.w d2, -(a7)
           0x00747780      1f3c0008       move.b 0x8, -(a7)
           0x00747784      1f03           move.b d3, -(a7)
           0x00747786      3f390086bbe6   move.w 0x86bbe6, -(a7)
           0x0074778c      4267           clr.w -(a7)
           0x0074778e      2f390073db8a   move.l 0x73db8a, -(a7)
           0x00747794      486f0018       pea.l 0x18(a7)
           0x00747798      4853           pea.l (a3)
           0x0074779a      48780004       pea.l 0x4
           0x0074779e      486d0010       pea.l 0x10(a5)
           0x007477a2      487ab2f6       pea.l MENUEFFECTCOM.hit_blur_grow(pc)
           0x007477a6      4eb900487aa6   jsr MENUCOM.new_box
           0x007477ac      defc002e       adda.w 0x2e, a7
           0x007477b0      3eb90086bbe8   move.w 0x86bbe8, (a7)
           0x007477b6      9efc00fc       suba.w 0xfc, a7
           0x007477ba      2f390073e000   move.l 0x73e000, -(a7)
           0x007477c0      2f790073e004.  move.l 0x73e004, 0x4(a7)
           0x007477c8      1f790073e008.  move.b 0x73e008, 0x8(a7)
           0x007477d0      4eb90048442e   jsr MENUCOM.set_box_macro_n
           0x007477d6      defc0100       adda.w 0x100, a7
           0x007477da      3eb90086bbe8   move.w 0x86bbe8, (a7)
           0x007477e0      f2024000       fmove.l d2, fp0
           0x007477e4      f2276400       fmove.s fp0, -(a7)
           0x007477e8      f23c40000000.  fmove.l 0x0, fp0
           0x007477f0      f2276400       fmove.s fp0, -(a7)
           0x007477f4      f23c40000000.  fmove.l 0x10, fp0
           0x007477fc      f2276400       fmove.s fp0, -(a7)
           0x00747800      3f3cfffe       move.w 0xfffe, -(a7)
           0x00747804      3f04           move.w d4, -(a7)
           0x00747806      4eb90048d4ae   jsr MENU2COM.make_numeric_bo
           0x0074780c      defc0010       adda.w 0x10, a7
           0x00747810      3eb90086bbe6   move.w 0x86bbe6, (a7)
           0x00747816      3f390086bbf0   move.w 0x86bbf0, -(a7)
           0x0074781c      4eb900486f94   jsr MENUCOM.add_slave
           0x00747822      584f           addq.w 0x4, a7
           0x00747824      7e03           moveq 0x3, d7
           0x00747826      2f390073e00c   move.l 0x73e00c, -(a7)
           0x0074782c      3f390073e00a   move.w 0x73e00a, -(a7)
           0x00747832      487900869aa6   pea.l 0x869aa6
           0x00747838      3f3c0007       move.w 0x7, -(a7)
           0x0074783c      3f04           move.w d4, -(a7)
           0x0074783e      3f3c0006       move.w 0x6, -(a7)
           0x00747842      3f02           move.w d2, -(a7)
           0x00747844      1f03           move.b d3, -(a7)
           0x00747846      4227           clr.b -(a7)
           0x00747848      3f3c0004       move.w 0x4, -(a7)
           0x0074784c      3f390086942a   move.w 0x86942a, -(a7)
           0x00747852      2f390073db8a   move.l 0x73db8a, -(a7)
           0x00747858      486f0018       pea.l 0x18(a7)
           0x0074785c      4853           pea.l (a3)
           0x0074785e      48780006       pea.l 0x6
           0x00747862      486d0010       pea.l 0x10(a5)
           0x00747866      487aa276       pea.l MENUEFFECTCOM.hit_colour(pc)
           0x0074786a      4eb900487aa6   jsr MENUCOM.new_box
           0x00747870      defc0030       adda.w 0x30, a7
           0x00747874      3eb900869aa6   move.w 0x869aa6, (a7)
           0x0074787a      3f3900869426   move.w 0x869426, -(a7)
           0x00747880      4eb900486f94   jsr MENUCOM.add_slave
           0x00747886      544f           addq.w 0x2, a7
           0x00747888      3eb900869aa6   move.w 0x869aa6, (a7)
           0x0074788e      3f3900869428   move.w 0x869428, -(a7)
           0x00747894      4eb900486f94   jsr MENUCOM.add_slave
           0x0074789a      554f           subq.w 0x2, a7
           0x0074789c      2f390073e011   move.l 0x73e011, -(a7)
           0x007478a2      2f790073e015.  move.l 0x73e015, 0x4(a7)
           0x007478aa      1f790073e019.  move.b 0x73e019, 0x8(a7)
           0x007478b2      487900869aa8   pea.l 0x869aa8
           0x007478b8      3f3c0014       move.w 0x14, -(a7)
           0x007478bc      3f02           move.w d2, -(a7)
           0x007478be      3f3c0006       move.w 0x6, -(a7)
           0x007478c2      3f02           move.w d2, -(a7)
           0x007478c4      1f3c0004       move.b 0x4, -(a7)
           0x007478c8      4227           clr.b -(a7)
           0x007478ca      3f3900869aa6   move.w 0x869aa6, -(a7)
           0x007478d0      4267           clr.w -(a7)
           0x007478d2      2f390073db8a   move.l 0x73db8a, -(a7)
           0x007478d8      486f0018       pea.l 0x18(a7)
           0x007478dc      4853           pea.l (a3)
           0x007478de      48780009       pea.l 0x9
           0x007478e2      486d0010       pea.l 0x10(a5)
           0x007478e6      487aa1f6       pea.l MENUEFFECTCOM.hit_colour(pc)
           0x007478ea      4eb900487aa6   jsr MENUCOM.new_box
           0x007478f0      defc002a       adda.w 0x2a, a7
           0x007478f4      2eb90073e01b   move.l 0x73e01b, (a7)
           0x007478fa      2f790073e01f.  move.l 0x73e01f, 0x4(a7)
           0x00747902      3f790073e023.  move.w 0x73e023, 0x8(a7)
           0x0074790a      1f790073e025.  move.b 0x73e025, 0xa(a7)
           0x00747912      487900869aaa   pea.l 0x869aaa
           0x00747918      3f3c000e       move.w 0xe, -(a7)
           0x0074791c      3f03           move.w d3, -(a7)
           0x0074791e      3f3c0006       move.w 0x6, -(a7)
           0x00747922      3f02           move.w d2, -(a7)
           0x00747924      1f02           move.b d2, -(a7)
           0x00747926      4227           clr.b -(a7)
           0x00747928      3f3900869aa6   move.w 0x869aa6, -(a7)
           0x0074792e      4267           clr.w -(a7)
           0x00747930      2f390073db8a   move.l 0x73db8a, -(a7)
           0x00747936      486f0018       pea.l 0x18(a7)
           0x0074793a      4853           pea.l (a3)
           0x0074793c      4878000b       pea.l 0xb
           0x00747940      486d0010       pea.l 0x10(a5)
           0x00747944      487aa198       pea.l MENUEFFECTCOM.hit_colour(pc)
           0x00747948      4eb900487aa6   jsr MENUCOM.new_box
           0x0074794e      defc0036       adda.w 0x36, a7
           0x00747952      3eb900869aaa   move.w 0x869aaa, (a7)
           0x00747958      4eb900481d90   jsr MENUCOM.swtch_on_box
           0x0074795e      544f           addq.w 0x2, a7
           0x00747960      2f390073e02d   move.l 0x73e02d, -(a7)
           0x00747966      2f390073e029   move.l 0x73e029, -(a7)
           0x0074796c      3f390073e027   move.w 0x73e027, -(a7)
           0x00747972      487900869ab2   pea.l 0x869ab2
           0x00747978      3f3c0014       move.w 0x14, -(a7)
           0x0074797c      3f03           move.w d3, -(a7)
           0x0074797e      3f3c0006       move.w 0x6, -(a7)
           0x00747982      3f02           move.w d2, -(a7)
           0x00747984      1f3c0008       move.b 0x8, -(a7)
           0x00747988      1f03           move.b d3, -(a7)
           0x0074798a      3f3900869aaa   move.w 0x869aaa, -(a7)
           0x00747990      4267           clr.w -(a7)
           0x00747992      2f390073db8a   move.l 0x73db8a, -(a7)
           0x00747998      486f0018       pea.l 0x18(a7)
           0x0074799c      4853           pea.l (a3)
           0x0074799e      4878000a       pea.l 0xa
           0x007479a2      486d0010       pea.l 0x10(a5)
           0x007479a6      487aa136       pea.l MENUEFFECTCOM.hit_colour(pc)
           0x007479aa      4eb900487aa6   jsr MENUCOM.new_box
           0x007479b0      defc0034       adda.w 0x34, a7
           0x007479b4      3eb900869ab2   move.w 0x869ab2, (a7)
           0x007479ba      f23c40000000.  fmove.l 0x64, fp0
           0x007479c2      f2276400       fmove.s fp0, -(a7)
           0x007479c6      f23c4000ffff.  fmove.l 0xffffff38, fp0
           0x007479ce      f2276400       fmove.s fp0, -(a7)
           0x007479d2      f23c40000000.  fmove.l 0xc8, fp0
           0x007479da      f2276400       fmove.s fp0, -(a7)
           0x007479de      3f3cfffd       move.w 0xfffd, -(a7)
           0x007479e2      4267           clr.w -(a7)
           0x007479e4      4eb90048d4ae   jsr MENU2COM.make_numeric_bo
           0x007479ea      defc000e       adda.w 0xe, a7
           0x007479ee      2eb90073e036   move.l 0x73e036, (a7)
           0x007479f4      2f390073e032   move.l 0x73e032, -(a7)
           0x007479fa      487900869ab0   pea.l 0x869ab0
           0x00747a00      3f3c0014       move.w 0x14, -(a7)
           0x00747a04      3f04           move.w d4, -(a7)
           0x00747a06      3f3c0006       move.w 0x6, -(a7)
           0x00747a0a      3f02           move.w d2, -(a7)
           0x00747a0c      1f3c0008       move.b 0x8, -(a7)
           0x00747a10      1f03           move.b d3, -(a7)
           0x00747a12      3f3900869aaa   move.w 0x869aaa, -(a7)
           0x00747a18      3f3900869ab2   move.w 0x869ab2, -(a7)
           0x00747a1e      2f390073db8a   move.l 0x73db8a, -(a7)
           0x00747a24      486f0018       pea.l 0x18(a7)
           0x00747a28      4853           pea.l (a3)
           0x00747a2a      48780008       pea.l 0x8
           0x00747a2e      486d0010       pea.l 0x10(a5)
           0x00747a32      487aa0aa       pea.l MENUEFFECTCOM.hit_colour(pc)
           0x00747a36      4eb900487aa6   jsr MENUCOM.new_box
           0x00747a3c      defc0032       adda.w 0x32, a7
           0x00747a40      3eb900869ab0   move.w 0x869ab0, (a7)
           0x00747a46      f23c40000000.  fmove.l 0x64, fp0
           0x00747a4e      f2276400       fmove.s fp0, -(a7)
           0x00747a52      f23c4000ffff.  fmove.l 0xfffffe70, fp0
           0x00747a5a      f2276400       fmove.s fp0, -(a7)
           0x00747a5e      f23c40000000.  fmove.l 0x190, fp0
           0x00747a66      f2276400       fmove.s fp0, -(a7)
           0x00747a6a      3f3cfffd       move.w 0xfffd, -(a7)
           0x00747a6e      4267           clr.w -(a7)
           0x00747a70      4eb90048d4ae   jsr MENU2COM.make_numeric_bo
           0x00747a76      defc000a       adda.w 0xa, a7
           0x00747a7a      2eb90073e03b   move.l 0x73e03b, (a7)
           0x00747a80      3f790073e03f.  move.w 0x73e03f, 0x4(a7)
           0x00747a88      1f790073e041.  move.b 0x73e041, 0x6(a7)
           0x00747a90      487900869ab4   pea.l 0x869ab4
           0x00747a96      3f3c0014       move.w 0x14, -(a7)
           0x00747a9a      3f3c0004       move.w 0x4, -(a7)
           0x00747a9e      3f3c0006       move.w 0x6, -(a7)
           0x00747aa2      3f02           move.w d2, -(a7)
           0x00747aa4      1f3c0008       move.b 0x8, -(a7)
           0x00747aa8      1f03           move.b d3, -(a7)
           0x00747aaa      3f3900869aaa   move.w 0x869aaa, -(a7)
           0x00747ab0      3f3900869ab0   move.w 0x869ab0, -(a7)
           0x00747ab6      2f390073db8a   move.l 0x73db8a, -(a7)
           0x00747abc      486f0018       pea.l 0x18(a7)
           0x00747ac0      4853           pea.l (a3)
           0x00747ac2      48780007       pea.l 0x7
           0x00747ac6      486d0010       pea.l 0x10(a5)
           0x00747aca      487aa012       pea.l MENUEFFECTCOM.hit_colour(pc)
           0x00747ace      4eb900487aa6   jsr MENUCOM.new_box
           0x00747ad4      defc0032       adda.w 0x32, a7
           0x00747ad8      3eb900869ab4   move.w 0x869ab4, (a7)
           0x00747ade      f23c40000000.  fmove.l 0x64, fp0
           0x00747ae6      f2276400       fmove.s fp0, -(a7)
           0x00747aea      f23c4000ffff.  fmove.l 0xfffffe70, fp0
           0x00747af2      f2276400       fmove.s fp0, -(a7)
           0x00747af6      f23c40000000.  fmove.l 0x190, fp0
           0x00747afe      f2276400       fmove.s fp0, -(a7)
           0x00747b02      3f3cfffd       move.w 0xfffd, -(a7)
           0x00747b06      4267           clr.w -(a7)
           0x00747b08      4eb90048d4ae   jsr MENU2COM.make_numeric_bo
           0x00747b0e      defc000e       adda.w 0xe, a7
           0x00747b12      2eb90073e045   move.l 0x73e045, (a7)
           0x00747b18      3f390073e043   move.w 0x73e043, -(a7)
           0x00747b1e      487900869ab6   pea.l 0x869ab6
           0x00747b24      3f3c0014       move.w 0x14, -(a7)
           0x00747b28      3f3c0005       move.w 0x5, -(a7)
           0x00747b2c      3f3c0006       move.w 0x6, -(a7)
           0x00747b30      3f02           move.w d2, -(a7)
           0x00747b32      1f3c0008       move.b 0x8, -(a7)
           0x00747b36      1f03           move.b d3, -(a7)
           0x00747b38      3f3900869aaa   move.w 0x869aaa, -(a7)
           0x00747b3e      3f3900869ab4   move.w 0x869ab4, -(a7)
           0x00747b44      2f390073db8a   move.l 0x73db8a, -(a7)
           0x00747b4a      486f0018       pea.l 0x18(a7)
           0x00747b4e      4853           pea.l (a3)
           0x00747b50      48780006       pea.l 0x6
           0x00747b54      486d0010       pea.l 0x10(a5)
           0x00747b58      487a9f84       pea.l MENUEFFECTCOM.hit_colour(pc)
           0x00747b5c      4eb900487aa6   jsr MENUCOM.new_box
           0x00747b62      defc0030       adda.w 0x30, a7
           0x00747b66      3eb900869ab6   move.w 0x869ab6, (a7)
           0x00747b6c      f23c40000000.  fmove.l 0x0, fp0
           0x00747b74      f2276400       fmove.s fp0, -(a7)
           0x00747b78      f23c4000ffff.  fmove.l 0xfffffe98, fp0
           0x00747b80      f2276400       fmove.s fp0, -(a7)
           0x00747b84      f23c40000000.  fmove.l 0x168, fp0
           0x00747b8c      f2276400       fmove.s fp0, -(a7)
           0x00747b90      3f3cfffd       move.w 0xfffd, -(a7)
           0x00747b94      4267           clr.w -(a7)
           0x00747b96      4eb90048d4ae   jsr MENU2COM.make_numeric_bo
           0x00747b9c      defc000c       adda.w 0xc, a7
           0x00747ba0      2eb90073e04a   move.l 0x73e04a, (a7)
           0x00747ba6      1f790073e04e.  move.b 0x73e04e, 0x4(a7)
           0x00747bae      487900869aae   pea.l 0x869aae
           0x00747bb4      3f3c000e       move.w 0xe, -(a7)
           0x00747bb8      3f04           move.w d4, -(a7)
           0x00747bba      3f04           move.w d4, -(a7)
           0x00747bbc      3f02           move.w d2, -(a7)
           0x00747bbe      1f02           move.b d2, -(a7)
           0x00747bc0      4227           clr.b -(a7)
           0x00747bc2      3f3900869aa6   move.w 0x869aa6, -(a7)
           0x00747bc8      3f3900869aaa   move.w 0x869aaa, -(a7)
           0x00747bce      2f390073db8a   move.l 0x73db8a, -(a7)
           0x00747bd4      486f0018       pea.l 0x18(a7)
           0x00747bd8      4853           pea.l (a3)
           0x00747bda      48780005       pea.l 0x5
           0x00747bde      486d0010       pea.l 0x10(a5)
           0x00747be2      487a9efa       pea.l MENUEFFECTCOM.hit_colour(pc)
           0x00747be6      4eb900487aa6   jsr MENUCOM.new_box
           0x00747bec      defc002e       adda.w 0x2e, a7
           0x00747bf0      2eb90073e052   move.l 0x73e052, (a7)
           0x00747bf6      3f390073e050   move.w 0x73e050, -(a7)
           0x00747bfc      487900869abe   pea.l 0x869abe
           0x00747c02      3f3c0014       move.w 0x14, -(a7)
           0x00747c06      3f03           move.w d3, -(a7)
           0x00747c08      3f3c0005       move.w 0x5, -(a7)
           0x00747c0c      3f02           move.w d2, -(a7)
           0x00747c0e      1f3c0008       move.b 0x8, -(a7)
           0x00747c12      1f03           move.b d3, -(a7)
           0x00747c14      3f3900869aae   move.w 0x869aae, -(a7)
           0x00747c1a      4267           clr.w -(a7)
           0x00747c1c      2f390073db8a   move.l 0x73db8a, -(a7)
           0x00747c22      486f0018       pea.l 0x18(a7)
           0x00747c26      4853           pea.l (a3)
           0x00747c28      48780006       pea.l 0x6
           0x00747c2c      486d0010       pea.l 0x10(a5)
           0x00747c30      487a9eac       pea.l MENUEFFECTCOM.hit_colour(pc)
           0x00747c34      4eb900487aa6   jsr MENUCOM.new_box
           0x00747c3a      defc0030       adda.w 0x30, a7
           0x00747c3e      3eb900869abe   move.w 0x869abe, (a7)
           0x00747c44      f23c40000000.  fmove.l 0x0, fp0
           0x00747c4c      f2276400       fmove.s fp0, -(a7)
           0x00747c50      f23c4000ffff.  fmove.l 0xffffff9c, fp0
           0x00747c58      f2276400       fmove.s fp0, -(a7)
           0x00747c5c      f23c40000000.  fmove.l 0x64, fp0
           0x00747c64      f2276400       fmove.s fp0, -(a7)
           0x00747c68      3f3cfffd       move.w 0xfffd, -(a7)
           0x00747c6c      4267           clr.w -(a7)
           0x00747c6e      4eb90048d4ae   jsr MENU2COM.make_numeric_bo
           0x00747c74      defc000e       adda.w 0xe, a7
           0x00747c78      2eb90073e059   move.l 0x73e059, (a7)
           0x00747c7e      3f390073e057   move.w 0x73e057, -(a7)
           0x00747c84      487900869ac0   pea.l 0x869ac0
           0x00747c8a      3f3c0014       move.w 0x14, -(a7)
           0x00747c8e      3f04           move.w d4, -(a7)
           0x00747c90      3f3c0005       move.w 0x5, -(a7)
           0x00747c94      3f02           move.w d2, -(a7)
           0x00747c96      1f3c0008       move.b 0x8, -(a7)
           0x00747c9a      1f03           move.b d3, -(a7)
           0x00747c9c      3f3900869aae   move.w 0x869aae, -(a7)
           0x00747ca2      3f3900869abe   move.w 0x869abe, -(a7)
           0x00747ca8      2f390073db8a   move.l 0x73db8a, -(a7)
           0x00747cae      486f0018       pea.l 0x18(a7)
           0x00747cb2      4853           pea.l (a3)
           0x00747cb4      48780006       pea.l 0x6
           0x00747cb8      486d0010       pea.l 0x10(a5)
           0x00747cbc      487a9e20       pea.l MENUEFFECTCOM.hit_colour(pc)
           0x00747cc0      4eb900487aa6   jsr MENUCOM.new_box
           0x00747cc6      defc0030       adda.w 0x30, a7
           0x00747cca      3eb900869ac0   move.w 0x869ac0, (a7)
           0x00747cd0      f23c40000000.  fmove.l 0x0, fp0
           0x00747cd8      f2276400       fmove.s fp0, -(a7)
           0x00747cdc      f23c4000ffff.  fmove.l 0xffffff9c, fp0
           0x00747ce4      f2276400       fmove.s fp0, -(a7)
           0x00747ce8      f23c40000000.  fmove.l 0x64, fp0
           0x00747cf0      f2276400       fmove.s fp0, -(a7)
           0x00747cf4      3f3cfffd       move.w 0xfffd, -(a7)
           0x00747cf8      4267           clr.w -(a7)
           0x00747cfa      4eb90048d4ae   jsr MENU2COM.make_numeric_bo
           0x00747d00      defc000e       adda.w 0xe, a7
           0x00747d04      2eb90073e060   move.l 0x73e060, (a7)
           0x00747d0a      3f390073e05e   move.w 0x73e05e, -(a7)
           0x00747d10      487900869ac2   pea.l 0x869ac2
           0x00747d16      3f3c0014       move.w 0x14, -(a7)
           0x00747d1a      3f3c0004       move.w 0x4, -(a7)
           0x00747d1e      3f3c0005       move.w 0x5, -(a7)
           0x00747d22      3f02           move.w d2, -(a7)
           0x00747d24      1f3c0008       move.b 0x8, -(a7)
           0x00747d28      1f03           move.b d3, -(a7)
           0x00747d2a      3f3900869aae   move.w 0x869aae, -(a7)
           0x00747d30      3f3900869ac0   move.w 0x869ac0, -(a7)
           0x00747d36      2f390073db8a   move.l 0x73db8a, -(a7)
           0x00747d3c      486f0018       pea.l 0x18(a7)
           0x00747d40      4853           pea.l (a3)
           0x00747d42      48780006       pea.l 0x6
           0x00747d46      486d0010       pea.l 0x10(a5)
           0x00747d4a      487a9d92       pea.l MENUEFFECTCOM.hit_colour(pc)
           0x00747d4e      4eb900487aa6   jsr MENUCOM.new_box
           0x00747d54      defc0030       adda.w 0x30, a7
           0x00747d58      3eb900869ac2   move.w 0x869ac2, (a7)
           0x00747d5e      f23c40000000.  fmove.l 0x0, fp0
           0x00747d66      f2276400       fmove.s fp0, -(a7)
           0x00747d6a      f23c4000ffff.  fmove.l 0xffffff9c, fp0
           0x00747d72      f2276400       fmove.s fp0, -(a7)
           0x00747d76      f23c40000000.  fmove.l 0x64, fp0
           0x00747d7e      f2276400       fmove.s fp0, -(a7)
           0x00747d82      3f3cfffd       move.w 0xfffd, -(a7)
           0x00747d86      4267           clr.w -(a7)
           0x00747d88      4eb90048d4ae   jsr MENU2COM.make_numeric_bo
           0x00747d8e      defc000e       adda.w 0xe, a7
           0x00747d92      2eb90073e065   move.l 0x73e065, (a7)
           0x00747d98      487900869aac   pea.l 0x869aac
           0x00747d9e      3f3c0011       move.w 0x11, -(a7)
           0x00747da2      3f04           move.w d4, -(a7)
           0x00747da4      3f04           move.w d4, -(a7)
           0x00747da6      3f02           move.w d2, -(a7)
           0x00747da8      1f02           move.b d2, -(a7)
           0x00747daa      4227           clr.b -(a7)
           0x00747dac      3f3900869aa6   move.w 0x869aa6, -(a7)
           0x00747db2      3f3900869aaa   move.w 0x869aaa, -(a7)
           0x00747db8      2f390073db8a   move.l 0x73db8a, -(a7)
           0x00747dbe      486f0018       pea.l 0x18(a7)
           0x00747dc2      4853           pea.l (a3)
           0x00747dc4      48780004       pea.l 0x4
           0x00747dc8      486d0010       pea.l 0x10(a5)
           0x00747dcc      487a9d10       pea.l MENUEFFECTCOM.hit_colour(pc)
           0x00747dd0      4eb900487aa6   jsr MENUCOM.new_box
           0x00747dd6      defc002c       adda.w 0x2c, a7
           0x00747dda      2eb90073e06c   move.l 0x73e06c, (a7)
           0x00747de0      3f390073e06a   move.w 0x73e06a, -(a7)
           0x00747de6      487900869ab8   pea.l 0x869ab8
           0x00747dec      3f3c0014       move.w 0x14, -(a7)
           0x00747df0      3f03           move.w d3, -(a7)
           0x00747df2      3f3c0005       move.w 0x5, -(a7)
           0x00747df6      3f02           move.w d2, -(a7)
           0x00747df8      1f3c0008       move.b 0x8, -(a7)
           0x00747dfc      1f03           move.b d3, -(a7)
           0x00747dfe      3f3900869aac   move.w 0x869aac, -(a7)
           0x00747e04      4267           clr.w -(a7)
           0x00747e06      2f390073db8a   move.l 0x73db8a, -(a7)
           0x00747e0c      486f0018       pea.l 0x18(a7)
           0x00747e10      4853           pea.l (a3)
           0x00747e12      48780006       pea.l 0x6
           0x00747e16      486d0010       pea.l 0x10(a5)
           0x00747e1a      487a9cc2       pea.l MENUEFFECTCOM.hit_colour(pc)
           0x00747e1e      4eb900487aa6   jsr MENUCOM.new_box
           0x00747e24      defc0030       adda.w 0x30, a7
           0x00747e28      3eb900869ab8   move.w 0x869ab8, (a7)
           0x00747e2e      f23c40000000.  fmove.l 0x64, fp0
           0x00747e36      f2276400       fmove.s fp0, -(a7)
           0x00747e3a      f23c40000000.  fmove.l 0x0, fp0
           0x00747e42      f2276400       fmove.s fp0, -(a7)
           0x00747e46      f23c40000000.  fmove.l 0x190, fp0
           0x00747e4e      f2276400       fmove.s fp0, -(a7)
           0x00747e52      3f3cfffd       move.w 0xfffd, -(a7)
           0x00747e56      4267           clr.w -(a7)
           0x00747e58      4eb90048d4ae   jsr MENU2COM.make_numeric_bo
           0x00747e5e      defc000e       adda.w 0xe, a7
           0x00747e62      2eb90073e073   move.l 0x73e073, (a7)
           0x00747e68      3f390073e071   move.w 0x73e071, -(a7)
           0x00747e6e      487900869aba   pea.l 0x869aba
           0x00747e74      3f3c0014       move.w 0x14, -(a7)
           0x00747e78      3f04           move.w d4, -(a7)
           0x00747e7a      3f3c0005       move.w 0x5, -(a7)
           0x00747e7e      3f02           move.w d2, -(a7)
           0x00747e80      1f3c0008       move.b 0x8, -(a7)
           0x00747e84      1f03           move.b d3, -(a7)
           0x00747e86      3f3900869aac   move.w 0x869aac, -(a7)
           0x00747e8c      3f3900869ab8   move.w 0x869ab8, -(a7)
           0x00747e92      2f390073db8a   move.l 0x73db8a, -(a7)
           0x00747e98      486f0018       pea.l 0x18(a7)
           0x00747e9c      4853           pea.l (a3)
           0x00747e9e      48780006       pea.l 0x6
           0x00747ea2      486d0010       pea.l 0x10(a5)
           0x00747ea6      487a9c36       pea.l MENUEFFECTCOM.hit_colour(pc)
           0x00747eaa      4eb900487aa6   jsr MENUCOM.new_box
           0x00747eb0      defc0030       adda.w 0x30, a7
           0x00747eb4      3eb900869aba   move.w 0x869aba, (a7)
           0x00747eba      f23c40000000.  fmove.l 0x64, fp0
           0x00747ec2      f2276400       fmove.s fp0, -(a7)
           0x00747ec6      f23c40000000.  fmove.l 0x0, fp0
           0x00747ece      f2276400       fmove.s fp0, -(a7)
           0x00747ed2      f23c40000000.  fmove.l 0x190, fp0
           0x00747eda      f2276400       fmove.s fp0, -(a7)
           0x00747ede      3f3cfffd       move.w 0xfffd, -(a7)
           0x00747ee2      4267           clr.w -(a7)
           0x00747ee4      4eb90048d4ae   jsr MENU2COM.make_numeric_bo
           0x00747eea      defc000e       adda.w 0xe, a7
           0x00747eee      2eb90073e07a   move.l 0x73e07a, (a7)
           0x00747ef4      3f390073e078   move.w 0x73e078, -(a7)
           0x00747efa      487900869abc   pea.l 0x869abc
           0x00747f00      3f3c0014       move.w 0x14, -(a7)
           0x00747f04      3f3c0004       move.w 0x4, -(a7)
           0x00747f08      3f3c0005       move.w 0x5, -(a7)
           0x00747f0c      3f02           move.w d2, -(a7)
           0x00747f0e      1f3c0008       move.b 0x8, -(a7)
           0x00747f12      1f03           move.b d3, -(a7)
           0x00747f14      3f3900869aac   move.w 0x869aac, -(a7)
           0x00747f1a      3f3900869aba   move.w 0x869aba, -(a7)
           0x00747f20      2f390073db8a   move.l 0x73db8a, -(a7)
           0x00747f26      486f0018       pea.l 0x18(a7)
           0x00747f2a      4853           pea.l (a3)
           0x00747f2c      48780006       pea.l 0x6
           0x00747f30      486d0010       pea.l 0x10(a5)
           0x00747f34      487a9ba8       pea.l MENUEFFECTCOM.hit_colour(pc)
           0x00747f38      4eb900487aa6   jsr MENUCOM.new_box
           0x00747f3e      defc0030       adda.w 0x30, a7
           0x00747f42      3eb900869abc   move.w 0x869abc, (a7)
           0x00747f48      f23c40000000.  fmove.l 0x64, fp0
           0x00747f50      f2276400       fmove.s fp0, -(a7)
           0x00747f54      f23c40000000.  fmove.l 0x0, fp0
           0x00747f5c      f2276400       fmove.s fp0, -(a7)
           0x00747f60      f23c40000000.  fmove.l 0x190, fp0
           0x00747f68      f2276400       fmove.s fp0, -(a7)
           0x00747f6c      3f3cfffd       move.w 0xfffd, -(a7)
           0x00747f70      4267           clr.w -(a7)
           0x00747f72      4eb90048d4ae   jsr MENU2COM.make_numeric_bo
           0x00747f78      defc000e       adda.w 0xe, a7
           0x00747f7c      3eb90073e07f   move.w 0x73e07f, (a7)
           0x00747f82      1f790073e081.  move.b 0x73e081, 0x2(a7)
           0x00747f8a      487900869acc   pea.l 0x869acc
           0x00747f90      3f3c000e       move.w 0xe, -(a7)
           0x00747f94      3f3c0004       move.w 0x4, -(a7)
           0x00747f98      3f04           move.w d4, -(a7)
           0x00747f9a      3f02           move.w d2, -(a7)
           0x00747f9c      1f02           move.b d2, -(a7)
           0x00747f9e      4227           clr.b -(a7)
           0x00747fa0      3f3900869aa6   move.w 0x869aa6, -(a7)
           0x00747fa6      3f3900869aaa   move.w 0x869aaa, -(a7)
           0x00747fac      2f390073db8a   move.l 0x73db8a, -(a7)
           0x00747fb2      486f0018       pea.l 0x18(a7)
           0x00747fb6      4853           pea.l (a3)
           0x00747fb8      48780003       pea.l 0x3
           0x00747fbc      486d0010       pea.l 0x10(a5)
           0x00747fc0      487a9b1c       pea.l MENUEFFECTCOM.hit_colour(pc)
           0x00747fc4      4eb900487aa6   jsr MENUCOM.new_box
           0x00747fca      defc0024       adda.w 0x24, a7
           0x00747fce      2eb90073e083   move.l 0x73e083, (a7)
           0x00747fd4      2f790073e087.  move.l 0x73e087, 0x4(a7)
           0x00747fdc      3f790073e08b.  move.w 0x73e08b, 0x8(a7)
           0x00747fe4      1f790073e08d.  move.b 0x73e08d, 0xa(a7)
           0x00747fec      487900869ac8   pea.l 0x869ac8
           0x00747ff2      3f3c0011       move.w 0x11, -(a7)
           0x00747ff6      3f3c0004       move.w 0x4, -(a7)
           0x00747ffa      3f04           move.w d4, -(a7)
           0x00747ffc      3f02           move.w d2, -(a7)
           0x00747ffe      1f02           move.b d2, -(a7)
           0x00748000      4227           clr.b -(a7)
           0x00748002      3f3900869aa6   move.w 0x869aa6, -(a7)
           0x00748008      3f3900869aaa   move.w 0x869aaa, -(a7)
           0x0074800e      2f390073db8a   move.l 0x73db8a, -(a7)
           0x00748014      486f0018       pea.l 0x18(a7)
           0x00748018      4853           pea.l (a3)
           0x0074801a      4878000b       pea.l 0xb
           0x0074801e      486d0010       pea.l 0x10(a5)
           0x00748022      487a9aba       pea.l MENUEFFECTCOM.hit_colour(pc)
           0x00748026      4eb900487aa6   jsr MENUCOM.new_box
           0x0074802c      defc0036       adda.w 0x36, a7
           0x00748030      3eb90073e08f   move.w 0x73e08f, (a7)
           0x00748036      487900869aca   pea.l 0x869aca
           0x0074803c      3f3c0014       move.w 0x14, -(a7)
           0x00748040      3f3c0004       move.w 0x4, -(a7)
           0x00748044      3f3c0004       move.w 0x4, -(a7)
           0x00748048      3f02           move.w d2, -(a7)
           0x0074804a      1f3c0008       move.b 0x8, -(a7)
           0x0074804e      1f03           move.b d3, -(a7)
           0x00748050      3f3900869ac8   move.w 0x869ac8, -(a7)
           0x00748056      4267           clr.w -(a7)
           0x00748058      2f390073db8a   move.l 0x73db8a, -(a7)
           0x0074805e      486f0018       pea.l 0x18(a7)
           0x00748062      4853           pea.l (a3)
           0x00748064      48780002       pea.l 0x2
           0x00748068      486d0010       pea.l 0x10(a5)
           0x0074806c      487a9a70       pea.l MENUEFFECTCOM.hit_colour(pc)
           0x00748070      4eb900487aa6   jsr MENUCOM.new_box
           0x00748076      defc002c       adda.w 0x2c, a7
           0x0074807a      3eb900869aca   move.w 0x869aca, (a7)
           0x00748080      9efc00fc       suba.w 0xfc, a7
           0x00748084      2f390073e091   move.l 0x73e091, -(a7)
           0x0074808a      2f790073e095.  move.l 0x73e095, 0x4(a7)
           0x00748092      2f790073e099.  move.l 0x73e099, 0x8(a7)
           0x0074809a      1f790073e09d.  move.b 0x73e09d, 0xc(a7)
           0x007480a2      4eb90048442e   jsr MENUCOM.set_box_macro_n
           0x007480a8      defc0100       adda.w 0x100, a7
           0x007480ac      3eb900869aca   move.w 0x869aca, (a7)
           0x007480b2      f2024000       fmove.l d2, fp0
           0x007480b6      f2276400       fmove.s fp0, -(a7)
           0x007480ba      f2024000       fmove.l d2, fp0
           0x007480be      f2276400       fmove.s fp0, -(a7)
           0x007480c2      f23c40000000.  fmove.l 0xdb, fp0
           0x007480ca      f2276400       fmove.s fp0, -(a7)
           0x007480ce      3f3cfffd       move.w 0xfffd, -(a7)
           0x007480d2      3f03           move.w d3, -(a7)
           0x007480d4      4eb90048d4ae   jsr MENU2COM.make_numeric_bo
           0x007480da      defc000e       adda.w 0xe, a7
           0x007480de      2eb90073e09f   move.l 0x73e09f, (a7)
           0x007480e4      487900869ac4   pea.l 0x869ac4
           0x007480ea      3f3c000e       move.w 0xe, -(a7)
           0x007480ee      3f3c0005       move.w 0x5, -(a7)
           0x007480f2      3f04           move.w d4, -(a7)
           0x007480f4      3f02           move.w d2, -(a7)
           0x007480f6      1f3c0004       move.b 0x4, -(a7)
           0x007480fa      4227           clr.b -(a7)
           0x007480fc      3f3900869aa6   move.w 0x869aa6, -(a7)
           0x00748102      4267           clr.w -(a7)
           0x00748104      2f390073db8a   move.l 0x73db8a, -(a7)
           0x0074810a      486f0018       pea.l 0x18(a7)
           0x0074810e      4853           pea.l (a3)
           0x00748110      48780004       pea.l 0x4
           0x00748114      486d0010       pea.l 0x10(a5)
           0x00748118      487a99c4       pea.l MENUEFFECTCOM.hit_colour(pc)
           0x0074811c      4eb900487aa6   jsr MENUCOM.new_box
           0x00748122      defc002c       adda.w 0x2c, a7
           0x00748126      3eb90073e0a4   move.w 0x73e0a4, (a7)
           0x0074812c      1f790073e0a6.  move.b 0x73e0a6, 0x2(a7)
           0x00748134      487900869ac6   pea.l 0x869ac6
           0x0074813a      3f3c0011       move.w 0x11, -(a7)
           0x0074813e      3f3c0005       move.w 0x5, -(a7)
           0x00748142      3f04           move.w d4, -(a7)
           0x00748144      3f02           move.w d2, -(a7)
           0x00748146      1f3c0005       move.b 0x5, -(a7)
           0x0074814a      4227           clr.b -(a7)
           0x0074814c      3f3900869aa6   move.w 0x869aa6, -(a7)
           0x00748152      4267           clr.w -(a7)
           0x00748154      2f390073db8a   move.l 0x73db8a, -(a7)
           0x0074815a      486f0018       pea.l 0x18(a7)
           0x0074815e      4853           pea.l (a3)
           0x00748160      48780003       pea.l 0x3
           0x00748164      486d0010       pea.l 0x10(a5)
           0x00748168      487a9974       pea.l MENUEFFECTCOM.hit_colour(pc)
           0x0074816c      4eb900487aa6   jsr MENUCOM.new_box
           0x00748172      defc002c       adda.w 0x2c, a7
           0x00748176      4217           clr.b (a7)
           0x00748178      4eb900474c8e   jsr CONFIG.cfg_pbx_options
           0x0074817e      544f           addq.w 0x2, a7
           0x00748180      4a1f           tst.b (a7)+
       < 0x00748182      67000088       beq.w 0x74820c
          0x00748186      554f           subq.w 0x2, a7
          0x00748188      1f04           move.b d4, -(a7)
          0x0074818a      4eb900474c8e   jsr CONFIG.cfg_pbx_options
          0x00748190      544f           addq.w 0x2, a7
          0x00748192      4a1f           tst.b (a7)+
      < 0x00748194      6776           beq.b 0x74820c
         0x00748196      9efc000a       suba.w 0xa, a7
         0x0074819a      2f390073e0e3   move.l 0x73e0e3, -(a7)
         0x007481a0      2f790073e0e7.  move.l 0x73e0e7, 0x4(a7)
         0x007481a8      2f790073e0eb.  move.l 0x73e0eb, 0x8(a7)
         0x007481b0      1f790073e0ef.  move.b 0x73e0ef, 0xc(a7)
         0x007481b8      48790086943c   pea.l 0x86943c
         0x007481be      3f3c0007       move.w 0x7, -(a7)
         0x007481c2      3f3c0006       move.w 0x6, -(a7)
         0x007481c6      3f3c0006       move.w 0x6, -(a7)
         0x007481ca      3f02           move.w d2, -(a7)
         0x007481cc      1f03           move.b d3, -(a7)
         0x007481ce      4227           clr.b -(a7)
         0x007481d0      3f3c0004       move.w 0x4, -(a7)
         0x007481d4      3f390086942a   move.w 0x86942a, -(a7)
         0x007481da      2f390073db8a   move.l 0x73db8a, -(a7)
         0x007481e0      486f0018       pea.l 0x18(a7)
         0x007481e4      4853           pea.l (a3)
         0x007481e6      4878000d       pea.l 0xd
         0x007481ea      486d0010       pea.l 0x10(a5)
         0x007481ee      48790074bc48   pea.l MENUFETTLECOM.hit_fettle
         0x007481f4      4eb900487aa6   jsr MENUCOM.new_box
         0x007481fa      defc0038       adda.w 0x38, a7
         0x007481fe      3eb90086943c   move.w 0x86943c, (a7)
         0x00748204      4eb90074c100   jsr MENUFETTLECOM.menu_fettle_ini
         0x0074820a      544f           addq.w 0x2, a7
      > 0x0074820c      3c390086942a   move.w 0x86942a, d6
        > 0x00748212      4a7900869446   tst.w 0x869446
        < 0x00748218      664c           bne.b 0x748266
           0x0074821a      2f390073e0f3   move.l 0x73e0f3, -(a7)
           0x00748220      3f390073e0f1   move.w 0x73e0f1, -(a7)
           0x00748226      487900869446   pea.l 0x869446
           0x0074822c      3f3c0007       move.w 0x7, -(a7)
           0x00748230      3f3c0004       move.w 0x4, -(a7)
           0x00748234      3f3c0006       move.w 0x6, -(a7)
           0x00748238      3f02           move.w d2, -(a7)
           0x0074823a      1f03           move.b d3, -(a7)
           0x0074823c      4227           clr.b -(a7)
           0x0074823e      3f3c0004       move.w 0x4, -(a7)
           0x00748242      3f06           move.w d6, -(a7)
           0x00748244      2f390073db8a   move.l 0x73db8a, -(a7)
           0x0074824a      486f0018       pea.l 0x18(a7)
           0x0074824e      4853           pea.l (a3)
           0x00748250      48780006       pea.l 0x6
           0x00748254      486d0010       pea.l 0x10(a5)
           0x00748258      487ad3de       pea.l MENUEFFECTCOM.hit_submenu(pc)
           0x0074825c      4eb900487aa6   jsr MENUCOM.new_box
           0x00748262      defc0032       adda.w 0x32, a7
        > 0x00748266      3f3900869446   move.w 0x869446, -(a7)
            0x0074826c      3f3900869426   move.w 0x869426, -(a7)
            0x00748272      4eb900486f94   jsr MENUCOM.add_slave
            0x00748278      544f           addq.w 0x2, a7
            0x0074827a      3eb900869446   move.w 0x869446, (a7)
            0x00748280      3f3900869428   move.w 0x869428, -(a7)
            0x00748286      4eb900486f94   jsr MENUCOM.add_slave
            0x0074828c      2eb90073e0fa   move.l 0x73e0fa, (a7)
            0x00748292      3f390073e0f8   move.w 0x73e0f8, -(a7)
            0x00748298      487900869448   pea.l 0x869448
            0x0074829e      3f3c000e       move.w 0xe, -(a7)
            0x007482a2      3f3c0004       move.w 0x4, -(a7)
            0x007482a6      3f04           move.w d4, -(a7)
            0x007482a8      3f02           move.w d2, -(a7)
            0x007482aa      1f3c0008       move.b 0x8, -(a7)
            0x007482ae      1f03           move.b d3, -(a7)
            0x007482b0      3f3900869446   move.w 0x869446, -(a7)
            0x007482b6      4267           clr.w -(a7)
            0x007482b8      2f390073db8a   move.l 0x73db8a, -(a7)
            0x007482be      486f0018       pea.l 0x18(a7)
            0x007482c2      4853           pea.l (a3)
            0x007482c4      48780006       pea.l 0x6
            0x007482c8      486d0010       pea.l 0x10(a5)
            0x007482cc      487900481fee   pea.l MENUCOM.hit_nothing
            0x007482d2      4eb900487aa6   jsr MENUCOM.new_box
            0x007482d8      defc0030       adda.w 0x30, a7
            0x007482dc      3eb900869448   move.w 0x869448, (a7)
            0x007482e2      f23c40000000.  fmove.l 0xa, fp0
            0x007482ea      f2276400       fmove.s fp0, -(a7)
            0x007482ee      f2024000       fmove.l d2, fp0
            0x007482f2      f2276400       fmove.s fp0, -(a7)
            0x007482f6      f23c40000000.  fmove.l 0x240, fp0
            0x007482fe      f2276400       fmove.s fp0, -(a7)
            0x00748302      4267           clr.w -(a7)
            0x00748304      4267           clr.w -(a7)
            0x00748306      4eb90048d4ae   jsr MENU2COM.make_numeric_bo
            0x0074830c      defc000e       adda.w 0xe, a7
            0x00748310      2eb90073e101   move.l 0x73e101, (a7)
            0x00748316      3f390073e0ff   move.w 0x73e0ff, -(a7)
            0x0074831c      48790086944a   pea.l 0x86944a
            0x00748322      3f3c0011       move.w 0x11, -(a7)
            0x00748326      3f3c0004       move.w 0x4, -(a7)
            0x0074832a      3f04           move.w d4, -(a7)
            0x0074832c      3f02           move.w d2, -(a7)
            0x0074832e      1f3c0008       move.b 0x8, -(a7)
            0x00748332      1f03           move.b d3, -(a7)
            0x00748334      3f3900869446   move.w 0x869446, -(a7)
            0x0074833a      3f3900869448   move.w 0x869448, -(a7)
            0x00748340      2f390073db8a   move.l 0x73db8a, -(a7)
            0x00748346      486f0018       pea.l 0x18(a7)
            0x0074834a      4853           pea.l (a3)
            0x0074834c      48780006       pea.l 0x6
            0x00748350      486d0010       pea.l 0x10(a5)
            0x00748354      487900481fee   pea.l MENUCOM.hit_nothing
            0x0074835a      4eb900487aa6   jsr MENUCOM.new_box
            0x00748360      defc0030       adda.w 0x30, a7
            0x00748364      3eb90086944a   move.w 0x86944a, (a7)
            0x0074836a      f23c40000000.  fmove.l 0x9, fp0
            0x00748372      f2276400       fmove.s fp0, -(a7)
            0x00748376      f2024000       fmove.l d2, fp0
            0x0074837a      f2276400       fmove.s fp0, -(a7)
            0x0074837e      f23c40000000.  fmove.l 0x2d0, fp0
            0x00748386      f2276400       fmove.s fp0, -(a7)
            0x0074838a      4267           clr.w -(a7)
            0x0074838c      4267           clr.w -(a7)
            0x0074838e      4eb90048d4ae   jsr MENU2COM.make_numeric_bo
            0x00748394      defc000e       adda.w 0xe, a7
            0x00748398      2eb90073e10c   move.l 0x73e10c, (a7)
            0x0074839e      2f390073e108   move.l 0x73e108, -(a7)
            0x007483a4      3f390073e106   move.w 0x73e106, -(a7)
            0x007483aa      487900869440   pea.l 0x869440
            0x007483b0      3f3c0007       move.w 0x7, -(a7)
            0x007483b4      3f2efee4       move.w -0x11c(a6), -(a7)
            0x007483b8      3f3c0006       move.w 0x6, -(a7)
            0x007483bc      3f02           move.w d2, -(a7)
            0x007483be      1f03           move.b d3, -(a7)
            0x007483c0      4227           clr.b -(a7)
            0x007483c2      3f3c0004       move.w 0x4, -(a7)
            0x007483c6      3f06           move.w d6, -(a7)
            0x007483c8      2f390073db8a   move.l 0x73db8a, -(a7)
            0x007483ce      486f0018       pea.l 0x18(a7)
            0x007483d2      4853           pea.l (a3)
            0x007483d4      4878000a       pea.l 0xa
            0x007483d8      486d0010       pea.l 0x10(a5)
            0x007483dc      487ad25a       pea.l MENUEFFECTCOM.hit_submenu(pc)
            0x007483e0      4eb900487aa6   jsr MENUCOM.new_box
            0x007483e6      defc0034       adda.w 0x34, a7
            0x007483ea      3eb90073e115   move.w 0x73e115, (a7)
            0x007483f0      487900869442   pea.l 0x869442
            0x007483f6      3f3c000e       move.w 0xe, -(a7)
            0x007483fa      3f2efee4       move.w -0x11c(a6), -(a7)
            0x007483fe      3f03           move.w d3, -(a7)
            0x00748400      3f02           move.w d2, -(a7)
            0x00748402      1f02           move.b d2, -(a7)
            0x00748404      4227           clr.b -(a7)
            0x00748406      3f3900869440   move.w 0x869440, -(a7)
            0x0074840c      4267           clr.w -(a7)
            0x0074840e      2f390073e110   move.l 0x73e110, -(a7)
            0x00748414      486f0018       pea.l 0x18(a7)
            0x00748418      4853           pea.l (a3)
            0x0074841a      48780002       pea.l 0x2
            0x0074841e      486d0010       pea.l 0x10(a5)
            0x00748422      487900481fee   pea.l MENUCOM.hit_nothing
            0x00748428      4eb900487aa6   jsr MENUCOM.new_box
            0x0074842e      defc002c       adda.w 0x2c, a7
            0x00748432      3eb90073e118   move.w 0x73e118, (a7)
            0x00748438      487900869444   pea.l 0x869444
            0x0074843e      3f3c0010       move.w 0x10, -(a7)
            0x00748442      3f2efee4       move.w -0x11c(a6), -(a7)
            0x00748446      3f03           move.w d3, -(a7)
            0x00748448      3f02           move.w d2, -(a7)
            0x0074844a      1f02           move.b d2, -(a7)
            0x0074844c      4227           clr.b -(a7)
            0x0074844e      3f3900869440   move.w 0x869440, -(a7)
            0x00748454      3f3900869442   move.w 0x869442, -(a7)
            0x0074845a      2f390073db8a   move.l 0x73db8a, -(a7)
            0x00748460      486f0018       pea.l 0x18(a7)
            0x00748464      4853           pea.l (a3)
            0x00748466      48780002       pea.l 0x2
            0x0074846a      486d0010       pea.l 0x10(a5)
            0x0074846e      487900481fee   pea.l MENUCOM.hit_nothing
            0x00748474      4eb900487aa6   jsr MENUCOM.new_box
            0x0074847a      defc002c       adda.w 0x2c, a7
            0x0074847e      3eb900869440   move.w 0x869440, (a7)
            0x00748484      3f3900869426   move.w 0x869426, -(a7)
            0x0074848a      4eb900486f94   jsr MENUCOM.add_slave
            0x00748490      544f           addq.w 0x2, a7
            0x00748492      3eb900869440   move.w 0x869440, (a7)
            0x00748498      3f3900869428   move.w 0x869428, -(a7)
            0x0074849e      4eb900486f94   jsr MENUCOM.add_slave
            0x007484a4      2eb90073e123   move.l 0x73e123, (a7)
            0x007484aa      2f390073e11f   move.l 0x73e11f, -(a7)
            0x007484b0      48790086bbf4   pea.l 0x86bbf4
            0x007484b6      554f           subq.w 0x2, a7
            0x007484b8      f23c40000000.  fmove.l 0x7, fp0
            0x007484c0      f2276400       fmove.s fp0, -(a7)
            0x007484c4      4eb900486b8c   jsr MENUCOM.grid_xpos
            0x007484ca      544f           addq.w 0x2, a7
            0x007484cc      3ebc0006       move.w 0x6, (a7)
            0x007484d0      554f           subq.w 0x2, a7
            0x007484d2      2f3c41ac0000   move.l 0x41ac0000, -(a7)
            0x007484d8      4eb900486c44   jsr MENUCOM.grid_xlen
            0x007484de      544f           addq.w 0x2, a7
            0x007484e0      3e82           move.w d2, (a7)
            0x007484e2      1f3c0010       move.b 0x10, -(a7)
            0x007484e6      4227           clr.b -(a7)
            0x007484e8      3f3c0004       move.w 0x4, -(a7)
            0x007484ec      4267           clr.w -(a7)
            0x007484ee      2f390073e11a   move.l 0x73e11a, -(a7)
            0x007484f4      486f0018       pea.l 0x18(a7)
            0x007484f8      4853           pea.l (a3)
            0x007484fa      48780008       pea.l 0x8
            0x007484fe      486d0010       pea.l 0x10(a5)
            0x00748502      487aca4a       pea.l MENUEFFECTCOM.hit_clip_view(pc)
            0x00748506      4eb900487aa6   jsr MENUCOM.new_box
            0x0074850c      defc0032       adda.w 0x32, a7
            0x00748510      3eb90073e12d   move.w 0x73e12d, (a7)
            0x00748516      48790086bbf6   pea.l 0x86bbf6
            0x0074851c      554f           subq.w 0x2, a7
            0x0074851e      2f3c41e40000   move.l 0x41e40000, -(a7)
            0x00748524      4eb900486b8c   jsr MENUCOM.grid_xpos
            0x0074852a      544f           addq.w 0x2, a7
            0x0074852c      3ebc0006       move.w 0x6, (a7)
            0x00748530      554f           subq.w 0x2, a7
            0x00748532      2f3c40600000   move.l 0x40600000, -(a7)
            0x00748538      4eb900486c44   jsr MENUCOM.grid_xlen
            0x0074853e      544f           addq.w 0x2, a7
            0x00748540      3e82           move.w d2, (a7)
            0x00748542      1f3c0008       move.b 0x8, -(a7)
            0x00748546      1f03           move.b d3, -(a7)
            0x00748548      3f3c0004       move.w 0x4, -(a7)
            0x0074854c      4267           clr.w -(a7)
            0x0074854e      2f390073e128   move.l 0x73e128, -(a7)
            0x00748554      486f0018       pea.l 0x18(a7)
            0x00748558      4853           pea.l (a3)
            0x0074855a      48780002       pea.l 0x2
            0x0074855e      486d0010       pea.l 0x10(a5)
            0x00748562      487ac9ea       pea.l MENUEFFECTCOM.hit_clip_view(pc)
            0x00748566      4eb900487aa6   jsr MENUCOM.new_box
            0x0074856c      defc002c       adda.w 0x2c, a7
            0x00748570      3eb90086bbf6   move.w 0x86bbf6, (a7)
            0x00748576      9efc00fc       suba.w 0xfc, a7
            0x0074857a      2f390073e12f   move.l 0x73e12f, -(a7)
            0x00748580      2f790073e133.  move.l 0x73e133, 0x4(a7)
            0x00748588      3f790073e137.  move.w 0x73e137, 0x8(a7)
            0x00748590      1f790073e139.  move.b 0x73e139, 0xa(a7)
            0x00748598      4eb90048442e   jsr MENUCOM.set_box_macro_n
            0x0074859e      defc0100       adda.w 0x100, a7
            0x007485a2      3eb90086bbf6   move.w 0x86bbf6, (a7)
            0x007485a8      f2024000       fmove.l d2, fp0
            0x007485ac      f2276400       fmove.s fp0, -(a7)
            0x007485b0      f2024000       fmove.l d2, fp0
            0x007485b4      f2276400       fmove.s fp0, -(a7)
            0x007485b8      f23c40000000.  fmove.l 0x270f, fp0
            0x007485c0      f2276400       fmove.s fp0, -(a7)
            0x007485c4      3f3cfffc       move.w 0xfffc, -(a7)
            0x007485c8      4267           clr.w -(a7)
            0x007485ca      4eb90048d4ae   jsr MENU2COM.make_numeric_bo
            0x007485d0      defc000c       adda.w 0xc, a7
            0x007485d4      2eb90073e13f   move.l 0x73e13f, (a7)
            0x007485da      1f790073e143.  move.b 0x73e143, 0x4(a7)
            0x007485e2      48790086bbf8   pea.l 0x86bbf8
            0x007485e8      3f3c0020       move.w 0x20, -(a7)
            0x007485ec      3f3c0006       move.w 0x6, -(a7)
            0x007485f0      3f3c0004       move.w 0x4, -(a7)
            0x007485f4      3f02           move.w d2, -(a7)
            0x007485f6      4227           clr.b -(a7)
            0x007485f8      1f02           move.b d2, -(a7)
            0x007485fa      3f3c0004       move.w 0x4, -(a7)
            0x007485fe      4267           clr.w -(a7)
            0x00748600      2f390073e13a   move.l 0x73e13a, -(a7)
            0x00748606      486f0018       pea.l 0x18(a7)
            0x0074860a      4853           pea.l (a3)
            0x0074860c      48780005       pea.l 0x5
            0x00748610      486d0010       pea.l 0x10(a5)
            0x00748614      487900481fee   pea.l MENUCOM.hit_nothing
            0x0074861a      4eb900487aa6   jsr MENUCOM.new_box
            0x00748620      defc0030       adda.w 0x30, a7
            0x00748624      3eb90086bbf8   move.w 0x86bbf8, (a7)
            0x0074862a      f2024000       fmove.l d2, fp0
            0x0074862e      f2276400       fmove.s fp0, -(a7)
            0x00748632      f2024000       fmove.l d2, fp0
            0x00748636      f2276400       fmove.s fp0, -(a7)
            0x0074863a      f23c40000000.  fmove.l 0x270f, fp0
            0x00748642      f2276400       fmove.s fp0, -(a7)
            0x00748646      3f3cfffc       move.w 0xfffc, -(a7)
            0x0074864a      4267           clr.w -(a7)
            0x0074864c      4eb90048d4ae   jsr MENU2COM.make_numeric_bo
            0x00748652      defc0010       adda.w 0x10, a7
            0x00748656      3eb90073e145   move.w 0x73e145, (a7)
            0x0074865c      48790086bbf2   pea.l 0x86bbf2
            0x00748662      4267           clr.w -(a7)
            0x00748664      4267           clr.w -(a7)
            0x00748666      4267           clr.w -(a7)
            0x00748668      4267           clr.w -(a7)
            0x0074866a      1f3c0013       move.b 0x13, -(a7)
            0x0074866e      4227           clr.b -(a7)
            0x00748670      3f3c0004       move.w 0x4, -(a7)
            0x00748674      4267           clr.w -(a7)
            0x00748676      2f390073db8a   move.l 0x73db8a, -(a7)
            0x0074867c      486f0018       pea.l 0x18(a7)
            0x00748680      4853           pea.l (a3)
            0x00748682      48780002       pea.l 0x2
            0x00748686      486d0010       pea.l 0x10(a5)
            0x0074868a      487900481fee   pea.l MENUCOM.hit_nothing
            0x00748690      4eb900487aa6   jsr MENUCOM.new_box
            0x00748696      defc001a       adda.w 0x1a, a7
            0x0074869a      4eb90048f2b6   jsr MENURIGHTCOM.get_menu_right_
            0x007486a0      41eeffec       lea.l -0x14(a6), a0
            0x007486a4      7004           moveq 0x4, d0
        > 0x007486a6      20df           move.l (a7)+, (a0)+
        < 0x007486a8      51c8fffc       dbra d0, 0x7486a6
            0x007486ac      204e           movea.l a6, a0
            0x007486ae      7004           moveq 0x4, d0
        > 0x007486b0      2f20           move.l -(a0), -(a7)
        < 0x007486b2      51c8fffc       dbra d0, 0x7486b0
            0x007486b6      4eb900486a7e   jsr MENUCOM.set_menu_grid
            0x007486bc      defc0010       adda.w 0x10, a7
            0x007486c0      2eb90073e14f   move.l 0x73e14f, (a7)
            0x007486c6      3f390073e14d   move.w 0x73e14d, -(a7)
            0x007486cc      48790086bbfe   pea.l 0x86bbfe
            0x007486d2      3f3c0007       move.w 0x7, -(a7)
            0x007486d6      3f3c0006       move.w 0x6, -(a7)
            0x007486da      3f03           move.w d3, -(a7)
            0x007486dc      3f02           move.w d2, -(a7)
            0x007486de      1f3c0004       move.b 0x4, -(a7)
            0x007486e2      4227           clr.b -(a7)
            0x007486e4      3f390086bbf2   move.w 0x86bbf2, -(a7)
            0x007486ea      4267           clr.w -(a7)
            0x007486ec      2f390073e148   move.l 0x73e148, -(a7)
            0x007486f2      486f0018       pea.l 0x18(a7)
            0x007486f6      4853           pea.l (a3)
            0x007486f8      48780006       pea.l 0x6
            0x007486fc      486d0010       pea.l 0x10(a5)
            0x00748700      487ac84c       pea.l MENUEFFECTCOM.hit_clip_view(pc)
            0x00748704      4eb900487aa6   jsr MENUCOM.new_box
            0x0074870a      defc0032       adda.w 0x32, a7
            0x0074870e      302efff0       move.w -0x10(a6), d0
            0x00748712      48c0           ext.l d0
            0x00748714      5480           addq.l 0x2, d0
            0x00748716      3d40fff0       move.w d0, -0x10(a6)
            0x0074871a      204e           movea.l a6, a0
            0x0074871c      7004           moveq 0x4, d0
        > 0x0074871e      2f20           move.l -(a0), -(a7)
        < 0x00748720      51c8fffc       dbra d0, 0x74871e
            0x00748724      4eb900486a7e   jsr MENUCOM.set_menu_grid
            0x0074872a      defc0010       adda.w 0x10, a7
            0x0074872e      2eb90073e15b   move.l 0x73e15b, (a7)
            0x00748734      3f390073e159   move.w 0x73e159, -(a7)
            0x0074873a      48790086bbfc   pea.l 0x86bbfc
            0x00748740      3f3c0009       move.w 0x9, -(a7)
            0x00748744      3f3c0006       move.w 0x6, -(a7)
            0x00748748      3f03           move.w d3, -(a7)
            0x0074874a      3f02           move.w d2, -(a7)
            0x0074874c      1f3c0004       move.b 0x4, -(a7)
            0x00748750      4227           clr.b -(a7)
            0x00748752      3f390086bbf2   move.w 0x86bbf2, -(a7)
            0x00748758      4267           clr.w -(a7)
            0x0074875a      2f390073e154   move.l 0x73e154, -(a7)
            0x00748760      486f0018       pea.l 0x18(a7)
            0x00748764      4853           pea.l (a3)
            0x00748766      48780006       pea.l 0x6
            0x0074876a      486d0010       pea.l 0x10(a5)
            0x0074876e      487ac7de       pea.l MENUEFFECTCOM.hit_clip_view(pc)
            0x00748772      4eb900487aa6   jsr MENUCOM.new_box
            0x00748778      defc002e       adda.w 0x2e, a7
            0x0074877c      2eb90073e169   move.l 0x73e169, (a7)
            0x00748782      2f390073e165   move.l 0x73e165, -(a7)
            0x00748788      48790086bbfa   pea.l 0x86bbfa
            0x0074878e      3f3c000b       move.w 0xb, -(a7)
            0x00748792      3f3c0006       move.w 0x6, -(a7)
            0x00748796      3f04           move.w d4, -(a7)
            0x00748798      3f02           move.w d2, -(a7)
            0x0074879a      1f3c0005       move.b 0x5, -(a7)
            0x0074879e      4227           clr.b -(a7)
            0x007487a0      3f390086bbf2   move.w 0x86bbf2, -(a7)
            0x007487a6      4267           clr.w -(a7)
            0x007487a8      2f390073e160   move.l 0x73e160, -(a7)
            0x007487ae      486f0018       pea.l 0x18(a7)
            0x007487b2      4853           pea.l (a3)
            0x007487b4      48780008       pea.l 0x8
            0x007487b8      486d0010       pea.l 0x10(a5)
            0x007487bc      487acb10       pea.l MENUEFFECTCOM.hit_do_clip(pc)
            0x007487c0      4eb900487aa6   jsr MENUCOM.new_box
            0x007487c6      defc0034       adda.w 0x34, a7
            0x007487ca      4eb900486aae   jsr MENUCOM.set_std_menu_gr
            0x007487d0      554f           subq.w 0x2, a7
            0x007487d2      4227           clr.b -(a7)
            0x007487d4      4eb900474c44   jsr CONFIG.cfg_pb_options
            0x007487da      544f           addq.w 0x2, a7
            0x007487dc      4a1f           tst.b (a7)+
        < 0x007487de      6710           beq.b 0x7487f0
           0x007487e0      554f           subq.w 0x2, a7
           0x007487e2      1f04           move.b d4, -(a7)
           0x007487e4      4eb900474c44   jsr CONFIG.cfg_pb_options
           0x007487ea      544f           addq.w 0x2, a7
           0x007487ec      4a1f           tst.b (a7)+
       < 0x007487ee      6720           beq.b 0x748810
       > 0x007487f0      554f           subq.w 0x2, a7
           0x007487f2      4227           clr.b -(a7)
           0x007487f4      4eb900474c8e   jsr CONFIG.cfg_pbx_options
           0x007487fa      544f           addq.w 0x2, a7
           0x007487fc      4a1f           tst.b (a7)+
       < 0x007487fe      671c           beq.b 0x74881c
          0x00748800      554f           subq.w 0x2, a7
          0x00748802      1f04           move.b d4, -(a7)
          0x00748804      4eb900474c8e   jsr CONFIG.cfg_pbx_options
          0x0074880a      544f           addq.w 0x2, a7
          0x0074880c      4a1f           tst.b (a7)+
      < 0x0074880e      660c           bne.b 0x74881c
      > 0x00748810      3f3c0004       move.w 0x4, -(a7)
          0x00748814      4eb900482304   jsr MENUCOM.hide_box
          0x0074881a      544f           addq.w 0x2, a7
      > 0x0074881c      f21fd080       fmovem (a7)+, fp0
            0x00748820      4cdf1fff       movem.l (a7)+, d0-d7/a0-a4
            0x00748824      4e5e           unlk a6
