            ;-- MENU3DCOM.PAS:
            0x005099a0      .byte 0x00
            0x005099a1      .byte 0x88
            0x005099a2      .byte 0x00
            0x005099a3      .byte 0x46
            0x005099a4      .byte 0x00
            0x005099a5      .byte 0xd2
            0x005099a6      .byte 0x00
            0x005099a7      .byte 0x51
            0x005099a8      .byte 0x00
            0x005099a9      .byte 0x80
            0x005099aa      .byte 0x00
            0x005099ab      .byte 0x80
            0x005099ac      .byte 0x00
            0x005099ad      .byte 0x3c
            0x005099ae      .byte 0x00
            0x005099af      .byte 0x80
            0x005099b0      .byte 0x00
            0x005099b1      .byte 0x80
            0x005099b2      .byte 0x00
            0x005099b3      .byte 0x32
            0x005099b4      .byte 0x00
            0x005099b5      .byte 0x80
            0x005099b6      .byte 0x00
            0x005099b7      .byte 0x80
            0x005099b8      .byte 0x00
            0x005099b9      .byte 0x10
            0x005099ba      .byte 0x00
            0x005099bb      .byte 0x80
            0x005099bc      .byte 0x00
            0x005099bd      .byte 0x80
            0x005099be      .byte 0x00
            0x005099bf      .byte 0xa7
            0x005099c0      .byte 0x00
            0x005099c1      .byte 0x72
            0x005099c2      .byte 0x00
            0x005099c3      .byte 0x9e
            0x005099c4      .byte 0x00
            0x005099c5      .byte 0xbf
            0x005099c6      .byte 0x00
            0x005099c7      .byte 0x80
            0x005099c8      .byte 0x00
            0x005099c9      .byte 0x80
            0x005099ca      .byte 0x00
            0x005099cb      .byte 0xa0
            0x005099cc      .byte 0x00
            0x005099cd      .byte 0x96
            0x005099ce      .byte 0x00
            0x005099cf      .byte 0x74
            0x005099d0      .byte 0x00
            0x005099d1      .byte 0x23
            0x005099d2      .byte 0x00
            0x005099d3      .byte 0xf0
            0x005099d4      .byte 0x00
            0x005099d5      .byte 0x6e
            0x005099d6      .byte 0x00
            0x005099d7      .byte 0x8c
            0x005099d8      .byte 0x00
            0x005099d9      .byte 0x6e
            0x005099da      .byte 0x00
            0x005099db      .byte 0x6e
            0x005099dc      .byte 0x00
            0x005099dd      .byte 0xc4
            0x005099de      .byte 0x00
            0x005099df      .byte 0x31
            0x005099e0      .byte 0x00
            0x005099e1      .byte 0x8c
            0x005099e2      .byte 0x00
            0x005099e3      .byte 0xa8
            0x005099e4      .byte 0x00
            0x005099e5      .byte 0x28
            0x005099e6      .byte 0x00
            0x005099e7      .byte 0xb1
            0x005099e8      .byte 0x00
            0x005099e9      .byte 0x00
            0x005099ea      .byte 0x00
            0x005099eb      .byte 0x80
            0x005099ec      .byte 0x00
            0x005099ed      .byte 0x80
            0x005099ee      .byte 0x00
            0x005099ef      .byte 0xff
            0x005099f0      .byte 0x00
            0x005099f1      .byte 0x80
            0x005099f2      .byte 0x00
            0x005099f3      .byte 0x80
            0x005099f4      .byte 0x00
            0x005099f5      .byte 0xcc
            0x005099f6      .byte 0x00
            0x005099f7      .byte 0x80
            0x005099f8      .byte 0x00
            0x005099f9      .byte 0x80
            0x005099fa      .byte 0x00
            0x005099fb      .byte 0xad
            0x005099fc      .byte 0x00
            0x005099fd      .byte 0x80
            0x005099fe      .byte 0x00
            0x005099ff      .byte 0x80
            0x00509a00      .byte 0x00
            0x00509a01      .byte 0xeb
            0x00509a02      .byte 0x00
            0x00509a03      .byte 0x80
            0x00509a04      .byte 0x00
            0x00509a05      .byte 0x80
            0x00509a06      .byte 0x00
            0x00509a07      .byte 0x10
            0x00509a08      .byte 0x00
            0x00509a09      .byte 0x80
            0x00509a0a      .byte 0x00
            0x00509a0b      .byte 0x80
            0x00509a0c      .byte 0x00
            0x00509a0d      .byte 0x80
            0x00509a0e      .byte 0x00
            0x00509a0f      .byte 0x80
            0x00509a10      .byte 0x00
            0x00509a11      .byte 0x80
            0x00509a12      .byte 0x00
            0x00509a13      .byte 0x51
            0x00509a14      .byte 0x00
            0x00509a15      .byte 0x5a
            0x00509a16      .byte 0x00
            0x00509a17      .byte 0xf0
            0x00509a18      .byte 0x00
            0x00509a19      .byte 0xd2
            0x00509a1a      .byte 0x00
            0x00509a1b      .byte 0x10
            0x00509a1c      .byte 0x00
            0x00509a1d      .byte 0x92
            0x00509a1e      .byte 0x00
            0x00509a1f      .byte 0x29
            0x00509a20      .byte 0x00
            0x00509a21      .byte 0xf0
            0x00509a22      .byte 0x00
            0x00509a23      .byte 0x6e
            0x00509a24      .byte 0x00
            0x00509a25      .byte 0x91
            0x00509a26      .byte 0x00
            0x00509a27      .byte 0x36
            0x00509a28      .byte 0x00
            0x00509a29      .byte 0x22
            0x00509a2a      .byte 0x00
            0x00509a2b      .byte 0xa2
            0x00509a2c      .byte 0x00
            0x00509a2d      .byte 0x2c
            0x00509a2e      .byte 0x00
            0x00509a2f      .byte 0x8e
            0x00509a30      .byte 0x00
            0x00509a31      .byte 0x83
            0x00509a32      .byte 0x00
            0x00509a33      .byte 0x9c
            0x00509a34      .byte 0x00
            0x00509a35      .byte 0x2c
            0x00509a36      .byte 0x00
            0x00509a37      .byte 0x70
            0x00509a38      .byte 0x00
            0x00509a39      .byte 0x48
            0x00509a3a      .byte 0x00
            0x00509a3b      .byte 0x3a
            0x00509a3c      .byte 0x00
            0x00509a3d      .byte 0x54
            0x00509a3e      .byte 0x00
            0x00509a3f      .byte 0xb8
            0x00509a40      .byte 0x00
            0x00509a41      .byte 0xc6
            0x00509a42      .byte 0x00
            0x00509a43      .byte 0x41
            0x00509a44      .byte 0x00
            0x00509a45      .byte 0x64
            0x00509a46      .byte 0x00
            0x00509a47      .byte 0xd4
            0x00509a48      .byte 0x00
            0x00509a49      .byte 0x23
            0x00509a4a      .byte 0x00
            0x00509a4b      .byte 0xd4
            0x00509a4c      .byte 0x00
            0x00509a4d      .byte 0x72
            0x00509a4e      .byte 0x00
            0x00509a4f      .byte 0xd2
            0x00509a50      .byte 0x00
            0x00509a51      .byte 0x10
            0x00509a52      .byte 0x00
            0x00509a53      .byte 0x92
            0x00509a54      .byte 0x00
            0x00509a55      .byte 0xaa
            0x00509a56      .byte 0x00
            0x00509a57      .byte 0xa6
            0x00509a58      .byte 0x00
            0x00509a59      .byte 0x10
            0x00509a5a      .byte 0x00
            0x00509a5b      .byte 0x91
            0x00509a5c      .byte 0x00
            0x00509a5d      .byte 0x36
            0x00509a5e      .byte 0x00
            0x00509a5f      .byte 0x22
            0x00509a60      .byte 0x00
            0x00509a61      .byte 0x6a
            0x00509a62      .byte 0x00
            0x00509a63      .byte 0xca
            0x00509a64      .byte 0x00
            0x00509a65      .byte 0xde
            0x00509a66      .byte 0x00
            0x00509a67      .byte 0x51
            0x00509a68      .byte 0x00
            0x00509a69      .byte 0x5a
            0x00509a6a      .byte 0x00
            0x00509a6b      .byte 0xf0
            0x00509a6c      .byte 0x00
            0x00509a6d      .byte 0x29
            0x00509a6e      .byte 0x00
            0x00509a6f      .byte 0xf0
            0x00509a70      .byte 0x00
            0x00509a71      .byte 0x6e
            0x00509a72      .byte 0x3f
            0x00509a73      .byte 0x80
            0x00509a74      .byte 0x00
            0x00509a75      .byte 0x00
            0x00509a76      .byte 0x00
            0x00509a77      .byte 0x00
            0x00509a78      .byte 0x00
            0x00509a79      .byte 0x00
            0x00509a7a      .byte 0x00
            0x00509a7b      .byte 0x00
            0x00509a7c      .byte 0x00
            0x00509a7d      .byte 0x00
            0x00509a7e      .byte 0x00
            0x00509a7f      .byte 0x00
            0x00509a80      .byte 0x00
            0x00509a81      .byte 0x00
            0x00509a82      .byte 0x00
            0x00509a83      .byte 0x00
            0x00509a84      .byte 0x00
            0x00509a85      .byte 0x00
            0x00509a86      .byte 0x3f
            0x00509a87      .byte 0x80
            0x00509a88      .byte 0x00
            0x00509a89      .byte 0x00
            0x00509a8a      .byte 0x00
            0x00509a8b      .byte 0x00
            0x00509a8c      .byte 0x00
            0x00509a8d      .byte 0x00
            0x00509a8e      .byte 0x00
            0x00509a8f      .byte 0x00
            0x00509a90      .byte 0x00
            0x00509a91      .byte 0x00
            0x00509a92      .byte 0x00
            0x00509a93      .byte 0x00
            0x00509a94      .byte 0x00
            0x00509a95      .byte 0x00
            0x00509a96      .byte 0x00
            0x00509a97      .byte 0x00
            0x00509a98      .byte 0x00
            0x00509a99      .byte 0x00
            0x00509a9a      .byte 0x3f
            0x00509a9b      .byte 0x80
            0x00509a9c      .byte 0x00
            0x00509a9d      .byte 0x00
            0x00509a9e      .byte 0x00
            0x00509a9f      .byte 0x00
            0x00509aa0      .byte 0x00
            0x00509aa1      .byte 0x00
            0x00509aa2      .byte 0x3f
            0x00509aa3      .byte 0x80
            0x00509aa4      .byte 0x00
            0x00509aa5      .byte 0x00
            0x00509aa6      .byte 0x3f
            0x00509aa7      .byte 0x80
            0x00509aa8      .byte 0x00
            0x00509aa9      .byte 0x00
            0x00509aaa      .byte 0x3f
            0x00509aab      .byte 0x80
            0x00509aac      .byte 0x00
            0x00509aad      .byte 0x00
            0x00509aae      .byte 0x00
            0x00509aaf      .byte 0x00
            0x00509ab0      .byte 0x00
            0x00509ab1      .byte 0x00
            0x00509ab2      .byte 0x00
            0x00509ab3      .byte 0x00
            0x00509ab4      .byte 0x00
            0x00509ab5      .byte 0x00
            0x00509ab6      .byte 0x00
            0x00509ab7      .byte 0x00
            0x00509ab8      .byte 0x00
            0x00509ab9      .byte 0x00
            0x00509aba      .byte 0x00
            0x00509abb      .byte 0x2a
            0x00509abc      .byte 0x01
            0x00509abd      .byte 0x00
            0x00509abe      .byte 0x00
            0x00509abf      .byte 0x36
            0x00509ac0      .byte 0x01
            0x00509ac1      .byte 0x00
            0x00509ac2      .byte 0x00
            0x00509ac3      .byte 0x1d
            0x00509ac4      .byte 0x02
            0x00509ac5      .byte 0x00
            0x00509ac6      .byte 0x3f
            0x00509ac7      .byte 0x80
            0x00509ac8      .byte 0x00
            0x00509ac9      .byte 0x00
            0x00509aca      .byte 0x3f
            0x00509acb      .byte 0x80
            0x00509acc      .byte 0x00
            0x00509acd      .byte 0x00
            0x00509ace      .byte 0x00
            0x00509acf      .byte 0x00
            0x00509ad0      .byte 0x00
            0x00509ad1      .byte 0x00
            0x00509ad2      .byte 0x00
            0x00509ad3      .byte 0x00
            0x00509ad4      .byte 0x00
            0x00509ad5      .byte 0x00
            0x00509ad6      .byte 0x02
            0x00509ad7      .byte 0x00
            0x00509ad8      .byte 0x00
            0x00509ad9      .byte 0x00
            0x00509ada      .byte 0x3f
            0x00509adb      .byte 0x80
            0x00509adc      .byte 0x00
            0x00509add      .byte 0x00
            0x00509ade      .byte 0x3f
            0x00509adf      .byte 0x80
            0x00509ae0      .byte 0x00
            0x00509ae1      .byte 0x00
            0x00509ae2      .byte 0x00
            0x00509ae3      .byte 0x00
            0x00509ae4      .byte 0x00
            0x00509ae5      .byte 0x00
            0x00509ae6      .byte 0x00
            0x00509ae7      .byte 0x00
            0x00509ae8      .byte 0x00
            0x00509ae9      .byte 0x00
            0x00509aea      .byte 0x00
            0x00509aeb      .byte 0x00
            0x00509aec      .byte 0x00
            0x00509aed      .byte 0x00
            0x00509aee      .byte 0x00
            0x00509aef      .byte 0x00
            0x00509af0      .byte 0x00
            0x00509af1      .byte 0x00
            0x00509af2      .byte 0x00
            0x00509af3      .byte 0x00
            0x00509af4      .byte 0x00
            0x00509af5      .byte 0x0a
            0x00509af6      .byte 0x00
            0x00509af7      .byte 0x08
            0x00509af8      .byte 0x02
            0x00509af9      .byte 0xc7
            0x00509afa      .byte 0x01
            0x00509afb      .byte 0xe5
            0x00509afc      .byte 0x03
            0x00509afd      .byte 0x00
            0x00509afe      .byte 0x01
            0x00509aff      .byte 0xe4
            0x00509b00      .byte 0x02
            0x00509b01      .byte 0xbd
            0x00509b02      .byte 0x02
            0x00509b03      .byte 0x3f
            0x00509b04      .byte 0x00
            0x00509b05      .byte 0x00
            0x00509b06      .byte 0x00
            0x00509b07      .byte 0x01
            0x00509b08      .byte 0x00
            0x00509b09      .byte 0x02
            0x00509b0a      .byte 0x00
            0x00509b0b      .byte 0x03
            0x00509b0c      .byte 0x00
            0x00509b0d      .byte 0x04
            0x00509b0e      .byte 0x00
            0x00509b0f      .byte 0x02
            0x00509b10      .byte 0x00
            0x00509b11      .byte 0x03
            0x00509b12      .byte 0x00
            0x00509b13      .byte 0x04
            0x00509b14      .byte 0x00
            0x00509b15      .byte 0x01
            0x00509b16      .byte 0x00
            0x00509b17      .byte 0x02
            0x00509b18      .byte 0x00
            0x00509b19      .byte 0x03
            0x00509b1a      .byte 0x00
            0x00509b1b      .byte 0x04
            0x00509b1c      .byte 0x00
            0x00509b1d      .byte 0x01
            0x00509b1e      .byte 0x00
            0x00509b1f      .byte 0x02
            0x00509b20      .byte 0x00
            0x00509b21      .byte 0x03
            0x00509b22      .byte 0x00
            0x00509b23      .byte 0x04
            0x00509b24      .byte 0x00
            0x00509b25      .byte 0x00
            0x00509b26      .byte 0x00
            0x00509b27      .byte 0x00
            0x00509b28      .byte 0x00
            0x00509b29      .byte 0x01
            0x00509b2a      .byte 0x00
            0x00509b2b      .byte 0x02
            0x00509b2c      .byte 0x00
            0x00509b2d      .byte 0x03
            0x00509b2e      .byte 0x00
            0x00509b2f      .byte 0x04
            0x00509b30      .byte 0x00
            0x00509b31      .byte 0x01
            0x00509b32      .byte 0x00
            0x00509b33      .byte 0x01
            0x00509b34      .byte 0x00
            0x00509b35      .byte 0x01
            0x00509b36      .byte 0x00
            0x00509b37      .byte 0x01
            0x00509b38      .byte 0x00
            0x00509b39      .byte 0x02
            0x00509b3a      .byte 0x00
            0x00509b3b      .byte 0x03
            0x00509b3c      .byte 0x00
            0x00509b3d      .byte 0x04
            0x00509b3e      .byte 0x00
            0x00509b3f      .byte 0x02
            0x00509b40      .byte 0x00
            0x00509b41      .byte 0x03
            0x00509b42      .byte 0x00
            0x00509b43      .byte 0x04
            0x00509b44      .byte 0x00
            0x00509b45      .byte 0x01
            0x00509b46      .byte 0x00
            0x00509b47      .byte 0x00
            0x00509b48      .byte 0x00
            0x00509b49      .byte 0x00
            0x00509b4a      .byte 0x00
            0x00509b4b      .byte 0x4f
            0x00509b4c      .byte 0x00
            0x00509b4d      .byte 0x58
            0x00509b4e      .byte 0x00
            0x00509b4f      .byte 0x59
            0x00509b50      .byte 0x00
            0x00509b51      .byte 0x5a
            0x00509b52      .byte 0x00
            0x00509b53      .byte 0x58
            0x00509b54      .byte 0x00
            0x00509b55      .byte 0x59
            0x00509b56      .byte 0x00
            0x00509b57      .byte 0x5a
            0x00509b58      .byte 0x00
            0x00509b59      .byte 0x1a
            0x00509b5a      .byte 0x00
            0x00509b5b      .byte 0x14
            0x00509b5c      .byte 0x00
            0x00509b5d      .byte 0x16
            0x00509b5e      .byte 0x00
            0x00509b5f      .byte 0x18
            0x00509b60      .byte 0x00
            0x00509b61      .byte 0x13
            0x00509b62      .byte 0x00
            0x00509b63      .byte 0x15
            0x00509b64      .byte 0x00
            0x00509b65      .byte 0x17
            0x00509b66      .byte 0x00
            0x00509b67      .byte 0x19
            0x00509b68      .byte 0x00
            0x00509b69      .byte 0x00
            0x00509b6a      .byte 0x00
            0x00509b6b      .byte 0x00
            0x00509b6c      .byte 0x00
            0x00509b6d      .byte 0x00
            0x00509b6e      .byte 0x00
            0x00509b6f      .byte 0x00
            0x00509b70      .byte 0x00
            0x00509b71      .byte 0x00
            0x00509b72      .byte 0x00
            0x00509b73      .byte 0x00
            0x00509b74      .byte 0x00
            0x00509b75      .byte 0x00
            0x00509b76      .byte 0x00
            0x00509b77      .byte 0x00
            0x00509b78      .byte 0x00
            0x00509b79      .byte 0x00
            0x00509b7a      .byte 0x00
            0x00509b7b      .byte 0x00
            0x00509b7c      .byte 0x00
            0x00509b7d      .byte 0x00
            0x00509b7e      .byte 0x00
            0x00509b7f      .byte 0x00
            0x00509b80      .byte 0x00
            0x00509b81      .byte 0x00
            0x00509b82      .byte 0x00
            0x00509b83      .byte 0x00
            0x00509b84      .byte 0x00
            0x00509b85      .byte 0x00
            0x00509b86      .byte 0x00
            0x00509b87      .byte 0x00
            0x00509b88      .byte 0x00
            0x00509b89      .byte 0x00
            0x00509b8a      .byte 0x00
            0x00509b8b      .byte 0x02
            0x00509b8c      .byte 0x00
            0x00509b8d      .byte 0x03
            0x00509b8e      .byte 0xff
            0x00509b8f      .byte 0xfb
            0x00509b90      .byte 0x00
            0x00509b91      .byte 0x03
            0x00509b92      .byte 0xff
            0x00509b93      .byte 0xfb
            0x00509b94      .byte 0xff
            0x00509b95      .byte 0xfc
            0x00509b96      .byte 0x00
            0x00509b97      .byte 0x02
            0x00509b98      .byte 0xff
            0x00509b99      .byte 0xfc
            0x00509b9a      .byte 0x00
            0x00509b9b      .byte 0x00
            0x00509b9c      .byte 0x00
            0x00509b9d      .byte 0x00
            0x00509b9e      .byte 0x00
            0x00509b9f      .byte 0x00
            0x00509ba0      .byte 0x00
            0x00509ba1      .byte 0x00
            0x00509ba2      .byte 0x00
            0x00509ba3      .byte 0x00
            0x00509ba4      .byte 0x00
            0x00509ba5      .byte 0x00
            0x00509ba6      .byte 0x00
            0x00509ba7      .byte 0x00
            0x00509ba8      .byte 0x00
            0x00509ba9      .byte 0x00
            0x00509baa      .byte 0x00
            0x00509bab      .byte 0x00
            0x00509bac      .byte 0x00
            0x00509bad      .byte 0x00
            0x00509bae      .byte 0x09
            0x00509baf      .byte 0x00
            0x00509bb0      .byte 0x00
            0x00509bb1      .byte 0x00
            0x00509bb2      .byte 0x00
            0x00509bb3      .byte 0x00
            0x00509bb4      .byte 0x00
            0x00509bb5      .byte 0x00
            0x00509bb6      .byte 0x01
            0x00509bb7      .byte 0x02
            0x00509bb8      .byte 0x03
            0x00509bb9      .byte 0x04
            0x00509bba      .byte 0x05
            0x00509bbb      .byte 0x06
            0x00509bbc      .byte 0x07
            0x00509bbd      .byte 0x08
            0x00509bbe      .byte 0x00
            0x00509bbf      .byte 0x00
            0x00509bc0      .byte 0x00
            0x00509bc1      .byte 0x01
            0x00509bc2      .byte 0x02
            0x00509bc3      .byte 0x03
            0x00509bc4      .byte 0x01
            0x00509bc5      .byte 0x02
            0x00509bc6      .byte 0x03
            0x00509bc7      .byte 0x00
            0x00509bc8      .byte 0x00
            0x00509bc9      .byte 0x00
            0x00509bca      .byte 0x00
            0x00509bcb      .byte 0x00
            0x00509bcc      .byte 0x00
            0x00509bcd      .byte 0x00
            0x00509bce      .byte 0x00
            0x00509bcf      .byte 0x00
            0x00509bd0      .byte 0x00
            0x00509bd1      .byte 0x00
            0x00509bd2      .byte 0x00
            0x00509bd3      .byte 0x04
            0x00509bd4      .byte 0x00
            0x00509bd5      .byte 0x01
            0x00509bd6      .byte 0x00
            0x00509bd7      .byte 0x02
            0x00509bd8      .byte 0x00
            0x00509bd9      .byte 0x03
            0x00509bda      .byte 0x00
            0x00509bdb      .byte 0x04
            0x00509bdc      .byte 0x00
            0x00509bdd      .byte 0x01
            0x00509bde      .byte 0x00
            0x00509bdf      .byte 0x02
            0x00509be0      .byte 0x00
            0x00509be1      .byte 0x03
            0x00509be2      .byte 0x00
            0x00509be3      .byte 0x01
            0x00509be4      .byte 0x00
            0x00509be5      .byte 0x00
            0x00509be6      .byte 0x00
            0x00509be7      .byte 0x01
            0x00509be8      .byte 0x00
            0x00509be9      .byte 0x02
            0x00509bea      .byte 0x00
            0x00509beb      .byte 0x03
            0x00509bec      .byte 0x00
            0x00509bed      .byte 0x04
            0x00509bee      .byte 0x00
            0x00509bef      .byte 0x01
            0x00509bf0      .byte 0x00
            0x00509bf1      .byte 0x02
            0x00509bf2      .byte 0x00
            0x00509bf3      .byte 0x03
            0x00509bf4      .byte 0x00
            0x00509bf5      .byte 0x04
            0x00509bf6      .byte 0x00
            0x00509bf7      .byte 0x01
            0x00509bf8      .byte 0x00
            0x00509bf9      .byte 0x00
            0x00509bfa      .byte 0x00
            0x00509bfb      .byte 0x01
            0x00509bfc      .byte 0x00
            0x00509bfd      .byte 0x02
            0x00509bfe      .byte 0x00
            0x00509bff      .byte 0x03
            0x00509c00      .byte 0x00
            0x00509c01      .byte 0x04
            0x00509c02      .byte 0x00
            0x00509c03      .byte 0x02
            0x00509c04      .byte 0x00
            0x00509c05      .byte 0x03
            0x00509c06      .byte 0x00
            0x00509c07      .byte 0x04
            0x00509c08      .byte 0x00
            0x00509c09      .byte 0x01
            0x00509c0a      .byte 0x00
            0x00509c0b      .byte 0x01
            0x00509c0c      .byte 0x00
            0x00509c0d      .byte 0x00
            0x00509c0e      .byte 0x00
            0x00509c0f      .byte 0x02
            0x00509c10      .byte 0x00
            0x00509c11      .byte 0x03
            0x00509c12      .byte 0x00
            0x00509c13      .byte 0x04
            0x00509c14      .byte 0x00
            0x00509c15      .byte 0x01
            0x00509c16      .byte 0x00
            0x00509c17      .byte 0x03
            0x00509c18      .byte 0x00
            0x00509c19      .byte 0x04
            0x00509c1a      .byte 0x00
            0x00509c1b      .byte 0x01
            0x00509c1c      .byte 0x00
            0x00509c1d      .byte 0x02
            0x00509c1e      .byte 0x00
            0x00509c1f      .byte 0x01
            0x00509c20      .byte 0x00
            0x00509c21      .byte 0x00
            0x00509c22      .byte 0x00
            0x00509c23      .byte 0x03
            0x00509c24      .byte 0x00
            0x00509c25      .byte 0x04
            0x00509c26      .byte 0x00
            0x00509c27      .byte 0x01
            0x00509c28      .byte 0x00
            0x00509c29      .byte 0x02
            0x00509c2a      .byte 0x00
            0x00509c2b      .byte 0x03
            0x00509c2c      .byte 0x00
            0x00509c2d      .byte 0x04
            0x00509c2e      .byte 0x00
            0x00509c2f      .byte 0x01
            0x00509c30      .byte 0x00
            0x00509c31      .byte 0x02
            0x00509c32      .byte 0x00
            0x00509c33      .byte 0x01
            0x00509c34      .byte 0x00
            0x00509c35      .byte 0x00
            0x00509c36      .byte 0x00
            0x00509c37      .byte 0x01
            0x00509c38      .byte 0x00
            0x00509c39      .byte 0x02
            0x00509c3a      .byte 0x00
            0x00509c3b      .byte 0x03
            0x00509c3c      .byte 0x00
            0x00509c3d      .byte 0x04
            0x00509c3e      .byte 0x00
            0x00509c3f      .byte 0x01
            0x00509c40      .byte 0x00
            0x00509c41      .byte 0x02
            0x00509c42      .byte 0x00
            0x00509c43      .byte 0x03
            0x00509c44      .byte 0x00
            0x00509c45      .byte 0x04
            0x00509c46      .byte 0x00
            0x00509c47      .byte 0x01
            0x00509c48      .byte 0x00
            0x00509c49      .byte 0x00
            0x00509c4a      .byte 0x00
            0x00509c4b      .byte 0x00
            0x00509c4c      .byte 0x00
            0x00509c4d      .byte 0x00
            0x00509c4e      .byte 0x00
            0x00509c4f      .byte 0x00
            0x00509c50      .byte 0x00
            0x00509c51      .byte 0x00
            0x00509c52      .byte 0x00
            0x00509c53      .byte 0x02
            0x00509c54      .byte 0x00
            0x00509c55      .byte 0x03
            0x00509c56      .byte 0x00
            0x00509c57      .byte 0x04
            0x00509c58      .byte 0x00
            0x00509c59      .byte 0x01
            0x00509c5a      .byte 0x00
            0x00509c5b      .byte 0x02
            0x00509c5c      .byte 0x00
            0x00509c5d      .byte 0x00
            0x00509c5e      .byte 0x00
            0x00509c5f      .byte 0x00
            0x00509c60      .byte 0x00
            0x00509c61      .byte 0x00
            0x00509c62      .byte 0x00
            0x00509c63      .byte 0x00
            0x00509c64      .byte 0x00
            0x00509c65      .byte 0x00
            0x00509c66      .byte 0x00
            0x00509c67      .byte 0x00
            0x00509c68      .byte 0x00
            0x00509c69      .byte 0x00
            0x00509c6a      .byte 0x00
            0x00509c6b      .byte 0x00
            0x00509c6c      .byte 0x00
            0x00509c6d      .byte 0x00
            0x00509c6e      .byte 0x00
            0x00509c6f      .byte 0x03
            0x00509c70      .byte 0x00
            0x00509c71      .byte 0x00
            0x00509c72      .byte 0x00
            0x00509c73      .byte 0x00
            0x00509c74      .byte 0x00
            0x00509c75      .byte 0x00
            0x00509c76      .byte 0x00
            0x00509c77      .byte 0x00
            0x00509c78      .byte 0x00
            0x00509c79      .byte 0x00
            0x00509c7a      .byte 0x00
            0x00509c7b      .byte 0x00
            0x00509c7c      .byte 0x00
            0x00509c7d      .byte 0x00
            0x00509c7e      .byte 0x00
            0x00509c7f      .byte 0x00
            0x00509c80      .byte 0x00
            0x00509c81      .byte 0x00
            0x00509c82      .byte 0x00
            0x00509c83      .byte 0x04
            0x00509c84      .byte 0x00
            0x00509c85      .byte 0x00
            0x00509c86      .byte 0x00
            0x00509c87      .byte 0x00
            0x00509c88      .byte 0x00
            0x00509c89      .byte 0x00
            0x00509c8a      .byte 0x00
            0x00509c8b      .byte 0x00
            0x00509c8c      .byte 0x00
            0x00509c8d      .byte 0x00
            0x00509c8e      .byte 0x00
            0x00509c8f      .byte 0x00
            0x00509c90      .byte 0x00
            0x00509c91      .byte 0x00
            0x00509c92      .byte 0x00
            0x00509c93      .byte 0x00
            0x00509c94      .byte 0x00
            0x00509c95      .byte 0x00
            0x00509c96      .byte 0x00
            0x00509c97      .byte 0x00
            0x00509c98      .byte 0x00
            0x00509c99      .byte 0x00
            0x00509c9a      .byte 0x00
            0x00509c9b      .byte 0x00
            0x00509c9c      .byte 0x00
            0x00509c9d      .byte 0x00
            0x00509c9e      .byte 0x00
            0x00509c9f      .byte 0x00
            0x00509ca0      .byte 0x00
            0x00509ca1      .byte 0x00
            0x00509ca2      .byte 0x00
            0x00509ca3      .byte 0x00
            0x00509ca4      .byte 0x01
            0x00509ca5      .byte 0x00
            0x00509ca6      .byte 0x02
            0x00509ca7      .byte 0x00
            0x00509ca8      .byte 0x08
            0x00509ca9      .byte 0x00
            0x00509caa      .byte 0x04
            0x00509cab      .byte 0x07
            0x00509cac     .string "<<<bend" ; len=7
            0x00509cb3      .byte 0x07
            0x00509cb4     .string "<<<wrap" ; len=7
            0x00509cbb      .byte 0x07
            0x00509cbc     .string "<<<turn" ; len=7
            0x00509cc3      .byte 0x09
            0x00509cc4     .string "<<<ripple" ; len=9
            0x00509ccd      .byte 0x05
            0x00509cce     .string "<flat" ; len=5
            0x00509cd3      .byte 0x00
            0x00509cd4      .byte 0x96
            0x00509cd5      .byte 0x00
            0x00509cd6      .byte 0x30
            0x00509cd7      .byte 0x00
            0x00509cd8      .byte 0x60
            0x00509cd9      .byte 0x00
            0x00509cda      .byte 0x68
            0x00509cdb      .byte 0x00
            0x00509cdc      .byte 0x28
            0x00509cdd      .byte 0x00
            0x00509cde      .byte 0x28
            0x00509cdf      .byte 0x04
            0x00509ce0      .byte 0x6f
            0x00509ce1      .byte 0x6e
            0x00509ce2      .byte 0x6c
            0x00509ce3      .byte 0x79
            0x00509ce4      .byte 0x06
            0x00509ce5     .string "before" ; len=6
            0x00509ceb      .byte 0x0e
            0x00509cec     .string "<<<b<e<t<w<een" ; len=14
            0x00509cfa      .byte 0x05
            0x00509cfb     .string "after" ; len=5
            0x00509d00      .byte 0x1d
            0x00509d01      .byte 0x00
            0x00509d02      .byte 0x00
            0x00509d03      .byte 0x00
            0x00509d04      .byte 0x00
            0x00509d05      .byte 0x00
            0x00509d06      .byte 0x00
            0x00509d07      .byte 0x00
            0x00509d08      .byte 0x00
            0x00509d09      .byte 0x00
            0x00509d0a      .byte 0x00
            0x00509d0b      .byte 0x00
            0x00509d0c      .byte 0x00
            0x00509d0d      .byte 0x00
            0x00509d0e      .byte 0x00
            0x00509d0f      .byte 0x00
            0x00509d10      .byte 0x00
            0x00509d11      .byte 0x00
            0x00509d12      .byte 0x01
            0x00509d13      .byte 0x00
            0x00509d14      .byte 0x0c
            0x00509d15      .byte 0x00
            0x00509d16      .byte 0x12
            0x00509d17      .byte 0x00
            0x00509d18      .byte 0x18
            0x00509d19      .byte 0x00
            0x00509d1a      .byte 0x00
            0x00509d1b      .byte 0x00
            0x00509d1c      .byte 0x00
            0x00509d1d      .byte 0x00
            0x00509d1e      .byte 0x00
            0x00509d1f      .byte 0x00
            0x00509d20      .byte 0x00
            0x00509d21      .byte 0x00
            0x00509d22      .byte 0x1f
            0x00509d23      .byte 0x00
            0x00509d24      .byte 0x00
            0x00509d25      .byte 0x00
            0x00509d26      .byte 0xbf
            0x00509d27      .byte 0x01
            0x00509d28      .byte 0x00
            0x00509d29      .byte 0x00
            0x00509d2a      .byte 0x03
            0x00509d2b      .byte 0x00
            0x00509d2c      .byte 0x00
            0x00509d2d      .byte 0x00
            0x00509d2e      .byte 0x00
            0x00509d2f      .byte 0x00
            0x00509d30      .byte 0x00
            0x00509d31      .byte 0x00
            0x00509d32      .byte 0x00
            0x00509d33      .byte 0x00
            0x00509d34      .byte 0x00
            0x00509d35      .byte 0x00
            0x00509d36      .byte 0x00
            0x00509d37      .byte 0x00
            0x00509d38      .byte 0x00
            0x00509d39      .byte 0x00
            0x00509d3a      .byte 0x00
            0x00509d3b      .byte 0x00
            0x00509d3c      .byte 0x00
            0x00509d3d      .byte 0x00
            0x00509d3e      .byte 0x00
            0x00509d3f      .byte 0x00
            0x00509d40      .byte 0x00
            0x00509d41      .byte 0x00
            0x00509d42      .byte 0x00
            0x00509d43      .byte 0x00
            0x00509d44      .byte 0x00
            0x00509d45      .byte 0x00
            0x00509d46      .byte 0x00
            0x00509d47      .byte 0x00
            0x00509d48      .byte 0x00
            0x00509d49      .byte 0x00
            0x00509d4a      .byte 0x00
            0x00509d4b      .byte 0xfe
            0x00509d4c      .byte 0xff
            0x00509d4d      .byte 0x01
            0x00509d4e      .byte 0x00
            0x00509d4f      .byte 0x00
            0x00509d50      .byte 0x00
            0x00509d51      .byte 0x00
            0x00509d52      .byte 0x00
            0x00509d53      .byte 0x00
            0x00509d54      .byte 0x00
            0x00509d55      .byte 0x00
            0x00509d56      .byte 0x00
            0x00509d57      .byte 0x00
            0x00509d58      .byte 0x00
            0x00509d59      .byte 0x00
            0x00509d5a      .byte 0x00
            0x00509d5b      .byte 0x00
            0x00509d5c      .byte 0x00
            0x00509d5d      .byte 0x00
            0x00509d5e      .byte 0x00
            0x00509d5f      .byte 0xe0
            0x00509d60      .byte 0xff
            0x00509d61      .byte 0x01
            0x00509d62      .byte 0x00
            0x00509d63      .byte 0x1e
            0x00509d64      .byte 0x00
            0x00509d65      .byte 0x00
            0x00509d66      .byte 0x00
            0x00509d67      .byte 0x00
            0x00509d68      .byte 0x00
            0x00509d69      .byte 0x00
            0x00509d6a      .byte 0x00
            0x00509d6b      .byte 0x00
            0x00509d6c      .byte 0x00
            0x00509d6d      .byte 0x00
            0x00509d6e      .byte 0x00
            0x00509d6f      .byte 0x00
            0x00509d70      .byte 0x00
            0x00509d71      .byte 0x00
            0x00509d72      .byte 0x00
            0x00509d73      .byte 0x00
            0x00509d74      .byte 0x00
            0x00509d75      .byte 0x00
            0x00509d76      .byte 0x00
            0x00509d77      .byte 0x02
            0x00509d78      .byte 0x00
            0x00509d79      .byte 0x00
            0x00509d7a      .byte 0x00
            0x00509d7b      .byte 0x00
            0x00509d7c      .byte 0x00
            0x00509d7d      .byte 0x00
            0x00509d7e      .byte 0x00
            0x00509d7f      .byte 0x00
            0x00509d80      .byte 0x00
            0x00509d81      .byte 0x00
            0x00509d82      .byte 0x00
            0x00509d83      .byte 0x00
            0x00509d84      .byte 0x00
            0x00509d85      .byte 0x00
            0x00509d86      .byte 0x00
            0x00509d87      .byte 0x00
            0x00509d88      .byte 0x00
            0x00509d89      .byte 0x00
            0x00509d8a      .byte 0x00
            0x00509d8b      .byte 0x02
            0x00509d8c      .byte 0x00
            0x00509d8d      .byte 0x00
            0x00509d8e      .byte 0x00
            0x00509d8f      .byte 0x00
            0x00509d90      .byte 0x00
            0x00509d91      .byte 0x00
            0x00509d92      .byte 0x00
            0x00509d93      .byte 0x00
            0x00509d94      .byte 0x00
            0x00509d95      .byte 0x00
            0x00509d96      .byte 0x00
            0x00509d97      .byte 0x00
            0x00509d98      .byte 0x00
            0x00509d99      .byte 0x00
            0x00509d9a      .byte 0x00
            0x00509d9b      .byte 0x00
            0x00509d9c      .byte 0x00
            0x00509d9d      .byte 0x00
            0x00509d9e      .byte 0x00
            0x00509d9f      .byte 0x02
            0x00509da0      .byte 0x00
            0x00509da1      .byte 0x00
            0x00509da2      .byte 0x1f
            0x00509da3      .byte 0x00
            0x00509da4      .byte 0x00
            0x00509da5      .byte 0x00
            0x00509da6      .byte 0x00
            0x00509da7      .byte 0x00
            0x00509da8      .byte 0x00
            0x00509da9      .byte 0x00
            0x00509daa      .byte 0x00
            0x00509dab      .byte 0x00
            0x00509dac      .byte 0x00
            0x00509dad      .byte 0x00
            0x00509dae      .byte 0x00
            0x00509daf      .byte 0x00
            0x00509db0      .byte 0x00
            0x00509db1      .byte 0x00
            0x00509db2      .byte 0x41
            0x00509db3      .byte 0x40
            0x00509db4      .byte 0x00
            0x00509db5      .byte 0x00
            0x00509db6      .byte 0x00
            0x00509db7      .byte 0x00
            0x00509db8      .byte 0x00
            0x00509db9      .byte 0x00
            0x00509dba      .byte 0x00
            0x00509dbb      .byte 0x00
            0x00509dbc      .byte 0x00
            0x00509dbd      .byte 0x00
            0x00509dbe      .byte 0x1f
            0x00509dbf      .byte 0x00
            0x00509dc0      .byte 0x00
            0x00509dc1      .byte 0x00
            0x00509dc2      .byte 0xbf
            0x00509dc3      .byte 0x00
            0x00509dc4      .byte 0x00
            0x00509dc5      .byte 0x00
            0x00509dc6      .byte 0x01
            0x00509dc7      .byte 0x00
            0x00509dc8      .byte 0x00
            0x00509dc9      .byte 0x00
            0x00509dca      .byte 0x02
            0x00509dcb      .byte 0x00
            0x00509dcc      .byte 0x00
            0x00509dcd      .byte 0x00
            0x00509dce      .byte 0x00
            0x00509dcf      .byte 0x00
            0x00509dd0      .byte 0x00
            0x00509dd1      .byte 0x00
            0x00509dd2      .byte 0x00
            0x00509dd3      .byte 0x00
            0x00509dd4      .byte 0x00
            0x00509dd5      .byte 0x00
            0x00509dd6      .byte 0x00
            0x00509dd7      .byte 0x00
            0x00509dd8      .byte 0x00
            0x00509dd9      .byte 0x00
            0x00509dda      .byte 0x04
            0x00509ddb      .byte 0x00
            0x00509ddc      .byte 0x00
            0x00509ddd      .byte 0x00
            0x00509dde      .byte 0x3f
            0x00509ddf      .byte 0x80
            0x00509de0      .byte 0x00
            0x00509de1      .byte 0x00
            0x00509de2      .byte 0x3f
            0x00509de3      .byte 0x80
            0x00509de4      .byte 0x00
            0x00509de5      .byte 0x00
            0x00509de6      .byte 0x3f
            0x00509de7      .byte 0x80
            0x00509de8      .byte 0x00
            0x00509de9      .byte 0x00
            0x00509dea      .byte 0x3f
            0x00509deb      .byte 0x00
            0x00509dec      .byte 0x00
            0x00509ded      .byte 0x00
            0x00509dee      .byte 0x09
            0x00509def      .byte 0x00
            0x00509df0      .byte 0x00
            0x00509df1      .byte 0x00
            0x00509df2      .byte 0x00
            0x00509df3      .byte 0x00
            0x00509df4      .byte 0x00
            0x00509df5      .byte 0x00
            0x00509df6      .byte 0x00
            0x00509df7      .byte 0x00
            0x00509df8      .byte 0x00
            0x00509df9      .byte 0x00
            0x00509dfa      .byte 0x00
            0x00509dfb      .byte 0x00
            0x00509dfc      .byte 0x00
            0x00509dfd      .byte 0x00
            0x00509dfe      .byte 0x1b
            0x00509dff      .byte 0x00
            0x00509e00      .byte 0x00
            0x00509e01      .byte 0x00
            0x00509e02      .byte 0x00
            0x00509e03      .byte 0x00
            0x00509e04      .byte 0x00
            0x00509e05      .byte 0x00
            0x00509e06      .byte 0x00
            0x00509e07      .byte 0x00
            0x00509e08      .byte 0x00
            0x00509e09      .byte 0x00
            0x00509e0a      .byte 0x00
            0x00509e0b      .byte 0x00
            0x00509e0c      .byte 0x00
            0x00509e0d      .byte 0x00
            0x00509e0e      .byte 0x00
            0x00509e0f      .byte 0x01
            0x00509e10      .byte 0x00
            0x00509e11      .byte 0x00
            0x00509e12      .byte 0xbf
            0x00509e13      .byte 0x00
            0x00509e14      .byte 0x00
            0x00509e15      .byte 0x00
            0x00509e16      .byte 0x09
            0x00509e17      .byte 0x00
            0x00509e18      .byte 0x00
            0x00509e19      .byte 0x00
            0x00509e1a      .byte 0x01
            0x00509e1b      .byte 0x00
            0x00509e1c      .byte 0x00
            0x00509e1d      .byte 0x00
            0x00509e1e      .byte 0x12
            0x00509e1f      .byte 0x00
            0x00509e20      .byte 0x00
            0x00509e21      .byte 0x00
            0x00509e22      .byte 0x02
            0x00509e23      .byte 0x00
            0x00509e24      .byte 0x00
            0x00509e25      .byte 0x00
            0x00509e26      .byte 0x04
            0x00509e27      .byte 0x00
            0x00509e28      .byte 0x00
            0x00509e29      .byte 0x00
            0x00509e2a      .byte 0x3f
            0x00509e2b      .byte 0x00
            0x00509e2c      .byte 0x00
            0x00509e2d      .byte 0x00
            0x00509e2e      .byte 0x1f
            0x00509e2f      .byte 0x00
            0x00509e30      .byte 0x00
            0x00509e31      .byte 0x00
            0x00509e32      .byte 0x00
            0x00509e33      .byte 0x01
            0x00509e34      .byte 0x00
            0x00509e35      .byte 0x00
            0x00509e36      .byte 0x13
            0x00509e37      .byte 0x00
            0x00509e38      .byte 0x00
            0x00509e39      .byte 0x00
            0x00509e3a      .byte 0x00
            0x00509e3b      .byte 0x00
            0x00509e3c      .byte 0x00
            0x00509e3d      .byte 0x00
            0x00509e3e      .byte 0x00
            0x00509e3f      .byte 0x00
            0x00509e40      .byte 0x00
            0x00509e41      .byte 0x00
            0x00509e42      .byte 0x00
            0x00509e43      .byte 0x00
            0x00509e44      .byte 0x00
            0x00509e45      .byte 0x00
            0x00509e46      .byte 0x00
            0x00509e47      .byte 0x00
            0x00509e48      .byte 0x00
            0x00509e49      .byte 0x00
            0x00509e4a      .byte 0x00
            0x00509e4b      .byte 0x00
            0x00509e4c      .byte 0x00
            0x00509e4d      .byte 0x00
            0x00509e4e      .byte 0x00
            0x00509e4f      .byte 0x00
            0x00509e50      .byte 0x00
            0x00509e51      .byte 0x00
            0x00509e52      .byte 0x00
            0x00509e53      .byte 0x00
            0x00509e54      .byte 0x00
            0x00509e55      .byte 0x00
            0x00509e56      .byte 0x01
            0x00509e57      .byte 0x00
            0x00509e58      .byte 0x00
            0x00509e59      .byte 0x00
            0x00509e5a      .byte 0x02
            0x00509e5b      .byte 0x00
            0x00509e5c      .byte 0x00
            0x00509e5d      .byte 0x00
            0x00509e5e      .byte 0x04
            0x00509e5f      .byte 0x00
            0x00509e60      .byte 0x00
            0x00509e61      .byte 0x00
            0x00509e62      .byte 0x3f
            0x00509e63      .byte 0x00
            0x00509e64      .byte 0x00
            0x00509e65      .byte 0x00
            0x00509e66      .byte 0x00
            0x00509e67      .byte 0x01
            0x00509e68      .byte 0x00
            0x00509e69      .byte 0x00
            0x00509e6a      .byte 0x3f
            0x00509e6b      .byte 0x00
            0x00509e6c      .byte 0x00
            0x00509e6d      .byte 0x00
            0x00509e6e      .byte 0x00
            0x00509e6f      .byte 0x00
            0x00509e70      .byte 0x00
            0x00509e71      .byte 0x00
            0x00509e72      .byte 0x00
            0x00509e73      .byte 0x00
            0x00509e74      .byte 0x00
            0x00509e75      .byte 0x00
            0x00509e76      .byte 0x00
            0x00509e77      .byte 0x00
            0x00509e78      .byte 0x00
            0x00509e79      .byte 0x00
            0x00509e7a      .byte 0x09
            0x00509e7b      .byte 0x00
            0x00509e7c      .byte 0x00
            0x00509e7d      .byte 0x00
            0x00509e7e      .byte 0x01
            0x00509e7f      .byte 0x00
            0x00509e80      .byte 0x00
            0x00509e81      .byte 0x00
            0x00509e82      .byte 0x00
            0x00509e83      .byte 0x00
            0x00509e84      .byte 0x00
            0x00509e85      .byte 0x00
            0x00509e86      .byte 0x00
            0x00509e87      .byte 0x00
            0x00509e88      .byte 0x00
            0x00509e89      .byte 0x00
            0x00509e8a      .byte 0x00
            0x00509e8b      .byte 0x00
            0x00509e8c      .byte 0x00
            0x00509e8d      .byte 0x00
            0x00509e8e      .byte 0x1b
            0x00509e8f      .byte 0x00
            0x00509e90      .byte 0x00
            0x00509e91      .byte 0x00
            0x00509e92      .byte 0x03
            0x00509e93      .byte 0x00
            0x00509e94      .byte 0x00
            0x00509e95      .byte 0x00
            0x00509e96      .byte 0x02
            0x00509e97      .byte 0x00
            0x00509e98      .byte 0x00
            0x00509e99      .byte 0x00
            0x00509e9a      .byte 0x04
            0x00509e9b      .byte 0x00
            0x00509e9c      .byte 0x00
            0x00509e9d      .byte 0x00
            0x00509e9e      .byte 0x3f
            0x00509e9f      .byte 0x00
            0x00509ea0      .byte 0x00
            0x00509ea1      .byte 0x00
            0x00509ea2      .byte 0x80
            0x00509ea3      .byte 0x00
            0x00509ea4      .byte 0x00
            0x00509ea5      .byte 0x00
            0x00509ea6      .byte 0x00
            0x00509ea7      .byte 0x02
            0x00509ea8      .byte 0x00
            0x00509ea9      .byte 0x00
            0x00509eaa      .byte 0x00
            0x00509eab      .byte 0x02
            0x00509eac      .byte 0x00
            0x00509ead      .byte 0x00
            0x00509eae      .byte 0x00
            0x00509eaf      .byte 0x02
            0x00509eb0      .byte 0x00
            0x00509eb1      .byte 0x00
            0x00509eb2      .byte 0x00
            0x00509eb3      .byte 0x01
            0x00509eb4      .byte 0x00
            0x00509eb5      .byte 0x00
            0x00509eb6      .byte 0x1b
            0x00509eb7      .byte 0x00
            0x00509eb8      .byte 0x00
            0x00509eb9      .byte 0x00
            0x00509eba      .byte 0x03
            0x00509ebb      .byte 0x00
            0x00509ebc      .byte 0x00
            0x00509ebd      .byte 0x00
            0x00509ebe      .byte 0x02
            0x00509ebf      .byte 0x00
            0x00509ec0      .byte 0x00
            0x00509ec1      .byte 0x00
            0x00509ec2      .byte 0x00
            0x00509ec3      .byte 0x00
            0x00509ec4      .byte 0x00
            0x00509ec5      .byte 0x00
            0x00509ec6      .byte 0x00
            0x00509ec7      .byte 0x00
            0x00509ec8      .byte 0x00
            0x00509ec9      .byte 0x00
            0x00509eca      .byte 0x00
            0x00509ecb      .byte 0x00
            0x00509ecc      .byte 0x00
            0x00509ecd      .byte 0x00
            0x00509ece      .byte 0x03
            0x00509ecf      .byte 0x00
            0x00509ed0      .byte 0x00
            0x00509ed1      .byte 0x00
            0x00509ed2      .byte 0x00
            0x00509ed3      .byte 0x00
            0x00509ed4      .byte 0x00
            0x00509ed5      .byte 0x00
            0x00509ed6      .byte 0x00
            0x00509ed7      .byte 0x00
            0x00509ed8      .byte 0x00
            0x00509ed9      .byte 0x00
            0x00509eda      .byte 0x00
            0x00509edb      .byte 0x00
            0x00509edc      .byte 0x00
            0x00509edd      .byte 0x00
            0x00509ede      .byte 0x00
            0x00509edf      .byte 0x00
            0x00509ee0      .byte 0x00
            0x00509ee1      .byte 0x00
            0x00509ee2      .byte 0x00
            0x00509ee3      .byte 0x00
            0x00509ee4      .byte 0x00
            0x00509ee5      .byte 0x00
            0x00509ee6      .byte 0x00
            0x00509ee7      .byte 0x00
            0x00509ee8      .byte 0x00
            0x00509ee9      .byte 0x00
            0x00509eea      .byte 0x00
            0x00509eeb      .byte 0x00
            0x00509eec      .byte 0x00
            0x00509eed      .byte 0x00
            0x00509eee      .byte 0x00
            0x00509eef      .byte 0x01
            0x00509ef0      .byte 0x00
            0x00509ef1      .byte 0x00
            0x00509ef2      .byte 0x03
            0x00509ef3      .byte 0x00
            0x00509ef4      .byte 0x00
            0x00509ef5      .byte 0x00
            0x00509ef6      .byte 0x00
            0x00509ef7      .byte 0x00
            0x00509ef8      .byte 0x00
            0x00509ef9      .byte 0x00
            0x00509efa      .byte 0x00
            0x00509efb      .byte 0x00
            0x00509efc      .byte 0x00
            0x00509efd      .byte 0x00
            0x00509efe      .byte 0x00
            0x00509eff      .byte 0x00
            0x00509f00      .byte 0x00
            0x00509f01      .byte 0x00
            0x00509f02      .byte 0x00
            0x00509f03      .byte 0x00
            0x00509f04      .byte 0x00
            0x00509f05      .byte 0x00
            0x00509f06      .byte 0x00
            0x00509f07      .byte 0x00
            0x00509f08      .byte 0x00
            0x00509f09      .byte 0x00
            0x00509f0a      .byte 0x00
            0x00509f0b      .byte 0x00
            0x00509f0c      .byte 0x00
            0x00509f0d      .byte 0x00
            0x00509f0e      .byte 0x00
            0x00509f0f      .byte 0x00
            0x00509f10      .byte 0x00
            0x00509f11      .byte 0x00
            0x00509f12      .byte 0x1f
            0x00509f13      .byte 0x00
            0x00509f14      .byte 0x00
            0x00509f15      .byte 0x00
            0x00509f16      .byte 0xbf
            0x00509f17      .byte 0x00
            0x00509f18      .byte 0x00
            0x00509f19      .byte 0x00
            0x00509f1a      .byte 0x03
            0x00509f1b      .byte 0x00
            0x00509f1c      .byte 0x00
            0x00509f1d      .byte 0x00
            0x00509f1e      .byte 0x00
            0x00509f1f      .byte 0x00
            0x00509f20      .byte 0x00
            0x00509f21      .byte 0x00
            0x00509f22      .byte 0x00
            0x00509f23      .byte 0x00
            0x00509f24      .byte 0x00
            0x00509f25      .byte 0x00
            0x00509f26      .byte 0x00
            0x00509f27      .byte 0x00
            0x00509f28      .byte 0x00
            0x00509f29      .byte 0x00
            0x00509f2a      .byte 0x00
            0x00509f2b      .byte 0x00
            0x00509f2c      .byte 0x00
            0x00509f2d      .byte 0x00
            0x00509f2e      .byte 0x00
            0x00509f2f      .byte 0x00
            0x00509f30      .byte 0x00
            0x00509f31      .byte 0x00
            0x00509f32      .byte 0x00
            0x00509f33      .byte 0x00
            0x00509f34      .byte 0x00
            0x00509f35      .byte 0x00
            0x00509f36      .byte 0x00
            0x00509f37      .byte 0x00
            0x00509f38      .byte 0x00
            0x00509f39      .byte 0x00
            0x00509f3a      .byte 0x03
            0x00509f3b      .byte 0x00
            0x00509f3c      .byte 0x00
            0x00509f3d      .byte 0x00
            0x00509f3e      .byte 0x00
            0x00509f3f      .byte 0x00
            0x00509f40      .byte 0x00
            0x00509f41      .byte 0x00
            0x00509f42      .byte 0x00
            0x00509f43      .byte 0x00
            0x00509f44      .byte 0x00
            0x00509f45      .byte 0x00
            0x00509f46      .byte 0x00
            0x00509f47      .byte 0x00
            0x00509f48      .byte 0x00
            0x00509f49      .byte 0x00
            0x00509f4a      .byte 0x00
            0x00509f4b      .byte 0x00
            0x00509f4c      .byte 0x00
            0x00509f4d      .byte 0x00
            0x00509f4e      .byte 0x00
            0x00509f4f      .byte 0x00
            0x00509f50      .byte 0x00
            0x00509f51      .byte 0x00
            0x00509f52      .byte 0x00
            0x00509f53      .byte 0x00
            0x00509f54      .byte 0x00
            0x00509f55      .byte 0x00
            0x00509f56      .byte 0x00
            0x00509f57      .byte 0x00
            0x00509f58      .byte 0x00
            0x00509f59      .byte 0x00
            0x00509f5a      .byte 0x03
            0x00509f5b      .byte 0x00
            0x00509f5c      .byte 0x00
            0x00509f5d      .byte 0x00
            0x00509f5e      .byte 0x00
            0x00509f5f      .byte 0x00
            0x00509f60      .byte 0x00
            0x00509f61      .byte 0x00
            0x00509f62      .byte 0x00
            0x00509f63      .byte 0x00
            0x00509f64      .byte 0x00
            0x00509f65      .byte 0x00
            0x00509f66      .byte 0x00
            0x00509f67      .byte 0x00
            0x00509f68      .byte 0x00
            0x00509f69      .byte 0x00
            0x00509f6a      .byte 0x00
            0x00509f6b      .byte 0x00
            0x00509f6c      .byte 0x00
            0x00509f6d      .byte 0x00
            0x00509f6e      .byte 0x00
            0x00509f6f      .byte 0x00
            0x00509f70      .byte 0x00
            0x00509f71      .byte 0x00
            0x00509f72      .byte 0x00
            0x00509f73      .byte 0x00
            0x00509f74      .byte 0x00
            0x00509f75      .byte 0x00
            0x00509f76      .byte 0x00
            0x00509f77      .byte 0x00
            0x00509f78      .byte 0x00
            0x00509f79      .byte 0x00
            0x00509f7a      .byte 0x01
            0x00509f7b      .byte 0x00
            0x00509f7c      .byte 0x00
            0x00509f7d      .byte 0x00
            0x00509f7e      .byte 0x08
            0x00509f7f      .byte 0x00
            0x00509f80      .byte 0x00
            0x00509f81      .byte 0x00
            0x00509f82      .byte 0x01
            0x00509f83      .byte 0x00
            0x00509f84      .byte 0x00
            0x00509f85      .byte 0x00
            0x00509f86      .byte 0x3f
            0x00509f87      .byte 0x00
            0x00509f88      .byte 0x00
            0x00509f89      .byte 0x00
            0x00509f8a      .byte 0x1f
            0x00509f8b      .byte 0x00
            0x00509f8c      .byte 0x00
            0x00509f8d      .byte 0x00
            0x00509f8e      .byte 0x09
            0x00509f8f      .byte 0x00
            0x00509f90      .byte 0x00
            0x00509f91      .byte 0x00
            0x00509f92      .byte 0x01
            0x00509f93      .byte 0x00
            0x00509f94      .byte 0x00
            0x00509f95      .byte 0x00
            0x00509f96      .byte 0x1b
            0x00509f97      .byte 0x00
            0x00509f98      .byte 0x00
            0x00509f99      .byte 0x00
            0x00509f9a      .byte 0x03
            0x00509f9b      .byte 0x00
            0x00509f9c      .byte 0x00
            0x00509f9d      .byte 0x00
            0x00509f9e      .byte 0x02
            0x00509f9f      .byte 0x00
            0x00509fa0      .byte 0x00
            0x00509fa1      .byte 0x00
            0x00509fa2      .byte 0x04
            0x00509fa3      .byte 0x00
            0x00509fa4      .byte 0x00
            0x00509fa5      .byte 0x00
            0x00509fa6      .byte 0x3f
            0x00509fa7      .byte 0x00
            0x00509fa8      .byte 0x00
            0x00509fa9      .byte 0x00
            0x00509faa      .byte 0x80
            0x00509fab      .byte 0x00
            0x00509fac      .byte 0x00
            0x00509fad      .byte 0x00
            0x00509fae      .byte 0x00
            0x00509faf      .byte 0x01
            0x00509fb0      .byte 0x00
            0x00509fb1      .byte 0x00
            0x00509fb2      .byte 0x24
            0x00509fb3      .byte 0x00
            0x00509fb4      .byte 0xfe
            0x00509fb5      .byte 0x00
            0x00509fb6      .byte 0x00
            0x00509fb7      .byte 0x00
            0x00509fb8      .byte 0xc0
            0x00509fb9      .byte 0x01
            0x00509fba      .byte 0x1d
            0x00509fbb      .byte 0x00
            0x00509fbc      .byte 0x1d
            0x00509fbd      .byte 0x00
            0x00509fbe      .byte 0x1d
            0x00509fbf      .byte 0x00
            0x00509fc0      .byte 0xe0
            0x00509fc1      .byte 0x07
            0x00509fc2      .byte 0xc0
            0x00509fc3      .byte 0x01
            0x00509fc4      .byte 0x18
            0x00509fc5      .byte 0x00
            0x00509fc6      .byte 0x0c
            0x00509fc7      .byte 0x04
            0x00509fc8      .byte 0x5c
            0x00509fc9      .byte 0x6e
            0x00509fca      .byte 0x3c
            0x00509fcb      .byte 0x25
            0x00509fcc      .byte 0x03
            0x00509fcd      .byte 0x3c
            0x00509fce      .byte 0x3c
            0x00509fcf      .byte 0x3c
            0x00509fd0      .byte 0x08
            0x00509fd1     .string "pressure" ; len=8
            0x00509fd9      .byte 0x16
            0x00509fda     .string "Contour option enabled" ; len=22
            0x00509ff0      .byte 0x00
            0x00509ff1      .byte 0x08
            0x00509ff2      .byte 0x00
            0x00509ff3      .byte 0x00
            0x00509ff4      .byte 0x05
            0x00509ff5     .string "<<pos" ; len=5
            0x00509ffa      .byte 0x06
            0x00509ffb     .string "<<spin" ; len=6
            0x0050a001      .byte 0x06
            0x0050a002     .string "<<size" ; len=6
            0x0050a008      .byte 0x00
            0x0050a009      .byte 0x08
            0x0050a00a      .byte 0x00
            0x0050a00b      .byte 0x00
            0x0050a00c      .byte 0x03
            0x0050a00d      .byte 0x2a
            0x0050a00e      .byte 0x66
            0x0050a00f      .byte 0x62
            0x0050a010      .byte 0x03
            0x0050a011      .byte 0x70
            0x0050a012      .byte 0x69
            0x0050a013      .byte 0x6e
            0x0050a014      .byte 0x06
            0x0050a015     .string "global" ; len=6
            0x0050a01b      .byte 0x0c
            0x0050a01c     .string "<<a<xis>only" ; len=12
            0x0050a028      .byte 0x06
            0x0050a029     .string "screen" ; len=6
            0x0050a02f      .byte 0x07
            0x0050a030     .string "<<<frnt" ; len=7
            0x0050a037      .byte 0x06
            0x0050a038     .string "<<<bck" ; len=6
            0x0050a03e      .byte 0x06
            0x0050a03f     .string ">>b>>f" ; len=6
            0x0050a045      .byte 0x06
            0x0050a046     .string ">>f>>b" ; len=6
            0x0050a04c      .byte 0x00
            0x0050a04d      .byte 0x04
            0x0050a04e      .byte 0x00
            0x0050a04f      .byte 0x00
            0x0050a050      .byte 0x06
            0x0050a051     .string "attach" ; len=6
            0x0050a057      .byte 0x00
            0x0050a058      .byte 0x00
            0x0050a059      .byte 0x04
            0x0050a05a      .byte 0x00
            0x0050a05b      .byte 0x00
            0x0050a05c      .byte 0x06
            0x0050a05d     .string "detach" ; len=6
            0x0050a063      .byte 0x0a
            0x0050a064     .string "alf>>>bgnd" ; len=10
            0x0050a06e      .byte 0x0a
            0x0050a06f     .string "alf>>>fgnd" ; len=10
            0x0050a079      .byte 0x0a
            0x0050a07a     .string "alf>>>bgnd" ; len=10
            0x0050a084      .byte 0x05
            0x0050a085     .string "<flat" ; len=5
            0x0050a08a      .byte 0x03
            0x0050a08b      .byte 0x6c
            0x0050a08c      .byte 0x66
            0x0050a08d      .byte 0x78
            0x0050a08e      .byte 0x06
            0x0050a08f     .string "<<undo" ; len=6
            0x0050a095      .byte 0x06
            0x0050a096     .string "<<edge" ; len=6
            0x0050a09c      .byte 0x02
            0x0050a09d      .byte 0x6c
            0x0050a09e      .byte 0x6f
            0x0050a09f      .byte 0x02
            0x0050a0a0      .byte 0x25
            0x0050a0a1      .byte 0x20
            0x0050a0a2      .byte 0x03
            0x0050a0a3      .byte 0x68
            0x0050a0a4      .byte 0x69
            0x0050a0a5      .byte 0x31
            0x0050a0a6      .byte 0x02
            0x0050a0a7      .byte 0x25
            0x0050a0a8      .byte 0x20
            0x0050a0a9      .byte 0x02
            0x0050a0aa      .byte 0x77
            0x0050a0ab      .byte 0x3e
            0x0050a0ac      .byte 0x02
            0x0050a0ad      .byte 0x20
            0x0050a0ae      .byte 0x20
            0x0050a0af      .byte 0x03
            0x0050a0b0      .byte 0x68
            0x0050a0b1      .byte 0x69
            0x0050a0b2      .byte 0x32
            0x0050a0b3      .byte 0x02
            0x0050a0b4      .byte 0x25
            0x0050a0b5      .byte 0x20
            0x0050a0b6      .byte 0x02
            0x0050a0b7      .byte 0x77
            0x0050a0b8      .byte 0x3e
            0x0050a0b9      .byte 0x03
            0x0050a0ba      .byte 0x73
            0x0050a0bb      .byte 0x65
            0x0050a0bc      .byte 0x74
            0x0050a0bd      .byte 0x06
            0x0050a0be     .string "<<crop" ; len=6
            0x0050a0c4      .byte 0x03
            0x0050a0c5      .byte 0x3c
            0x0050a0c6      .byte 0x3c
            0x0050a0c7      .byte 0x3c
            0x0050a0c8      .byte 0x03
            0x0050a0c9      .byte 0x3c
            0x0050a0ca      .byte 0x3c
            0x0050a0cb      .byte 0x3c
            0x0050a0cc      .byte 0x03
            0x0050a0cd      .byte 0x3c
            0x0050a0ce      .byte 0x3c
            0x0050a0cf      .byte 0x3c
            0x0050a0d0      .byte 0x03
            0x0050a0d1      .byte 0x3c
            0x0050a0d2      .byte 0x3c
            0x0050a0d3      .byte 0x3c
            0x0050a0d4      .byte 0x04
            0x0050a0d5      .byte 0x62
            0x0050a0d6      .byte 0x6f
            0x0050a0d7      .byte 0x72
            0x0050a0d8      .byte 0x64
            0x0050a0d9      .byte 0x02
            0x0050a0da      .byte 0x20
            0x0050a0db      .byte 0x20
            0x0050a0dc      .byte 0x08
            0x0050a0dd     .string "bord col" ; len=8
            0x0050a0e5      .byte 0x03
            0x0050a0e6      .byte 0x3c
            0x0050a0e7      .byte 0x3c
            0x0050a0e8      .byte 0x3c
            0x0050a0e9      .byte 0x04
            0x0050a0ea      .byte 0x73
            0x0050a0eb      .byte 0x6f
            0x0050a0ec      .byte 0x66
            0x0050a0ed      .byte 0x74
            0x0050a0ee      .byte 0x02
            0x0050a0ef      .byte 0x3c
            0x0050a0f0      .byte 0x3c
            0x0050a0f1      .byte 0x05
            0x0050a0f2     .string "<flat" ; len=5
            0x0050a0f7      .byte 0x04
            0x0050a0f8      .byte 0x75
            0x0050a0f9      .byte 0x6e
            0x0050a0fa      .byte 0x64
            0x0050a0fb      .byte 0x6f
            0x0050a0fc      .byte 0x00
            0x0050a0fd      .byte 0x08
            0x0050a0fe      .byte 0x00
            0x0050a0ff      .byte 0x00
            0x0050a100      .byte 0x09
            0x0050a101     .string "pos>>>xyz" ; len=9
            0x0050a10a      .byte 0x0b
            0x0050a10b     .string "<spin>>>xyz" ; len=11
            0x0050a116      .byte 0x0b
            0x0050a117     .string "<<size>>>xy" ; len=11
            0x0050a122      .byte 0x00
            0x0050a123      .byte 0x08
            0x0050a124      .byte 0x00
            0x0050a125      .byte 0x00
            0x0050a126      .byte 0x03
            0x0050a127      .byte 0x2a
            0x0050a128      .byte 0x66
            0x0050a129      .byte 0x62
            0x0050a12a      .byte 0x03
            0x0050a12b      .byte 0x70
            0x0050a12c      .byte 0x69
            0x0050a12d      .byte 0x6e
            0x0050a12e      .byte 0x0c
            0x0050a12f     .string "<<a<xis>only" ; len=12
            0x0050a13b      .byte 0x06
            0x0050a13c     .string "screen" ; len=6
            0x0050a142      .byte 0x00
            0x0050a143      .byte 0x04
            0x0050a144      .byte 0x00
            0x0050a145      .byte 0x00
            0x0050a146      .byte 0x06
            0x0050a147     .string "attach" ; len=6
            0x0050a14d      .byte 0x00
            0x0050a14e      .byte 0x00
            0x0050a14f      .byte 0x04
            0x0050a150      .byte 0x00
            0x0050a151      .byte 0x00
            0x0050a152      .byte 0x06
            0x0050a153     .string "detach" ; len=6
            0x0050a159      .byte 0x09
            0x0050a15a     .string "no>>>back" ; len=9
            0x0050a163      .byte 0x02
            0x0050a164      .byte 0x2a
            0x0050a165      .byte 0x2a
            0x0050a166      .byte 0x04
            0x0050a167      .byte 0x62
            0x0050a168      .byte 0x65
            0x0050a169      .byte 0x6e
            0x0050a16a      .byte 0x64
            0x0050a16b      .byte 0x05
            0x0050a16c     .string "point" ; len=5
            0x0050a171      .byte 0x03
            0x0050a172      .byte 0x78
            0x0050a173      .byte 0x3e
            0x0050a174      .byte 0x3e
            0x0050a175      .byte 0x03
            0x0050a176      .byte 0x79
            0x0050a177      .byte 0x3e
            0x0050a178      .byte 0x3e
            0x0050a179      .byte 0x03
            0x0050a17a      .byte 0x7a
            0x0050a17b      .byte 0x3e
            0x0050a17c      .byte 0x3e
            0x0050a17d      .byte 0x04
            0x0050a17e      .byte 0x77
            0x0050a17f      .byte 0x72
            0x0050a180      .byte 0x61
            0x0050a181      .byte 0x70
            0x0050a182      .byte 0x02
            0x0050a183      .byte 0x78
            0x0050a184      .byte 0x3e
            0x0050a185      .byte 0x02
            0x0050a186      .byte 0x79
            0x0050a187      .byte 0x3e
            0x0050a188      .byte 0x05
            0x0050a189     .string "xs>>>" ; len=5
            0x0050a18e      .byte 0x05
            0x0050a18f     .string "ys>>>" ; len=5
            0x0050a194      .byte 0x06
            0x0050a195     .string "turn>>" ; len=6
            0x0050a19b      .byte 0x05
            0x0050a19c     .string "wrap>" ; len=5
            0x0050a1a1      .byte 0x07
            0x0050a1a2     .string "start>>" ; len=7
            0x0050a1a9      .byte 0x07
            0x0050a1aa     .string "<<angle" ; len=7
            0x0050a1b1      .byte 0x06
            0x0050a1b2     .string "ripple" ; len=6
            0x0050a1b8      .byte 0x06
            0x0050a1b9     .string "xyz  <" ; len=6
            0x0050a1bf      .byte 0x08
            0x0050a1c0     .string "z    >>>" ; len=8
            0x0050a1c8      .byte 0x05
            0x0050a1c9     .string "start" ; len=5
            0x0050a1ce      .byte 0x09
            0x0050a1cf     .string "freq>>>>>" ; len=9
            0x0050a1d8      .byte 0x00
            0x0050a1d9      .byte 0x00
            0x0050a1da      .byte 0x3f
            0x0050a1db      .byte 0x00
            0x0050a1dc      .byte 0x00
            0x0050a1dd      .byte 0x00
            0x0050a1de      .byte 0x3f
            0x0050a1df      .byte 0x80
            0x0050a1e0      .byte 0x00
            0x0050a1e1      .byte 0x00
            0x0050a1e2      .byte 0x00
            0x0050a1e3      .byte 0x00
            0x0050a1e4      .byte 0x00
            0x0050a1e5      .byte 0x00
            0x0050a1e6      .byte 0x00
            0x0050a1e7      .byte 0x00
            0x0050a1e8      .byte 0x00
            0x0050a1e9      .byte 0x00
            0x0050a1ea      .byte 0x00
            0x0050a1eb      .byte 0x00
            0x0050a1ec      .byte 0x00
            0x0050a1ed      .byte 0x00
            0x0050a1ee      .byte 0x00
            0x0050a1ef      .byte 0x10
            0x0050a1f0      .byte 0x00
            0x0050a1f1      .byte 0x80
            0x0050a1f2      .byte 0x00
            0x0050a1f3      .byte 0x80
            0x0050a1f4      .byte 0x00
            0x0050a1f5      .byte 0x00
            0x0050a1f6      .byte 0x3f
            0x0050a1f7      .byte 0x00
            0x0050a1f8      .byte 0x00
            0x0050a1f9      .byte 0x00
            0x0050a1fa      .byte 0x3f
            0x0050a1fb      .byte 0x80
            0x0050a1fc      .byte 0x00
            0x0050a1fd      .byte 0x00
            0x0050a1fe      .byte 0x00
            0x0050a1ff      .byte 0x00
            0x0050a200      .byte 0x00
            0x0050a201      .byte 0x00
            0x0050a202      .byte 0x00
            0x0050a203      .byte 0x00
            0x0050a204      .byte 0x00
            0x0050a205      .byte 0x00
            0x0050a206      .byte 0x00
            0x0050a207      .byte 0x00
            0x0050a208      .byte 0x00
            0x0050a209      .byte 0x00
            0x0050a20a      .byte 0x00
            0x0050a20b      .byte 0xeb
            0x0050a20c      .byte 0x00
            0x0050a20d      .byte 0x80
            0x0050a20e      .byte 0x00
            0x0050a20f      .byte 0x80
            0x0050a210      .byte 0x00
            0x0050a211      .byte 0x00
            0x0050a212      .byte 0x3f
            0x0050a213      .byte 0x00
            0x0050a214      .byte 0x00
            0x0050a215      .byte 0x00
            0x0050a216      .byte 0x3f
            0x0050a217      .byte 0x80
            0x0050a218      .byte 0x00
            0x0050a219      .byte 0x00
            0x0050a21a      .byte 0x00
            0x0050a21b      .byte 0x00
            0x0050a21c      .byte 0x00
            0x0050a21d      .byte 0x00
            0x0050a21e      .byte 0x00
            0x0050a21f      .byte 0x00
            0x0050a220      .byte 0x00
            0x0050a221      .byte 0x00
            0x0050a222      .byte 0x00
            0x0050a223      .byte 0x00
            0x0050a224      .byte 0x00
            0x0050a225      .byte 0x00
            0x0050a226      .byte 0x00
            0x0050a227      .byte 0xeb
            0x0050a228      .byte 0x00
            0x0050a229      .byte 0x80
            0x0050a22a      .byte 0x00
            0x0050a22b      .byte 0x80
            0x0050a22c      .byte 0x00
            0x0050a22d      .byte 0x04
            0x0050a22e      .byte 0x00
            0x0050a22f      .byte 0x00
            0x0050a230      .byte 0x06
            0x0050a231     .string "fields" ; len=6
            0x0050a237      .byte 0x02
            0x0050a238      .byte 0x3c
            0x0050a239      .byte 0x3c
            0x0050a23a      .byte 0x05
            0x0050a23b     .string "pos x" ; len=5
            0x0050a240      .byte 0x02
            0x0050a241      .byte 0x3c
            0x0050a242      .byte 0x3c
            0x0050a243      .byte 0x05
            0x0050a244     .string "pos y" ; len=5
            0x0050a249      .byte 0x02
            0x0050a24a      .byte 0x3c
            0x0050a24b      .byte 0x3c
            0x0050a24c      .byte 0x05
            0x0050a24d     .string "pos z" ; len=5
            0x0050a252      .byte 0x02
            0x0050a253      .byte 0x3c
            0x0050a254      .byte 0x3c
            0x0050a255      .byte 0x06
            0x0050a256     .string "spin x" ; len=6
            0x0050a25c      .byte 0x02
            0x0050a25d      .byte 0x3c
            0x0050a25e      .byte 0x3c
            0x0050a25f      .byte 0x06
            0x0050a260     .string "spin y" ; len=6
            0x0050a266      .byte 0x02
            0x0050a267      .byte 0x3c
            0x0050a268      .byte 0x3c
            0x0050a269      .byte 0x06
            0x0050a26a     .string "spin z" ; len=6
            0x0050a270      .byte 0x05
            0x0050a271     .string "*spin" ; len=5
            0x0050a276      .byte 0x00
            0x0050a277      .byte 0x08
            0x0050a278      .byte 0x00
            0x0050a279      .byte 0x00
            0x0050a27a      .byte 0x03
            0x0050a27b      .byte 0x69
            0x0050a27c      .byte 0x6e
            0x0050a27d      .byte 0x63
            0x0050a27e      .byte 0x06
            0x0050a27f     .string "<<<dec" ; len=6
            0x0050a285      .byte 0x03
            0x0050a286      .byte 0x71
            0x0050a287      .byte 0x74
            0x0050a288      .byte 0x72
            0x0050a289      .byte 0x06
            0x0050a28a     .string "<<half" ; len=6
            0x0050a290      .byte 0x05
            0x0050a291     .string "whole" ; len=5
            0x0050a296      .byte 0x02
            0x0050a297      .byte 0x3c
            0x0050a298      .byte 0x3c
            0x0050a299      .byte 0x06
            0x0050a29a     .string "size x" ; len=6
            0x0050a2a0      .byte 0x02
            0x0050a2a1      .byte 0x3c
            0x0050a2a2      .byte 0x3c
            0x0050a2a3      .byte 0x06
            0x0050a2a4     .string "size y" ; len=6
            0x0050a2aa      .byte 0x02
            0x0050a2ab      .byte 0x3c
            0x0050a2ac      .byte 0x3c
            0x0050a2ad      .byte 0x06
            0x0050a2ae     .string "size z" ; len=6
            0x0050a2b4      .byte 0x00
            0x0050a2b5      .byte 0x04
            0x0050a2b6      .byte 0x00
            0x0050a2b7      .byte 0x00
            0x0050a2b8      .byte 0x03
            0x0050a2b9      .byte 0x74
            0x0050a2ba      .byte 0x6f
            0x0050a2bb      .byte 0x70
            0x0050a2bc      .byte 0x04
            0x0050a2bd      .byte 0x74
            0x0050a2be      .byte 0x61
            0x0050a2bf      .byte 0x67
            0x0050a2c0      .byte 0x73
            0x0050a2c1      .byte 0x08
            0x0050a2c2     .string "<<&<size" ; len=8
            0x0050a2ca      .byte 0x00
            0x0050a2cb      .byte 0x08
            0x0050a2cc      .byte 0x00
            0x0050a2cd      .byte 0x00
            0x0050a2ce      .byte 0x09
            0x0050a2cf     .string "<<&<edges" ; len=9
            0x0050a2d8      .byte 0x01
            0x0050a2d9      .byte 0x20
            0x0050a2da      .byte 0x01
            0x0050a2db      .byte 0x1a
            0x0050a2dc      .byte 0x01
            0x0050a2dd      .byte 0x20
            0x0050a2de      .byte 0x01
            0x0050a2df      .byte 0x14
            0x0050a2e0      .byte 0x01
            0x0050a2e1      .byte 0x20
            0x0050a2e2      .byte 0x01
            0x0050a2e3      .byte 0x18
            0x0050a2e4      .byte 0x01
            0x0050a2e5      .byte 0x20
            0x0050a2e6      .byte 0x01
            0x0050a2e7      .byte 0x16
            0x0050a2e8      .byte 0x02
            0x0050a2e9      .byte 0x3c
            0x0050a2ea      .byte 0x3c
            0x0050a2eb      .byte 0x05
            0x0050a2ec     .string "pin x" ; len=5
            0x0050a2f1      .byte 0x02
            0x0050a2f2      .byte 0x3c
            0x0050a2f3      .byte 0x3c
            0x0050a2f4      .byte 0x05
            0x0050a2f5     .string "pin y" ; len=5
            0x0050a2fa      .byte 0x08
            0x0050a2fb     .string "<<o<r<ig" ; len=8
            0x0050a303      .byte 0x03
            0x0050a304      .byte 0x61
            0x0050a305      .byte 0x6c
            0x0050a306      .byte 0x6c
            0x0050a307      .byte 0x06
            0x0050a308     .string " curve" ; len=6
            0x0050a30e      .byte 0x00
            0x0050a30f      .byte 0x04
            0x0050a310      .byte 0x00
            0x0050a311      .byte 0x00
            0x0050a312      .byte 0x02
            0x0050a313      .byte 0x20
            0x0050a314      .byte 0x20
            0x0050a315      .byte 0x0b
            0x0050a316     .string "keyfrm info" ; len=11
            0x0050a321      .byte 0x00
            0x0050a322      .byte 0x00
            0x0050a323      .byte 0x04
            0x0050a324      .byte 0x00
            0x0050a325      .byte 0x00
            0x0050a326      .byte 0x03
            0x0050a327      .byte 0x3c
            0x0050a328      .byte 0x3c
            0x0050a329      .byte 0x3c
            0x0050a32a      .byte 0x01
            0x0050a32b      .byte 0x15
            0x0050a32c      .byte 0x0b
            0x0050a32d     .string "straight to" ; len=11
            0x0050a338      .byte 0x00
            0x0050a339      .byte 0x04
            0x0050a33a      .byte 0x00
            0x0050a33b      .byte 0x00
            0x0050a33c      .byte 0x02
            0x0050a33d      .byte 0x53
            0x0050a33e      .byte 0x20
            0x0050a33f      .byte 0x00
            0x0050a340      .byte 0x00
            0x0050a341      .byte 0x04
            0x0050a342      .byte 0x00
            0x0050a343      .byte 0x00
            0x0050a344      .byte 0x03
            0x0050a345      .byte 0x3c
            0x0050a346      .byte 0x3c
            0x0050a347      .byte 0x3c
            0x0050a348      .byte 0x01
            0x0050a349      .byte 0x15
            0x0050a34a      .byte 0x0d
            0x0050a34b     .string "straight from" ; len=13
            0x0050a358      .byte 0x03
            0x0050a359      .byte 0x6c
            0x0050a35a      .byte 0x69
            0x0050a35b      .byte 0x6e
            0x0050a35c      .byte 0x0a
            0x0050a35d     .string "<<<c<u<r<v" ; len=10
            0x0050a367      .byte 0x0c
            0x0050a368      .byte 0x3c
            0x0050a369      .byte 0x3c
            0x0050a36a      .byte 0x6b
            0x0050a36b      .byte 0x3c
            0x0050a36c      .byte 0x65
            0x0050a36d      .byte 0x79
            0x0050a36e      .byte 0x3c
            0x0050a36f      .byte 0x66
            0x0050a370      .byte 0x72
            0x0050a371      .byte 0x6d
            0x0050a372      .byte 0x3c
            0x0050a373      .byte 0x73
 84: MENU3DCOM.PAS.pick_triad ();
           0x0050a374      4e56ffee       link.w a6, 0xffee
           0x0050a378      bfd5           cmpa.l (a5), a7
       < 0x0050a37a      6206           bhi.b 0x50a382
          0x0050a37c      44fc0002       move.w 0x2, ccr
          0x0050a380      4e76           trapv
       > 0x0050a382      defc0012       adda.w 0x12, a7
           0x0050a386      48e7c000       movem.l d0-d1, -(a7)
           0x0050a38a      554f           subq.w 0x2, a7
           0x0050a38c      3f390083e402   move.w 0x83e402, -(a7)
           0x0050a392      4eb900480fc2   jsr MENUCOM.get_boxon
           0x0050a398      544f           addq.w 0x2, a7
           0x0050a39a      101f           move.b (a7)+, d0
           0x0050a39c      4400           neg.b d0
           0x0050a39e      5200           addq.b 0x1, d0
           0x0050a3a0      554f           subq.w 0x2, a7
           0x0050a3a2      3f3c007f       move.w 0x7f, -(a7)
           0x0050a3a6      4eb900480fc2   jsr MENUCOM.get_boxon
           0x0050a3ac      544f           addq.w 0x2, a7
           0x0050a3ae      121f           move.b (a7)+, d1
           0x0050a3b0      4401           neg.b d1
           0x0050a3b2      5201           addq.b 0x1, d1
           0x0050a3b4      c200           and.b d0, d1
           0x0050a3b6      4881           ext.w d1
           0x0050a3b8      43bc0001       chk.w 0x1, d1
           0x0050a3bc      1d410008       move.b d1, 0x8(a6)
           0x0050a3c0      4cdf0003       movem.l (a7)+, d0-d1
           0x0050a3c4      4e5e           unlk a6
           0x0050a3c6      4e75           rts
 74: MENU3DCOM.PAS.pick_corners ();
           0x0050a3c8      4e56fff2       link.w a6, 0xfff2
           0x0050a3cc      bfd5           cmpa.l (a5), a7
       < 0x0050a3ce      6206           bhi.b 0x50a3d6
          0x0050a3d0      44fc0002       move.w 0x2, ccr
          0x0050a3d4      4e76           trapv
       > 0x0050a3d6      defc000e       adda.w 0xe, a7
           0x0050a3da      48e78000       movem.l d0, -(a7)
           0x0050a3de      554f           subq.w 0x2, a7
           0x0050a3e0      3f390083e402   move.w 0x83e402, -(a7)
           0x0050a3e6      4eb900480fc2   jsr MENUCOM.get_boxon
           0x0050a3ec      3f3c007f       move.w 0x7f, -(a7)
           0x0050a3f0      4eb900480fc2   jsr MENUCOM.get_boxon
           0x0050a3f6      544f           addq.w 0x2, a7
           0x0050a3f8      102f0002       move.b 0x2(a7), d0
           0x0050a3fc      801f           or.b (a7)+, d0
           0x0050a3fe      544f           addq.w 0x2, a7
           0x0050a400      4880           ext.w d0
           0x0050a402      41bc0001       chk.w 0x1, d0
           0x0050a406      1d400008       move.b d0, 0x8(a6)
           0x0050a40a      4cdf0001       movem.l (a7)+, d0
           0x0050a40e      4e5e           unlk a6
           0x0050a410      4e75           rts
 82: MENU3DCOM.PAS.pick_edges ();
           0x0050a412      4e56ffee       link.w a6, 0xffee
           0x0050a416      bfd5           cmpa.l (a5), a7
       < 0x0050a418      6206           bhi.b 0x50a420
          0x0050a41a      44fc0002       move.w 0x2, ccr
          0x0050a41e      4e76           trapv
       > 0x0050a420      defc0012       adda.w 0x12, a7
           0x0050a424      48e78080       movem.l d0/a0, -(a7)
           0x0050a428      41f900480fc2   lea.l MENUCOM.get_boxon, a0
           0x0050a42e      554f           subq.w 0x2, a7
           0x0050a430      3f3c007f       move.w 0x7f, -(a7)
           0x0050a434      4e90           jsr (a0)                    ; fcn.00000009
           0x0050a436      3f390083e38c   move.w 0x83e38c, -(a7)
           0x0050a43c      4e90           jsr (a0)                    ; fcn.00000009
           0x0050a43e      544f           addq.w 0x2, a7
           0x0050a440      102f0002       move.b 0x2(a7), d0
           0x0050a444      c01f           and.b (a7)+, d0
           0x0050a446      3f390083e402   move.w 0x83e402, -(a7)
           0x0050a44c      4e90           jsr (a0)                    ; fcn.00000009
           0x0050a44e      544f           addq.w 0x2, a7
           0x0050a450      801f           or.b (a7)+, d0
           0x0050a452      4880           ext.w d0
           0x0050a454      41bc0001       chk.w 0x1, d0
           0x0050a458      1d400008       move.b d0, 0x8(a6)
           0x0050a45c      4cdf0101       movem.l (a7)+, d0/a0
           0x0050a460      4e5e           unlk a6
           0x0050a462      4e75           rts
            ; CALL XREF from MENU3DCOM.PAS.before_sell @ 0x5127ee
 94: MENU3DCOM.PAS.graphics ();
           0x0050a464      4e56ffee       link.w a6, 0xffee
           0x0050a468      bfd5           cmpa.l (a5), a7
       < 0x0050a46a      6206           bhi.b 0x50a472
          0x0050a46c      44fc0002       move.w 0x2, ccr
          0x0050a470      4e76           trapv
       > 0x0050a472      defc0012       adda.w 0x12, a7
           0x0050a476      48e78080       movem.l d0/a0, -(a7)
           0x0050a47a      41f900480fc2   lea.l MENUCOM.get_boxon, a0
           0x0050a480      422e0008       clr.b 0x8(a6)
           0x0050a484      10390083d2e4   move.b 0x83d2e4, d0
           0x0050a48a      0c000005       cmpi.b 0x5, d0
       < 0x0050a48e      672a           beq.b 0x50a4ba
          0x0050a490      554f           subq.w 0x2, a7
          0x0050a492      3f390083e38a   move.w 0x83e38a, -(a7)
          0x0050a498      4e90           jsr (a0)                    ; fcn.00000009
          0x0050a49a      3f3c007f       move.w 0x7f, -(a7)
          0x0050a49e      4e90           jsr (a0)                    ; fcn.00000009
          0x0050a4a0      544f           addq.w 0x2, a7
          0x0050a4a2      102f0002       move.b 0x2(a7), d0
          0x0050a4a6      c01f           and.b (a7)+, d0
          0x0050a4a8      3f390083e37a   move.w 0x83e37a, -(a7)
          0x0050a4ae      4e90           jsr (a0)                    ; fcn.00000009
          0x0050a4b0      544f           addq.w 0x2, a7
          0x0050a4b2      801f           or.b (a7)+, d0
      < 0x0050a4b4      6704           beq.b 0x50a4ba
         0x0050a4b6      522e0008       addq.b 0x1, 0x8(a6)
      > 0x0050a4ba      4cdf0101       movem.l (a7)+, d0/a0
           0x0050a4be      4e5e           unlk a6
           0x0050a4c0      4e75           rts
            ; CALL XREFS from MENU3DCOM.PAS.hit_3d @ 0x50f03e, 0x50f068
 110: MENU3DCOM.PAS.pin_index ();
           0x0050a4c2      4e56fff0       link.w a6, 0xfff0
           0x0050a4c6      bfd5           cmpa.l (a5), a7
       < 0x0050a4c8      6206           bhi.b 0x50a4d0
          0x0050a4ca      44fc0002       move.w 0x2, ccr
          0x0050a4ce      4e76           trapv
       > 0x0050a4d0      defc0010       adda.w 0x10, a7
           0x0050a4d4      48e700c0       movem.l a0-a1, -(a7)
           0x0050a4d8      41ee0008       lea.l 0x8(a6), a0
           0x0050a4dc      43f900480fc2   lea.l MENUCOM.get_boxon, a1
           0x0050a4e2      554f           subq.w 0x2, a7
           0x0050a4e4      3f390083e380   move.w 0x83e380, -(a7)
           0x0050a4ea      4e91           jsr (a1)                    ; fcn.0000000a
           0x0050a4ec      544f           addq.w 0x2, a7
           0x0050a4ee      4a1f           tst.b (a7)+
       < 0x0050a4f0      6706           beq.b 0x50a4f8
          0x0050a4f2      30bc0002       move.w 0x2, (a0)
      < 0x0050a4f6      6030           bra.b 0x50a528
      > 0x0050a4f8      554f           subq.w 0x2, a7
          0x0050a4fa      3f390083e384   move.w 0x83e384, -(a7)
          0x0050a500      4e91           jsr (a1)                    ; fcn.0000000a
          0x0050a502      544f           addq.w 0x2, a7
          0x0050a504      4a1f           tst.b (a7)+
      < 0x0050a506      6706           beq.b 0x50a50e
         0x0050a508      30bc0003       move.w 0x3, (a0)
     < 0x0050a50c      601a           bra.b 0x50a528
     > 0x0050a50e      554f           subq.w 0x2, a7
         0x0050a510      3f390083e382   move.w 0x83e382, -(a7)
         0x0050a516      4e91           jsr (a1)                    ; fcn.0000000a
         0x0050a518      544f           addq.w 0x2, a7
         0x0050a51a      4a1f           tst.b (a7)+
     < 0x0050a51c      6706           beq.b 0x50a524
        0x0050a51e      30bc0004       move.w 0x4, (a0)
    < 0x0050a522      6004           bra.b 0x50a528
    > 0x0050a524      30bc0001       move.w 0x1, (a0)
    > 0x0050a528      4cdf0300       movem.l (a7)+, a0-a1
           0x0050a52c      4e5e           unlk a6
           0x0050a52e      4e75           rts
            ; XREFS: CALL 0x0050db40  CALL 0x0050db52  CALL 0x00673866  
            ; XREFS: CALL 0x00673f82  CALL 0x00674240  CALL 0x00674672  
            ; XREFS: CALL 0x00674688  CALL 0x0067687a  CALL 0x00677f10  
 142: MENU3DCOM.PAS.get_front_back ();
           0x0050a530      4e56fff0       link.w a6, 0xfff0
           0x0050a534      bfd5           cmpa.l (a5), a7
       < 0x0050a536      6206           bhi.b 0x50a53e
          0x0050a538      44fc0002       move.w 0x2, ccr
          0x0050a53c      4e76           trapv
       > 0x0050a53e      defc0010       adda.w 0x10, a7
           0x0050a542      48e700c0       movem.l a0-a1, -(a7)
           0x0050a546      41ee0008       lea.l 0x8(a6), a0
           0x0050a54a      43f900480fc2   lea.l MENUCOM.get_boxon, a1
           0x0050a550      4210           clr.b (a0)
           0x0050a552      554f           subq.w 0x2, a7
           0x0050a554      3f3c0079       move.w 0x79, -(a7)
           0x0050a558      4e91           jsr (a1)                    ; fcn.0000000a
           0x0050a55a      544f           addq.w 0x2, a7
           0x0050a55c      4a1f           tst.b (a7)+
       < 0x0050a55e      6756           beq.b 0x50a5b6
          0x0050a560      554f           subq.w 0x2, a7
          0x0050a562      3f390083e408   move.w 0x83e408, -(a7)
          0x0050a568      4e91           jsr (a1)                    ; fcn.0000000a
          0x0050a56a      544f           addq.w 0x2, a7
          0x0050a56c      4a1f           tst.b (a7)+
      < 0x0050a56e      6706           beq.b 0x50a576
         0x0050a570      10bc0004       move.b 0x4, (a0)
     < 0x0050a574      6040           bra.b 0x50a5b6
     > 0x0050a576      554f           subq.w 0x2, a7
         0x0050a578      3f390083e40a   move.w 0x83e40a, -(a7)
         0x0050a57e      4e91           jsr (a1)                    ; fcn.0000000a
         0x0050a580      544f           addq.w 0x2, a7
         0x0050a582      4a1f           tst.b (a7)+
     < 0x0050a584      6706           beq.b 0x50a58c
        0x0050a586      10bc0002       move.b 0x2, (a0)
    < 0x0050a58a      602a           bra.b 0x50a5b6
    > 0x0050a58c      554f           subq.w 0x2, a7
        0x0050a58e      3f390083e40c   move.w 0x83e40c, -(a7)
        0x0050a594      4e91           jsr (a1)                    ; fcn.0000000a
        0x0050a596      544f           addq.w 0x2, a7
        0x0050a598      4a1f           tst.b (a7)+
    < 0x0050a59a      6706           beq.b 0x50a5a2
       0x0050a59c      10bc0001       move.b 0x1, (a0)
   < 0x0050a5a0      6014           bra.b 0x50a5b6
   > 0x0050a5a2      554f           subq.w 0x2, a7
       0x0050a5a4      3f390083e40e   move.w 0x83e40e, -(a7)
       0x0050a5aa      4e91           jsr (a1)                    ; fcn.0000000a
       0x0050a5ac      544f           addq.w 0x2, a7
       0x0050a5ae      4a1f           tst.b (a7)+
   < 0x0050a5b0      6704           beq.b 0x50a5b6
      0x0050a5b2      10bc0003       move.b 0x3, (a0)
   > 0x0050a5b6      4cdf0300       movem.l (a7)+, a0-a1
           0x0050a5ba      4e5e           unlk a6
           0x0050a5bc      4e75           rts
            ; CALL XREFS from MENU3DCOM.PAS.hit_curved @ 0x50fdd6, 0x50fe6a, 0x50fe8c
 286: MENU3DCOM.PAS.get_curve_edit ();
           0x0050a5be      4e56ffe4       link.w a6, 0xffe4
           0x0050a5c2      bfd5           cmpa.l (a5), a7
       < 0x0050a5c4      6206           bhi.b 0x50a5cc
          0x0050a5c6      44fc0002       move.w 0x2, ccr
          0x0050a5ca      4e76           trapv
       > 0x0050a5cc      defc001c       adda.w 0x1c, a7
           0x0050a5d0      48e7e0c0       movem.l d0-d2/a0-a1, -(a7)
           0x0050a5d4      41f900480fc2   lea.l MENUCOM.get_boxon, a0
           0x0050a5da      43ee0008       lea.l 0x8(a6), a1
           0x0050a5de      7219           moveq 0x19, d1
           0x0050a5e0      7409           moveq 0x9, d2
           0x0050a5e2      1281           move.b d1, (a1)
           0x0050a5e4      554f           subq.w 0x2, a7
           0x0050a5e6      3f390083e3fa   move.w 0x83e3fa, -(a7)
           0x0050a5ec      4e90           jsr (a0)                    ; fcn.00000009
           0x0050a5ee      544f           addq.w 0x2, a7
           0x0050a5f0      4a1f           tst.b (a7)+
       < 0x0050a5f2      6708           beq.b 0x50a5fc
          0x0050a5f4      12bc0007       move.b 0x7, (a1)
      < 0x0050a5f8      600000da       bra.w 0x50a6d4
      > 0x0050a5fc      554f           subq.w 0x2, a7
          0x0050a5fe      3f390083e358   move.w 0x83e358, -(a7)
          0x0050a604      4e90           jsr (a0)                    ; fcn.00000009
          0x0050a606      544f           addq.w 0x2, a7
          0x0050a608      4a1f           tst.b (a7)+
      < 0x0050a60a      6706           beq.b 0x50a612
         0x0050a60c      4211           clr.b (a1)
     < 0x0050a60e      600000c4       bra.w 0x50a6d4
     > 0x0050a612      554f           subq.w 0x2, a7
         0x0050a614      3f390083e360   move.w 0x83e360, -(a7)
         0x0050a61a      4e90           jsr (a0)                    ; fcn.00000009
         0x0050a61c      544f           addq.w 0x2, a7
         0x0050a61e      4a1f           tst.b (a7)+
     < 0x0050a620      6708           beq.b 0x50a62a
        0x0050a622      12bc0001       move.b 0x1, (a1)
    < 0x0050a626      600000ac       bra.w 0x50a6d4
    > 0x0050a62a      554f           subq.w 0x2, a7
        0x0050a62c      3f390083e372   move.w 0x83e372, -(a7)
        0x0050a632      4e90           jsr (a0)                    ; fcn.00000009
        0x0050a634      544f           addq.w 0x2, a7
        0x0050a636      4a1f           tst.b (a7)+
    < 0x0050a638      6708           beq.b 0x50a642
       0x0050a63a      12bc0002       move.b 0x2, (a1)
   < 0x0050a63e      60000094       bra.w 0x50a6d4
   > 0x0050a642      554f           subq.w 0x2, a7
       0x0050a644      3f3c007f       move.w 0x7f, -(a7)
       0x0050a648      4e90           jsr (a0)                    ; fcn.00000009
       0x0050a64a      544f           addq.w 0x2, a7
       0x0050a64c      4a1f           tst.b (a7)+
   < 0x0050a64e      6706           beq.b 0x50a656
      0x0050a650      12bc0006       move.b 0x6, (a1)
  < 0x0050a654      607e           bra.b 0x50a6d4
  > 0x0050a656      554f           subq.w 0x2, a7
      0x0050a658      3f390083e396   move.w 0x83e396, -(a7)
      0x0050a65e      4e90           jsr (a0)                    ; fcn.00000009
      0x0050a660      544f           addq.w 0x2, a7
      0x0050a662      4a1f           tst.b (a7)+
  < 0x0050a664      6706           beq.b 0x50a66c
     0x0050a666      12bc0008       move.b 0x8, (a1)
 < 0x0050a66a      6068           bra.b 0x50a6d4
 > 0x0050a66c      554f           subq.w 0x2, a7
     0x0050a66e      3f390083e3c2   move.w 0x83e3c2, -(a7)
     0x0050a674      4e90           jsr (a0)                    ; fcn.00000009
     0x0050a676      544f           addq.w 0x2, a7
     0x0050a678      4a1f           tst.b (a7)+
 < 0x0050a67a      6758           beq.b 0x50a6d4
    0x0050a67c      554f           subq.w 0x2, a7
    0x0050a67e      3f390083e3ce   move.w 0x83e3ce, -(a7)
    0x0050a684      4e90           jsr (a0)                    ; fcn.00000009
    0x0050a686      544f           addq.w 0x2, a7
    0x0050a688      4a1f           tst.b (a7)+
 < 0x0050a68a      6620           bne.b 0x50a6ac
    0x0050a68c      554f           subq.w 0x2, a7
    0x0050a68e      3f390083e3e0   move.w 0x83e3e0, -(a7)
    0x0050a694      4e90           jsr (a0)                    ; fcn.00000009
    0x0050a696      544f           addq.w 0x2, a7
    0x0050a698      4a1f           tst.b (a7)+
 < 0x0050a69a      6610           bne.b 0x50a6ac
    0x0050a69c      554f           subq.w 0x2, a7
    0x0050a69e      3f390083e3d8   move.w 0x83e3d8, -(a7)
    0x0050a6a4      4e90           jsr (a0)                    ; fcn.00000009
    0x0050a6a6      544f           addq.w 0x2, a7
    0x0050a6a8      4a1f           tst.b (a7)+
 < 0x0050a6aa      6704           beq.b 0x50a6b0
 > 0x0050a6ac      1282           move.b d2, (a1)
 < 0x0050a6ae      6024           bra.b 0x50a6d4
 > 0x0050a6b0      554f           subq.w 0x2, a7
    0x0050a6b2      3f390083e3c4   move.w 0x83e3c4, -(a7)
    0x0050a6b8      4e90           jsr (a0)                    ; fcn.00000009
    0x0050a6ba      544f           addq.w 0x2, a7
    0x0050a6bc      4a1f           tst.b (a7)+
 < 0x0050a6be      6714           beq.b 0x50a6d4
    0x0050a6c0      30390083d2e2   move.w 0x83d2e2, d0
    0x0050a6c6      48c0           ext.l d0
    0x0050a6c8      d082           add.l d2, d0
    0x0050a6ca      1f00           move.b d0, -(a7)
    0x0050a6cc      101f           move.b (a7)+, d0
    0x0050a6ce      4880           ext.w d0
    0x0050a6d0      4181           chk.w d1, d0
    0x0050a6d2      1280           move.b d0, (a1)
 > 0x0050a6d4      4cdf0307       movem.l (a7)+, d0-d2/a0-a1
           0x0050a6d8      4e5e           unlk a6
           0x0050a6da      4e75           rts
            ; CALL XREF from MENU3DCOM.PAS.hit_curved @ 0x50fde4
 128: MENU3DCOM.PAS.get_curved ();
           0x0050a6dc      4e56ffec       link.w a6, 0xffec
           0x0050a6e0      bfd5           cmpa.l (a5), a7
       < 0x0050a6e2      6206           bhi.b 0x50a6ea
          0x0050a6e4      44fc0002       move.w 0x2, ccr
          0x0050a6e8      4e76           trapv
       > 0x0050a6ea      defc0014       adda.w 0x14, a7
           0x0050a6ee      48e700e0       movem.l a0-a2, -(a7)
           0x0050a6f2      41ee0008       lea.l 0x8(a6), a0
           0x0050a6f6      43f900480fc2   lea.l MENUCOM.get_boxon, a1
           0x0050a6fc      45f90083e3f0   lea.l 0x83e3f0, a2
           0x0050a702      554f           subq.w 0x2, a7
           0x0050a704      3f390083e3ee   move.w 0x83e3ee, -(a7)
           0x0050a70a      4e91           jsr (a1)                    ; fcn.0000000a
           0x0050a70c      544f           addq.w 0x2, a7
           0x0050a70e      4a1f           tst.b (a7)+
       < 0x0050a710      6706           beq.b 0x50a718
          0x0050a712      10bc0002       move.b 0x2, (a0)
      < 0x0050a716      603c           bra.b 0x50a754
      > 0x0050a718      554f           subq.w 0x2, a7
          0x0050a71a      3f390083e3ec   move.w 0x83e3ec, -(a7)
          0x0050a720      4e91           jsr (a1)                    ; fcn.0000000a
          0x0050a722      544f           addq.w 0x2, a7
          0x0050a724      4a1f           tst.b (a7)+
      < 0x0050a726      6718           beq.b 0x50a740
         0x0050a728      554f           subq.w 0x2, a7
         0x0050a72a      3f12           move.w (a2), -(a7)
         0x0050a72c      4e91           jsr (a1)                    ; fcn.0000000a
         0x0050a72e      544f           addq.w 0x2, a7
         0x0050a730      4a1f           tst.b (a7)+
     < 0x0050a732      6706           beq.b 0x50a73a
        0x0050a734      10bc0005       move.b 0x5, (a0)
    < 0x0050a738      601a           bra.b 0x50a754
    > 0x0050a73a      10bc0004       move.b 0x4, (a0)
    < 0x0050a73e      6014           bra.b 0x50a754
    > 0x0050a740      554f           subq.w 0x2, a7
        0x0050a742      3f12           move.w (a2), -(a7)
        0x0050a744      4e91           jsr (a1)                    ; fcn.0000000a
        0x0050a746      544f           addq.w 0x2, a7
        0x0050a748      4a1f           tst.b (a7)+
    < 0x0050a74a      6706           beq.b 0x50a752
       0x0050a74c      10bc0003       move.b 0x3, (a0)
   < 0x0050a750      6002           bra.b 0x50a754
   > 0x0050a752      4210           clr.b (a0)
   > 0x0050a754      4cdf0700       movem.l (a7)+, a0-a2
           0x0050a758      4e5e           unlk a6
           0x0050a75a      4e75           rts
            ; CALL XREF from MENUPASTECOM.hit_stick @ 0x4b3988
 24: MENU3DCOM.PAS.get_pin_pos ();
           0x0050a75c      4e56ffc2       link.w a6, 0xffc2
           0x0050a760      bfd5           cmpa.l (a5), a7
       < 0x0050a762      6206           bhi.b 0x50a76a
          0x0050a764      44fc0002       move.w 0x2, ccr
          0x0050a768      4e76           trapv
       > 0x0050a76a      defc003c       adda.w 0x3c, a7
           0x0050a76e      48e7e1c0       movem.l d0-d2/d7/a0-a1, -(a7)
           0x0050a772      f227e001       fmovem fp0, -(a7)
            0x0050a776      243cffff8000   move.l 0xffff8000, d2
            0x0050a77c      206e0008       movea.l 0x8(a6), a0
            0x0050a780      226e000c       movea.l 0xc(a6), a1
            0x0050a784      7e01           moveq 0x1, d7
        > 0x0050a786      48c7           ext.l d7
           0x0050a788      2007           move.l d7, d0
           0x0050a78a      5380           subq.l 0x1, d0
           0x0050a78c      0c8000000003   cmpi.l 0x3, d0
       < 0x0050a792      6302           bls.b 0x50a796
          0x0050a794      4e4f           trap 0xf
       > 0x0050a796      594f           subq.w 0x4, a7
           0x0050a798      f23144000e00   fmove.s (a1, d0.l * 8), fp0
           0x0050a79e      f23944230083.  fmul.s 0x83d1d4, fp0
           0x0050a7a6      f2276400       fmove.s fp0, -(a7)
           0x0050a7aa      4eb9004081d2   jsr p_round
           0x0050a7b0      584f           addq.w 0x4, a7
           0x0050a7b2      32390083d234   move.w 0x83d234, d1
           0x0050a7b8      48c1           ext.l d1
           0x0050a7ba      e781           asl.l 0x3, d1
           0x0050a7bc      d29f           add.l (a7)+, d1
           0x0050a7be      9282           sub.l d2, d1
           0x0050a7c0      433c0000ffff   chk.l 0xffff, d1
           0x0050a7c6      d282           add.l d2, d1
           0x0050a7c8      31810c00       move.w d1, (a0, d0.l * 4)
           0x0050a7cc      594f           subq.w 0x4, a7
           0x0050a7ce      f23144000e04   fmove.s 0x4(a1, d0.l), fp0
           0x0050a7d4      f23944230083.  fmul.s 0x83d1dc, fp0
           0x0050a7dc      f2276400       fmove.s fp0, -(a7)
           0x0050a7e0      4eb9004081d2   jsr p_round
           0x0050a7e6      584f           addq.w 0x4, a7
           0x0050a7e8      32390083d236   move.w 0x83d236, d1
           0x0050a7ee      48c1           ext.l d1
           0x0050a7f0      048100000080   subi.l 0x80, d1
           0x0050a7f6      e781           asl.l 0x3, d1
           0x0050a7f8      d29f           add.l (a7)+, d1
           0x0050a7fa      9282           sub.l d2, d1
           0x0050a7fc      433c0000ffff   chk.l 0xffff, d1
           0x0050a802      d282           add.l d2, d1
           0x0050a804      31810c02       move.w d1, 0x2(a0, d0.l)
           0x0050a808      5247           addq.w 0x1, d7
           0x0050a80a      0c470004       cmpi.w 0x4, d7
        < 0x0050a80e      6f00ff76       ble.w 0x50a786
            0x0050a812      f21fd080       fmovem (a7)+, fp0
            0x0050a816      4cdf0387       movem.l (a7)+, d0-d2/d7/a0-a1
            0x0050a81a      4e5e           unlk a6
            0x0050a81c      4e75           rts
 102: MENU3DCOM.PAS.draw_triad_elem ();
           0x0050a81e      4e56ff8e       link.w a6, 0xff8e
           0x0050a822      bfd5           cmpa.l (a5), a7
       < 0x0050a824      6206           bhi.b 0x50a82c
          0x0050a826      44fc0002       move.w 0x2, ccr
          0x0050a82a      4e76           trapv
       > 0x0050a82c      defc0060       adda.w 0x60, a7
           0x0050a830      48e7fff8       movem.l d0-d7/a0-a4, -(a7)
           0x0050a834      47f90083d1ce   lea.l 0x83d1ce, a3
           0x0050a83a      283cffff8000   move.l 0xffff8000, d4
           0x0050a840      7a04           moveq 0x4, d5
           0x0050a842      2c3c0000ffff   move.l 0xffff, d6
           0x0050a848      7e08           moveq 0x8, d7
           0x0050a84a      102e000e       move.b 0xe(a6), d0
           0x0050a84e      4880           ext.w d0
           0x0050a850      204b           movea.l a3, a0
           0x0050a852      4a300072       tst.b 0x72(a0, d0.w)
       < 0x0050a856      67000194       beq.w 0x50a9ec
          0x0050a85a      4a2e0010       tst.b 0x10(a6)
      < 0x0050a85e      67000094       beq.w 0x50a8f4
         0x0050a862      594f           subq.w 0x4, a7
         0x0050a864      1f05           move.b d5, -(a7)
         0x0050a866      4eb900631bae   jsr BRUSHESCOM.PAS.get_br_data
         0x0050a86c      544f           addq.w 0x2, a7
         0x0050a86e      285f           movea.l (a7)+, a4
         0x0050a870      b9ecfffc       cmpa.l -0x4(a4), a4
     < 0x0050a874      6702           beq.b 0x50a878
        0x0050a876      4e4d           trap 0xd
     > 0x0050a878      322c0118       move.w 0x118(a4), d1
         0x0050a87c      c2fc0100       mulu.w 0x100, d1
         0x0050a880      9284           sub.l d4, d1
         0x0050a882      4306           chk.l d6, d1
          0x0050a884      d284           add.l d4, d1
          0x0050a886      3f01           move.w d1, -(a7)
          0x0050a888      4eb900521034   jsr BRUSHCOM.br_pressure
          0x0050a88e      544f           addq.w 0x2, a7
          0x0050a890      204b           movea.l a3, a0
          0x0050a892      594f           subq.w 0x4, a7
          0x0050a894      43f007200084   lea.l 0x84(a0, d0.w * 8), a1
          0x0050a89a      2f09           move.l a1, -(a7)
          0x0050a89c      41f007200088   lea.l 0x88(a0, d0.w * 8), a0
          0x0050a8a2      2f08           move.l a0, -(a7)
          0x0050a8a4      48780000       pea.l 0x0
          0x0050a8a8      48780000       pea.l 0x0
          0x0050a8ac      3f2c0014       move.w 0x14(a4), -(a7)
          0x0050a8b0      322e000a       move.w 0xa(a6), d1
          0x0050a8b4      48c1           ext.l d1
          0x0050a8b6      e181           asl.l 0x8, d1
          0x0050a8b8      e181           asl.l 0x8, d1
          0x0050a8ba      e181           asl.l 0x8, d1
          0x0050a8bc      342e0008       move.w 0x8(a6), d2
          0x0050a8c0      48c2           ext.l d2
          0x0050a8c2      e182           asl.l 0x8, d2
          0x0050a8c4      e182           asl.l 0x8, d2
          0x0050a8c6      d481           add.l d1, d2
          0x0050a8c8      322e000c       move.w 0xc(a6), d1
          0x0050a8cc      48c1           ext.l d1
          0x0050a8ce      e181           asl.l 0x8, d1
          0x0050a8d0      d282           add.l d2, d1
          0x0050a8d2      2f01           move.l d1, -(a7)
          0x0050a8d4      594f           subq.w 0x4, a7
          0x0050a8d6      1f05           move.b d5, -(a7)
          0x0050a8d8      4eb900631bae   jsr BRUSHESCOM.PAS.get_br_data
          0x0050a8de      544f           addq.w 0x2, a7
          0x0050a8e0      4eb900634ffa   jsr draw_lines
          0x0050a8e6      defc001a       adda.w 0x1a, a7
          0x0050a8ea      4a9f           tst.l (a7)+
      < 0x0050a8ec      660000fe       bne.w 0x50a9ec
     < 0x0050a8f0      600000fa       bra.w 0x50a9ec
     > 0x0050a8f4      41faf252       lea.l 0x509b48(pc), a0
         0x0050a8f8      32300200       move.w (a0, d0.w * 2), d1
         0x0050a8fc      43bc00ff       chk.w 0xff, d1
         0x0050a900      1f01           move.b d1, -(a7)
         0x0050a902      486efff8       pea.l -0x8(a6)
         0x0050a906      486efff6       pea.l -0xa(a6)
         0x0050a90a      486efffc       pea.l -0x4(a6)
         0x0050a90e      4eb9006a7b70   jsr TEXTMAV.get_ch_data
         0x0050a914      defc000e       adda.w 0xe, a7
         0x0050a918      204b           movea.l a3, a0
         0x0050a91a      323007200084   move.w 0x84(a0, d0.w * 8), d1
         0x0050a920      48c1           ext.l d1
         0x0050a922      83c7           divs.w d7, d1
         0x0050a924      14390083d314   move.b 0x83d314, d2
         0x0050a92a      4882           ext.w d2
         0x0050a92c      45bc0001       chk.w 0x1, d2
         0x0050a930      224b           movea.l a3, a1
         0x0050a932      48c1           ext.l d1
         0x0050a934      363127200148   move.w 0x148(a1, d2.w * 8), d3
         0x0050a93a      48c3           ext.l d3
         0x0050a93c      d681           add.l d1, d3
         0x0050a93e      322efff8       move.w -0x8(a6), d1
         0x0050a942      48c1           ext.l d1
         0x0050a944      83fc0002       divs.w 0x2, d1
         0x0050a948      48c1           ext.l d1
         0x0050a94a      4481           neg.l d1
         0x0050a94c      d283           add.l d3, d1
         0x0050a94e      45faf21a       lea.l 0x509b6a(pc), a2
         0x0050a952      36320400       move.w (a2, d0.w * 4), d3
         0x0050a956      48c3           ext.l d3
         0x0050a958      d681           add.l d1, d3
         0x0050a95a      9684           sub.l d4, d3
         0x0050a95c      4706           chk.l d6, d3
         0x0050a95e      d684           add.l d4, d3
         0x0050a960      3d43ffee       move.w d3, -0x12(a6)
         0x0050a964      323007200086   move.w 0x86(a0, d0.w * 8), d1
         0x0050a96a      48c1           ext.l d1
         0x0050a96c      83c7           divs.w d7, d1
         0x0050a96e      48c1           ext.l d1
         0x0050a970      36312720014a   move.w 0x14a(a1, d2.w * 8), d3
         0x0050a976      48c3           ext.l d3
         0x0050a978      d681           add.l d1, d3
         0x0050a97a      322efffa       move.w -0x6(a6), d1
         0x0050a97e      48c1           ext.l d1
         0x0050a980      83fc0002       divs.w 0x2, d1
         0x0050a984      48c1           ext.l d1
         0x0050a986      4481           neg.l d1
         0x0050a988      d283           add.l d3, d1
         0x0050a98a      41faf1de       lea.l 0x509b6a(pc), a0
         0x0050a98e      34300402       move.w 0x2(a0, d0.w), d2
         0x0050a992      48c2           ext.l d2
         0x0050a994      d481           add.l d1, d2
         0x0050a996      9484           sub.l d4, d2
         0x0050a998      4506           chk.l d6, d2
         0x0050a99a      d484           add.l d4, d2
         0x0050a99c      3d42fff0       move.w d2, -0x10(a6)
         0x0050a9a0      2f2e000a       move.l 0xa(a6), -(a7)
         0x0050a9a4      3f2e0008       move.w 0x8(a6), -(a7)
         0x0050a9a8      4eb900520fa4   jsr BRUSHCOM.set_br_colour
         0x0050a9ae      584f           addq.w 0x4, a7
         0x0050a9b0      3ebc4000       move.w 0x4000, (a7)
         0x0050a9b4      4eb90051f3f0   jsr BRUSHCOM.b_pressure
         0x0050a9ba      544f           addq.w 0x2, a7
         0x0050a9bc      2f2efff8       move.l -0x8(a6), -(a7)
         0x0050a9c0      4eb90051fa06   jsr BRUSHCOM.b_xfer_size
         0x0050a9c6      544f           addq.w 0x2, a7
         0x0050a9c8      4217           clr.b (a7)
         0x0050a9ca      2f2efffc       move.l -0x4(a6), -(a7)
         0x0050a9ce      4eb90051f67c   jsr BRUSHCOM.b_source_pos
         0x0050a9d4      584f           addq.w 0x4, a7
         0x0050a9d6      1ebc0003       move.b 0x3, (a7)
         0x0050a9da      2f2effee       move.l -0x12(a6), -(a7)
         0x0050a9de      4eb90051f72c   jsr BRUSHCOM.b_dest_pos
         0x0050a9e4      5c4f           addq.w 0x6, a7
         0x0050a9e6      4eb90051fa16   jsr BRUSHCOM.b_go
     > 0x0050a9ec      4cdf1fff       movem.l (a7)+, d0-d7/a0-a4
            0x0050a9f0      4e5e           unlk a6
            0x0050a9f2      4e75           rts
 226: MENU3DCOM.PAS.draw_dot_mark ();
           0x0050a9f4      4e56ffc8       link.w a6, 0xffc8
           0x0050a9f8      bfd5           cmpa.l (a5), a7
       < 0x0050a9fa      6206           bhi.b 0x50aa02
          0x0050a9fc      44fc0002       move.w 0x2, ccr
          0x0050aa00      4e76           trapv
       > 0x0050aa02      defc002a       adda.w 0x2a, a7
           0x0050aa06      48e7f880       movem.l d0-d4/a0, -(a7)
           0x0050aa0a      41eefff8       lea.l -0x8(a6), a0
           0x0050aa0e      7408           moveq 0x8, d2
           0x0050aa10      7602           moveq 0x2, d3
           0x0050aa12      7803           moveq 0x3, d4
           0x0050aa14      1f3c006f       move.b 0x6f, -(a7)
           0x0050aa18      4850           pea.l (a0)
           0x0050aa1a      486efff6       pea.l -0xa(a6)
           0x0050aa1e      486efffc       pea.l -0x4(a6)
           0x0050aa22      4eb9006a7b70   jsr TEXTMAV.get_ch_data
           0x0050aa28      defc000e       adda.w 0xe, a7
           0x0050aa2c      302e0008       move.w 0x8(a6), d0
           0x0050aa30      48c0           ext.l d0
           0x0050aa32      81c2           divs.w d2, d0
           0x0050aa34      3210           move.w (a0), d1
           0x0050aa36      48c1           ext.l d1
           0x0050aa38      83c3           divs.w d3, d1
           0x0050aa3a      4441           neg.w d1
           0x0050aa3c      d240           add.w d0, d1
           0x0050aa3e      3d41fff2       move.w d1, -0xe(a6)
           0x0050aa42      302e000a       move.w 0xa(a6), d0
           0x0050aa46      48c0           ext.l d0
           0x0050aa48      81c2           divs.w d2, d0
           0x0050aa4a      322efffa       move.w -0x6(a6), d1
           0x0050aa4e      48c1           ext.l d1
           0x0050aa50      83c3           divs.w d3, d1
           0x0050aa52      4441           neg.w d1
           0x0050aa54      d240           add.w d0, d1
           0x0050aa56      3d41fff4       move.w d1, -0xc(a6)
           0x0050aa5a      2f2e000e       move.l 0xe(a6), -(a7)
           0x0050aa5e      3f2e000c       move.w 0xc(a6), -(a7)
           0x0050aa62      4eb900520fa4   jsr BRUSHCOM.set_br_colour
           0x0050aa68      584f           addq.w 0x4, a7
           0x0050aa6a      3ebc4000       move.w 0x4000, (a7)
           0x0050aa6e      4eb90051f3f0   jsr BRUSHCOM.b_pressure
           0x0050aa74      544f           addq.w 0x2, a7
           0x0050aa76      2f10           move.l (a0), -(a7)
           0x0050aa78      4eb90051fa06   jsr BRUSHCOM.b_xfer_size
           0x0050aa7e      544f           addq.w 0x2, a7
           0x0050aa80      4217           clr.b (a7)
           0x0050aa82      2f2efffc       move.l -0x4(a6), -(a7)
           0x0050aa86      4eb90051f67c   jsr BRUSHCOM.b_source_pos
           0x0050aa8c      584f           addq.w 0x4, a7
           0x0050aa8e      1e84           move.b d4, (a7)
           0x0050aa90      2f2efff2       move.l -0xe(a6), -(a7)
           0x0050aa94      4eb90051f72c   jsr BRUSHCOM.b_dest_pos
           0x0050aa9a      584f           addq.w 0x4, a7
           0x0050aa9c      3e84           move.w d4, (a7)
           0x0050aa9e      4eb90051f362   jsr BRUSHCOM.b_setup_control
           0x0050aaa4      544f           addq.w 0x2, a7
           0x0050aaa6      4eb90051fa16   jsr BRUSHCOM.b_go
           0x0050aaac      2f3aef42       move.l 0x5099f0(pc), -(a7)
           0x0050aab0      3f3aef3c       move.w 0x5099ee(pc), -(a7)
           0x0050aab4      4eb900520fa4   jsr BRUSHCOM.set_br_colour
           0x0050aaba      584f           addq.w 0x4, a7
           0x0050aabc      3ebc0006       move.w 0x6, (a7)
           0x0050aac0      4eb90051f362   jsr BRUSHCOM.b_setup_control
           0x0050aac6      544f           addq.w 0x2, a7
           0x0050aac8      4eb90051fa16   jsr BRUSHCOM.b_go
           0x0050aace      4cdf011f       movem.l (a7)+, d0-d4/a0
           0x0050aad2      4e5e           unlk a6
           0x0050aad4      4e75           rts
 60: MENU3DCOM.PAS.stamp_pick ();
           0x0050aad6      4e56ffcc       link.w a6, 0xffcc
           0x0050aada      bfd5           cmpa.l (a5), a7
       < 0x0050aadc      6206           bhi.b 0x50aae4
          0x0050aade      44fc0002       move.w 0x2, ccr
          0x0050aae2      4e76           trapv
       > 0x0050aae4      defc0030       adda.w 0x30, a7
           0x0050aae8      48e7f0f0       movem.l d0-d3/a0-a3, -(a7)
           0x0050aaec      45ee000c       lea.l 0xc(a6), a2
           0x0050aaf0      47ee000a       lea.l 0xa(a6), a3
           0x0050aaf4      7401           moveq 0x1, d2
           0x0050aaf6      7605           moveq 0x5, d3
           0x0050aaf8      102e0010       move.b 0x10(a6), d0
           0x0050aafc      4880           ext.w d0
           0x0050aafe      3200           move.w d0, d1
           0x0050ab00      0c410010       cmpi.w 0x10, d1
       < 0x0050ab04      6302           bls.b 0x50ab08
          0x0050ab06      4e4e           trap 0xe
       > 0x0050ab08      d241           add.w d1, d1
           0x0050ab0a      323b1006       move.w 0x50ab12(pc, d1.w), d1
           0x0050ab0e      4efb1002       jmp 0x50ab12(pc, d1.w)
            0x0050ab12      00220026       ori.b 0x26, -(a2)
            0x0050ab16      005e005e       ori.w 0x5e, (a6)+
            0x0050ab1a      005e0058       ori.w 0x58, (a6)+
            0x0050ab1e      00580058       ori.w 0x58, (a0)+
            0x0050ab22      005e005e       ori.w 0x5e, (a6)+
            0x0050ab26      005e005e       ori.w 0x5e, (a6)+
            0x0050ab2a      00580058       ori.w 0x58, (a0)+
            0x0050ab2e      00580058       ori.w 0x58, (a0)+
            0x0050ab32      00626000       ori.w 0x6000, -(a2)
            0x0050ab36      00b21f021f03.  ori.l 0x1f021f03, ([a2, d2.l * 8], 0x3f13)
            0x0050ab40      4ebafcdc       jsr MENU3DCOM.PAS.draw_triad_elem(pc)
            0x0050ab44      504f           addq.w 0x8, a7
            0x0050ab46      1e82           move.b d2, (a7)
            0x0050ab48      1f3c0006       move.b 0x6, -(a7)
            0x0050ab4c      2f12           move.l (a2), -(a7)
            0x0050ab4e      3f13           move.w (a3), -(a7)
            0x0050ab50      4ebafccc       jsr MENU3DCOM.PAS.draw_triad_elem(pc)
            0x0050ab54      504f           addq.w 0x8, a7
            0x0050ab56      1e82           move.b d2, (a7)
            0x0050ab58      1f3c0007       move.b 0x7, -(a7)
        > 0x0050ab5c      2f12           move.l (a2), -(a7)
           0x0050ab5e      3f13           move.w (a3), -(a7)
           0x0050ab60      4ebafcbc       jsr MENU3DCOM.PAS.draw_triad_elem(pc)
           0x0050ab64      defc000a       adda.w 0xa, a7
       < 0x0050ab68      607e           bra.b 0x50abe8
          0x0050ab6a      1f02           move.b d2, -(a7)
      > 0x0050ab6c      1f00           move.b d0, -(a7)
      < 0x0050ab6e      60ec           bra.b 0x50ab5c
          0x0050ab70      4227           clr.b -(a7)
      < 0x0050ab72      60f8           bra.b 0x50ab6c
           0x0050ab74      206c0006       movea.l 0x6(a4), a0
           0x0050ab78      b0c2           cmpa.w d2, a0
       < 0x0050ab7a      676c           beq.b 0x50abe8
          0x0050ab7c      b1e8fffc       cmpa.l -0x4(a0), a0
      < 0x0050ab80      6702           beq.b 0x50ab84
         0x0050ab82      4e4d           trap 0xd
      > 0x0050ab84      2268061a       movea.l 0x61a(a0), a1
          0x0050ab88      b2c2           cmpa.w d2, a1
      < 0x0050ab8a      675c           beq.b 0x50abe8
         0x0050ab8c      4279fff80010   clr.w 0xfff80010
         0x0050ab92      1f03           move.b d3, -(a7)
         0x0050ab94      4eb900631aee   jsr BRUSHESCOM.PAS.sel_brush
         0x0050ab9a      544f           addq.w 0x2, a7
         0x0050ab9c      2f12           move.l (a2), -(a7)
         0x0050ab9e      3f13           move.w (a3), -(a7)
         0x0050aba0      4eb900520fa4   jsr BRUSHCOM.set_br_colour
         0x0050aba6      584f           addq.w 0x4, a7
         0x0050aba8      3ebc4000       move.w 0x4000, (a7)
         0x0050abac      4eb90051f3f0   jsr BRUSHCOM.b_pressure
         0x0050abb2      3ebc0003       move.w 0x3, (a7)
         0x0050abb6      4eb90051f362   jsr BRUSHCOM.b_setup_control
         0x0050abbc      544f           addq.w 0x2, a7
         0x0050abbe      302e0008       move.w 0x8(a6), d0
         0x0050abc2      48c0           ext.l d0
         0x0050abc4      5380           subq.l 0x1, d0
         0x0050abc6      0c8000000120   cmpi.l 0x120, d0
     < 0x0050abcc      6302           bls.b 0x50abd0
        0x0050abce      4e4f           trap 0xf
     > 0x0050abd0      2268061a       movea.l 0x61a(a0), a1
         0x0050abd4      b3e9fffc       cmpa.l -0x4(a1), a1
     < 0x0050abd8      6702           beq.b 0x50abdc
        0x0050abda      4e4d           trap 0xd
     > 0x0050abdc      2f310c02       move.l 0x2(a1, d0.l), -(a7)
         0x0050abe0      4eb90063553e   jsr asm_stamp
         0x0050abe6      584f           addq.w 0x4, a7
      > 0x0050abe8      4cdf0f0f       movem.l (a7)+, d0-d3/a0-a3
            0x0050abec      4e5e           unlk a6
            0x0050abee      4e75           rts
 264: MENU3DCOM.PAS.change_highligh ();
           ; var int32_t var_1270h @ a6-0x1270
           ; var int32_t var_122eh @ a6-0x122e
           0x0050abf0      4e56ffc8       link.w a6, 0xffc8
           0x0050abf4      bfd5           cmpa.l (a5), a7
       < 0x0050abf6      6206           bhi.b 0x50abfe
          0x0050abf8      44fc0002       move.w 0x2, ccr
          0x0050abfc      4e76           trapv
       > 0x0050abfe      defc002e       adda.w 0x2e, a7
           0x0050ac02      48e7e0f8       movem.l d0-d2/a0-a4, -(a7)
           0x0050ac06      43eefff6       lea.l -0xa(a6), a1
           0x0050ac0a      45fafeca       lea.l MENU3DCOM.PAS.stamp_pick(pc), a2
           0x0050ac0e      47f90083d314   lea.l 0x83d314, a3
           0x0050ac14      7201           moveq 0x1, d1
           0x0050ac16      7403           moveq 0x3, d2
           0x0050ac18      594f           subq.w 0x4, a7
           0x0050ac1a      4227           clr.b -(a7)
           0x0050ac1c      4eb900670a94   jsr PASTECOM.get_cutout
           0x0050ac22      544f           addq.w 0x2, a7
           0x0050ac24      2d57fffc       move.l (a7), -0x4(a6)
           0x0050ac28      3ebc0080       move.w 0x80, (a7)
           0x0050ac2c      4eb900480fc2   jsr MENUCOM.get_boxon
           0x0050ac32      544f           addq.w 0x2, a7
           0x0050ac34      4a1f           tst.b (a7)+
       < 0x0050ac36      670c           beq.b 0x50ac44
          0x0050ac38      22baed90       move.l 0x5099ca(pc), (a1)
          0x0050ac3c      3d7aed90fffa   move.w 0x5099ce(pc), -0x6(a6)
      < 0x0050ac42      600a           bra.b 0x50ac4e
      > 0x0050ac44      22baedd2       move.l 0x509a18(pc), (a1)
          0x0050ac48      3d7aedd2fffa   move.w 0x509a1c(pc), -0x6(a6)
      > 0x0050ac4e      1013           move.b (a3), d0
           0x0050ac50      4880           ext.w d0
           0x0050ac52      4181           chk.w d1, d0
           0x0050ac54      41f90083d1ce   lea.l 0x83d1ce, a0
           0x0050ac5a      2f300720014c   move.l 0x14c(a0, d0.w * 8), -(a7)
           0x0050ac60      2f3007200148   move.l 0x148(a0, d0.w * 8), -(a7)
           0x0050ac66      4eb900634e04   jsr set_dots_area
           0x0050ac6c      5c4f           addq.w 0x6, a7
           0x0050ac6e      1e82           move.b d2, (a7)
           0x0050ac70      1013           move.b (a3), d0
           0x0050ac72      4880           ext.w d0
           0x0050ac74      4181           chk.w d1, d0
           0x0050ac76      41f90083d1ce   lea.l 0x83d1ce, a0
           0x0050ac7c      2f300720014c   move.l 0x14c(a0, d0.w * 8), -(a7)
           0x0050ac82      2f3007200148   move.l 0x148(a0, d0.w * 8), -(a7)
           0x0050ac88      4eb9005223fc   jsr BRUSHCOM.str_write_area
           0x0050ac8e      504f           addq.w 0x8, a7
           0x0050ac90      3e82           move.w d2, (a7)
           0x0050ac92      4eb90051f362   jsr BRUSHCOM.b_setup_control
           0x0050ac98      1eae000e       move.b 0xe(a6), (a7)
           0x0050ac9c      2f3aed6a       move.l 0x509a08(pc), -(a7)
           0x0050aca0      3f3aed64       move.w 0x509a06(pc), -(a7)
           0x0050aca4      3f2e000a       move.w 0xa(a6), -(a7)
           0x0050aca8      2849           movea.l a1, a4
           0x0050acaa      4e92           jsr (a2)                    ; fcn.00000009+0x2
           0x0050acac      504f           addq.w 0x8, a7
           0x0050acae      1eae000e       move.b 0xe(a6), (a7)
           0x0050acb2      2f2efff8       move.l -0x8(a6), -(a7)
           0x0050acb6      3f11           move.w (a1), -(a7)
           0x0050acb8      3f2e000a       move.w 0xa(a6), -(a7)
           0x0050acbc      2849           movea.l a1, a4
           0x0050acbe      4e92           jsr (a2)                    ; fcn.00000009+0x2
           0x0050acc0      504f           addq.w 0x8, a7
           0x0050acc2      1eae000c       move.b 0xc(a6), (a7)
           0x0050acc6      2f3aed40       move.l 0x509a08(pc), -(a7)
           0x0050acca      3f3aed3a       move.w 0x509a06(pc), -(a7)
           0x0050acce      3f2e0008       move.w 0x8(a6), -(a7)
           0x0050acd2      2849           movea.l a1, a4
           0x0050acd4      4e92           jsr (a2)                    ; fcn.00000009+0x2
           0x0050acd6      504f           addq.w 0x8, a7
           0x0050acd8      1eae000c       move.b 0xc(a6), (a7)
           0x0050acdc      2f3aece2       move.l 0x5099c0(pc), -(a7)
           0x0050ace0      3f3aecdc       move.w 0x5099be(pc), -(a7)
           0x0050ace4      3f2e0008       move.w 0x8(a6), -(a7)
           0x0050ace8      2849           movea.l a1, a4
           0x0050acea      4e92           jsr (a2)                    ; fcn.00000009+0x2
           0x0050acec      defc000a       adda.w 0xa, a7
           0x0050acf0      4cdf1f07       movem.l (a7)+, d0-d2/a0-a4
           0x0050acf4      4e5e           unlk a6
           0x0050acf6      4e75           rts
            ; CALL XREF from MENU3DCOM.PAS.update_graphics @ 0x50badc
 266: MENU3DCOM.PAS.draw_contour_do ();
           0x0050acf8      4e56ffba       link.w a6, 0xffba
           0x0050acfc      bfd5           cmpa.l (a5), a7
       < 0x0050acfe      6206           bhi.b 0x50ad06
          0x0050ad00      44fc0002       move.w 0x2, ccr
          0x0050ad04      4e76           trapv
       > 0x0050ad06      defc003e       adda.w 0x3e, a7
           0x0050ad0a      48e7f3e0       movem.l d0-d3/d6-d7/a0-a2, -(a7)
           0x0050ad0e      7201           moveq 0x1, d1
           0x0050ad10      243c00000120   move.l 0x120, d2
           0x0050ad16      760f           moveq 0xf, d3
           0x0050ad18      206c0030       movea.l 0x30(a4), a0
           0x0050ad1c      b0c1           cmpa.w d1, a0
       < 0x0050ad1e      67000114       beq.w 0x50ae34
          0x0050ad22      b1e8fffc       cmpa.l -0x4(a0), a0
      < 0x0050ad26      6702           beq.b 0x50ad2a
         0x0050ad28      4e4d           trap 0xd
      > 0x0050ad2a      2268061a       movea.l 0x61a(a0), a1
          0x0050ad2e      b2c1           cmpa.w d1, a1
      < 0x0050ad30      67000102       beq.w 0x50ae34
         0x0050ad34      b3e9fffc       cmpa.l -0x4(a1), a1
     < 0x0050ad38      6702           beq.b 0x50ad3c
        0x0050ad3a      4e4d           trap 0xd
     > 0x0050ad3c      1f3c0005       move.b 0x5, -(a7)
         0x0050ad40      4eb900631aee   jsr BRUSHESCOM.PAS.sel_brush
         0x0050ad46      3ebc4000       move.w 0x4000, (a7)
         0x0050ad4a      4eb900521034   jsr BRUSHCOM.br_pressure
         0x0050ad50      544f           addq.w 0x2, a7
         0x0050ad52      2f2c0002       move.l 0x2(a4), -(a7)
         0x0050ad56      3f14           move.w (a4), -(a7)
         0x0050ad58      4eb900520fa4   jsr BRUSHCOM.set_br_colour
         0x0050ad5e      584f           addq.w 0x4, a7
         0x0050ad60      3ebc0003       move.w 0x3, (a7)
         0x0050ad64      4eb90051f362   jsr BRUSHCOM.b_setup_control
         0x0050ad6a      544f           addq.w 0x2, a7
         0x0050ad6c      4279fff80010   clr.w 0xfff80010
         0x0050ad72      7e01           moveq 0x1, d7
     > 0x0050ad74      48c7           ext.l d7
        0x0050ad76      2007           move.l d7, d0
        0x0050ad78      5380           subq.l 0x1, d0
        0x0050ad7a      b082           cmp.l d2, d0
    < 0x0050ad7c      6302           bls.b 0x50ad80
       0x0050ad7e      4e4f           trap 0xf
    > 0x0050ad80      2f310c02       move.l 0x2(a1, d0.l), -(a7)
        0x0050ad84      4eb90063553e   jsr asm_stamp
        0x0050ad8a      584f           addq.w 0x4, a7
        0x0050ad8c      5247           addq.w 0x1, d7
        0x0050ad8e      0c470121       cmpi.w 0x121, d7
     < 0x0050ad92      6fe0           ble.b 0x50ad74
         0x0050ad94      2f3aec5a       move.l 0x5099f0(pc), -(a7)
         0x0050ad98      3f3aec54       move.w 0x5099ee(pc), -(a7)
         0x0050ad9c      4eb900520fa4   jsr BRUSHCOM.set_br_colour
         0x0050ada2      584f           addq.w 0x4, a7
         0x0050ada4      3ebc0006       move.w 0x6, (a7)
         0x0050ada8      4eb90051f362   jsr BRUSHCOM.b_setup_control
         0x0050adae      544f           addq.w 0x2, a7
         0x0050adb0      7e01           moveq 0x1, d7
     > 0x0050adb2      48c7           ext.l d7
        0x0050adb4      2007           move.l d7, d0
        0x0050adb6      5380           subq.l 0x1, d0
        0x0050adb8      b082           cmp.l d2, d0
    < 0x0050adba      6302           bls.b 0x50adbe
       0x0050adbc      4e4f           trap 0xf
    > 0x0050adbe      2f310c02       move.l 0x2(a1, d0.l), -(a7)
        0x0050adc2      4eb90063553e   jsr asm_stamp
        0x0050adc8      584f           addq.w 0x4, a7
        0x0050adca      5247           addq.w 0x1, d7
        0x0050adcc      0c470121       cmpi.w 0x121, d7
     < 0x0050add0      6fe0           ble.b 0x50adb2
         0x0050add2      7e00           moveq 0x0, d7
     > 0x0050add4      594f           subq.w 0x4, a7
        0x0050add6      4f83           chk.w d3, d7
        0x0050add8      48c7           ext.l d7
        0x0050adda      2007           move.l d7, d0
        0x0050addc      e980           asl.l 0x4, d0
        0x0050adde      246c0030       movea.l 0x30(a4), a2
        0x0050ade2      b5eafffc       cmpa.l -0x4(a2), a2
    < 0x0050ade6      6702           beq.b 0x50adea
       0x0050ade8      4e4d           trap 0xd
    > 0x0050adea      2f320920034e   move.l 0x34e(a2, d0.l), -(a7)
        0x0050adf0      4eb9004081f8   jsr p_trunc
        0x0050adf6      584f           addq.w 0x4, a7
        0x0050adf8      201f           move.l (a7)+, d0
        0x0050adfa      0480ffff8000   subi.l 0xffff8000, d0
        0x0050ae00      413c0000ffff   chk.l 0xffff, d0
         0x0050ae06      0680ffff8000   addi.l 0xffff8000, d0
         0x0050ae0c      3c00           move.w d0, d6
     < 0x0050ae0e      6f1e           ble.b 0x50ae2e
        0x0050ae10      2f2c0002       move.l 0x2(a4), -(a7)
        0x0050ae14      3f14           move.w (a4), -(a7)
        0x0050ae16      48c6           ext.l d6
        0x0050ae18      2006           move.l d6, d0
        0x0050ae1a      5380           subq.l 0x1, d0
        0x0050ae1c      b082           cmp.l d2, d0
    < 0x0050ae1e      6302           bls.b 0x50ae22
       0x0050ae20      4e4f           trap 0xf
    > 0x0050ae22      2f310c02       move.l 0x2(a1, d0.l), -(a7)
        0x0050ae26      4ebafbcc       jsr MENU3DCOM.PAS.draw_dot_mark(pc)
        0x0050ae2a      defc000a       adda.w 0xa, a7
     > 0x0050ae2e      5247           addq.w 0x1, d7
         0x0050ae30      be43           cmp.w d3, d7
      < 0x0050ae32      6fa0           ble.b 0x50add4              ; MENU3DCOM.PAS.draw_contour_do+0xdc
       > 0x0050ae34      4cdf07cf       movem.l (a7)+, d0-d3/d6-d7/a0-a2
            0x0050ae38      4e5e           unlk a6
            0x0050ae3a      4e75           rts
 52: MENU3DCOM.PAS.draw_triad_laye ();
           0x0050ae3c      4e56ffd4       link.w a6, 0xffd4
           0x0050ae40      bfd5           cmpa.l (a5), a7
       < 0x0050ae42      6206           bhi.b 0x50ae4a
          0x0050ae44      44fc0002       move.w 0x2, ccr
          0x0050ae48      4e76           trapv
       > 0x0050ae4a      defc002a       adda.w 0x2a, a7
           0x0050ae4e      48e7e1e0       movem.l d0-d2/d7/a0-a2, -(a7)
           0x0050ae52      41ee000c       lea.l 0xc(a6), a0
           0x0050ae56      43ee000a       lea.l 0xa(a6), a1
           0x0050ae5a      45faf9c2       lea.l MENU3DCOM.PAS.draw_triad_elem(pc), a2
           0x0050ae5e      720a           moveq 0xa, d1
           0x0050ae60      7401           moveq 0x1, d2
           0x0050ae62      4eb90051f298   jsr BRUSHCOM.brush_wait
           0x0050ae68      302e0008       move.w 0x8(a6), d0
           0x0050ae6c      48c0           ext.l d0
           0x0050ae6e      413c0000ffff   chk.l 0xffff, d0
            0x0050ae74      3f00           move.w d0, -(a7)
            0x0050ae76      4eb90051f362   jsr BRUSHCOM.b_setup_control
            0x0050ae7c      4ebaf4f6       jsr MENU3DCOM.PAS.pick_triad(pc)
            0x0050ae80      4a1f           tst.b (a7)+
        < 0x0050ae82      672c           beq.b 0x50aeb0
           0x0050ae84      7e05           moveq 0x5, d7
       > 0x0050ae86      1f02           move.b d2, -(a7)
          0x0050ae88      1f07           move.b d7, -(a7)
          0x0050ae8a      2f10           move.l (a0), -(a7)
          0x0050ae8c      3f11           move.w (a1), -(a7)
          0x0050ae8e      4e92           jsr (a2)                    ; fcn.00000009+0x2
          0x0050ae90      dec1           adda.w d1, a7
          0x0050ae92      5207           addq.b 0x1, d7
          0x0050ae94      0c070007       cmpi.b 0x7, d7
       < 0x0050ae98      6fec           ble.b 0x50ae86
           0x0050ae9a      7e02           moveq 0x2, d7
       > 0x0050ae9c      4227           clr.b -(a7)
          0x0050ae9e      1f07           move.b d7, -(a7)
          0x0050aea0      2f10           move.l (a0), -(a7)
          0x0050aea2      3f11           move.w (a1), -(a7)
          0x0050aea4      4e92           jsr (a2)                    ; fcn.00000009+0x2
          0x0050aea6      dec1           adda.w d1, a7
          0x0050aea8      5207           addq.b 0x1, d7
          0x0050aeaa      0c070004       cmpi.b 0x4, d7
       < 0x0050aeae      6fec           ble.b 0x50ae9c
        > 0x0050aeb0      554f           subq.w 0x2, a7
            0x0050aeb2      4ebaf55e       jsr MENU3DCOM.PAS.pick_edges(pc)
            0x0050aeb6      4a1f           tst.b (a7)+
        < 0x0050aeb8      6716           beq.b 0x50aed0
           0x0050aeba      7e0c           moveq 0xc, d7
       > 0x0050aebc      1f02           move.b d2, -(a7)
          0x0050aebe      1f07           move.b d7, -(a7)
          0x0050aec0      2f10           move.l (a0), -(a7)
          0x0050aec2      3f11           move.w (a1), -(a7)
          0x0050aec4      4e92           jsr (a2)                    ; fcn.00000009+0x2
          0x0050aec6      dec1           adda.w d1, a7
          0x0050aec8      5207           addq.b 0x1, d7
          0x0050aeca      0c07000f       cmpi.b 0xf, d7
       < 0x0050aece      6fec           ble.b 0x50aebc
        > 0x0050aed0      554f           subq.w 0x2, a7
            0x0050aed2      4ebaf4f4       jsr MENU3DCOM.PAS.pick_corners(pc)
            0x0050aed6      4a1f           tst.b (a7)+
        < 0x0050aed8      6716           beq.b 0x50aef0
           0x0050aeda      7e08           moveq 0x8, d7
       > 0x0050aedc      4227           clr.b -(a7)
          0x0050aede      1f07           move.b d7, -(a7)
          0x0050aee0      2f10           move.l (a0), -(a7)
          0x0050aee2      3f11           move.w (a1), -(a7)
          0x0050aee4      4e92           jsr (a2)                    ; fcn.00000009+0x2
          0x0050aee6      dec1           adda.w d1, a7
          0x0050aee8      5207           addq.b 0x1, d7
          0x0050aeea      0c07000b       cmpi.b 0xb, d7
       < 0x0050aeee      6fec           ble.b 0x50aedc
        > 0x0050aef0      4cdf0787       movem.l (a7)+, d0-d2/d7/a0-a2
            0x0050aef4      4e5e           unlk a6
            0x0050aef6      4e75           rts
            ; CALL XREFS from MENU3DCOM.PAS.update_graphics @ 0x50ba14, 0x50bae8
 86: MENU3DCOM.PAS.draw_triad ();
           0x0050aef8      4e56ffc2       link.w a6, 0xffc2
           0x0050aefc      bfd5           cmpa.l (a5), a7
       < 0x0050aefe      6206           bhi.b 0x50af06
          0x0050af00      44fc0002       move.w 0x2, ccr
          0x0050af04      4e76           trapv
       > 0x0050af06      defc003e       adda.w 0x3e, a7
           0x0050af0a      48e7fef0       movem.l d0-d6/a0-a3, -(a7)
           0x0050af0e      43f90083d314   lea.l 0x83d314, a1
           0x0050af14      45f90083d1ce   lea.l 0x83d1ce, a2
           0x0050af1a      47faff20       lea.l MENU3DCOM.PAS.draw_triad_laye(pc), a3
           0x0050af1e      243cffff8000   move.l 0xffff8000, d2
           0x0050af24      7601           moveq 0x1, d3
           0x0050af26      283c0000ffff   move.l 0xffff, d4
           0x0050af2c      7a03           moveq 0x3, d5
           0x0050af2e      7c06           moveq 0x6, d6
           0x0050af30      4a2e0008       tst.b 0x8(a6)
       < 0x0050af34      6700009a       beq.w 0x50afd0
          0x0050af38      1011           move.b (a1), d0
          0x0050af3a      4880           ext.w d0
          0x0050af3c      4183           chk.w d3, d0
          0x0050af3e      204a           movea.l a2, a0
          0x0050af40      323007200148   move.w 0x148(a0, d0.w * 8), d1
          0x0050af46      48c1           ext.l d1
          0x0050af48      5481           addq.l 0x2, d1
          0x0050af4a      9282           sub.l d2, d1
          0x0050af4c      4304           chk.l d4, d1
           0x0050af4e      d282           add.l d2, d1
           0x0050af50      318107200148   move.w d1, 0x148(a0, d0.w * 8)
           0x0050af56      32300720014a   move.w 0x14a(a0, d0.w * 8), d1
           0x0050af5c      48c1           ext.l d1
           0x0050af5e      5481           addq.l 0x2, d1
           0x0050af60      9282           sub.l d2, d1
           0x0050af62      4304           chk.l d4, d1
           0x0050af64      d282           add.l d2, d1
           0x0050af66      31810720014a   move.w d1, 0x14a(a0, d0.w * 8)
           0x0050af6c      2f300720014c   move.l 0x14c(a0, d0.w * 8), -(a7)
           0x0050af72      2f3007200148   move.l 0x148(a0, d0.w * 8), -(a7)
           0x0050af78      4eb900634e04   jsr set_dots_area
           0x0050af7e      584f           addq.w 0x4, a7
           0x0050af80      2ebaea86       move.l 0x509a08(pc), (a7)
           0x0050af84      3f3aea80       move.w 0x509a06(pc), -(a7)
           0x0050af88      3f05           move.w d5, -(a7)
           0x0050af8a      4e93           jsr (a3)                    ; fcn.0000000c
           0x0050af8c      584f           addq.w 0x4, a7
           0x0050af8e      2ebaea60       move.l 0x5099f0(pc), (a7)
           0x0050af92      3f3aea5a       move.w 0x5099ee(pc), -(a7)
           0x0050af96      3f06           move.w d6, -(a7)
           0x0050af98      4e93           jsr (a3)                    ; fcn.0000000c
           0x0050af9a      504f           addq.w 0x8, a7
           0x0050af9c      1011           move.b (a1), d0
           0x0050af9e      4880           ext.w d0
           0x0050afa0      4183           chk.w d3, d0
           0x0050afa2      204a           movea.l a2, a0
           0x0050afa4      323007200148   move.w 0x148(a0, d0.w * 8), d1
           0x0050afaa      48c1           ext.l d1
           0x0050afac      5581           subq.l 0x2, d1
           0x0050afae      9282           sub.l d2, d1
           0x0050afb0      4304           chk.l d4, d1
           0x0050afb2      d282           add.l d2, d1
           0x0050afb4      318107200148   move.w d1, 0x148(a0, d0.w * 8)
           0x0050afba      32300720014a   move.w 0x14a(a0, d0.w * 8), d1
           0x0050afc0      48c1           ext.l d1
           0x0050afc2      5581           subq.l 0x2, d1
           0x0050afc4      9282           sub.l d2, d1
           0x0050afc6      4304           chk.l d4, d1
           0x0050afc8      d282           add.l d2, d1
           0x0050afca      31810720014a   move.w d1, 0x14a(a0, d0.w * 8)
        > 0x0050afd0      1011           move.b (a1), d0
            0x0050afd2      4880           ext.w d0
            0x0050afd4      4183           chk.w d3, d0
            0x0050afd6      204a           movea.l a2, a0
            0x0050afd8      2f300720014c   move.l 0x14c(a0, d0.w * 8), -(a7)
            0x0050afde      2f3007200148   move.l 0x148(a0, d0.w * 8), -(a7)
            0x0050afe4      4eb900634e04   jsr set_dots_area
            0x0050afea      584f           addq.w 0x4, a7
            0x0050afec      2eac0002       move.l 0x2(a4), (a7)
            0x0050aff0      3f14           move.w (a4), -(a7)
            0x0050aff2      3f05           move.w d5, -(a7)
            0x0050aff4      4e93           jsr (a3)                    ; fcn.0000000c
            0x0050aff6      584f           addq.w 0x4, a7
            0x0050aff8      2ebae9f6       move.l 0x5099f0(pc), (a7)
            0x0050affc      3f3ae9f0       move.w 0x5099ee(pc), -(a7)
            0x0050b000      3f06           move.w d6, -(a7)
            0x0050b002      4e93           jsr (a3)                    ; fcn.0000000c
            0x0050b004      504f           addq.w 0x8, a7
            0x0050b006      4cdf0f7f       movem.l (a7)+, d0-d6/a0-a3
            0x0050b00a      4e5e           unlk a6
            0x0050b00c      4e75           rts
 252: MENU3DCOM.PAS.draw_stripe ();
           0x0050b00e      4e56ff9e       link.w a6, 0xff9e
           0x0050b012      bfd5           cmpa.l (a5), a7
       < 0x0050b014      6206           bhi.b 0x50b01c
          0x0050b016      44fc0002       move.w 0x2, ccr
          0x0050b01a      4e76           trapv
       > 0x0050b01c      defc005e       adda.w 0x5e, a7
           0x0050b020      48e7f1f0       movem.l d0-d3/d7/a0-a3, -(a7)
           0x0050b024      7404           moveq 0x4, d2
           0x0050b026      761a           moveq 0x1a, d3
           0x0050b028      302c0004       move.w 0x4(a4), d0
           0x0050b02c      08000000       btst.b 0x0, d0
       < 0x0050b030      6708           beq.b 0x50b03a
          0x0050b032      2e3c28a8b1ff   move.l 0x28a8b1ff, d7
      < 0x0050b038      6006           bra.b 0x50b040
      > 0x0050b03a      2e3c803c80ff   move.l 0x803c80ff, d7
      > 0x0050b040      4eb90051f298   jsr BRUSHCOM.brush_wait
           0x0050b046      3f3c0003       move.w 0x3, -(a7)
           0x0050b04a      4eb90051f362   jsr BRUSHCOM.b_setup_control
           0x0050b050      544f           addq.w 0x2, a7
           0x0050b052      302c0004       move.w 0x4(a4), d0
           0x0050b056      48c0           ext.l d0
           0x0050b058      2200           move.l d0, d1
           0x0050b05a      5381           subq.l 0x1, d1
           0x0050b05c      0c81000003e7   cmpi.l 0x3e7, d1
       < 0x0050b062      6302           bls.b 0x50b066
          0x0050b064      4e4f           trap 0xf
       > 0x0050b066      41f90083d1ce   lea.l 0x83d1ce, a0
           0x0050b06c      41bc03e7       chk.w 0x3e7, d0
           0x0050b070      43f90083d1ce   lea.l 0x83d1ce, a1
           0x0050b076      246c0006       movea.l 0x6(a4), a2
           0x0050b07a      b5eafffc       cmpa.l -0x4(a2), a2
       < 0x0050b07e      6702           beq.b 0x50b082
          0x0050b080      4e4d           trap 0xd
       > 0x0050b082      594f           subq.w 0x4, a7
           0x0050b084      47f01d20016c   lea.l 0x16c(a0, d1.l * 4), a3
           0x0050b08a      2f0b           move.l a3, -(a7)
           0x0050b08c      47f10520016c   lea.l 0x16c(a1, d0.w * 4), a3
           0x0050b092      2f0b           move.l a3, -(a7)
           0x0050b094      48780000       pea.l 0x0
           0x0050b098      48780000       pea.l 0x0
           0x0050b09c      3f2a0014       move.w 0x14(a2), -(a7)
           0x0050b0a0      2f07           move.l d7, -(a7)
           0x0050b0a2      594f           subq.w 0x4, a7
           0x0050b0a4      1f02           move.b d2, -(a7)
           0x0050b0a6      4eb900631bae   jsr BRUSHESCOM.PAS.get_br_data
           0x0050b0ac      544f           addq.w 0x2, a7
           0x0050b0ae      4eb900634ffa   jsr draw_lines
           0x0050b0b4      dec3           adda.w d3, a7
           0x0050b0b6      4a9f           tst.l (a7)+
           0x0050b0b8      4eb90051f298   jsr BRUSHCOM.brush_wait
           0x0050b0be      3f3c0006       move.w 0x6, -(a7)
           0x0050b0c2      4eb90051f362   jsr BRUSHCOM.b_setup_control
           0x0050b0c8      554f           subq.w 0x2, a7
           0x0050b0ca      41f01d20016c   lea.l 0x16c(a0, d1.l * 4), a0
           0x0050b0d0      2f08           move.l a0, -(a7)
           0x0050b0d2      41f10520016c   lea.l 0x16c(a1, d0.w * 4), a0
           0x0050b0d8      2f08           move.l a0, -(a7)
           0x0050b0da      48780000       pea.l 0x0
           0x0050b0de      48780000       pea.l 0x0
           0x0050b0e2      3f2a0014       move.w 0x14(a2), -(a7)
           0x0050b0e6      2f3c80ff80ff   move.l 0x80ff80ff, -(a7)
           0x0050b0ec      594f           subq.w 0x4, a7
           0x0050b0ee      1f02           move.b d2, -(a7)
           0x0050b0f0      4eb900631bae   jsr BRUSHESCOM.PAS.get_br_data
           0x0050b0f6      544f           addq.w 0x2, a7
           0x0050b0f8      4eb900634ffa   jsr draw_lines
           0x0050b0fe      dec3           adda.w d3, a7
           0x0050b100      4a9f           tst.l (a7)+
           0x0050b102      4cdf0f8f       movem.l (a7)+, d0-d3/d7/a0-a3
           0x0050b106      4e5e           unlk a6
           0x0050b108      4e75           rts
 194: MENU3DCOM.PAS.draw_keyfrm_mar ();
           0x0050b10a      4e56ffac       link.w a6, 0xffac
           0x0050b10e      bfd5           cmpa.l (a5), a7
       < 0x0050b110      6206           bhi.b 0x50b118
          0x0050b112      44fc0002       move.w 0x2, ccr
          0x0050b116      4e76           trapv
       > 0x0050b118      defc0044       adda.w 0x44, a7
           0x0050b11c      48e7fff0       movem.l d0-d7/a0-a3, -(a7)
           0x0050b120      45eefff4       lea.l -0xc(a6), a2
           0x0050b124      47f90083d1ce   lea.l 0x83d1ce, a3
           0x0050b12a      263cffff8000   move.l 0xffff8000, d3
           0x0050b130      7808           moveq 0x8, d4
           0x0050b132      7a02           moveq 0x2, d5
           0x0050b134      7c03           moveq 0x3, d6
           0x0050b136      1f3c006f       move.b 0x6f, -(a7)
           0x0050b13a      4852           pea.l (a2)
           0x0050b13c      486efff2       pea.l -0xe(a6)
           0x0050b140      486efff8       pea.l -0x8(a6)
           0x0050b144      4eb9006a7b70   jsr TEXTMAV.get_ch_data
           0x0050b14a      defc000c       adda.w 0xc, a7
           0x0050b14e      3ebc4000       move.w 0x4000, (a7)
           0x0050b152      4eb900521034   jsr BRUSHCOM.br_pressure
           0x0050b158      544f           addq.w 0x2, a7
           0x0050b15a      2f12           move.l (a2), -(a7)
           0x0050b15c      4eb90051fa06   jsr BRUSHCOM.b_xfer_size
           0x0050b162      544f           addq.w 0x2, a7
           0x0050b164      4217           clr.b (a7)
           0x0050b166      2f2efff8       move.l -0x8(a6), -(a7)
           0x0050b16a      4eb90051f67c   jsr BRUSHCOM.b_source_pos
           0x0050b170      584f           addq.w 0x4, a7
           0x0050b172      3eb90083d338   move.w 0x83d338, (a7)
           0x0050b178      7e00           moveq 0x0, d7
       > 0x0050b17a      be57           cmp.w (a7), d7
      < 0x0050b17c      6e0000e0       bgt.w 0x50b25e
         0x0050b180      4fbc03e7       chk.w 0x3e7, d7
         0x0050b184      41f90083e2da   lea.l 0x83e2da, a0
         0x0050b18a      48c7           ext.l d7
         0x0050b18c      2007           move.l d7, d0
         0x0050b18e      e8d00801       bftst (a0){0:1}
     < 0x0050b192      670000c4       beq.w 0x50b258
        0x0050b196      204b           movea.l a3, a0
        0x0050b198      30307d20016c   move.w 0x16c(a0, d7.l * 4), d0
        0x0050b19e      48c0           ext.l d0
        0x0050b1a0      81c4           divs.w d4, d0
        0x0050b1a2      12390083d314   move.b 0x83d314, d1
        0x0050b1a8      4881           ext.w d1
        0x0050b1aa      43bc0001       chk.w 0x1, d1
        0x0050b1ae      224b           movea.l a3, a1
        0x0050b1b0      48c0           ext.l d0
        0x0050b1b2      343117200148   move.w 0x148(a1, d1.w * 8), d2
        0x0050b1b8      48c2           ext.l d2
        0x0050b1ba      d480           add.l d0, d2
        0x0050b1bc      3012           move.w (a2), d0
        0x0050b1be      48c0           ext.l d0
        0x0050b1c0      81c5           divs.w d5, d0
        0x0050b1c2      48c0           ext.l d0
        0x0050b1c4      4480           neg.l d0
        0x0050b1c6      d082           add.l d2, d0
        0x0050b1c8      9083           sub.l d3, d0
        0x0050b1ca      413c0000ffff   chk.l 0xffff, d0
         0x0050b1d0      d083           add.l d3, d0
         0x0050b1d2      3d40fffc       move.w d0, -0x4(a6)
         0x0050b1d6      30307d20016e   move.w 0x16e(a0, d7.l * 4), d0
         0x0050b1dc      48c0           ext.l d0
         0x0050b1de      81c4           divs.w d4, d0
         0x0050b1e0      48c0           ext.l d0
         0x0050b1e2      34311720014a   move.w 0x14a(a1, d1.w * 8), d2
         0x0050b1e8      48c2           ext.l d2
         0x0050b1ea      d480           add.l d0, d2
         0x0050b1ec      302efff6       move.w -0xa(a6), d0
         0x0050b1f0      48c0           ext.l d0
         0x0050b1f2      81c5           divs.w d5, d0
         0x0050b1f4      48c0           ext.l d0
         0x0050b1f6      4480           neg.l d0
         0x0050b1f8      d082           add.l d2, d0
         0x0050b1fa      9083           sub.l d3, d0
         0x0050b1fc      413c0000ffff   chk.l 0xffff, d0
         0x0050b202      d083           add.l d3, d0
         0x0050b204      3d40fffe       move.w d0, -0x2(a6)
         0x0050b208      2f3ae810       move.l 0x509a1a(pc), -(a7)
         0x0050b20c      3f3ae80a       move.w 0x509a18(pc), -(a7)
         0x0050b210      4eb900520fa4   jsr BRUSHCOM.set_br_colour
         0x0050b216      584f           addq.w 0x4, a7
         0x0050b218      1e86           move.b d6, (a7)
         0x0050b21a      2f2efffc       move.l -0x4(a6), -(a7)
         0x0050b21e      4eb90051f72c   jsr BRUSHCOM.b_dest_pos
         0x0050b224      584f           addq.w 0x4, a7
         0x0050b226      3e86           move.w d6, (a7)
         0x0050b228      4eb90051f362   jsr BRUSHCOM.b_setup_control
         0x0050b22e      544f           addq.w 0x2, a7
         0x0050b230      4eb90051fa16   jsr BRUSHCOM.b_go
         0x0050b236      2f3ae7b8       move.l 0x5099f0(pc), -(a7)
         0x0050b23a      3f3ae7b2       move.w 0x5099ee(pc), -(a7)
         0x0050b23e      4eb900520fa4   jsr BRUSHCOM.set_br_colour
         0x0050b244      584f           addq.w 0x4, a7
         0x0050b246      3ebc0006       move.w 0x6, (a7)
         0x0050b24a      4eb90051f362   jsr BRUSHCOM.b_setup_control
         0x0050b250      544f           addq.w 0x2, a7
         0x0050b252      4eb90051fa16   jsr BRUSHCOM.b_go
      > 0x0050b258      5247           addq.w 0x1, d7
       < 0x0050b25a      6800ff1e       bvc.w 0x50b17a              ; MENU3DCOM.PAS.draw_keyfrm_mar+0x70
       > 0x0050b25e      544f           addq.w 0x2, a7
            0x0050b260      4cdf0fff       movem.l (a7)+, d0-d7/a0-a3
            0x0050b264      4e5e           unlk a6
            0x0050b266      4e75           rts
            ; CALL XREF from MENU3DCOM.PAS.update_graphics @ 0x50baa2
 24: MENU3DCOM.PAS.draw_stripey_st ();
           0x0050b268      4e56ff9e       link.w a6, 0xff9e
           0x0050b26c      bfd5           cmpa.l (a5), a7
       < 0x0050b26e      6206           bhi.b 0x50b276
          0x0050b270      44fc0002       move.w 0x2, ccr
          0x0050b274      4e76           trapv
       > 0x0050b276      defc0054       adda.w 0x54, a7
           0x0050b27a      48e7fff8       movem.l d0-d7/a0-a4, -(a7)
           0x0050b27e      f227e001       fmovem fp0, -(a7)
            0x0050b282      43eefff8       lea.l -0x8(a6), a1
            0x0050b286      45f90083d338   lea.l 0x83d338, a2
            0x0050b28c      47eefffc       lea.l -0x4(a6), a3
            0x0050b290      263cffff8000   move.l 0xffff8000, d3
            0x0050b296      780a           moveq 0xa, d4
            0x0050b298      2a3c0000ffff   move.l 0xffff, d5
            0x0050b29e      7c01           moveq 0x1, d6
            0x0050b2a0      7ef6           moveq 0xf6, d7
            0x0050b2a2      594f           subq.w 0x4, a7
            0x0050b2a4      1f3c0004       move.b 0x4, -(a7)
            0x0050b2a8      4eb900631bae   jsr BRUSHESCOM.PAS.get_br_data
            0x0050b2ae      544f           addq.w 0x2, a7
            0x0050b2b0      2d5ffff4       move.l (a7)+, -0xc(a6)
            0x0050b2b4      206efff4       movea.l -0xc(a6), a0
            0x0050b2b8      b1e8fffc       cmpa.l -0x4(a0), a0
        < 0x0050b2bc      6702           beq.b 0x50b2c0
           0x0050b2be      4e4d           trap 0xd
        > 0x0050b2c0      30280118       move.w 0x118(a0), d0
            0x0050b2c4      c0fc0100       mulu.w 0x100, d0
            0x0050b2c8      9083           sub.l d3, d0
            0x0050b2ca      4105           chk.l d5, d0
            0x0050b2cc      d083           add.l d3, d0
            0x0050b2ce      3f00           move.w d0, -(a7)
            0x0050b2d0      4eb900521034   jsr BRUSHCOM.br_pressure
            0x0050b2d6      5d4f           subq.w 0x6, a7
            0x0050b2d8      3f3c00a7       move.w 0xa7, -(a7)
            0x0050b2dc      4eb90048d992   jsr MENU2COM.get_numeric_val
            0x0050b2e2      544f           addq.w 0x2, a7
            0x0050b2e4      4eb9004081f8   jsr p_trunc
            0x0050b2ea      584f           addq.w 0x4, a7
            0x0050b2ec      201f           move.l (a7)+, d0
            0x0050b2ee      5380           subq.l 0x1, d0
            0x0050b2f0      9083           sub.l d3, d0
            0x0050b2f2      4105           chk.l d5, d0
            0x0050b2f4      d083           add.l d3, d0
            0x0050b2f6      3480           move.w d0, (a2)
            0x0050b2f8      0c4003e7       cmpi.w 0x3e7, d0
        < 0x0050b2fc      6f04           ble.b 0x50b302
           0x0050b2fe      34bc03e7       move.w 0x3e7, (a2)
        > 0x0050b302      3f12           move.w (a2), -(a7)
            0x0050b304      7000           moveq 0x0, d0
        > 0x0050b306      b057           cmp.w (a7), d0
       < 0x0050b308      6e00011e       bgt.w 0x50b428
          0x0050b30c      3d40fff2       move.w d0, -0xe(a6)
          0x0050b310      4a2e0008       tst.b 0x8(a6)
      < 0x0050b314      670000fc       beq.w 0x50b412
         0x0050b318      2f2c002c       move.l 0x2c(a4), -(a7)
         0x0050b31c      3f00           move.w d0, -(a7)
         0x0050b31e      4851           pea.l (a1)
         0x0050b320      12390083d1cf   move.b 0x83d1cf, d1
         0x0050b326      4401           neg.b d1
         0x0050b328      5201           addq.b 0x1, d1
         0x0050b32a      4881           ext.w d1
         0x0050b32c      4386           chk.w d6, d1
         0x0050b32e      1f01           move.b d1, -(a7)
         0x0050b330      4eb900670520   jsr PASTECOM.calc_string
         0x0050b336      defc000c       adda.w 0xc, a7
         0x0050b33a      f2114400       fmove.s (a1), fp0
         0x0050b33e      f2044038       fcmp.l d4, fp0
         0x0050b342      f29d0008       fbf.w 0x50b34c
         0x0050b346      f2044000       fmove.l d4, fp0
     < 0x0050b34a      6010           bra.b 0x50b35c
        0x0050b34c      f2114400       fmove.s (a1), fp0
        0x0050b350      f2074038       fcmp.l d7, fp0
        0x0050b354      f29b000a       fbf.w 0x50b360
        0x0050b358      f2074000       fmove.l d7, fp0
     > 0x0050b35c      f2116400       fmove.s fp0, (a1)
         0x0050b360      f2134400       fmove.s (a3), fp0
         0x0050b364      f2044038       fcmp.l d4, fp0
         0x0050b368      f29d0008       fbf.w 0x50b372
         0x0050b36c      f2044000       fmove.l d4, fp0
     < 0x0050b370      6010           bra.b 0x50b382
        0x0050b372      f2134400       fmove.s (a3), fp0
        0x0050b376      f2074038       fcmp.l d7, fp0
        0x0050b37a      f29b000a       fbf.w 0x50b386
        0x0050b37e      f2074000       fmove.l d7, fp0
     > 0x0050b382      f2136400       fmove.s fp0, (a3)
         0x0050b386      41bc03e7       chk.w 0x3e7, d0
         0x0050b38a      41f90083d1ce   lea.l 0x83d1ce, a0
         0x0050b390      594f           subq.w 0x4, a7
         0x0050b392      f2114400       fmove.s (a1), fp0
         0x0050b396      f23944230083.  fmul.s 0x83d1d4, fp0
         0x0050b39e      f2276400       fmove.s fp0, -(a7)
         0x0050b3a2      4eb9004081d2   jsr p_round
         0x0050b3a8      584f           addq.w 0x4, a7
         0x0050b3aa      32390083d238   move.w 0x83d238, d1
         0x0050b3b0      48c1           ext.l d1
         0x0050b3b2      d29f           add.l (a7)+, d1
         0x0050b3b4      9283           sub.l d3, d1
         0x0050b3b6      4305           chk.l d5, d1
         0x0050b3b8      d283           add.l d3, d1
         0x0050b3ba      31810520016c   move.w d1, 0x16c(a0, d0.w * 4)
         0x0050b3c0      594f           subq.w 0x4, a7
         0x0050b3c2      f2134400       fmove.s (a3), fp0
         0x0050b3c6      f23944230083.  fmul.s 0x83d1dc, fp0
         0x0050b3ce      f2276400       fmove.s fp0, -(a7)
         0x0050b3d2      4eb9004081d2   jsr p_round
         0x0050b3d8      584f           addq.w 0x4, a7
         0x0050b3da      32390083d23a   move.w 0x83d23a, d1
         0x0050b3e0      48c1           ext.l d1
         0x0050b3e2      d29f           add.l (a7)+, d1
         0x0050b3e4      9283           sub.l d3, d1
         0x0050b3e6      4305           chk.l d5, d1
         0x0050b3e8      d283           add.l d3, d1
         0x0050b3ea      31810520016e   move.w d1, 0x16e(a0, d0.w * 4)
         0x0050b3f0      41f90083e2da   lea.l 0x83e2da, a0
         0x0050b3f6      48c0           ext.l d0
         0x0050b3f8      2200           move.l d0, d1
         0x0050b3fa      554f           subq.w 0x2, a7
         0x0050b3fc      2f2c002c       move.l 0x2c(a4), -(a7)
         0x0050b400      4eb90075cc1a   jsr MENUKEYFRMCOM.get_keyfrm_stat
         0x0050b406      584f           addq.w 0x4, a7
         0x0050b408      141f           move.b (a7)+, d2
         0x0050b40a      4882           ext.w d2
         0x0050b40c      4586           chk.w d6, d2
         0x0050b40e      efd02841       bfins d2, (a0){1:1}
      > 0x0050b412      4a40           tst.w d0
      < 0x0050b414      6f0c           ble.b 0x50b422
         0x0050b416      49eeffee       lea.l -0x12(a6), a4
         0x0050b41a      4ebafbf2       jsr MENU3DCOM.PAS.draw_stripe(pc)
         0x0050b41e      286effee       movea.l -0x12(a6), a4
      > 0x0050b422      5240           addq.w 0x1, d0
       < 0x0050b424      6800fee0       bvc.w 0x50b306
       > 0x0050b428      544f           addq.w 0x2, a7
            0x0050b42a      4ebafcde       jsr MENU3DCOM.PAS.draw_keyfrm_mar(pc)
            0x0050b42e      4a2e0008       tst.b 0x8(a6)
        < 0x0050b432      6752           beq.b 0x50b486
           0x0050b434      2f2c002c       move.l 0x2c(a4), -(a7)
           0x0050b438      9ec4           suba.w d4, a7
           0x0050b43a      3f3c00a6       move.w 0xa6, -(a7)
           0x0050b43e      4eb90048d992   jsr MENU2COM.get_numeric_val
           0x0050b444      544f           addq.w 0x2, a7
           0x0050b446      4eb9004081f8   jsr p_trunc
           0x0050b44c      584f           addq.w 0x4, a7
           0x0050b44e      201f           move.l (a7)+, d0
           0x0050b450      5380           subq.l 0x1, d0
           0x0050b452      9083           sub.l d3, d0
           0x0050b454      4105           chk.l d5, d0
           0x0050b456      d083           add.l d3, d0
           0x0050b458      3e80           move.w d0, (a7)
           0x0050b45a      4851           pea.l (a1)
           0x0050b45c      10390083d1cf   move.b 0x83d1cf, d0
           0x0050b462      4400           neg.b d0
           0x0050b464      5200           addq.b 0x1, d0
           0x0050b466      4880           ext.w d0
           0x0050b468      4186           chk.w d6, d0
           0x0050b46a      1f00           move.b d0, -(a7)
           0x0050b46c      4eb900670520   jsr PASTECOM.calc_string
           0x0050b472      5c4f           addq.w 0x6, a7
           0x0050b474      1e86           move.b d6, (a7)
           0x0050b476      4eb900670a94   jsr PASTECOM.get_cutout
           0x0050b47c      544f           addq.w 0x2, a7
           0x0050b47e      4eb90066ff74   jsr PASTECOM.calc_transforms
           0x0050b484      584f           addq.w 0x4, a7
        > 0x0050b486      f21fd080       fmovem (a7)+, fp0
            0x0050b48a      4cdf1fff       movem.l (a7)+, d0-d7/a0-a4
            0x0050b48e      4e5e           unlk a6
            0x0050b490      4e75           rts
 24: MENU3DCOM.PAS.code ();
           0x0050b492      4e56ffdc       link.w a6, 0xffdc
           0x0050b496      bfd5           cmpa.l (a5), a7
       < 0x0050b498      6206           bhi.b 0x50b4a0
          0x0050b49a      44fc0002       move.w 0x2, ccr
          0x0050b49e      4e76           trapv
       > 0x0050b4a0      defc0024       adda.w 0x24, a7
           0x0050b4a4      48e780c0       movem.l d0/a0-a1, -(a7)
           0x0050b4a8      f227e001       fmovem fp0, -(a7)
            0x0050b4ac      7004           moveq 0x4, d0
            0x0050b4ae      206e0008       movea.l 0x8(a6), a0
            0x0050b4b2      10bae7ef       move.b 0x509ca3(pc), (a0)
            0x0050b4b6      226e000c       movea.l 0xc(a6), a1
            0x0050b4ba      f2114400       fmove.s (a1), fp0
            0x0050b4be      f23c4038ffff.  fcmp.l 0xfffffffc, fp0
            0x0050b4c6      f29b0008       fbf.w 0x50b4d0
            0x0050b4ca      10bae7d8       move.b 0x509ca4(pc), (a0)
        < 0x0050b4ce      6010           bra.b 0x50b4e0
           0x0050b4d0      f2114400       fmove.s (a1), fp0
           0x0050b4d4      f2004038       fcmp.l d0, fp0
           0x0050b4d8      f29d0006       fbf.w 0x50b4e0
           0x0050b4dc      10bae7c8       move.b 0x509ca6(pc), (a0)
        > 0x0050b4e0      f22944000004   fmove.s 0x4(a1), fp0
            0x0050b4e6      f23c4038ffff.  fcmp.l 0xfffffffd, fp0
            0x0050b4ee      f29b0008       fbf.w 0x50b4f8
            0x0050b4f2      00100008       ori.b 0x8, (a0)
        < 0x0050b4f6      6014           bra.b 0x50b50c
           0x0050b4f8      f22944000004   fmove.s 0x4(a1), fp0
           0x0050b4fe      f23c40380000.  fcmp.l 0x3, fp0
           0x0050b506      f29d0004       fbf.w 0x50b50c
           0x0050b50a      8110           or.b d0, (a0)
        > 0x0050b50c      f21fd080       fmovem (a7)+, fp0
            0x0050b510      4cdf0301       movem.l (a7)+, d0/a0-a1
            0x0050b514      4e5e           unlk a6
            0x0050b516      4e75           rts
            ; CALL XREFS from MENU3DCOM.PAS.update_graphics @ 0x50b972, 0x50b9fa
 24: MENU3DCOM.PAS.pick_clip ();
           0x0050b518      4e56ff9a       link.w a6, 0xff9a
           0x0050b51c      bfd5           cmpa.l (a5), a7
       < 0x0050b51e      6206           bhi.b 0x50b526
          0x0050b520      44fc0002       move.w 0x2, ccr
          0x0050b524      4e76           trapv
       > 0x0050b526      defc005a       adda.w 0x5a, a7
           0x0050b52a      48e7fff0       movem.l d0-d7/a0-a3, -(a7)
           0x0050b52e      f227e003       fmovem fp0-fp1, -(a7)
            0x0050b532      43ee0010       lea.l 0x10(a6), a1
            0x0050b536      45ee0014       lea.l 0x14(a6), a2
            0x0050b53a      47eefffc       lea.l -0x4(a6), a3
            0x0050b53e      243cffff8000   move.l 0xffff8000, d2
            0x0050b544      7603           moveq 0x3, d3
            0x0050b546      283c0000ffff   move.l 0xffff, d4
            0x0050b54c      7a10           moveq 0x10, d5
            0x0050b54e      7cfc           moveq 0xfc, d6
            0x0050b550      7e01           moveq 0x1, d7
            0x0050b552      102c000a       move.b 0xa(a4), d0
            0x0050b556      4880           ext.w d0
            0x0050b558      4185           chk.w d5, d0
            0x0050b55a      41f90083d1ce   lea.l 0x83d1ce, a0
            0x0050b560      42300072       clr.b 0x72(a0, d0.w)
            0x0050b564      f2114400       fmove.s (a1), fp0
            0x0050b568      f22e44380008   fcmp.s 0x8(a6), fp0
            0x0050b56e      f296002a       fbf.w 0x50b59a
            0x0050b572      f2124400       fmove.s (a2), fp0
            0x0050b576      f22e4438000c   fcmp.s 0xc(a6), fp0
            0x0050b57c      f296001c       fbf.w 0x50b59a
            0x0050b580      4851           pea.l (a1)
            0x0050b582      4853           pea.l (a3)
            0x0050b584      4ebaff0c       jsr MENU3DCOM.PAS.code(pc)
            0x0050b588      504f           addq.w 0x8, a7
            0x0050b58a      1013           move.b (a3), d0
            0x0050b58c      b03ae6f6       cmp.b 0x509c84(pc), d0
        < 0x0050b590      6604           bne.b 0x50b596
       < 0x0050b592      6000018e       bra.w 0x50b722
      > 0x0050b596      60000266       bra.w 0x50b7fe
          0x0050b59a      4851           pea.l (a1)
          0x0050b59c      486efffd       pea.l -0x3(a6)
          0x0050b5a0      4ebafef0       jsr MENU3DCOM.PAS.code(pc)
          0x0050b5a4      504f           addq.w 0x8, a7
          0x0050b5a6      486e0008       pea.l 0x8(a6)
          0x0050b5aa      486efffe       pea.l -0x2(a6)
          0x0050b5ae      4ebafee2       jsr MENU3DCOM.PAS.code(pc)
          0x0050b5b2      504f           addq.w 0x8, a7
      > 0x0050b5b4      102efffd       move.b -0x3(a6), d0
         0x0050b5b8      b03ae6ca       cmp.b 0x509c84(pc), d0
     < 0x0050b5bc      660c           bne.b 0x50b5ca
        0x0050b5be      102efffe       move.b -0x2(a6), d0
        0x0050b5c2      b03ae6c0       cmp.b 0x509c84(pc), d0
    < 0x0050b5c6      6700015a       beq.w 0x50b722
    > 0x0050b5ca      102efffd       move.b -0x3(a6), d0
        0x0050b5ce      c02efffe       and.b -0x2(a6), d0
        0x0050b5d2      b03ae6b0       cmp.b 0x509c84(pc), d0
    < 0x0050b5d6      6704           beq.b 0x50b5dc
   < 0x0050b5d8      60000224       bra.w 0x50b7fe
   > 0x0050b5dc      16aefffd       move.b -0x3(a6), (a3)
       0x0050b5e0      1013           move.b (a3), d0
       0x0050b5e2      b03ae6a0       cmp.b 0x509c84(pc), d0
   < 0x0050b5e6      6604           bne.b 0x50b5ec
      0x0050b5e8      16aefffe       move.b -0x2(a6), (a3)
   > 0x0050b5ec      0513           btst.l d2, (a3)
   < 0x0050b5ee      673c           beq.b 0x50b62c
      0x0050b5f0      f22e4400000c   fmove.s 0xc(a6), fp0
      0x0050b5f6      f2124428       fsub.s (a2), fp0
      0x0050b5fa      f2064080       fmove.l d6, fp1
      0x0050b5fe      f21144a8       fsub.s (a1), fp1
      0x0050b602      f20000a3       fmul fp0, fp1
      0x0050b606      f22e44000008   fmove.s 0x8(a6), fp0
      0x0050b60c      f2114428       fsub.s (a1), fp0
      0x0050b610      f20000a0       fdiv fp0, fp1
      0x0050b614      f21244a2       fadd.s (a2), fp1
      0x0050b618      f22e6480fff8   fmove.s fp1, -0x8(a6)
      0x0050b61e      f2064000       fmove.l d6, fp0
  > 0x0050b622      f22e6400fff4   fmove.s fp0, -0xc(a6)
  < 0x0050b628      600000c0       bra.w 0x50b6ea
  > 0x0050b62c      0f13           btst.l d7, (a3)
  < 0x0050b62e      673c           beq.b 0x50b66c
     0x0050b630      f22e4400000c   fmove.s 0xc(a6), fp0
     0x0050b636      f2124428       fsub.s (a2), fp0
     0x0050b63a      f23c40800000.  fmove.l 0x4, fp1
     0x0050b642      f21144a8       fsub.s (a1), fp1
     0x0050b646      f20000a3       fmul fp0, fp1
     0x0050b64a      f22e44000008   fmove.s 0x8(a6), fp0
     0x0050b650      f2114428       fsub.s (a1), fp0
     0x0050b654      f20000a0       fdiv fp0, fp1
     0x0050b658      f21244a2       fadd.s (a2), fp1
     0x0050b65c      f22e6480fff8   fmove.s fp1, -0x8(a6)
     0x0050b662      f23c40000000.  fmove.l 0x4, fp0
  < 0x0050b66a      60b6           bra.b 0x50b622
   > 0x0050b66c      0713           btst.l d3, (a3)
   < 0x0050b66e      673c           beq.b 0x50b6ac
      0x0050b670      f22e44000008   fmove.s 0x8(a6), fp0
      0x0050b676      f2114428       fsub.s (a1), fp0
      0x0050b67a      f23c4080ffff.  fmove.l 0xfffffffd, fp1
      0x0050b682      f21244a8       fsub.s (a2), fp1
      0x0050b686      f20000a3       fmul fp0, fp1
      0x0050b68a      f22e4400000c   fmove.s 0xc(a6), fp0
      0x0050b690      f2124428       fsub.s (a2), fp0
      0x0050b694      f20000a0       fdiv fp0, fp1
      0x0050b698      f21144a2       fadd.s (a1), fp1
      0x0050b69c      f22e6480fff4   fmove.s fp1, -0xc(a6)
      0x0050b6a2      f23c4000ffff.  fmove.l 0xfffffffd, fp0
  < 0x0050b6aa      6038           bra.b 0x50b6e4
  > 0x0050b6ac      08130002       btst.b 0x2, (a3)
  < 0x0050b6b0      6738           beq.b 0x50b6ea
     0x0050b6b2      f22e44000008   fmove.s 0x8(a6), fp0
     0x0050b6b8      f2114428       fsub.s (a1), fp0
     0x0050b6bc      f2034080       fmove.l d3, fp1
     0x0050b6c0      f21244a8       fsub.s (a2), fp1
     0x0050b6c4      f20000a3       fmul fp0, fp1
     0x0050b6c8      f22e4400000c   fmove.s 0xc(a6), fp0
     0x0050b6ce      f2124428       fsub.s (a2), fp0
     0x0050b6d2      f20000a0       fdiv fp0, fp1
     0x0050b6d6      f21144a2       fadd.s (a1), fp1
     0x0050b6da      f22e6480fff4   fmove.s fp1, -0xc(a6)
     0x0050b6e0      f2034000       fmove.l d3, fp0
  > 0x0050b6e4      f22e6400fff8   fmove.s fp0, -0x8(a6)
  > 0x0050b6ea      1013           move.b (a3), d0
       0x0050b6ec      b02efffd       cmp.b -0x3(a6), d0
   < 0x0050b6f0      6612           bne.b 0x50b704
      0x0050b6f2      22aefff4       move.l -0xc(a6), (a1)
      0x0050b6f6      24aefff8       move.l -0x8(a6), (a2)
      0x0050b6fa      486efff4       pea.l -0xc(a6)
      0x0050b6fe      486efffd       pea.l -0x3(a6)
  < 0x0050b702      6014           bra.b 0x50b718
  > 0x0050b704      2d6efff40008   move.l -0xc(a6), 0x8(a6)
      0x0050b70a      2d6efff8000c   move.l -0x8(a6), 0xc(a6)
      0x0050b710      486efff4       pea.l -0xc(a6)
      0x0050b714      486efffe       pea.l -0x2(a6)
  > 0x0050b718      4ebafd78       jsr MENU3DCOM.PAS.code(pc)
       0x0050b71c      504f           addq.w 0x8, a7
    < 0x0050b71e      6000fe94       bra.w 0x50b5b4
   > 0x0050b722      102c000a       move.b 0xa(a4), d0
          0x0050b726      4880           ext.w d0
          0x0050b728      4185           chk.w d5, d0
          0x0050b72a      41f90083d1ce   lea.l 0x83d1ce, a0
          0x0050b730      594f           subq.w 0x4, a7
          0x0050b732      f2114400       fmove.s (a1), fp0
          0x0050b736      f23944230083.  fmul.s 0x83d1d4, fp0
          0x0050b73e      f2276400       fmove.s fp0, -(a7)
          0x0050b742      4eb9004081d2   jsr p_round
          0x0050b748      584f           addq.w 0x4, a7
          0x0050b74a      32390083d23c   move.w 0x83d23c, d1
          0x0050b750      48c1           ext.l d1
          0x0050b752      d29f           add.l (a7)+, d1
          0x0050b754      9282           sub.l d2, d1
          0x0050b756      4304           chk.l d4, d1
          0x0050b758      d282           add.l d2, d1
          0x0050b75a      318107200084   move.w d1, 0x84(a0, d0.w * 8)
          0x0050b760      594f           subq.w 0x4, a7
          0x0050b762      f2124400       fmove.s (a2), fp0
          0x0050b766      f23944230083.  fmul.s 0x83d1dc, fp0
          0x0050b76e      f2276400       fmove.s fp0, -(a7)
          0x0050b772      4eb9004081d2   jsr p_round
          0x0050b778      584f           addq.w 0x4, a7
          0x0050b77a      32390083d23e   move.w 0x83d23e, d1
          0x0050b780      48c1           ext.l d1
          0x0050b782      d29f           add.l (a7)+, d1
          0x0050b784      9282           sub.l d2, d1
          0x0050b786      4304           chk.l d4, d1
          0x0050b788      d282           add.l d2, d1
          0x0050b78a      318107200086   move.w d1, 0x86(a0, d0.w * 8)
          0x0050b790      594f           subq.w 0x4, a7
          0x0050b792      f22e44000008   fmove.s 0x8(a6), fp0
          0x0050b798      f23944230083.  fmul.s 0x83d1d4, fp0
          0x0050b7a0      f2276400       fmove.s fp0, -(a7)
          0x0050b7a4      4eb9004081d2   jsr p_round
          0x0050b7aa      584f           addq.w 0x4, a7
          0x0050b7ac      32390083d23c   move.w 0x83d23c, d1
          0x0050b7b2      48c1           ext.l d1
          0x0050b7b4      d29f           add.l (a7)+, d1
          0x0050b7b6      9282           sub.l d2, d1
          0x0050b7b8      4304           chk.l d4, d1
          0x0050b7ba      d282           add.l d2, d1
          0x0050b7bc      318107200088   move.w d1, 0x88(a0, d0.w * 8)
          0x0050b7c2      594f           subq.w 0x4, a7
          0x0050b7c4      f22e4400000c   fmove.s 0xc(a6), fp0
          0x0050b7ca      f23944230083.  fmul.s 0x83d1dc, fp0
          0x0050b7d2      f2276400       fmove.s fp0, -(a7)
          0x0050b7d6      4eb9004081d2   jsr p_round
          0x0050b7dc      584f           addq.w 0x4, a7
          0x0050b7de      32390083d23e   move.w 0x83d23e, d1
          0x0050b7e4      48c1           ext.l d1
          0x0050b7e6      d29f           add.l (a7)+, d1
          0x0050b7e8      9282           sub.l d2, d1
          0x0050b7ea      4304           chk.l d4, d1
          0x0050b7ec      d282           add.l d2, d1
          0x0050b7ee      31810720008a   move.w d1, 0x8a(a0, d0.w * 8)
          0x0050b7f4      41f90083d1ce   lea.l 0x83d1ce, a0
          0x0050b7fa      11870072       move.b d7, 0x72(a0, d0.w)
   > 0x0050b7fe      f21fd0c0       fmovem (a7)+, fp0-fp1
            0x0050b802      4cdf0fff       movem.l (a7)+, d0-d7/a0-a3
            0x0050b806      4e5e           unlk a6
            0x0050b808      4e75           rts
            ; CALL XREF from MENU3DCOM.PAS @ +0x248c
 748: MENU3DCOM.PAS.update_graphics ();
           ; var int32_t var_1each @ a6-0x1eac
           ; var int32_t var_1eaah @ a6-0x1eaa
           ; var int32_t var_1e6ch @ a6-0x1e6c
           ; var int32_t var_1e6ah @ a6-0x1e6a
           0x0050b80a      4e56ff48       link.w a6, 0xff48
           0x0050b80e      bfd5           cmpa.l (a5), a7
       < 0x0050b810      6206           bhi.b 0x50b818
          0x0050b812      44fc0002       move.w 0x2, ccr
          0x0050b816      4e76           trapv
       > 0x0050b818      defc0084       adda.w 0x84, a7
           0x0050b81c      48e7f8f8       movem.l d0-d4/a0-a4, -(a7)
           0x0050b820      45f90083d314   lea.l 0x83d314, a2
           0x0050b826      47f90083d1ce   lea.l 0x83d1ce, a3
           0x0050b82c      7403           moveq 0x3, d2
           0x0050b82e      7601           moveq 0x1, d3
           0x0050b830      7810           moveq 0x10, d4
           0x0050b832      5d4f           subq.w 0x6, a7
           0x0050b834      3f3c0080       move.w 0x80, -(a7)
           0x0050b838      4eb900480fc2   jsr MENUCOM.get_boxon
           0x0050b83e      544f           addq.w 0x2, a7
           0x0050b840      1017           move.b (a7), d0
           0x0050b842      4880           ext.w d0
           0x0050b844      4183           chk.w d3, d0
           0x0050b846      1e80           move.b d0, (a7)
           0x0050b848      4eb900670a94   jsr PASTECOM.get_cutout
           0x0050b84e      544f           addq.w 0x2, a7
           0x0050b850      2d57fff8       move.l (a7), -0x8(a6)
           0x0050b854      4227           clr.b -(a7)
           0x0050b856      4eb900670a94   jsr PASTECOM.get_cutout
           0x0050b85c      544f           addq.w 0x2, a7
           0x0050b85e      2d57fffc       move.l (a7), -0x4(a6)
           0x0050b862      3ebc0080       move.w 0x80, (a7)
           0x0050b866      4eb900480fc2   jsr MENUCOM.get_boxon
           0x0050b86c      544f           addq.w 0x2, a7
           0x0050b86e      4a1f           tst.b (a7)+
       < 0x0050b870      670e           beq.b 0x50b880
          0x0050b872      2d7ae156ffcc   move.l 0x5099ca(pc), -0x34(a6)
          0x0050b878      3d7ae154ffd0   move.w 0x5099ce(pc), -0x30(a6)
      < 0x0050b87e      600c           bra.b 0x50b88c
      > 0x0050b880      2d7ae196ffcc   move.l 0x509a18(pc), -0x34(a6)
          0x0050b886      3d7ae194ffd0   move.w 0x509a1c(pc), -0x30(a6)
      > 0x0050b88c      14ae000a       move.b 0xa(a6), (a2)
           0x0050b890      1012           move.b (a2), d0
           0x0050b892      4880           ext.w d0
           0x0050b894      204b           movea.l a3, a0
           0x0050b896      2f300720014c   move.l 0x14c(a0, d0.w * 8), -(a7)
           0x0050b89c      2f3007200148   move.l 0x148(a0, d0.w * 8), -(a7)
           0x0050b8a2      4eb900634e04   jsr set_dots_area
           0x0050b8a8      5c4f           addq.w 0x6, a7
           0x0050b8aa      1e82           move.b d2, (a7)
           0x0050b8ac      1012           move.b (a2), d0
           0x0050b8ae      4880           ext.w d0
           0x0050b8b0      204b           movea.l a3, a0
           0x0050b8b2      2f300720014c   move.l 0x14c(a0, d0.w * 8), -(a7)
           0x0050b8b8      2f3007200148   move.l 0x148(a0, d0.w * 8), -(a7)
           0x0050b8be      4eb9005223fc   jsr BRUSHCOM.str_write_area
           0x0050b8c4      defc000a       adda.w 0xa, a7
           0x0050b8c8      4a2e0008       tst.b 0x8(a6)
       < 0x0050b8cc      6734           beq.b 0x50b902
          0x0050b8ce      48780001       pea.l 0x1
          0x0050b8d2      4eb900402e42   jsr p_Delay
          0x0050b8d8      544f           addq.w 0x2, a7
          0x0050b8da      4257           clr.w (a7)
          0x0050b8dc      2f3ae12a       move.l 0x509a08(pc), -(a7)
          0x0050b8e0      3f3ae124       move.w 0x509a06(pc), -(a7)
          0x0050b8e4      1f02           move.b d2, -(a7)
          0x0050b8e6      1012           move.b (a2), d0
          0x0050b8e8      4880           ext.w d0
          0x0050b8ea      204b           movea.l a3, a0
          0x0050b8ec      2f300720014c   move.l 0x14c(a0, d0.w * 8), -(a7)
          0x0050b8f2      2f3007200148   move.l 0x148(a0, d0.w * 8), -(a7)
          0x0050b8f8      4eb9005215a8   jsr BRUSHCOM.br_wipe_colour
          0x0050b8fe      defc0012       adda.w 0x12, a7
       > 0x0050b902      206efff8       movea.l -0x8(a6), a0
           0x0050b906      b1e8fffc       cmpa.l -0x4(a0), a0
       < 0x0050b90a      6702           beq.b 0x50b90e
          0x0050b90c      4e4d           trap 0xd
       > 0x0050b90e      43e801c8       lea.l 0x1c8(a0), a1
           0x0050b912      7011           moveq 0x11, d0
       > 0x0050b914      2f21           move.l -(a1), -(a7)
       < 0x0050b916      51c8fffc       dbra d0, 0x50b914
           0x0050b91a      48680138       pea.l 0x138(a0)
           0x0050b91e      486802a0       pea.l 0x2a0(a0)
           0x0050b922      486effd8       pea.l -0x28(a6)
           0x0050b926      4eb90067a7f8   jsr THREEDMAV.calc_triad
           0x0050b92c      defc0054       adda.w 0x54, a7
           0x0050b930      7001           moveq 0x1, d0
       > 0x0050b932      1d40ffd6       move.b d0, -0x2a(a6)
          0x0050b936      4880           ext.w d0
          0x0050b938      41fae1ca       lea.l 0x509b04(pc), a0
          0x0050b93c      32300200       move.w (a0, d0.w * 2), d1
          0x0050b940      48c1           ext.l d1
          0x0050b942      5381           subq.l 0x1, d1
          0x0050b944      b282           cmp.l d2, d1
      < 0x0050b946      6302           bls.b 0x50b94a
         0x0050b948      4e4f           trap 0xf
      > 0x0050b94a      2f361edc       move.l -0x24(a6, d1.l), -(a7)
          0x0050b94e      2f361ed8       move.l -0x28(a6, d1.l), -(a7)
          0x0050b952      4880           ext.w d0
          0x0050b954      41fae1d0       lea.l 0x509b26(pc), a0
          0x0050b958      32300200       move.w (a0, d0.w * 2), d1
          0x0050b95c      48c1           ext.l d1
          0x0050b95e      5381           subq.l 0x1, d1
          0x0050b960      b282           cmp.l d2, d1
      < 0x0050b962      6302           bls.b 0x50b966
         0x0050b964      4e4f           trap 0xf
      > 0x0050b966      2f361edc       move.l -0x24(a6, d1.l), -(a7)
          0x0050b96a      2f361ed8       move.l -0x28(a6, d1.l), -(a7)
          0x0050b96e      49eeffcc       lea.l -0x34(a6), a4
          0x0050b972      4ebafba4       jsr MENU3DCOM.PAS.pick_clip(pc)
          0x0050b976      dec4           adda.w d4, a7
          0x0050b978      5200           addq.b 0x1, d0
          0x0050b97a      0c000007       cmpi.b 0x7, d0
       < 0x0050b97e      6fb2           ble.b 0x50b932
           0x0050b980      206efffc       movea.l -0x4(a6), a0
           0x0050b984      b1e8fffc       cmpa.l -0x4(a0), a0
       < 0x0050b988      6702           beq.b 0x50b98c
          0x0050b98a      4e4d           trap 0xd
       > 0x0050b98c      48680210       pea.l 0x210(a0)
           0x0050b990      486802a0       pea.l 0x2a0(a0)
           0x0050b994      48680056       pea.l 0x56(a0)
           0x0050b998      486802b8       pea.l 0x2b8(a0)
           0x0050b99c      4eb90067d034   jsr THREEDMAV.transform_shape
           0x0050b9a2      dec4           adda.w d4, a7
           0x0050b9a4      7008           moveq 0x8, d0
       > 0x0050b9a6      1d40ffd6       move.b d0, -0x2a(a6)
          0x0050b9aa      206efffc       movea.l -0x4(a6), a0
          0x0050b9ae      b1e8fffc       cmpa.l -0x4(a0), a0
      < 0x0050b9b2      6702           beq.b 0x50b9b6
         0x0050b9b4      4e4d           trap 0xd
      > 0x0050b9b6      4880           ext.w d0
          0x0050b9b8      43fae14a       lea.l 0x509b04(pc), a1
          0x0050b9bc      32310200       move.w (a1, d0.w * 2), d1
          0x0050b9c0      48c1           ext.l d1
          0x0050b9c2      5381           subq.l 0x1, d1
          0x0050b9c4      b282           cmp.l d2, d1
      < 0x0050b9c6      6302           bls.b 0x50b9ca
         0x0050b9c8      4e4f           trap 0xf
      > 0x0050b9ca      2f301f2002bc   move.l 0x2bc(a0, d1.l * 8), -(a7)
          0x0050b9d0      2f301f2002b8   move.l 0x2b8(a0, d1.l * 8), -(a7)
          0x0050b9d6      4880           ext.w d0
          0x0050b9d8      43fae14c       lea.l 0x509b26(pc), a1
          0x0050b9dc      32310200       move.w (a1, d0.w * 2), d1
          0x0050b9e0      48c1           ext.l d1
          0x0050b9e2      5381           subq.l 0x1, d1
          0x0050b9e4      b282           cmp.l d2, d1
      < 0x0050b9e6      6302           bls.b 0x50b9ea
         0x0050b9e8      4e4f           trap 0xf
      > 0x0050b9ea      2f301f2002bc   move.l 0x2bc(a0, d1.l * 8), -(a7)
          0x0050b9f0      2f301f2002b8   move.l 0x2b8(a0, d1.l * 8), -(a7)
          0x0050b9f6      49eeffcc       lea.l -0x34(a6), a4
          0x0050b9fa      4ebafb1c       jsr MENU3DCOM.PAS.pick_clip(pc)
          0x0050b9fe      dec4           adda.w d4, a7
          0x0050ba00      5200           addq.b 0x1, d0
          0x0050ba02      0c00000f       cmpi.b 0xf, d0
       < 0x0050ba06      6f9e           ble.b 0x50b9a6
           0x0050ba08      4a2e0008       tst.b 0x8(a6)
       < 0x0050ba0c      674e           beq.b 0x50ba5c
          0x0050ba0e      4227           clr.b -(a7)
          0x0050ba10      49eeffcc       lea.l -0x34(a6), a4
          0x0050ba14      4ebaf4e2       jsr MENU3DCOM.PAS.draw_triad(pc)
          0x0050ba18      544f           addq.w 0x2, a7
          0x0050ba1a      4eb900523cda   jsr BRUSHCOM.open_block
          0x0050ba20      1f02           move.b d2, -(a7)
          0x0050ba22      1012           move.b (a2), d0
          0x0050ba24      4880           ext.w d0
          0x0050ba26      204b           movea.l a3, a0
          0x0050ba28      2f300720014c   move.l 0x14c(a0, d0.w * 8), -(a7)
          0x0050ba2e      2f3007200148   move.l 0x148(a0, d0.w * 8), -(a7)
          0x0050ba34      4eb900518a2a   jsr OUTCOM.set_video_crops
          0x0050ba3a      504f           addq.w 0x8, a7
          0x0050ba3c      1e82           move.b d2, (a7)
          0x0050ba3e      1012           move.b (a2), d0
          0x0050ba40      4880           ext.w d0
          0x0050ba42      204b           movea.l a3, a0
          0x0050ba44      2f3007200148   move.l 0x148(a0, d0.w * 8), -(a7)
          0x0050ba4a      4eb90051872e   jsr OUTCOM.set_scroll
          0x0050ba50      5c4f           addq.w 0x6, a7
          0x0050ba52      4eb900523cf0   jsr BRUSHCOM.close_block
      < 0x0050ba58      60000094       bra.w 0x50baee
      > 0x0050ba5c      554f           subq.w 0x2, a7
          0x0050ba5e      3f3c00c0       move.w 0xc0, -(a7)
          0x0050ba62      4eb900480fc2   jsr MENUCOM.get_boxon
          0x0050ba68      544f           addq.w 0x2, a7
          0x0050ba6a      4a1f           tst.b (a7)+
      < 0x0050ba6c      673c           beq.b 0x50baaa
         0x0050ba6e      554f           subq.w 0x2, a7
         0x0050ba70      2f2efff8       move.l -0x8(a6), -(a7)
         0x0050ba74      486effd7       pea.l -0x29(a6)
         0x0050ba78      4eb90075cbb8   jsr MENUKEYFRMCOM.get_stripey_str
         0x0050ba7e      504f           addq.w 0x8, a7
         0x0050ba80      4a1f           tst.b (a7)+
     < 0x0050ba82      6726           beq.b 0x50baaa
        0x0050ba84      4227           clr.b -(a7)
        0x0050ba86      4a2effd7       tst.b -0x29(a6)
    < 0x0050ba8a      6608           bne.b 0x50ba94
       0x0050ba8c      4a790083d338   tst.w 0x83d338
   < 0x0050ba92      6602           bne.b 0x50ba96
   > 0x0050ba94      5217           addq.b 0x1, (a7)
   > 0x0050ba96      1017           move.b (a7), d0
        0x0050ba98      4880           ext.w d0
        0x0050ba9a      4183           chk.w d3, d0
        0x0050ba9c      1e80           move.b d0, (a7)
        0x0050ba9e      49eeffcc       lea.l -0x34(a6), a4
        0x0050baa2      4ebaf7c4       jsr MENU3DCOM.PAS.draw_stripey_st(pc)
        0x0050baa6      544f           addq.w 0x2, a7
    < 0x0050baa8      6006           bra.b 0x50bab0
    > 0x0050baaa      42790083d338   clr.w 0x83d338
    > 0x0050bab0      554f           subq.w 0x2, a7
          0x0050bab2      3f390083e3c2   move.w 0x83e3c2, -(a7)
          0x0050bab8      4eb900480fc2   jsr MENUCOM.get_boxon
          0x0050babe      544f           addq.w 0x2, a7
          0x0050bac0      4a1f           tst.b (a7)+
      < 0x0050bac2      671e           beq.b 0x50bae2
         0x0050bac4      554f           subq.w 0x2, a7
         0x0050bac6      3f390083e3c4   move.w 0x83e3c4, -(a7)
         0x0050bacc      4eb900480fc2   jsr MENUCOM.get_boxon
         0x0050bad2      544f           addq.w 0x2, a7
         0x0050bad4      4a1f           tst.b (a7)+
     < 0x0050bad6      670a           beq.b 0x50bae2
        0x0050bad8      49eeffcc       lea.l -0x34(a6), a4
        0x0050badc      4ebaf21a       jsr MENU3DCOM.PAS.draw_contour_do(pc)
    < 0x0050bae0      600c           bra.b 0x50baee
    > 0x0050bae2      1f03           move.b d3, -(a7)
         0x0050bae4      49eeffcc       lea.l -0x34(a6), a4
         0x0050bae8      4ebaf40e       jsr MENU3DCOM.PAS.draw_triad(pc)
         0x0050baec      544f           addq.w 0x2, a7
    > 0x0050baee      4cdf1f1f       movem.l (a7)+, d0-d4/a0-a4
           0x0050baf2      4e5e           unlk a6
           0x0050baf4      4e75           rts
            ; XREFS: CALL 0x004b2ef4  CALL 0x004b3770  CALL 0x004b3bae  
            ; XREFS: CALL 0x004b3ca2  CALL 0x004b3dae  CALL 0x004b43dc  
            ; XREFS: CALL 0x0050cb44  CALL 0x0050def0  CALL 0x0050fed8  
            ; XREFS: CALL 0x0050ffd8  CALL 0x00510090  CALL 0x0051010a  
            ; XREFS: CALL 0x0051299e  CALL 0x006712a6  CALL 0x00671742  
            ; XREFS: CALL 0x00676c24  
 302: MENU3DCOM.PAS.do_3d_cutout_cu (int32_t arg_2fah, int32_t arg_2feh);
           ; arg int32_t arg_2fah @ a6+0x2fa
           ; arg int32_t arg_2feh @ a6+0x2fe
           0x0050baf6      4e56ff98       link.w a6, 0xff98
           0x0050bafa      bfd5           cmpa.l (a5), a7
       < 0x0050bafc      6206           bhi.b 0x50bb04
          0x0050bafe      44fc0002       move.w 0x2, ccr
          0x0050bb02      4e76           trapv
       > 0x0050bb04      defc004e       adda.w 0x4e, a7
           0x0050bb08      48e7fff8       movem.l d0-d7/a0-a4, -(a7)
           0x0050bb0c      43f90083d31e   lea.l 0x83d31e, a1
           0x0050bb12      45f90083d322   lea.l 0x83d322, a2
           0x0050bb18      47f900480fc2   lea.l MENUCOM.get_boxon, a3
           0x0050bb1e      49f9006338f6   lea.l HANDCOM.get_point, a4
           0x0050bb24      7403           moveq 0x3, d2
           0x0050bb26      7601           moveq 0x1, d3
           0x0050bb28      7812           moveq 0x12, d4
           0x0050bb2a      2a3cffff8000   move.l 0xffff8000, d5
           0x0050bb30      7c1f           moveq 0x1f, d6
           0x0050bb32      7e0c           moveq 0xc, d7
           0x0050bb34      594f           subq.w 0x4, a7
           0x0050bb36      3f3c0080       move.w 0x80, -(a7)
           0x0050bb3a      4e93           jsr (a3)                    ; fcn.0000000c
           0x0050bb3c      544f           addq.w 0x2, a7
           0x0050bb3e      1017           move.b (a7), d0
           0x0050bb40      4880           ext.w d0
           0x0050bb42      4183           chk.w d3, d0
           0x0050bb44      1e80           move.b d0, (a7)
           0x0050bb46      486efff0       pea.l -0x10(a6)
           0x0050bb4a      486efff4       pea.l -0xc(a6)
           0x0050bb4e      486efff8       pea.l -0x8(a6)
           0x0050bb52      486efffc       pea.l -0x4(a6)
           0x0050bb56      4eb900670bb4   jsr PASTECOM.get_layer_info
           0x0050bb5c      dec4           adda.w d4, a7
           0x0050bb5e      3d5fffe6       move.w (a7)+, -0x1a(a6)
           0x0050bb62      206efff0       movea.l -0x10(a6), a0
           0x0050bb66      b0c3           cmpa.w d3, a0
       < 0x0050bb68      670002ce       beq.w 0x50be38
          0x0050bb6c      206efffc       movea.l -0x4(a6), a0
          0x0050bb70      b1e8fffc       cmpa.l -0x4(a0), a0
      < 0x0050bb74      6702           beq.b 0x50bb78
         0x0050bb76      4e4d           trap 0xd
      > 0x0050bb78      4a2e000a       tst.b 0xa(a6)
      < 0x0050bb7c      67000224       beq.w 0x50bda2
         0x0050bb80      4eb900523cda   jsr BRUSHCOM.open_block
         0x0050bb86      1f02           move.b d2, -(a7)
         0x0050bb88      514f           subq.w 0x8, a7
         0x0050bb8a      1f3c0004       move.b 0x4, -(a7)
         0x0050bb8e      4eb9006336ea   jsr HANDCOM.get_area
         0x0050bb94      544f           addq.w 0x2, a7
         0x0050bb96      4eb900518a2a   jsr OUTCOM.set_video_crops
         0x0050bb9c      504f           addq.w 0x8, a7
         0x0050bb9e      1e82           move.b d2, (a7)
         0x0050bba0      594f           subq.w 0x4, a7
         0x0050bba2      4227           clr.b -(a7)
         0x0050bba4      4e94           jsr (a4)                    ; fcn.0000000d
         0x0050bba6      544f           addq.w 0x2, a7
         0x0050bba8      4eb90051872e   jsr OUTCOM.set_scroll
         0x0050bbae      584f           addq.w 0x4, a7
         0x0050bbb0      4217           clr.b (a7)
         0x0050bbb2      10390083d1ce   move.b 0x83d1ce, d0
         0x0050bbb8      4400           neg.b d0
         0x0050bbba      5200           addq.b 0x1, d0
     < 0x0050bbbc      6716           beq.b 0x50bbd4
        0x0050bbbe      4a2802db       tst.b 0x2db(a0)
    < 0x0050bbc2      6610           bne.b 0x50bbd4
       0x0050bbc4      4a2802da       tst.b 0x2da(a0)
   < 0x0050bbc8      6608           bne.b 0x50bbd2
      0x0050bbca      102802d9       move.b 0x2d9(a0), d0
      0x0050bbce      b003           cmp.b d3, d0
  < 0x0050bbd0      6602           bne.b 0x50bbd4
  > 0x0050bbd2      5217           addq.b 0x1, (a7)
  > 0x0050bbd4      4227           clr.b -(a7)
         0x0050bbd6      554f           subq.w 0x2, a7
         0x0050bbd8      4eb90066f8d8   jsr PASTECOM.fake_layer
         0x0050bbde      1017           move.b (a7), d0
         0x0050bbe0      4880           ext.w d0
         0x0050bbe2      4183           chk.w d3, d0
         0x0050bbe4      1e80           move.b d0, (a7)
         0x0050bbe6      3f2802e8       move.w 0x2e8(a0), -(a7)
         0x0050bbea      4eb9004b22e2   jsr MENUPASTECOM.paste_set_out
         0x0050bbf0      504f           addq.w 0x8, a7
         0x0050bbf2      4eb900523cf0   jsr BRUSHCOM.close_block
         0x0050bbf8      1f02           move.b d2, -(a7)
         0x0050bbfa      2f12           move.l (a2), -(a7)
         0x0050bbfc      2f11           move.l (a1), -(a7)
         0x0050bbfe      4eb9005223fc   jsr BRUSHCOM.str_write_area
         0x0050bc04      defc000a       adda.w 0xa, a7
         0x0050bc08      2d6802faffe8   move.l 0x2fa(a0), -0x18(a6)
         0x0050bc0e      2d6802feffec   move.l 0x2fe(a0), -0x14(a6)
         0x0050bc14      302effe8       move.w -0x18(a6), d0
         0x0050bc18      48c0           ext.l d0
         0x0050bc1a      3211           move.w (a1), d1
         0x0050bc1c      48c1           ext.l d1
         0x0050bc1e      d280           add.l d0, d1
         0x0050bc20      9285           sub.l d5, d1
         0x0050bc22      433c0000ffff   chk.l 0xffff, d1
          0x0050bc28      d285           add.l d5, d1
          0x0050bc2a      3d41ffe8       move.w d1, -0x18(a6)
          0x0050bc2e      302effea       move.w -0x16(a6), d0
          0x0050bc32      48c0           ext.l d0
          0x0050bc34      32390083d320   move.w 0x83d320, d1
          0x0050bc3a      48c1           ext.l d1
          0x0050bc3c      d280           add.l d0, d1
          0x0050bc3e      048100000080   subi.l 0x80, d1
          0x0050bc44      9285           sub.l d5, d1
          0x0050bc46      433c0000ffff   chk.l 0xffff, d1
          0x0050bc4c      d285           add.l d5, d1
          0x0050bc4e      3d41ffea       move.w d1, -0x16(a6)
          0x0050bc52      554f           subq.w 0x2, a7
          0x0050bc54      3f06           move.w d6, -(a7)
          0x0050bc56      4e93           jsr (a3)                    ; fcn.0000000c
          0x0050bc58      544f           addq.w 0x2, a7
          0x0050bc5a      4a1f           tst.b (a7)+
      < 0x0050bc5c      6770           beq.b 0x50bcce
         0x0050bc5e      1f02           move.b d2, -(a7)
         0x0050bc60      1f02           move.b d2, -(a7)
         0x0050bc62      1f03           move.b d3, -(a7)
         0x0050bc64      594f           subq.w 0x4, a7
         0x0050bc66      4227           clr.b -(a7)
         0x0050bc68      4e94           jsr (a4)                    ; fcn.0000000d
         0x0050bc6a      544f           addq.w 0x2, a7
         0x0050bc6c      2f12           move.l (a2), -(a7)
         0x0050bc6e      2f11           move.l (a1), -(a7)
         0x0050bc70      4eb900522722   jsr BRUSHCOM.str_any_str_cop
         0x0050bc76      defc000e       adda.w 0xe, a7
         0x0050bc7a      3ebc0027       move.w 0x27, (a7)
         0x0050bc7e      4e93           jsr (a3)                    ; fcn.0000000c
         0x0050bc80      544f           addq.w 0x2, a7
         0x0050bc82      4a1f           tst.b (a7)+
     < 0x0050bc84      6728           beq.b 0x50bcae
        0x0050bc86      5d4f           subq.w 0x6, a7
        0x0050bc88      3f3c002a       move.w 0x2a, -(a7)
        0x0050bc8c      4eb900481196   jsr MENUCOM.get_boxcol
        0x0050bc92      544f           addq.w 0x2, a7
        0x0050bc94      4eb900520fa4   jsr BRUSHCOM.set_br_colour
        0x0050bc9a      584f           addq.w 0x4, a7
        0x0050bc9c      1e82           move.b d2, (a7)
        0x0050bc9e      4227           clr.b -(a7)
        0x0050bca0      2f12           move.l (a2), -(a7)
        0x0050bca2      2f11           move.l (a1), -(a7)
        0x0050bca4      4eb9005213b4   jsr BRUSHCOM.br_wipe
    < 0x0050bcaa      600000f4       bra.w 0x50bda0
    > 0x0050bcae      1f3c0002       move.b 0x2, -(a7)
        0x0050bcb2      1f02           move.b d2, -(a7)
        0x0050bcb4      4227           clr.b -(a7)
        0x0050bcb6      594f           subq.w 0x4, a7
        0x0050bcb8      4227           clr.b -(a7)
        0x0050bcba      4e94           jsr (a4)                    ; fcn.0000000d
        0x0050bcbc      544f           addq.w 0x2, a7
        0x0050bcbe      2f12           move.l (a2), -(a7)
        0x0050bcc0      2f11           move.l (a1), -(a7)
        0x0050bcc2      4eb900522722   jsr BRUSHCOM.str_any_str_cop
        0x0050bcc8      dec4           adda.w d4, a7
    < 0x0050bcca      600000d6       bra.w 0x50bda2
    > 0x0050bcce      4a390083d1ce   tst.b 0x83d1ce
    < 0x0050bcd4      6652           bne.b 0x50bd28
       0x0050bcd6      102802d9       move.b 0x2d9(a0), d0
       0x0050bcda      b003           cmp.b d3, d0
   < 0x0050bcdc      6706           beq.b 0x50bce4
      0x0050bcde      4a2802da       tst.b 0x2da(a0)
  < 0x0050bce2      6744           beq.b 0x50bd28
  > 0x0050bce4      4a2802db       tst.b 0x2db(a0)
  < 0x0050bce8      663e           bne.b 0x50bd28
     0x0050bcea      1f02           move.b d2, -(a7)
     0x0050bcec      1f02           move.b d2, -(a7)
     0x0050bcee      1f03           move.b d3, -(a7)
     0x0050bcf0      594f           subq.w 0x4, a7
     0x0050bcf2      4227           clr.b -(a7)
     0x0050bcf4      4e94           jsr (a4)                    ; fcn.0000000d
     0x0050bcf6      544f           addq.w 0x2, a7
     0x0050bcf8      2f12           move.l (a2), -(a7)
     0x0050bcfa      2f11           move.l (a1), -(a7)
     0x0050bcfc      4eb900522722   jsr BRUSHCOM.str_any_str_cop
     0x0050bd02      dec7           adda.w d7, a7
     0x0050bd04      4eb900636d9e   jsr PALETCOM.br_colour
     0x0050bd0a      4eb900520fa4   jsr BRUSHCOM.set_br_colour
     0x0050bd10      584f           addq.w 0x4, a7
     0x0050bd12      1e82           move.b d2, (a7)
     0x0050bd14      4227           clr.b -(a7)
     0x0050bd16      2f2effec       move.l -0x14(a6), -(a7)
     0x0050bd1a      2f2effe8       move.l -0x18(a6), -(a7)
     0x0050bd1e      4eb9005213b4   jsr BRUSHCOM.br_wipe
     0x0050bd24      dec7           adda.w d7, a7
  < 0x0050bd26      601c           bra.b 0x50bd44
  > 0x0050bd28      1f02           move.b d2, -(a7)
        0x0050bd2a      1f02           move.b d2, -(a7)
        0x0050bd2c      1f3c0004       move.b 0x4, -(a7)
        0x0050bd30      594f           subq.w 0x4, a7
        0x0050bd32      4227           clr.b -(a7)
        0x0050bd34      4e94           jsr (a4)                    ; fcn.0000000d
        0x0050bd36      544f           addq.w 0x2, a7
        0x0050bd38      2f12           move.l (a2), -(a7)
        0x0050bd3a      2f11           move.l (a1), -(a7)
        0x0050bd3c      4eb900522722   jsr BRUSHCOM.str_any_str_cop
        0x0050bd42      dec4           adda.w d4, a7
  > 0x0050bd44      554f           subq.w 0x2, a7
        0x0050bd46      4eb90066f8d8   jsr PASTECOM.fake_layer
        0x0050bd4c      4a1f           tst.b (a7)+
    < 0x0050bd4e      6652           bne.b 0x50bda2
       0x0050bd50      554f           subq.w 0x2, a7
       0x0050bd52      3f3c002c       move.w 0x2c, -(a7)
       0x0050bd56      4e93           jsr (a3)                    ; fcn.0000000c
       0x0050bd58      544f           addq.w 0x2, a7
       0x0050bd5a      4a1f           tst.b (a7)+
   < 0x0050bd5c      6644           bne.b 0x50bda2
      0x0050bd5e      302802e8       move.w 0x2e8(a0), d0
      0x0050bd62      0c403fc0       cmpi.w 0x3fc0, d0
  < 0x0050bd66      6c3a           bge.b 0x50bda2
     0x0050bd68      302802e8       move.w 0x2e8(a0), d0
     0x0050bd6c      48c0           ext.l d0
     0x0050bd6e      81fc0040       divs.w 0x40, d0
     0x0050bd72      4440           neg.w d0
     0x0050bd74      064000ff       addi.w 0xff, d0
     0x0050bd78      41bc00ff       chk.w 0xff, d0
     0x0050bd7c      3f00           move.w d0, -(a7)
     0x0050bd7e      2f3adc6a       move.l 0x5099ea(pc), -(a7)
     0x0050bd82      3f3adc64       move.w 0x5099e8(pc), -(a7)
     0x0050bd86      4eb900520fe8   jsr BRUSHCOM.set_br_key_colo
     0x0050bd8c      5c4f           addq.w 0x6, a7
     0x0050bd8e      1e82           move.b d2, (a7)
     0x0050bd90      1f03           move.b d3, -(a7)
     0x0050bd92      2f2effec       move.l -0x14(a6), -(a7)
     0x0050bd96      2f2effe8       move.l -0x18(a6), -(a7)
     0x0050bd9a      4eb900521702   jsr BRUSHCOM.br_pst_wipe
  > 0x0050bda0      dec7           adda.w d7, a7
  > 0x0050bda2      4a2e0008       tst.b 0x8(a6)
       < 0x0050bda6      677a           beq.b 0x50be22
          0x0050bda8      4eb90051f298   jsr BRUSHCOM.brush_wait
          0x0050bdae      4eb900523cda   jsr BRUSHCOM.open_block
          0x0050bdb4      1f02           move.b d2, -(a7)
          0x0050bdb6      2f12           move.l (a2), -(a7)
          0x0050bdb8      2f11           move.l (a1), -(a7)
          0x0050bdba      4eb900518a2a   jsr OUTCOM.set_video_crops
          0x0050bdc0      504f           addq.w 0x8, a7
          0x0050bdc2      1e82           move.b d2, (a7)
          0x0050bdc4      2f11           move.l (a1), -(a7)
          0x0050bdc6      4eb90051872e   jsr OUTCOM.set_scroll
          0x0050bdcc      544f           addq.w 0x2, a7
          0x0050bdce      3e86           move.w d6, (a7)
          0x0050bdd0      4e93           jsr (a3)                    ; fcn.0000000c
          0x0050bdd2      544f           addq.w 0x2, a7
          0x0050bdd4      4a1f           tst.b (a7)+
      < 0x0050bdd6      6718           beq.b 0x50bdf0
         0x0050bdd8      554f           subq.w 0x2, a7
         0x0050bdda      3f3c0027       move.w 0x27, -(a7)
         0x0050bdde      4e93           jsr (a3)                    ; fcn.0000000c
         0x0050bde0      544f           addq.w 0x2, a7
         0x0050bde2      4a1f           tst.b (a7)+
     < 0x0050bde4      6706           beq.b 0x50bdec
        0x0050bde6      1f3c001e       move.b 0x1e, -(a7)
    < 0x0050bdea      6028           bra.b 0x50be14
    > 0x0050bdec      1f06           move.b d6, -(a7)
    < 0x0050bdee      6024           bra.b 0x50be14
    > 0x0050bdf0      554f           subq.w 0x2, a7
        0x0050bdf2      4eb90066f8d8   jsr PASTECOM.fake_layer
        0x0050bdf8      4a1f           tst.b (a7)+
    < 0x0050bdfa      660e           bne.b 0x50be0a
       0x0050bdfc      554f           subq.w 0x2, a7
       0x0050bdfe      3f3c002c       move.w 0x2c, -(a7)
       0x0050be02      4e93           jsr (a3)                    ; fcn.0000000c
       0x0050be04      544f           addq.w 0x2, a7
       0x0050be06      4a1f           tst.b (a7)+
   < 0x0050be08      6706           beq.b 0x50be10
   > 0x0050be0a      1f3c0031       move.b 0x31, -(a7)
   < 0x0050be0e      6004           bra.b 0x50be14
   > 0x0050be10      1f3c0009       move.b 0x9, -(a7)
       ; CODE XREFS from MENU3DCOM.PAS @ +0x244a, +0x244e, +0x246e
    > 0x0050be14      4eb900518dd8   jsr OUTCOM.set_out
          0x0050be1a      544f           addq.w 0x2, a7
          0x0050be1c      4eb900523cf0   jsr BRUSHCOM.close_block
       > 0x0050be22      4a2e000a       tst.b 0xa(a6)
       < 0x0050be26      6710           beq.b 0x50be38
          0x0050be28      1f03           move.b d3, -(a7)
          0x0050be2a      4227           clr.b -(a7)
          0x0050be2c      4ebaf9dc       jsr MENU3DCOM.PAS.update_graphics(pc)
          0x0050be30      584f           addq.w 0x4, a7
          0x0050be32      42390083d336   clr.b 0x83d336
       > 0x0050be38      4cdf1fff       movem.l (a7)+, d0-d7/a0-a4
            0x0050be3c      4e5e           unlk a6
            0x0050be3e      4e75           rts
 24: MENU3DCOM.PAS.convert_turns ();
           0x0050be40      4e56ffe4       link.w a6, 0xffe4
           0x0050be44      bfd5           cmpa.l (a5), a7
       < 0x0050be46      6206           bhi.b 0x50be4e
          0x0050be48      44fc0002       move.w 0x2, ccr
          0x0050be4c      4e76           trapv
       > 0x0050be4e      defc001c       adda.w 0x1c, a7
           0x0050be52      48e70080       movem.l a0, -(a7)
           0x0050be56      f227e001       fmovem fp0, -(a7)
            0x0050be5a      41ee0008       lea.l 0x8(a6), a0
            0x0050be5e      f2104400       fmove.s (a0), fp0
            0x0050be62      f23c442040c9.  fdiv.s 6, fp0
            0x0050be6a      f2106400       fmove.s fp0, (a0)
            0x0050be6e      f23c44380000.  fcmp.s 0, fp0
            0x0050be76      f29d0008       fbf.w 0x50be80
            0x0050be7a      594f           subq.w 0x4, a7
            0x0050be7c      2f10           move.l (a0), -(a7)
        < 0x0050be7e      6012           bra.b 0x50be92
           0x0050be80      594f           subq.w 0x4, a7
           0x0050be82      f2104400       fmove.s (a0), fp0
           0x0050be86      f23c44223727.  fadd.s 0, fp0
           0x0050be8e      f2276400       fmove.s fp0, -(a7)
        > 0x0050be92      4eb9004081d2   jsr p_round
            0x0050be98      584f           addq.w 0x4, a7
            0x0050be9a      f21f4000       fmove.l (a7)+, fp0
            0x0050be9e      f22e6400000c   fmove.s fp0, 0xc(a6)
            0x0050bea4      f21fd080       fmovem (a7)+, fp0
            0x0050bea8      4cdf0100       movem.l (a7)+, a0
            0x0050beac      4e5e           unlk a6
            0x0050beae      4e75           rts
            ; XREFS: CALL 0x004b2cc4  CALL 0x004b3c4c  CALL 0x004b4376  
            ; XREFS: CALL 0x0050cb36  CALL 0x0050deda  CALL 0x0050fed0  
            ; XREFS: CALL 0x0050ffb2  CALL 0x00510102  CALL 0x006712bc  
 24: MENU3DCOM.PAS.update_3d_menu_ ();
           0x0050beb0      4e56ff80       link.w a6, 0xff80
           0x0050beb4      bfd5           cmpa.l (a5), a7
       < 0x0050beb6      6206           bhi.b 0x50bebe
          0x0050beb8      44fc0002       move.w 0x2, ccr
          0x0050bebc      4e76           trapv
       > 0x0050bebe      defc005e       adda.w 0x5e, a7
           0x0050bec2      48e7fff8       movem.l d0-d7/a0-a4, -(a7)
           0x0050bec6      f227e001       fmovem fp0, -(a7)
            0x0050beca      43f90048da84   lea.l MENU2COM.set_numeric_val, a1
            0x0050bed0      45f900480fc2   lea.l MENUCOM.get_boxon, a2
            0x0050bed6      7401           moveq 0x1, d2
            0x0050bed8      7600           moveq 0x0, d3
            0x0050beda      283c3f800000   move.l 0x3f800000, d4
            0x0050bee0      7a0a           moveq 0xa, d5
            0x0050bee2      2c3c40c90fdb   move.l 0x40c90fdb, d6
            0x0050bee8      5d4f           subq.w 0x6, a7
            0x0050beea      3f3c0080       move.w 0x80, -(a7)
            0x0050beee      4e92           jsr (a2)                    ; fcn.00000009+0x2
            0x0050bef0      544f           addq.w 0x2, a7
            0x0050bef2      1017           move.b (a7), d0
            0x0050bef4      4880           ext.w d0
            0x0050bef6      4182           chk.w d2, d0
            0x0050bef8      1e80           move.b d0, (a7)
            0x0050befa      4eb900670a94   jsr PASTECOM.get_cutout
            0x0050bf00      544f           addq.w 0x2, a7
            0x0050bf02      265f           movea.l (a7)+, a3
            0x0050bf04      594f           subq.w 0x4, a7
            0x0050bf06      4227           clr.b -(a7)
            0x0050bf08      4eb900670a94   jsr PASTECOM.get_cutout
            0x0050bf0e      544f           addq.w 0x2, a7
            0x0050bf10      285f           movea.l (a7)+, a4
            0x0050bf12      594f           subq.w 0x4, a7
            0x0050bf14      1f02           move.b d2, -(a7)
            0x0050bf16      4eb900670a94   jsr PASTECOM.get_cutout
            0x0050bf1c      544f           addq.w 0x2, a7
            0x0050bf1e      2d5fffe6       move.l (a7)+, -0x1a(a6)
            0x0050bf22      206effe6       movea.l -0x1a(a6), a0
            0x0050bf26      b1e8fffc       cmpa.l -0x4(a0), a0
        < 0x0050bf2a      6702           beq.b 0x50bf2e
           0x0050bf2c      4e4d           trap 0xd
        > 0x0050bf2e      7e00           moveq 0x0, d7
            0x0050bf30      f228440001c8   fmove.s 0x1c8(a0), fp0
            0x0050bf36      f2044438       fcmp.s d4, fp0
            0x0050bf3a      f29600c8       fbf.w 0x50c004
            0x0050bf3e      f228440001cc   fmove.s 0x1cc(a0), fp0
            0x0050bf44      f2034438       fcmp.s d3, fp0
            0x0050bf48      f29600ba       fbf.w 0x50c004
            0x0050bf4c      f228440001d0   fmove.s 0x1d0(a0), fp0
            0x0050bf52      f2034438       fcmp.s d3, fp0
            0x0050bf56      f29600ac       fbf.w 0x50c004
            0x0050bf5a      f228440001d4   fmove.s 0x1d4(a0), fp0
            0x0050bf60      f2034438       fcmp.s d3, fp0
            0x0050bf64      f296009e       fbf.w 0x50c004
            0x0050bf68      f228440001d8   fmove.s 0x1d8(a0), fp0
            0x0050bf6e      f2034438       fcmp.s d3, fp0
            0x0050bf72      f2960090       fbf.w 0x50c004
            0x0050bf76      f228440001dc   fmove.s 0x1dc(a0), fp0
            0x0050bf7c      f2044438       fcmp.s d4, fp0
            0x0050bf80      f2960082       fbf.w 0x50c004
            0x0050bf84      f228440001e0   fmove.s 0x1e0(a0), fp0
            0x0050bf8a      f2034438       fcmp.s d3, fp0
            0x0050bf8e      f2960074       fbf.w 0x50c004
            0x0050bf92      f228440001e4   fmove.s 0x1e4(a0), fp0
            0x0050bf98      f2034438       fcmp.s d3, fp0
            0x0050bf9c      f2960066       fbf.w 0x50c004
            0x0050bfa0      f228440001e8   fmove.s 0x1e8(a0), fp0
            0x0050bfa6      f2034438       fcmp.s d3, fp0
            0x0050bfaa      f2960058       fbf.w 0x50c004
            0x0050bfae      f228440001ec   fmove.s 0x1ec(a0), fp0
            0x0050bfb4      f2034438       fcmp.s d3, fp0
            0x0050bfb8      f296004a       fbf.w 0x50c004
            0x0050bfbc      f228440001f0   fmove.s 0x1f0(a0), fp0
            0x0050bfc2      f2044438       fcmp.s d4, fp0
            0x0050bfc6      f296003c       fbf.w 0x50c004
            0x0050bfca      f228440001f4   fmove.s 0x1f4(a0), fp0
            0x0050bfd0      f2034438       fcmp.s d3, fp0
            0x0050bfd4      f296002e       fbf.w 0x50c004
            0x0050bfd8      f228440001f8   fmove.s 0x1f8(a0), fp0
            0x0050bfde      f2044438       fcmp.s d4, fp0
            0x0050bfe2      f2960020       fbf.w 0x50c004
            0x0050bfe6      f228440001fc   fmove.s 0x1fc(a0), fp0
            0x0050bfec      f2044438       fcmp.s d4, fp0
            0x0050bff0      f2960012       fbf.w 0x50c004
            0x0050bff4      f22844000200   fmove.s 0x200(a0), fp0
            0x0050bffa      f2044438       fcmp.s d4, fp0
            0x0050bffe      f2960004       fbf.w 0x50c004
            0x0050c002      5207           addq.b 0x1, d7
            0x0050c004      4a07           tst.b d7
        < 0x0050c006      670e           beq.b 0x50c016
           0x0050c008      3f3c0080       move.w 0x80, -(a7)
           0x0050c00c      2f3ad9b8       move.l 0x5099c6(pc), -(a7)
           0x0050c010      3f3ad9b2       move.w 0x5099c4(pc), -(a7)
       < 0x0050c014      600c           bra.b 0x50c022
       > 0x0050c016      3f3c0080       move.w 0x80, -(a7)
           0x0050c01a      2f3ad9b0       move.l 0x5099cc(pc), -(a7)
           0x0050c01e      3f3ad9aa       move.w 0x5099ca(pc), -(a7)
       > 0x0050c022      4eb900484148   jsr MENUCOM.set_boxcol
            0x0050c028      504f           addq.w 0x8, a7
            0x0050c02a      554f           subq.w 0x2, a7
            0x0050c02c      3f390083e358   move.w 0x83e358, -(a7)
            0x0050c032      4e92           jsr (a2)                    ; fcn.00000009+0x2
            0x0050c034      544f           addq.w 0x2, a7
            0x0050c036      4a1f           tst.b (a7)+
        < 0x0050c038      6700008c       beq.w 0x50c0c6
           0x0050c03c      554f           subq.w 0x2, a7
           0x0050c03e      3f390083e37a   move.w 0x83e37a, -(a7)
           0x0050c044      4e92           jsr (a2)                    ; fcn.00000009+0x2
           0x0050c046      544f           addq.w 0x2, a7
           0x0050c048      4a1f           tst.b (a7)+
       < 0x0050c04a      672e           beq.b 0x50c07a
          0x0050c04c      b7ebfffc       cmpa.l -0x4(a3), a3
      < 0x0050c050      6702           beq.b 0x50c054
         0x0050c052      4e4d           trap 0xd
      > 0x0050c054      f22b441a0144   fneg.s 0x144(a3), fp0
          0x0050c05a      f22e6400ffea   fmove.s fp0, -0x16(a6)
          0x0050c060      f22b441a0154   fneg.s 0x154(a3), fp0
          0x0050c066      f22e6400ffee   fmove.s fp0, -0x12(a6)
          0x0050c06c      f22b441a0164   fneg.s 0x164(a3), fp0
          0x0050c072      f22e6400fff2   fmove.s fp0, -0xe(a6)
      < 0x0050c078      601a           bra.b 0x50c094
      > 0x0050c07a      b7ebfffc       cmpa.l -0x4(a3), a3
      < 0x0050c07e      6702           beq.b 0x50c082
         0x0050c080      4e4d           trap 0xd
      > 0x0050c082      2d6b00fcffea   move.l 0xfc(a3), -0x16(a6)
          0x0050c088      2d6b010cffee   move.l 0x10c(a3), -0x12(a6)
          0x0050c08e      2d6b011cfff2   move.l 0x11c(a3), -0xe(a6)
      > 0x0050c094      3f390083e35a   move.w 0x83e35a, -(a7)
           0x0050c09a      2f2effea       move.l -0x16(a6), -(a7)
           0x0050c09e      4227           clr.b -(a7)
           0x0050c0a0      1f02           move.b d2, -(a7)
           0x0050c0a2      4e91           jsr (a1)                    ; fcn.0000000a
           0x0050c0a4      504f           addq.w 0x8, a7
           0x0050c0a6      3eb90083e35c   move.w 0x83e35c, (a7)
           0x0050c0ac      2f2effee       move.l -0x12(a6), -(a7)
           0x0050c0b0      4227           clr.b -(a7)
           0x0050c0b2      1f02           move.b d2, -(a7)
           0x0050c0b4      4e91           jsr (a1)                    ; fcn.0000000a
           0x0050c0b6      504f           addq.w 0x8, a7
           0x0050c0b8      3eb90083e35e   move.w 0x83e35e, (a7)
      > 0x0050c0be      2f2efff2       move.l -0xe(a6), -(a7)
     < 0x0050c0c2      60000442       bra.w 0x50c506
     > 0x0050c0c6      554f           subq.w 0x2, a7
         0x0050c0c8      3f390083e360   move.w 0x83e360, -(a7)
         0x0050c0ce      4e92           jsr (a2)                    ; fcn.00000009+0x2
         0x0050c0d0      544f           addq.w 0x2, a7
         0x0050c0d2      4a1f           tst.b (a7)+
     < 0x0050c0d4      67000110       beq.w 0x50c1e6
        0x0050c0d8      554f           subq.w 0x2, a7
        0x0050c0da      3f390083e37a   move.w 0x83e37a, -(a7)
        0x0050c0e0      4e92           jsr (a2)                    ; fcn.00000009+0x2
        0x0050c0e2      544f           addq.w 0x2, a7
        0x0050c0e4      4a1f           tst.b (a7)+
    < 0x0050c0e6      6754           beq.b 0x50c13c
       0x0050c0e8      b7ebfffc       cmpa.l -0x4(a3), a3
   < 0x0050c0ec      6702           beq.b 0x50c0f0
      0x0050c0ee      4e4d           trap 0xd
   > 0x0050c0f0      486b0138       pea.l 0x138(a3)
       0x0050c0f4      1f3c0006       move.b 0x6, -(a7)
       0x0050c0f8      486effea       pea.l -0x16(a6)
       0x0050c0fc      4eb90067ce06   jsr THREEDMAV.extract_spins
       0x0050c102      dec5           adda.w d5, a7
       0x0050c104      f22e4400ffea   fmove.s -0x16(a6), fp0
       0x0050c10a      f2064420       fdiv.s d6, fp0
       0x0050c10e      f200001a       fneg fp0
       0x0050c112      f22e6400ffea   fmove.s fp0, -0x16(a6)
       0x0050c118      f22e4400ffee   fmove.s -0x12(a6), fp0
       0x0050c11e      f2064420       fdiv.s d6, fp0
       0x0050c122      f200001a       fneg fp0
       0x0050c126      f22e6400ffee   fmove.s fp0, -0x12(a6)
       0x0050c12c      f22e4400fff2   fmove.s -0xe(a6), fp0
       0x0050c132      f2064420       fdiv.s d6, fp0
       0x0050c136      f200001a       fneg fp0
   < 0x0050c13a      6076           bra.b 0x50c1b2
   > 0x0050c13c      b7ebfffc       cmpa.l -0x4(a3), a3
   < 0x0050c140      6702           beq.b 0x50c144
      0x0050c142      4e4d           trap 0xd
   > 0x0050c144      486b00f0       pea.l 0xf0(a3)
       0x0050c148      1f3c0006       move.b 0x6, -(a7)
       0x0050c14c      486effea       pea.l -0x16(a6)
       0x0050c150      4eb90067ce06   jsr THREEDMAV.extract_spins
       0x0050c156      dec5           adda.w d5, a7
       0x0050c158      f22e4400ffea   fmove.s -0x16(a6), fp0
       0x0050c15e      f2064420       fdiv.s d6, fp0
       0x0050c162      594f           subq.w 0x4, a7
       0x0050c164      2f2b012c       move.l 0x12c(a3), -(a7)
       0x0050c168      4ebafcd6       jsr MENU3DCOM.PAS.convert_turns(pc)
       0x0050c16c      584f           addq.w 0x4, a7
       0x0050c16e      f21f4422       fadd.s (a7)+, fp0
       0x0050c172      f22e6400ffea   fmove.s fp0, -0x16(a6)
       0x0050c178      f22e4400ffee   fmove.s -0x12(a6), fp0
       0x0050c17e      f2064420       fdiv.s d6, fp0
       0x0050c182      594f           subq.w 0x4, a7
       0x0050c184      2f2b0130       move.l 0x130(a3), -(a7)
       0x0050c188      4ebafcb6       jsr MENU3DCOM.PAS.convert_turns(pc)
       0x0050c18c      584f           addq.w 0x4, a7
       0x0050c18e      f21f4422       fadd.s (a7)+, fp0
       0x0050c192      f22e6400ffee   fmove.s fp0, -0x12(a6)
       0x0050c198      f22e4400fff2   fmove.s -0xe(a6), fp0
       0x0050c19e      f2064420       fdiv.s d6, fp0
       0x0050c1a2      594f           subq.w 0x4, a7
       0x0050c1a4      2f2b0134       move.l 0x134(a3), -(a7)
       0x0050c1a8      4ebafc96       jsr MENU3DCOM.PAS.convert_turns(pc)
       0x0050c1ac      584f           addq.w 0x4, a7
       0x0050c1ae      f21f4422       fadd.s (a7)+, fp0
   > 0x0050c1b2      f22e6400fff2   fmove.s fp0, -0xe(a6)
        0x0050c1b8      3f390083e362   move.w 0x83e362, -(a7)
        0x0050c1be      2f2effea       move.l -0x16(a6), -(a7)
        0x0050c1c2      4227           clr.b -(a7)
        0x0050c1c4      1f02           move.b d2, -(a7)
        0x0050c1c6      4e91           jsr (a1)                    ; fcn.0000000a
        0x0050c1c8      504f           addq.w 0x8, a7
        0x0050c1ca      3eb90083e364   move.w 0x83e364, (a7)
        0x0050c1d0      2f2effee       move.l -0x12(a6), -(a7)
        0x0050c1d4      4227           clr.b -(a7)
        0x0050c1d6      1f02           move.b d2, -(a7)
        0x0050c1d8      4e91           jsr (a1)                    ; fcn.0000000a
        0x0050c1da      504f           addq.w 0x8, a7
        0x0050c1dc      3eb90083e366   move.w 0x83e366, (a7)
     < 0x0050c1e2      6000feda       bra.w 0x50c0be
      > 0x0050c1e6      554f           subq.w 0x2, a7
          0x0050c1e8      3f390083e372   move.w 0x83e372, -(a7)
          0x0050c1ee      4e92           jsr (a2)                    ; fcn.00000009+0x2
          0x0050c1f0      544f           addq.w 0x2, a7
          0x0050c1f2      4a1f           tst.b (a7)+
      < 0x0050c1f4      6748           beq.b 0x50c23e
         0x0050c1f6      b7ebfffc       cmpa.l -0x4(a3), a3
     < 0x0050c1fa      6702           beq.b 0x50c1fe
        0x0050c1fc      4e4d           trap 0xd
     > 0x0050c1fe      2d6b0120ffea   move.l 0x120(a3), -0x16(a6)
         0x0050c204      2d6b0124ffee   move.l 0x124(a3), -0x12(a6)
         0x0050c20a      2d6b0128fff2   move.l 0x128(a3), -0xe(a6)
         0x0050c210      3f390083e374   move.w 0x83e374, -(a7)
         0x0050c216      2f2effea       move.l -0x16(a6), -(a7)
         0x0050c21a      4227           clr.b -(a7)
         0x0050c21c      1f02           move.b d2, -(a7)
         0x0050c21e      4e91           jsr (a1)                    ; fcn.0000000a
         0x0050c220      504f           addq.w 0x8, a7
         0x0050c222      3eb90083e376   move.w 0x83e376, (a7)
         0x0050c228      2f2effee       move.l -0x12(a6), -(a7)
         0x0050c22c      4227           clr.b -(a7)
         0x0050c22e      1f02           move.b d2, -(a7)
         0x0050c230      4e91           jsr (a1)                    ; fcn.0000000a
         0x0050c232      504f           addq.w 0x8, a7
         0x0050c234      3eb90083e378   move.w 0x83e378, (a7)
      < 0x0050c23a      6000fe82       bra.w 0x50c0be
       > 0x0050c23e      554f           subq.w 0x2, a7
           0x0050c240      3f3c007f       move.w 0x7f, -(a7)
           0x0050c244      4e92           jsr (a2)                    ; fcn.00000009+0x2
           0x0050c246      544f           addq.w 0x2, a7
           0x0050c248      4a1f           tst.b (a7)+
       < 0x0050c24a      6758           beq.b 0x50c2a4
          0x0050c24c      b9ecfffc       cmpa.l -0x4(a4), a4
      < 0x0050c250      6702           beq.b 0x50c254
         0x0050c252      4e4d           trap 0xd
      > 0x0050c254      3f390083e386   move.w 0x83e386, -(a7)
          0x0050c25a      5d4f           subq.w 0x6, a7
          0x0050c25c      4ebae264       jsr MENU3DCOM.PAS.pin_index(pc)
          0x0050c260      301f           move.w (a7)+, d0
          0x0050c262      48c0           ext.l d0
          0x0050c264      5380           subq.l 0x1, d0
          0x0050c266      0c8000000003   cmpi.l 0x3, d0
      < 0x0050c26c      6302           bls.b 0x50c270
         0x0050c26e      4e4f           trap 0xf
      > 0x0050c270      2eb40f2002b8   move.l 0x2b8(a4, d0.l * 8), (a7)
          0x0050c276      4227           clr.b -(a7)
          0x0050c278      1f02           move.b d2, -(a7)
          0x0050c27a      4e91           jsr (a1)                    ; fcn.0000000a
          0x0050c27c      504f           addq.w 0x8, a7
          0x0050c27e      3eb90083e388   move.w 0x83e388, (a7)
          0x0050c284      5d4f           subq.w 0x6, a7
          0x0050c286      4ebae23a       jsr MENU3DCOM.PAS.pin_index(pc)
          0x0050c28a      301f           move.w (a7)+, d0
          0x0050c28c      48c0           ext.l d0
          0x0050c28e      5380           subq.l 0x1, d0
          0x0050c290      0c8000000003   cmpi.l 0x3, d0
      < 0x0050c296      6302           bls.b 0x50c29a
         0x0050c298      4e4f           trap 0xf
      > 0x0050c29a      2eb40f2002bc   move.l 0x2bc(a4, d0.l * 8), (a7)
      < 0x0050c2a0      60000264       bra.w 0x50c506
      > 0x0050c2a4      554f           subq.w 0x2, a7
          0x0050c2a6      3f390083e3c2   move.w 0x83e3c2, -(a7)
          0x0050c2ac      4e92           jsr (a2)                    ; fcn.00000009+0x2
          0x0050c2ae      544f           addq.w 0x2, a7
          0x0050c2b0      4a1f           tst.b (a7)+
      < 0x0050c2b2      6700019e       beq.w 0x50c452
         0x0050c2b6      554f           subq.w 0x2, a7
         0x0050c2b8      3f390083e3c4   move.w 0x83e3c4, -(a7)
         0x0050c2be      4e92           jsr (a2)                    ; fcn.00000009+0x2
         0x0050c2c0      544f           addq.w 0x2, a7
         0x0050c2c2      4a1f           tst.b (a7)+
     < 0x0050c2c4      6700008c       beq.w 0x50c352
        0x0050c2c8      3f390083e3c6   move.w 0x83e3c6, -(a7)
        0x0050c2ce      30390083d2e2   move.w 0x83d2e2, d0
        0x0050c2d4      48c0           ext.l d0
        0x0050c2d6      5280           addq.l 0x1, d0
        0x0050c2d8      f2004000       fmove.l d0, fp0
        0x0050c2dc      f2276400       fmove.s fp0, -(a7)
        0x0050c2e0      4227           clr.b -(a7)
        0x0050c2e2      1f02           move.b d2, -(a7)
        0x0050c2e4      4e91           jsr (a1)                    ; fcn.0000000a
        0x0050c2e6      dec5           adda.w d5, a7
        0x0050c2e8      b9ecfffc       cmpa.l -0x4(a4), a4
    < 0x0050c2ec      6702           beq.b 0x50c2f0
       0x0050c2ee      4e4d           trap 0xd
    > 0x0050c2f0      3f390083e3c8   move.w 0x83e3c8, -(a7)
        0x0050c2f6      30390083d2e2   move.w 0x83d2e2, d0
        0x0050c2fc      41bc000f       chk.w 0xf, d0
        0x0050c300      48c0           ext.l d0
        0x0050c302      e980           asl.l 0x4, d0
        0x0050c304      2f3409200352   move.l 0x352(a4, d0.l), -(a7)
        0x0050c30a      4227           clr.b -(a7)
        0x0050c30c      1f02           move.b d2, -(a7)
        0x0050c30e      4e91           jsr (a1)                    ; fcn.0000000a
        0x0050c310      504f           addq.w 0x8, a7
        0x0050c312      3eb90083e3ca   move.w 0x83e3ca, (a7)
        0x0050c318      30390083d2e2   move.w 0x83d2e2, d0
        0x0050c31e      41bc000f       chk.w 0xf, d0
        0x0050c322      48c0           ext.l d0
        0x0050c324      e980           asl.l 0x4, d0
        0x0050c326      2f3409200356   move.l 0x356(a4, d0.l), -(a7)
        0x0050c32c      4227           clr.b -(a7)
        0x0050c32e      1f02           move.b d2, -(a7)
        0x0050c330      4e91           jsr (a1)                    ; fcn.0000000a
        0x0050c332      504f           addq.w 0x8, a7
        0x0050c334      3eb90083e3cc   move.w 0x83e3cc, (a7)
        0x0050c33a      30390083d2e2   move.w 0x83d2e2, d0
        0x0050c340      41bc000f       chk.w 0xf, d0
        0x0050c344      48c0           ext.l d0
        0x0050c346      e980           asl.l 0x4, d0
        0x0050c348      2f340920035a   move.l 0x35a(a4, d0.l), -(a7)
    < 0x0050c34e      600001b6       bra.w 0x50c506
    > 0x0050c352      554f           subq.w 0x2, a7
        0x0050c354      3f390083e3ce   move.w 0x83e3ce, -(a7)
        0x0050c35a      4e92           jsr (a2)                    ; fcn.00000009+0x2
        0x0050c35c      544f           addq.w 0x2, a7
        0x0050c35e      4a1f           tst.b (a7)+
    < 0x0050c360      674c           beq.b 0x50c3ae
       0x0050c362      b9ecfffc       cmpa.l -0x4(a4), a4
   < 0x0050c366      6702           beq.b 0x50c36a
      0x0050c368      4e4d           trap 0xd
   > 0x0050c36a      3f390083e3d0   move.w 0x83e3d0, -(a7)
       0x0050c370      2f2c034e       move.l 0x34e(a4), -(a7)
       0x0050c374      4227           clr.b -(a7)
       0x0050c376      1f02           move.b d2, -(a7)
       0x0050c378      4e91           jsr (a1)                    ; fcn.0000000a
       0x0050c37a      504f           addq.w 0x8, a7
       0x0050c37c      3eb90083e3d2   move.w 0x83e3d2, (a7)
       0x0050c382      2f2c0352       move.l 0x352(a4), -(a7)
       0x0050c386      4227           clr.b -(a7)
       0x0050c388      1f02           move.b d2, -(a7)
       0x0050c38a      4e91           jsr (a1)                    ; fcn.0000000a
       0x0050c38c      504f           addq.w 0x8, a7
       0x0050c38e      3eb90083e3d4   move.w 0x83e3d4, (a7)
       0x0050c394      2f2c0356       move.l 0x356(a4), -(a7)
       0x0050c398      4227           clr.b -(a7)
       0x0050c39a      1f02           move.b d2, -(a7)
       0x0050c39c      4e91           jsr (a1)                    ; fcn.0000000a
       0x0050c39e      504f           addq.w 0x8, a7
       0x0050c3a0      3eb90083e3d6   move.w 0x83e3d6, (a7)
   > 0x0050c3a6      2f2c035a       move.l 0x35a(a4), -(a7)
  < 0x0050c3aa      6000015a       bra.w 0x50c506
  > 0x0050c3ae      554f           subq.w 0x2, a7
      0x0050c3b0      3f390083e3d8   move.w 0x83e3d8, -(a7)
      0x0050c3b6      4e92           jsr (a2)                    ; fcn.00000009+0x2
      0x0050c3b8      544f           addq.w 0x2, a7
      0x0050c3ba      4a1f           tst.b (a7)+
  < 0x0050c3bc      673a           beq.b 0x50c3f8
     0x0050c3be      b9ecfffc       cmpa.l -0x4(a4), a4
  < 0x0050c3c2      6702           beq.b 0x50c3c6
     0x0050c3c4      4e4d           trap 0xd
  > 0x0050c3c6      3f390083e3da   move.w 0x83e3da, -(a7)
     0x0050c3cc      2f2c034e       move.l 0x34e(a4), -(a7)
     0x0050c3d0      4227           clr.b -(a7)
     0x0050c3d2      1f02           move.b d2, -(a7)
     0x0050c3d4      4e91           jsr (a1)                    ; fcn.0000000a
     0x0050c3d6      504f           addq.w 0x8, a7
     0x0050c3d8      3eb90083e3dc   move.w 0x83e3dc, (a7)
     0x0050c3de      2f2c0352       move.l 0x352(a4), -(a7)
     0x0050c3e2      4227           clr.b -(a7)
     0x0050c3e4      1f02           move.b d2, -(a7)
     0x0050c3e6      4e91           jsr (a1)                    ; fcn.0000000a
     0x0050c3e8      504f           addq.w 0x8, a7
     0x0050c3ea      3eb90083e3de   move.w 0x83e3de, (a7)
     0x0050c3f0      2f2c0356       move.l 0x356(a4), -(a7)
  < 0x0050c3f4      60000110       bra.w 0x50c506
  > 0x0050c3f8      554f           subq.w 0x2, a7
      0x0050c3fa      3f390083e3e0   move.w 0x83e3e0, -(a7)
      0x0050c400      4e92           jsr (a2)                    ; fcn.00000009+0x2
      0x0050c402      544f           addq.w 0x2, a7
      0x0050c404      4a1f           tst.b (a7)+
  < 0x0050c406      67000106       beq.w 0x50c50e
     0x0050c40a      b9ecfffc       cmpa.l -0x4(a4), a4
  < 0x0050c40e      6702           beq.b 0x50c412
     0x0050c410      4e4d           trap 0xd
  > 0x0050c412      3f390083e3e2   move.w 0x83e3e2, -(a7)
     0x0050c418      2f2c034e       move.l 0x34e(a4), -(a7)
     0x0050c41c      4227           clr.b -(a7)
     0x0050c41e      1f02           move.b d2, -(a7)
     0x0050c420      4e91           jsr (a1)                    ; fcn.0000000a
     0x0050c422      504f           addq.w 0x8, a7
     0x0050c424      3eb90083e3e4   move.w 0x83e3e4, (a7)
     0x0050c42a      2f2c0352       move.l 0x352(a4), -(a7)
     0x0050c42e      4227           clr.b -(a7)
     0x0050c430      1f02           move.b d2, -(a7)
     0x0050c432      4e91           jsr (a1)                    ; fcn.0000000a
     0x0050c434      504f           addq.w 0x8, a7
     0x0050c436      3eb90083e3e6   move.w 0x83e3e6, (a7)
     0x0050c43c      2f2c0356       move.l 0x356(a4), -(a7)
     0x0050c440      4227           clr.b -(a7)
     0x0050c442      1f02           move.b d2, -(a7)
     0x0050c444      4e91           jsr (a1)                    ; fcn.0000000a
     0x0050c446      504f           addq.w 0x8, a7
     0x0050c448      3eb90083e3e8   move.w 0x83e3e8, (a7)
  < 0x0050c44e      6000ff56       bra.w 0x50c3a6
   > 0x0050c452      554f           subq.w 0x2, a7
       0x0050c454      3f390083e396   move.w 0x83e396, -(a7)
       0x0050c45a      4e92           jsr (a2)                    ; fcn.00000009+0x2
       0x0050c45c      544f           addq.w 0x2, a7
       0x0050c45e      4a1f           tst.b (a7)+
   < 0x0050c460      670000ac       beq.w 0x50c50e
      0x0050c464      b9ecfffc       cmpa.l -0x4(a4), a4
  < 0x0050c468      6702           beq.b 0x50c46c
     0x0050c46a      4e4d           trap 0xd
  > 0x0050c46c      3f390083e398   move.w 0x83e398, -(a7)
      0x0050c472      1f2c0620       move.b 0x620(a4), -(a7)
      0x0050c476      4eb900483776   jsr MENUCOM.swtch_box
      0x0050c47c      544f           addq.w 0x2, a7
      0x0050c47e      3eb90083e39a   move.w 0x83e39a, (a7)
      0x0050c484      1f2c0621       move.b 0x621(a4), -(a7)
      0x0050c488      4eb900483776   jsr MENUCOM.swtch_box
      0x0050c48e      544f           addq.w 0x2, a7
      0x0050c490      3eb90083e39c   move.w 0x83e39c, (a7)
      0x0050c496      1f2c0622       move.b 0x622(a4), -(a7)
      0x0050c49a      4eb900483776   jsr MENUCOM.swtch_box
      0x0050c4a0      544f           addq.w 0x2, a7
      0x0050c4a2      3eb90083e3a2   move.w 0x83e3a2, (a7)
      0x0050c4a8      2f2c062c       move.l 0x62c(a4), -(a7)
      0x0050c4ac      4227           clr.b -(a7)
      0x0050c4ae      1f02           move.b d2, -(a7)
      0x0050c4b0      4e91           jsr (a1)                    ; fcn.0000000a
      0x0050c4b2      504f           addq.w 0x8, a7
      0x0050c4b4      3eb90083e3a4   move.w 0x83e3a4, (a7)
      0x0050c4ba      2f2c0630       move.l 0x630(a4), -(a7)
      0x0050c4be      4227           clr.b -(a7)
      0x0050c4c0      1f02           move.b d2, -(a7)
      0x0050c4c2      4e91           jsr (a1)                    ; fcn.0000000a
      0x0050c4c4      504f           addq.w 0x8, a7
      0x0050c4c6      3eb90083e39e   move.w 0x83e39e, (a7)
      0x0050c4cc      2f2c0624       move.l 0x624(a4), -(a7)
      0x0050c4d0      4227           clr.b -(a7)
      0x0050c4d2      1f02           move.b d2, -(a7)
      0x0050c4d4      4e91           jsr (a1)                    ; fcn.0000000a
      0x0050c4d6      504f           addq.w 0x8, a7
      0x0050c4d8      3eb90083e3a0   move.w 0x83e3a0, (a7)
      0x0050c4de      2f2c0628       move.l 0x628(a4), -(a7)
      0x0050c4e2      4227           clr.b -(a7)
      0x0050c4e4      1f02           move.b d2, -(a7)
      0x0050c4e6      4e91           jsr (a1)                    ; fcn.0000000a
      0x0050c4e8      504f           addq.w 0x8, a7
      0x0050c4ea      3eb90083e3a6   move.w 0x83e3a6, (a7)
      0x0050c4f0      2f2c0634       move.l 0x634(a4), -(a7)
      0x0050c4f4      4227           clr.b -(a7)
      0x0050c4f6      1f02           move.b d2, -(a7)
      0x0050c4f8      4e91           jsr (a1)                    ; fcn.0000000a
      0x0050c4fa      504f           addq.w 0x8, a7
      0x0050c4fc      3eb90083e3a8   move.w 0x83e3a8, (a7)
      0x0050c502      2f2c0638       move.l 0x638(a4), -(a7)
  > 0x0050c506      4227           clr.b -(a7)
          0x0050c508      1f02           move.b d2, -(a7)
          0x0050c50a      4e91           jsr (a1)                    ; fcn.0000000a
          0x0050c50c      dec5           adda.w d5, a7
      > 0x0050c50e      b9ecfffc       cmpa.l -0x4(a4), a4
        < 0x0050c512      6702           beq.b 0x50c516
           0x0050c514      4e4d           trap 0xd
        > 0x0050c516      7064           moveq 0x64, d0
            0x0050c518      c1ec02e8       muls.w 0x2e8(a4), d0
            0x0050c51c      3f390083e3fa   move.w 0x83e3fa, -(a7)
            0x0050c522      f2004000       fmove.l d0, fp0
            0x0050c526      f23c40200000.  fdiv.l 0x4000, fp0
            0x0050c52e      f2276400       fmove.s fp0, -(a7)
            0x0050c532      4227           clr.b -(a7)
            0x0050c534      1f02           move.b d2, -(a7)
            0x0050c536      4e91           jsr (a1)                    ; fcn.0000000a
            0x0050c538      dec5           adda.w d5, a7
            0x0050c53a      4a790083e3c2   tst.w 0x83e3c2
        < 0x0050c540      670000f6       beq.w 0x50c638
           0x0050c544      2d7ad484fff8   move.l 0x5099ca(pc), -0x8(a6)
           0x0050c54a      3d7ad482fffc   move.w 0x5099ce(pc), -0x4(a6)
           0x0050c550      302c034c       move.w 0x34c(a4), d0
           0x0050c554      b042           cmp.w d2, d0
       < 0x0050c556      6630           bne.b 0x50c588
          0x0050c558      594f           subq.w 0x4, a7
          0x0050c55a      2f3ad750       move.l 0x509cac(pc), -(a7)
          0x0050c55e      3f7ad7500004   move.w 0x509cb0(pc), 0x4(a7)
          0x0050c564      1f7ad74c0006   move.b 0x509cb2(pc), 0x6(a7)
     > 0x0050c56a      3f390083e3c2   move.w 0x83e3c2, -(a7)
        0x0050c570      486f0002       pea.l 0x2(a7)
        0x0050c574      3f02           move.w d2, -(a7)
        0x0050c576      3f3c0007       move.w 0x7, -(a7)
        0x0050c57a      4eb900481c8e   jsr MENUCOM.add_text_all
        0x0050c580      defc0012       adda.w 0x12, a7
    < 0x0050c584      6000009c       bra.w 0x50c622
    > 0x0050c588      0c400002       cmpi.w 0x2, d0
    < 0x0050c58c      6614           bne.b 0x50c5a2
       0x0050c58e      594f           subq.w 0x4, a7
       0x0050c590      2f3ad722       move.l 0x509cb4(pc), -(a7)
       0x0050c594      3f7ad7220004   move.w 0x509cb8(pc), 0x4(a7)
       0x0050c59a      1f7ad71e0006   move.b 0x509cba(pc), 0x6(a7)
    < 0x0050c5a0      60c8           bra.b 0x50c56a
     > 0x0050c5a2      0c400003       cmpi.w 0x3, d0
     < 0x0050c5a6      6614           bne.b 0x50c5bc
        0x0050c5a8      594f           subq.w 0x4, a7
        0x0050c5aa      2f3ad710       move.l 0x509cbc(pc), -(a7)
        0x0050c5ae      3f7ad7100004   move.w 0x509cc0(pc), 0x4(a7)
        0x0050c5b4      1f7ad70c0006   move.b 0x509cc2(pc), 0x6(a7)
     < 0x0050c5ba      60ae           bra.b 0x50c56a
      > 0x0050c5bc      0c400004       cmpi.w 0x4, d0
      < 0x0050c5c0      662e           bne.b 0x50c5f0
         0x0050c5c2      5d4f           subq.w 0x6, a7
         0x0050c5c4      2f3ad6fe       move.l 0x509cc4(pc), -(a7)
         0x0050c5c8      2f7ad6fe0004   move.l 0x509cc8(pc), 0x4(a7)
         0x0050c5ce      1f7ad6fc0008   move.b 0x509ccc(pc), 0x8(a7)
         0x0050c5d4      3f390083e3c2   move.w 0x83e3c2, -(a7)
         0x0050c5da      486f0002       pea.l 0x2(a7)
         0x0050c5de      3f02           move.w d2, -(a7)
         0x0050c5e0      3f3c0009       move.w 0x9, -(a7)
         0x0050c5e4      4eb900481c8e   jsr MENUCOM.add_text_all
         0x0050c5ea      defc0014       adda.w 0x14, a7
     < 0x0050c5ee      6032           bra.b 0x50c622
     > 0x0050c5f0      554f           subq.w 0x2, a7
         0x0050c5f2      2f3ad6da       move.l 0x509cce(pc), -(a7)
         0x0050c5f6      1f7ad6da0004   move.b 0x509cd2(pc), 0x4(a7)
         0x0050c5fc      3f390083e3c2   move.w 0x83e3c2, -(a7)
         0x0050c602      486f0002       pea.l 0x2(a7)
         0x0050c606      3f02           move.w d2, -(a7)
         0x0050c608      3f3c0005       move.w 0x5, -(a7)
         0x0050c60c      4eb900481c8e   jsr MENUCOM.add_text_all
         0x0050c612      defc0010       adda.w 0x10, a7
         0x0050c616      2d7ad3acfff8   move.l 0x5099c4(pc), -0x8(a6)
         0x0050c61c      3d7ad3aafffc   move.w 0x5099c8(pc), -0x4(a6)
    > 0x0050c622      3f390083e3c2   move.w 0x83e3c2, -(a7)
           0x0050c628      2f2efffa       move.l -0x6(a6), -(a7)
           0x0050c62c      3f2efff8       move.w -0x8(a6), -(a7)
           0x0050c630      4eb900484148   jsr MENUCOM.set_boxcol
           0x0050c636      504f           addq.w 0x8, a7
        > 0x0050c638      3f390083e3c4   move.w 0x83e3c4, -(a7)
            0x0050c63e      4227           clr.b -(a7)
            0x0050c640      302c034c       move.w 0x34c(a4), d0
            0x0050c644      b042           cmp.w d2, d0
        < 0x0050c646      6602           bne.b 0x50c64a
           0x0050c648      5217           addq.b 0x1, (a7)
        > 0x0050c64a      4eb900483776   jsr MENUCOM.swtch_box
            0x0050c650      544f           addq.w 0x2, a7
            0x0050c652      3eb90083e3ce   move.w 0x83e3ce, (a7)
            0x0050c658      4227           clr.b -(a7)
            0x0050c65a      302c034c       move.w 0x34c(a4), d0
            0x0050c65e      0c400002       cmpi.w 0x2, d0
        < 0x0050c662      6602           bne.b 0x50c666
           0x0050c664      5217           addq.b 0x1, (a7)
        > 0x0050c666      4eb900483776   jsr MENUCOM.swtch_box
            0x0050c66c      544f           addq.w 0x2, a7
            0x0050c66e      3eb90083e3d8   move.w 0x83e3d8, (a7)
            0x0050c674      4227           clr.b -(a7)
            0x0050c676      302c034c       move.w 0x34c(a4), d0
            0x0050c67a      0c400003       cmpi.w 0x3, d0
        < 0x0050c67e      6602           bne.b 0x50c682
           0x0050c680      5217           addq.b 0x1, (a7)
        > 0x0050c682      4eb900483776   jsr MENUCOM.swtch_box
            0x0050c688      544f           addq.w 0x2, a7
            0x0050c68a      3eb90083e3e0   move.w 0x83e3e0, (a7)
            0x0050c690      4227           clr.b -(a7)
            0x0050c692      302c034c       move.w 0x34c(a4), d0
            0x0050c696      0c400004       cmpi.w 0x4, d0
        < 0x0050c69a      6602           bne.b 0x50c69e
           0x0050c69c      5217           addq.b 0x1, (a7)
        > 0x0050c69e      4eb900483776   jsr MENUCOM.swtch_box
            0x0050c6a4      3eb90083e3ae   move.w 0x83e3ae, (a7)
            0x0050c6aa      4e92           jsr (a2)                    ; fcn.00000009+0x2
            0x0050c6ac      544f           addq.w 0x2, a7
            0x0050c6ae      4a1f           tst.b (a7)+
        < 0x0050c6b0      6620           bne.b 0x50c6d2
           0x0050c6b2      554f           subq.w 0x2, a7
           0x0050c6b4      3f390083e3b2   move.w 0x83e3b2, -(a7)
           0x0050c6ba      4e92           jsr (a2)                    ; fcn.00000009+0x2
           0x0050c6bc      544f           addq.w 0x2, a7
           0x0050c6be      4a1f           tst.b (a7)+
       < 0x0050c6c0      6610           bne.b 0x50c6d2
          0x0050c6c2      554f           subq.w 0x2, a7
          0x0050c6c4      3f390083e3ba   move.w 0x83e3ba, -(a7)
          0x0050c6ca      4e92           jsr (a2)                    ; fcn.00000009+0x2
          0x0050c6cc      544f           addq.w 0x2, a7
          0x0050c6ce      4a1f           tst.b (a7)+
      < 0x0050c6d0      6710           beq.b 0x50c6e2
      > 0x0050c6d2      3f390083e3ac   move.w 0x83e3ac, -(a7)
           0x0050c6d8      2f3ad2f2       move.l 0x5099cc(pc), -(a7)
           0x0050c6dc      3f3ad2ec       move.w 0x5099ca(pc), -(a7)
       < 0x0050c6e0      600e           bra.b 0x50c6f0
      > 0x0050c6e2      3f390083e3ac   move.w 0x83e3ac, -(a7)
           0x0050c6e8      2f3ad2dc       move.l 0x5099c6(pc), -(a7)
           0x0050c6ec      3f3ad2d6       move.w 0x5099c4(pc), -(a7)
        > 0x0050c6f0      4eb900484148   jsr MENUCOM.set_boxcol
            0x0050c6f6      504f           addq.w 0x8, a7
            0x0050c6f8      554f           subq.w 0x2, a7
            0x0050c6fa      3f390083e398   move.w 0x83e398, -(a7)
            0x0050c700      4e92           jsr (a2)                    ; fcn.00000009+0x2
            0x0050c702      544f           addq.w 0x2, a7
            0x0050c704      4a1f           tst.b (a7)+
        < 0x0050c706      6620           bne.b 0x50c728
           0x0050c708      554f           subq.w 0x2, a7
           0x0050c70a      3f390083e39a   move.w 0x83e39a, -(a7)
           0x0050c710      4e92           jsr (a2)                    ; fcn.00000009+0x2
           0x0050c712      544f           addq.w 0x2, a7
           0x0050c714      4a1f           tst.b (a7)+
       < 0x0050c716      6610           bne.b 0x50c728
          0x0050c718      554f           subq.w 0x2, a7
          0x0050c71a      3f390083e39c   move.w 0x83e39c, -(a7)
          0x0050c720      4e92           jsr (a2)                    ; fcn.00000009+0x2
          0x0050c722      544f           addq.w 0x2, a7
          0x0050c724      4a1f           tst.b (a7)+
      < 0x0050c726      6710           beq.b 0x50c738
      > 0x0050c728      3f390083e396   move.w 0x83e396, -(a7)
           0x0050c72e      2f3ad29c       move.l 0x5099cc(pc), -(a7)
           0x0050c732      3f3ad296       move.w 0x5099ca(pc), -(a7)
       < 0x0050c736      600e           bra.b 0x50c746
      > 0x0050c738      3f390083e396   move.w 0x83e396, -(a7)
           0x0050c73e      2f3ad286       move.l 0x5099c6(pc), -(a7)
           0x0050c742      3f3ad280       move.w 0x5099c4(pc), -(a7)
        > 0x0050c746      4eb900484148   jsr MENUCOM.set_boxcol
            0x0050c74c      504f           addq.w 0x8, a7
            0x0050c74e      554f           subq.w 0x2, a7
            0x0050c750      3f3c0080       move.w 0x80, -(a7)
            0x0050c754      4e92           jsr (a2)                    ; fcn.00000009+0x2
            0x0050c756      544f           addq.w 0x2, a7
            0x0050c758      4a1f           tst.b (a7)+
        < 0x0050c75a      671c           beq.b 0x50c778
           0x0050c75c      3f390083e404   move.w 0x83e404, -(a7)
           0x0050c762      4227           clr.b -(a7)
           0x0050c764      4eb900483972   jsr MENUCOM.set_enable_box
           0x0050c76a      544f           addq.w 0x2, a7
           0x0050c76c      3eb90083e402   move.w 0x83e402, (a7)
           0x0050c772      4227           clr.b -(a7)
       < 0x0050c774      600000a2       bra.w 0x50c818
       > 0x0050c778      594f           subq.w 0x4, a7
           0x0050c77a      1f02           move.b d2, -(a7)
           0x0050c77c      4eb900670a94   jsr PASTECOM.get_cutout
           0x0050c782      544f           addq.w 0x2, a7
           0x0050c784      206c000a       movea.l 0xa(a4), a0
           0x0050c788      b1df           cmpa.l (a7)+, a0
       < 0x0050c78a      6648           bne.b 0x50c7d4
          0x0050c78c      3f390083e404   move.w 0x83e404, -(a7)
          0x0050c792      4227           clr.b -(a7)
          0x0050c794      4eb900483972   jsr MENUCOM.set_enable_box
          0x0050c79a      584f           addq.w 0x4, a7
          0x0050c79c      206c0006       movea.l 0x6(a4), a0
          0x0050c7a0      b0c2           cmpa.w d2, a0
      < 0x0050c7a2      6608           bne.b 0x50c7ac
         0x0050c7a4      206c0002       movea.l 0x2(a4), a0
         0x0050c7a8      b0c2           cmpa.w d2, a0
     < 0x0050c7aa      6708           beq.b 0x50c7b4
     > 0x0050c7ac      3f390083e402   move.w 0x83e402, -(a7)
     < 0x0050c7b2      6062           bra.b 0x50c816
     > 0x0050c7b4      3f390083e402   move.w 0x83e402, -(a7)
         0x0050c7ba      4227           clr.b -(a7)
         0x0050c7bc      4eb900483972   jsr MENUCOM.set_enable_box
         0x0050c7c2      544f           addq.w 0x2, a7
         0x0050c7c4      3eb90083e402   move.w 0x83e402, (a7)
         0x0050c7ca      4227           clr.b -(a7)
         0x0050c7cc      4eb900483776   jsr MENUCOM.swtch_box
     < 0x0050c7d2      604a           bra.b 0x50c81e
     > 0x0050c7d4      554f           subq.w 0x2, a7
         0x0050c7d6      3f3c007f       move.w 0x7f, -(a7)
         0x0050c7da      4e92           jsr (a2)                    ; fcn.00000009+0x2
         0x0050c7dc      544f           addq.w 0x2, a7
         0x0050c7de      4a1f           tst.b (a7)+
     < 0x0050c7e0      670e           beq.b 0x50c7f0
        0x0050c7e2      3f390083e358   move.w 0x83e358, -(a7)
        0x0050c7e8      4eb9004836a4   jsr MENUCOM.push_box
        0x0050c7ee      544f           addq.w 0x2, a7
     > 0x0050c7f0      3f390083e402   move.w 0x83e402, -(a7)
         0x0050c7f6      4227           clr.b -(a7)
         0x0050c7f8      4eb900483972   jsr MENUCOM.set_enable_box
         0x0050c7fe      544f           addq.w 0x2, a7
         0x0050c800      3eb90083e402   move.w 0x83e402, (a7)
         0x0050c806      4227           clr.b -(a7)
         0x0050c808      4eb900483776   jsr MENUCOM.swtch_box
         0x0050c80e      544f           addq.w 0x2, a7
         0x0050c810      3eb90083e404   move.w 0x83e404, (a7)
     > 0x0050c816      1f02           move.b d2, -(a7)
      > 0x0050c818      4eb900483972   jsr MENUCOM.set_enable_box
     > 0x0050c81e      584f           addq.w 0x4, a7
            0x0050c820      4a07           tst.b d7
        < 0x0050c822      672a           beq.b 0x50c84e
           0x0050c824      594f           subq.w 0x4, a7
           0x0050c826      1f02           move.b d2, -(a7)
           0x0050c828      4eb900670a94   jsr PASTECOM.get_cutout
           0x0050c82e      544f           addq.w 0x2, a7
           0x0050c830      206c000a       movea.l 0xa(a4), a0
           0x0050c834      b1df           cmpa.l (a7)+, a0
       < 0x0050c836      6616           bne.b 0x50c84e
          0x0050c838      3f390083e406   move.w 0x83e406, -(a7)
          0x0050c83e      4227           clr.b -(a7)
          0x0050c840      4eb900483972   jsr MENUCOM.set_enable_box
          0x0050c846      544f           addq.w 0x2, a7
          0x0050c848      3ebc007f       move.w 0x7f, (a7)
      < 0x0050c84c      6014           bra.b 0x50c862
      > 0x0050c84e      3f3c007f       move.w 0x7f, -(a7)
           0x0050c852      4227           clr.b -(a7)
           0x0050c854      4eb900483972   jsr MENUCOM.set_enable_box
           0x0050c85a      544f           addq.w 0x2, a7
           0x0050c85c      3eb90083e406   move.w 0x83e406, (a7)
      > 0x0050c862      1f02           move.b d2, -(a7)
            0x0050c864      4eb900483972   jsr MENUCOM.set_enable_box
            0x0050c86a      584f           addq.w 0x4, a7
            0x0050c86c      2f0b           move.l a3, -(a7)
            0x0050c86e      554f           subq.w 0x2, a7
            0x0050c870      4ebadd4c       jsr MENU3DCOM.PAS.get_curve_edit(pc)
            0x0050c874      1017           move.b (a7), d0
            0x0050c876      4880           ext.w d0
            0x0050c878      41bc0019       chk.w 0x19, d0
            0x0050c87c      1e80           move.b d0, (a7)
            0x0050c87e      486efff6       pea.l -0xa(a6)
            0x0050c882      486efff7       pea.l -0x9(a6)
            0x0050c886      4eb90075cc76   jsr MENUKEYFRMCOM.get_param_state
            0x0050c88c      defc000e       adda.w 0xe, a7
            0x0050c890      7e00           moveq 0x0, d7
            0x0050c892      102efff6       move.b -0xa(a6), d0
            0x0050c896      4880           ext.w d0
            0x0050c898      013ad43a       btst.l d0, 0x509cd4(pc)
        < 0x0050c89c      6702           beq.b 0x50c8a0
           0x0050c89e      5207           addq.b 0x1, d7
        > 0x0050c8a0      4a07           tst.b d7
        < 0x0050c8a2      6610           bne.b 0x50c8b4
           0x0050c8a4      3f390083e3f2   move.w 0x83e3f2, -(a7)
           0x0050c8aa      4227           clr.b -(a7)
           0x0050c8ac      4eb900483972   jsr MENUCOM.set_enable_box
           0x0050c8b2      584f           addq.w 0x4, a7
        > 0x0050c8b4      3f390083e3ec   move.w 0x83e3ec, -(a7)
            0x0050c8ba      4227           clr.b -(a7)
            0x0050c8bc      122efff7       move.b -0x9(a6), d1
            0x0050c8c0      4881           ext.w d1
            0x0050c8c2      033ad412       btst.l d1, 0x509cd6(pc)
        < 0x0050c8c6      6702           beq.b 0x50c8ca
           0x0050c8c8      5217           addq.b 0x1, (a7)
        > 0x0050c8ca      4eb900483776   jsr MENUCOM.swtch_box
            0x0050c8d0      544f           addq.w 0x2, a7
            0x0050c8d2      3eb90083e3ec   move.w 0x83e3ec, (a7)
            0x0050c8d8      4227           clr.b -(a7)
            0x0050c8da      013ad3fc       btst.l d0, 0x509cd8(pc)
        < 0x0050c8de      6702           beq.b 0x50c8e2
           0x0050c8e0      5217           addq.b 0x1, (a7)
        > 0x0050c8e2      4eb900483972   jsr MENUCOM.set_enable_box
            0x0050c8e8      544f           addq.w 0x2, a7
            0x0050c8ea      3eb90083e3ee   move.w 0x83e3ee, (a7)
            0x0050c8f0      4227           clr.b -(a7)
            0x0050c8f2      122efff7       move.b -0x9(a6), d1
            0x0050c8f6      0c010002       cmpi.b 0x2, d1
        < 0x0050c8fa      6602           bne.b 0x50c8fe
           0x0050c8fc      5217           addq.b 0x1, (a7)
        > 0x0050c8fe      4eb900483776   jsr MENUCOM.swtch_box
            0x0050c904      544f           addq.w 0x2, a7
            0x0050c906      3eb90083e3ee   move.w 0x83e3ee, (a7)
            0x0050c90c      4227           clr.b -(a7)
            0x0050c90e      013ad3ca       btst.l d0, 0x509cda(pc)
        < 0x0050c912      6702           beq.b 0x50c916
           0x0050c914      5217           addq.b 0x1, (a7)
        > 0x0050c916      4eb900483972   jsr MENUCOM.set_enable_box
            0x0050c91c      544f           addq.w 0x2, a7
            0x0050c91e      3eb90083e3f0   move.w 0x83e3f0, (a7)
            0x0050c924      4227           clr.b -(a7)
            0x0050c926      122efff7       move.b -0x9(a6), d1
            0x0050c92a      4881           ext.w d1
            0x0050c92c      033ad3ae       btst.l d1, 0x509cdc(pc)
        < 0x0050c930      6702           beq.b 0x50c934
           0x0050c932      5217           addq.b 0x1, (a7)
        > 0x0050c934      4eb900483776   jsr MENUCOM.swtch_box
            0x0050c93a      544f           addq.w 0x2, a7
            0x0050c93c      3eb90083e3f0   move.w 0x83e3f0, (a7)
            0x0050c942      4227           clr.b -(a7)
            0x0050c944      013ad398       btst.l d0, 0x509cde(pc)
        < 0x0050c948      6702           beq.b 0x50c94c
           0x0050c94a      5217           addq.b 0x1, (a7)
        > 0x0050c94c      4eb900483972   jsr MENUCOM.set_enable_box
            0x0050c952      584f           addq.w 0x4, a7
            0x0050c954      4a07           tst.b d7
        < 0x0050c956      670000b4       beq.w 0x50ca0c
           0x0050c95a      b002           cmp.b d2, d0
       < 0x0050c95c      6620           bne.b 0x50c97e
          0x0050c95e      2f3ad380       move.l 0x509ce0(pc), -(a7)
          0x0050c962      3f390083e3f2   move.w 0x83e3f2, -(a7)
          0x0050c968      486f0002       pea.l 0x2(a7)
          0x0050c96c      3f02           move.w d2, -(a7)
          0x0050c96e      3f3c0004       move.w 0x4, -(a7)
          0x0050c972      4eb900481c8e   jsr MENUCOM.add_text_all
          0x0050c978      defc000e       adda.w 0xe, a7
      < 0x0050c97c      607e           bra.b 0x50c9fc
      > 0x0050c97e      0c000002       cmpi.b 0x2, d0
      < 0x0050c982      661a           bne.b 0x50c99e
         0x0050c984      2f3ad361       move.l 0x509ce7(pc), -(a7)
         0x0050c988      3f3ad35b       move.w 0x509ce5(pc), -(a7)
         0x0050c98c      3f390083e3f2   move.w 0x83e3f2, -(a7)
         0x0050c992      486f0002       pea.l 0x2(a7)
         0x0050c996      3f02           move.w d2, -(a7)
         0x0050c998      3f3c0006       move.w 0x6, -(a7)
     < 0x0050c99c      6054           bra.b 0x50c9f2
     > 0x0050c99e      0c000004       cmpi.b 0x4, d0
     < 0x0050c9a2      662c           bne.b 0x50c9d0
        0x0050c9a4      2f3ad350       move.l 0x509cf6(pc), -(a7)
        0x0050c9a8      2f3ad348       move.l 0x509cf2(pc), -(a7)
        0x0050c9ac      2f3ad340       move.l 0x509cee(pc), -(a7)
        0x0050c9b0      3f3ad33a       move.w 0x509cec(pc), -(a7)
        0x0050c9b4      3f390083e3f2   move.w 0x83e3f2, -(a7)
        0x0050c9ba      486f0002       pea.l 0x2(a7)
        0x0050c9be      3f02           move.w d2, -(a7)
        0x0050c9c0      3f3c000e       move.w 0xe, -(a7)
        0x0050c9c4      4eb900481c8e   jsr MENUCOM.add_text_all
        0x0050c9ca      defc0018       adda.w 0x18, a7
    < 0x0050c9ce      602c           bra.b 0x50c9fc
    > 0x0050c9d0      0c000007       cmpi.b 0x7, d0
    < 0x0050c9d4      6626           bne.b 0x50c9fc
       0x0050c9d6      554f           subq.w 0x2, a7
       0x0050c9d8      2f3ad321       move.l 0x509cfb(pc), -(a7)
       0x0050c9dc      1f7ad3210004   move.b 0x509cff(pc), 0x4(a7)
       0x0050c9e2      3f390083e3f2   move.w 0x83e3f2, -(a7)
       0x0050c9e8      486f0002       pea.l 0x2(a7)
       0x0050c9ec      3f02           move.w d2, -(a7)
       0x0050c9ee      3f3c0005       move.w 0x5, -(a7)
    > 0x0050c9f2      4eb900481c8e   jsr MENUCOM.add_text_all
        0x0050c9f8      defc0010       adda.w 0x10, a7
    > 0x0050c9fc      3f390083e3f2   move.w 0x83e3f2, -(a7)
           0x0050ca02      1f02           move.b d2, -(a7)
           0x0050ca04      4eb900483972   jsr MENUCOM.set_enable_box
           0x0050ca0a      584f           addq.w 0x4, a7
        > 0x0050ca0c      3f390083e3ea   move.w 0x83e3ea, -(a7)
            0x0050ca12      4227           clr.b -(a7)
            0x0050ca14      4a40           tst.w d0
        < 0x0050ca16      6702           beq.b 0x50ca1a
           0x0050ca18      5217           addq.b 0x1, (a7)
        > 0x0050ca1a      4eb900483776   jsr MENUCOM.swtch_box
            0x0050ca20      544f           addq.w 0x2, a7
            0x0050ca22      3ebc0086       move.w 0x86, (a7)
            0x0050ca26      1f2c0327       move.b 0x327(a4), -(a7)
            0x0050ca2a      4eb900483776   jsr MENUCOM.swtch_box
            0x0050ca30      544f           addq.w 0x2, a7
            0x0050ca32      3ebc0086       move.w 0x86, (a7)
            0x0050ca36      4227           clr.b -(a7)
            0x0050ca38      48780001       pea.l 0x1
            0x0050ca3c      202c0328       move.l 0x328(a4), d0
            0x0050ca40      b09f           cmp.l (a7)+, d0
        < 0x0050ca42      6702           beq.b 0x50ca46
           0x0050ca44      5217           addq.b 0x1, (a7)
        > 0x0050ca46      4eb900483972   jsr MENUCOM.set_enable_box
            0x0050ca4c      584f           addq.w 0x4, a7
            0x0050ca4e      4eb90075ffb8   jsr MENUKEYFRMCOM.upd_keyfrm_boxe
            0x0050ca54      f21fd080       fmovem (a7)+, fp0
            0x0050ca58      4cdf1fff       movem.l (a7)+, d0-d7/a0-a4
            0x0050ca5c      4e5e           unlk a6
            0x0050ca5e      4e75           rts
            ; CALL XREF from MENU3DCOM.PAS.hit_light_num @ 0x50e3e2
            ; CALL XREF from MENU3DCOM.PAS.hit_3d @ 0x50f0f8
            ; CALL XREF from MENU3DCOM.PAS.hit_colour @ 0x50fd0c
            ; CALL XREF from MENU3DCOM.PAS.hit_src_fields @ 0x50ff68
            ; CALL XREF from MENU3DCOM.PAS.hit_detach @ 0x510048
 242: MENU3DCOM.PAS.update_all ();
           0x0050ca60      4e56ffd0       link.w a6, 0xffd0
           0x0050ca64      bfd5           cmpa.l (a5), a7
       < 0x0050ca66      6206           bhi.b 0x50ca6e
          0x0050ca68      44fc0002       move.w 0x2, ccr
          0x0050ca6c      4e76           trapv
       > 0x0050ca6e      defc002c       adda.w 0x2c, a7
           0x0050ca72      48e7c0e8       movem.l d0-d1/a0-a2/a4, -(a7)
           0x0050ca76      45ee0012       lea.l 0x12(a6), a2
           0x0050ca7a      7201           moveq 0x1, d1
           0x0050ca7c      2f12           move.l (a2), -(a7)
           0x0050ca7e      4eb90066ff74   jsr PASTECOM.calc_transforms
           0x0050ca84      4227           clr.b -(a7)
           0x0050ca86      4eb900670a94   jsr PASTECOM.get_cutout
           0x0050ca8c      544f           addq.w 0x2, a7
           0x0050ca8e      285f           movea.l (a7)+, a4
           0x0050ca90      b9ecfffc       cmpa.l -0x4(a4), a4
       < 0x0050ca94      6702           beq.b 0x50ca98
          0x0050ca96      4e4d           trap 0xd
       > 0x0050ca98      486c0210       pea.l 0x210(a4)
           0x0050ca9c      486c02a0       pea.l 0x2a0(a4)
           0x0050caa0      486c0056       pea.l 0x56(a4)
           0x0050caa4      486c02b8       pea.l 0x2b8(a4)
           0x0050caa8      4eb90067d034   jsr THREEDMAV.transform_shape
           0x0050caae      defc0010       adda.w 0x10, a7
           0x0050cab2      202e000e       move.l 0xe(a6), d0
           0x0050cab6      b0bad1cc       cmp.l 0x509c84(pc), d0
       < 0x0050caba      6712           beq.b 0x50cace
          0x0050cabc      2f12           move.l (a2), -(a7)
          0x0050cabe      2f2e000e       move.l 0xe(a6), -(a7)
          0x0050cac2      4227           clr.b -(a7)
          0x0050cac4      4eb90075fcb8   jsr MENUKEYFRMCOM.edit_keyfrm
          0x0050caca      defc000a       adda.w 0xa, a7
       > 0x0050cace      4eb900670a5c   jsr PASTECOM.save_layers
           0x0050cad4      4eb90075f992   jsr MENUKEYFRMCOM.update_keyfrms
           0x0050cada      4a2e000c       tst.b 0xc(a6)
       < 0x0050cade      6756           beq.b 0x50cb36
          0x0050cae0      2052           movea.l (a2), a0
          0x0050cae2      b1e8fffc       cmpa.l -0x4(a0), a0
      < 0x0050cae6      6702           beq.b 0x50caea
         0x0050cae8      4e4d           trap 0xd
      > 0x0050caea      554f           subq.w 0x2, a7
          0x0050caec      3f3c0080       move.w 0x80, -(a7)
          0x0050caf0      4eb900480fc2   jsr MENUCOM.get_boxon
          0x0050caf6      544f           addq.w 0x2, a7
          0x0050caf8      4a1f           tst.b (a7)+
      < 0x0050cafa      661c           bne.b 0x50cb18
         0x0050cafc      594f           subq.w 0x4, a7
         0x0050cafe      1f01           move.b d1, -(a7)
         0x0050cb00      4eb900670a94   jsr PASTECOM.get_cutout
         0x0050cb06      544f           addq.w 0x2, a7
         0x0050cb08      2268000a       movea.l 0xa(a0), a1
         0x0050cb0c      b3df           cmpa.l (a7)+, a1
     < 0x0050cb0e      6608           bne.b 0x50cb18
        0x0050cb10      2068000e       movea.l 0xe(a0), a0
        0x0050cb14      b0c1           cmpa.w d1, a0
    < 0x0050cb16      6710           beq.b 0x50cb28
    > 0x0050cb18      1f3c0002       move.b 0x2, -(a7)
         0x0050cb1c      2f0c           move.l a4, -(a7)
         0x0050cb1e      4eb9006770b0   jsr PASTECOM.update_layer
         0x0050cb24      5c4f           addq.w 0x6, a7
     < 0x0050cb26      600e           bra.b 0x50cb36
    > 0x0050cb28      1f01           move.b d1, -(a7)
         0x0050cb2a      1f2e000a       move.b 0xa(a6), -(a7)
         0x0050cb2e      4eb90067439c   jsr PASTECOM.update_cutout
         0x0050cb34      584f           addq.w 0x4, a7
      > 0x0050cb36      4ebaf378       jsr MENU3DCOM.PAS.update_3d_menu_(pc)
           0x0050cb3a      4a2e0008       tst.b 0x8(a6)
       < 0x0050cb3e      670a           beq.b 0x50cb4a
          0x0050cb40      1f01           move.b d1, -(a7)
          0x0050cb42      1f01           move.b d1, -(a7)
          0x0050cb44      4ebaefb0       jsr MENU3DCOM.PAS.do_3d_cutout_cu(pc)
          0x0050cb48      584f           addq.w 0x4, a7
       > 0x0050cb4a      4cdf1703       movem.l (a7)+, d0-d1/a0-a2/a4
           0x0050cb4e      4e5e           unlk a6
           0x0050cb50      4e75           rts
 202: MENU3DCOM.PAS.update_enter ();
           0x0050cb52      4e56ffe0       link.w a6, 0xffe0
           0x0050cb56      bfd5           cmpa.l (a5), a7
       < 0x0050cb58      6206           bhi.b 0x50cb60
          0x0050cb5a      44fc0002       move.w 0x2, ccr
          0x0050cb5e      4e76           trapv
       > 0x0050cb60      defc0020       adda.w 0x20, a7
           0x0050cb64      48e7e080       movem.l d0-d2/a0, -(a7)
           0x0050cb68      7203           moveq 0x3, d1
           0x0050cb6a      7404           moveq 0x4, d2
           0x0050cb6c      42390083d314   clr.b 0x83d314
           0x0050cb72      42390083d315   clr.b 0x83d315
           0x0050cb78      42390083d30d   clr.b 0x83d30d
           0x0050cb7e      4eb900523cda   jsr BRUSHCOM.open_block
           0x0050cb84      1f01           move.b d1, -(a7)
           0x0050cb86      514f           subq.w 0x8, a7
           0x0050cb88      1f02           move.b d2, -(a7)
           0x0050cb8a      4eb9006336ea   jsr HANDCOM.get_area
           0x0050cb90      544f           addq.w 0x2, a7
           0x0050cb92      4eb900518a2a   jsr OUTCOM.set_video_crops
           0x0050cb98      504f           addq.w 0x8, a7
           0x0050cb9a      1e81           move.b d1, (a7)
           0x0050cb9c      594f           subq.w 0x4, a7
           0x0050cb9e      1f02           move.b d2, -(a7)
           0x0050cba0      4eb9006338f6   jsr HANDCOM.get_point
           0x0050cba6      544f           addq.w 0x2, a7
           0x0050cba8      4eb90051872e   jsr OUTCOM.set_scroll
           0x0050cbae      5c4f           addq.w 0x6, a7
           0x0050cbb0      206e000a       movea.l 0xa(a6), a0
           0x0050cbb4      b1e8fffc       cmpa.l -0x4(a0), a0
       < 0x0050cbb8      6702           beq.b 0x50cbbc
          0x0050cbba      4e4d           trap 0xd
       > 0x0050cbbc      4227           clr.b -(a7)
           0x0050cbbe      10390083d1ce   move.b 0x83d1ce, d0
           0x0050cbc4      4400           neg.b d0
           0x0050cbc6      5200           addq.b 0x1, d0
       < 0x0050cbc8      6718           beq.b 0x50cbe2
          0x0050cbca      4a2802db       tst.b 0x2db(a0)
      < 0x0050cbce      6612           bne.b 0x50cbe2
         0x0050cbd0      4a2802da       tst.b 0x2da(a0)
     < 0x0050cbd4      660a           bne.b 0x50cbe0
        0x0050cbd6      102802d9       move.b 0x2d9(a0), d0
        0x0050cbda      0c000001       cmpi.b 0x1, d0
    < 0x0050cbde      6602           bne.b 0x50cbe2
    > 0x0050cbe0      5217           addq.b 0x1, (a7)
    > 0x0050cbe2      1f2e0008       move.b 0x8(a6), -(a7)
           0x0050cbe6      554f           subq.w 0x2, a7
           0x0050cbe8      4eb90066f8d8   jsr PASTECOM.fake_layer
           0x0050cbee      102e0008       move.b 0x8(a6), d0
           0x0050cbf2      c017           and.b (a7), d0
           0x0050cbf4      1e80           move.b d0, (a7)
           0x0050cbf6      3f2802e8       move.w 0x2e8(a0), -(a7)
           0x0050cbfa      4eb9004b22e2   jsr MENUPASTECOM.paste_set_out
           0x0050cc00      504f           addq.w 0x8, a7
           0x0050cc02      4eb900523cf0   jsr BRUSHCOM.close_block
           0x0050cc08      48780001       pea.l 0x1
           0x0050cc0c      4eb900402e42   jsr p_Delay
           0x0050cc12      584f           addq.w 0x4, a7
           0x0050cc14      4cdf0107       movem.l (a7)+, d0-d2/a0
           0x0050cc18      4e5e           unlk a6
           0x0050cc1a      4e75           rts
 24: MENU3DCOM.PAS.update_single ();
           0x0050cc1c      4e56ff74       link.w a6, 0xff74
           0x0050cc20      bfd5           cmpa.l (a5), a7
       < 0x0050cc22      6206           bhi.b 0x50cc2a
          0x0050cc24      44fc0002       move.w 0x2, ccr
          0x0050cc28      4e76           trapv
       > 0x0050cc2a      defc0062       adda.w 0x62, a7
           0x0050cc2e      48e7fff8       movem.l d0-d7/a0-a4, -(a7)
           0x0050cc32      f227e001       fmovem fp0, -(a7)
            0x0050cc36      45eefff8       lea.l -0x8(a6), a2
            0x0050cc3a      47f90083d1ce   lea.l 0x83d1ce, a3
            0x0050cc40      49f90083d314   lea.l 0x83d314, a4
            0x0050cc46      1013           move.b (a3), d0
            0x0050cc48      4400           neg.b d0
            0x0050cc4a      5200           addq.b 0x1, d0
            0x0050cc4c      c12e000e       and.b d0, 0xe(a6)
            0x0050cc50      206e0010       movea.l 0x10(a6), a0
            0x0050cc54      b1e8fffc       cmpa.l -0x4(a0), a0
        < 0x0050cc58      6702           beq.b 0x50cc5c
           0x0050cc5a      4e4d           trap 0xd
        > 0x0050cc5c      302802e8       move.w 0x2e8(a0), d0
            0x0050cc60      48c0           ext.l d0
            0x0050cc62      81fc0040       divs.w 0x40, d0
            0x0050cc66      3c00           move.w d0, d6
            0x0050cc68      4a2e000a       tst.b 0xa(a6)
        < 0x0050cc6c      672a           beq.b 0x50cc98
           0x0050cc6e      554f           subq.w 0x2, a7
           0x0050cc70      4eb90066f8d8   jsr PASTECOM.fake_layer
           0x0050cc76      4a1f           tst.b (a7)+
       < 0x0050cc78      671e           beq.b 0x50cc98
          0x0050cc7a      7a01           moveq 0x1, d5
          0x0050cc7c      4a2e0008       tst.b 0x8(a6)
      < 0x0050cc80      6748           beq.b 0x50ccca
         0x0050cc82      0c4600c0       cmpi.w 0xc0, d6
     < 0x0050cc86      6f06           ble.b 0x50cc8e
        0x0050cc88      3c3c00c0       move.w 0xc0, d6
    < 0x0050cc8c      603c           bra.b 0x50ccca
    > 0x0050cc8e      0c460040       cmpi.w 0x40, d6
    < 0x0050cc92      6c36           bge.b 0x50ccca
       0x0050cc94      7c40           moveq 0x40, d6
   < 0x0050cc96      6032           bra.b 0x50ccca
   > 0x0050cc98      7a00           moveq 0x0, d5
        0x0050cc9a      302802e8       move.w 0x2e8(a0), d0
        0x0050cc9e      0c404000       cmpi.w 0x4000, d0
    < 0x0050cca2      6c26           bge.b 0x50ccca
       0x0050cca4      554f           subq.w 0x2, a7
       0x0050cca6      3f3c002c       move.w 0x2c, -(a7)
       0x0050ccaa      4eb900480fc2   jsr MENUCOM.get_boxon
       0x0050ccb0      3f3c001f       move.w 0x1f, -(a7)
       0x0050ccb4      4eb900480fc2   jsr MENUCOM.get_boxon
       0x0050ccba      544f           addq.w 0x2, a7
       0x0050ccbc      102f0002       move.b 0x2(a7), d0
       0x0050ccc0      801f           or.b (a7)+, d0
       0x0050ccc2      544f           addq.w 0x2, a7
       0x0050ccc4      4a00           tst.b d0
   < 0x0050ccc6      6702           beq.b 0x50ccca
      0x0050ccc8      5205           addq.b 0x1, d5
   > 0x0050ccca      102e000e       move.b 0xe(a6), d0
            0x0050ccce      b0390083d30d   cmp.b 0x83d30d, d0
        < 0x0050ccd4      6620           bne.b 0x50ccf6
           0x0050ccd6      4a2e000c       tst.b 0xc(a6)
       < 0x0050ccda      661a           bne.b 0x50ccf6
          0x0050ccdc      4a05           tst.b d5
      < 0x0050ccde      6616           bne.b 0x50ccf6
         0x0050cce0      12390083d30c   move.b 0x83d30c, d1
         0x0050cce6      4881           ext.w d1
         0x0050cce8      43fad016       lea.l 0x509d00(pc), a1
         0x0050ccec      3401           move.w d1, d2
         0x0050ccee      e64a           lsr.w 0x3, d2
         0x0050ccf0      03312000       btst.l d1, (a1, d2.w)
     < 0x0050ccf4      6734           beq.b 0x50cd2a
     > 0x0050ccf6      4414           neg.b (a4)
           0x0050ccf8      5214           addq.b 0x1, (a4)
           0x0050ccfa      13fc00010083.  move.b 0x1, 0x83d336.l
           0x0050cd02      13fc00070083.  move.b 0x7, 0x83d30c.l
           0x0050cd0a      594f           subq.w 0x4, a7
           0x0050cd0c      4eb900402e30   jsr p_Cur_Ticks
           0x0050cd12      221f           move.l (a7)+, d1
           0x0050cd14      b2b90083e416   cmp.l 0x83e416, d1
       < 0x0050cd1a      6216           bhi.b 0x50cd32
          0x0050cd1c      48780001       pea.l 0x1
          0x0050cd20      4eb900402e42   jsr p_Delay
          0x0050cd26      584f           addq.w 0x4, a7
      < 0x0050cd28      6008           bra.b 0x50cd32
     > 0x0050cd2a      13fc00080083.  move.b 0x8, 0x83d30c.l
       > 0x0050cd32      1214           move.b (a4), d1
            0x0050cd34      4881           ext.w d1
            0x0050cd36      224b           movea.l a3, a1
            0x0050cd38      2d7117200158.  move.l 0x158(a1, d1.w * 8), -0x14(a6)
            0x0050cd40      24b117200158   move.l 0x158(a1, d1.w * 8), (a2)
            0x0050cd46      486effdc       pea.l -0x24(a6)
            0x0050cd4a      486effde       pea.l -0x22(a6)
            0x0050cd4e      4eb9005186e8   jsr OUTCOM.get_zoom_and_of
            0x0050cd54      504f           addq.w 0x8, a7
            0x0050cd56      322effdc       move.w -0x24(a6), d1
            0x0050cd5a      0c410100       cmpi.w 0x100, d1
        < 0x0050cd5e      6600013c       bne.w 0x50ce9c
           0x0050cd62      4a00           tst.b d0
       < 0x0050cd64      6704           beq.b 0x50cd6a
          0x0050cd66      7e40           moveq 0x40, d7
      < 0x0050cd68      6004           bra.b 0x50cd6e
      > 0x0050cd6a      3e3c0080       move.w 0x80, d7
      > 0x0050cd6e      f2075000       fmove.w d7, fp0
           0x0050cd72      f23c40200000.  fdiv.l 0x100, fp0
           0x0050cd7a      f22e6400ffe2   fmove.s fp0, -0x1e(a6)
           0x0050cd80      3412           move.w (a2), d2
           0x0050cd82      48c2           ext.l d2
           0x0050cd84      e782           asl.l 0x3, d2
           0x0050cd86      263c00000100   move.l 0x100, d3
           0x0050cd8c      87c7           divs.w d7, d3
           0x0050cd8e      48c3           ext.l d3
           0x0050cd90      9483           sub.l d3, d2
           0x0050cd92      3807           move.w d7, d4
           0x0050cd94      c9f90083d230   muls.w 0x83d230, d4
           0x0050cd9a      4c7c48040000.  divs.l 0x40, d4
           0x0050cda2      d882           add.l d2, d4
           0x0050cda4      0484ffff8000   subi.l 0xffff8000, d4
           0x0050cdaa      493c0000ffff   chk.l 0xffff, d4
           0x0050cdb0      0684ffff8000   addi.l 0xffff8000, d4
           0x0050cdb6      3d44ffe6       move.w d4, -0x1a(a6)
           0x0050cdba      342efffa       move.w -0x6(a6), d2
           0x0050cdbe      48c2           ext.l d2
           0x0050cdc0      e782           asl.l 0x3, d2
           0x0050cdc2      4483           neg.l d3
           0x0050cdc4      d682           add.l d2, d3
           0x0050cdc6      3407           move.w d7, d2
           0x0050cdc8      c5f90083d232   muls.w 0x83d232, d2
           0x0050cdce      4c7c28020000.  divs.l 0x40, d2
           0x0050cdd6      d483           add.l d3, d2
           0x0050cdd8      0482ffff8000   subi.l 0xffff8000, d2
           0x0050cdde      453c0000ffff   chk.l 0xffff, d2
           0x0050cde4      0682ffff8000   addi.l 0xffff8000, d2
           0x0050cdea      3d42ffe8       move.w d2, -0x18(a6)
           0x0050cdee      554f           subq.w 0x2, a7
           0x0050cdf0      4ebad73e       jsr MENU3DCOM.PAS.get_front_back(pc)
           0x0050cdf4      141f           move.b (a7)+, d2
           0x0050cdf6      4882           ext.w d2
           0x0050cdf8      45bc0004       chk.w 0x4, d2
           0x0050cdfc      1d42ffea       move.b d2, -0x16(a6)
           0x0050ce00      342effec       move.w -0x14(a6), d2
           0x0050ce04      48c2           ext.l d2
           0x0050ce06      5382           subq.l 0x1, d2
           0x0050ce08      0482ffff8000   subi.l 0xffff8000, d2
           0x0050ce0e      453c0000ffff   chk.l 0xffff, d2
           0x0050ce14      0682ffff8000   addi.l 0xffff8000, d2
           0x0050ce1a      3d42ffec       move.w d2, -0x14(a6)
           0x0050ce1e      342effe6       move.w -0x1a(a6), d2
           0x0050ce22      48c2           ext.l d2
           0x0050ce24      5182           subq.l 0x8, d2
           0x0050ce26      0482ffff8000   subi.l 0xffff8000, d2
           0x0050ce2c      453c0000ffff   chk.l 0xffff, d2
           0x0050ce32      0682ffff8000   addi.l 0xffff8000, d2
           0x0050ce38      3d42ffe6       move.w d2, -0x1a(a6)
           0x0050ce3c      3407           move.w d7, d2
           0x0050ce3e      c5f90083d230   muls.w 0x83d230, d2
           0x0050ce44      4c7c28020000.  divs.l 0x100, d2
           0x0050ce4c      5e82           addq.l 0x7, d2
           0x0050ce4e      02820000fff8   andi.l 0xfff8, d2
           0x0050ce54      0482ffff8000   subi.l 0xffff8000, d2
           0x0050ce5a      453c0000ffff   chk.l 0xffff, d2
           0x0050ce60      0682ffff8000   addi.l 0xffff8000, d2
           0x0050ce66      3d42fffc       move.w d2, -0x4(a6)
           0x0050ce6a      3407           move.w d7, d2
           0x0050ce6c      c5f90083d232   muls.w 0x83d232, d2
           0x0050ce72      4c7c28020000.  divs.l 0x100, d2
           0x0050ce7a      5682           addq.l 0x3, d2
           0x0050ce7c      02820000fffc   andi.l 0xfffc, d2
           0x0050ce82      0482ffff8000   subi.l 0xffff8000, d2
           0x0050ce88      453c0000ffff   chk.l 0xffff, d2
           0x0050ce8e      0682ffff8000   addi.l 0xffff8000, d2
           0x0050ce94      3d42fffe       move.w d2, -0x2(a6)
       < 0x0050ce98      60000148       bra.w 0x50cfe2
       > 0x0050ce9c      7e00           moveq 0x0, d7
           0x0050ce9e      2d7c3f800008.  move.l 0x3f800008, -0x1e(a6)
           0x0050cea6      3012           move.w (a2), d0
           0x0050cea8      48c0           ext.l d0
           0x0050ceaa      2400           move.l d0, d2
           0x0050ceac      e782           asl.l 0x3, d2
           0x0050ceae      36390083d230   move.w 0x83d230, d3
           0x0050ceb4      48c3           ext.l d3
           0x0050ceb6      e583           asl.l 0x2, d3
           0x0050ceb8      d682           add.l d2, d3
           0x0050ceba      0483ffff8000   subi.l 0xffff8000, d3
           0x0050cec0      473c0000ffff   chk.l 0xffff, d3
           0x0050cec6      0683ffff8000   addi.l 0xffff8000, d3
           0x0050cecc      3d43ffe6       move.w d3, -0x1a(a6)
           0x0050ced0      342efffa       move.w -0x6(a6), d2
           0x0050ced4      48c2           ext.l d2
           0x0050ced6      e782           asl.l 0x3, d2
           0x0050ced8      36390083d232   move.w 0x83d232, d3
           0x0050cede      48c3           ext.l d3
           0x0050cee0      e583           asl.l 0x2, d3
           0x0050cee2      d682           add.l d2, d3
           0x0050cee4      0483ffff8000   subi.l 0xffff8000, d3
           0x0050ceea      473c0000ffff   chk.l 0xffff, d3
           0x0050cef0      0683ffff8000   addi.l 0xffff8000, d3
           0x0050cef6      3d43ffe8       move.w d3, -0x18(a6)
           0x0050cefa      554f           subq.w 0x2, a7
           0x0050cefc      4ebad632       jsr MENU3DCOM.PAS.get_front_back(pc)
           0x0050cf00      141f           move.b (a7)+, d2
           0x0050cf02      4882           ext.w d2
           0x0050cf04      45bc0004       chk.w 0x4, d2
           0x0050cf08      1d42ffea       move.b d2, -0x16(a6)
           0x0050cf0c      342effde       move.w -0x22(a6), d2
           0x0050cf10      48c2           ext.l d2
           0x0050cf12      85fc0008       divs.w 0x8, d2
           0x0050cf16      48c2           ext.l d2
           0x0050cf18      02820000fff8   andi.l 0xfff8, d2
           0x0050cf1e      d480           add.l d0, d2
           0x0050cf20      0482ffff8000   subi.l 0xffff8000, d2
           0x0050cf26      453c0000ffff   chk.l 0xffff, d2
           0x0050cf2c      0682ffff8000   addi.l 0xffff8000, d2
           0x0050cf32      3482           move.w d2, (a2)
           0x0050cf34      302effe0       move.w -0x20(a6), d0
           0x0050cf38      48c0           ext.l d0
           0x0050cf3a      81fc0008       divs.w 0x8, d0
           0x0050cf3e      48c0           ext.l d0
           0x0050cf40      02800000fffc   andi.l 0xfffc, d0
           0x0050cf46      342efffa       move.w -0x6(a6), d2
           0x0050cf4a      48c2           ext.l d2
           0x0050cf4c      d082           add.l d2, d0
           0x0050cf4e      0480ffff8000   subi.l 0xffff8000, d0
           0x0050cf54      413c0000ffff   chk.l 0xffff, d0
           0x0050cf5a      0680ffff8000   addi.l 0xffff8000, d0
           0x0050cf60      3d40fffa       move.w d0, -0x6(a6)
           0x0050cf64      3001           move.w d1, d0
           0x0050cf66      c0f90083d230   mulu.w 0x83d230, d0
           0x0050cf6c      4c7c00000000.  divu.l 0x100, d0
           0x0050cf74      06800000000f   addi.l 0xf, d0
           0x0050cf7a      02800000fff8   andi.l 0xfff8, d0
           0x0050cf80      0480ffff8000   subi.l 0xffff8000, d0
           0x0050cf86      413c0000ffff   chk.l 0xffff, d0
           0x0050cf8c      0680ffff8000   addi.l 0xffff8000, d0
           0x0050cf92      3d40fffc       move.w d0, -0x4(a6)
           0x0050cf96      3001           move.w d1, d0
           0x0050cf98      c0f90083d232   mulu.w 0x83d232, d0
           0x0050cf9e      4c7c00000000.  divu.l 0x100, d0
           0x0050cfa6      5e80           addq.l 0x7, d0
           0x0050cfa8      02800000fffc   andi.l 0xfffc, d0
           0x0050cfae      0480ffff8000   subi.l 0xffff8000, d0
           0x0050cfb4      413c0000ffff   chk.l 0xffff, d0
           0x0050cfba      0680ffff8000   addi.l 0xffff8000, d0
           0x0050cfc0      3d40fffe       move.w d0, -0x2(a6)
           0x0050cfc4      4852           pea.l (a2)
           0x0050cfc6      1014           move.b (a4), d0
           0x0050cfc8      4880           ext.w d0
           0x0050cfca      224b           movea.l a3, a1
           0x0050cfcc      2f310720015c   move.l 0x15c(a1, d0.w * 8), -(a7)
           0x0050cfd2      2f3107200158   move.l 0x158(a1, d0.w * 8), -(a7)
           0x0050cfd8      4eb9006335e8   jsr HANDCOM.crop_to_area
           0x0050cfde      defc000c       adda.w 0xc, a7
       > 0x0050cfe2      2d52fff0       move.l (a2), -0x10(a6)
            0x0050cfe6      2d6efffcfff4   move.l -0x4(a6), -0xc(a6)
            0x0050cfec      1f3c0003       move.b 0x3, -(a7)
            0x0050cff0      2f2efffc       move.l -0x4(a6), -(a7)
            0x0050cff4      2f12           move.l (a2), -(a7)
            0x0050cff6      4eb9005223fc   jsr BRUSHCOM.str_write_area
            0x0050cffc      defc000a       adda.w 0xa, a7
            0x0050d000      4a68034c       tst.w 0x34c(a0)
        < 0x0050d004      6614           bne.b 0x50d01a
           0x0050d006      4a2802d8       tst.b 0x2d8(a0)
       < 0x0050d00a      670e           beq.b 0x50d01a
          0x0050d00c      554f           subq.w 0x2, a7
          0x0050d00e      4ebad520       jsr MENU3DCOM.PAS.get_front_back(pc)
          0x0050d012      101f           move.b (a7)+, d0
          0x0050d014      0c000002       cmpi.b 0x2, d0
      < 0x0050d018      6714           beq.b 0x50d02e
      > 0x0050d01a      4a2802d8       tst.b 0x2d8(a0)
       < 0x0050d01e      6630           bne.b 0x50d050
          0x0050d020      554f           subq.w 0x2, a7
          0x0050d022      4ebad50c       jsr MENU3DCOM.PAS.get_front_back(pc)
          0x0050d026      101f           move.b (a7)+, d0
          0x0050d028      0c000001       cmpi.b 0x1, d0
      < 0x0050d02c      6622           bne.b 0x50d050
      > 0x0050d02e      4267           clr.w -(a7)
          0x0050d030      2f3ac9d6       move.l 0x509a08(pc), -(a7)
          0x0050d034      3f3ac9d0       move.w 0x509a06(pc), -(a7)
          0x0050d038      1f3c0003       move.b 0x3, -(a7)
          0x0050d03c      2f2efffc       move.l -0x4(a6), -(a7)
          0x0050d040      2f12           move.l (a2), -(a7)
          0x0050d042      4eb9005215a8   jsr BRUSHCOM.br_wipe_colour
          0x0050d048      defc0012       adda.w 0x12, a7
      < 0x0050d04c      6000009c       bra.w 0x50d0ea
      > 0x0050d050      1f3c0001       move.b 0x1, -(a7)
           0x0050d054      4227           clr.b -(a7)
           0x0050d056      3f3cfffe       move.w 0xfffe, -(a7)
           0x0050d05a      2f2e0010       move.l 0x10(a6), -(a7)
           0x0050d05e      486effe2       pea.l -0x1e(a6)
           0x0050d062      1f3c0003       move.b 0x3, -(a7)
           0x0050d066      1f3c0004       move.b 0x4, -(a7)
           0x0050d06a      4852           pea.l (a2)
           0x0050d06c      4eb900528fc8   jsr BRUSH2COM.br_size_3d
           0x0050d072      defc0012       adda.w 0x12, a7
           0x0050d076      2eaefff4       move.l -0xc(a6), (a7)
           0x0050d07a      2f2efff0       move.l -0x10(a6), -(a7)
           0x0050d07e      2f2efffc       move.l -0x4(a6), -(a7)
           0x0050d082      2f12           move.l (a2), -(a7)
           0x0050d084      4267           clr.w -(a7)
           0x0050d086      2f3ac980       move.l 0x509a08(pc), -(a7)
           0x0050d08a      3f3ac97a       move.w 0x509a06(pc), -(a7)
           0x0050d08e      1f3c0003       move.b 0x3, -(a7)
           0x0050d092      4eb900525e26   jsr BRUSH1COM.br_tidy_wipe
           0x0050d098      defc001a       adda.w 0x1a, a7
           0x0050d09c      4a28061e       tst.b 0x61e(a0)
       < 0x0050d0a0      6748           beq.b 0x50d0ea
          0x0050d0a2      4a05           tst.b d5
      < 0x0050d0a4      6744           beq.b 0x50d0ea
         0x0050d0a6      0c4600ff       cmpi.w 0xff, d6
     < 0x0050d0aa      6c3e           bge.b 0x50d0ea
        0x0050d0ac      48c6           ext.l d6
        0x0050d0ae      203c000000ff   move.l 0xff, d0
        0x0050d0b4      9086           sub.l d6, d0
        0x0050d0b6      0c80000000ff   cmpi.l 0xff, d0
    < 0x0050d0bc      6302           bls.b 0x50d0c0
       0x0050d0be      4e4f           trap 0xf
    > 0x0050d0c0      3f00           move.w d0, -(a7)
        0x0050d0c2      2f3ac926       move.l 0x5099ea(pc), -(a7)
        0x0050d0c6      3f3ac920       move.w 0x5099e8(pc), -(a7)
        0x0050d0ca      4eb900520fe8   jsr BRUSHCOM.set_br_key_colo
        0x0050d0d0      5c4f           addq.w 0x6, a7
        0x0050d0d2      1ebc0003       move.b 0x3, (a7)
        0x0050d0d6      1f3c0001       move.b 0x1, -(a7)
        0x0050d0da      2f2efffc       move.l -0x4(a6), -(a7)
        0x0050d0de      2f12           move.l (a2), -(a7)
        0x0050d0e0      4eb900521702   jsr BRUSHCOM.br_pst_wipe
        0x0050d0e6      defc000c       adda.w 0xc, a7
     > 0x0050d0ea      4eb90051f298   jsr BRUSHCOM.brush_wait
            0x0050d0f0      4a2e000a       tst.b 0xa(a6)
        < 0x0050d0f4      66000086       bne.w 0x50d17c
           0x0050d0f8      554f           subq.w 0x2, a7
           0x0050d0fa      1f3c0002       move.b 0x2, -(a7)
           0x0050d0fe      4267           clr.w -(a7)
           0x0050d100      4227           clr.b -(a7)
           0x0050d102      4227           clr.b -(a7)
           0x0050d104      554f           subq.w 0x2, a7
           0x0050d106      3f3c002c       move.w 0x2c, -(a7)
           0x0050d10a      4eb900480fc2   jsr MENUCOM.get_boxon
           0x0050d110      544f           addq.w 0x2, a7
           0x0050d112      4a1f           tst.b (a7)+
       < 0x0050d114      6612           bne.b 0x50d128
          0x0050d116      554f           subq.w 0x2, a7
          0x0050d118      3f3c001f       move.w 0x1f, -(a7)
          0x0050d11c      4eb900480fc2   jsr MENUCOM.get_boxon
          0x0050d122      544f           addq.w 0x2, a7
          0x0050d124      4a1f           tst.b (a7)+
      < 0x0050d126      6702           beq.b 0x50d12a
      > 0x0050d128      5217           addq.b 0x1, (a7)
      > 0x0050d12a      1017           move.b (a7), d0
           0x0050d12c      4880           ext.w d0
           0x0050d12e      41bc0001       chk.w 0x1, d0
           0x0050d132      1e80           move.b d0, (a7)
           0x0050d134      4eb900717be4   jsr MENUJOCKCOM.do_jock_bgnd
           0x0050d13a      504f           addq.w 0x8, a7
           0x0050d13c      4a1f           tst.b (a7)+
           0x0050d13e      4a13           tst.b (a3)
       < 0x0050d140      6714           beq.b 0x50d156
          0x0050d142      594f           subq.w 0x4, a7
          0x0050d144      1f3c0001       move.b 0x1, -(a7)
          0x0050d148      4eb900707edc   jsr GORDON_DUMMY.clip_queue
          0x0050d14e      544f           addq.w 0x2, a7
          0x0050d150      4a9f           tst.l (a7)+
      < 0x0050d152      6628           bne.b 0x50d17c
     < 0x0050d154      6026           bra.b 0x50d17c
    > 0x0050d156      594f           subq.w 0x4, a7
        0x0050d158      4eb900402e30   jsr p_Cur_Ticks
        0x0050d15e      201f           move.l (a7)+, d0
        0x0050d160      90b90083e416   sub.l 0x83e416, d0
        0x0050d166      0c8000000003   cmpi.l 0x3, d0
    < 0x0050d16c      640e           bcc.b 0x50d17c
       0x0050d16e      48780001       pea.l 0x1
       0x0050d172      4eb900402e42   jsr p_Delay
       0x0050d178      584f           addq.w 0x4, a7
    < 0x0050d17a      60da           bra.b 0x50d156
     > 0x0050d17c      4eb900523cda   jsr BRUSHCOM.open_block
            0x0050d182      1f3c0003       move.b 0x3, -(a7)
            0x0050d186      2f2efff4       move.l -0xc(a6), -(a7)
            0x0050d18a      2f2efff0       move.l -0x10(a6), -(a7)
            0x0050d18e      4eb900518a2a   jsr OUTCOM.set_video_crops
            0x0050d194      504f           addq.w 0x8, a7
            0x0050d196      1ebc0003       move.b 0x3, (a7)
            0x0050d19a      2f2effec       move.l -0x14(a6), -(a7)
            0x0050d19e      4eb90051872e   jsr OUTCOM.set_scroll
            0x0050d1a4      5c4f           addq.w 0x6, a7
            0x0050d1a6      4a47           tst.w d7
        < 0x0050d1a8      6720           beq.b 0x50d1ca
           0x0050d1aa      1f3c0003       move.b 0x3, -(a7)
           0x0050d1ae      48c7           ext.l d7
           0x0050d1b0      4f3c0000ffff   chk.l 0xffff, d7
           0x0050d1b6      3f07           move.w d7, -(a7)
           0x0050d1b8      2f3acb48       move.l 0x509d02(pc), -(a7)
           0x0050d1bc      2f3acb48       move.l 0x509d06(pc), -(a7)
           0x0050d1c0      4eb900518898   jsr OUTCOM.set_zoom
           0x0050d1c6      defc000c       adda.w 0xc, a7
        > 0x0050d1ca      206e0010       movea.l 0x10(a6), a0
            0x0050d1ce      b1e8fffc       cmpa.l -0x4(a0), a0
        < 0x0050d1d2      6702           beq.b 0x50d1d6
           0x0050d1d4      4e4d           trap 0xd
        > 0x0050d1d6      4227           clr.b -(a7)
            0x0050d1d8      1013           move.b (a3), d0
            0x0050d1da      4400           neg.b d0
            0x0050d1dc      5200           addq.b 0x1, d0
        < 0x0050d1de      6712           beq.b 0x50d1f2
           0x0050d1e0      4a2802da       tst.b 0x2da(a0)
       < 0x0050d1e4      660a           bne.b 0x50d1f0
          0x0050d1e6      102802d9       move.b 0x2d9(a0), d0
          0x0050d1ea      0c000001       cmpi.b 0x1, d0
      < 0x0050d1ee      6602           bne.b 0x50d1f2
      > 0x0050d1f0      5217           addq.b 0x1, (a7)
      > 0x0050d1f2      1f2e000a       move.b 0xa(a6), -(a7)
            0x0050d1f6      554f           subq.w 0x2, a7
            0x0050d1f8      4eb90066f8d8   jsr PASTECOM.fake_layer
            0x0050d1fe      102e000a       move.b 0xa(a6), d0
            0x0050d202      c017           and.b (a7), d0
            0x0050d204      1e80           move.b d0, (a7)
            0x0050d206      48c6           ext.l d6
            0x0050d208      2006           move.l d6, d0
            0x0050d20a      ed80           asl.l 0x6, d0
            0x0050d20c      0480ffff8000   subi.l 0xffff8000, d0
            0x0050d212      413c0000ffff   chk.l 0xffff, d0
            0x0050d218      0680ffff8000   addi.l 0xffff8000, d0
            0x0050d21e      3f00           move.w d0, -(a7)
            0x0050d220      4eb9004b22e2   jsr MENUPASTECOM.paste_set_out
            0x0050d226      504f           addq.w 0x8, a7
            0x0050d228      4eb900523cf0   jsr BRUSHCOM.close_block
            0x0050d22e      594f           subq.w 0x4, a7
            0x0050d230      4eb900402e30   jsr p_Cur_Ticks
            0x0050d236      23df0083e416   move.l (a7)+, 0x83e416
            0x0050d23c      13ee000e0083.  move.b 0xe(a6), 0x83d30d.l
            0x0050d244      4267           clr.w -(a7)
            0x0050d246      3f3c0001       move.w 0x1, -(a7)
            0x0050d24a      4eb900520f00   jsr BRUSHCOM.br_freeze
            0x0050d250      584f           addq.w 0x4, a7
            0x0050d252      f21fd080       fmovem (a7)+, fp0
            0x0050d256      4cdf1fff       movem.l (a7)+, d0-d7/a0-a4
            0x0050d25a      4e5e           unlk a6
            0x0050d25c      4e75           rts
            ; CALL XREF from MENU3DCOM.PAS.update_many_pre @ 0x50d912
 24: MENU3DCOM.PAS.update_many_ent ();
           0x0050d25e      4e56ff9c       link.w a6, 0xff9c
           0x0050d262      bfd5           cmpa.l (a5), a7
       < 0x0050d264      6206           bhi.b 0x50d26c
          0x0050d266      44fc0002       move.w 0x2, ccr
          0x0050d26a      4e76           trapv
       > 0x0050d26c      defc0052       adda.w 0x52, a7
           0x0050d270      48e7fff0       movem.l d0-d7/a0-a3, -(a7)
           0x0050d274      f227e001       fmovem fp0, -(a7)
            0x0050d278      43ec0038       lea.l 0x38(a4), a1
            0x0050d27c      45f90083d314   lea.l 0x83d314, a2
            0x0050d282      47f90083d230   lea.l 0x83d230, a3
            0x0050d288      283cffff8000   move.l 0xffff8000, d4
            0x0050d28e      2a3c0000ffff   move.l 0xffff, d5
            0x0050d294      2c3c00000100   move.l 0x100, d6
            0x0050d29a      7e40           moveq 0x40, d7
            0x0050d29c      13fc00070083.  move.b 0x7, 0x83d30c.l
            0x0050d2a4      4412           neg.b (a2)
            0x0050d2a6      5212           addq.b 0x1, (a2)
            0x0050d2a8      1012           move.b (a2), d0
            0x0050d2aa      4880           ext.w d0
            0x0050d2ac      41f90083d1ce   lea.l 0x83d1ce, a0
            0x0050d2b2      297007200158.  move.l 0x158(a0, d0.w * 8), 0x3a(a4)
            0x0050d2ba      2d7007200158.  move.l 0x158(a0, d0.w * 8), -0x12(a6)
            0x0050d2c2      2d700720015c.  move.l 0x15c(a0, d0.w * 8), -0xe(a6)
            0x0050d2ca      514f           subq.w 0x8, a7
            0x0050d2cc      1f3c0007       move.b 0x7, -(a7)
            0x0050d2d0      4eb9006336ea   jsr HANDCOM.get_area
            0x0050d2d6      544f           addq.w 0x2, a7
            0x0050d2d8      295f0028       move.l (a7)+, 0x28(a4)
            0x0050d2dc      295f002c       move.l (a7)+, 0x2c(a4)
            0x0050d2e0      296c00280020   move.l 0x28(a4), 0x20(a4)
            0x0050d2e6      296c002c0024   move.l 0x2c(a4), 0x24(a4)
            0x0050d2ec      486efffa       pea.l -0x6(a6)
            0x0050d2f0      486efffc       pea.l -0x4(a6)
            0x0050d2f4      4eb9005186e8   jsr OUTCOM.get_zoom_and_of
            0x0050d2fa      504f           addq.w 0x8, a7
            0x0050d2fc      302efffa       move.w -0x6(a6), d0
            0x0050d300      b046           cmp.w d6, d0
        < 0x0050d302      660000de       bne.w 0x50d3e2
           0x0050d306      4a2c0046       tst.b 0x46(a4)
       < 0x0050d30a      6704           beq.b 0x50d310
          0x0050d30c      3287           move.w d7, (a1)
      < 0x0050d30e      6004           bra.b 0x50d314
      > 0x0050d310      32bc0080       move.w 0x80, (a1)
      > 0x0050d314      f2115000       fmove.w (a1), fp0
           0x0050d318      f2064020       fdiv.l d6, fp0
           0x0050d31c      f22c64000012   fmove.s fp0, 0x12(a4)
           0x0050d322      322c0028       move.w 0x28(a4), d1
           0x0050d326      48c1           ext.l d1
           0x0050d328      e781           asl.l 0x3, d1
           0x0050d32a      2406           move.l d6, d2
           0x0050d32c      85d1           divs.w (a1), d2
           0x0050d32e      48c2           ext.l d2
           0x0050d330      9282           sub.l d2, d1
           0x0050d332      3611           move.w (a1), d3
           0x0050d334      c7d3           muls.w (a3), d3
           0x0050d336      4c473803       divs.l d7, d3
           0x0050d33a      d681           add.l d1, d3
           0x0050d33c      9684           sub.l d4, d3
           0x0050d33e      4705           chk.l d5, d3
           0x0050d340      d684           add.l d4, d3
           0x0050d342      39430016       move.w d3, 0x16(a4)
           0x0050d346      322c002a       move.w 0x2a(a4), d1
           0x0050d34a      48c1           ext.l d1
           0x0050d34c      e781           asl.l 0x3, d1
           0x0050d34e      4482           neg.l d2
           0x0050d350      d481           add.l d1, d2
           0x0050d352      3211           move.w (a1), d1
           0x0050d354      c3f90083d232   muls.w 0x83d232, d1
           0x0050d35a      4c471801       divs.l d7, d1
           0x0050d35e      d282           add.l d2, d1
           0x0050d360      9284           sub.l d4, d1
           0x0050d362      4305           chk.l d5, d1
           0x0050d364      d284           add.l d4, d1
           0x0050d366      39410018       move.w d1, 0x18(a4)
           0x0050d36a      554f           subq.w 0x2, a7
           0x0050d36c      4ebad1c2       jsr MENU3DCOM.PAS.get_front_back(pc)
           0x0050d370      121f           move.b (a7)+, d1
           0x0050d372      4881           ext.w d1
           0x0050d374      43bc0004       chk.w 0x4, d1
           0x0050d378      1941001a       move.b d1, 0x1a(a4)
           0x0050d37c      322c003a       move.w 0x3a(a4), d1
           0x0050d380      48c1           ext.l d1
           0x0050d382      5381           subq.l 0x1, d1
           0x0050d384      9284           sub.l d4, d1
           0x0050d386      4305           chk.l d5, d1
           0x0050d388      d284           add.l d4, d1
           0x0050d38a      3941003a       move.w d1, 0x3a(a4)
           0x0050d38e      322c0016       move.w 0x16(a4), d1
           0x0050d392      48c1           ext.l d1
           0x0050d394      5181           subq.l 0x8, d1
           0x0050d396      9284           sub.l d4, d1
           0x0050d398      4305           chk.l d5, d1
           0x0050d39a      d284           add.l d4, d1
           0x0050d39c      39410016       move.w d1, 0x16(a4)
           0x0050d3a0      3211           move.w (a1), d1
           0x0050d3a2      c3d3           muls.w (a3), d1
           0x0050d3a4      4c461801       divs.l d6, d1
           0x0050d3a8      5e81           addq.l 0x7, d1
           0x0050d3aa      02810000fff8   andi.l 0xfff8, d1
           0x0050d3b0      9284           sub.l d4, d1
           0x0050d3b2      4305           chk.l d5, d1
           0x0050d3b4      d284           add.l d4, d1
           0x0050d3b6      39410024       move.w d1, 0x24(a4)
           0x0050d3ba      3211           move.w (a1), d1
           0x0050d3bc      c3f90083d232   muls.w 0x83d232, d1
           0x0050d3c2      4c461801       divs.l d6, d1
           0x0050d3c6      5681           addq.l 0x3, d1
           0x0050d3c8      02810000fffc   andi.l 0xfffc, d1
           0x0050d3ce      9284           sub.l d4, d1
           0x0050d3d0      4305           chk.l d5, d1
           0x0050d3d2      d284           add.l d4, d1
           0x0050d3d4      39410026       move.w d1, 0x26(a4)
           0x0050d3d8      2d6c0024fff2   move.l 0x24(a4), -0xe(a6)
       < 0x0050d3de      600000ec       bra.w 0x50d4cc
       > 0x0050d3e2      4251           clr.w (a1)
           0x0050d3e4      297c3f800008.  move.l 0x3f800008, 0x12(a4)
           0x0050d3ec      322c0020       move.w 0x20(a4), d1
           0x0050d3f0      48c1           ext.l d1
           0x0050d3f2      2401           move.l d1, d2
           0x0050d3f4      e782           asl.l 0x3, d2
           0x0050d3f6      3613           move.w (a3), d3
           0x0050d3f8      48c3           ext.l d3
           0x0050d3fa      e583           asl.l 0x2, d3
           0x0050d3fc      d682           add.l d2, d3
           0x0050d3fe      9684           sub.l d4, d3
           0x0050d400      4705           chk.l d5, d3
           0x0050d402      d684           add.l d4, d3
           0x0050d404      39430016       move.w d3, 0x16(a4)
           0x0050d408      342c0022       move.w 0x22(a4), d2
           0x0050d40c      48c2           ext.l d2
           0x0050d40e      e782           asl.l 0x3, d2
           0x0050d410      36390083d232   move.w 0x83d232, d3
           0x0050d416      48c3           ext.l d3
           0x0050d418      e583           asl.l 0x2, d3
           0x0050d41a      d682           add.l d2, d3
           0x0050d41c      9684           sub.l d4, d3
           0x0050d41e      4705           chk.l d5, d3
           0x0050d420      d684           add.l d4, d3
           0x0050d422      39430018       move.w d3, 0x18(a4)
           0x0050d426      554f           subq.w 0x2, a7
           0x0050d428      4ebad106       jsr MENU3DCOM.PAS.get_front_back(pc)
           0x0050d42c      141f           move.b (a7)+, d2
           0x0050d42e      4882           ext.w d2
           0x0050d430      45bc0004       chk.w 0x4, d2
           0x0050d434      1942001a       move.b d2, 0x1a(a4)
           0x0050d438      342efffc       move.w -0x4(a6), d2
           0x0050d43c      48c2           ext.l d2
           0x0050d43e      85fc0008       divs.w 0x8, d2
           0x0050d442      48c2           ext.l d2
           0x0050d444      02820000fff8   andi.l 0xfff8, d2
           0x0050d44a      d481           add.l d1, d2
           0x0050d44c      9484           sub.l d4, d2
           0x0050d44e      4505           chk.l d5, d2
           0x0050d450      d484           add.l d4, d2
           0x0050d452      39420020       move.w d2, 0x20(a4)
           0x0050d456      322efffe       move.w -0x2(a6), d1
           0x0050d45a      48c1           ext.l d1
           0x0050d45c      83fc0008       divs.w 0x8, d1
           0x0050d460      48c1           ext.l d1
           0x0050d462      02810000fffc   andi.l 0xfffc, d1
           0x0050d468      342c0022       move.w 0x22(a4), d2
           0x0050d46c      48c2           ext.l d2
           0x0050d46e      d282           add.l d2, d1
           0x0050d470      9284           sub.l d4, d1
           0x0050d472      4305           chk.l d5, d1
           0x0050d474      d284           add.l d4, d1
           0x0050d476      39410022       move.w d1, 0x22(a4)
           0x0050d47a      3200           move.w d0, d1
           0x0050d47c      c2d3           mulu.w (a3), d1
           0x0050d47e      4c461001       divu.l d6, d1
           0x0050d482      06810000000f   addi.l 0xf, d1
           0x0050d488      02810000fff8   andi.l 0xfff8, d1
           0x0050d48e      9284           sub.l d4, d1
           0x0050d490      4305           chk.l d5, d1
           0x0050d492      d284           add.l d4, d1
           0x0050d494      39410024       move.w d1, 0x24(a4)
           0x0050d498      3200           move.w d0, d1
           0x0050d49a      c2f90083d232   mulu.w 0x83d232, d1
           0x0050d4a0      4c461001       divu.l d6, d1
           0x0050d4a4      5e81           addq.l 0x7, d1
           0x0050d4a6      02810000fffc   andi.l 0xfffc, d1
           0x0050d4ac      9284           sub.l d4, d1
           0x0050d4ae      4305           chk.l d5, d1
           0x0050d4b0      d284           add.l d4, d1
           0x0050d4b2      39410026       move.w d1, 0x26(a4)
           0x0050d4b6      486c0020       pea.l 0x20(a4)
           0x0050d4ba      2f2c002c       move.l 0x2c(a4), -(a7)
           0x0050d4be      2f2c0028       move.l 0x28(a4), -(a7)
           0x0050d4c2      4eb9006335e8   jsr HANDCOM.crop_to_area
           0x0050d4c8      defc000c       adda.w 0xc, a7
       > 0x0050d4cc      594f           subq.w 0x4, a7
           0x0050d4ce      4eb900402e30   jsr p_Cur_Ticks
           0x0050d4d4      201f           move.l (a7)+, d0
           0x0050d4d6      b0b90083e416   cmp.l 0x83e416, d0
       < 0x0050d4dc      660e           bne.b 0x50d4ec
          0x0050d4de      48780001       pea.l 0x1
          0x0050d4e2      4eb900402e42   jsr p_Delay
          0x0050d4e8      584f           addq.w 0x4, a7
       < 0x0050d4ea      60e0           bra.b 0x50d4cc
       > 0x0050d4ec      1f3c0003       move.b 0x3, -(a7)
            0x0050d4f0      1012           move.b (a2), d0
            0x0050d4f2      4880           ext.w d0
            0x0050d4f4      41f90083d1ce   lea.l 0x83d1ce, a0
            0x0050d4fa      2f300720015c   move.l 0x15c(a0, d0.w * 8), -(a7)
            0x0050d500      2f3007200158   move.l 0x158(a0, d0.w * 8), -(a7)
            0x0050d506      4eb9005223fc   jsr BRUSHCOM.str_write_area
            0x0050d50c      504f           addq.w 0x8, a7
            0x0050d50e      4257           clr.w (a7)
            0x0050d510      2f3ac4f6       move.l 0x509a08(pc), -(a7)
            0x0050d514      3f3ac4f0       move.w 0x509a06(pc), -(a7)
            0x0050d518      1f3c0003       move.b 0x3, -(a7)
            0x0050d51c      2f2efff2       move.l -0xe(a6), -(a7)
            0x0050d520      2f2effee       move.l -0x12(a6), -(a7)
            0x0050d524      4eb9005215a8   jsr BRUSHCOM.br_wipe_colour
            0x0050d52a      defc0012       adda.w 0x12, a7
            0x0050d52e      f21fd080       fmovem (a7)+, fp0
            0x0050d532      4cdf0fff       movem.l (a7)+, d0-d7/a0-a3
            0x0050d536      4e5e           unlk a6
            0x0050d538      4e75           rts
            ; CALL XREFS from MENU3DCOM.PAS.update_many_pre @ 0x50d956, 0x50d9aa
 318: MENU3DCOM.PAS.update_many ();
           0x0050d53a      4e56ffa4       link.w a6, 0xffa4
           0x0050d53e      bfd5           cmpa.l (a5), a7
       < 0x0050d540      6206           bhi.b 0x50d548
          0x0050d542      44fc0002       move.w 0x2, ccr
          0x0050d546      4e76           trapv
       > 0x0050d548      defc004e       adda.w 0x4e, a7
           0x0050d54c      48e7fff0       movem.l d0-d7/a0-a3, -(a7)
           0x0050d550      45eefff2       lea.l -0xe(a6), a2
           0x0050d554      47eefff6       lea.l -0xa(a6), a3
           0x0050d558      7603           moveq 0x3, d3
           0x0050d55a      7801           moveq 0x1, d4
           0x0050d55c      2a3cffff8000   move.l 0xffff8000, d5
           0x0050d562      7c04           moveq 0x4, d6
           0x0050d564      206e0008       movea.l 0x8(a6), a0
           0x0050d568      b1e8fffc       cmpa.l -0x4(a0), a0
       < 0x0050d56c      6702           beq.b 0x50d570
          0x0050d56e      4e4d           trap 0xd
       > 0x0050d570      2f2e0008       move.l 0x8(a6), -(a7)
           0x0050d574      4227           clr.b -(a7)
           0x0050d576      4eb9006734fe   jsr PASTECOM.load_unsized_cu
           0x0050d57c      5c4f           addq.w 0x6, a7
           0x0050d57e      24ac0020       move.l 0x20(a4), (a2)
           0x0050d582      26ac0024       move.l 0x24(a4), (a3)
           0x0050d586      1f03           move.b d3, -(a7)
           0x0050d588      2f13           move.l (a3), -(a7)
           0x0050d58a      2f12           move.l (a2), -(a7)
           0x0050d58c      4eb9005223fc   jsr BRUSHCOM.str_write_area
           0x0050d592      504f           addq.w 0x8, a7
           0x0050d594      1e84           move.b d4, (a7)
           0x0050d596      4227           clr.b -(a7)
           0x0050d598      3f3cfffe       move.w 0xfffe, -(a7)
           0x0050d59c      2f2e0008       move.l 0x8(a6), -(a7)
           0x0050d5a0      486c0012       pea.l 0x12(a4)
           0x0050d5a4      1f03           move.b d3, -(a7)
           0x0050d5a6      1f06           move.b d6, -(a7)
           0x0050d5a8      4852           pea.l (a2)
           0x0050d5aa      4eb900528fc8   jsr BRUSH2COM.br_size_3d
           0x0050d5b0      defc0016       adda.w 0x16, a7
           0x0050d5b4      4a28061e       tst.b 0x61e(a0)
       < 0x0050d5b8      67000156       beq.w 0x50d710
          0x0050d5bc      4a390083d1ce   tst.b 0x83d1ce
      < 0x0050d5c2      6630           bne.b 0x50d5f4
         0x0050d5c4      4a2802da       tst.b 0x2da(a0)
     < 0x0050d5c8      6608           bne.b 0x50d5d2
        0x0050d5ca      102802d9       move.b 0x2d9(a0), d0
        0x0050d5ce      b004           cmp.b d4, d0
    < 0x0050d5d0      6622           bne.b 0x50d5f4
    > 0x0050d5d2      2f2802de       move.l 0x2de(a0), -(a7)
        0x0050d5d6      3f2802dc       move.w 0x2dc(a0), -(a7)
        0x0050d5da      4eb900520fa4   jsr BRUSHCOM.set_br_colour
        0x0050d5e0      584f           addq.w 0x4, a7
        0x0050d5e2      1e83           move.b d3, (a7)
        0x0050d5e4      4227           clr.b -(a7)
        0x0050d5e6      2f13           move.l (a3), -(a7)
        0x0050d5e8      2f12           move.l (a2), -(a7)
        0x0050d5ea      4eb9005213b4   jsr BRUSHCOM.br_wipe
        0x0050d5f0      defc000c       adda.w 0xc, a7
    > 0x0050d5f4      302802e8       move.w 0x2e8(a0), d0
          0x0050d5f8      48c0           ext.l d0
          0x0050d5fa      81fc0040       divs.w 0x40, d0
          0x0050d5fe      4440           neg.w d0
          0x0050d600      064000ff       addi.w 0xff, d0
          0x0050d604      3e00           move.w d0, d7
      < 0x0050d606      6f28           ble.b 0x50d630
         0x0050d608      4fbc00ff       chk.w 0xff, d7
         0x0050d60c      3f07           move.w d7, -(a7)
         0x0050d60e      2f3ac3da       move.l 0x5099ea(pc), -(a7)
         0x0050d612      3f3ac3d4       move.w 0x5099e8(pc), -(a7)
         0x0050d616      4eb900520fe8   jsr BRUSHCOM.set_br_key_colo
         0x0050d61c      5c4f           addq.w 0x6, a7
         0x0050d61e      1e83           move.b d3, (a7)
         0x0050d620      1f04           move.b d4, -(a7)
         0x0050d622      2f13           move.l (a3), -(a7)
         0x0050d624      2f12           move.l (a2), -(a7)
         0x0050d626      4eb900521702   jsr BRUSHCOM.br_pst_wipe
         0x0050d62c      defc000c       adda.w 0xc, a7
      > 0x0050d630      29530034       move.l (a3), 0x34(a4)
          0x0050d634      1f03           move.b d3, -(a7)
          0x0050d636      4227           clr.b -(a7)
          0x0050d638      1f06           move.b d6, -(a7)
          0x0050d63a      2f12           move.l (a2), -(a7)
          0x0050d63c      2f2c0034       move.l 0x34(a4), -(a7)
          0x0050d640      2f2c0030       move.l 0x30(a4), -(a7)
          0x0050d644      4eb900522722   jsr BRUSHCOM.str_any_str_cop
          0x0050d64a      defc0012       adda.w 0x12, a7
          0x0050d64e      3012           move.w (a2), d0
          0x0050d650      48c0           ext.l d0
          0x0050d652      322c0028       move.w 0x28(a4), d1
          0x0050d656      48c1           ext.l d1
          0x0050d658      4481           neg.l d1
          0x0050d65a      d280           add.l d0, d1
          0x0050d65c      10390083d314   move.b 0x83d314, d0
          0x0050d662      4880           ext.w d0
          0x0050d664      43f90083d1ce   lea.l 0x83d1ce, a1
          0x0050d66a      343107200158   move.w 0x158(a1, d0.w * 8), d2
          0x0050d670      48c2           ext.l d2
          0x0050d672      d282           add.l d2, d1
          0x0050d674      9285           sub.l d5, d1
          0x0050d676      433c0000ffff   chk.l 0xffff, d1
           0x0050d67c      d285           add.l d5, d1
           0x0050d67e      3d41fffa       move.w d1, -0x6(a6)
           0x0050d682      322efff4       move.w -0xc(a6), d1
           0x0050d686      48c1           ext.l d1
           0x0050d688      342c002a       move.w 0x2a(a4), d2
           0x0050d68c      48c2           ext.l d2
           0x0050d68e      4482           neg.l d2
           0x0050d690      d481           add.l d1, d2
           0x0050d692      32310720015a   move.w 0x15a(a1, d0.w * 8), d1
           0x0050d698      48c1           ext.l d1
           0x0050d69a      d481           add.l d1, d2
           0x0050d69c      9485           sub.l d5, d2
           0x0050d69e      453c0000ffff   chk.l 0xffff, d2
           0x0050d6a4      d485           add.l d5, d2
           0x0050d6a6      3d42fffc       move.w d2, -0x4(a6)
           0x0050d6aa      1f03           move.b d3, -(a7)
           0x0050d6ac      2f310720015c   move.l 0x15c(a1, d0.w * 8), -(a7)
           0x0050d6b2      2f3107200158   move.l 0x158(a1, d0.w * 8), -(a7)
           0x0050d6b8      4eb9005223fc   jsr BRUSHCOM.str_write_area
           0x0050d6be      504f           addq.w 0x8, a7
           0x0050d6c0      1e83           move.b d3, (a7)
           0x0050d6c2      4227           clr.b -(a7)
           0x0050d6c4      1f04           move.b d4, -(a7)
           0x0050d6c6      4227           clr.b -(a7)
           0x0050d6c8      4227           clr.b -(a7)
           0x0050d6ca      2f2c0034       move.l 0x34(a4), -(a7)
           0x0050d6ce      2f2c0030       move.l 0x30(a4), -(a7)
           0x0050d6d2      2f2efffa       move.l -0x6(a6), -(a7)
           0x0050d6d6      4eb900522da0   jsr BRUSHCOM.br_any_stamp
           0x0050d6dc      defc0012       adda.w 0x12, a7
           0x0050d6e0      2ebac30e       move.l 0x5099f0(pc), (a7)
           0x0050d6e4      3f3ac308       move.w 0x5099ee(pc), -(a7)
           0x0050d6e8      4eb900520fa4   jsr BRUSHCOM.set_br_colour
           0x0050d6ee      584f           addq.w 0x4, a7
           0x0050d6f0      1e83           move.b d3, (a7)
           0x0050d6f2      1f04           move.b d4, -(a7)
           0x0050d6f4      4227           clr.b -(a7)
           0x0050d6f6      4227           clr.b -(a7)
           0x0050d6f8      4227           clr.b -(a7)
           0x0050d6fa      2f2c0034       move.l 0x34(a4), -(a7)
           0x0050d6fe      2f2c0030       move.l 0x30(a4), -(a7)
           0x0050d702      2f2efffa       move.l -0x6(a6), -(a7)
           0x0050d706      4eb900522da0   jsr BRUSHCOM.br_any_stamp
           0x0050d70c      defc0016       adda.w 0x16, a7
        > 0x0050d710      4cdf0fff       movem.l (a7)+, d0-d7/a0-a3
            0x0050d714      4e5e           unlk a6
            0x0050d716      4e75           rts
            ; CALL XREF from MENU3DCOM.PAS.update_many_pre @ 0x50d9c2
 270: MENU3DCOM.PAS.update_many_don ();
           0x0050d718      4e56ffd2       link.w a6, 0xffd2
           0x0050d71c      bfd5           cmpa.l (a5), a7
       < 0x0050d71e      6206           bhi.b 0x50d726
          0x0050d720      44fc0002       move.w 0x2, ccr
          0x0050d724      4e76           trapv
       > 0x0050d726      defc002e       adda.w 0x2e, a7
           0x0050d72a      48e7f0e0       movem.l d0-d3/a0-a2, -(a7)
           0x0050d72e      43f90083d1ce   lea.l 0x83d1ce, a1
           0x0050d734      45f90083e416   lea.l 0x83e416, a2
           0x0050d73a      7203           moveq 0x3, d1
           0x0050d73c      7402           moveq 0x2, d2
           0x0050d73e      7601           moveq 0x1, d3
           0x0050d740      554f           subq.w 0x2, a7
           0x0050d742      1f02           move.b d2, -(a7)
           0x0050d744      4267           clr.w -(a7)
           0x0050d746      4227           clr.b -(a7)
           0x0050d748      4227           clr.b -(a7)
           0x0050d74a      554f           subq.w 0x2, a7
           0x0050d74c      3f3c002c       move.w 0x2c, -(a7)
           0x0050d750      4eb900480fc2   jsr MENUCOM.get_boxon
           0x0050d756      544f           addq.w 0x2, a7
           0x0050d758      4a1f           tst.b (a7)+
       < 0x0050d75a      6612           bne.b 0x50d76e
          0x0050d75c      554f           subq.w 0x2, a7
          0x0050d75e      3f3c001f       move.w 0x1f, -(a7)
          0x0050d762      4eb900480fc2   jsr MENUCOM.get_boxon
          0x0050d768      544f           addq.w 0x2, a7
          0x0050d76a      4a1f           tst.b (a7)+
      < 0x0050d76c      6702           beq.b 0x50d770
      > 0x0050d76e      5217           addq.b 0x1, (a7)
      > 0x0050d770      1017           move.b (a7), d0
           0x0050d772      4880           ext.w d0
           0x0050d774      4183           chk.w d3, d0
           0x0050d776      1e80           move.b d0, (a7)
           0x0050d778      4eb900717be4   jsr MENUJOCKCOM.do_jock_bgnd
           0x0050d77e      504f           addq.w 0x8, a7
           0x0050d780      4a1f           tst.b (a7)+
           0x0050d782      4a11           tst.b (a1)
       < 0x0050d784      6712           beq.b 0x50d798
          0x0050d786      594f           subq.w 0x4, a7
          0x0050d788      1f03           move.b d3, -(a7)
          0x0050d78a      4eb900707edc   jsr GORDON_DUMMY.clip_queue
          0x0050d790      544f           addq.w 0x2, a7
          0x0050d792      4a9f           tst.l (a7)+
      < 0x0050d794      6620           bne.b 0x50d7b6
     < 0x0050d796      601e           bra.b 0x50d7b6
    > 0x0050d798      594f           subq.w 0x4, a7
        0x0050d79a      4eb900402e30   jsr p_Cur_Ticks
        0x0050d7a0      201f           move.l (a7)+, d0
        0x0050d7a2      9092           sub.l (a2), d0
        0x0050d7a4      b081           cmp.l d1, d0
    < 0x0050d7a6      640e           bcc.b 0x50d7b6
       0x0050d7a8      48780001       pea.l 0x1
       0x0050d7ac      4eb900402e42   jsr p_Delay
       0x0050d7b2      584f           addq.w 0x4, a7
    < 0x0050d7b4      60e2           bra.b 0x50d798
     > 0x0050d7b6      4eb900523cda   jsr BRUSHCOM.open_block
           0x0050d7bc      1f02           move.b d2, -(a7)
           0x0050d7be      514f           subq.w 0x8, a7
           0x0050d7c0      4227           clr.b -(a7)
           0x0050d7c2      4eb9006336ea   jsr HANDCOM.get_area
           0x0050d7c8      544f           addq.w 0x2, a7
           0x0050d7ca      4eb900518a2a   jsr OUTCOM.set_video_crops
           0x0050d7d0      504f           addq.w 0x8, a7
           0x0050d7d2      1e82           move.b d2, (a7)
           0x0050d7d4      594f           subq.w 0x4, a7
           0x0050d7d6      4227           clr.b -(a7)
           0x0050d7d8      4eb9006338f6   jsr HANDCOM.get_point
           0x0050d7de      544f           addq.w 0x2, a7
           0x0050d7e0      4eb90051872e   jsr OUTCOM.set_scroll
           0x0050d7e6      584f           addq.w 0x4, a7
           0x0050d7e8      1e81           move.b d1, (a7)
           0x0050d7ea      10390083d314   move.b 0x83d314, d0
           0x0050d7f0      4880           ext.w d0
           0x0050d7f2      2049           movea.l a1, a0
           0x0050d7f4      2f300720015c   move.l 0x15c(a0, d0.w * 8), -(a7)
           0x0050d7fa      2f3007200158   move.l 0x158(a0, d0.w * 8), -(a7)
           0x0050d800      4eb900518a2a   jsr OUTCOM.set_video_crops
           0x0050d806      504f           addq.w 0x8, a7
           0x0050d808      1e81           move.b d1, (a7)
           0x0050d80a      2f2c003a       move.l 0x3a(a4), -(a7)
           0x0050d80e      4eb90051872e   jsr OUTCOM.set_scroll
           0x0050d814      5c4f           addq.w 0x6, a7
           0x0050d816      4a6c0038       tst.w 0x38(a4)
       < 0x0050d81a      6722           beq.b 0x50d83e
          0x0050d81c      1f01           move.b d1, -(a7)
          0x0050d81e      302c0038       move.w 0x38(a4), d0
          0x0050d822      48c0           ext.l d0
          0x0050d824      413c0000ffff   chk.l 0xffff, d0
           0x0050d82a      3f00           move.w d0, -(a7)
           0x0050d82c      2f3ac4dc       move.l 0x509d0a(pc), -(a7)
           0x0050d830      2f3ac4dc       move.l 0x509d0e(pc), -(a7)
           0x0050d834      4eb900518898   jsr OUTCOM.set_zoom
           0x0050d83a      defc000c       adda.w 0xc, a7
        > 0x0050d83e      4227           clr.b -(a7)
            0x0050d840      4227           clr.b -(a7)
            0x0050d842      4227           clr.b -(a7)
            0x0050d844      3f3c4000       move.w 0x4000, -(a7)
            0x0050d848      4eb9004b22e2   jsr MENUPASTECOM.paste_set_out
            0x0050d84e      504f           addq.w 0x8, a7
            0x0050d850      4eb900523cf0   jsr BRUSHCOM.close_block
            0x0050d856      594f           subq.w 0x4, a7
            0x0050d858      4eb900402e30   jsr p_Cur_Ticks
            0x0050d85e      249f           move.l (a7)+, (a2)
            0x0050d860      4267           clr.w -(a7)
            0x0050d862      3f03           move.w d3, -(a7)
            0x0050d864      4eb900520f00   jsr BRUSHCOM.br_freeze
            0x0050d86a      584f           addq.w 0x4, a7
            0x0050d86c      4cdf070f       movem.l (a7)+, d0-d3/a0-a2
            0x0050d870      4e5e           unlk a6
            0x0050d872      4e75           rts
            ; CALL XREF from MENUKEYFRMCOM @ +0x4fe4
 358: MENU3DCOM.PAS.update_many_pre ();
           0x0050d874      4e56ff8e       link.w a6, 0xff8e
           0x0050d878      bfd5           cmpa.l (a5), a7
       < 0x0050d87a      6206           bhi.b 0x50d882
          0x0050d87c      44fc0002       move.w 0x2, ccr
          0x0050d880      4e76           trapv
       > 0x0050d882      defc0034       adda.w 0x34, a7
           0x0050d886      48e7c0f8       movem.l d0-d1/a0-a4, -(a7)
           0x0050d88a      45eeffd0       lea.l -0x30(a6), a2
           0x0050d88e      47eeffc2       lea.l -0x3e(a6), a3
           0x0050d892      7201           moveq 0x1, d1
           0x0050d894      10390083d1ce   move.b 0x83d1ce, d0
           0x0050d89a      4400           neg.b d0
           0x0050d89c      5200           addq.b 0x1, d0
           0x0050d89e      c12e0008       and.b d0, 0x8(a6)
           0x0050d8a2      594f           subq.w 0x4, a7
           0x0050d8a4      3f3c0080       move.w 0x80, -(a7)
           0x0050d8a8      4eb900480fc2   jsr MENUCOM.get_boxon
           0x0050d8ae      544f           addq.w 0x2, a7
           0x0050d8b0      1017           move.b (a7), d0
           0x0050d8b2      4880           ext.w d0
           0x0050d8b4      4181           chk.w d1, d0
           0x0050d8b6      1e80           move.b d0, (a7)
           0x0050d8b8      486effc4       pea.l -0x3c(a6)
           0x0050d8bc      486effc8       pea.l -0x38(a6)
           0x0050d8c0      4852           pea.l (a2)
           0x0050d8c2      486effcc       pea.l -0x34(a6)
           0x0050d8c6      4eb900670bb4   jsr PASTECOM.get_layer_info
           0x0050d8cc      defc0012       adda.w 0x12, a7
           0x0050d8d0      369f           move.w (a7)+, (a3)
           0x0050d8d2      48780001       pea.l 0x1
           0x0050d8d6      2d5fffde       move.l (a7)+, -0x22(a6)
           0x0050d8da      2d790083d22c.  move.l 0x83d22c, -0xe(a6)
           0x0050d8e2      2d790083d230.  move.l 0x83d230, -0xa(a6)
           0x0050d8ea      554f           subq.w 0x2, a7
           0x0050d8ec      1f01           move.b d1, -(a7)
           0x0050d8ee      486effde       pea.l -0x22(a6)
           0x0050d8f2      486efff2       pea.l -0xe(a6)
           0x0050d8f6      4eb900632858   jsr CACHECOM.new_cache_rec
           0x0050d8fc      defc000a       adda.w 0xa, a7
           0x0050d900      1017           move.b (a7), d0
           0x0050d902      4880           ext.w d0
           0x0050d904      4181           chk.w d1, d0
           0x0050d906      1e80           move.b d0, (a7)
           0x0050d908      4eb90040452a   jsr p_Assert
           0x0050d90e      544f           addq.w 0x2, a7
           0x0050d910      284b           movea.l a3, a4
           0x0050d912      4ebaf94a       jsr MENU3DCOM.PAS.update_many_ent(pc)
           0x0050d916      24aeffc8       move.l -0x38(a6), (a2)
       > 0x0050d91a      2052           movea.l (a2), a0
          0x0050d91c      b0c1           cmpa.w d1, a0
      < 0x0050d91e      674c           beq.b 0x50d96c
         0x0050d920      b1e8fffc       cmpa.l -0x4(a0), a0
     < 0x0050d924      6702           beq.b 0x50d928
        0x0050d926      4e4d           trap 0xd
     > 0x0050d928      102effdc       move.b -0x24(a6), d0
         0x0050d92c      4880           ext.w d0
         0x0050d92e      013ac3e2       btst.l d0, 0x509d12(pc)
     < 0x0050d932      661e           bne.b 0x50d952
        0x0050d934      4a68034c       tst.w 0x34c(a0)
    < 0x0050d938      6618           bne.b 0x50d952
       0x0050d93a      013ac3d8       btst.l d0, 0x509d14(pc)
   < 0x0050d93e      6706           beq.b 0x50d946
      0x0050d940      4a2802d8       tst.b 0x2d8(a0)
  < 0x0050d944      670c           beq.b 0x50d952
  > 0x0050d946      013ac3ce       btst.l d0, 0x509d16(pc)
  < 0x0050d94a      6710           beq.b 0x50d95c
     0x0050d94c      4a2802d8       tst.b 0x2d8(a0)
 < 0x0050d950      670a           beq.b 0x50d95c
 > 0x0050d952      2f08           move.l a0, -(a7)
       0x0050d954      284b           movea.l a3, a4
       0x0050d956      4ebafbe2       jsr MENU3DCOM.PAS.update_many(pc)
       0x0050d95a      584f           addq.w 0x4, a7
 > 0x0050d95c      2252           movea.l (a2), a1
         0x0050d95e      b3e9fffc       cmpa.l -0x4(a1), a1
     < 0x0050d962      6702           beq.b 0x50d966
        0x0050d964      4e4d           trap 0xd
     > 0x0050d966      24a90002       move.l 0x2(a1), (a2)
      < 0x0050d96a      60ae           bra.b 0x50d91a
      > 0x0050d96c      102effdc       move.b -0x24(a6), d0
           0x0050d970      4880           ext.w d0
           0x0050d972      013ac3a4       btst.l d0, 0x509d18(pc)
       < 0x0050d976      6748           beq.b 0x50d9c0
          0x0050d978      24aeffc8       move.l -0x38(a6), (a2)
      > 0x0050d97c      2052           movea.l (a2), a0
         0x0050d97e      b0c1           cmpa.w d1, a0
     < 0x0050d980      673e           beq.b 0x50d9c0
        0x0050d982      b1e8fffc       cmpa.l -0x4(a0), a0
    < 0x0050d986      6702           beq.b 0x50d98a
       0x0050d988      4e4d           trap 0xd
    > 0x0050d98a      102effdc       move.b -0x24(a6), d0
        0x0050d98e      0c000003       cmpi.b 0x3, d0
    < 0x0050d992      6606           bne.b 0x50d99a
       0x0050d994      4a2802d8       tst.b 0x2d8(a0)
   < 0x0050d998      660c           bne.b 0x50d9a6
   > 0x0050d99a      0c000004       cmpi.b 0x4, d0
   < 0x0050d99e      6610           bne.b 0x50d9b0
      0x0050d9a0      4a2802d8       tst.b 0x2d8(a0)
  < 0x0050d9a4      660a           bne.b 0x50d9b0
  > 0x0050d9a6      2f08           move.l a0, -(a7)
      0x0050d9a8      284b           movea.l a3, a4
      0x0050d9aa      4ebafb8e       jsr MENU3DCOM.PAS.update_many(pc)
      0x0050d9ae      584f           addq.w 0x4, a7
  > 0x0050d9b0      2252           movea.l (a2), a1
        0x0050d9b2      b3e9fffc       cmpa.l -0x4(a1), a1
    < 0x0050d9b6      6702           beq.b 0x50d9ba
       0x0050d9b8      4e4d           trap 0xd
    > 0x0050d9ba      24a90002       move.l 0x2(a1), (a2)
     < 0x0050d9be      60bc           bra.b 0x50d97c
     > 0x0050d9c0      284b           movea.l a3, a4
           0x0050d9c2      4ebafd54       jsr MENU3DCOM.PAS.update_many_don(pc)
           0x0050d9c6      486effde       pea.l -0x22(a6)
           0x0050d9ca      4eb900632826   jsr CACHECOM.remove_cache_re
           0x0050d9d0      584f           addq.w 0x4, a7
           0x0050d9d2      4cdf1f03       movem.l (a7)+, d0-d1/a0-a4
           0x0050d9d6      4e5e           unlk a6
           0x0050d9d8      4e75           rts
            ; CALL XREFS from MENU3DCOM.PAS.update_final @ 0x50db64, 0x50db90, 0x50dbb6
 188: MENU3DCOM.PAS.show_final_cuto ();
           0x0050d9da      4e56ffdc       link.w a6, 0xffdc
           0x0050d9de      bfd5           cmpa.l (a5), a7
       < 0x0050d9e0      6206           bhi.b 0x50d9e8
          0x0050d9e2      44fc0002       move.w 0x2, ccr
          0x0050d9e6      4e76           trapv
       > 0x0050d9e8      defc0024       adda.w 0x24, a7
           0x0050d9ec      48e7f080       movem.l d0-d3/a0, -(a7)
           0x0050d9f0      7203           moveq 0x3, d1
           0x0050d9f2      7404           moveq 0x4, d2
           0x0050d9f4      7601           moveq 0x1, d3
           0x0050d9f6      4eb900523cda   jsr BRUSHCOM.open_block
           0x0050d9fc      1f01           move.b d1, -(a7)
           0x0050d9fe      514f           subq.w 0x8, a7
           0x0050da00      1f02           move.b d2, -(a7)
           0x0050da02      4eb9006336ea   jsr HANDCOM.get_area
           0x0050da08      544f           addq.w 0x2, a7
           0x0050da0a      4eb900518a2a   jsr OUTCOM.set_video_crops
           0x0050da10      504f           addq.w 0x8, a7
           0x0050da12      1e81           move.b d1, (a7)
           0x0050da14      594f           subq.w 0x4, a7
           0x0050da16      1f02           move.b d2, -(a7)
           0x0050da18      4eb9006338f6   jsr HANDCOM.get_point
           0x0050da1e      544f           addq.w 0x2, a7
           0x0050da20      4eb90051872e   jsr OUTCOM.set_scroll
           0x0050da26      584f           addq.w 0x4, a7
           0x0050da28      1e81           move.b d1, (a7)
           0x0050da2a      3f3c0100       move.w 0x100, -(a7)
           0x0050da2e      2f3ac2ea       move.l 0x509d1a(pc), -(a7)
           0x0050da32      2f3ac2ea       move.l 0x509d1e(pc), -(a7)
           0x0050da36      4eb900518898   jsr OUTCOM.set_zoom
           0x0050da3c      defc000c       adda.w 0xc, a7
           0x0050da40      206c000a       movea.l 0xa(a4), a0
           0x0050da44      b1e8fffc       cmpa.l -0x4(a0), a0
       < 0x0050da48      6702           beq.b 0x50da4c
          0x0050da4a      4e4d           trap 0xd
       > 0x0050da4c      4227           clr.b -(a7)
           0x0050da4e      10390083d1ce   move.b 0x83d1ce, d0
           0x0050da54      4400           neg.b d0
           0x0050da56      5200           addq.b 0x1, d0
       < 0x0050da58      6710           beq.b 0x50da6a
          0x0050da5a      4a2802da       tst.b 0x2da(a0)
      < 0x0050da5e      6608           bne.b 0x50da68
         0x0050da60      102802d9       move.b 0x2d9(a0), d0
         0x0050da64      b003           cmp.b d3, d0
     < 0x0050da66      6602           bne.b 0x50da6a
     > 0x0050da68      5217           addq.b 0x1, (a7)
     > 0x0050da6a      4227           clr.b -(a7)
           0x0050da6c      554f           subq.w 0x2, a7
           0x0050da6e      4eb90066f8d8   jsr PASTECOM.fake_layer
           0x0050da74      1017           move.b (a7), d0
           0x0050da76      4880           ext.w d0
           0x0050da78      4183           chk.w d3, d0
           0x0050da7a      1e80           move.b d0, (a7)
           0x0050da7c      3f2802e8       move.w 0x2e8(a0), -(a7)
           0x0050da80      4eb9004b22e2   jsr MENUPASTECOM.paste_set_out
           0x0050da86      504f           addq.w 0x8, a7
           0x0050da88      4eb900523cf0   jsr BRUSHCOM.close_block
           0x0050da8e      4cdf010f       movem.l (a7)+, d0-d3/a0
           0x0050da92      4e5e           unlk a6
           0x0050da94      4e75           rts
            ; CALL XREF from MENU3DCOM.PAS.before_sell @ 0x51280a
 300: MENU3DCOM.PAS.update_final ();
           0x0050da96      4e56ffba       link.w a6, 0xffba
           0x0050da9a      bfd5           cmpa.l (a5), a7
       < 0x0050da9c      6206           bhi.b 0x50daa4
          0x0050da9e      44fc0002       move.w 0x2, ccr
          0x0050daa2      4e76           trapv
       > 0x0050daa4      defc0044       adda.w 0x44, a7
           0x0050daa8      48e7f9f8       movem.l d0-d4/d7/a0-a4, -(a7)
           0x0050daac      43ee0008       lea.l 0x8(a6), a1
           0x0050dab0      45f9006336ea   lea.l HANDCOM.get_area, a2
           0x0050dab6      47eefffe       lea.l -0x2(a6), a3
           0x0050daba      7204           moveq 0x4, d1
           0x0050dabc      7401           moveq 0x1, d2
           0x0050dabe      7603           moveq 0x3, d3
           0x0050dac0      7802           moveq 0x2, d4
           0x0050dac2      554f           subq.w 0x2, a7
           0x0050dac4      2f11           move.l (a1), -(a7)
           0x0050dac6      4eb900673edc   jsr PASTECOM.cached_sized_cu
           0x0050dacc      584f           addq.w 0x4, a7
           0x0050dace      4a1f           tst.b (a7)+
       < 0x0050dad0      6708           beq.b 0x50dada
          0x0050dad2      2f11           move.l (a1), -(a7)
          0x0050dad4      1f02           move.b d2, -(a7)
      < 0x0050dad6      600000ca       bra.w 0x50dba2
      > 0x0050dada      1f03           move.b d3, -(a7)
          0x0050dadc      514f           subq.w 0x8, a7
          0x0050dade      1f01           move.b d1, -(a7)
          0x0050dae0      4e92           jsr (a2)                    ; fcn.00000009+0x2
          0x0050dae2      544f           addq.w 0x2, a7
          0x0050dae4      4eb9005223fc   jsr BRUSHCOM.str_write_area
          0x0050daea      504f           addq.w 0x8, a7
          0x0050daec      4257           clr.w (a7)
          0x0050daee      2f3abf18       move.l 0x509a08(pc), -(a7)
          0x0050daf2      3f3abf12       move.w 0x509a06(pc), -(a7)
          0x0050daf6      1f03           move.b d3, -(a7)
          0x0050daf8      514f           subq.w 0x8, a7
          0x0050dafa      1f01           move.b d1, -(a7)
          0x0050dafc      4e92           jsr (a2)                    ; fcn.00000009+0x2
          0x0050dafe      544f           addq.w 0x2, a7
          0x0050db00      4eb9005215a8   jsr BRUSHCOM.br_wipe_colour
          0x0050db06      defc0012       adda.w 0x12, a7
          0x0050db0a      2051           movea.l (a1), a0
          0x0050db0c      b1e8fffc       cmpa.l -0x4(a0), a0
      < 0x0050db10      6702           beq.b 0x50db14
         0x0050db12      4e4d           trap 0xd
      > 0x0050db14      21790083d234.  move.l 0x83d234, 0xa8(a0)
          0x0050db1c      2f11           move.l (a1), -(a7)
          0x0050db1e      514f           subq.w 0x8, a7
          0x0050db20      1f01           move.b d1, -(a7)
          0x0050db22      4e92           jsr (a2)                    ; fcn.00000009+0x2
          0x0050db24      1e83           move.b d3, (a7)
          0x0050db26      1f02           move.b d2, -(a7)
          0x0050db28      4eb90067379c   jsr PASTECOM.load_cutout
          0x0050db2e      defc0010       adda.w 0x10, a7
          0x0050db32      4a68034c       tst.w 0x34c(a0)
      < 0x0050db36      6624           bne.b 0x50db5c
         0x0050db38      4a2802d8       tst.b 0x2d8(a0)
     < 0x0050db3c      670c           beq.b 0x50db4a
        0x0050db3e      554f           subq.w 0x2, a7
        0x0050db40      4ebac9ee       jsr MENU3DCOM.PAS.get_front_back(pc)
        0x0050db44      101f           move.b (a7)+, d0
        0x0050db46      b004           cmp.b d4, d0
    < 0x0050db48      6754           beq.b 0x50db9e
    > 0x0050db4a      4a2802d8       tst.b 0x2d8(a0)
    < 0x0050db4e      660c           bne.b 0x50db5c
       0x0050db50      554f           subq.w 0x2, a7
       0x0050db52      4ebac9dc       jsr MENU3DCOM.PAS.get_front_back(pc)
       0x0050db56      101f           move.b (a7)+, d0
       0x0050db58      b002           cmp.b d2, d0
   < 0x0050db5a      6742           beq.b 0x50db9e
   > 0x0050db5c      4a68034c       tst.w 0x34c(a0)
    < 0x0050db60      6706           beq.b 0x50db68
       0x0050db62      284b           movea.l a3, a4
       0x0050db64      4ebafe74       jsr MENU3DCOM.PAS.show_final_cuto(pc)
    > 0x0050db68      4eb900529aae   jsr BRUSH2COM.br_size_start
        0x0050db6e      7e01           moveq 0x1, d7
    > 0x0050db70      554f           subq.w 0x2, a7
       0x0050db72      4eb90051f2e4   jsr BRUSHCOM.b_brush_busy
       0x0050db78      4a1f           tst.b (a7)+
   < 0x0050db7a      670c           beq.b 0x50db88
      0x0050db7c      48780001       pea.l 0x1
      0x0050db80      4eb900402e42   jsr p_Delay
      0x0050db86      584f           addq.w 0x4, a7
   > 0x0050db88      5247           addq.w 0x1, d7
       0x0050db8a      be41           cmp.w d1, d7
    < 0x0050db8c      6fe2           ble.b 0x50db70
        0x0050db8e      284b           movea.l a3, a4
        0x0050db90      4ebafe48       jsr MENU3DCOM.PAS.show_final_cuto(pc)
        0x0050db94      4227           clr.b -(a7)
        0x0050db96      4eb900529b98   jsr BRUSH2COM.br_size_done
        0x0050db9c      544f           addq.w 0x2, a7
   > 0x0050db9e      2f11           move.l (a1), -(a7)
          0x0050dba0      1f04           move.b d4, -(a7)
      > 0x0050dba2      514f           subq.w 0x8, a7
           0x0050dba4      1f01           move.b d1, -(a7)
           0x0050dba6      4e92           jsr (a2)                    ; fcn.00000009+0x2
           0x0050dba8      544f           addq.w 0x2, a7
           0x0050dbaa      4eb900673fc6   jsr PASTECOM.cache_sized_cut
           0x0050dbb0      defc000e       adda.w 0xe, a7
           0x0050dbb4      284b           movea.l a3, a4
           0x0050dbb6      4ebafe22       jsr MENU3DCOM.PAS.show_final_cuto(pc)
           0x0050dbba      4cdf1f9f       movem.l (a7)+, d0-d4/d7/a0-a4
           0x0050dbbe      4e5e           unlk a6
           0x0050dbc0      4e75           rts
            ; CALL XREF from MENU3DCOM.PAS.hit_3d @ 0x50ef06
 220: MENU3DCOM.PAS.save_undo ();
           0x0050dbc2      4e56ffde       link.w a6, 0xffde
           0x0050dbc6      bfd5           cmpa.l (a5), a7
       < 0x0050dbc8      6206           bhi.b 0x50dbd0
          0x0050dbca      44fc0002       move.w 0x2, ccr
          0x0050dbce      4e76           trapv
       > 0x0050dbd0      defc001a       adda.w 0x1a, a7
           0x0050dbd4      48e780c8       movem.l d0/a0-a1/a4, -(a7)
           0x0050dbd8      594f           subq.w 0x4, a7
           0x0050dbda      1f3c0001       move.b 0x1, -(a7)
           0x0050dbde      4eb900670a94   jsr PASTECOM.get_cutout
           0x0050dbe4      544f           addq.w 0x2, a7
           0x0050dbe6      285f           movea.l (a7)+, a4
           0x0050dbe8      b9ecfffc       cmpa.l -0x4(a4), a4
       < 0x0050dbec      6702           beq.b 0x50dbf0
          0x0050dbee      4e4d           trap 0xd
       > 0x0050dbf0      41f90083e41a   lea.l 0x83e41a, a0
           0x0050dbf6      43ec00f0       lea.l 0xf0(a4), a1
           0x0050dbfa      7011           moveq 0x11, d0
       > 0x0050dbfc      20d9           move.l (a1)+, (a0)+
       < 0x0050dbfe      51c8fffc       dbra d0, 0x50dbfc
           0x0050dc02      41f90083e462   lea.l 0x83e462, a0
           0x0050dc08      43ec0138       lea.l 0x138(a4), a1
           0x0050dc0c      7011           moveq 0x11, d0
       > 0x0050dc0e      20d9           move.l (a1)+, (a0)+
       < 0x0050dc10      51c8fffc       dbra d0, 0x50dc0e
           0x0050dc14      594f           subq.w 0x4, a7
           0x0050dc16      4227           clr.b -(a7)
           0x0050dc18      4eb900670a94   jsr PASTECOM.get_cutout
           0x0050dc1e      544f           addq.w 0x2, a7
           0x0050dc20      285f           movea.l (a7)+, a4
           0x0050dc22      b9ecfffc       cmpa.l -0x4(a4), a4
       < 0x0050dc26      6702           beq.b 0x50dc2a
          0x0050dc28      4e4d           trap 0xd
       > 0x0050dc2a      41f90083e4aa   lea.l 0x83e4aa, a0
           0x0050dc30      43ec00f0       lea.l 0xf0(a4), a1
           0x0050dc34      7011           moveq 0x11, d0
       > 0x0050dc36      20d9           move.l (a1)+, (a0)+
       < 0x0050dc38      51c8fffc       dbra d0, 0x50dc36
           0x0050dc3c      41f90083e4f2   lea.l 0x83e4f2, a0
           0x0050dc42      43ec0138       lea.l 0x138(a4), a1
           0x0050dc46      7011           moveq 0x11, d0
       > 0x0050dc48      20d9           move.l (a1)+, (a0)+
       < 0x0050dc4a      51c8fffc       dbra d0, 0x50dc48
           0x0050dc4e      23ec02a00083.  move.l 0x2a0(a4), 0x83e53a.l
           0x0050dc56      23ec02a40083.  move.l 0x2a4(a4), 0x83e53e.l
           0x0050dc5e      23ec02a80083.  move.l 0x2a8(a4), 0x83e542.l
           0x0050dc66      33ec02e80083.  move.w 0x2e8(a4), 0x83e546.l
           0x0050dc6e      41f90083e548   lea.l 0x83e548, a0
           0x0050dc74      43ec0338       lea.l 0x338(a4), a1
           0x0050dc78      7044           moveq 0x44, d0
       > 0x0050dc7a      20d9           move.l (a1)+, (a0)+
       < 0x0050dc7c      51c8fffc       dbra d0, 0x50dc7a
           0x0050dc80      30d9           move.w (a1)+, (a0)+
           0x0050dc82      41f90083e65e   lea.l 0x83e65e, a0
           0x0050dc88      43ec0620       lea.l 0x620(a4), a1
           0x0050dc8c      7007           moveq 0x7, d0
       > 0x0050dc8e      20d9           move.l (a1)+, (a0)+
       < 0x0050dc90      51c8fffc       dbra d0, 0x50dc8e
           0x0050dc94      30d9           move.w (a1)+, (a0)+
           0x0050dc96      4cdf1301       movem.l (a7)+, d0/a0-a1/a4
           0x0050dc9a      4e5e           unlk a6
           0x0050dc9c      4e75           rts
 608: MENU3DCOM.PAS.hit_undo (int32_t arg_2a0h, int32_t arg_2a4h, int32_t arg_2a8h, int32_t arg_2e8h);
           ; arg int32_t arg_2a0h @ a6+0x2a0
           ; arg int32_t arg_2a4h @ a6+0x2a4
           ; arg int32_t arg_2a8h @ a6+0x2a8
           ; arg int32_t arg_2e8h @ a6+0x2e8
           0x0050dc9e      4e56fd62       link.w a6, 0xfd62
           0x0050dca2      bfd5           cmpa.l (a5), a7
       < 0x0050dca4      6206           bhi.b 0x50dcac
          0x0050dca6      44fc0002       move.w 0x2, ccr
          0x0050dcaa      4e76           trapv
       > 0x0050dcac      defc0030       adda.w 0x30, a7
           0x0050dcb0      48e7c0f8       movem.l d0-d1/a0-a4, -(a7)
           0x0050dcb4      45f90083e41a   lea.l 0x83e41a, a2
           0x0050dcba      7201           moveq 0x1, d1
           0x0050dcbc      302e0008       move.w 0x8(a6), d0
           0x0050dcc0      b041           cmp.w d1, d0
       < 0x0050dcc2      66000232       bne.w 0x50def6
          0x0050dcc6      594f           subq.w 0x4, a7
          0x0050dcc8      1f01           move.b d1, -(a7)
          0x0050dcca      4eb900670a94   jsr PASTECOM.get_cutout
          0x0050dcd0      544f           addq.w 0x2, a7
          0x0050dcd2      265f           movea.l (a7)+, a3
          0x0050dcd4      594f           subq.w 0x4, a7
          0x0050dcd6      4227           clr.b -(a7)
          0x0050dcd8      4eb900670a94   jsr PASTECOM.get_cutout
          0x0050dcde      544f           addq.w 0x2, a7
          0x0050dce0      285f           movea.l (a7)+, a4
          0x0050dce2      b7ebfffc       cmpa.l -0x4(a3), a3
      < 0x0050dce6      6702           beq.b 0x50dcea
         0x0050dce8      4e4d           trap 0xd
      > 0x0050dcea      41eefda8       lea.l -0x258(a6), a0
          0x0050dcee      43eb00f0       lea.l 0xf0(a3), a1
          0x0050dcf2      7011           moveq 0x11, d0
      > 0x0050dcf4      20d9           move.l (a1)+, (a0)+
      < 0x0050dcf6      51c8fffc       dbra d0, 0x50dcf4
          0x0050dcfa      41eefdf0       lea.l -0x210(a6), a0
          0x0050dcfe      43eb0138       lea.l 0x138(a3), a1
          0x0050dd02      7011           moveq 0x11, d0
      > 0x0050dd04      20d9           move.l (a1)+, (a0)+
      < 0x0050dd06      51c8fffc       dbra d0, 0x50dd04
          0x0050dd0a      b9ecfffc       cmpa.l -0x4(a4), a4
      < 0x0050dd0e      6702           beq.b 0x50dd12
         0x0050dd10      4e4d           trap 0xd
      > 0x0050dd12      41eefe38       lea.l -0x1c8(a6), a0
          0x0050dd16      43ec00f0       lea.l 0xf0(a4), a1
          0x0050dd1a      7011           moveq 0x11, d0
      > 0x0050dd1c      20d9           move.l (a1)+, (a0)+
      < 0x0050dd1e      51c8fffc       dbra d0, 0x50dd1c
          0x0050dd22      41eefe80       lea.l -0x180(a6), a0
          0x0050dd26      43ec0138       lea.l 0x138(a4), a1
          0x0050dd2a      7011           moveq 0x11, d0
      > 0x0050dd2c      20d9           move.l (a1)+, (a0)+
      < 0x0050dd2e      51c8fffc       dbra d0, 0x50dd2c
          0x0050dd32      2d6c02a0fd9c   move.l 0x2a0(a4), -0x264(a6)
          0x0050dd38      2d6c02a4fda0   move.l 0x2a4(a4), -0x260(a6)
          0x0050dd3e      2d6c02a8fda4   move.l 0x2a8(a4), -0x25c(a6)
          0x0050dd44      3d6c02e8fd9a   move.w 0x2e8(a4), -0x266(a6)
          0x0050dd4a      41eefec8       lea.l -0x138(a6), a0
          0x0050dd4e      43ec0338       lea.l 0x338(a4), a1
          0x0050dd52      7044           moveq 0x44, d0
      > 0x0050dd54      20d9           move.l (a1)+, (a0)+
      < 0x0050dd56      51c8fffc       dbra d0, 0x50dd54
          0x0050dd5a      30d9           move.w (a1)+, (a0)+
          0x0050dd5c      41eeffde       lea.l -0x22(a6), a0
          0x0050dd60      43ec0620       lea.l 0x620(a4), a1
          0x0050dd64      7007           moveq 0x7, d0
      > 0x0050dd66      20d9           move.l (a1)+, (a0)+
      < 0x0050dd68      51c8fffc       dbra d0, 0x50dd66
          0x0050dd6c      30d9           move.w (a1)+, (a0)+
          0x0050dd6e      41eb00f0       lea.l 0xf0(a3), a0
          0x0050dd72      224a           movea.l a2, a1
          0x0050dd74      7011           moveq 0x11, d0
      > 0x0050dd76      20d9           move.l (a1)+, (a0)+
      < 0x0050dd78      51c8fffc       dbra d0, 0x50dd76
          0x0050dd7c      41eb0138       lea.l 0x138(a3), a0
          0x0050dd80      43f90083e462   lea.l 0x83e462, a1
          0x0050dd86      7011           moveq 0x11, d0
      > 0x0050dd88      20d9           move.l (a1)+, (a0)+
      < 0x0050dd8a      51c8fffc       dbra d0, 0x50dd88
          0x0050dd8e      41ec00f0       lea.l 0xf0(a4), a0
          0x0050dd92      43f90083e4aa   lea.l 0x83e4aa, a1
          0x0050dd98      7011           moveq 0x11, d0
      > 0x0050dd9a      20d9           move.l (a1)+, (a0)+
      < 0x0050dd9c      51c8fffc       dbra d0, 0x50dd9a
          0x0050dda0      41ec0138       lea.l 0x138(a4), a0
          0x0050dda4      43f90083e4f2   lea.l 0x83e4f2, a1
          0x0050ddaa      7011           moveq 0x11, d0
      > 0x0050ddac      20d9           move.l (a1)+, (a0)+
      < 0x0050ddae      51c8fffc       dbra d0, 0x50ddac
          0x0050ddb2      29790083e53a.  move.l 0x83e53a, 0x2a0(a4)
          0x0050ddba      29790083e53e.  move.l 0x83e53e, 0x2a4(a4)
          0x0050ddc2      29790083e542.  move.l 0x83e542, 0x2a8(a4)
          0x0050ddca      39790083e546.  move.w 0x83e546, 0x2e8(a4)
          0x0050ddd2      41ec0338       lea.l 0x338(a4), a0
          0x0050ddd6      43f90083e548   lea.l 0x83e548, a1
          0x0050dddc      7044           moveq 0x44, d0
      > 0x0050ddde      20d9           move.l (a1)+, (a0)+
      < 0x0050dde0      51c8fffc       dbra d0, 0x50ddde
          0x0050dde4      30d9           move.w (a1)+, (a0)+
          0x0050dde6      41ec0620       lea.l 0x620(a4), a0
          0x0050ddea      43f90083e65e   lea.l 0x83e65e, a1
          0x0050ddf0      7007           moveq 0x7, d0
      > 0x0050ddf2      20d9           move.l (a1)+, (a0)+
      < 0x0050ddf4      51c8fffc       dbra d0, 0x50ddf2
          0x0050ddf8      30d9           move.w (a1)+, (a0)+
          0x0050ddfa      2f0b           move.l a3, -(a7)
          0x0050ddfc      4eb90066ff74   jsr PASTECOM.calc_transforms
          0x0050de02      584f           addq.w 0x4, a7
          0x0050de04      486c0210       pea.l 0x210(a4)
          0x0050de08      486c02a0       pea.l 0x2a0(a4)
          0x0050de0c      486c0056       pea.l 0x56(a4)
          0x0050de10      486c02b8       pea.l 0x2b8(a4)
          0x0050de14      4eb90067d034   jsr THREEDMAV.transform_shape
          0x0050de1a      defc0010       adda.w 0x10, a7
          0x0050de1e      204a           movea.l a2, a0
          0x0050de20      43eefda8       lea.l -0x258(a6), a1
          0x0050de24      7011           moveq 0x11, d0
      > 0x0050de26      20d9           move.l (a1)+, (a0)+
      < 0x0050de28      51c8fffc       dbra d0, 0x50de26
          0x0050de2c      41f90083e462   lea.l 0x83e462, a0
          0x0050de32      43eefdf0       lea.l -0x210(a6), a1
          0x0050de36      7011           moveq 0x11, d0
      > 0x0050de38      20d9           move.l (a1)+, (a0)+
      < 0x0050de3a      51c8fffc       dbra d0, 0x50de38
          0x0050de3e      41f90083e4aa   lea.l 0x83e4aa, a0
          0x0050de44      43eefe38       lea.l -0x1c8(a6), a1
          0x0050de48      7011           moveq 0x11, d0
      > 0x0050de4a      20d9           move.l (a1)+, (a0)+
      < 0x0050de4c      51c8fffc       dbra d0, 0x50de4a
          0x0050de50      41f90083e4f2   lea.l 0x83e4f2, a0
          0x0050de56      43eefe80       lea.l -0x180(a6), a1
          0x0050de5a      7011           moveq 0x11, d0
      > 0x0050de5c      20d9           move.l (a1)+, (a0)+
      < 0x0050de5e      51c8fffc       dbra d0, 0x50de5c
          0x0050de62      23eefd9c0083.  move.l -0x264(a6), 0x83e53a.l
          0x0050de6a      23eefda00083.  move.l -0x260(a6), 0x83e53e.l
          0x0050de72      23eefda40083.  move.l -0x25c(a6), 0x83e542.l
          0x0050de7a      33eefd9a0083.  move.w -0x266(a6), 0x83e546.l
          0x0050de82      41f90083e548   lea.l 0x83e548, a0
          0x0050de88      43eefec8       lea.l -0x138(a6), a1
          0x0050de8c      7044           moveq 0x44, d0
      > 0x0050de8e      20d9           move.l (a1)+, (a0)+
      < 0x0050de90      51c8fffc       dbra d0, 0x50de8e
          0x0050de94      30d9           move.w (a1)+, (a0)+
          0x0050de96      41f90083e65e   lea.l 0x83e65e, a0
          0x0050de9c      43eeffde       lea.l -0x22(a6), a1
          0x0050dea0      7007           moveq 0x7, d0
      > 0x0050dea2      20d9           move.l (a1)+, (a0)+
      < 0x0050dea4      51c8fffc       dbra d0, 0x50dea2
          0x0050dea8      30d9           move.w (a1)+, (a0)+
          0x0050deaa      2f0b           move.l a3, -(a7)
          0x0050deac      2f3abe74       move.l 0x509d22(pc), -(a7)
          0x0050deb0      4227           clr.b -(a7)
          0x0050deb2      4eb90075fcb8   jsr MENUKEYFRMCOM.edit_keyfrm
          0x0050deb8      5c4f           addq.w 0x6, a7
          0x0050deba      2e8c           move.l a4, (a7)
          0x0050debc      203cbf010000   move.l 0xbf010000, d0
          0x0050dec2      80ac0338       or.l 0x338(a4), d0
          0x0050dec6      2f00           move.l d0, -(a7)
          0x0050dec8      4227           clr.b -(a7)
          0x0050deca      4eb90075fcb8   jsr MENUKEYFRMCOM.edit_keyfrm
          0x0050ded0      defc000a       adda.w 0xa, a7
          0x0050ded4      4eb900670a5c   jsr PASTECOM.save_layers
          0x0050deda      4ebadfd4       jsr MENU3DCOM.PAS.update_3d_menu_(pc)
          0x0050dede      1f3c0002       move.b 0x2, -(a7)
          0x0050dee2      2f0c           move.l a4, -(a7)
          0x0050dee4      4eb9006770b0   jsr PASTECOM.update_layer
          0x0050deea      584f           addq.w 0x4, a7
          0x0050deec      1e81           move.b d1, (a7)
          0x0050deee      1f01           move.b d1, -(a7)
          0x0050def0      4ebadc04       jsr MENU3DCOM.PAS.do_3d_cutout_cu(pc)
          0x0050def4      584f           addq.w 0x4, a7
       > 0x0050def6      4cdf1f03       movem.l (a7)+, d0-d1/a0-a4
           0x0050defa      4e5e           unlk a6
           0x0050defc      4e75           rts
            ; CALL XREF from PASTECOM.calc_transforms @ 0x670292
 30: MENU3DCOM.PAS.get_lighting ();
           0x0050defe      4e56fffc       link.w a6, 0xfffc
           0x0050df02      bfd5           cmpa.l (a5), a7
       < 0x0050df04      6206           bhi.b 0x50df0c
          0x0050df06      44fc0002       move.w 0x2, ccr
          0x0050df0a      4e76           trapv
       > 0x0050df0c      defc0004       adda.w 0x4, a7
           0x0050df10      2d790083e680.  move.l 0x83e680, 0x8(a6)
           0x0050df18      4e5e           unlk a6
           0x0050df1a      4e75           rts
            ; CALL XREF from MENU3DCOM.PAS.hit_light_num @ 0x50e3c8
 24: MENU3DCOM.PAS.update_lighting ();
           0x0050df1c      4e56ffc4       link.w a6, 0xffc4
           0x0050df20      bfd5           cmpa.l (a5), a7
       < 0x0050df22      6206           bhi.b 0x50df2a
          0x0050df24      44fc0002       move.w 0x2, ccr
          0x0050df28      4e76           trapv
       > 0x0050df2a      defc003c       adda.w 0x3c, a7
           0x0050df2e      48e7f8e0       movem.l d0-d4/a0-a2, -(a7)
           0x0050df32      f227e001       fmovem fp0, -(a7)
            0x0050df36      43f90048d992   lea.l MENU2COM.get_numeric_val, a1
            0x0050df3c      45f900480fc2   lea.l MENUCOM.get_boxon, a2
            0x0050df42      7201           moveq 0x1, d1
            0x0050df44      7464           moveq 0x64, d2
            0x0050df46      7665           moveq 0x65, d3
            0x0050df48      7802           moveq 0x2, d4
            0x0050df4a      20790083e680   movea.l 0x83e680, a0
            0x0050df50      b1e8fffc       cmpa.l -0x4(a0), a0
        < 0x0050df54      6702           beq.b 0x50df58
           0x0050df56      4e4d           trap 0xd
        > 0x0050df58      554f           subq.w 0x2, a7
            0x0050df5a      3f390083e3ae   move.w 0x83e3ae, -(a7)
            0x0050df60      4e92           jsr (a2)                    ; fcn.00000009+0x2
            0x0050df62      544f           addq.w 0x2, a7
            0x0050df64      101f           move.b (a7)+, d0
            0x0050df66      4880           ext.w d0
            0x0050df68      4181           chk.w d1, d0
            0x0050df6a      1080           move.b d0, (a0)
            0x0050df6c      594f           subq.w 0x4, a7
            0x0050df6e      3f390083e3b0   move.w 0x83e3b0, -(a7)
            0x0050df74      4e91           jsr (a1)                    ; fcn.0000000a
            0x0050df76      544f           addq.w 0x2, a7
            0x0050df78      f21f4400       fmove.s (a7)+, fp0
            0x0050df7c      f2024020       fdiv.l d2, fp0
            0x0050df80      f22864000002   fmove.s fp0, 0x2(a0)
            0x0050df86      f23c40000000.  fmove.l 0x0, fp0
            0x0050df8e      f22864000006   fmove.s fp0, 0x6(a0)
            0x0050df94      554f           subq.w 0x2, a7
            0x0050df96      3f390083e3b2   move.w 0x83e3b2, -(a7)
            0x0050df9c      4e92           jsr (a2)                    ; fcn.00000009+0x2
            0x0050df9e      544f           addq.w 0x2, a7
            0x0050dfa0      101f           move.b (a7)+, d0
            0x0050dfa2      4880           ext.w d0
            0x0050dfa4      4181           chk.w d1, d0
            0x0050dfa6      1140001c       move.b d0, 0x1c(a0)
            0x0050dfaa      5d4f           subq.w 0x6, a7
            0x0050dfac      3f390083e3b4   move.w 0x83e3b4, -(a7)
            0x0050dfb2      4eb900481196   jsr MENUCOM.get_boxcol
            0x0050dfb8      544f           addq.w 0x2, a7
            0x0050dfba      215f0032       move.l (a7)+, 0x32(a0)
            0x0050dfbe      31570036       move.w (a7), 0x36(a0)
            0x0050dfc2      554f           subq.w 0x2, a7
            0x0050dfc4      3f390083e3b6   move.w 0x83e3b6, -(a7)
            0x0050dfca      4e91           jsr (a1)                    ; fcn.0000000a
            0x0050dfcc      544f           addq.w 0x2, a7
            0x0050dfce      f21f4400       fmove.s (a7)+, fp0
            0x0050dfd2      f2024020       fdiv.l d2, fp0
            0x0050dfd6      f2286400001e   fmove.s fp0, 0x1e(a0)
            0x0050dfdc      594f           subq.w 0x4, a7
            0x0050dfde      3f390083e3b8   move.w 0x83e3b8, -(a7)
            0x0050dfe4      4e91           jsr (a1)                    ; fcn.0000000a
            0x0050dfe6      544f           addq.w 0x2, a7
            0x0050dfe8      f2034000       fmove.l d3, fp0
            0x0050dfec      f21f4428       fsub.s (a7)+, fp0
            0x0050dff0      f2044023       fmul.l d4, fp0
            0x0050dff4      f22864000022   fmove.s fp0, 0x22(a0)
            0x0050dffa      554f           subq.w 0x2, a7
            0x0050dffc      3f390083e3ba   move.w 0x83e3ba, -(a7)
            0x0050e002      4e92           jsr (a2)                    ; fcn.00000009+0x2
            0x0050e004      544f           addq.w 0x2, a7
            0x0050e006      101f           move.b (a7)+, d0
            0x0050e008      4880           ext.w d0
            0x0050e00a      4181           chk.w d1, d0
            0x0050e00c      11400038       move.b d0, 0x38(a0)
            0x0050e010      594f           subq.w 0x4, a7
            0x0050e012      3f390083e3bc   move.w 0x83e3bc, -(a7)
            0x0050e018      4e91           jsr (a1)                    ; fcn.0000000a
            0x0050e01a      544f           addq.w 0x2, a7
            0x0050e01c      f21f4400       fmove.s (a7)+, fp0
            0x0050e020      f2024020       fdiv.l d2, fp0
            0x0050e024      f2286400003a   fmove.s fp0, 0x3a(a0)
            0x0050e02a      594f           subq.w 0x4, a7
            0x0050e02c      3f390083e3be   move.w 0x83e3be, -(a7)
            0x0050e032      4e91           jsr (a1)                    ; fcn.0000000a
            0x0050e034      544f           addq.w 0x2, a7
            0x0050e036      f2034000       fmove.l d3, fp0
            0x0050e03a      f21f4428       fsub.s (a7)+, fp0
            0x0050e03e      f2044023       fmul.l d4, fp0
            0x0050e042      f2286400003e   fmove.s fp0, 0x3e(a0)
            0x0050e048      f21fd080       fmovem (a7)+, fp0
            0x0050e04c      4cdf071f       movem.l (a7)+, d0-d4/a0-a2
            0x0050e050      4e5e           unlk a6
            0x0050e052      4e75           rts
 24: MENU3DCOM.PAS.hit_light ();
           0x0050e054      4e56ff3a       link.w a6, 0xff3a
           0x0050e058      bfd5           cmpa.l (a5), a7
       < 0x0050e05a      6206           bhi.b 0x50e062
          0x0050e05c      44fc0002       move.w 0x2, ccr
          0x0050e060      4e76           trapv
       > 0x0050e062      defc0086       adda.w 0x86, a7
           0x0050e066      48e7fff8       movem.l d0-d7/a0-a4, -(a7)
           0x0050e06a      f227e001       fmovem fp0, -(a7)
            0x0050e06e      43f90083e680   lea.l 0x83e680, a1
            0x0050e074      45eeffc4       lea.l -0x3c(a6), a2
            0x0050e078      47eeffc8       lea.l -0x38(a6), a3
            0x0050e07c      740c           moveq 0xc, d2
            0x0050e07e      7618           moveq 0x18, d3
            0x0050e080      7801           moveq 0x1, d4
            0x0050e082      7a10           moveq 0x10, d5
            0x0050e084      7c14           moveq 0x14, d6
            0x0050e086      7e00           moveq 0x0, d7
            0x0050e088      302e0008       move.w 0x8(a6), d0
            0x0050e08c      41fabc9c       lea.l 0x509d2a(pc), a0
            0x0050e090      3200           move.w d0, d1
            0x0050e092      e649           lsr.w 0x3, d1
            0x0050e094      0c410020       cmpi.w 0x20, d1
        < 0x0050e098      6d04           blt.b 0x50e09e
           0x0050e09a      7200           moveq 0x0, d1
       < 0x0050e09c      6004           bra.b 0x50e0a2
       > 0x0050e09e      01301000       btst.l d0, (a0, d1.w)
       < 0x0050e0a2      670002f6       beq.w 0x50e39a
           0x0050e0a6      302e000a       move.w 0xa(a6), d0
           0x0050e0aa      b0790083e3ae   cmp.w 0x83e3ae, d0
       < 0x0050e0b0      6712           beq.b 0x50e0c4
          0x0050e0b2      b0790083e3b2   cmp.w 0x83e3b2, d0
      < 0x0050e0b8      670a           beq.b 0x50e0c4
         0x0050e0ba      b0790083e3ba   cmp.w 0x83e3ba, d0
     < 0x0050e0c0      660002b0       bne.w 0x50e372
     > 0x0050e0c4      594f           subq.w 0x4, a7
          0x0050e0c6      4227           clr.b -(a7)
          0x0050e0c8      4eb900670a94   jsr PASTECOM.get_cutout
          0x0050e0ce      544f           addq.w 0x2, a7
          0x0050e0d0      285f           movea.l (a7)+, a4
          0x0050e0d2      554f           subq.w 0x2, a7
          0x0050e0d4      3f390083e3c0   move.w 0x83e3c0, -(a7)
          0x0050e0da      4eb900480fc2   jsr MENUCOM.get_boxon
          0x0050e0e0      544f           addq.w 0x2, a7
          0x0050e0e2      4a1f           tst.b (a7)+
      < 0x0050e0e4      6700022a       beq.w 0x50e310
         0x0050e0e8      b9ecfffc       cmpa.l -0x4(a4), a4
     < 0x0050e0ec      6702           beq.b 0x50e0f0
        0x0050e0ee      4e4d           trap 0xd
     > 0x0050e0f0      9ec2           suba.w d2, a7
         0x0050e0f2      2f2c01d4       move.l 0x1d4(a4), -(a7)
         0x0050e0f6      2f2c01e4       move.l 0x1e4(a4), -(a7)
         0x0050e0fa      2f2c01f4       move.l 0x1f4(a4), -(a7)
         0x0050e0fe      4eb90067a406   jsr THREEDMAV.xyz_point
         0x0050e104      dec2           adda.w d2, a7
         0x0050e106      249f           move.l (a7)+, (a2)
         0x0050e108      269f           move.l (a7)+, (a3)
         0x0050e10a      2d57ffcc       move.l (a7), -0x34(a6)
         0x0050e10e      9ec6           suba.w d6, a7
         0x0050e110      2f2c01d0       move.l 0x1d0(a4), -(a7)
         0x0050e114      2f2c01e0       move.l 0x1e0(a4), -(a7)
         0x0050e118      2f2c01f0       move.l 0x1f0(a4), -(a7)
         0x0050e11c      4eb90067a406   jsr THREEDMAV.xyz_point
         0x0050e122      dec2           adda.w d2, a7
         0x0050e124      4eb90067a0ea   jsr THREEDMAV.normalise
         0x0050e12a      dec2           adda.w d2, a7
         0x0050e12c      2d5fffd0       move.l (a7)+, -0x30(a6)
         0x0050e130      2d5fffd4       move.l (a7)+, -0x2c(a6)
         0x0050e134      2d5fffd8       move.l (a7)+, -0x28(a6)
         0x0050e138      b0790083e3ae   cmp.w 0x83e3ae, d0
     < 0x0050e13e      664a           bne.b 0x50e18a
        0x0050e140      2051           movea.l (a1), a0
        0x0050e142      b1e8fffc       cmpa.l -0x4(a0), a0
    < 0x0050e146      6702           beq.b 0x50e14a
       0x0050e148      4e4d           trap 0xd
    > 0x0050e14a      9ec2           suba.w d2, a7
        0x0050e14c      2f2effcc       move.l -0x34(a6), -(a7)
        0x0050e150      2f13           move.l (a3), -(a7)
        0x0050e152      2f12           move.l (a2), -(a7)
        0x0050e154      9ec2           suba.w d2, a7
        0x0050e156      2f2effd8       move.l -0x28(a6), -(a7)
        0x0050e15a      2f2effd4       move.l -0x2c(a6), -(a7)
        0x0050e15e      2f2effd0       move.l -0x30(a6), -(a7)
        0x0050e162      f2024000       fmove.l d2, fp0
        0x0050e166      f2276400       fmove.s fp0, -(a7)
        0x0050e16a      4eb90067a250   jsr THREEDMAV.xyz_scale
        0x0050e170      dec5           adda.w d5, a7
        0x0050e172      4eb90067a184   jsr THREEDMAV.xyz_add
        0x0050e178      dec3           adda.w d3, a7
        0x0050e17a      215f000a       move.l (a7)+, 0xa(a0)
        0x0050e17e      215f000e       move.l (a7)+, 0xe(a0)
        0x0050e182      215f0012       move.l (a7)+, 0x12(a0)
    < 0x0050e186      60000162       bra.w 0x50e2ea
    > 0x0050e18a      9efc0024       suba.w 0x24, a7
        0x0050e18e      f2074000       fmove.l d7, fp0
        0x0050e192      f2276400       fmove.s fp0, -(a7)
        0x0050e196      f2074000       fmove.l d7, fp0
        0x0050e19a      f2276400       fmove.s fp0, -(a7)
        0x0050e19e      f23c4000ffff.  fmove.l 0xfffffff4, fp0
        0x0050e1a6      f2276400       fmove.s fp0, -(a7)
        0x0050e1aa      4eb90067a406   jsr THREEDMAV.xyz_point
        0x0050e1b0      504f           addq.w 0x8, a7
        0x0050e1b2      2eaeffcc       move.l -0x34(a6), (a7)
        0x0050e1b6      2f13           move.l (a3), -(a7)
        0x0050e1b8      2f12           move.l (a2), -(a7)
        0x0050e1ba      4eb90067a1ea   jsr THREEDMAV.xyz_sub
        0x0050e1c0      dec3           adda.w d3, a7
        0x0050e1c2      4eb90067a0ea   jsr THREEDMAV.normalise
        0x0050e1c8      dec2           adda.w d2, a7
        0x0050e1ca      2d5fffdc       move.l (a7)+, -0x24(a6)
        0x0050e1ce      2d5fffe0       move.l (a7)+, -0x20(a6)
        0x0050e1d2      2d57ffe4       move.l (a7), -0x1c(a6)
        0x0050e1d6      9ec6           suba.w d6, a7
        0x0050e1d8      2f2effd8       move.l -0x28(a6), -(a7)
        0x0050e1dc      2f2effd4       move.l -0x2c(a6), -(a7)
        0x0050e1e0      2f2effd0       move.l -0x30(a6), -(a7)
        0x0050e1e4      594f           subq.w 0x4, a7
        0x0050e1e6      2f2effe4       move.l -0x1c(a6), -(a7)
        0x0050e1ea      2f2effe0       move.l -0x20(a6), -(a7)
        0x0050e1ee      2f2effdc       move.l -0x24(a6), -(a7)
        0x0050e1f2      2f2effd8       move.l -0x28(a6), -(a7)
        0x0050e1f6      2f2effd4       move.l -0x2c(a6), -(a7)
        0x0050e1fa      2f2effd0       move.l -0x30(a6), -(a7)
        0x0050e1fe      4eb90067a09a   jsr THREEDMAV.dot
        0x0050e204      dec3           adda.w d3, a7
        0x0050e206      4eb90067a250   jsr THREEDMAV.xyz_scale
        0x0050e20c      dec2           adda.w d2, a7
        0x0050e20e      2eaeffe4       move.l -0x1c(a6), (a7)
        0x0050e212      2f2effe0       move.l -0x20(a6), -(a7)
        0x0050e216      2f2effdc       move.l -0x24(a6), -(a7)
        0x0050e21a      4eb90067a1ea   jsr THREEDMAV.xyz_sub
        0x0050e220      dec3           adda.w d3, a7
        0x0050e222      2d5fffe8       move.l (a7)+, -0x18(a6)
        0x0050e226      2d5fffec       move.l (a7)+, -0x14(a6)
        0x0050e22a      2d57fff0       move.l (a7), -0x10(a6)
        0x0050e22e      514f           subq.w 0x8, a7
        0x0050e230      2f2effe4       move.l -0x1c(a6), -(a7)
        0x0050e234      2f2effe0       move.l -0x20(a6), -(a7)
        0x0050e238      2f2effdc       move.l -0x24(a6), -(a7)
        0x0050e23c      9ec2           suba.w d2, a7
        0x0050e23e      2f2efff0       move.l -0x10(a6), -(a7)
        0x0050e242      2f2effec       move.l -0x14(a6), -(a7)
        0x0050e246      2f2effe8       move.l -0x18(a6), -(a7)
        0x0050e24a      2f3c40000000   move.l 0x40000000, -(a7)
        0x0050e250      4eb90067a250   jsr THREEDMAV.xyz_scale
        0x0050e256      dec5           adda.w d5, a7
        0x0050e258      4eb90067a184   jsr THREEDMAV.xyz_add
        0x0050e25e      dec3           adda.w d3, a7
        0x0050e260      2d5ffff4       move.l (a7)+, -0xc(a6)
        0x0050e264      2d5ffff8       move.l (a7)+, -0x8(a6)
        0x0050e268      2d57fffc       move.l (a7), -0x4(a6)
        0x0050e26c      514f           subq.w 0x8, a7
        0x0050e26e      2f2effcc       move.l -0x34(a6), -(a7)
        0x0050e272      2f13           move.l (a3), -(a7)
        0x0050e274      2f12           move.l (a2), -(a7)
        0x0050e276      9ec2           suba.w d2, a7
        0x0050e278      2f2efffc       move.l -0x4(a6), -(a7)
        0x0050e27c      2f2efff8       move.l -0x8(a6), -(a7)
        0x0050e280      2f2efff4       move.l -0xc(a6), -(a7)
        0x0050e284      f2024000       fmove.l d2, fp0
        0x0050e288      f2276400       fmove.s fp0, -(a7)
        0x0050e28c      4eb90067a250   jsr THREEDMAV.xyz_scale
        0x0050e292      dec5           adda.w d5, a7
        0x0050e294      4eb90067a184   jsr THREEDMAV.xyz_add
        0x0050e29a      dec3           adda.w d3, a7
        0x0050e29c      2d5ffff4       move.l (a7)+, -0xc(a6)
        0x0050e2a0      2d5ffff8       move.l (a7)+, -0x8(a6)
        0x0050e2a4      2d5ffffc       move.l (a7)+, -0x4(a6)
        0x0050e2a8      b0790083e3b2   cmp.w 0x83e3b2, d0
    < 0x0050e2ae      661e           bne.b 0x50e2ce
       0x0050e2b0      2051           movea.l (a1), a0
       0x0050e2b2      b1e8fffc       cmpa.l -0x4(a0), a0
   < 0x0050e2b6      6702           beq.b 0x50e2ba
      0x0050e2b8      4e4d           trap 0xd
   > 0x0050e2ba      216efff40026   move.l -0xc(a6), 0x26(a0)
       0x0050e2c0      216efff8002a   move.l -0x8(a6), 0x2a(a0)
       0x0050e2c6      216efffc002e   move.l -0x4(a6), 0x2e(a0)
   < 0x0050e2cc      601c           bra.b 0x50e2ea
   > 0x0050e2ce      2051           movea.l (a1), a0
       0x0050e2d0      b1e8fffc       cmpa.l -0x4(a0), a0
   < 0x0050e2d4      6702           beq.b 0x50e2d8
      0x0050e2d6      4e4d           trap 0xd
   > 0x0050e2d8      216efff40042   move.l -0xc(a6), 0x42(a0)
       0x0050e2de      216efff80046   move.l -0x8(a6), 0x46(a0)
       0x0050e2e4      216efffc004a   move.l -0x4(a6), 0x4a(a0)
   > 0x0050e2ea      3f00           move.w d0, -(a7)
         0x0050e2ec      2f3ab6d8       move.l 0x5099c6(pc), -(a7)
         0x0050e2f0      3f3ab6d2       move.w 0x5099c4(pc), -(a7)
         0x0050e2f4      4eb900484148   jsr MENUCOM.set_boxcol
         0x0050e2fa      5c4f           addq.w 0x6, a7
         0x0050e2fc      3e80           move.w d0, (a7)
         0x0050e2fe      1f04           move.b d4, -(a7)
         0x0050e300      4eb900483776   jsr MENUCOM.swtch_box
         0x0050e306      544f           addq.w 0x2, a7
         0x0050e308      3eb90083e3c0   move.w 0x83e3c0, (a7)
     < 0x0050e30e      6058           bra.b 0x50e368
     > 0x0050e310      554f           subq.w 0x2, a7
         0x0050e312      3f3c00a3       move.w 0xa3, -(a7)
         0x0050e316      4eb900480fc2   jsr MENUCOM.get_boxon
         0x0050e31c      544f           addq.w 0x2, a7
         0x0050e31e      4a1f           tst.b (a7)+
     < 0x0050e320      6724           beq.b 0x50e346
        0x0050e322      3f00           move.w d0, -(a7)
        0x0050e324      4227           clr.b -(a7)
        0x0050e326      4eb900483776   jsr MENUCOM.swtch_box
        0x0050e32c      544f           addq.w 0x2, a7
        0x0050e32e      3e80           move.w d0, (a7)
        0x0050e330      2f3ab6dc       move.l 0x509a0e(pc), -(a7)
        0x0050e334      3f3ab6d6       move.w 0x509a0c(pc), -(a7)
        0x0050e338      4eb900484148   jsr MENUCOM.set_boxcol
        0x0050e33e      5c4f           addq.w 0x6, a7
        0x0050e340      3ebc00a3       move.w 0xa3, (a7)
    < 0x0050e344      6022           bra.b 0x50e368
    > 0x0050e346      514f           subq.w 0x8, a7
        0x0050e348      3f00           move.w d0, -(a7)
        0x0050e34a      4eb900481196   jsr MENUCOM.get_boxcol
        0x0050e350      544f           addq.w 0x2, a7
        0x0050e352      2f3ab6ba       move.l 0x509a0e(pc), -(a7)
        0x0050e356      3f3ab6b4       move.w 0x509a0c(pc), -(a7)
        0x0050e35a      4eb90063c2c0   jsr COLOURCOM.same_colour
        0x0050e360      dec2           adda.w d2, a7
        0x0050e362      4a1f           tst.b (a7)+
    < 0x0050e364      670c           beq.b 0x50e372
       0x0050e366      3f00           move.w d0, -(a7)
    > 0x0050e368      4227           clr.b -(a7)
         0x0050e36a      4eb900483776   jsr MENUCOM.swtch_box
         0x0050e370      584f           addq.w 0x4, a7
     > 0x0050e372      4ebafba8       jsr MENU3DCOM.PAS.update_lighting(pc)
           0x0050e376      594f           subq.w 0x4, a7
           0x0050e378      1f04           move.b d4, -(a7)
           0x0050e37a      4eb900670a94   jsr PASTECOM.get_cutout
           0x0050e380      544f           addq.w 0x2, a7
           0x0050e382      2f3ab900       move.l 0x509c84(pc), -(a7)
           0x0050e386      1f04           move.b d4, -(a7)
           0x0050e388      4227           clr.b -(a7)
           0x0050e38a      1f04           move.b d4, -(a7)
           0x0050e38c      4ebae6d2       jsr MENU3DCOM.PAS.update_all(pc)
           0x0050e390      defc000e       adda.w 0xe, a7
           0x0050e394      4eb90075cd12   jsr MENUKEYFRMCOM.tryit_trash
        > 0x0050e39a      f21fd080       fmovem (a7)+, fp0
            0x0050e39e      4cdf1fff       movem.l (a7)+, d0-d7/a0-a4
            0x0050e3a2      4e5e           unlk a6
            0x0050e3a4      4e75           rts
 82: MENU3DCOM.PAS.hit_light_num ();
           0x0050e3a6      4e56ffe6       link.w a6, 0xffe6
           0x0050e3aa      bfd5           cmpa.l (a5), a7
       < 0x0050e3ac      6206           bhi.b 0x50e3b4
          0x0050e3ae      44fc0002       move.w 0x2, ccr
          0x0050e3b2      4e76           trapv
       > 0x0050e3b4      defc001a       adda.w 0x1a, a7
           0x0050e3b8      48e7c000       movem.l d0-d1, -(a7)
           0x0050e3bc      7201           moveq 0x1, d1
           0x0050e3be      302e0008       move.w 0x8(a6), d0
           0x0050e3c2      0c400002       cmpi.w 0x2, d0
       < 0x0050e3c6      6628           bne.b 0x50e3f0
          0x0050e3c8      4ebafb52       jsr MENU3DCOM.PAS.update_lighting(pc)
          0x0050e3cc      594f           subq.w 0x4, a7
          0x0050e3ce      1f01           move.b d1, -(a7)
          0x0050e3d0      4eb900670a94   jsr PASTECOM.get_cutout
          0x0050e3d6      544f           addq.w 0x2, a7
          0x0050e3d8      2f3ab8aa       move.l 0x509c84(pc), -(a7)
          0x0050e3dc      1f01           move.b d1, -(a7)
          0x0050e3de      4227           clr.b -(a7)
          0x0050e3e0      1f01           move.b d1, -(a7)
          0x0050e3e2      4ebae67c       jsr MENU3DCOM.PAS.update_all(pc)
          0x0050e3e6      defc000e       adda.w 0xe, a7
          0x0050e3ea      4eb90075cd12   jsr MENUKEYFRMCOM.tryit_trash
       > 0x0050e3f0      4cdf0003       movem.l (a7)+, d0-d1
           0x0050e3f4      4e5e           unlk a6
           0x0050e3f6      4e75           rts
 54: MENU3DCOM.PAS.box_default ();
           ; var int32_t var_ch @ a6-0xc
           0x0050e3f8      4e56ffe2       link.w a6, 0xffe2
           0x0050e3fc      bfd5           cmpa.l (a5), a7
       < 0x0050e3fe      6206           bhi.b 0x50e406
          0x0050e400      44fc0002       move.w 0x2, ccr
          0x0050e404      4e76           trapv
       > 0x0050e406      defc0012       adda.w 0x12, a7
           0x0050e40a      3f2e0008       move.w 0x8(a6), -(a7)
           0x0050e40e      486efff4       pea.l -0xc(a6)
           0x0050e412      486efff8       pea.l -0x8(a6)
           0x0050e416      486efffc       pea.l -0x4(a6)
           0x0050e41a      4eb90048d944   jsr MENU2COM.get_limits_nume
           0x0050e420      defc000e       adda.w 0xe, a7
           0x0050e424      2d6efff4000a   move.l -0xc(a6), 0xa(a6)
           0x0050e42a      4e5e           unlk a6
           0x0050e42c      4e75           rts
            ; CALL XREF from MENU3DCOM.PAS.hit_3d @ 0x50eef0
 24: MENU3DCOM.PAS.do_orig_shape ();
           0x0050e42e      4e56ffbc       link.w a6, 0xffbc
           0x0050e432      bfd5           cmpa.l (a5), a7
       < 0x0050e434      6206           bhi.b 0x50e43c
          0x0050e436      44fc0002       move.w 0x2, ccr
          0x0050e43a      4e76           trapv
       > 0x0050e43c      defc0042       adda.w 0x42, a7
           0x0050e440      48e7f1f0       movem.l d0-d3/d7/a0-a3, -(a7)
           0x0050e444      f227e001       fmovem fp0, -(a7)
            0x0050e448      45faffae       lea.l MENU3DCOM.PAS.box_default(pc), a2
            0x0050e44c      47ec0004       lea.l 0x4(a4), a3
            0x0050e450      720f           moveq 0xf, d1
            0x0050e452      7401           moveq 0x1, d2
            0x0050e454      760a           moveq 0xa, d3
            0x0050e456      4a2e000a       tst.b 0xa(a6)
        < 0x0050e45a      6740           beq.b 0x50e49c
           0x0050e45c      3f390083e3c4   move.w 0x83e3c4, -(a7)
           0x0050e462      4227           clr.b -(a7)
           0x0050e464      4eb900483776   jsr MENUCOM.swtch_box
           0x0050e46a      544f           addq.w 0x2, a7
           0x0050e46c      3eb90083e3ce   move.w 0x83e3ce, (a7)
           0x0050e472      4227           clr.b -(a7)
           0x0050e474      4eb900483776   jsr MENUCOM.swtch_box
           0x0050e47a      544f           addq.w 0x2, a7
           0x0050e47c      3eb90083e3d8   move.w 0x83e3d8, (a7)
           0x0050e482      4227           clr.b -(a7)
           0x0050e484      4eb900483776   jsr MENUCOM.swtch_box
           0x0050e48a      544f           addq.w 0x2, a7
           0x0050e48c      3eb90083e3e0   move.w 0x83e3e0, (a7)
           0x0050e492      4227           clr.b -(a7)
           0x0050e494      4eb900483776   jsr MENUCOM.swtch_box
           0x0050e49a      584f           addq.w 0x4, a7
        > 0x0050e49c      4a2e0008       tst.b 0x8(a6)
        < 0x0050e4a0      6710           beq.b 0x50e4b2
           0x0050e4a2      2f13           move.l (a3), -(a7)
           0x0050e4a4      2f3ab8a4       move.l 0x509d4a(pc), -(a7)
           0x0050e4a8      1f02           move.b d2, -(a7)
           0x0050e4aa      4eb90075f4d8   jsr MENUKEYFRMCOM.del_keyfrm
           0x0050e4b0      dec3           adda.w d3, a7
        > 0x0050e4b2      554f           subq.w 0x2, a7
            0x0050e4b4      3f390083e3c4   move.w 0x83e3c4, -(a7)
            0x0050e4ba      4eb900480fc2   jsr MENUCOM.get_boxon
            0x0050e4c0      544f           addq.w 0x2, a7
            0x0050e4c2      4a1f           tst.b (a7)+
        < 0x0050e4c4      670000ce       beq.w 0x50e594
           0x0050e4c8      2053           movea.l (a3), a0
           0x0050e4ca      b1e8fffc       cmpa.l -0x4(a0), a0
       < 0x0050e4ce      6702           beq.b 0x50e4d2
          0x0050e4d0      4e4d           trap 0xd
       > 0x0050e4d2      3142034c       move.w d2, 0x34c(a0)
           0x0050e4d6      7e00           moveq 0x0, d7
       > 0x0050e4d8      4f81           chk.w d1, d7
          0x0050e4da      48c7           ext.l d7
          0x0050e4dc      2007           move.l d7, d0
          0x0050e4de      e980           asl.l 0x4, d0
          0x0050e4e0      21bab86c0920.  move.l 0x509d4e(pc), 0x34e(a0, d0.l)
          0x0050e4e8      21bab8680920.  move.l 0x509d52(pc), 0x352(a0, d0.l)
          0x0050e4f0      21bab8640920.  move.l 0x509d56(pc), 0x356(a0, d0.l)
          0x0050e4f8      21bab8600920.  move.l 0x509d5a(pc), 0x35a(a0, d0.l)
          0x0050e500      5247           addq.w 0x1, d7
          0x0050e502      be41           cmp.w d1, d7
       < 0x0050e504      6fd2           ble.b 0x50e4d8
           0x0050e506      f2024000       fmove.l d2, fp0
           0x0050e50a      f2286400034e   fmove.s fp0, 0x34e(a0)
           0x0050e510      2168060a0352   move.l 0x60a(a0), 0x352(a0)
           0x0050e516      2168060e0356   move.l 0x60e(a0), 0x356(a0)
           0x0050e51c      42a8035a       clr.l 0x35a(a0)
           0x0050e520      f23c40000000.  fmove.l 0x11, fp0
           0x0050e528      f2286400035e   fmove.s fp0, 0x35e(a0)
           0x0050e52e      216806120362   move.l 0x612(a0), 0x362(a0)
           0x0050e534      2168060e0366   move.l 0x60e(a0), 0x366(a0)
           0x0050e53a      42a8036a       clr.l 0x36a(a0)
           0x0050e53e      f23c40000000.  fmove.l 0x121, fp0
           0x0050e546      f2286400036e   fmove.s fp0, 0x36e(a0)
           0x0050e54c      216806120372   move.l 0x612(a0), 0x372(a0)
           0x0050e552      216806160376   move.l 0x616(a0), 0x376(a0)
           0x0050e558      42a8037a       clr.l 0x37a(a0)
           0x0050e55c      f23c40000000.  fmove.l 0x111, fp0
           0x0050e564      f2286400037e   fmove.s fp0, 0x37e(a0)
           0x0050e56a      2168060a0382   move.l 0x60a(a0), 0x382(a0)
           0x0050e570      216806160386   move.l 0x616(a0), 0x386(a0)
           0x0050e576      42a8038a       clr.l 0x38a(a0)
           0x0050e57a      2f13           move.l (a3), -(a7)
           0x0050e57c      2f3ab7e0       move.l 0x509d5e(pc), -(a7)
           0x0050e580      1f02           move.b d2, -(a7)
           0x0050e582      4eb90075f4d8   jsr MENUKEYFRMCOM.del_keyfrm
           0x0050e588      dec3           adda.w d3, a7
           0x0050e58a      217ab7d60338   move.l 0x509d62(pc), 0x338(a0)
       < 0x0050e590      600001dc       bra.w 0x50e76e
       > 0x0050e594      554f           subq.w 0x2, a7
           0x0050e596      3f390083e3ce   move.w 0x83e3ce, -(a7)
           0x0050e59c      4eb900480fc2   jsr MENUCOM.get_boxon
           0x0050e5a2      544f           addq.w 0x2, a7
           0x0050e5a4      4a1f           tst.b (a7)+
       < 0x0050e5a6      67000086       beq.w 0x50e62e
          0x0050e5aa      2053           movea.l (a3), a0
          0x0050e5ac      b1e8fffc       cmpa.l -0x4(a0), a0
      < 0x0050e5b0      6702           beq.b 0x50e5b4
         0x0050e5b2      4e4d           trap 0xd
      > 0x0050e5b4      317c0002034c   move.w 0x2, 0x34c(a0)
          0x0050e5ba      7e00           moveq 0x0, d7
      > 0x0050e5bc      4f81           chk.w d1, d7
         0x0050e5be      48c7           ext.l d7
         0x0050e5c0      2007           move.l d7, d0
         0x0050e5c2      e980           asl.l 0x4, d0
         0x0050e5c4      21bab7a00920.  move.l 0x509d66(pc), 0x34e(a0, d0.l)
         0x0050e5cc      21bab79c0920.  move.l 0x509d6a(pc), 0x352(a0, d0.l)
         0x0050e5d4      21bab7980920.  move.l 0x509d6e(pc), 0x356(a0, d0.l)
         0x0050e5dc      21bab7940920.  move.l 0x509d72(pc), 0x35a(a0, d0.l)
         0x0050e5e4      5247           addq.w 0x1, d7
         0x0050e5e6      be41           cmp.w d1, d7
      < 0x0050e5e8      6fd2           ble.b 0x50e5bc
          0x0050e5ea      594f           subq.w 0x4, a7
          0x0050e5ec      3f390083e3d2   move.w 0x83e3d2, -(a7)
          0x0050e5f2      4e92           jsr (a2)                    ; fcn.00000009+0x2
          0x0050e5f4      544f           addq.w 0x2, a7
          0x0050e5f6      2157034e       move.l (a7), 0x34e(a0)
          0x0050e5fa      3f390083e3d2   move.w 0x83e3d2, -(a7)
          0x0050e600      4e92           jsr (a2)                    ; fcn.00000009+0x2
          0x0050e602      544f           addq.w 0x2, a7
          0x0050e604      21570352       move.l (a7), 0x352(a0)
          0x0050e608      3f390083e3d4   move.w 0x83e3d4, -(a7)
          0x0050e60e      4e92           jsr (a2)                    ; fcn.00000009+0x2
          0x0050e610      544f           addq.w 0x2, a7
          0x0050e612      21570356       move.l (a7), 0x356(a0)
          0x0050e616      3f390083e3d6   move.w 0x83e3d6, -(a7)
          0x0050e61c      4e92           jsr (a2)                    ; fcn.00000009+0x2
          0x0050e61e      544f           addq.w 0x2, a7
          0x0050e620      215f035a       move.l (a7)+, 0x35a(a0)
          0x0050e624      217ab7500338   move.l 0x509d76(pc), 0x338(a0)
      < 0x0050e62a      60000142       bra.w 0x50e76e
      > 0x0050e62e      554f           subq.w 0x2, a7
          0x0050e630      3f390083e3d8   move.w 0x83e3d8, -(a7)
          0x0050e636      4eb900480fc2   jsr MENUCOM.get_boxon
          0x0050e63c      544f           addq.w 0x2, a7
          0x0050e63e      4a1f           tst.b (a7)+
      < 0x0050e640      6776           beq.b 0x50e6b8
         0x0050e642      2053           movea.l (a3), a0
         0x0050e644      b1e8fffc       cmpa.l -0x4(a0), a0
     < 0x0050e648      6702           beq.b 0x50e64c
        0x0050e64a      4e4d           trap 0xd
     > 0x0050e64c      317c0003034c   move.w 0x3, 0x34c(a0)
         0x0050e652      7e00           moveq 0x0, d7
     > 0x0050e654      4f81           chk.w d1, d7
        0x0050e656      48c7           ext.l d7
        0x0050e658      2007           move.l d7, d0
        0x0050e65a      e980           asl.l 0x4, d0
        0x0050e65c      21bab71c0920.  move.l 0x509d7a(pc), 0x34e(a0, d0.l)
        0x0050e664      21bab7180920.  move.l 0x509d7e(pc), 0x352(a0, d0.l)
        0x0050e66c      21bab7140920.  move.l 0x509d82(pc), 0x356(a0, d0.l)
        0x0050e674      21bab7100920.  move.l 0x509d86(pc), 0x35a(a0, d0.l)
        0x0050e67c      5247           addq.w 0x1, d7
        0x0050e67e      be41           cmp.w d1, d7
     < 0x0050e680      6fd2           ble.b 0x50e654
         0x0050e682      594f           subq.w 0x4, a7
         0x0050e684      3f390083e3da   move.w 0x83e3da, -(a7)
         0x0050e68a      4e92           jsr (a2)                    ; fcn.00000009+0x2
         0x0050e68c      544f           addq.w 0x2, a7
         0x0050e68e      2157034e       move.l (a7), 0x34e(a0)
         0x0050e692      3f390083e3dc   move.w 0x83e3dc, -(a7)
         0x0050e698      4e92           jsr (a2)                    ; fcn.00000009+0x2
         0x0050e69a      544f           addq.w 0x2, a7
         0x0050e69c      21570352       move.l (a7), 0x352(a0)
         0x0050e6a0      3f390083e3de   move.w 0x83e3de, -(a7)
         0x0050e6a6      4e92           jsr (a2)                    ; fcn.00000009+0x2
         0x0050e6a8      544f           addq.w 0x2, a7
         0x0050e6aa      215f0356       move.l (a7)+, 0x356(a0)
         0x0050e6ae      217ab6da0338   move.l 0x509d8a(pc), 0x338(a0)
     < 0x0050e6b4      600000b8       bra.w 0x50e76e
     > 0x0050e6b8      554f           subq.w 0x2, a7
         0x0050e6ba      3f390083e3e0   move.w 0x83e3e0, -(a7)
         0x0050e6c0      4eb900480fc2   jsr MENUCOM.get_boxon
         0x0050e6c6      544f           addq.w 0x2, a7
         0x0050e6c8      4a1f           tst.b (a7)+
     < 0x0050e6ca      67000084       beq.w 0x50e750
        0x0050e6ce      2053           movea.l (a3), a0
        0x0050e6d0      b1e8fffc       cmpa.l -0x4(a0), a0
    < 0x0050e6d4      6702           beq.b 0x50e6d8
       0x0050e6d6      4e4d           trap 0xd
    > 0x0050e6d8      317c0004034c   move.w 0x4, 0x34c(a0)
        0x0050e6de      7e00           moveq 0x0, d7
    > 0x0050e6e0      4f81           chk.w d1, d7
       0x0050e6e2      48c7           ext.l d7
       0x0050e6e4      2007           move.l d7, d0
       0x0050e6e6      e980           asl.l 0x4, d0
       0x0050e6e8      21bab6a40920.  move.l 0x509d8e(pc), 0x34e(a0, d0.l)
       0x0050e6f0      21bab6a00920.  move.l 0x509d92(pc), 0x352(a0, d0.l)
       0x0050e6f8      21bab69c0920.  move.l 0x509d96(pc), 0x356(a0, d0.l)
       0x0050e700      21bab6980920.  move.l 0x509d9a(pc), 0x35a(a0, d0.l)
       0x0050e708      5247           addq.w 0x1, d7
       0x0050e70a      be41           cmp.w d1, d7
    < 0x0050e70c      6fd2           ble.b 0x50e6e0
        0x0050e70e      594f           subq.w 0x4, a7
        0x0050e710      3f390083e3e2   move.w 0x83e3e2, -(a7)
        0x0050e716      4e92           jsr (a2)                    ; fcn.00000009+0x2
        0x0050e718      544f           addq.w 0x2, a7
        0x0050e71a      2157034e       move.l (a7), 0x34e(a0)
        0x0050e71e      3f390083e3e4   move.w 0x83e3e4, -(a7)
        0x0050e724      4e92           jsr (a2)                    ; fcn.00000009+0x2
        0x0050e726      544f           addq.w 0x2, a7
        0x0050e728      21570352       move.l (a7), 0x352(a0)
        0x0050e72c      3f390083e3e6   move.w 0x83e3e6, -(a7)
        0x0050e732      4e92           jsr (a2)                    ; fcn.00000009+0x2
        0x0050e734      544f           addq.w 0x2, a7
        0x0050e736      21570356       move.l (a7), 0x356(a0)
        0x0050e73a      3f390083e3e8   move.w 0x83e3e8, -(a7)
        0x0050e740      4e92           jsr (a2)                    ; fcn.00000009+0x2
        0x0050e742      544f           addq.w 0x2, a7
        0x0050e744      215f035a       move.l (a7)+, 0x35a(a0)
        0x0050e748      217ab6540338   move.l 0x509d9e(pc), 0x338(a0)
    < 0x0050e74e      601e           bra.b 0x50e76e
    > 0x0050e750      2053           movea.l (a3), a0
        0x0050e752      b1e8fffc       cmpa.l -0x4(a0), a0
    < 0x0050e756      6702           beq.b 0x50e75a
       0x0050e758      4e4d           trap 0xd
    > 0x0050e75a      2253           movea.l (a3), a1
        0x0050e75c      b3e9fffc       cmpa.l -0x4(a1), a1
    < 0x0050e760      6702           beq.b 0x50e764
       0x0050e762      4e4d           trap 0xd
    > 0x0050e764      4269034c       clr.w 0x34c(a1)
        0x0050e768      217ab5360338   move.l 0x509ca0(pc), 0x338(a0)
    > 0x0050e76e      42790083d2e2   clr.w 0x83d2e2
            0x0050e774      f21fd080       fmovem (a7)+, fp0
            0x0050e778      4cdf0f8f       movem.l (a7)+, d0-d3/d7/a0-a3
            0x0050e77c      4e5e           unlk a6
            0x0050e77e      4e75           rts
            ; CALL XREF from MENU3DCOM.PAS.hit_3d @ 0x50eeae
 24: MENU3DCOM.PAS.do_original ();
           0x0050e780      4e56ff7c       link.w a6, 0xff7c
           0x0050e784      bfd5           cmpa.l (a5), a7
       < 0x0050e786      6206           bhi.b 0x50e78e
          0x0050e788      44fc0002       move.w 0x2, ccr
          0x0050e78c      4e76           trapv
       > 0x0050e78e      defc0084       adda.w 0x84, a7
           0x0050e792      48e7fff0       movem.l d0-d7/a0-a3, -(a7)
           0x0050e796      f227e001       fmovem fp0, -(a7)
            0x0050e79a      47ec0004       lea.l 0x4(a4), a3
            0x0050e79e      7401           moveq 0x1, d2
            0x0050e7a0      7600           moveq 0x0, d3
            0x0050e7a2      7805           moveq 0x5, d4
            0x0050e7a4      7a02           moveq 0x2, d5
            0x0050e7a6      7c20           moveq 0x20, d6
            0x0050e7a8      3e3c0080       move.w 0x80, d7
            0x0050e7ac      422e0008       clr.b 0x8(a6)
            0x0050e7b0      302c0022       move.w 0x22(a4), d0
            0x0050e7b4      b0790083e3fe   cmp.w 0x83e3fe, d0
        < 0x0050e7ba      670004b4       beq.w 0x50ec70
           0x0050e7be      554f           subq.w 0x2, a7
           0x0050e7c0      3f390083e3fe   move.w 0x83e3fe, -(a7)
           0x0050e7c6      4eb900480fc2   jsr MENUCOM.get_boxon
           0x0050e7cc      544f           addq.w 0x2, a7
           0x0050e7ce      4a1f           tst.b (a7)+
       < 0x0050e7d0      6700049e       beq.w 0x50ec70
          0x0050e7d4      1d420008       move.b d2, 0x8(a6)
          0x0050e7d8      19420015       move.b d2, 0x15(a4)
          0x0050e7dc      19420016       move.b d2, 0x16(a4)
          0x0050e7e0      b0790083e3c4   cmp.w 0x83e3c4, d0
      < 0x0050e7e6      6718           beq.b 0x50e800
         0x0050e7e8      b0790083e3ce   cmp.w 0x83e3ce, d0
     < 0x0050e7ee      6710           beq.b 0x50e800
        0x0050e7f0      b0790083e3d8   cmp.w 0x83e3d8, d0
    < 0x0050e7f6      6708           beq.b 0x50e800
       0x0050e7f8      b0790083e3e0   cmp.w 0x83e3e0, d0
   < 0x0050e7fe      663a           bne.b 0x50e83a
   > 0x0050e800      4ebaf3c0       jsr MENU3DCOM.PAS.save_undo(pc)
         0x0050e804      4a6c0020       tst.w 0x20(a4)
     < 0x0050e808      660c           bne.b 0x50e816
        0x0050e80a      3f00           move.w d0, -(a7)
        0x0050e80c      1f02           move.b d2, -(a7)
        0x0050e80e      4eb900483776   jsr MENUCOM.swtch_box
        0x0050e814      584f           addq.w 0x4, a7
     > 0x0050e816      4227           clr.b -(a7)
         0x0050e818      4227           clr.b -(a7)
         0x0050e81a      4a6c0020       tst.w 0x20(a4)
     < 0x0050e81e      6702           beq.b 0x50e822
        0x0050e820      5217           addq.b 0x1, (a7)
     > 0x0050e822      4ebafc0a       jsr MENU3DCOM.PAS.do_orig_shape(pc)
         0x0050e826      584f           addq.w 0x4, a7
         0x0050e828      2053           movea.l (a3), a0
         0x0050e82a      b1e8fffc       cmpa.l -0x4(a0), a0
     < 0x0050e82e      6702           beq.b 0x50e832
        0x0050e830      4e4d           trap 0xd
     > 0x0050e832      28a80338       move.l 0x338(a0), (a4)
     < 0x0050e836      60000428       bra.w 0x50ec60
   > 0x0050e83a      b047           cmp.w d7, d0
     < 0x0050e83c      664c           bne.b 0x50e88a
        0x0050e83e      594f           subq.w 0x4, a7
        0x0050e840      1f02           move.b d2, -(a7)
        0x0050e842      4eb900670a94   jsr PASTECOM.get_cutout
        0x0050e848      544f           addq.w 0x2, a7
        0x0050e84a      269f           move.l (a7)+, (a3)
        0x0050e84c      2053           movea.l (a3), a0
        0x0050e84e      b1e8fffc       cmpa.l -0x4(a0), a0
    < 0x0050e852      6702           beq.b 0x50e856
       0x0050e854      4e4d           trap 0xd
    > 0x0050e856      43e80138       lea.l 0x138(a0), a1
        0x0050e85a      45fab216       lea.l 0x509a72(pc), a2
        0x0050e85e      7211           moveq 0x11, d1
    > 0x0050e860      22da           move.l (a2)+, (a1)+
    < 0x0050e862      51c9fffc       dbra d1, 0x50e860
        0x0050e866      41e800f0       lea.l 0xf0(a0), a0
        0x0050e86a      43fab206       lea.l 0x509a72(pc), a1
        0x0050e86e      7211           moveq 0x11, d1
    > 0x0050e870      20d9           move.l (a1)+, (a0)+
    < 0x0050e872      51c9fffc       dbra d1, 0x50e870
        0x0050e876      28bab52a       move.l 0x509da2(pc), (a4)
        0x0050e87a      3f07           move.w d7, -(a7)
        0x0050e87c      4227           clr.b -(a7)
  > 0x0050e87e      4eb900483776   jsr MENUCOM.swtch_box
     0x0050e884      584f           addq.w 0x4, a7
  < 0x0050e886      600003d8       bra.w 0x50ec60
  > 0x0050e88a      b0790083e400   cmp.w 0x83e400, d0
  < 0x0050e890      660000d8       bne.w 0x50e96a
     0x0050e894      2053           movea.l (a3), a0
     0x0050e896      b1e8fffc       cmpa.l -0x4(a0), a0
  < 0x0050e89a      6702           beq.b 0x50e89e
     0x0050e89c      4e4d           trap 0xd
  > 0x0050e89e      4ebaf322       jsr MENU3DCOM.PAS.save_undo(pc)
     0x0050e8a2      43e80138       lea.l 0x138(a0), a1
     0x0050e8a6      45fab1ca       lea.l 0x509a72(pc), a2
     0x0050e8aa      7211           moveq 0x11, d1
  > 0x0050e8ac      22da           move.l (a2)+, (a1)+
  < 0x0050e8ae      51c9fffc       dbra d1, 0x50e8ac
     0x0050e8b2      486800f0       pea.l 0xf0(a0)
     0x0050e8b6      486800f0       pea.l 0xf0(a0)
     0x0050e8ba      48680138       pea.l 0x138(a0)
     0x0050e8be      486802a0       pea.l 0x2a0(a0)
     0x0050e8c2      1f05           move.b d5, -(a7)
     0x0050e8c4      1f04           move.b d4, -(a7)
     0x0050e8c6      2f3ab4e6       move.l 0x509dae(pc), -(a7)
     0x0050e8ca      2f3ab4de       move.l 0x509daa(pc), -(a7)
     0x0050e8ce      2f3ab4d6       move.l 0x509da6(pc), -(a7)
     0x0050e8d2      4eb90067ab4e   jsr THREEDMAV.do_pos
     0x0050e8d8      dec6           adda.w d6, a7
     0x0050e8da      43e800f0       lea.l 0xf0(a0), a1
     0x0050e8de      45fab192       lea.l 0x509a72(pc), a2
     0x0050e8e2      7211           moveq 0x11, d1
  > 0x0050e8e4      22da           move.l (a2)+, (a1)+
  < 0x0050e8e6      51c9fffc       dbra d1, 0x50e8e4
     0x0050e8ea      486800f0       pea.l 0xf0(a0)
     0x0050e8ee      486800f0       pea.l 0xf0(a0)
     0x0050e8f2      48680138       pea.l 0x138(a0)
     0x0050e8f6      486802a0       pea.l 0x2a0(a0)
     0x0050e8fa      4227           clr.b -(a7)
     0x0050e8fc      1f04           move.b d4, -(a7)
     0x0050e8fe      2f2800c8       move.l 0xc8(a0), -(a7)
     0x0050e902      2f2800c4       move.l 0xc4(a0), -(a7)
     0x0050e906      2f2800c0       move.l 0xc0(a0), -(a7)
     0x0050e90a      4eb90067ab4e   jsr THREEDMAV.do_pos
     0x0050e910      dec6           adda.w d6, a7
     0x0050e912      317c400002e8   move.w 0x4000, 0x2e8(a0)
     0x0050e918      217ab49802a0   move.l 0x509db2(pc), 0x2a0(a0)
     0x0050e91e      217ab49602a4   move.l 0x509db6(pc), 0x2a4(a0)
     0x0050e924      217ab49402a8   move.l 0x509dba(pc), 0x2a8(a0)
     0x0050e92a      554f           subq.w 0x2, a7
     0x0050e92c      3f07           move.w d7, -(a7)
     0x0050e92e      4eb900480fc2   jsr MENUCOM.get_boxon
     0x0050e934      544f           addq.w 0x2, a7
     0x0050e936      4a1f           tst.b (a7)+
  < 0x0050e938      6708           beq.b 0x50e942
     0x0050e93a      28bab482       move.l 0x509dbe(pc), (a4)
  < 0x0050e93e      60000320       bra.w 0x50ec60
  > 0x0050e942      43e802b8       lea.l 0x2b8(a0), a1
     0x0050e946      45e80056       lea.l 0x56(a0), a2
     0x0050e94a      7207           moveq 0x7, d1
  > 0x0050e94c      22da           move.l (a2)+, (a1)+
  < 0x0050e94e      51c9fffc       dbra d1, 0x50e94c
     0x0050e952      1f02           move.b d2, -(a7)
     0x0050e954      1f02           move.b d2, -(a7)
     0x0050e956      4ebafad6       jsr MENU3DCOM.PAS.do_orig_shape(pc)
     0x0050e95a      584f           addq.w 0x4, a7
     0x0050e95c      28a80338       move.l 0x338(a0), (a4)
     0x0050e960      0094bf000000   ori.l 0xbf000000, (a4)
  < 0x0050e966      600002f8       bra.w 0x50ec60
  > 0x0050e96a      b0790083e358   cmp.w 0x83e358, d0
  < 0x0050e970      663e           bne.b 0x50e9b0
     0x0050e972      2053           movea.l (a3), a0
     0x0050e974      b1e8fffc       cmpa.l -0x4(a0), a0
  < 0x0050e978      6702           beq.b 0x50e97c
     0x0050e97a      4e4d           trap 0xd
  > 0x0050e97c      4ebaf244       jsr MENU3DCOM.PAS.save_undo(pc)
     0x0050e980      28bab444       move.l 0x509dc6(pc), (a4)
     0x0050e984      486800f0       pea.l 0xf0(a0)
     0x0050e988      486800f0       pea.l 0xf0(a0)
     0x0050e98c      48680138       pea.l 0x138(a0)
     0x0050e990      486802a0       pea.l 0x2a0(a0)
     0x0050e994      4227           clr.b -(a7)
     0x0050e996      1f04           move.b d4, -(a7)
     0x0050e998      2f2800c8       move.l 0xc8(a0), -(a7)
     0x0050e99c      2f2800c4       move.l 0xc4(a0), -(a7)
     0x0050e9a0      2f2800c0       move.l 0xc0(a0), -(a7)
     0x0050e9a4      4eb90067ab4e   jsr THREEDMAV.do_pos
  > 0x0050e9aa      dec6           adda.w d6, a7
  < 0x0050e9ac      600002b2       bra.w 0x50ec60
  > 0x0050e9b0      b0790083e360   cmp.w 0x83e360, d0
  < 0x0050e9b6      663c           bne.b 0x50e9f4
     0x0050e9b8      2053           movea.l (a3), a0
     0x0050e9ba      b1e8fffc       cmpa.l -0x4(a0), a0
  < 0x0050e9be      6702           beq.b 0x50e9c2
     0x0050e9c0      4e4d           trap 0xd
  > 0x0050e9c2      4ebaf1fe       jsr MENU3DCOM.PAS.save_undo(pc)
     0x0050e9c6      28bab402       move.l 0x509dca(pc), (a4)
     0x0050e9ca      486800f0       pea.l 0xf0(a0)
     0x0050e9ce      486800f0       pea.l 0xf0(a0)
     0x0050e9d2      48680138       pea.l 0x138(a0)
     0x0050e9d6      486802a0       pea.l 0x2a0(a0)
     0x0050e9da      4227           clr.b -(a7)
     0x0050e9dc      1f3c0006       move.b 0x6, -(a7)
     0x0050e9e0      2f3ab3f4       move.l 0x509dd6(pc), -(a7)
     0x0050e9e4      2f3ab3ec       move.l 0x509dd2(pc), -(a7)
     0x0050e9e8      2f3ab3e4       move.l 0x509dce(pc), -(a7)
     0x0050e9ec      4eb90067c2ee   jsr THREEDMAV.do_spin
  < 0x0050e9f2      60b6           bra.b 0x50e9aa
  > 0x0050e9f4      b0790083e372   cmp.w 0x83e372, d0
  < 0x0050e9fa      663c           bne.b 0x50ea38
     0x0050e9fc      2053           movea.l (a3), a0
     0x0050e9fe      b1e8fffc       cmpa.l -0x4(a0), a0
  < 0x0050ea02      6702           beq.b 0x50ea06
     0x0050ea04      4e4d           trap 0xd
  > 0x0050ea06      4ebaf1ba       jsr MENU3DCOM.PAS.save_undo(pc)
     0x0050ea0a      28bab3ce       move.l 0x509dda(pc), (a4)
     0x0050ea0e      486800f0       pea.l 0xf0(a0)
     0x0050ea12      486800f0       pea.l 0xf0(a0)
     0x0050ea16      48680138       pea.l 0x138(a0)
     0x0050ea1a      486802a0       pea.l 0x2a0(a0)
     0x0050ea1e      4227           clr.b -(a7)
     0x0050ea20      1f04           move.b d4, -(a7)
     0x0050ea22      2f3ab3c2       move.l 0x509de6(pc), -(a7)
     0x0050ea26      2f3ab3ba       move.l 0x509de2(pc), -(a7)
     0x0050ea2a      2f3ab3b2       move.l 0x509dde(pc), -(a7)
     0x0050ea2e      4eb90067c8c4   jsr THREEDMAV.do_size
  < 0x0050ea34      6000ff74       bra.w 0x50e9aa
  > 0x0050ea38      0c40007f       cmpi.w 0x7f, d0
  < 0x0050ea3c      665a           bne.b 0x50ea98
     0x0050ea3e      2053           movea.l (a3), a0
     0x0050ea40      b1e8fffc       cmpa.l -0x4(a0), a0
  < 0x0050ea44      6702           beq.b 0x50ea48
     0x0050ea46      4e4d           trap 0xd
  > 0x0050ea48      4ebaf178       jsr MENU3DCOM.PAS.save_undo(pc)
     0x0050ea4c      43e802b8       lea.l 0x2b8(a0), a1
     0x0050ea50      45e80056       lea.l 0x56(a0), a2
     0x0050ea54      7207           moveq 0x7, d1
  > 0x0050ea56      22da           move.l (a2)+, (a1)+
  < 0x0050ea58      51c9fffc       dbra d1, 0x50ea56
     0x0050ea5c      48780001       pea.l 0x1
     0x0050ea60      2f28002a       move.l 0x2a(a0), -(a7)
     0x0050ea64      2f280026       move.l 0x26(a0), -(a7)
     0x0050ea68      486800f0       pea.l 0xf0(a0)
     0x0050ea6c      48680138       pea.l 0x138(a0)
     0x0050ea70      486802a0       pea.l 0x2a0(a0)
     0x0050ea74      48680056       pea.l 0x56(a0)
     0x0050ea78      43e802d8       lea.l 0x2d8(a0), a1
     0x0050ea7c      7207           moveq 0x7, d1
  > 0x0050ea7e      2f21           move.l -(a1), -(a7)
  < 0x0050ea80      51c9fffc       dbra d1, 0x50ea7e
     0x0050ea84      1f05           move.b d5, -(a7)
     0x0050ea86      4eb90067ddda   jsr THREEDMAV.calc_pin_transf
     0x0050ea8c      defc003e       adda.w 0x3e, a7
     0x0050ea90      28bab358       move.l 0x509dea(pc), (a4)
  < 0x0050ea94      600001ca       bra.w 0x50ec60
  > 0x0050ea98      b0790083e38a   cmp.w 0x83e38a, d0
  < 0x0050ea9e      6634           bne.b 0x50ead4
     0x0050eaa0      2053           movea.l (a3), a0
     0x0050eaa2      b1e8fffc       cmpa.l -0x4(a0), a0
  < 0x0050eaa6      6702           beq.b 0x50eaaa
     0x0050eaa8      4e4d           trap 0xd
  > 0x0050eaaa      4ebaf116       jsr MENU3DCOM.PAS.save_undo(pc)
     0x0050eaae      422c0016       clr.b 0x16(a4)
     0x0050eab2      43e80056       lea.l 0x56(a0), a1
     0x0050eab6      45e80036       lea.l 0x36(a0), a2
     0x0050eaba      7207           moveq 0x7, d1
  > 0x0050eabc      22da           move.l (a2)+, (a1)+
  < 0x0050eabe      51c9fffc       dbra d1, 0x50eabc
     0x0050eac2      3f00           move.w d0, -(a7)
     0x0050eac4      4227           clr.b -(a7)
     0x0050eac6      322c0020       move.w 0x20(a4), d1
     0x0050eaca      b242           cmp.w d2, d1
  < 0x0050eacc      6702           beq.b 0x50ead0
     0x0050eace      5217           addq.b 0x1, (a7)
  < 0x0050ead0      6000fdac       bra.w 0x50e87e
   > 0x0050ead4      b0790083e37a   cmp.w 0x83e37a, d0
   < 0x0050eada      660000aa       bne.w 0x50eb86
      0x0050eade      2053           movea.l (a3), a0
      0x0050eae0      b1e8fffc       cmpa.l -0x4(a0), a0
  < 0x0050eae4      6702           beq.b 0x50eae8
     0x0050eae6      4e4d           trap 0xd
  > 0x0050eae8      4ebaf0d8       jsr MENU3DCOM.PAS.save_undo(pc)
      0x0050eaec      422c0016       clr.b 0x16(a4)
      0x0050eaf0      554f           subq.w 0x2, a7
      0x0050eaf2      3f390083e358   move.w 0x83e358, -(a7)
      0x0050eaf8      4eb900480fc2   jsr MENUCOM.get_boxon
      0x0050eafe      544f           addq.w 0x2, a7
      0x0050eb00      4a1f           tst.b (a7)+
  < 0x0050eb02      672c           beq.b 0x50eb30
     0x0050eb04      28bab2e8       move.l 0x509dee(pc), (a4)
     0x0050eb08      486800f0       pea.l 0xf0(a0)
     0x0050eb0c      486800f0       pea.l 0xf0(a0)
     0x0050eb10      48680138       pea.l 0x138(a0)
     0x0050eb14      486802a0       pea.l 0x2a0(a0)
     0x0050eb18      1f05           move.b d5, -(a7)
     0x0050eb1a      1f04           move.b d4, -(a7)
     0x0050eb1c      2f3ab2dc       move.l 0x509dfa(pc), -(a7)
     0x0050eb20      2f3ab2d4       move.l 0x509df6(pc), -(a7)
     0x0050eb24      2f3ab2cc       move.l 0x509df2(pc), -(a7)
     0x0050eb28      4eb90067ab4e   jsr THREEDMAV.do_pos
  < 0x0050eb2e      6040           bra.b 0x50eb70
  > 0x0050eb30      554f           subq.w 0x2, a7
      0x0050eb32      3f390083e360   move.w 0x83e360, -(a7)
      0x0050eb38      4eb900480fc2   jsr MENUCOM.get_boxon
      0x0050eb3e      544f           addq.w 0x2, a7
      0x0050eb40      4a1f           tst.b (a7)+
  < 0x0050eb42      672e           beq.b 0x50eb72
     0x0050eb44      28bab2b8       move.l 0x509dfe(pc), (a4)
     0x0050eb48      486800f0       pea.l 0xf0(a0)
     0x0050eb4c      486800f0       pea.l 0xf0(a0)
     0x0050eb50      48680138       pea.l 0x138(a0)
     0x0050eb54      486802a0       pea.l 0x2a0(a0)
     0x0050eb58      1f05           move.b d5, -(a7)
     0x0050eb5a      1f3c0006       move.b 0x6, -(a7)
     0x0050eb5e      2f3ab2aa       move.l 0x509e0a(pc), -(a7)
     0x0050eb62      2f3ab2a2       move.l 0x509e06(pc), -(a7)
     0x0050eb66      2f3ab29a       move.l 0x509e02(pc), -(a7)
     0x0050eb6a      4eb90067c2ee   jsr THREEDMAV.do_spin
  > 0x0050eb70      dec6           adda.w d6, a7
  > 0x0050eb72      3f2c0022       move.w 0x22(a4), -(a7)
      0x0050eb76      4227           clr.b -(a7)
      0x0050eb78      322c0020       move.w 0x20(a4), d1
      0x0050eb7c      b242           cmp.w d2, d1
  < 0x0050eb7e      6702           beq.b 0x50eb82
     0x0050eb80      5217           addq.b 0x1, (a7)
  < 0x0050eb82      6000fcfa       bra.w 0x50e87e
    > 0x0050eb86      b0790083e3c2   cmp.w 0x83e3c2, d0
    < 0x0050eb8c      6626           bne.b 0x50ebb4
       0x0050eb8e      4ebaf032       jsr MENU3DCOM.PAS.save_undo(pc)
       0x0050eb92      4227           clr.b -(a7)
       0x0050eb94      1f02           move.b d2, -(a7)
       0x0050eb96      4ebaf896       jsr MENU3DCOM.PAS.do_orig_shape(pc)
       0x0050eb9a      584f           addq.w 0x4, a7
       0x0050eb9c      2053           movea.l (a3), a0
       0x0050eb9e      b1e8fffc       cmpa.l -0x4(a0), a0
   < 0x0050eba2      6702           beq.b 0x50eba6
      0x0050eba4      4e4d           trap 0xd
   > 0x0050eba6      28a80338       move.l 0x338(a0), (a4)
       0x0050ebaa      3f2c0022       move.w 0x22(a4), -(a7)
       0x0050ebae      1f02           move.b d2, -(a7)
    < 0x0050ebb0      6000fccc       bra.w 0x50e87e
     > 0x0050ebb4      b0790083e396   cmp.w 0x83e396, d0
     < 0x0050ebba      6650           bne.b 0x50ec0c
        0x0050ebbc      2053           movea.l (a3), a0
        0x0050ebbe      b1e8fffc       cmpa.l -0x4(a0), a0
    < 0x0050ebc2      6702           beq.b 0x50ebc6
       0x0050ebc4      4e4d           trap 0xd
    > 0x0050ebc6      4ebaeffa       jsr MENU3DCOM.PAS.save_undo(pc)
        0x0050ebca      28bab242       move.l 0x509e0e(pc), (a4)
        0x0050ebce      f2034000       fmove.l d3, fp0
        0x0050ebd2      f22864000624   fmove.s fp0, 0x624(a0)
        0x0050ebd8      f2034000       fmove.l d3, fp0
        0x0050ebdc      f22864000628   fmove.s fp0, 0x628(a0)
        0x0050ebe2      f2034000       fmove.l d3, fp0
        0x0050ebe6      f2286400062c   fmove.s fp0, 0x62c(a0)
        0x0050ebec      f2034000       fmove.l d3, fp0
        0x0050ebf0      f22864000630   fmove.s fp0, 0x630(a0)
        0x0050ebf6      f2034000       fmove.l d3, fp0
        0x0050ebfa      f22864000634   fmove.s fp0, 0x634(a0)
        0x0050ec00      f2034000       fmove.l d3, fp0
        0x0050ec04      f22864000638   fmove.s fp0, 0x638(a0)
    < 0x0050ec0a      6054           bra.b 0x50ec60
    > 0x0050ec0c      b0790083e3ac   cmp.w 0x83e3ac, d0
    < 0x0050ec12      6640           bne.b 0x50ec54
       0x0050ec14      28bab08a       move.l 0x509ca0(pc), (a4)
       0x0050ec18      3f390083e3ae   move.w 0x83e3ae, -(a7)
       0x0050ec1e      4227           clr.b -(a7)
       0x0050ec20      4eb900483776   jsr MENUCOM.swtch_box
       0x0050ec26      544f           addq.w 0x2, a7
       0x0050ec28      3eb90083e3b2   move.w 0x83e3b2, (a7)
       0x0050ec2e      4227           clr.b -(a7)
       0x0050ec30      4eb900483776   jsr MENUCOM.swtch_box
       0x0050ec36      544f           addq.w 0x2, a7
       0x0050ec38      3eb90083e3ba   move.w 0x83e3ba, (a7)
       0x0050ec3e      4227           clr.b -(a7)
       0x0050ec40      4eb900483776   jsr MENUCOM.swtch_box
       0x0050ec46      584f           addq.w 0x4, a7
       0x0050ec48      4eb90075cd12   jsr MENUKEYFRMCOM.tryit_trash
       0x0050ec4e      4ebaf2cc       jsr MENU3DCOM.PAS.update_lighting(pc)
   < 0x0050ec52      600c           bra.b 0x50ec60
   > 0x0050ec54      422e0008       clr.b 0x8(a6)
       0x0050ec58      422c0016       clr.b 0x16(a4)
       0x0050ec5c      422c0015       clr.b 0x15(a4)
  > 0x0050ec60      3f390083e3fe   move.w 0x83e3fe, -(a7)
          0x0050ec66      4227           clr.b -(a7)
          0x0050ec68      4eb900483776   jsr MENUCOM.swtch_box
          0x0050ec6e      584f           addq.w 0x4, a7
       > 0x0050ec70      f21fd080       fmovem (a7)+, fp0
            0x0050ec74      4cdf0fff       movem.l (a7)+, d0-d7/a0-a3
            0x0050ec78      4e5e           unlk a6
            0x0050ec7a      4e75           rts
            ; CALL XREF from MENU3DCOM.PAS.hit_3d @ 0x50eea0
 328: MENU3DCOM.PAS.do_delete ();
           0x0050ec7c      4e56ffbe       link.w a6, 0xffbe
           0x0050ec80      bfd5           cmpa.l (a5), a7
       < 0x0050ec82      6206           bhi.b 0x50ec8a
          0x0050ec84      44fc0002       move.w 0x2, ccr
          0x0050ec88      4e76           trapv
       > 0x0050ec8a      defc003e       adda.w 0x3e, a7
           0x0050ec8e      48e7fcf0       movem.l d0-d5/a0-a3, -(a7)
           0x0050ec92      43eefffc       lea.l -0x4(a6), a1
           0x0050ec96      45ec0004       lea.l 0x4(a4), a2
           0x0050ec9a      47f900480fc2   lea.l MENUCOM.get_boxon, a3
           0x0050eca0      7401           moveq 0x1, d2
           0x0050eca2      767f           moveq 0x7f, d3
           0x0050eca4      383c0080       move.w 0x80, d4
           0x0050eca8      7a0a           moveq 0xa, d5
           0x0050ecaa      22baaff4       move.l 0x509ca0(pc), (a1)
           0x0050ecae      422e0008       clr.b 0x8(a6)
           0x0050ecb2      554f           subq.w 0x2, a7
           0x0050ecb4      3f3c00a3       move.w 0xa3, -(a7)
           0x0050ecb8      4e93           jsr (a3)                    ; fcn.0000000c
           0x0050ecba      544f           addq.w 0x2, a7
           0x0050ecbc      4a1f           tst.b (a7)+
       < 0x0050ecbe      67000160       beq.w 0x50ee20
          0x0050ecc2      302c0022       move.w 0x22(a4), d0
          0x0050ecc6      b0790083e400   cmp.w 0x83e400, d0
      < 0x0050eccc      661a           bne.b 0x50ece8
         0x0050ecce      2052           movea.l (a2), a0
         0x0050ecd0      b1e8fffc       cmpa.l -0x4(a0), a0
     < 0x0050ecd4      6702           beq.b 0x50ecd8
        0x0050ecd6      4e4d           trap 0xd
     > 0x0050ecd8      223cbf000000   move.l 0xbf000000, d1
         0x0050ecde      82a80338       or.l 0x338(a0), d1
         0x0050ece2      2281           move.l d1, (a1)
     < 0x0050ece4      6000009c       bra.w 0x50ed82
     > 0x0050ece8      b0790083e358   cmp.w 0x83e358, d0
     < 0x0050ecee      661c           bne.b 0x50ed0c
        0x0050ecf0      554f           subq.w 0x2, a7
        0x0050ecf2      3f390083e37a   move.w 0x83e37a, -(a7)
        0x0050ecf8      4e93           jsr (a3)                    ; fcn.0000000c
        0x0050ecfa      544f           addq.w 0x2, a7
        0x0050ecfc      4a1f           tst.b (a7)+
    < 0x0050ecfe      6706           beq.b 0x50ed06
       0x0050ed00      22bab114       move.l 0x509e16(pc), (a1)
   < 0x0050ed04      607c           bra.b 0x50ed82
   > 0x0050ed06      22bab112       move.l 0x509e1a(pc), (a1)
   < 0x0050ed0a      6076           bra.b 0x50ed82
   > 0x0050ed0c      b0790083e360   cmp.w 0x83e360, d0
   < 0x0050ed12      661c           bne.b 0x50ed30
      0x0050ed14      554f           subq.w 0x2, a7
      0x0050ed16      3f390083e37a   move.w 0x83e37a, -(a7)
      0x0050ed1c      4e93           jsr (a3)                    ; fcn.0000000c
      0x0050ed1e      544f           addq.w 0x2, a7
      0x0050ed20      4a1f           tst.b (a7)+
  < 0x0050ed22      6706           beq.b 0x50ed2a
     0x0050ed24      22bab0f8       move.l 0x509e1e(pc), (a1)
 < 0x0050ed28      6058           bra.b 0x50ed82
 > 0x0050ed2a      22bab0f6       move.l 0x509e22(pc), (a1)
 < 0x0050ed2e      6052           bra.b 0x50ed82
 > 0x0050ed30      b0790083e372   cmp.w 0x83e372, d0
 < 0x0050ed36      6606           bne.b 0x50ed3e
    0x0050ed38      22bab0ec       move.l 0x509e26(pc), (a1)
 < 0x0050ed3c      6044           bra.b 0x50ed82
 > 0x0050ed3e      b043           cmp.w d3, d0
 < 0x0050ed40      6606           bne.b 0x50ed48
    0x0050ed42      22bab0e6       move.l 0x509e2a(pc), (a1)
 < 0x0050ed46      603a           bra.b 0x50ed82
 > 0x0050ed48      b0790083e3c2   cmp.w 0x83e3c2, d0
 < 0x0050ed4e      6610           bne.b 0x50ed60
    0x0050ed50      2052           movea.l (a2), a0
    0x0050ed52      b1e8fffc       cmpa.l -0x4(a0), a0
 < 0x0050ed56      6702           beq.b 0x50ed5a
    0x0050ed58      4e4d           trap 0xd
 > 0x0050ed5a      22a80338       move.l 0x338(a0), (a1)
 < 0x0050ed5e      6022           bra.b 0x50ed82
 > 0x0050ed60      b044           cmp.w d4, d0
 < 0x0050ed62      6612           bne.b 0x50ed76
    0x0050ed64      22bab0c8       move.l 0x509e2e(pc), (a1)
    0x0050ed68      3f04           move.w d4, -(a7)
    0x0050ed6a      4227           clr.b -(a7)
    0x0050ed6c      4eb900483776   jsr MENUCOM.swtch_box
    0x0050ed72      584f           addq.w 0x4, a7
 < 0x0050ed74      600c           bra.b 0x50ed82
 > 0x0050ed76      b0790083e396   cmp.w 0x83e396, d0
 < 0x0050ed7c      6604           bne.b 0x50ed82
    0x0050ed7e      22bab0b2       move.l 0x509e32(pc), (a1)
 > 0x0050ed82      2211           move.l (a1), d1
          0x0050ed84      b2baaefe       cmp.l 0x509c84(pc), d1
      < 0x0050ed88      6700008a       beq.w 0x50ee14
         0x0050ed8c      2f12           move.l (a2), -(a7)
         0x0050ed8e      2f11           move.l (a1), -(a7)
         0x0050ed90      4227           clr.b -(a7)
         0x0050ed92      b044           cmp.w d4, d0
     < 0x0050ed94      6602           bne.b 0x50ed98
        0x0050ed96      5217           addq.b 0x1, (a7)
     > 0x0050ed98      4eb90075f4d8   jsr MENUKEYFRMCOM.del_keyfrm
         0x0050ed9e      5c4f           addq.w 0x6, a7
         0x0050eda0      2e92           move.l (a2), (a7)
         0x0050eda2      9ec5           suba.w d5, a7
         0x0050eda4      3f3c00a6       move.w 0xa6, -(a7)
         0x0050eda8      4eb90048d992   jsr MENU2COM.get_numeric_val
         0x0050edae      544f           addq.w 0x2, a7
         0x0050edb0      4eb9004081f8   jsr p_trunc
         0x0050edb6      584f           addq.w 0x4, a7
         0x0050edb8      221f           move.l (a7)+, d1
         0x0050edba      5381           subq.l 0x1, d1
         0x0050edbc      0481ffff8000   subi.l 0xffff8000, d1
         0x0050edc2      433c0000ffff   chk.l 0xffff, d1
          0x0050edc8      0681ffff8000   addi.l 0xffff8000, d1
          0x0050edce      3e81           move.w d1, (a7)
          0x0050edd0      2052           movea.l (a2), a0
          0x0050edd2      b1e8fffc       cmpa.l -0x4(a0), a0
      < 0x0050edd6      6702           beq.b 0x50edda
         0x0050edd8      4e4d           trap 0xd
      > 0x0050edda      12280332       move.b 0x332(a0), d1
          0x0050edde      4881           ext.w d1
          0x0050ede0      43bc0002       chk.w 0x2, d1
          0x0050ede4      1f01           move.b d1, -(a7)
          0x0050ede6      4227           clr.b -(a7)
          0x0050ede8      554f           subq.w 0x2, a7
          0x0050edea      3f03           move.w d3, -(a7)
          0x0050edec      4e93           jsr (a3)                    ; fcn.0000000c
          0x0050edee      544f           addq.w 0x2, a7
          0x0050edf0      1217           move.b (a7), d1
          0x0050edf2      4881           ext.w d1
          0x0050edf4      4382           chk.w d2, d1
          0x0050edf6      1e81           move.b d1, (a7)
          0x0050edf8      4227           clr.b -(a7)
          0x0050edfa      4eb90075df48   jsr MENUKEYFRMCOM.move_effect
          0x0050ee00      dec5           adda.w d5, a7
          0x0050ee02      2e92           move.l (a2), (a7)
          0x0050ee04      4eb90066ff74   jsr PASTECOM.calc_transforms
          0x0050ee0a      584f           addq.w 0x4, a7
          0x0050ee0c      19420015       move.b d2, 0x15(a4)
          0x0050ee10      1d420008       move.b d2, 0x8(a6)
       > 0x0050ee14      3f3c00a3       move.w 0xa3, -(a7)
           0x0050ee18      4eb9004836a4   jsr MENUCOM.push_box
           0x0050ee1e      544f           addq.w 0x2, a7
        > 0x0050ee20      4cdf0f3f       movem.l (a7)+, d0-d5/a0-a3
            0x0050ee24      4e5e           unlk a6
            0x0050ee26      4e75           rts
 828: MENU3DCOM.PAS.hit_3d ();
           0x0050ee28      4e56ffa2       link.w a6, 0xffa2
           0x0050ee2c      bfd5           cmpa.l (a5), a7
       < 0x0050ee2e      6206           bhi.b 0x50ee36
          0x0050ee30      44fc0002       move.w 0x2, ccr
          0x0050ee34      4e76           trapv
       > 0x0050ee36      defc0046       adda.w 0x46, a7
           0x0050ee3a      48e7fef8       movem.l d0-d6/a0-a4, -(a7)
           0x0050ee3e      43eeffe8       lea.l -0x18(a6), a1
           0x0050ee42      45ee000a       lea.l 0xa(a6), a2
           0x0050ee46      47eefffd       lea.l -0x3(a6), a3
           0x0050ee4a      7601           moveq 0x1, d3
           0x0050ee4c      787f           moveq 0x7f, d4
           0x0050ee4e      3a3c0080       move.w 0x80, d5
           0x0050ee52      7c03           moveq 0x3, d6
           0x0050ee54      302e0008       move.w 0x8(a6), d0
           0x0050ee58      41faafdc       lea.l 0x509e36(pc), a0
           0x0050ee5c      3200           move.w d0, d1
           0x0050ee5e      e649           lsr.w 0x3, d1
           0x0050ee60      0c410020       cmpi.w 0x20, d1
       < 0x0050ee64      6d04           blt.b 0x50ee6a
          0x0050ee66      7200           moveq 0x0, d1
      < 0x0050ee68      6004           bra.b 0x50ee6e
      > 0x0050ee6a      01301000       btst.l d0, (a0, d1.w)
      < 0x0050ee6e      670002ec       beq.w 0x50f15c
          0x0050ee72      22baae2c       move.l 0x509ca0(pc), (a1)
          0x0050ee76      4213           clr.b (a3)
          0x0050ee78      422efffe       clr.b -0x2(a6)
          0x0050ee7c      5d4f           subq.w 0x6, a7
          0x0050ee7e      3f05           move.w d5, -(a7)
          0x0050ee80      4eb900480fc2   jsr MENUCOM.get_boxon
          0x0050ee86      544f           addq.w 0x2, a7
          0x0050ee88      1017           move.b (a7), d0
          0x0050ee8a      4880           ext.w d0
          0x0050ee8c      4183           chk.w d3, d0
          0x0050ee8e      1e80           move.b d0, (a7)
          0x0050ee90      4eb900670a94   jsr PASTECOM.get_cutout
          0x0050ee96      544f           addq.w 0x2, a7
          0x0050ee98      2d57ffec       move.l (a7), -0x14(a6)
          0x0050ee9c      544f           addq.w 0x2, a7
          0x0050ee9e      2849           movea.l a1, a4
          0x0050eea0      4ebafdda       jsr MENU3DCOM.PAS.do_delete(pc)
          0x0050eea4      4a1f           tst.b (a7)+
      < 0x0050eea6      660001e4       bne.w 0x50f08c
         0x0050eeaa      554f           subq.w 0x2, a7
         0x0050eeac      2849           movea.l a1, a4
         0x0050eeae      4ebaf8d0       jsr MENU3DCOM.PAS.do_original(pc)
         0x0050eeb2      4a1f           tst.b (a7)+
     < 0x0050eeb4      660001d6       bne.w 0x50f08c
        0x0050eeb8      3f390083e3fa   move.w 0x83e3fa, -(a7)
        0x0050eebe      4227           clr.b -(a7)
        0x0050eec0      4eb900483776   jsr MENUCOM.swtch_box
        0x0050eec6      584f           addq.w 0x4, a7
        0x0050eec8      3012           move.w (a2), d0
        0x0050eeca      b0790083e3c4   cmp.w 0x83e3c4, d0
    < 0x0050eed0      6718           beq.b 0x50eeea
       0x0050eed2      b0790083e3ce   cmp.w 0x83e3ce, d0
   < 0x0050eed8      6710           beq.b 0x50eeea
      0x0050eeda      b0790083e3d8   cmp.w 0x83e3d8, d0
  < 0x0050eee0      6708           beq.b 0x50eeea
     0x0050eee2      b0790083e3e0   cmp.w 0x83e3e0, d0
 < 0x0050eee8      6626           bne.b 0x50ef10
 > 0x0050eeea      4227           clr.b -(a7)
       0x0050eeec      1f03           move.b d3, -(a7)
       0x0050eeee      2849           movea.l a1, a4
       0x0050eef0      4ebaf53c       jsr MENU3DCOM.PAS.do_orig_shape(pc)
       0x0050eef4      584f           addq.w 0x4, a7
       0x0050eef6      206effec       movea.l -0x14(a6), a0
       0x0050eefa      b1e8fffc       cmpa.l -0x4(a0), a0
   < 0x0050eefe      6702           beq.b 0x50ef02
      0x0050ef00      4e4d           trap 0xd
   > 0x0050ef02      22a80338       move.l 0x338(a0), (a1)
       0x0050ef06      4ebaecba       jsr MENU3DCOM.PAS.save_undo(pc)
       0x0050ef0a      1683           move.b d3, (a3)
   < 0x0050ef0c      6000017e       bra.w 0x50f08c
 > 0x0050ef10      b0790083e398   cmp.w 0x83e398, d0
   < 0x0050ef16      6710           beq.b 0x50ef28
      0x0050ef18      b0790083e39a   cmp.w 0x83e39a, d0
  < 0x0050ef1e      6708           beq.b 0x50ef28
     0x0050ef20      b0790083e39c   cmp.w 0x83e39c, d0
 < 0x0050ef26      6666           bne.b 0x50ef8e
 > 0x0050ef28      206effec       movea.l -0x14(a6), a0
      0x0050ef2c      b1e8fffc       cmpa.l -0x4(a0), a0
  < 0x0050ef30      6702           beq.b 0x50ef34
     0x0050ef32      4e4d           trap 0xd
  > 0x0050ef34      554f           subq.w 0x2, a7
      0x0050ef36      3f390083e398   move.w 0x83e398, -(a7)
      0x0050ef3c      4eb900480fc2   jsr MENUCOM.get_boxon
      0x0050ef42      544f           addq.w 0x2, a7
      0x0050ef44      121f           move.b (a7)+, d1
      0x0050ef46      4881           ext.w d1
      0x0050ef48      4383           chk.w d3, d1
      0x0050ef4a      11410620       move.b d1, 0x620(a0)
      0x0050ef4e      554f           subq.w 0x2, a7
      0x0050ef50      3f390083e39a   move.w 0x83e39a, -(a7)
      0x0050ef56      4eb900480fc2   jsr MENUCOM.get_boxon
      0x0050ef5c      544f           addq.w 0x2, a7
      0x0050ef5e      121f           move.b (a7)+, d1
      0x0050ef60      4881           ext.w d1
      0x0050ef62      4383           chk.w d3, d1
      0x0050ef64      11410621       move.b d1, 0x621(a0)
      0x0050ef68      554f           subq.w 0x2, a7
      0x0050ef6a      3f390083e39c   move.w 0x83e39c, -(a7)
      0x0050ef70      4eb900480fc2   jsr MENUCOM.get_boxon
      0x0050ef76      544f           addq.w 0x2, a7
      0x0050ef78      121f           move.b (a7)+, d1
      0x0050ef7a      4881           ext.w d1
      0x0050ef7c      4383           chk.w d3, d1
      0x0050ef7e      11410622       move.b d1, 0x622(a0)
      0x0050ef82      1683           move.b d3, (a3)
      0x0050ef84      4eb90075cd12   jsr MENUKEYFRMCOM.tryit_trash
  < 0x0050ef8a      60000100       bra.w 0x50f08c
 > 0x0050ef8e      322e0008       move.w 0x8(a6), d1
      0x0050ef92      0c410004       cmpi.w 0x4, d1
  < 0x0050ef96      664e           bne.b 0x50efe6
     0x0050ef98      b0790083e358   cmp.w 0x83e358, d0
 < 0x0050ef9e      6608           bne.b 0x50efa8
    0x0050efa0      22baaeb4       move.l 0x509e56(pc), (a1)
 < 0x0050efa4      600000e6       bra.w 0x50f08c
 > 0x0050efa8      b0790083e360   cmp.w 0x83e360, d0
 < 0x0050efae      6608           bne.b 0x50efb8
    0x0050efb0      22baaea8       move.l 0x509e5a(pc), (a1)
 < 0x0050efb4      600000d6       bra.w 0x50f08c
 > 0x0050efb8      b0790083e372   cmp.w 0x83e372, d0
 < 0x0050efbe      6608           bne.b 0x50efc8
    0x0050efc0      22baae9c       move.l 0x509e5e(pc), (a1)
 < 0x0050efc4      600000c6       bra.w 0x50f08c
 > 0x0050efc8      b044           cmp.w d4, d0
 < 0x0050efca      6608           bne.b 0x50efd4
    0x0050efcc      22baae94       move.l 0x509e62(pc), (a1)
 < 0x0050efd0      600000ba       bra.w 0x50f08c
 > 0x0050efd4      b0790083e396   cmp.w 0x83e396, d0
 < 0x0050efda      660000b0       bne.w 0x50f08c
    0x0050efde      22baae86       move.l 0x509e66(pc), (a1)
 < 0x0050efe2      600000a8       bra.w 0x50f08c
 > 0x0050efe6      b243           cmp.w d3, d1
 < 0x0050efe8      660000a2       bne.w 0x50f08c
    0x0050efec      b0790083e400   cmp.w 0x83e400, d0
 < 0x0050eff2      6608           bne.b 0x50effc
    0x0050eff4      22baae74       move.l 0x509e6a(pc), (a1)
 < 0x0050eff8      60000092       bra.w 0x50f08c
 > 0x0050effc      b044           cmp.w d4, d0
 < 0x0050effe      660a           bne.b 0x50f00a
    0x0050f000      4eb90075ebde   jsr MENUKEYFRMCOM.pins_from_3d
 < 0x0050f006      60000084       bra.w 0x50f08c
 > 0x0050f00a      b0790083e37e   cmp.w 0x83e37e, d0
 < 0x0050f010      6718           beq.b 0x50f02a
    0x0050f012      b0790083e380   cmp.w 0x83e380, d0
 < 0x0050f018      6710           beq.b 0x50f02a
    0x0050f01a      b0790083e384   cmp.w 0x83e384, d0
 < 0x0050f020      6708           beq.b 0x50f02a
    0x0050f022      b0790083e382   cmp.w 0x83e382, d0
 < 0x0050f028      6662           bne.b 0x50f08c
 > 0x0050f02a      206effec       movea.l -0x14(a6), a0
    0x0050f02e      b1e8fffc       cmpa.l -0x4(a0), a0
 < 0x0050f032      6702           beq.b 0x50f036
    0x0050f034      4e4d           trap 0xd
 > 0x0050f036      3f390083e386   move.w 0x83e386, -(a7)
    0x0050f03c      5d4f           subq.w 0x6, a7
    0x0050f03e      4ebab482       jsr MENU3DCOM.PAS.pin_index(pc)
    0x0050f042      341f           move.w (a7)+, d2
    0x0050f044      48c2           ext.l d2
    0x0050f046      5382           subq.l 0x1, d2
    0x0050f048      b486           cmp.l d6, d2
 < 0x0050f04a      6302           bls.b 0x50f04e
    0x0050f04c      4e4f           trap 0xf
 > 0x0050f04e      2eb02f2002b8   move.l 0x2b8(a0, d2.l * 8), (a7)
    0x0050f054      4227           clr.b -(a7)
    0x0050f056      1f03           move.b d3, -(a7)
    0x0050f058      4eb90048da84   jsr MENU2COM.set_numeric_val
    0x0050f05e      504f           addq.w 0x8, a7
    0x0050f060      3eb90083e388   move.w 0x83e388, (a7)
    0x0050f066      5d4f           subq.w 0x6, a7
    0x0050f068      4ebab458       jsr MENU3DCOM.PAS.pin_index(pc)
    0x0050f06c      341f           move.w (a7)+, d2
    0x0050f06e      48c2           ext.l d2
    0x0050f070      5382           subq.l 0x1, d2
    0x0050f072      b486           cmp.l d6, d2
 < 0x0050f074      6302           bls.b 0x50f078
    0x0050f076      4e4f           trap 0xf
 > 0x0050f078      2eb02f2002bc   move.l 0x2bc(a0, d2.l * 8), (a7)
    0x0050f07e      4227           clr.b -(a7)
    0x0050f080      1f03           move.b d3, -(a7)
    0x0050f082      4eb90048da84   jsr MENU2COM.set_numeric_val
    0x0050f088      defc000a       adda.w 0xa, a7
 > 0x0050f08c      7000           moveq 0x0, d0
          0x0050f08e      4a13           tst.b (a3)
      < 0x0050f090      663e           bne.b 0x50f0d0
         0x0050f092      3212           move.w (a2), d1
         0x0050f094      b2790083e358   cmp.w 0x83e358, d1
     < 0x0050f09a      6734           beq.b 0x50f0d0
        0x0050f09c      3212           move.w (a2), d1
        0x0050f09e      b2790083e360   cmp.w 0x83e360, d1
    < 0x0050f0a4      672a           beq.b 0x50f0d0
       0x0050f0a6      3212           move.w (a2), d1
       0x0050f0a8      b2790083e372   cmp.w 0x83e372, d1
   < 0x0050f0ae      6720           beq.b 0x50f0d0
      0x0050f0b0      3212           move.w (a2), d1
      0x0050f0b2      b244           cmp.w d4, d1
  < 0x0050f0b4      671a           beq.b 0x50f0d0
     0x0050f0b6      3212           move.w (a2), d1
     0x0050f0b8      b2790083e38c   cmp.w 0x83e38c, d1
 < 0x0050f0be      6710           beq.b 0x50f0d0
    0x0050f0c0      3212           move.w (a2), d1
    0x0050f0c2      b2790083e3c2   cmp.w 0x83e3c2, d1
 < 0x0050f0c8      6706           beq.b 0x50f0d0
    0x0050f0ca      3212           move.w (a2), d1
    0x0050f0cc      b245           cmp.w d5, d1
 < 0x0050f0ce      6602           bne.b 0x50f0d2
 > 0x0050f0d0      5200           addq.b 0x1, d0
 > 0x0050f0d2      4880           ext.w d0
          0x0050f0d4      4183           chk.w d3, d0
          0x0050f0d6      1d40ffff       move.b d0, -0x1(a6)
          0x0050f0da      2f2effec       move.l -0x14(a6), -(a7)
          0x0050f0de      2f11           move.l (a1), -(a7)
          0x0050f0e0      1213           move.b (a3), d1
          0x0050f0e2      4881           ext.w d1
          0x0050f0e4      4383           chk.w d3, d1
          0x0050f0e6      1f01           move.b d1, -(a7)
          0x0050f0e8      122efffe       move.b -0x2(a6), d1
          0x0050f0ec      4881           ext.w d1
          0x0050f0ee      4383           chk.w d3, d1
          0x0050f0f0      1f01           move.b d1, -(a7)
          0x0050f0f2      4880           ext.w d0
          0x0050f0f4      4183           chk.w d3, d0
          0x0050f0f6      1f00           move.b d0, -(a7)
          0x0050f0f8      4ebad966       jsr MENU3DCOM.PAS.update_all(pc)
          0x0050f0fc      defc000e       adda.w 0xe, a7
          0x0050f100      302e0008       move.w 0x8(a6), d0
          0x0050f104      b043           cmp.w d3, d0
      < 0x0050f106      6654           bne.b 0x50f15c
         0x0050f108      3012           move.w (a2), d0
         0x0050f10a      b044           cmp.w d4, d0
     < 0x0050f10c      6708           beq.b 0x50f116
        0x0050f10e      b0790083e3c2   cmp.w 0x83e3c2, d0
    < 0x0050f114      660e           bne.b 0x50f124
    > 0x0050f116      3f05           move.w d5, -(a7)
        0x0050f118      4227           clr.b -(a7)
        0x0050f11a      4eb900483776   jsr MENUCOM.swtch_box
        0x0050f120      584f           addq.w 0x4, a7
    < 0x0050f122      6018           bra.b 0x50f13c
    > 0x0050f124      b0790083e358   cmp.w 0x83e358, d0
    < 0x0050f12a      6710           beq.b 0x50f13c
       0x0050f12c      b0790083e360   cmp.w 0x83e360, d0
   < 0x0050f132      6708           beq.b 0x50f13c
      0x0050f134      b0790083e372   cmp.w 0x83e372, d0
  < 0x0050f13a      6620           bne.b 0x50f15c
  > 0x0050f13c      3f390083e37a   move.w 0x83e37a, -(a7)
        0x0050f142      4227           clr.b -(a7)
        0x0050f144      4eb900483776   jsr MENUCOM.swtch_box
        0x0050f14a      544f           addq.w 0x2, a7
        0x0050f14c      3eb90083e37c   move.w 0x83e37c, (a7)
        0x0050f152      4227           clr.b -(a7)
        0x0050f154      4eb900483776   jsr MENUCOM.swtch_box
        0x0050f15a      584f           addq.w 0x4, a7
  > 0x0050f15c      4cdf1f7f       movem.l (a7)+, d0-d6/a0-a4
           0x0050f160      4e5e           unlk a6
           0x0050f162      4e75           rts
 24: MENU3DCOM.PAS.hit_num ();
           0x0050f164      4e56ff50       link.w a6, 0xff50
           0x0050f168      bfd5           cmpa.l (a5), a7
       < 0x0050f16a      6206           bhi.b 0x50f172
          0x0050f16c      44fc0002       move.w 0x2, ccr
          0x0050f170      4e76           trapv
       > 0x0050f172      defc0094       adda.w 0x94, a7
           0x0050f176      48e7fff8       movem.l d0-d7/a0-a4, -(a7)
           0x0050f17a      f227e081       fmovem fp0/fp7, -(a7)
            0x0050f17e      45f90048d992   lea.l MENU2COM.get_numeric_val, a2
            0x0050f184      47f90083d308   lea.l 0x83d308, a3
            0x0050f18a      7601           moveq 0x1, d3
            0x0050f18c      780f           moveq 0xf, d4
            0x0050f18e      302e000a       move.w 0xa(a6), d0
            0x0050f192      b0790083e362   cmp.w 0x83e362, d0
        < 0x0050f198      6710           beq.b 0x50f1aa
           0x0050f19a      b0790083e364   cmp.w 0x83e364, d0
       < 0x0050f1a0      6708           beq.b 0x50f1aa
          0x0050f1a2      b0790083e366   cmp.w 0x83e366, d0
      < 0x0050f1a8      6622           bne.b 0x50f1cc
      > 0x0050f1aa      322e0008       move.w 0x8(a6), d1
           0x0050f1ae      b243           cmp.w d3, d1
       < 0x0050f1b0      6608           bne.b 0x50f1ba
          0x0050f1b2      3f390083e3f6   move.w 0x83e3f6, -(a7)
      < 0x0050f1b8      600a           bra.b 0x50f1c4
      > 0x0050f1ba      4a41           tst.w d1
      < 0x0050f1bc      660e           bne.b 0x50f1cc
         0x0050f1be      3f390083e3f8   move.w 0x83e3f8, -(a7)
      > 0x0050f1c4      4eb9004836a4   jsr MENUCOM.push_box
          0x0050f1ca      544f           addq.w 0x2, a7
      > 0x0050f1cc      b0790083e3fa   cmp.w 0x83e3fa, d0
        < 0x0050f1d2      6636           bne.b 0x50f20a
           0x0050f1d4      322e0008       move.w 0x8(a6), d1
           0x0050f1d8      0c410007       cmpi.w 0x7, d1
       < 0x0050f1dc      662c           bne.b 0x50f20a
          0x0050f1de      5d4f           subq.w 0x6, a7
          0x0050f1e0      3f3c0080       move.w 0x80, -(a7)
          0x0050f1e4      4eb900480fc2   jsr MENUCOM.get_boxon
          0x0050f1ea      544f           addq.w 0x2, a7
          0x0050f1ec      1217           move.b (a7), d1
          0x0050f1ee      4881           ext.w d1
          0x0050f1f0      4383           chk.w d3, d1
          0x0050f1f2      1e81           move.b d1, (a7)
          0x0050f1f4      4eb900670a94   jsr PASTECOM.get_cutout
          0x0050f1fa      544f           addq.w 0x2, a7
          0x0050f1fc      2f3aaa86       move.l 0x509c84(pc), -(a7)
          0x0050f200      4227           clr.b -(a7)
          0x0050f202      4227           clr.b -(a7)
          0x0050f204      4227           clr.b -(a7)
      < 0x0050f206      600008e4       bra.w 0x50faec
      > 0x0050f20a      322e0008       move.w 0x8(a6), d1
           0x0050f20e      0c410002       cmpi.w 0x2, d1
       < 0x0050f212      660008e0       bne.w 0x50faf4
          0x0050f216      26baaa88       move.l 0x509ca0(pc), (a3)
          0x0050f21a      5d4f           subq.w 0x6, a7
          0x0050f21c      3f3c0080       move.w 0x80, -(a7)
          0x0050f220      4eb900480fc2   jsr MENUCOM.get_boxon
          0x0050f226      544f           addq.w 0x2, a7
          0x0050f228      1217           move.b (a7), d1
          0x0050f22a      4881           ext.w d1
          0x0050f22c      4383           chk.w d3, d1
          0x0050f22e      1e81           move.b d1, (a7)
          0x0050f230      4eb900670a94   jsr PASTECOM.get_cutout
          0x0050f236      544f           addq.w 0x2, a7
          0x0050f238      2d57ffe4       move.l (a7), -0x1c(a6)
          0x0050f23c      4227           clr.b -(a7)
          0x0050f23e      4eb900670a94   jsr PASTECOM.get_cutout
          0x0050f244      544f           addq.w 0x2, a7
          0x0050f246      285f           movea.l (a7)+, a4
          0x0050f248      206effe4       movea.l -0x1c(a6), a0
          0x0050f24c      b1e8fffc       cmpa.l -0x4(a0), a0
      < 0x0050f250      6702           beq.b 0x50f254
         0x0050f252      4e4d           trap 0xd
      > 0x0050f254      7a00           moveq 0x0, d5
          0x0050f256      7c00           moveq 0x0, d6
          0x0050f258      b0790083e35a   cmp.w 0x83e35a, d0
      < 0x0050f25e      6712           beq.b 0x50f272
         0x0050f260      b0790083e35c   cmp.w 0x83e35c, d0
     < 0x0050f266      670a           beq.b 0x50f272
        0x0050f268      b0790083e35e   cmp.w 0x83e35e, d0
    < 0x0050f26e      6600017a       bne.w 0x50f3ea
    > 0x0050f272      554f           subq.w 0x2, a7
         0x0050f274      3f3c0036       move.w 0x36, -(a7)
         0x0050f278      4eb900480fc2   jsr MENUCOM.get_boxon
         0x0050f27e      544f           addq.w 0x2, a7
         0x0050f280      4a1f           tst.b (a7)+
     < 0x0050f282      6612           bne.b 0x50f296
        0x0050f284      554f           subq.w 0x2, a7
        0x0050f286      3f3c0037       move.w 0x37, -(a7)
        0x0050f28a      4eb900480fc2   jsr MENUCOM.get_boxon
        0x0050f290      544f           addq.w 0x2, a7
        0x0050f292      4a1f           tst.b (a7)+
    < 0x0050f294      6760           beq.b 0x50f2f6
    > 0x0050f296      594f           subq.w 0x4, a7
        0x0050f298      4267           clr.w -(a7)
        0x0050f29a      4e92           jsr (a2)                    ; fcn.00000009+0x2
        0x0050f29c      544f           addq.w 0x2, a7
        0x0050f29e      f21f4780       fmove.s (a7)+, fp7
        0x0050f2a2      554f           subq.w 0x2, a7
        0x0050f2a4      3f3c0037       move.w 0x37, -(a7)
        0x0050f2a8      4eb900480fc2   jsr MENUCOM.get_boxon
        0x0050f2ae      544f           addq.w 0x2, a7
        0x0050f2b0      4a1f           tst.b (a7)+
    < 0x0050f2b2      6704           beq.b 0x50f2b8
       0x0050f2b4      f2001f9a       fneg fp7
    > 0x0050f2b8      2d7aabb4fff2   move.l 0x509e6e(pc), -0xe(a6)
        0x0050f2be      2d7aabb2fff6   move.l 0x509e72(pc), -0xa(a6)
        0x0050f2c4      2d7aabb0fffa   move.l 0x509e76(pc), -0x6(a6)
        0x0050f2ca      b0790083e35a   cmp.w 0x83e35a, d0
    < 0x0050f2d0      6608           bne.b 0x50f2da
       0x0050f2d2      f22e6780fff2   fmove.s fp7, -0xe(a6)
   < 0x0050f2d8      6016           bra.b 0x50f2f0
   > 0x0050f2da      b0790083e35c   cmp.w 0x83e35c, d0
   < 0x0050f2e0      6608           bne.b 0x50f2ea
      0x0050f2e2      f22e6780fff6   fmove.s fp7, -0xa(a6)
  < 0x0050f2e8      6006           bra.b 0x50f2f0
  > 0x0050f2ea      f22e6780fffa   fmove.s fp7, -0x6(a6)
  > 0x0050f2f0      7e04           moveq 0x4, d7
    < 0x0050f2f2      60000098       bra.w 0x50f38c
    > 0x0050f2f6      554f           subq.w 0x2, a7
        0x0050f2f8      3f390083e37a   move.w 0x83e37a, -(a7)
        0x0050f2fe      4eb900480fc2   jsr MENUCOM.get_boxon
        0x0050f304      544f           addq.w 0x2, a7
        0x0050f306      4a1f           tst.b (a7)+
    < 0x0050f308      6726           beq.b 0x50f330
       0x0050f30a      f228441a0144   fneg.s 0x144(a0), fp0
       0x0050f310      f22e6400fff2   fmove.s fp0, -0xe(a6)
       0x0050f316      f228441a0154   fneg.s 0x154(a0), fp0
       0x0050f31c      f22e6400fff6   fmove.s fp0, -0xa(a6)
       0x0050f322      f228441a0164   fneg.s 0x164(a0), fp0
       0x0050f328      f22e6400fffa   fmove.s fp0, -0x6(a6)
   < 0x0050f32e      6016           bra.b 0x50f346
   > 0x0050f330      2d6800fcfff2   move.l 0xfc(a0), -0xe(a6)
       0x0050f336      2d68010cfff6   move.l 0x10c(a0), -0xa(a6)
       0x0050f33c      2d68011cfffa   move.l 0x11c(a0), -0x6(a6)
       0x0050f342      7c01           moveq 0x1, d6
       0x0050f344      7a01           moveq 0x1, d5
   > 0x0050f346      b0790083e35a   cmp.w 0x83e35a, d0
    < 0x0050f34c      6612           bne.b 0x50f360
       0x0050f34e      594f           subq.w 0x4, a7
       0x0050f350      3f390083e35a   move.w 0x83e35a, -(a7)
       0x0050f356      4e92           jsr (a2)                    ; fcn.00000009+0x2
       0x0050f358      544f           addq.w 0x2, a7
       0x0050f35a      2d5ffff2       move.l (a7)+, -0xe(a6)
   < 0x0050f35e      602a           bra.b 0x50f38a
   > 0x0050f360      b0790083e35c   cmp.w 0x83e35c, d0
   < 0x0050f366      6612           bne.b 0x50f37a
      0x0050f368      594f           subq.w 0x4, a7
      0x0050f36a      3f390083e35c   move.w 0x83e35c, -(a7)
      0x0050f370      4e92           jsr (a2)                    ; fcn.00000009+0x2
      0x0050f372      544f           addq.w 0x2, a7
      0x0050f374      2d5ffff6       move.l (a7)+, -0xa(a6)
  < 0x0050f378      6010           bra.b 0x50f38a
  > 0x0050f37a      594f           subq.w 0x4, a7
      0x0050f37c      3f390083e35e   move.w 0x83e35e, -(a7)
      0x0050f382      4e92           jsr (a2)                    ; fcn.00000009+0x2
      0x0050f384      544f           addq.w 0x2, a7
      0x0050f386      2d5ffffa       move.l (a7)+, -0x6(a6)
  > 0x0050f38a      7e05           moveq 0x5, d7
     > 0x0050f38c      554f           subq.w 0x2, a7
         0x0050f38e      3f390083e37a   move.w 0x83e37a, -(a7)
         0x0050f394      4eb900480fc2   jsr MENUCOM.get_boxon
         0x0050f39a      544f           addq.w 0x2, a7
         0x0050f39c      4a1f           tst.b (a7)+
     < 0x0050f39e      6708           beq.b 0x50f3a8
        0x0050f3a0      7c02           moveq 0x2, d6
        0x0050f3a2      26baaad6       move.l 0x509e7a(pc), (a3)
    < 0x0050f3a6      6004           bra.b 0x50f3ac
    > 0x0050f3a8      26baaad4       move.l 0x509e7e(pc), (a3)
    > 0x0050f3ac      4ebae814       jsr MENU3DCOM.PAS.save_undo(pc)
         0x0050f3b0      486800f0       pea.l 0xf0(a0)
         0x0050f3b4      486800f0       pea.l 0xf0(a0)
         0x0050f3b8      48680138       pea.l 0x138(a0)
         0x0050f3bc      486802a0       pea.l 0x2a0(a0)
         0x0050f3c0      4886           ext.w d6
         0x0050f3c2      4dbc0002       chk.w 0x2, d6
         0x0050f3c6      1f06           move.b d6, -(a7)
         0x0050f3c8      4887           ext.w d7
         0x0050f3ca      4fbc000b       chk.w 0xb, d7
         0x0050f3ce      1f07           move.b d7, -(a7)
         0x0050f3d0      2f2efffa       move.l -0x6(a6), -(a7)
         0x0050f3d4      2f2efff6       move.l -0xa(a6), -(a7)
         0x0050f3d8      2f2efff2       move.l -0xe(a6), -(a7)
         0x0050f3dc      4eb90067ab4e   jsr THREEDMAV.do_pos
    > 0x0050f3e2      defc0020       adda.w 0x20, a7
   < 0x0050f3e6      600006f4       bra.w 0x50fadc
   > 0x0050f3ea      b0790083e362   cmp.w 0x83e362, d0
   < 0x0050f3f0      6712           beq.b 0x50f404
      0x0050f3f2      b0790083e364   cmp.w 0x83e364, d0
  < 0x0050f3f8      670a           beq.b 0x50f404
     0x0050f3fa      b0790083e366   cmp.w 0x83e366, d0
  < 0x0050f400      660001c2       bne.w 0x50f5c4
  > 0x0050f404      2d7aaa7cfff2   move.l 0x509e82(pc), -0xe(a6)
       0x0050f40a      2d7aaa7afff6   move.l 0x509e86(pc), -0xa(a6)
       0x0050f410      2d7aaa78fffa   move.l 0x509e8a(pc), -0x6(a6)
       0x0050f416      554f           subq.w 0x2, a7
       0x0050f418      3f3c0036       move.w 0x36, -(a7)
       0x0050f41c      4eb900480fc2   jsr MENUCOM.get_boxon
       0x0050f422      544f           addq.w 0x2, a7
       0x0050f424      4a1f           tst.b (a7)+
   < 0x0050f426      6612           bne.b 0x50f43a
      0x0050f428      554f           subq.w 0x2, a7
      0x0050f42a      3f3c0037       move.w 0x37, -(a7)
      0x0050f42e      4eb900480fc2   jsr MENUCOM.get_boxon
      0x0050f434      544f           addq.w 0x2, a7
      0x0050f436      4a1f           tst.b (a7)+
  < 0x0050f438      676e           beq.b 0x50f4a8
  > 0x0050f43a      594f           subq.w 0x4, a7
      0x0050f43c      4267           clr.w -(a7)
      0x0050f43e      4e92           jsr (a2)                    ; fcn.00000009+0x2
      0x0050f440      544f           addq.w 0x2, a7
      0x0050f442      f21f4780       fmove.s (a7)+, fp7
      0x0050f446      f23c47a340c9.  fmul.s 6, fp7
      0x0050f44e      554f           subq.w 0x2, a7
      0x0050f450      3f3c0037       move.w 0x37, -(a7)
      0x0050f454      4eb900480fc2   jsr MENUCOM.get_boxon
      0x0050f45a      544f           addq.w 0x2, a7
      0x0050f45c      4a1f           tst.b (a7)+
  < 0x0050f45e      6704           beq.b 0x50f464
     0x0050f460      f2001f9a       fneg fp7
  > 0x0050f464      554f           subq.w 0x2, a7
      0x0050f466      3f390083e362   move.w 0x83e362, -(a7)
      0x0050f46c      4eb900480fc2   jsr MENUCOM.get_boxon
      0x0050f472      544f           addq.w 0x2, a7
      0x0050f474      4a1f           tst.b (a7)+
  < 0x0050f476      6708           beq.b 0x50f480
     0x0050f478      f22e6780fff2   fmove.s fp7, -0xe(a6)
  < 0x0050f47e      6022           bra.b 0x50f4a2
  > 0x0050f480      554f           subq.w 0x2, a7
      0x0050f482      3f390083e364   move.w 0x83e364, -(a7)
      0x0050f488      4eb900480fc2   jsr MENUCOM.get_boxon
      0x0050f48e      544f           addq.w 0x2, a7
      0x0050f490      4a1f           tst.b (a7)+
  < 0x0050f492      6708           beq.b 0x50f49c
     0x0050f494      f22e6780fff6   fmove.s fp7, -0xa(a6)
  < 0x0050f49a      6006           bra.b 0x50f4a2
  > 0x0050f49c      f22e6780fffa   fmove.s fp7, -0x6(a6)
  > 0x0050f4a2      7e04           moveq 0x4, d7
  < 0x0050f4a4      600000aa       bra.w 0x50f550
  > 0x0050f4a8      554f           subq.w 0x2, a7
      0x0050f4aa      3f390083e37a   move.w 0x83e37a, -(a7)
      0x0050f4b0      4eb900480fc2   jsr MENUCOM.get_boxon
      0x0050f4b6      544f           addq.w 0x2, a7
      0x0050f4b8      121f           move.b (a7)+, d1
      0x0050f4ba      4401           neg.b d1
      0x0050f4bc      5201           addq.b 0x1, d1
      0x0050f4be      4881           ext.w d1
      0x0050f4c0      4383           chk.w d3, d1
      0x0050f4c2      1a01           move.b d1, d5
      0x0050f4c4      554f           subq.w 0x2, a7
      0x0050f4c6      3f390083e362   move.w 0x83e362, -(a7)
      0x0050f4cc      4eb900480fc2   jsr MENUCOM.get_boxon
      0x0050f4d2      544f           addq.w 0x2, a7
      0x0050f4d4      4a1f           tst.b (a7)+
  < 0x0050f4d6      6722           beq.b 0x50f4fa
     0x0050f4d8      594f           subq.w 0x4, a7
     0x0050f4da      3f390083e362   move.w 0x83e362, -(a7)
     0x0050f4e0      4e92           jsr (a2)                    ; fcn.00000009+0x2
     0x0050f4e2      544f           addq.w 0x2, a7
     0x0050f4e4      f21f4400       fmove.s (a7)+, fp0
     0x0050f4e8      f23c442340c9.  fmul.s 6, fp0
     0x0050f4f0      f22e6400fff2   fmove.s fp0, -0xe(a6)
     0x0050f4f6      7e09           moveq 0x9, d7
  < 0x0050f4f8      6056           bra.b 0x50f550
  > 0x0050f4fa      554f           subq.w 0x2, a7
      0x0050f4fc      3f390083e364   move.w 0x83e364, -(a7)
      0x0050f502      4eb900480fc2   jsr MENUCOM.get_boxon
      0x0050f508      544f           addq.w 0x2, a7
      0x0050f50a      4a1f           tst.b (a7)+
  < 0x0050f50c      6722           beq.b 0x50f530
     0x0050f50e      594f           subq.w 0x4, a7
     0x0050f510      3f390083e364   move.w 0x83e364, -(a7)
     0x0050f516      4e92           jsr (a2)                    ; fcn.00000009+0x2
     0x0050f518      544f           addq.w 0x2, a7
     0x0050f51a      f21f4400       fmove.s (a7)+, fp0
     0x0050f51e      f23c442340c9.  fmul.s 6, fp0
     0x0050f526      f22e6400fff6   fmove.s fp0, -0xa(a6)
     0x0050f52c      7e0a           moveq 0xa, d7
  < 0x0050f52e      6020           bra.b 0x50f550
  > 0x0050f530      594f           subq.w 0x4, a7
      0x0050f532      3f390083e366   move.w 0x83e366, -(a7)
      0x0050f538      4e92           jsr (a2)                    ; fcn.00000009+0x2
      0x0050f53a      544f           addq.w 0x2, a7
      0x0050f53c      f21f4400       fmove.s (a7)+, fp0
      0x0050f540      f23c442340c9.  fmul.s 6, fp0
      0x0050f548      f22e6400fffa   fmove.s fp0, -0x6(a6)
      0x0050f54e      7e0b           moveq 0xb, d7
  > 0x0050f550      554f           subq.w 0x2, a7
       0x0050f552      3f390083e37a   move.w 0x83e37a, -(a7)
       0x0050f558      4eb900480fc2   jsr MENUCOM.get_boxon
       0x0050f55e      544f           addq.w 0x2, a7
       0x0050f560      4a1f           tst.b (a7)+
   < 0x0050f562      6708           beq.b 0x50f56c
      0x0050f564      7c02           moveq 0x2, d6
      0x0050f566      26baa926       move.l 0x509e8e(pc), (a3)
  < 0x0050f56a      601e           bra.b 0x50f58a
  > 0x0050f56c      554f           subq.w 0x2, a7
      0x0050f56e      3f390083e37c   move.w 0x83e37c, -(a7)
      0x0050f574      4eb900480fc2   jsr MENUCOM.get_boxon
      0x0050f57a      544f           addq.w 0x2, a7
      0x0050f57c      4a1f           tst.b (a7)+
  < 0x0050f57e      6706           beq.b 0x50f586
     0x0050f580      26baa910       move.l 0x509e92(pc), (a3)
  < 0x0050f584      6004           bra.b 0x50f58a
  > 0x0050f586      26baa90e       move.l 0x509e96(pc), (a3)
  > 0x0050f58a      4ebae636       jsr MENU3DCOM.PAS.save_undo(pc)
       0x0050f58e      486800f0       pea.l 0xf0(a0)
       0x0050f592      486800f0       pea.l 0xf0(a0)
       0x0050f596      48680138       pea.l 0x138(a0)
       0x0050f59a      486802a0       pea.l 0x2a0(a0)
       0x0050f59e      4886           ext.w d6
       0x0050f5a0      4dbc0002       chk.w 0x2, d6
       0x0050f5a4      1f06           move.b d6, -(a7)
       0x0050f5a6      4887           ext.w d7
       0x0050f5a8      4fbc000b       chk.w 0xb, d7
       0x0050f5ac      1f07           move.b d7, -(a7)
       0x0050f5ae      2f2efffa       move.l -0x6(a6), -(a7)
       0x0050f5b2      2f2efff6       move.l -0xa(a6), -(a7)
       0x0050f5b6      2f2efff2       move.l -0xe(a6), -(a7)
       0x0050f5ba      4eb90067c2ee   jsr THREEDMAV.do_spin
    < 0x0050f5c0      6000fe20       bra.w 0x50f3e2
  > 0x0050f5c4      b0790083e374   cmp.w 0x83e374, d0
    < 0x0050f5ca      6712           beq.b 0x50f5de
       0x0050f5cc      b0790083e376   cmp.w 0x83e376, d0
   < 0x0050f5d2      670a           beq.b 0x50f5de
      0x0050f5d4      b0790083e378   cmp.w 0x83e378, d0
  < 0x0050f5da      66000092       bne.w 0x50f66e
  > 0x0050f5de      2d680120fff2   move.l 0x120(a0), -0xe(a6)
       0x0050f5e4      2d680124fff6   move.l 0x124(a0), -0xa(a6)
       0x0050f5ea      2d680128fffa   move.l 0x128(a0), -0x6(a6)
       0x0050f5f0      b0790083e374   cmp.w 0x83e374, d0
   < 0x0050f5f6      6612           bne.b 0x50f60a
      0x0050f5f8      594f           subq.w 0x4, a7
      0x0050f5fa      3f390083e374   move.w 0x83e374, -(a7)
      0x0050f600      4e92           jsr (a2)                    ; fcn.00000009+0x2
      0x0050f602      544f           addq.w 0x2, a7
      0x0050f604      2d5ffff2       move.l (a7)+, -0xe(a6)
  < 0x0050f608      602a           bra.b 0x50f634
  > 0x0050f60a      b0790083e376   cmp.w 0x83e376, d0
  < 0x0050f610      6612           bne.b 0x50f624
     0x0050f612      594f           subq.w 0x4, a7
     0x0050f614      3f390083e376   move.w 0x83e376, -(a7)
     0x0050f61a      4e92           jsr (a2)                    ; fcn.00000009+0x2
     0x0050f61c      544f           addq.w 0x2, a7
     0x0050f61e      2d5ffff6       move.l (a7)+, -0xa(a6)
  < 0x0050f622      6010           bra.b 0x50f634
  > 0x0050f624      594f           subq.w 0x4, a7
      0x0050f626      3f390083e378   move.w 0x83e378, -(a7)
      0x0050f62c      4e92           jsr (a2)                    ; fcn.00000009+0x2
      0x0050f62e      544f           addq.w 0x2, a7
      0x0050f630      2d5ffffa       move.l (a7)+, -0x6(a6)
  > 0x0050f634      26baa864       move.l 0x509e9a(pc), (a3)
       0x0050f638      4ebae588       jsr MENU3DCOM.PAS.save_undo(pc)
       0x0050f63c      486800f0       pea.l 0xf0(a0)
       0x0050f640      486800f0       pea.l 0xf0(a0)
       0x0050f644      48680138       pea.l 0x138(a0)
       0x0050f648      486802a0       pea.l 0x2a0(a0)
       0x0050f64c      4886           ext.w d6
       0x0050f64e      4dbc0002       chk.w 0x2, d6
       0x0050f652      1f06           move.b d6, -(a7)
       0x0050f654      1f3c0005       move.b 0x5, -(a7)
       0x0050f658      2f2efffa       move.l -0x6(a6), -(a7)
       0x0050f65c      2f2efff6       move.l -0xa(a6), -(a7)
       0x0050f660      2f2efff2       move.l -0xe(a6), -(a7)
       0x0050f664      4eb90067c8c4   jsr THREEDMAV.do_size
    < 0x0050f66a      6000fd76       bra.w 0x50f3e2
  > 0x0050f66e      b0790083e386   cmp.w 0x83e386, d0
     < 0x0050f674      670a           beq.b 0x50f680
        0x0050f676      b0790083e388   cmp.w 0x83e388, d0
    < 0x0050f67c      660000ee       bne.w 0x50f76c
    > 0x0050f680      b0790083e386   cmp.w 0x83e386, d0
    < 0x0050f686      6632           bne.b 0x50f6ba
       0x0050f688      554f           subq.w 0x2, a7
       0x0050f68a      4ebaae36       jsr MENU3DCOM.PAS.pin_index(pc)
       0x0050f68e      321f           move.w (a7)+, d1
       0x0050f690      48c1           ext.l d1
       0x0050f692      5381           subq.l 0x1, d1
       0x0050f694      0c8100000003   cmpi.l 0x3, d1
   < 0x0050f69a      6302           bls.b 0x50f69e
      0x0050f69c      4e4f           trap 0xf
   > 0x0050f69e      b9ecfffc       cmpa.l -0x4(a4), a4
   < 0x0050f6a2      6702           beq.b 0x50f6a6
      0x0050f6a4      4e4d           trap 0xd
   > 0x0050f6a6      594f           subq.w 0x4, a7
       0x0050f6a8      3f390083e386   move.w 0x83e386, -(a7)
       0x0050f6ae      4e92           jsr (a2)                    ; fcn.00000009+0x2
       0x0050f6b0      544f           addq.w 0x2, a7
       0x0050f6b2      299f1f2002b8   move.l (a7)+, 0x2b8(a4, d1.l * 8)
   < 0x0050f6b8      6030           bra.b 0x50f6ea
   > 0x0050f6ba      554f           subq.w 0x2, a7
       0x0050f6bc      4ebaae04       jsr MENU3DCOM.PAS.pin_index(pc)
       0x0050f6c0      321f           move.w (a7)+, d1
       0x0050f6c2      48c1           ext.l d1
       0x0050f6c4      5381           subq.l 0x1, d1
       0x0050f6c6      0c8100000003   cmpi.l 0x3, d1
   < 0x0050f6cc      6302           bls.b 0x50f6d0
      0x0050f6ce      4e4f           trap 0xf
   > 0x0050f6d0      b9ecfffc       cmpa.l -0x4(a4), a4
   < 0x0050f6d4      6702           beq.b 0x50f6d8
      0x0050f6d6      4e4d           trap 0xd
   > 0x0050f6d8      594f           subq.w 0x4, a7
       0x0050f6da      3f390083e388   move.w 0x83e388, -(a7)
       0x0050f6e0      4e92           jsr (a2)                    ; fcn.00000009+0x2
       0x0050f6e2      544f           addq.w 0x2, a7
       0x0050f6e4      299f1f2002bc   move.l (a7)+, 0x2bc(a4, d1.l * 8)
   > 0x0050f6ea      4ebae4d6       jsr MENU3DCOM.PAS.save_undo(pc)
        0x0050f6ee      554f           subq.w 0x2, a7
        0x0050f6f0      3f390083e38a   move.w 0x83e38a, -(a7)
        0x0050f6f6      4eb900480fc2   jsr MENUCOM.get_boxon
        0x0050f6fc      544f           addq.w 0x2, a7
        0x0050f6fe      4a1f           tst.b (a7)+
    < 0x0050f700      6724           beq.b 0x50f726
       0x0050f702      b9ecfffc       cmpa.l -0x4(a4), a4
   < 0x0050f706      6702           beq.b 0x50f70a
      0x0050f708      4e4d           trap 0xd
   > 0x0050f70a      486c02b8       pea.l 0x2b8(a4)
       0x0050f70e      486c0056       pea.l 0x56(a4)
       0x0050f712      486c0210       pea.l 0x210(a4)
       0x0050f716      486c02a0       pea.l 0x2a0(a4)
       0x0050f71a      4eb90067e60c   jsr THREEDMAV.inv_transform_p
       0x0050f720      defc0010       adda.w 0x10, a7
   < 0x0050f724      603e           bra.b 0x50f764
   > 0x0050f726      b9ecfffc       cmpa.l -0x4(a4), a4
   < 0x0050f72a      6702           beq.b 0x50f72e
      0x0050f72c      4e4d           trap 0xd
   > 0x0050f72e      48780001       pea.l 0x1
       0x0050f732      2f2c002a       move.l 0x2a(a4), -(a7)
       0x0050f736      2f2c0026       move.l 0x26(a4), -(a7)
       0x0050f73a      486c00f0       pea.l 0xf0(a4)
       0x0050f73e      486c0138       pea.l 0x138(a4)
       0x0050f742      486c02a0       pea.l 0x2a0(a4)
       0x0050f746      486c0056       pea.l 0x56(a4)
       0x0050f74a      43ec02d8       lea.l 0x2d8(a4), a1
       0x0050f74e      7207           moveq 0x7, d1
   > 0x0050f750      2f21           move.l -(a1), -(a7)
   < 0x0050f752      51c9fffc       dbra d1, 0x50f750
       0x0050f756      1f3c0002       move.b 0x2, -(a7)
       0x0050f75a      4eb90067ddda   jsr THREEDMAV.calc_pin_transf
       0x0050f760      defc003e       adda.w 0x3e, a7
   > 0x0050f764      26baa738       move.l 0x509e9e(pc), (a3)
    < 0x0050f768      60000372       bra.w 0x50fadc
    > 0x0050f76c      b0790083e3fa   cmp.w 0x83e3fa, d0
    < 0x0050f772      6658           bne.b 0x50f7cc
       0x0050f774      4ebae44c       jsr MENU3DCOM.PAS.save_undo(pc)
       0x0050f778      b9ecfffc       cmpa.l -0x4(a4), a4
   < 0x0050f77c      6702           beq.b 0x50f780
      0x0050f77e      4e4d           trap 0xd
   > 0x0050f780      514f           subq.w 0x8, a7
       0x0050f782      3f390083e3fa   move.w 0x83e3fa, -(a7)
       0x0050f788      4e92           jsr (a2)                    ; fcn.00000009+0x2
       0x0050f78a      544f           addq.w 0x2, a7
       0x0050f78c      f23c40000000.  fmove.l 0x4000, fp0
       0x0050f794      f2174423       fmul.s (a7), fp0
       0x0050f798      f23c40200000.  fdiv.l 0x64, fp0
       0x0050f7a0      f2176400       fmove.s fp0, (a7)
       0x0050f7a4      4eb9004081d2   jsr p_round
       0x0050f7aa      584f           addq.w 0x4, a7
       0x0050f7ac      221f           move.l (a7)+, d1
       0x0050f7ae      0481ffff8000   subi.l 0xffff8000, d1
       0x0050f7b4      433c0000ffff   chk.l 0xffff, d1
       0x0050f7ba      0681ffff8000   addi.l 0xffff8000, d1
       0x0050f7c0      394102e8       move.w d1, 0x2e8(a4)
       0x0050f7c4      26baa6dc       move.l 0x509ea2(pc), (a3)
   < 0x0050f7c8      60000312       bra.w 0x50fadc
   > 0x0050f7cc      b0790083e3c6   cmp.w 0x83e3c6, d0
   < 0x0050f7d2      660000a6       bne.w 0x50f87a
      0x0050f7d6      514f           subq.w 0x8, a7
      0x0050f7d8      3f390083e3c6   move.w 0x83e3c6, -(a7)
      0x0050f7de      4e92           jsr (a2)                    ; fcn.00000009+0x2
      0x0050f7e0      544f           addq.w 0x2, a7
      0x0050f7e2      4eb9004081f8   jsr p_trunc
      0x0050f7e8      584f           addq.w 0x4, a7
      0x0050f7ea      221f           move.l (a7)+, d1
      0x0050f7ec      5381           subq.l 0x1, d1
      0x0050f7ee      0481ffff8000   subi.l 0xffff8000, d1
      0x0050f7f4      433c0000ffff   chk.l 0xffff, d1
      0x0050f7fa      0681ffff8000   addi.l 0xffff8000, d1
      0x0050f800      33c10083d2e2   move.w d1, 0x83d2e2
      0x0050f806      b9ecfffc       cmpa.l -0x4(a4), a4
  < 0x0050f80a      6702           beq.b 0x50f80e
     0x0050f80c      4e4d           trap 0xd
  > 0x0050f80e      3f390083e3c8   move.w 0x83e3c8, -(a7)
      0x0050f814      4384           chk.w d4, d1
      0x0050f816      48c1           ext.l d1
      0x0050f818      e981           asl.l 0x4, d1
      0x0050f81a      2f3419200352   move.l 0x352(a4, d1.l), -(a7)
      0x0050f820      4227           clr.b -(a7)
      0x0050f822      1f03           move.b d3, -(a7)
      0x0050f824      4eb90048da84   jsr MENU2COM.set_numeric_val
      0x0050f82a      504f           addq.w 0x8, a7
      0x0050f82c      3eb90083e3ca   move.w 0x83e3ca, (a7)
      0x0050f832      32390083d2e2   move.w 0x83d2e2, d1
      0x0050f838      4384           chk.w d4, d1
      0x0050f83a      48c1           ext.l d1
      0x0050f83c      e981           asl.l 0x4, d1
      0x0050f83e      2f3419200356   move.l 0x356(a4, d1.l), -(a7)
      0x0050f844      4227           clr.b -(a7)
      0x0050f846      1f03           move.b d3, -(a7)
      0x0050f848      4eb90048da84   jsr MENU2COM.set_numeric_val
      0x0050f84e      504f           addq.w 0x8, a7
      0x0050f850      3eb90083e3cc   move.w 0x83e3cc, (a7)
      0x0050f856      32390083d2e2   move.w 0x83d2e2, d1
      0x0050f85c      4384           chk.w d4, d1
      0x0050f85e      48c1           ext.l d1
      0x0050f860      e981           asl.l 0x4, d1
      0x0050f862      2f341920035a   move.l 0x35a(a4, d1.l), -(a7)
      0x0050f868      4227           clr.b -(a7)
      0x0050f86a      1f03           move.b d3, -(a7)
      0x0050f86c      4eb90048da84   jsr MENU2COM.set_numeric_val
      0x0050f872      defc000a       adda.w 0xa, a7
  < 0x0050f876      60000264       bra.w 0x50fadc
  > 0x0050f87a      b0790083e3c8   cmp.w 0x83e3c8, d0
  < 0x0050f880      6712           beq.b 0x50f894
     0x0050f882      b0790083e3ca   cmp.w 0x83e3ca, d0
  < 0x0050f888      670a           beq.b 0x50f894
     0x0050f88a      b0790083e3cc   cmp.w 0x83e3cc, d0
  < 0x0050f890      66000090       bne.w 0x50f922
  > 0x0050f894      32390083d2e2   move.w 0x83d2e2, d1
      0x0050f89a      4384           chk.w d4, d1
      0x0050f89c      48c1           ext.l d1
      0x0050f89e      e981           asl.l 0x4, d1
      0x0050f8a0      b9ecfffc       cmpa.l -0x4(a4), a4
  < 0x0050f8a4      6702           beq.b 0x50f8a8
     0x0050f8a6      4e4d           trap 0xd
  > 0x0050f8a8      594f           subq.w 0x4, a7
      0x0050f8aa      3f390083e3c8   move.w 0x83e3c8, -(a7)
      0x0050f8b0      4e92           jsr (a2)                    ; fcn.00000009+0x2
      0x0050f8b2      544f           addq.w 0x2, a7
      0x0050f8b4      299f19200352   move.l (a7)+, 0x352(a4, d1.l)
      0x0050f8ba      32390083d2e2   move.w 0x83d2e2, d1
      0x0050f8c0      4384           chk.w d4, d1
      0x0050f8c2      48c1           ext.l d1
      0x0050f8c4      e981           asl.l 0x4, d1
      0x0050f8c6      594f           subq.w 0x4, a7
      0x0050f8c8      3f390083e3ca   move.w 0x83e3ca, -(a7)
      0x0050f8ce      4e92           jsr (a2)                    ; fcn.00000009+0x2
      0x0050f8d0      544f           addq.w 0x2, a7
      0x0050f8d2      299f19200356   move.l (a7)+, 0x356(a4, d1.l)
      0x0050f8d8      32390083d2e2   move.w 0x83d2e2, d1
      0x0050f8de      4384           chk.w d4, d1
      0x0050f8e0      48c1           ext.l d1
      0x0050f8e2      e981           asl.l 0x4, d1
      0x0050f8e4      594f           subq.w 0x4, a7
      0x0050f8e6      3f390083e3cc   move.w 0x83e3cc, -(a7)
      0x0050f8ec      4e92           jsr (a2)                    ; fcn.00000009+0x2
      0x0050f8ee      544f           addq.w 0x2, a7
      0x0050f8f0      299f1920035a   move.l (a7)+, 0x35a(a4, d1.l)
      0x0050f8f6      32390083d2e2   move.w 0x83d2e2, d1
      0x0050f8fc      48c1           ext.l d1
      0x0050f8fe      068100000009   addi.l 0x9, d1
      0x0050f904      1f01           move.b d1, -(a7)
      0x0050f906      121f           move.b (a7)+, d1
      0x0050f908      4881           ext.w d1
      0x0050f90a      43bc0019       chk.w 0x19, d1
      0x0050f90e      26baa374       move.l 0x509c84(pc), (a3)
      0x0050f912      224b           movea.l a3, a1
      0x0050f914      3401           move.w d1, d2
      0x0050f916      e64a           lsr.w 0x3, d2
      0x0050f918      03f12000       bset.b d1, (a1, d2.w)
      0x0050f91c      2293           move.l (a3), (a1)
  < 0x0050f91e      600001bc       bra.w 0x50fadc
  > 0x0050f922      b0790083e3d0   cmp.w 0x83e3d0, d0
  < 0x0050f928      6718           beq.b 0x50f942
     0x0050f92a      b0790083e3d2   cmp.w 0x83e3d2, d0
  < 0x0050f930      6710           beq.b 0x50f942
     0x0050f932      b0790083e3d4   cmp.w 0x83e3d4, d0
  < 0x0050f938      6708           beq.b 0x50f942
     0x0050f93a      b0790083e3d6   cmp.w 0x83e3d6, d0
  < 0x0050f940      664a           bne.b 0x50f98c
  > 0x0050f942      b9ecfffc       cmpa.l -0x4(a4), a4
  < 0x0050f946      6702           beq.b 0x50f94a
     0x0050f948      4e4d           trap 0xd
  > 0x0050f94a      594f           subq.w 0x4, a7
     0x0050f94c      3f390083e3d0   move.w 0x83e3d0, -(a7)
     0x0050f952      4e92           jsr (a2)                    ; fcn.00000009+0x2
     0x0050f954      544f           addq.w 0x2, a7
     0x0050f956      2957034e       move.l (a7), 0x34e(a4)
     0x0050f95a      3f390083e3d2   move.w 0x83e3d2, -(a7)
     0x0050f960      4e92           jsr (a2)                    ; fcn.00000009+0x2
     0x0050f962      544f           addq.w 0x2, a7
     0x0050f964      29570352       move.l (a7), 0x352(a4)
     0x0050f968      3f390083e3d4   move.w 0x83e3d4, -(a7)
     0x0050f96e      4e92           jsr (a2)                    ; fcn.00000009+0x2
     0x0050f970      544f           addq.w 0x2, a7
     0x0050f972      29570356       move.l (a7), 0x356(a4)
     0x0050f976      3f390083e3d6   move.w 0x83e3d6, -(a7)
     0x0050f97c      4e92           jsr (a2)                    ; fcn.00000009+0x2
     0x0050f97e      544f           addq.w 0x2, a7
     0x0050f980      295f035a       move.l (a7)+, 0x35a(a4)
     0x0050f984      26baa520       move.l 0x509ea6(pc), (a3)
  < 0x0050f988      60000152       bra.w 0x50fadc
  > 0x0050f98c      b0790083e3da   cmp.w 0x83e3da, d0
  < 0x0050f992      6710           beq.b 0x50f9a4
     0x0050f994      b0790083e3dc   cmp.w 0x83e3dc, d0
  < 0x0050f99a      6708           beq.b 0x50f9a4
     0x0050f99c      b0790083e3de   cmp.w 0x83e3de, d0
  < 0x0050f9a2      663c           bne.b 0x50f9e0
  > 0x0050f9a4      b9ecfffc       cmpa.l -0x4(a4), a4
  < 0x0050f9a8      6702           beq.b 0x50f9ac
     0x0050f9aa      4e4d           trap 0xd
  > 0x0050f9ac      594f           subq.w 0x4, a7
     0x0050f9ae      3f390083e3da   move.w 0x83e3da, -(a7)
     0x0050f9b4      4e92           jsr (a2)                    ; fcn.00000009+0x2
     0x0050f9b6      544f           addq.w 0x2, a7
     0x0050f9b8      2957034e       move.l (a7), 0x34e(a4)
     0x0050f9bc      3f390083e3dc   move.w 0x83e3dc, -(a7)
     0x0050f9c2      4e92           jsr (a2)                    ; fcn.00000009+0x2
     0x0050f9c4      544f           addq.w 0x2, a7
     0x0050f9c6      29570352       move.l (a7), 0x352(a4)
     0x0050f9ca      3f390083e3de   move.w 0x83e3de, -(a7)
     0x0050f9d0      4e92           jsr (a2)                    ; fcn.00000009+0x2
     0x0050f9d2      544f           addq.w 0x2, a7
     0x0050f9d4      295f0356       move.l (a7)+, 0x356(a4)
     0x0050f9d8      26baa4d0       move.l 0x509eaa(pc), (a3)
  < 0x0050f9dc      600000fe       bra.w 0x50fadc
  > 0x0050f9e0      b0790083e3e2   cmp.w 0x83e3e2, d0
  < 0x0050f9e6      6718           beq.b 0x50fa00
     0x0050f9e8      b0790083e3e4   cmp.w 0x83e3e4, d0
  < 0x0050f9ee      6710           beq.b 0x50fa00
     0x0050f9f0      b0790083e3e6   cmp.w 0x83e3e6, d0
  < 0x0050f9f6      6708           beq.b 0x50fa00
     0x0050f9f8      b0790083e3e8   cmp.w 0x83e3e8, d0
  < 0x0050f9fe      664a           bne.b 0x50fa4a
  > 0x0050fa00      b9ecfffc       cmpa.l -0x4(a4), a4
  < 0x0050fa04      6702           beq.b 0x50fa08
     0x0050fa06      4e4d           trap 0xd
  > 0x0050fa08      594f           subq.w 0x4, a7
     0x0050fa0a      3f390083e3e2   move.w 0x83e3e2, -(a7)
     0x0050fa10      4e92           jsr (a2)                    ; fcn.00000009+0x2
     0x0050fa12      544f           addq.w 0x2, a7
     0x0050fa14      2957034e       move.l (a7), 0x34e(a4)
     0x0050fa18      3f390083e3e4   move.w 0x83e3e4, -(a7)
     0x0050fa1e      4e92           jsr (a2)                    ; fcn.00000009+0x2
     0x0050fa20      544f           addq.w 0x2, a7
     0x0050fa22      29570352       move.l (a7), 0x352(a4)
     0x0050fa26      3f390083e3e6   move.w 0x83e3e6, -(a7)
     0x0050fa2c      4e92           jsr (a2)                    ; fcn.00000009+0x2
     0x0050fa2e      544f           addq.w 0x2, a7
     0x0050fa30      29570356       move.l (a7), 0x356(a4)
     0x0050fa34      3f390083e3e8   move.w 0x83e3e8, -(a7)
     0x0050fa3a      4e92           jsr (a2)                    ; fcn.00000009+0x2
     0x0050fa3c      544f           addq.w 0x2, a7
     0x0050fa3e      295f035a       move.l (a7)+, 0x35a(a4)
     0x0050fa42      26baa46a       move.l 0x509eae(pc), (a3)
  < 0x0050fa46      60000094       bra.w 0x50fadc
  > 0x0050fa4a      b0790083e3a2   cmp.w 0x83e3a2, d0
  < 0x0050fa50      6728           beq.b 0x50fa7a
     0x0050fa52      b0790083e3a4   cmp.w 0x83e3a4, d0
  < 0x0050fa58      6720           beq.b 0x50fa7a
     0x0050fa5a      b0790083e39e   cmp.w 0x83e39e, d0
  < 0x0050fa60      6718           beq.b 0x50fa7a
     0x0050fa62      b0790083e3a0   cmp.w 0x83e3a0, d0
  < 0x0050fa68      6710           beq.b 0x50fa7a
     0x0050fa6a      b0790083e3a6   cmp.w 0x83e3a6, d0
  < 0x0050fa70      6708           beq.b 0x50fa7a
     0x0050fa72      b0790083e3a8   cmp.w 0x83e3a8, d0
  < 0x0050fa78      6662           bne.b 0x50fadc
  > 0x0050fa7a      b9ecfffc       cmpa.l -0x4(a4), a4
  < 0x0050fa7e      6702           beq.b 0x50fa82
     0x0050fa80      4e4d           trap 0xd
  > 0x0050fa82      594f           subq.w 0x4, a7
     0x0050fa84      3f390083e39e   move.w 0x83e39e, -(a7)
     0x0050fa8a      4e92           jsr (a2)                    ; fcn.00000009+0x2
     0x0050fa8c      544f           addq.w 0x2, a7
     0x0050fa8e      29570624       move.l (a7), 0x624(a4)
     0x0050fa92      3f390083e3a0   move.w 0x83e3a0, -(a7)
     0x0050fa98      4e92           jsr (a2)                    ; fcn.00000009+0x2
     0x0050fa9a      544f           addq.w 0x2, a7
     0x0050fa9c      29570628       move.l (a7), 0x628(a4)
     0x0050faa0      3f390083e3a2   move.w 0x83e3a2, -(a7)
     0x0050faa6      4e92           jsr (a2)                    ; fcn.00000009+0x2
     0x0050faa8      544f           addq.w 0x2, a7
     0x0050faaa      2957062c       move.l (a7), 0x62c(a4)
     0x0050faae      3f390083e3a4   move.w 0x83e3a4, -(a7)
     0x0050fab4      4e92           jsr (a2)                    ; fcn.00000009+0x2
     0x0050fab6      544f           addq.w 0x2, a7
     0x0050fab8      29570630       move.l (a7), 0x630(a4)
     0x0050fabc      3f390083e3a6   move.w 0x83e3a6, -(a7)
     0x0050fac2      4e92           jsr (a2)                    ; fcn.00000009+0x2
     0x0050fac4      544f           addq.w 0x2, a7
     0x0050fac6      29570634       move.l (a7), 0x634(a4)
     0x0050faca      3f390083e3a8   move.w 0x83e3a8, -(a7)
     0x0050fad0      4e92           jsr (a2)                    ; fcn.00000009+0x2
     0x0050fad2      544f           addq.w 0x2, a7
     0x0050fad4      295f0638       move.l (a7)+, 0x638(a4)
     0x0050fad8      26baa3d8       move.l 0x509eb2(pc), (a3)
  > 0x0050fadc      2f2effe4       move.l -0x1c(a6), -(a7)
          0x0050fae0      2f13           move.l (a3), -(a7)
          0x0050fae2      1f03           move.b d3, -(a7)
          0x0050fae4      4885           ext.w d5
          0x0050fae6      4b83           chk.w d3, d5
          0x0050fae8      1f05           move.b d5, -(a7)
          0x0050faea      1f03           move.b d3, -(a7)
      > 0x0050faec      4ebacf72       jsr MENU3DCOM.PAS.update_all(pc)
           0x0050faf0      defc000e       adda.w 0xe, a7
        > 0x0050faf4      f21fd081       fmovem (a7)+, fp0/fp7
            0x0050faf8      4cdf1fff       movem.l (a7)+, d0-d7/a0-a4
            0x0050fafc      4e5e           unlk a6
            0x0050fafe      4e75           rts
 24: MENU3DCOM.PAS.hit_spin_inc ();
           0x0050fb00      4e56ff96       link.w a6, 0xff96
           0x0050fb04      bfd5           cmpa.l (a5), a7
       < 0x0050fb06      6206           bhi.b 0x50fb0e
          0x0050fb08      44fc0002       move.w 0x2, ccr
          0x0050fb0c      4e76           trapv
       > 0x0050fb0e      defc0054       adda.w 0x54, a7
           0x0050fb12      48e7c1f8       movem.l d0-d1/d7/a0-a4, -(a7)
           0x0050fb16      f227e080       fmovem fp7, -(a7)
            0x0050fb1a      43f900480fc2   lea.l MENUCOM.get_boxon, a1
            0x0050fb20      45f90083d308   lea.l 0x83d308, a2
            0x0050fb26      47eeffea       lea.l -0x16(a6), a3
            0x0050fb2a      49eeffee       lea.l -0x12(a6), a4
            0x0050fb2e      7201           moveq 0x1, d1
            0x0050fb30      302e0008       move.w 0x8(a6), d0
            0x0050fb34      b041           cmp.w d1, d0
        < 0x0050fb36      66000138       bne.w 0x50fc70
           0x0050fb3a      5d4f           subq.w 0x6, a7
           0x0050fb3c      3f3c0080       move.w 0x80, -(a7)
           0x0050fb40      4e91           jsr (a1)                    ; fcn.0000000a
           0x0050fb42      544f           addq.w 0x2, a7
           0x0050fb44      1017           move.b (a7), d0
           0x0050fb46      4880           ext.w d0
           0x0050fb48      4181           chk.w d1, d0
           0x0050fb4a      1e80           move.b d0, (a7)
           0x0050fb4c      4eb900670a94   jsr PASTECOM.get_cutout
           0x0050fb52      544f           addq.w 0x2, a7
           0x0050fb54      269f           move.l (a7)+, (a3)
           0x0050fb56      2053           movea.l (a3), a0
           0x0050fb58      b1e8fffc       cmpa.l -0x4(a0), a0
       < 0x0050fb5c      6702           beq.b 0x50fb60
          0x0050fb5e      4e4d           trap 0xd
       > 0x0050fb60      554f           subq.w 0x2, a7
           0x0050fb62      3f390083e37a   move.w 0x83e37a, -(a7)
           0x0050fb68      4e91           jsr (a1)                    ; fcn.0000000a
           0x0050fb6a      544f           addq.w 0x2, a7
           0x0050fb6c      4a1f           tst.b (a7)+
       < 0x0050fb6e      6708           beq.b 0x50fb78
          0x0050fb70      7e02           moveq 0x2, d7
          0x0050fb72      24baa342       move.l 0x509eb6(pc), (a2)
      < 0x0050fb76      601e           bra.b 0x50fb96
      > 0x0050fb78      554f           subq.w 0x2, a7
          0x0050fb7a      3f390083e37c   move.w 0x83e37c, -(a7)
          0x0050fb80      4e91           jsr (a1)                    ; fcn.0000000a
          0x0050fb82      544f           addq.w 0x2, a7
          0x0050fb84      4a1f           tst.b (a7)+
      < 0x0050fb86      6708           beq.b 0x50fb90
         0x0050fb88      7e01           moveq 0x1, d7
         0x0050fb8a      24baa32e       move.l 0x509eba(pc), (a2)
     < 0x0050fb8e      6006           bra.b 0x50fb96
     > 0x0050fb90      7e00           moveq 0x0, d7
         0x0050fb92      24baa32a       move.l 0x509ebe(pc), (a2)
     > 0x0050fb96      302e000a       move.w 0xa(a6), d0
           0x0050fb9a      b0790083e36c   cmp.w 0x83e36c, d0
       < 0x0050fba0      660a           bne.b 0x50fbac
          0x0050fba2      f23c47803fc9.  fmove.s 1, fp7
      < 0x0050fbaa      601a           bra.b 0x50fbc6
      > 0x0050fbac      b0790083e36e   cmp.w 0x83e36e, d0
      < 0x0050fbb2      660a           bne.b 0x50fbbe
         0x0050fbb4      f23c47804049.  fmove.s 3, fp7
     < 0x0050fbbc      6008           bra.b 0x50fbc6
     > 0x0050fbbe      f23c478040c9.  fmove.s 6, fp7
     > 0x0050fbc6      554f           subq.w 0x2, a7
           0x0050fbc8      3f390083e368   move.w 0x83e368, -(a7)
           0x0050fbce      4e91           jsr (a1)                    ; fcn.0000000a
           0x0050fbd0      544f           addq.w 0x2, a7
           0x0050fbd2      4a1f           tst.b (a7)+
       < 0x0050fbd4      6604           bne.b 0x50fbda
          0x0050fbd6      f2001f9a       fneg fp7
       > 0x0050fbda      28baa2e6       move.l 0x509ec2(pc), (a4)
           0x0050fbde      2d7aa2e6fff2   move.l 0x509ec6(pc), -0xe(a6)
           0x0050fbe4      2d7aa2e4fff6   move.l 0x509eca(pc), -0xa(a6)
           0x0050fbea      554f           subq.w 0x2, a7
           0x0050fbec      3f390083e362   move.w 0x83e362, -(a7)
           0x0050fbf2      4e91           jsr (a1)                    ; fcn.0000000a
           0x0050fbf4      544f           addq.w 0x2, a7
           0x0050fbf6      4a1f           tst.b (a7)+
       < 0x0050fbf8      6704           beq.b 0x50fbfe
          0x0050fbfa      f2146780       fmove.s fp7, (a4)
       > 0x0050fbfe      554f           subq.w 0x2, a7
           0x0050fc00      3f390083e364   move.w 0x83e364, -(a7)
           0x0050fc06      4e91           jsr (a1)                    ; fcn.0000000a
           0x0050fc08      544f           addq.w 0x2, a7
           0x0050fc0a      4a1f           tst.b (a7)+
       < 0x0050fc0c      6706           beq.b 0x50fc14
          0x0050fc0e      f22e6780fff2   fmove.s fp7, -0xe(a6)
       > 0x0050fc14      554f           subq.w 0x2, a7
           0x0050fc16      3f390083e366   move.w 0x83e366, -(a7)
           0x0050fc1c      4e91           jsr (a1)                    ; fcn.0000000a
           0x0050fc1e      544f           addq.w 0x2, a7
           0x0050fc20      4a1f           tst.b (a7)+
       < 0x0050fc22      6706           beq.b 0x50fc2a
          0x0050fc24      f22e6780fff6   fmove.s fp7, -0xa(a6)
       > 0x0050fc2a      4ebadf96       jsr MENU3DCOM.PAS.save_undo(pc)
           0x0050fc2e      486800f0       pea.l 0xf0(a0)
           0x0050fc32      486800f0       pea.l 0xf0(a0)
           0x0050fc36      48680138       pea.l 0x138(a0)
           0x0050fc3a      486802a0       pea.l 0x2a0(a0)
           0x0050fc3e      4887           ext.w d7
           0x0050fc40      4fbc0002       chk.w 0x2, d7
           0x0050fc44      1f07           move.b d7, -(a7)
           0x0050fc46      1f3c0004       move.b 0x4, -(a7)
           0x0050fc4a      2f2efff6       move.l -0xa(a6), -(a7)
           0x0050fc4e      2f2efff2       move.l -0xe(a6), -(a7)
           0x0050fc52      2f14           move.l (a4), -(a7)
           0x0050fc54      4eb90067c2ee   jsr THREEDMAV.do_spin
           0x0050fc5a      defc001c       adda.w 0x1c, a7
           0x0050fc5e      2e93           move.l (a3), (a7)
           0x0050fc60      2f12           move.l (a2), -(a7)
           0x0050fc62      1f01           move.b d1, -(a7)
           0x0050fc64      1f01           move.b d1, -(a7)
           0x0050fc66      1f01           move.b d1, -(a7)
           0x0050fc68      4ebacdf6       jsr MENU3DCOM.PAS.update_all(pc)
           0x0050fc6c      defc000e       adda.w 0xe, a7
        > 0x0050fc70      f21fd001       fmovem (a7)+, fp7
            0x0050fc74      4cdf1f83       movem.l (a7)+, d0-d1/d7/a0-a4
            0x0050fc78      4e5e           unlk a6
            0x0050fc7a      4e75           rts
 160: MENU3DCOM.PAS.hit_colour ();
           0x0050fc7c      4e56ffd2       link.w a6, 0xffd2
           0x0050fc80      bfd5           cmpa.l (a5), a7
       < 0x0050fc82      6206           bhi.b 0x50fc8a
          0x0050fc84      44fc0002       move.w 0x2, ccr
          0x0050fc88      4e76           trapv
       > 0x0050fc8a      defc0026       adda.w 0x26, a7
           0x0050fc8e      48e7e088       movem.l d0-d2/a0/a4, -(a7)
           0x0050fc92      7401           moveq 0x1, d2
           0x0050fc94      302e0008       move.w 0x8(a6), d0
           0x0050fc98      41faa234       lea.l 0x509ece(pc), a0
           0x0050fc9c      3200           move.w d0, d1
           0x0050fc9e      e649           lsr.w 0x3, d1
           0x0050fca0      0c410020       cmpi.w 0x20, d1
       < 0x0050fca4      6d04           blt.b 0x50fcaa
          0x0050fca6      7200           moveq 0x0, d1
      < 0x0050fca8      6004           bra.b 0x50fcae
      > 0x0050fcaa      01301000       btst.l d0, (a0, d1.w)
      < 0x0050fcae      6764           beq.b 0x50fd14
          0x0050fcb0      5d4f           subq.w 0x6, a7
          0x0050fcb2      3f3c0080       move.w 0x80, -(a7)
          0x0050fcb6      4eb900480fc2   jsr MENUCOM.get_boxon
          0x0050fcbc      544f           addq.w 0x2, a7
          0x0050fcbe      1017           move.b (a7), d0
          0x0050fcc0      4880           ext.w d0
          0x0050fcc2      4182           chk.w d2, d0
          0x0050fcc4      1e80           move.b d0, (a7)
          0x0050fcc6      4eb900670a94   jsr PASTECOM.get_cutout
          0x0050fccc      544f           addq.w 0x2, a7
          0x0050fcce      285f           movea.l (a7)+, a4
          0x0050fcd0      594f           subq.w 0x4, a7
          0x0050fcd2      4227           clr.b -(a7)
          0x0050fcd4      4eb900670a94   jsr PASTECOM.get_cutout
          0x0050fcda      544f           addq.w 0x2, a7
          0x0050fcdc      2d5ffffc       move.l (a7)+, -0x4(a6)
          0x0050fce0      b9ecfffc       cmpa.l -0x4(a4), a4
      < 0x0050fce4      6702           beq.b 0x50fce8
         0x0050fce6      4e4d           trap 0xd
      > 0x0050fce8      5d4f           subq.w 0x6, a7
          0x0050fcea      3f390083e3aa   move.w 0x83e3aa, -(a7)
          0x0050fcf0      4eb900481196   jsr MENUCOM.get_boxcol
          0x0050fcf6      544f           addq.w 0x2, a7
          0x0050fcf8      295f063c       move.l (a7)+, 0x63c(a4)
          0x0050fcfc      395f0640       move.w (a7)+, 0x640(a4)
          0x0050fd00      2f0c           move.l a4, -(a7)
          0x0050fd02      2f3aa1ea       move.l 0x509eee(pc), -(a7)
          0x0050fd06      1f02           move.b d2, -(a7)
          0x0050fd08      4227           clr.b -(a7)
          0x0050fd0a      1f02           move.b d2, -(a7)
          0x0050fd0c      4ebacd52       jsr MENU3DCOM.PAS.update_all(pc)
          0x0050fd10      defc000e       adda.w 0xe, a7
       > 0x0050fd14      4cdf1107       movem.l (a7)+, d0-d2/a0/a4
           0x0050fd18      4e5e           unlk a6
           0x0050fd1a      4e75           rts
 458: MENU3DCOM.PAS.hit_curved ();
           0x0050fd1c      4e56ffb8       link.w a6, 0xffb8
           0x0050fd20      bfd5           cmpa.l (a5), a7
       < 0x0050fd22      6206           bhi.b 0x50fd2a
          0x0050fd24      44fc0002       move.w 0x2, ccr
          0x0050fd28      4e76           trapv
       > 0x0050fd2a      defc0042       adda.w 0x42, a7
           0x0050fd2e      48e7fef8       movem.l d0-d6/a0-a4, -(a7)
           0x0050fd32      43f900480fc2   lea.l MENUCOM.get_boxon, a1
           0x0050fd38      45f90083e3ee   lea.l 0x83e3ee, a2
           0x0050fd3e      47f90083e3ec   lea.l 0x83e3ec, a3
           0x0050fd44      7601           moveq 0x1, d3
           0x0050fd46      7819           moveq 0x19, d4
           0x0050fd48      7a05           moveq 0x5, d5
           0x0050fd4a      7c0a           moveq 0xa, d6
           0x0050fd4c      302e0008       move.w 0x8(a6), d0
           0x0050fd50      41faa1a0       lea.l 0x509ef2(pc), a0
           0x0050fd54      3200           move.w d0, d1
           0x0050fd56      e649           lsr.w 0x3, d1
           0x0050fd58      0c410020       cmpi.w 0x20, d1
       < 0x0050fd5c      6d04           blt.b 0x50fd62
          0x0050fd5e      7200           moveq 0x0, d1
      < 0x0050fd60      6004           bra.b 0x50fd66
      > 0x0050fd62      01301000       btst.l d0, (a0, d1.w)
      < 0x0050fd66      67000176       beq.w 0x50fede
          0x0050fd6a      5d4f           subq.w 0x6, a7
          0x0050fd6c      3f3c0080       move.w 0x80, -(a7)
          0x0050fd70      4e91           jsr (a1)                    ; fcn.0000000a
          0x0050fd72      544f           addq.w 0x2, a7
          0x0050fd74      1217           move.b (a7), d1
          0x0050fd76      4881           ext.w d1
          0x0050fd78      4383           chk.w d3, d1
          0x0050fd7a      1e81           move.b d1, (a7)
          0x0050fd7c      4eb900670a94   jsr PASTECOM.get_cutout
          0x0050fd82      544f           addq.w 0x2, a7
          0x0050fd84      285f           movea.l (a7)+, a4
          0x0050fd86      b043           cmp.w d3, d0
      < 0x0050fd88      6634           bne.b 0x50fdbe
         0x0050fd8a      322e000a       move.w 0xa(a6), d1
         0x0050fd8e      b252           cmp.w (a2), d1
     < 0x0050fd90      6614           bne.b 0x50fda6
        0x0050fd92      3f13           move.w (a3), -(a7)
        0x0050fd94      4227           clr.b -(a7)
        0x0050fd96      4eb900483776   jsr MENUCOM.swtch_box
        0x0050fd9c      544f           addq.w 0x2, a7
        0x0050fd9e      3eb90083e3f0   move.w 0x83e3f0, (a7)
    < 0x0050fda4      600e           bra.b 0x50fdb4
    > 0x0050fda6      b253           cmp.w (a3), d1
    < 0x0050fda8      6708           beq.b 0x50fdb2
       0x0050fdaa      b2790083e3f0   cmp.w 0x83e3f0, d1
   < 0x0050fdb0      660c           bne.b 0x50fdbe
   > 0x0050fdb2      3f12           move.w (a2), -(a7)
   > 0x0050fdb4      4227           clr.b -(a7)
        0x0050fdb6      4eb900483776   jsr MENUCOM.swtch_box
        0x0050fdbc      584f           addq.w 0x4, a7
   > 0x0050fdbe      322e000a       move.w 0xa(a6), d1
          0x0050fdc2      b252           cmp.w (a2), d1
      < 0x0050fdc4      670c           beq.b 0x50fdd2
         0x0050fdc6      b253           cmp.w (a3), d1
     < 0x0050fdc8      6708           beq.b 0x50fdd2
        0x0050fdca      b2790083e3f0   cmp.w 0x83e3f0, d1
    < 0x0050fdd0      662c           bne.b 0x50fdfe
    > 0x0050fdd2      2f0c           move.l a4, -(a7)
         0x0050fdd4      554f           subq.w 0x2, a7
         0x0050fdd6      4ebaa7e6       jsr MENU3DCOM.PAS.get_curve_edit(pc)
         0x0050fdda      1417           move.b (a7), d2
         0x0050fddc      4882           ext.w d2
         0x0050fdde      4584           chk.w d4, d2
         0x0050fde0      1e82           move.b d2, (a7)
         0x0050fde2      554f           subq.w 0x2, a7
         0x0050fde4      4ebaa8f6       jsr MENU3DCOM.PAS.get_curved(pc)
         0x0050fde8      1417           move.b (a7), d2
         0x0050fdea      4882           ext.w d2
         0x0050fdec      4585           chk.w d5, d2
         0x0050fdee      1e82           move.b d2, (a7)
         0x0050fdf0      4227           clr.b -(a7)
         0x0050fdf2      4eb90075f5d8   jsr MENUKEYFRMCOM.edit_curved
         0x0050fdf8      dec6           adda.w d6, a7
     < 0x0050fdfa      600000d4       bra.w 0x50fed0
    > 0x0050fdfe      b2790083e3f4   cmp.w 0x83e3f4, d1
     < 0x0050fe04      660000ca       bne.w 0x50fed0
        0x0050fe08      554f           subq.w 0x2, a7
        0x0050fe0a      3f3c00a3       move.w 0xa3, -(a7)
        0x0050fe0e      4e91           jsr (a1)                    ; fcn.0000000a
        0x0050fe10      544f           addq.w 0x2, a7
        0x0050fe12      4a1f           tst.b (a7)+
    < 0x0050fe14      6742           beq.b 0x50fe58
       0x0050fe16      554f           subq.w 0x2, a7
       0x0050fe18      3f3c0080       move.w 0x80, -(a7)
       0x0050fe1c      4e91           jsr (a1)                    ; fcn.0000000a
       0x0050fe1e      544f           addq.w 0x2, a7
       0x0050fe20      4a1f           tst.b (a7)+
   < 0x0050fe22      6708           beq.b 0x50fe2c
      0x0050fe24      2f0c           move.l a4, -(a7)
      0x0050fe26      2f3aa0ea       move.l 0x509f12(pc), -(a7)
  < 0x0050fe2a      6016           bra.b 0x50fe42
  > 0x0050fe2c      2f0c           move.l a4, -(a7)
      0x0050fe2e      b9ecfffc       cmpa.l -0x4(a4), a4
  < 0x0050fe32      6702           beq.b 0x50fe36
     0x0050fe34      4e4d           trap 0xd
  > 0x0050fe36      243cbf000000   move.l 0xbf000000, d2
      0x0050fe3c      84ac0338       or.l 0x338(a4), d2
      0x0050fe40      2f02           move.l d2, -(a7)
  > 0x0050fe42      4eb90075fb5a   jsr MENUKEYFRMCOM.create_keyfrms
       0x0050fe48      504f           addq.w 0x8, a7
       0x0050fe4a      3f3c00a3       move.w 0xa3, -(a7)
       0x0050fe4e      4eb9004836a4   jsr MENUCOM.push_box
       0x0050fe54      544f           addq.w 0x2, a7
   < 0x0050fe56      604c           bra.b 0x50fea4
   > 0x0050fe58      554f           subq.w 0x2, a7
       0x0050fe5a      3f3c0089       move.w 0x89, -(a7)
       0x0050fe5e      4e91           jsr (a1)                    ; fcn.0000000a
       0x0050fe60      544f           addq.w 0x2, a7
       0x0050fe62      4a1f           tst.b (a7)+
   < 0x0050fe64      6714           beq.b 0x50fe7a
      0x0050fe66      2f0c           move.l a4, -(a7)
      0x0050fe68      554f           subq.w 0x2, a7
      0x0050fe6a      4ebaa752       jsr MENU3DCOM.PAS.get_curve_edit(pc)
      0x0050fe6e      1417           move.b (a7), d2
      0x0050fe70      4882           ext.w d2
      0x0050fe72      4584           chk.w d4, d2
      0x0050fe74      1e82           move.b d2, (a7)
      0x0050fe76      1f05           move.b d5, -(a7)
  < 0x0050fe78      6020           bra.b 0x50fe9a
  > 0x0050fe7a      554f           subq.w 0x2, a7
      0x0050fe7c      3f3c008a       move.w 0x8a, -(a7)
      0x0050fe80      4e91           jsr (a1)                    ; fcn.0000000a
      0x0050fe82      544f           addq.w 0x2, a7
      0x0050fe84      4a1f           tst.b (a7)+
  < 0x0050fe86      671c           beq.b 0x50fea4
     0x0050fe88      2f0c           move.l a4, -(a7)
     0x0050fe8a      554f           subq.w 0x2, a7
     0x0050fe8c      4ebaa730       jsr MENU3DCOM.PAS.get_curve_edit(pc)
     0x0050fe90      1417           move.b (a7), d2
     0x0050fe92      4882           ext.w d2
     0x0050fe94      4584           chk.w d4, d2
     0x0050fe96      1e82           move.b d2, (a7)
     0x0050fe98      4227           clr.b -(a7)
  > 0x0050fe9a      1f03           move.b d3, -(a7)
      0x0050fe9c      4eb90075f5d8   jsr MENUKEYFRMCOM.edit_curved
      0x0050fea2      dec6           adda.w d6, a7
   > 0x0050fea4      3f3c0089       move.w 0x89, -(a7)
        0x0050fea8      4227           clr.b -(a7)
        0x0050feaa      4eb900483776   jsr MENUCOM.swtch_box
        0x0050feb0      544f           addq.w 0x2, a7
        0x0050feb2      3ebc008a       move.w 0x8a, (a7)
        0x0050feb6      4227           clr.b -(a7)
        0x0050feb8      4eb900483776   jsr MENUCOM.swtch_box
        0x0050febe      544f           addq.w 0x2, a7
        0x0050fec0      3eb90083e3f4   move.w 0x83e3f4, (a7)
        0x0050fec6      4227           clr.b -(a7)
        0x0050fec8      4eb900483776   jsr MENUCOM.swtch_box
        0x0050fece      584f           addq.w 0x4, a7
     > 0x0050fed0      4ebabfde       jsr MENU3DCOM.PAS.update_3d_menu_(pc)
          0x0050fed4      1f03           move.b d3, -(a7)
          0x0050fed6      1f03           move.b d3, -(a7)
          0x0050fed8      4ebabc1c       jsr MENU3DCOM.PAS.do_3d_cutout_cu(pc)
          0x0050fedc      584f           addq.w 0x4, a7
       > 0x0050fede      4cdf1f7f       movem.l (a7)+, d0-d6/a0-a4
           0x0050fee2      4e5e           unlk a6
           0x0050fee4      4e75           rts
 152: MENU3DCOM.PAS.hit_src_fields ();
           0x0050fee6      4e56ffd6       link.w a6, 0xffd6
           0x0050feea      bfd5           cmpa.l (a5), a7
       < 0x0050feec      6206           bhi.b 0x50fef4
          0x0050feee      44fc0002       move.w 0x2, ccr
          0x0050fef2      4e76           trapv
       > 0x0050fef4      defc0026       adda.w 0x26, a7
           0x0050fef8      48e7e088       movem.l d0-d2/a0/a4, -(a7)
           0x0050fefc      7401           moveq 0x1, d2
           0x0050fefe      302e0008       move.w 0x8(a6), d0
           0x0050ff02      41faa016       lea.l 0x509f1a(pc), a0
           0x0050ff06      3200           move.w d0, d1
           0x0050ff08      e649           lsr.w 0x3, d1
           0x0050ff0a      0c410020       cmpi.w 0x20, d1
       < 0x0050ff0e      6d04           blt.b 0x50ff14
          0x0050ff10      7200           moveq 0x0, d1
      < 0x0050ff12      6004           bra.b 0x50ff18
      > 0x0050ff14      01301000       btst.l d0, (a0, d1.w)
      < 0x0050ff18      675c           beq.b 0x50ff76
          0x0050ff1a      594f           subq.w 0x4, a7
          0x0050ff1c      4227           clr.b -(a7)
          0x0050ff1e      4eb900670a94   jsr PASTECOM.get_cutout
          0x0050ff24      544f           addq.w 0x2, a7
          0x0050ff26      285f           movea.l (a7)+, a4
          0x0050ff28      554f           subq.w 0x2, a7
          0x0050ff2a      3f3c0086       move.w 0x86, -(a7)
          0x0050ff2e      4eb900480fc2   jsr MENUCOM.get_boxon
          0x0050ff34      544f           addq.w 0x2, a7
          0x0050ff36      4a1f           tst.b (a7)+
      < 0x0050ff38      6712           beq.b 0x50ff4c
         0x0050ff3a      b9ecfffc       cmpa.l -0x4(a4), a4
     < 0x0050ff3e      6702           beq.b 0x50ff42
        0x0050ff40      4e4d           trap 0xd
     > 0x0050ff42      19420327       move.b d2, 0x327(a4)
         0x0050ff46      19420332       move.b d2, 0x332(a4)
     < 0x0050ff4a      6010           bra.b 0x50ff5c
     > 0x0050ff4c      b9ecfffc       cmpa.l -0x4(a4), a4
     < 0x0050ff50      6702           beq.b 0x50ff54
        0x0050ff52      4e4d           trap 0xd
     > 0x0050ff54      422c0327       clr.b 0x327(a4)
         0x0050ff58      422c0332       clr.b 0x332(a4)
     > 0x0050ff5c      2f0c           move.l a4, -(a7)
          0x0050ff5e      2f3a9d24       move.l 0x509c84(pc), -(a7)
          0x0050ff62      1f02           move.b d2, -(a7)
          0x0050ff64      1f02           move.b d2, -(a7)
          0x0050ff66      1f02           move.b d2, -(a7)
          0x0050ff68      4ebacaf6       jsr MENU3DCOM.PAS.update_all(pc)
          0x0050ff6c      defc000e       adda.w 0xe, a7
          0x0050ff70      4eb90075cd12   jsr MENUKEYFRMCOM.tryit_trash
       > 0x0050ff76      4cdf1107       movem.l (a7)+, d0-d2/a0/a4
           0x0050ff7a      4e5e           unlk a6
           0x0050ff7c      4e75           rts
 110: MENU3DCOM.PAS.hit_front_back ();
           0x0050ff7e      4e56ffe4       link.w a6, 0xffe4
           0x0050ff82      bfd5           cmpa.l (a5), a7
       < 0x0050ff84      6206           bhi.b 0x50ff8c
          0x0050ff86      44fc0002       move.w 0x2, ccr
          0x0050ff8a      4e76           trapv
       > 0x0050ff8c      defc001c       adda.w 0x1c, a7
           0x0050ff90      48e7e080       movem.l d0-d2/a0, -(a7)
           0x0050ff94      7401           moveq 0x1, d2
           0x0050ff96      302e0008       move.w 0x8(a6), d0
           0x0050ff9a      41fa9f9e       lea.l 0x509f3a(pc), a0
           0x0050ff9e      3200           move.w d0, d1
           0x0050ffa0      e649           lsr.w 0x3, d1
           0x0050ffa2      0c410020       cmpi.w 0x20, d1
       < 0x0050ffa6      6d04           blt.b 0x50ffac
          0x0050ffa8      7200           moveq 0x0, d1
      < 0x0050ffaa      6004           bra.b 0x50ffb0
      > 0x0050ffac      01301000       btst.l d0, (a0, d1.w)
      < 0x0050ffb0      6732           beq.b 0x50ffe4
          0x0050ffb2      4ebabefc       jsr MENU3DCOM.PAS.update_3d_menu_(pc)
          0x0050ffb6      4eb90075f992   jsr MENUKEYFRMCOM.update_keyfrms
          0x0050ffbc      1f3c0002       move.b 0x2, -(a7)
          0x0050ffc0      594f           subq.w 0x4, a7
          0x0050ffc2      4227           clr.b -(a7)
          0x0050ffc4      4eb900670a94   jsr PASTECOM.get_cutout
          0x0050ffca      544f           addq.w 0x2, a7
          0x0050ffcc      4eb9006770b0   jsr PASTECOM.update_layer
          0x0050ffd2      584f           addq.w 0x4, a7
          0x0050ffd4      1e82           move.b d2, (a7)
          0x0050ffd6      1f02           move.b d2, -(a7)
          0x0050ffd8      4ebabb1c       jsr MENU3DCOM.PAS.do_3d_cutout_cu(pc)
          0x0050ffdc      584f           addq.w 0x4, a7
          0x0050ffde      4eb90075cd12   jsr MENUKEYFRMCOM.tryit_trash
       > 0x0050ffe4      4cdf0107       movem.l (a7)+, d0-d2/a0
           0x0050ffe8      4e5e           unlk a6
           0x0050ffea      4e75           rts
 108: MENU3DCOM.PAS.hit_detach ();
           0x0050ffec      4e56ffde       link.w a6, 0xffde
           0x0050fff0      bfd5           cmpa.l (a5), a7
       < 0x0050fff2      6206           bhi.b 0x50fffa
          0x0050fff4      44fc0002       move.w 0x2, ccr
          0x0050fff8      4e76           trapv
       > 0x0050fffa      defc001e       adda.w 0x1e, a7
           0x0050fffe      48e7c008       movem.l d0-d1/a4, -(a7)
           0x00510002      7201           moveq 0x1, d1
           0x00510004      302e0008       move.w 0x8(a6), d0
           0x00510008      b041           cmp.w d1, d0
       < 0x0051000a      6644           bne.b 0x510050
          0x0051000c      594f           subq.w 0x4, a7
          0x0051000e      4227           clr.b -(a7)
          0x00510010      4eb900670a94   jsr PASTECOM.get_cutout
          0x00510016      544f           addq.w 0x2, a7
          0x00510018      285f           movea.l (a7)+, a4
          0x0051001a      2f0c           move.l a4, -(a7)
          0x0051001c      1f01           move.b d1, -(a7)
          0x0051001e      4eb900670670   jsr PASTECOM.detach_cutout
          0x00510024      2e8c           move.l a4, (a7)
          0x00510026      594f           subq.w 0x4, a7
          0x00510028      1f01           move.b d1, -(a7)
          0x0051002a      4eb900670a94   jsr PASTECOM.get_cutout
          0x00510030      544f           addq.w 0x2, a7
          0x00510032      4eb900670776   jsr PASTECOM.attach_cutout
          0x00510038      504f           addq.w 0x8, a7
          0x0051003a      4a1f           tst.b (a7)+
          0x0051003c      2f0c           move.l a4, -(a7)
          0x0051003e      2f3a9c44       move.l 0x509c84(pc), -(a7)
          0x00510042      1f01           move.b d1, -(a7)
          0x00510044      1f01           move.b d1, -(a7)
          0x00510046      1f01           move.b d1, -(a7)
          0x00510048      4ebaca16       jsr MENU3DCOM.PAS.update_all(pc)
          0x0051004c      defc000e       adda.w 0xe, a7
       > 0x00510050      4cdf1003       movem.l (a7)+, d0-d1/a4
           0x00510054      4e5e           unlk a6
           0x00510056      4e75           rts
 76: MENU3DCOM.PAS.hit_attach ();
           0x00510058      4e56ffe8       link.w a6, 0xffe8
           0x0051005c      bfd5           cmpa.l (a5), a7
       < 0x0051005e      6206           bhi.b 0x510066
          0x00510060      44fc0002       move.w 0x2, ccr
          0x00510064      4e76           trapv
       > 0x00510066      defc0018       adda.w 0x18, a7
           0x0051006a      48e7e080       movem.l d0-d2/a0, -(a7)
           0x0051006e      7401           moveq 0x1, d2
           0x00510070      302e0008       move.w 0x8(a6), d0
           0x00510074      41fa9ee4       lea.l 0x509f5a(pc), a0
           0x00510078      3200           move.w d0, d1
           0x0051007a      e649           lsr.w 0x3, d1
           0x0051007c      0c410020       cmpi.w 0x20, d1
       < 0x00510080      6d04           blt.b 0x510086
          0x00510082      7200           moveq 0x0, d1
      < 0x00510084      6004           bra.b 0x51008a
      > 0x00510086      01301000       btst.l d0, (a0, d1.w)
      < 0x0051008a      6710           beq.b 0x51009c
          0x0051008c      1f02           move.b d2, -(a7)
          0x0051008e      1f02           move.b d2, -(a7)
          0x00510090      4ebaba64       jsr MENU3DCOM.PAS.do_3d_cutout_cu(pc)
          0x00510094      584f           addq.w 0x4, a7
          0x00510096      42390083d2de   clr.b 0x83d2de
       > 0x0051009c      4cdf0107       movem.l (a7)+, d0-d2/a0
           0x005100a0      4e5e           unlk a6
           0x005100a2      4e75           rts
 116: MENU3DCOM.PAS.hit_top ();
           0x005100a4      4e56ffe2       link.w a6, 0xffe2
           0x005100a8      bfd5           cmpa.l (a5), a7
       < 0x005100aa      6206           bhi.b 0x5100b2
          0x005100ac      44fc0002       move.w 0x2, ccr
          0x005100b0      4e76           trapv
       > 0x005100b2      defc001a       adda.w 0x1a, a7
           0x005100b6      48e7c088       movem.l d0-d1/a0/a4, -(a7)
           0x005100ba      7201           moveq 0x1, d1
           0x005100bc      302e0008       move.w 0x8(a6), d0
           0x005100c0      b041           cmp.w d1, d0
       < 0x005100c2      664c           bne.b 0x510110
          0x005100c4      594f           subq.w 0x4, a7
          0x005100c6      4227           clr.b -(a7)
          0x005100c8      4eb900670a94   jsr PASTECOM.get_cutout
          0x005100ce      544f           addq.w 0x2, a7
          0x005100d0      285f           movea.l (a7)+, a4
      > 0x005100d2      b9ecfffc       cmpa.l -0x4(a4), a4
     < 0x005100d6      6702           beq.b 0x5100da
        0x005100d8      4e4d           trap 0xd
     > 0x005100da      594f           subq.w 0x4, a7
         0x005100dc      1f01           move.b d1, -(a7)
         0x005100de      4eb900670a94   jsr PASTECOM.get_cutout
         0x005100e4      544f           addq.w 0x2, a7
         0x005100e6      206c000a       movea.l 0xa(a4), a0
         0x005100ea      b1df           cmpa.l (a7)+, a0
     < 0x005100ec      6706           beq.b 0x5100f4
        0x005100ee      286c000a       movea.l 0xa(a4), a4
     < 0x005100f2      60de           bra.b 0x5100d2
     > 0x005100f4      1f3c0002       move.b 0x2, -(a7)
          0x005100f8      2f0c           move.l a4, -(a7)
          0x005100fa      4eb9006770b0   jsr PASTECOM.update_layer
          0x00510100      5c4f           addq.w 0x6, a7
          0x00510102      4ebabdac       jsr MENU3DCOM.PAS.update_3d_menu_(pc)
          0x00510106      1f01           move.b d1, -(a7)
          0x00510108      1f01           move.b d1, -(a7)
          0x0051010a      4ebab9ea       jsr MENU3DCOM.PAS.do_3d_cutout_cu(pc)
          0x0051010e      584f           addq.w 0x4, a7
       > 0x00510110      4cdf1103       movem.l (a7)+, d0-d1/a0/a4
           0x00510114      4e5e           unlk a6
           0x00510116      4e75           rts
 24: MENU3DCOM.PAS.hit_alf ();
           0x00510118      4e56ff40       link.w a6, 0xff40
           0x0051011c      bfd5           cmpa.l (a5), a7
       < 0x0051011e      6206           bhi.b 0x510126
          0x00510120      44fc0002       move.w 0x2, ccr
          0x00510124      4e76           trapv
       > 0x00510126      defc00a4       adda.w 0xa4, a7
           0x0051012a      48e7fff8       movem.l d0-d7/a0-a4, -(a7)
           0x0051012e      f227e0c1       fmovem fp0/fp6-fp7, -(a7)
            0x00510132      45f90083d1d8   lea.l 0x83d1d8, a2
            0x00510138      302e0008       move.w 0x8(a6), d0
            0x0051013c      0c400001       cmpi.w 0x1, d0
        < 0x00510140      6600043e       bne.w 0x510580
           0x00510144      514f           subq.w 0x8, a7
           0x00510146      3f3c00a6       move.w 0xa6, -(a7)
           0x0051014a      4eb90048d992   jsr MENU2COM.get_numeric_val
           0x00510150      544f           addq.w 0x2, a7
           0x00510152      4eb9004081f8   jsr p_trunc
           0x00510158      584f           addq.w 0x4, a7
           0x0051015a      2c17           move.l (a7), d6
           0x0051015c      4227           clr.b -(a7)
           0x0051015e      4eb900670a94   jsr PASTECOM.get_cutout
           0x00510164      544f           addq.w 0x2, a7
           0x00510166      265f           movea.l (a7)+, a3
           0x00510168      302e000a       move.w 0xa(a6), d0
           0x0051016c      b0790083e392   cmp.w 0x83e392, d0
       < 0x00510172      660e           bne.b 0x510182
          0x00510174      b7ebfffc       cmpa.l -0x4(a3), a3
      < 0x00510178      6702           beq.b 0x51017c
         0x0051017a      4e4d           trap 0xd
      > 0x0051017c      286b0328       movea.l 0x328(a3), a4
      < 0x00510180      600a           bra.b 0x51018c
      > 0x00510182      594f           subq.w 0x4, a7
          0x00510184      4eb900707d9e   jsr GORDON_DUMMY.get_bgnd_clip
          0x0051018a      285f           movea.l (a7)+, a4
      > 0x0051018c      b8fc0001       cmpa.w 0x1, a4
       < 0x00510190      670003ee       beq.w 0x510580
          0x00510194      b7ebfffc       cmpa.l -0x4(a3), a3
      < 0x00510198      6702           beq.b 0x51019c
         0x0051019a      4e4d           trap 0xd
      > 0x0051019c      f22b478000fc   fmove.s 0xfc(a3), fp7
          0x005101a2      f22b4700010c   fmove.s 0x10c(a3), fp6
          0x005101a8      514f           subq.w 0x8, a7
          0x005101aa      3f3c00a7       move.w 0xa7, -(a7)
          0x005101ae      4eb90048d992   jsr MENU2COM.get_numeric_val
          0x005101b4      544f           addq.w 0x2, a7
          0x005101b6      4eb9004081f8   jsr p_trunc
          0x005101bc      584f           addq.w 0x4, a7
          0x005101be      7a01           moveq 0x1, d5
      > 0x005101c0      ba97           cmp.l (a7), d5
     < 0x005101c2      6e00039c       bgt.w 0x510560
        0x005101c6      2f05           move.l d5, -(a7)
        0x005101c8      4eb90075eaf8   jsr MENUKEYFRMCOM.move_all_effect
        0x005101ce      584f           addq.w 0x4, a7
        0x005101d0      b9ecfffc       cmpa.l -0x4(a4), a4
    < 0x005101d4      6702           beq.b 0x5101d8
       0x005101d6      4e4d           trap 0xd
    > 0x005101d8      302e000a       move.w 0xa(a6), d0
        0x005101dc      b0790083e392   cmp.w 0x83e392, d0
    < 0x005101e2      66000130       bne.w 0x510314
       0x005101e6      206c0030       movea.l 0x30(a4), a0
       0x005101ea      b0fc0001       cmpa.w 0x1, a0
   < 0x005101ee      67000124       beq.w 0x510314
      0x005101f2      2005           move.l d5, d0
      0x005101f4      5380           subq.l 0x1, d0
      0x005101f6      0c800000270e   cmpi.l 0x270e, d0
  < 0x005101fc      6302           bls.b 0x510200
     0x005101fe      4e4f           trap 0xf
  > 0x00510200      206c0030       movea.l 0x30(a4), a0
      0x00510204      b1e8fffc       cmpa.l -0x4(a0), a0
  < 0x00510208      6702           beq.b 0x51020c
     0x0051020a      4e4d           trap 0xd
  > 0x0051020c      32300c00       move.w (a0, d0.l * 4), d1
      0x00510210      0c417fff       cmpi.w 0x7fff, d1
  < 0x00510214      67000344       beq.w 0x51055a
     0x00510218      0c8500000001   cmpi.l 0x1, d5
  < 0x0051021e      6676           bne.b 0x510296
     0x00510220      b7ebfffc       cmpa.l -0x4(a3), a3
  < 0x00510224      6702           beq.b 0x510228
     0x00510226      4e4d           trap 0xd
  > 0x00510228      48c1           ext.l d1
     0x0051022a      34390083d238   move.w 0x83d238, d2
     0x00510230      48c2           ext.l d2
     0x00510232      4482           neg.l d2
     0x00510234      d481           add.l d1, d2
     0x00510236      f2024000       fmove.l d2, fp0
     0x0051023a      f2124423       fmul.s (a2), fp0
     0x0051023e      f22b640000fc   fmove.s fp0, 0xfc(a3)
     0x00510244      34300c02       move.w 0x2(a0, d0.l), d2
     0x00510248      48c2           ext.l d2
     0x0051024a      36390083d23a   move.w 0x83d23a, d3
     0x00510250      48c3           ext.l d3
     0x00510252      4483           neg.l d3
     0x00510254      d682           add.l d2, d3
     0x00510256      048300000400   subi.l 0x400, d3
     0x0051025c      f2034000       fmove.l d3, fp0
     0x00510260      f23944230083.  fmul.s 0x83d1e0, fp0
     0x00510268      f22b6400010c   fmove.s fp0, 0x10c(a3)
     0x0051026e      f23c40000000.  fmove.l 0x0, fp0
     0x00510276      f22b6400011c   fmove.s fp0, 0x11c(a3)
     0x0051027c      2f0b           move.l a3, -(a7)
     0x0051027e      2f3a9cfa       move.l 0x509f7a(pc), -(a7)
     0x00510282      1f3c0001       move.b 0x1, -(a7)
     0x00510286      4eb90075fcb8   jsr MENUKEYFRMCOM.edit_keyfrm
     0x0051028c      defc000a       adda.w 0xa, a7
     0x00510290      4eb900670a5c   jsr PASTECOM.save_layers
  > 0x00510296      b7ebfffc       cmpa.l -0x4(a3), a3
  < 0x0051029a      6702           beq.b 0x51029e
     0x0051029c      4e4d           trap 0xd
  > 0x0051029e      226c0030       movea.l 0x30(a4), a1
     0x005102a2      b3e9fffc       cmpa.l -0x4(a1), a1
  < 0x005102a6      6702           beq.b 0x5102aa
     0x005102a8      4e4d           trap 0xd
  > 0x005102aa      34310c00       move.w (a1, d0.l * 4), d2
     0x005102ae      48c2           ext.l d2
     0x005102b0      36390083d238   move.w 0x83d238, d3
     0x005102b6      48c3           ext.l d3
     0x005102b8      4483           neg.l d3
     0x005102ba      d682           add.l d2, d3
     0x005102bc      f2034000       fmove.l d3, fp0
     0x005102c0      f2124423       fmul.s (a2), fp0
     0x005102c4      f200001a       fneg fp0
     0x005102c8      f22b64000144   fmove.s fp0, 0x144(a3)
     0x005102ce      34310c02       move.w 0x2(a1, d0.l), d2
     0x005102d2      48c2           ext.l d2
     0x005102d4      36390083d23a   move.w 0x83d23a, d3
     0x005102da      48c3           ext.l d3
     0x005102dc      4483           neg.l d3
     0x005102de      d682           add.l d2, d3
     0x005102e0      048300000400   subi.l 0x400, d3
     0x005102e6      f2034000       fmove.l d3, fp0
     0x005102ea      f23944230083.  fmul.s 0x83d1e0, fp0
     0x005102f2      f200001a       fneg fp0
     0x005102f6      f22b64000154   fmove.s fp0, 0x154(a3)
     0x005102fc      f23c40000000.  fmove.l 0x0, fp0
     0x00510304      f22b64000164   fmove.s fp0, 0x164(a3)
     0x0051030a      2f0b           move.l a3, -(a7)
     0x0051030c      2f3a9c70       move.l 0x509f7e(pc), -(a7)
  < 0x00510310      60000234       bra.w 0x510546
  > 0x00510314      302e000a       move.w 0xa(a6), d0
       0x00510318      b0790083e394   cmp.w 0x83e394, d0
   < 0x0051031e      660000a6       bne.w 0x5103c6
      0x00510322      206c0030       movea.l 0x30(a4), a0
      0x00510326      b0fc0001       cmpa.w 0x1, a0
  < 0x0051032a      6700009a       beq.w 0x5103c6
     0x0051032e      2205           move.l d5, d1
     0x00510330      5381           subq.l 0x1, d1
     0x00510332      0c810000270e   cmpi.l 0x270e, d1
  < 0x00510338      6302           bls.b 0x51033c
     0x0051033a      4e4f           trap 0xf
  > 0x0051033c      206c0030       movea.l 0x30(a4), a0
     0x00510340      b1e8fffc       cmpa.l -0x4(a0), a0
  < 0x00510344      6702           beq.b 0x510348
     0x00510346      4e4d           trap 0xd
  > 0x00510348      34301c00       move.w (a0, d1.l * 4), d2
     0x0051034c      0c427fff       cmpi.w 0x7fff, d2
  < 0x00510350      67000208       beq.w 0x51055a
     0x00510354      b7ebfffc       cmpa.l -0x4(a3), a3
  < 0x00510358      6702           beq.b 0x51035c
     0x0051035a      4e4d           trap 0xd
  > 0x0051035c      2606           move.l d6, d3
     0x0051035e      5383           subq.l 0x1, d3
     0x00510360      0c830000270e   cmpi.l 0x270e, d3
  < 0x00510366      6302           bls.b 0x51036a
     0x00510368      4e4f           trap 0xf
  > 0x0051036a      48c2           ext.l d2
     0x0051036c      38303c00       move.w (a0, d3.l * 4), d4
     0x00510370      48c4           ext.l d4
     0x00510372      4484           neg.l d4
     0x00510374      d882           add.l d2, d4
     0x00510376      f2044000       fmove.l d4, fp0
     0x0051037a      f2124423       fmul.s (a2), fp0
     0x0051037e      f2001c22       fadd fp7, fp0
     0x00510382      f22b640000fc   fmove.s fp0, 0xfc(a3)
     0x00510388      38301c02       move.w 0x2(a0, d1.l), d4
     0x0051038c      48c4           ext.l d4
     0x0051038e      30303c02       move.w 0x2(a0, d3.l), d0
     0x00510392      48c0           ext.l d0
     0x00510394      4480           neg.l d0
     0x00510396      d084           add.l d4, d0
     0x00510398      f2004000       fmove.l d0, fp0
     0x0051039c      f23944230083.  fmul.s 0x83d1e0, fp0
     0x005103a4      f2001822       fadd fp6, fp0
     0x005103a8      f22b6400010c   fmove.s fp0, 0x10c(a3)
     0x005103ae      f23c40000000.  fmove.l 0x0, fp0
     0x005103b6      f22b6400011c   fmove.s fp0, 0x11c(a3)
     0x005103bc      2f0b           move.l a3, -(a7)
     0x005103be      2f3a9bc2       move.l 0x509f82(pc), -(a7)
  < 0x005103c2      60000182       bra.w 0x510546
  > 0x005103c6      b0790083e390   cmp.w 0x83e390, d0
   < 0x005103cc      6600018c       bne.w 0x51055a
      0x005103d0      206c0030       movea.l 0x30(a4), a0
      0x005103d4      b0fc0001       cmpa.w 0x1, a0
  < 0x005103d8      67000180       beq.w 0x51055a
     0x005103dc      206c0034       movea.l 0x34(a4), a0
     0x005103e0      b0fc0001       cmpa.w 0x1, a0
  < 0x005103e4      67000174       beq.w 0x51055a
     0x005103e8      206c0038       movea.l 0x38(a4), a0
     0x005103ec      b0fc0001       cmpa.w 0x1, a0
  < 0x005103f0      67000168       beq.w 0x51055a
     0x005103f4      206c003c       movea.l 0x3c(a4), a0
     0x005103f8      b0fc0001       cmpa.w 0x1, a0
  < 0x005103fc      6700015c       beq.w 0x51055a
     0x00510400      2205           move.l d5, d1
     0x00510402      5381           subq.l 0x1, d1
     0x00510404      0c810000270e   cmpi.l 0x270e, d1
  < 0x0051040a      6302           bls.b 0x51040e
     0x0051040c      4e4f           trap 0xf
  > 0x0051040e      206c0030       movea.l 0x30(a4), a0
     0x00510412      b1e8fffc       cmpa.l -0x4(a0), a0
  < 0x00510416      6702           beq.b 0x51041a
     0x00510418      4e4d           trap 0xd
  > 0x0051041a      34301c00       move.w (a0, d1.l * 4), d2
     0x0051041e      0c427fff       cmpi.w 0x7fff, d2
  < 0x00510422      67000136       beq.w 0x51055a
     0x00510426      206c0034       movea.l 0x34(a4), a0
     0x0051042a      b1e8fffc       cmpa.l -0x4(a0), a0
  < 0x0051042e      6702           beq.b 0x510432
     0x00510430      4e4d           trap 0xd
  > 0x00510432      34301c00       move.w (a0, d1.l * 4), d2
     0x00510436      0c427fff       cmpi.w 0x7fff, d2
  < 0x0051043a      6700011e       beq.w 0x51055a
     0x0051043e      206c0038       movea.l 0x38(a4), a0
     0x00510442      b1e8fffc       cmpa.l -0x4(a0), a0
  < 0x00510446      6702           beq.b 0x51044a
     0x00510448      4e4d           trap 0xd
  > 0x0051044a      34301c00       move.w (a0, d1.l * 4), d2
     0x0051044e      0c427fff       cmpi.w 0x7fff, d2
  < 0x00510452      67000106       beq.w 0x51055a
     0x00510456      206c003c       movea.l 0x3c(a4), a0
     0x0051045a      b1e8fffc       cmpa.l -0x4(a0), a0
  < 0x0051045e      6702           beq.b 0x510462
     0x00510460      4e4d           trap 0xd
  > 0x00510462      32301c00       move.w (a0, d1.l * 4), d1
     0x00510466      0c417fff       cmpi.w 0x7fff, d1
  < 0x0051046a      670000ee       beq.w 0x51055a
     0x0051046e      7e01           moveq 0x1, d7
  > 0x00510470      2207           move.l d7, d1
     0x00510472      5381           subq.l 0x1, d1
     0x00510474      0c8100000003   cmpi.l 0x3, d1
  < 0x0051047a      6302           bls.b 0x51047e
     0x0051047c      4e4f           trap 0xf
  > 0x0051047e      b7ebfffc       cmpa.l -0x4(a3), a3
  < 0x00510482      6702           beq.b 0x510486
     0x00510484      4e4d           trap 0xd
  > 0x00510486      2405           move.l d5, d2
     0x00510488      5382           subq.l 0x1, d2
     0x0051048a      0c820000270e   cmpi.l 0x270e, d2
  < 0x00510490      6302           bls.b 0x510494
     0x00510492      4e4f           trap 0xf
  > 0x00510494      b9ecfffc       cmpa.l -0x4(a4), a4
  < 0x00510498      6702           beq.b 0x51049c
     0x0051049a      4e4d           trap 0xd
  > 0x0051049c      20741c30       movea.l 0x30(a4, d1.l), a0
     0x005104a0      b1e8fffc       cmpa.l -0x4(a0), a0
  < 0x005104a4      6702           beq.b 0x5104a8
     0x005104a6      4e4d           trap 0xd
  > 0x005104a8      36302c00       move.w (a0, d2.l * 4), d3
     0x005104ac      48c3           ext.l d3
     0x005104ae      38390083d238   move.w 0x83d238, d4
     0x005104b4      48c4           ext.l d4
     0x005104b6      4484           neg.l d4
     0x005104b8      d883           add.l d3, d4
     0x005104ba      f2044000       fmove.l d4, fp0
     0x005104be      f2124423       fmul.s (a2), fp0
     0x005104c2      f23364001f20.  fmove.s fp0, 0x2b8(a3, d1.l * 8)
     0x005104ca      36302c02       move.w 0x2(a0, d2.l), d3
     0x005104ce      48c3           ext.l d3
     0x005104d0      34390083d23a   move.w 0x83d23a, d2
     0x005104d6      48c2           ext.l d2
     0x005104d8      4482           neg.l d2
     0x005104da      d483           add.l d3, d2
     0x005104dc      048200000400   subi.l 0x400, d2
     0x005104e2      f2024000       fmove.l d2, fp0
     0x005104e6      f23944230083.  fmul.s 0x83d1e0, fp0
     0x005104ee      f23364001f20.  fmove.s fp0, 0x2bc(a3, d1.l * 8)
     0x005104f6      5287           addq.l 0x1, d7
     0x005104f8      0c8700000004   cmpi.l 0x4, d7
  < 0x005104fe      6f00ff70       ble.w 0x510470
     0x00510502      b7ebfffc       cmpa.l -0x4(a3), a3
  < 0x00510506      6702           beq.b 0x51050a
     0x00510508      4e4d           trap 0xd
  > 0x0051050a      48780001       pea.l 0x1
     0x0051050e      2f2b002a       move.l 0x2a(a3), -(a7)
     0x00510512      2f2b0026       move.l 0x26(a3), -(a7)
     0x00510516      486b00f0       pea.l 0xf0(a3)
     0x0051051a      486b0138       pea.l 0x138(a3)
     0x0051051e      486b02a0       pea.l 0x2a0(a3)
     0x00510522      486b0056       pea.l 0x56(a3)
     0x00510526      41eb02d8       lea.l 0x2d8(a3), a0
     0x0051052a      7207           moveq 0x7, d1
  > 0x0051052c      2f20           move.l -(a0), -(a7)
  < 0x0051052e      51c9fffc       dbra d1, 0x51052c
     0x00510532      1f3c0002       move.b 0x2, -(a7)
     0x00510536      4eb90067ddda   jsr THREEDMAV.calc_pin_transf
     0x0051053c      defc003a       adda.w 0x3a, a7
     0x00510540      2e8b           move.l a3, (a7)
     0x00510542      2f3a9a42       move.l 0x509f86(pc), -(a7)
  > 0x00510546      1f3c0001       move.b 0x1, -(a7)
     0x0051054a      4eb90075fcb8   jsr MENUKEYFRMCOM.edit_keyfrm
     0x00510550      defc000a       adda.w 0xa, a7
     0x00510554      4eb900670a5c   jsr PASTECOM.save_layers
  > 0x0051055a      5285           addq.l 0x1, d5
     < 0x0051055c      6800fc62       bvc.w 0x5101c0
     > 0x00510560      544f           addq.w 0x2, a7
          0x00510562      3ebc00a6       move.w 0xa6, (a7)
          0x00510566      f2064000       fmove.l d6, fp0
          0x0051056a      f2276400       fmove.s fp0, -(a7)
          0x0051056e      1f3c0001       move.b 0x1, -(a7)
          0x00510572      1f3c0001       move.b 0x1, -(a7)
          0x00510576      4eb90048da84   jsr MENU2COM.set_numeric_val
          0x0051057c      defc000a       adda.w 0xa, a7
       > 0x00510580      f21fd083       fmovem (a7)+, fp0/fp6-fp7
            0x00510584      4cdf1fff       movem.l (a7)+, d0-d7/a0-a4
            0x00510588      4e5e           unlk a6
            0x0051058a      4e75           rts
            ; XREFS: CALL 0x0075cde2  CALL 0x0076020a  CALL 0x007611ea  
            ; XREFS: CALL 0x007612fe  CALL 0x00761358  CALL 0x007614ac  
            ; XREFS: CALL 0x00761636  
 96: MENU3DCOM.PAS.do_3d_effect ();
           0x0051058c      4e56ffa6       link.w a6, 0xffa6
           0x00510590      bfd5           cmpa.l (a5), a7
       < 0x00510592      6206           bhi.b 0x51059a
          0x00510594      44fc0002       move.w 0x2, ccr
          0x00510598      4e76           trapv
       > 0x0051059a      defc0046       adda.w 0x46, a7
           0x0051059e      48e7fff8       movem.l d0-d7/a0-a4, -(a7)
           0x005105a2      41ee000a       lea.l 0xa(a6), a0
           0x005105a6      43f900480fc2   lea.l MENUCOM.get_boxon, a1
           0x005105ac      45f90075f116   lea.l MENUKEYFRMCOM.do_keyfrm_bar, a2
           0x005105b2      47fab8fc       lea.l MENU3DCOM.PAS.update_3d_menu_(pc), a3
           0x005105b6      7401           moveq 0x1, d2
           0x005105b8      760c           moveq 0xc, d3
           0x005105ba      7802           moveq 0x2, d4
           0x005105bc      7a03           moveq 0x3, d5
           0x005105be      7c2c           moveq 0x2c, d6
           0x005105c0      7e1f           moveq 0x1f, d7
           0x005105c2      594f           subq.w 0x4, a7
           0x005105c4      4227           clr.b -(a7)
           0x005105c6      4eb900670a94   jsr PASTECOM.get_cutout
           0x005105cc      544f           addq.w 0x2, a7
           0x005105ce      285f           movea.l (a7)+, a4
           0x005105d0      b9ecfffc       cmpa.l -0x4(a4), a4
       < 0x005105d4      6702           beq.b 0x5105d8
          0x005105d6      4e4d           trap 0xd
       > 0x005105d8      3010           move.w (a0), d0
           0x005105da      0c40000e       cmpi.w 0xe, d0
       < 0x005105de      6302           bls.b 0x5105e2
          0x005105e0      4e4e           trap 0xe
       > 0x005105e2      d040           add.w d0, d0
           0x005105e4      303b0006       move.w 0x5105ec(pc, d0.w), d0
           0x005105e8      4efb0002       jmp 0x5105ec(pc, d0.w)
            0x005105ec      0152           bchg.b d0, (a2)
            0x005105ee      0152           bchg.b d0, (a2)
            0x005105f0      fff4           invalid
            0x005105f2      0152           bchg.b d0, (a2)
            0x005105f4      01c0           bset.b d0, d0
            0x005105f6      001e0030       ori.b 0x30, (a6)+
            0x005105fa      0030003000cc   ori.b 0x30, -0x34(a0, d0.w)
            0x00510600      0090001e0030   ori.l 0x1e0030, (a0)
            0x00510606      00cc0090       
            0x00510607      cc00           and.b d0, d6
            0x00510609      904e           sub.w a6, d0
            0x0051060b      bad5           cmpa.w (a5), a5
            0x0051060d      b62f0c42       cmp.b 0xc42(a7), d3
            0x00510611      274ebac5       move.l a6, -0x453b(a3)
            0x00510615      3e5c           movea.w (a4)+, a7
           0x00510617      4f600001       
       < 0x00510618      600001a6       bra.w 0x5107c0
          0x0051061c      2f0c           move.l a4, -(a7)
          0x0051061e      4227           clr.b -(a7)
          0x00510620      4eb9006734fe   jsr PASTECOM.load_unsized_cu
          0x00510626      5c4f           addq.w 0x6, a7
          0x00510628      3010           move.w (a0), d0
          0x0051062a      0c400007       cmpi.w 0x7, d0
      < 0x0051062e      6626           bne.b 0x510656
         0x00510630      2f0c           move.l a4, -(a7)
         0x00510632      4227           clr.b -(a7)
         0x00510634      4227           clr.b -(a7)
         0x00510636      4a6c034c       tst.w 0x34c(a4)
     < 0x0051063a      660e           bne.b 0x51064a
        0x0051063c      554f           subq.w 0x2, a7
        0x0051063e      3f3c00a8       move.w 0xa8, -(a7)
        0x00510642      4e91           jsr (a1)                    ; fcn.0000000a
        0x00510644      544f           addq.w 0x2, a7
        0x00510646      4a1f           tst.b (a7)+
    < 0x00510648      6702           beq.b 0x51064c
    > 0x0051064a      5217           addq.b 0x1, (a7)
    > 0x0051064c      1217           move.b (a7), d1
         0x0051064e      4881           ext.w d1
         0x00510650      4382           chk.w d2, d1
         0x00510652      1e81           move.b d1, (a7)
     < 0x00510654      6006           bra.b 0x51065c
     > 0x00510656      2f0c           move.l a4, -(a7)
         0x00510658      1f02           move.b d2, -(a7)
         0x0051065a      1f02           move.b d2, -(a7)
     > 0x0051065c      4227           clr.b -(a7)
          0x0051065e      4227           clr.b -(a7)
          0x00510660      4ebac5ba       jsr MENU3DCOM.PAS.update_single(pc)
          0x00510664      dec3           adda.w d3, a7
          0x00510666      b043           cmp.w d3, d0
      < 0x00510668      670e           beq.b 0x510678
         0x0051066a      4227           clr.b -(a7)
         0x0051066c      4e92           jsr (a2)                    ; fcn.00000009+0x2
         0x0051066e      544f           addq.w 0x2, a7
         0x00510670      0c400008       cmpi.w 0x8, d0
     < 0x00510674      6702           beq.b 0x510678
        0x00510676      4e93           jsr (a3)                    ; fcn.0000000c
    > 0x00510678      60000146       bra.w 0x5107c0
         0x0051067c      4a6e0008       tst.w 0x8(a6)
     < 0x00510680      6610           bne.b 0x510692
        0x00510682      2f0c           move.l a4, -(a7)
        0x00510684      4ebad410       jsr MENU3DCOM.PAS.update_final(pc)
        0x00510688      544f           addq.w 0x2, a7
        0x0051068a      4217           clr.b (a7)
        0x0051068c      4e92           jsr (a2)                    ; fcn.00000009+0x2
        0x0051068e      544f           addq.w 0x2, a7
    < 0x00510690      6010           bra.b 0x5106a2
    > 0x00510692      4227           clr.b -(a7)
        0x00510694      4e92           jsr (a2)                    ; fcn.00000009+0x2
        0x00510696      1e84           move.b d4, (a7)
        0x00510698      2f0c           move.l a4, -(a7)
        0x0051069a      4eb9006770b0   jsr PASTECOM.update_layer
        0x005106a0      5c4f           addq.w 0x6, a7
    > 0x005106a2      4e93           jsr (a3)                    ; fcn.0000000c
         0x005106a4      1f02           move.b d2, -(a7)
         0x005106a6      1f02           move.b d2, -(a7)
         0x005106a8      4ebab44c       jsr MENU3DCOM.PAS.do_3d_cutout_cu(pc)
         0x005106ac      584f           addq.w 0x4, a7
         0x005106ae      42390083d30c   clr.b 0x83d30c
     < 0x005106b4      6000010a       bra.w 0x5107c0
        0x005106b8      4227           clr.b -(a7)
        0x005106ba      10390083d1ce   move.b 0x83d1ce, d0
        0x005106c0      4400           neg.b d0
        0x005106c2      5200           addq.b 0x1, d0
    < 0x005106c4      6716           beq.b 0x5106dc
       0x005106c6      4a2c02db       tst.b 0x2db(a4)
   < 0x005106ca      6610           bne.b 0x5106dc
      0x005106cc      4a2c02da       tst.b 0x2da(a4)
  < 0x005106d0      6608           bne.b 0x5106da
     0x005106d2      102c02d9       move.b 0x2d9(a4), d0
     0x005106d6      b002           cmp.b d2, d0
  < 0x005106d8      6602           bne.b 0x5106dc
  > 0x005106da      5217           addq.b 0x1, (a7)
  > 0x005106dc      4227           clr.b -(a7)
        0x005106de      4227           clr.b -(a7)
        0x005106e0      3f2c02e8       move.w 0x2e8(a4), -(a7)
        0x005106e4      4eb9004b22e2   jsr MENUPASTECOM.paste_set_out
        0x005106ea      5c4f           addq.w 0x6, a7
        0x005106ec      4217           clr.b (a7)
        0x005106ee      3010           move.w (a0), d0
        0x005106f0      0c40000d       cmpi.w 0xd, d0
    < 0x005106f4      6602           bne.b 0x5106f8
       0x005106f6      5217           addq.b 0x1, (a7)
    > 0x005106f8      4e92           jsr (a2)                    ; fcn.00000009+0x2
        0x005106fa      544f           addq.w 0x2, a7
        0x005106fc      3010           move.w (a0), d0
        0x005106fe      0c400009       cmpi.w 0x9, d0
    < 0x00510702      6636           bne.b 0x51073a
       0x00510704      554f           subq.w 0x2, a7
       0x00510706      1f05           move.b d5, -(a7)
       0x00510708      4267           clr.w -(a7)
       0x0051070a      4227           clr.b -(a7)
       0x0051070c      4227           clr.b -(a7)
       0x0051070e      554f           subq.w 0x2, a7
       0x00510710      3f06           move.w d6, -(a7)
       0x00510712      4e91           jsr (a1)                    ; fcn.0000000a
       0x00510714      544f           addq.w 0x2, a7
       0x00510716      4a1f           tst.b (a7)+
   < 0x00510718      660c           bne.b 0x510726
      0x0051071a      554f           subq.w 0x2, a7
      0x0051071c      3f07           move.w d7, -(a7)
      0x0051071e      4e91           jsr (a1)                    ; fcn.0000000a
      0x00510720      544f           addq.w 0x2, a7
      0x00510722      4a1f           tst.b (a7)+
  < 0x00510724      6702           beq.b 0x510728
  > 0x00510726      5217           addq.b 0x1, (a7)
  > 0x00510728      1017           move.b (a7), d0
       0x0051072a      4880           ext.w d0
       0x0051072c      4182           chk.w d2, d0
       0x0051072e      1e80           move.b d0, (a7)
       0x00510730      4eb900717be4   jsr MENUJOCKCOM.do_jock_bgnd
       0x00510736      504f           addq.w 0x8, a7
       0x00510738      4a1f           tst.b (a7)+
   > 0x0051073a      60000084       bra.w 0x5107c0
       0x0051073e      4227           clr.b -(a7)
       0x00510740      4e92           jsr (a2)                    ; fcn.00000009+0x2
       0x00510742      1f05           move.b d5, -(a7)
       0x00510744      4267           clr.w -(a7)
       0x00510746      4227           clr.b -(a7)
       0x00510748      4227           clr.b -(a7)
       0x0051074a      554f           subq.w 0x2, a7
       0x0051074c      3f06           move.w d6, -(a7)
       0x0051074e      4e91           jsr (a1)                    ; fcn.0000000a
       0x00510750      544f           addq.w 0x2, a7
       0x00510752      4a1f           tst.b (a7)+
   < 0x00510754      660c           bne.b 0x510762
      0x00510756      554f           subq.w 0x2, a7
      0x00510758      3f07           move.w d7, -(a7)
      0x0051075a      4e91           jsr (a1)                    ; fcn.0000000a
      0x0051075c      544f           addq.w 0x2, a7
      0x0051075e      4a1f           tst.b (a7)+
  < 0x00510760      6702           beq.b 0x510764
  > 0x00510762      5217           addq.b 0x1, (a7)
  > 0x00510764      1017           move.b (a7), d0
       0x00510766      4880           ext.w d0
       0x00510768      4182           chk.w d2, d0
       0x0051076a      1e80           move.b d0, (a7)
       0x0051076c      4eb900717be4   jsr MENUJOCKCOM.do_jock_bgnd
       0x00510772      504f           addq.w 0x8, a7
       0x00510774      4a1f           tst.b (a7)+
       0x00510776      4a6e0008       tst.w 0x8(a6)
   < 0x0051077a      6616           bne.b 0x510792
      0x0051077c      1f02           move.b d2, -(a7)
      0x0051077e      4227           clr.b -(a7)
      0x00510780      3010           move.w (a0), d0
      0x00510782      b042           cmp.w d2, d0
  < 0x00510784      6602           bne.b 0x510788
     0x00510786      5217           addq.b 0x1, (a7)
  > 0x00510788      4eb90067439c   jsr PASTECOM.update_cutout
      0x0051078e      584f           addq.w 0x4, a7
  < 0x00510790      600c           bra.b 0x51079e
  > 0x00510792      1f04           move.b d4, -(a7)
      0x00510794      2f0c           move.l a4, -(a7)
      0x00510796      4eb9006770b0   jsr PASTECOM.update_layer
      0x0051079c      5c4f           addq.w 0x6, a7
  > 0x0051079e      4e93           jsr (a3)                    ; fcn.0000000c
       0x005107a0      1f02           move.b d2, -(a7)
       0x005107a2      1f02           move.b d2, -(a7)
       0x005107a4      4ebab350       jsr MENU3DCOM.PAS.do_3d_cutout_cu(pc)
       0x005107a8      584f           addq.w 0x4, a7
   < 0x005107aa      6014           bra.b 0x5107c0
      0x005107ac      4eb9004b21ce   jsr MENUPASTECOM.paste_no_cutout
      0x005107b2      4227           clr.b -(a7)
      0x005107b4      2f0c           move.l a4, -(a7)
      0x005107b6      4eb9006770b0   jsr PASTECOM.update_layer
   < 0x005107bc      6000fe58       bra.w 0x510616
   > 0x005107c0      4cdf1fff       movem.l (a7)+, d0-d7/a0-a4
            0x005107c4      4e5e           unlk a6
            0x005107c6      4e75           rts
 24: MENU3DCOM.PAS.attach_transfor ();
           0x005107c8      4e56ff90       link.w a6, 0xff90
           0x005107cc      bfd5           cmpa.l (a5), a7
       < 0x005107ce      6206           bhi.b 0x5107d6
          0x005107d0      44fc0002       move.w 0x2, ccr
          0x005107d4      4e76           trapv
       > 0x005107d6      defc0058       adda.w 0x58, a7
           0x005107da      48e7f0f8       movem.l d0-d3/a0-a4, -(a7)
           0x005107de      f227e001       fmovem fp0, -(a7)
            0x005107e2      47ee000c       lea.l 0xc(a6), a3
            0x005107e6      49eeffe8       lea.l -0x18(a6), a4
            0x005107ea      7200           moveq 0x0, d1
            0x005107ec      740c           moveq 0xc, d2
            0x005107ee      7605           moveq 0x5, d3
            0x005107f0      10390083d2de   move.b 0x83d2de, d0
            0x005107f6      4880           ext.w d0
            0x005107f8      5140           subq.w 0x8, d0
            0x005107fa      0c400007       cmpi.w 0x7, d0
        < 0x005107fe      62000274       bhi.w 0x510a74
           0x00510802      d040           add.w d0, d0
           0x00510804      303b0006       move.w 0x51080c(pc, d0.w), d0
           0x00510808      4efb0002       jmp 0x51080c(pc, d0.w)
           0x0051080c      0162           bchg.b d0, -(a2)
           0x0051080e      01aa01e8       bclr.b d0, 0x1e8(a2)
           0x00510812      0228007c011a   andi.b 0x7c, 0x11a(a0)
           0x00510818      00ca0010       
           0x00510819      ca00           and.b d0, d5
           0x0051081b      109e           move.b (a6)+, (a0)
           0x0051081d      c220           and.b -(a0), d1
           0x0051081f      53b1e8ff       subq.l 0x1, -0x1(a1, a6.l)
           0x00510823      fc67024e       fsne.b -(a7)
           0x00510827      4d2f2800       chk.l 0x2800(a7), d6
           0x0051082b      36f20140       move.w (a2, invalid.w), (a3)+
           0x0051082f      00f22764       
           0x00510830      f2276400       fmove.s fp0, -(a7)
           0x00510834      f2014000       fmove.l d1, fp0
           0x00510838      f2276400       fmove.s fp0, -(a7)
           0x0051083c      4eb90067a406   jsr THREEDMAV.xyz_point
           0x00510842      dec2           adda.w d2, a7
           0x00510844      289f           move.l (a7)+, (a4)
           0x00510846      2d5fffec       move.l (a7)+, -0x14(a6)
           0x0051084a      2d57fff0       move.l (a7), -0x10(a6)
           0x0051084e      514f           subq.w 0x8, a7
           0x00510850      206e0008       movea.l 0x8(a6), a0
           0x00510854      b1e8fffc       cmpa.l -0x4(a0), a0
       < 0x00510858      6702           beq.b 0x51085c
          0x0051085a      4e4d           trap 0xd
       > 0x0051085c      2f28003e       move.l 0x3e(a0), -(a7)
      > 0x00510860      f2014000       fmove.l d1, fp0
         0x00510864      f2276400       fmove.s fp0, -(a7)
    > 0x00510868      f2014000       fmove.l d1, fp0
       0x0051086c      f2276400       fmove.s fp0, -(a7)
       0x00510870      4eb90067a406   jsr THREEDMAV.xyz_point
       0x00510876      dec2           adda.w d2, a7
   > 0x00510878      2d5ffff4       move.l (a7)+, -0xc(a6)
      0x0051087c      2d5ffff8       move.l (a7)+, -0x8(a6)
      0x00510880      2d5ffffc       move.l (a7)+, -0x4(a6)
  < 0x00510884      60000228       bra.w 0x510aae
     0x00510888      9ec2           suba.w d2, a7
     0x0051088a      f2014000       fmove.l d1, fp0
     0x0051088e      f2276400       fmove.s fp0, -(a7)
     0x00510892      2053           movea.l (a3), a0
     0x00510894      b1e8fffc       cmpa.l -0x4(a0), a0
  < 0x00510898      6702           beq.b 0x51089c
     0x0051089a      4e4d           trap 0xd
  > 0x0051089c      2f280042       move.l 0x42(a0), -(a7)
     0x005108a0      f2014000       fmove.l d1, fp0
     0x005108a4      f2276400       fmove.s fp0, -(a7)
     0x005108a8      4eb90067a406   jsr THREEDMAV.xyz_point
     0x005108ae      dec2           adda.w d2, a7
     0x005108b0      289f           move.l (a7)+, (a4)
     0x005108b2      2d5fffec       move.l (a7)+, -0x14(a6)
     0x005108b6      2d57fff0       move.l (a7), -0x10(a6)
     0x005108ba      514f           subq.w 0x8, a7
     0x005108bc      f2014000       fmove.l d1, fp0
     0x005108c0      f2276400       fmove.s fp0, -(a7)
     0x005108c4      206e0008       movea.l 0x8(a6), a0
     0x005108c8      b1e8fffc       cmpa.l -0x4(a0), a0
  < 0x005108cc      6702           beq.b 0x5108d0
     0x005108ce      4e4d           trap 0xd
  > 0x005108d0      2f280052       move.l 0x52(a0), -(a7)
  < 0x005108d4      6092           bra.b 0x510868
      0x005108d6      9ec2           suba.w d2, a7
      0x005108d8      f2014000       fmove.l d1, fp0
      0x005108dc      f2276400       fmove.s fp0, -(a7)
      0x005108e0      2053           movea.l (a3), a0
      0x005108e2      b1e8fffc       cmpa.l -0x4(a0), a0
  < 0x005108e6      6702           beq.b 0x5108ea
     0x005108e8      4e4d           trap 0xd
  > 0x005108ea      2f280052       move.l 0x52(a0), -(a7)
      0x005108ee      f2014000       fmove.l d1, fp0
      0x005108f2      f2276400       fmove.s fp0, -(a7)
      0x005108f6      4eb90067a406   jsr THREEDMAV.xyz_point
      0x005108fc      dec2           adda.w d2, a7
      0x005108fe      289f           move.l (a7)+, (a4)
      0x00510900      2d5fffec       move.l (a7)+, -0x14(a6)
      0x00510904      2d57fff0       move.l (a7), -0x10(a6)
      0x00510908      514f           subq.w 0x8, a7
      0x0051090a      f2014000       fmove.l d1, fp0
      0x0051090e      f2276400       fmove.s fp0, -(a7)
      0x00510912      206e0008       movea.l 0x8(a6), a0
      0x00510916      b1e8fffc       cmpa.l -0x4(a0), a0
  < 0x0051091a      6702           beq.b 0x51091e
     0x0051091c      4e4d           trap 0xd
  > 0x0051091e      2f280042       move.l 0x42(a0), -(a7)
   < 0x00510922      6000ff44       bra.w 0x510868
       0x00510926      9ec2           suba.w d2, a7
       0x00510928      2053           movea.l (a3), a0
       0x0051092a      b1e8fffc       cmpa.l -0x4(a0), a0
   < 0x0051092e      6702           beq.b 0x510932
      0x00510930      4e4d           trap 0xd
   > 0x00510932      2f28003e       move.l 0x3e(a0), -(a7)
       0x00510936      f2014000       fmove.l d1, fp0
       0x0051093a      f2276400       fmove.s fp0, -(a7)
       0x0051093e      f2014000       fmove.l d1, fp0
       0x00510942      f2276400       fmove.s fp0, -(a7)
       0x00510946      4eb90067a406   jsr THREEDMAV.xyz_point
       0x0051094c      dec2           adda.w d2, a7
       0x0051094e      289f           move.l (a7)+, (a4)
       0x00510950      2d5fffec       move.l (a7)+, -0x14(a6)
       0x00510954      2d57fff0       move.l (a7), -0x10(a6)
       0x00510958      514f           subq.w 0x8, a7
       0x0051095a      206e0008       movea.l 0x8(a6), a0
       0x0051095e      b1e8fffc       cmpa.l -0x4(a0), a0
   < 0x00510962      6702           beq.b 0x510966
      0x00510964      4e4d           trap 0xd
   > 0x00510966      2f280036       move.l 0x36(a0), -(a7)
    < 0x0051096a      6000fef4       bra.w 0x510860
        0x0051096e      9ec2           suba.w d2, a7
        0x00510970      2053           movea.l (a3), a0
        0x00510972      b1e8fffc       cmpa.l -0x4(a0), a0
    < 0x00510976      6702           beq.b 0x51097a
       0x00510978      4e4d           trap 0xd
    > 0x0051097a      2f28003a       move.l 0x3a(a0), -(a7)
        0x0051097e      2f280036       move.l 0x36(a0), -(a7)
        0x00510982      4eb90067a440   jsr THREEDMAV.xy_xyz_point
        0x00510988      504f           addq.w 0x8, a7
        0x0051098a      289f           move.l (a7)+, (a4)
        0x0051098c      2d5fffec       move.l (a7)+, -0x14(a6)
        0x00510990      2d57fff0       move.l (a7), -0x10(a6)
        0x00510994      514f           subq.w 0x8, a7
        0x00510996      206e0008       movea.l 0x8(a6), a0
        0x0051099a      b1e8fffc       cmpa.l -0x4(a0), a0
    < 0x0051099e      6702           beq.b 0x5109a2
       0x005109a0      4e4d           trap 0xd
    > 0x005109a2      2f28004a       move.l 0x4a(a0), -(a7)
        0x005109a6      2f280046       move.l 0x46(a0), -(a7)
  > 0x005109aa      4eb90067a440   jsr THREEDMAV.xy_xyz_point
     0x005109b0      504f           addq.w 0x8, a7
  < 0x005109b2      6000fec4       bra.w 0x510878
      0x005109b6      9ec2           suba.w d2, a7
      0x005109b8      2053           movea.l (a3), a0
      0x005109ba      b1e8fffc       cmpa.l -0x4(a0), a0
  < 0x005109be      6702           beq.b 0x5109c2
     0x005109c0      4e4d           trap 0xd
  > 0x005109c2      2f280042       move.l 0x42(a0), -(a7)
      0x005109c6      2f28003e       move.l 0x3e(a0), -(a7)
      0x005109ca      4eb90067a440   jsr THREEDMAV.xy_xyz_point
      0x005109d0      504f           addq.w 0x8, a7
      0x005109d2      289f           move.l (a7)+, (a4)
      0x005109d4      2d5fffec       move.l (a7)+, -0x14(a6)
      0x005109d8      2d57fff0       move.l (a7), -0x10(a6)
      0x005109dc      514f           subq.w 0x8, a7
      0x005109de      206e0008       movea.l 0x8(a6), a0
      0x005109e2      b1e8fffc       cmpa.l -0x4(a0), a0
  < 0x005109e6      6702           beq.b 0x5109ea
     0x005109e8      4e4d           trap 0xd
  > 0x005109ea      2f280052       move.l 0x52(a0), -(a7)
      0x005109ee      2f28004e       move.l 0x4e(a0), -(a7)
   < 0x005109f2      60b6           bra.b 0x5109aa
       0x005109f4      9ec2           suba.w d2, a7
       0x005109f6      2053           movea.l (a3), a0
       0x005109f8      b1e8fffc       cmpa.l -0x4(a0), a0
   < 0x005109fc      6702           beq.b 0x510a00
      0x005109fe      4e4d           trap 0xd
   > 0x00510a00      2f28004a       move.l 0x4a(a0), -(a7)
       0x00510a04      2f280046       move.l 0x46(a0), -(a7)
       0x00510a08      4eb90067a440   jsr THREEDMAV.xy_xyz_point
       0x00510a0e      504f           addq.w 0x8, a7
       0x00510a10      289f           move.l (a7)+, (a4)
       0x00510a12      2d5fffec       move.l (a7)+, -0x14(a6)
       0x00510a16      2d57fff0       move.l (a7), -0x10(a6)
       0x00510a1a      514f           subq.w 0x8, a7
       0x00510a1c      206e0008       movea.l 0x8(a6), a0
       0x00510a20      b1e8fffc       cmpa.l -0x4(a0), a0
   < 0x00510a24      6702           beq.b 0x510a28
      0x00510a26      4e4d           trap 0xd
   > 0x00510a28      2f28003a       move.l 0x3a(a0), -(a7)
       0x00510a2c      2f280036       move.l 0x36(a0), -(a7)
    < 0x00510a30      6000ff78       bra.w 0x5109aa
        0x00510a34      9ec2           suba.w d2, a7
        0x00510a36      2053           movea.l (a3), a0
        0x00510a38      b1e8fffc       cmpa.l -0x4(a0), a0
    < 0x00510a3c      6702           beq.b 0x510a40
       0x00510a3e      4e4d           trap 0xd
    > 0x00510a40      2f280052       move.l 0x52(a0), -(a7)
        0x00510a44      2f28004e       move.l 0x4e(a0), -(a7)
        0x00510a48      4eb90067a440   jsr THREEDMAV.xy_xyz_point
        0x00510a4e      504f           addq.w 0x8, a7
        0x00510a50      289f           move.l (a7)+, (a4)
        0x00510a52      2d5fffec       move.l (a7)+, -0x14(a6)
        0x00510a56      2d57fff0       move.l (a7), -0x10(a6)
        0x00510a5a      514f           subq.w 0x8, a7
        0x00510a5c      206e0008       movea.l 0x8(a6), a0
        0x00510a60      b1e8fffc       cmpa.l -0x4(a0), a0
    < 0x00510a64      6702           beq.b 0x510a68
       0x00510a66      4e4d           trap 0xd
    > 0x00510a68      2f280042       move.l 0x42(a0), -(a7)
        0x00510a6c      2f28003e       move.l 0x3e(a0), -(a7)
     < 0x00510a70      6000ff38       bra.w 0x5109aa
      > 0x00510a74      9ec2           suba.w d2, a7
          0x00510a76      f2014000       fmove.l d1, fp0
          0x00510a7a      f2276400       fmove.s fp0, -(a7)
          0x00510a7e      f2014000       fmove.l d1, fp0
          0x00510a82      f2276400       fmove.s fp0, -(a7)
          0x00510a86      f2014000       fmove.l d1, fp0
          0x00510a8a      f2276400       fmove.s fp0, -(a7)
          0x00510a8e      4eb90067a406   jsr THREEDMAV.xyz_point
          0x00510a94      dec2           adda.w d2, a7
          0x00510a96      289f           move.l (a7)+, (a4)
          0x00510a98      2d5fffec       move.l (a7)+, -0x14(a6)
          0x00510a9c      2d57fff0       move.l (a7), -0x10(a6)
          0x00510aa0      514f           subq.w 0x8, a7
          0x00510aa2      f2014000       fmove.l d1, fp0
          0x00510aa6      f2276400       fmove.s fp0, -(a7)
      < 0x00510aaa      6000fdb4       bra.w 0x510860
  > 0x00510aae      2053           movea.l (a3), a0
            0x00510ab0      b1e8fffc       cmpa.l -0x4(a0), a0
        < 0x00510ab4      6702           beq.b 0x510ab8
           0x00510ab6      4e4d           trap 0xd
        > 0x00510ab8      43e800f0       lea.l 0xf0(a0), a1
            0x00510abc      45fa8fb4       lea.l 0x509a72(pc), a2
            0x00510ac0      7011           moveq 0x11, d0
        > 0x00510ac2      22da           move.l (a2)+, (a1)+
        < 0x00510ac4      51c8fffc       dbra d0, 0x510ac2
            0x00510ac8      43e80138       lea.l 0x138(a0), a1
            0x00510acc      45fa8fa4       lea.l 0x509a72(pc), a2
            0x00510ad0      7011           moveq 0x11, d0
        > 0x00510ad2      22da           move.l (a2)+, (a1)+
        < 0x00510ad4      51c8fffc       dbra d0, 0x510ad2
            0x00510ad8      486800f0       pea.l 0xf0(a0)
            0x00510adc      486800f0       pea.l 0xf0(a0)
            0x00510ae0      48680138       pea.l 0x138(a0)
            0x00510ae4      486802a0       pea.l 0x2a0(a0)
            0x00510ae8      1f3c0002       move.b 0x2, -(a7)
            0x00510aec      1f03           move.b d3, -(a7)
            0x00510aee      2f2efff0       move.l -0x10(a6), -(a7)
            0x00510af2      2f2effec       move.l -0x14(a6), -(a7)
            0x00510af6      2f14           move.l (a4), -(a7)
            0x00510af8      4eb90067ab4e   jsr THREEDMAV.do_pos
            0x00510afe      defc0020       adda.w 0x20, a7
            0x00510b02      486800f0       pea.l 0xf0(a0)
            0x00510b06      486800f0       pea.l 0xf0(a0)
            0x00510b0a      48680138       pea.l 0x138(a0)
            0x00510b0e      486802a0       pea.l 0x2a0(a0)
            0x00510b12      4227           clr.b -(a7)
            0x00510b14      1f03           move.b d3, -(a7)
            0x00510b16      2f2efffc       move.l -0x4(a6), -(a7)
            0x00510b1a      2f2efff8       move.l -0x8(a6), -(a7)
            0x00510b1e      2f2efff4       move.l -0xc(a6), -(a7)
            0x00510b22      4eb90067ab4e   jsr THREEDMAV.do_pos
            0x00510b28      defc001c       adda.w 0x1c, a7
            0x00510b2c      2e93           move.l (a3), (a7)
            0x00510b2e      2f3a945a       move.l 0x509f8a(pc), -(a7)
            0x00510b32      4eb90075fb5a   jsr MENUKEYFRMCOM.create_keyfrms
            0x00510b38      504f           addq.w 0x8, a7
            0x00510b3a      f21fd080       fmovem (a7)+, fp0
            0x00510b3e      4cdf1f0f       movem.l (a7)+, d0-d3/a0-a4
            0x00510b42      4e5e           unlk a6
            0x00510b44      4e75           rts
 24: MENU3DCOM.PAS.pick_contour_do ();
           0x00510b46      4e56ffbe       link.w a6, 0xffbe
           0x00510b4a      bfd5           cmpa.l (a5), a7
       < 0x00510b4c      6206           bhi.b 0x510b54
          0x00510b4e      44fc0002       move.w 0x2, ccr
          0x00510b52      4e76           trapv
       > 0x00510b54      defc0038       adda.w 0x38, a7
           0x00510b58      48e7f1c0       movem.l d0-d3/d7/a0-a1, -(a7)
           0x00510b5c      f227e080       fmovem fp7, -(a7)
            0x00510b60      263cffff8000   move.l 0xffff8000, d3
            0x00510b66      30390083d31e   move.w 0x83d31e, d0
            0x00510b6c      48c0           ext.l d0
            0x00510b6e      e780           asl.l 0x3, d0
            0x00510b70      322c0012       move.w 0x12(a4), d1
            0x00510b74      48c1           ext.l d1
            0x00510b76      d081           add.l d1, d0
            0x00510b78      9083           sub.l d3, d0
            0x00510b7a      413c0000ffff   chk.l 0xffff, d0
            0x00510b80      d083           add.l d3, d0
            0x00510b82      3d40fffc       move.w d0, -0x4(a6)
            0x00510b86      30390083d320   move.w 0x83d320, d0
            0x00510b8c      48c0           ext.l d0
            0x00510b8e      e780           asl.l 0x3, d0
            0x00510b90      322c0014       move.w 0x14(a4), d1
            0x00510b94      48c1           ext.l d1
            0x00510b96      d081           add.l d1, d0
            0x00510b98      9083           sub.l d3, d0
            0x00510b9a      413c0000ffff   chk.l 0xffff, d0
            0x00510ba0      d083           add.l d3, d0
            0x00510ba2      3d40fffe       move.w d0, -0x2(a6)
            0x00510ba6      2054           movea.l (a4), a0
            0x00510ba8      7e01           moveq 0x1, d7
        > 0x00510baa      48c7           ext.l d7
           0x00510bac      2007           move.l d7, d0
           0x00510bae      5380           subq.l 0x1, d0
           0x00510bb0      0c8000000120   cmpi.l 0x120, d0
       < 0x00510bb6      6302           bls.b 0x510bba
          0x00510bb8      4e4f           trap 0xf
       > 0x00510bba      2268000c       movea.l 0xc(a0), a1
           0x00510bbe      b3e9fffc       cmpa.l -0x4(a1), a1
       < 0x00510bc2      6702           beq.b 0x510bc6
          0x00510bc4      4e4d           trap 0xd
       > 0x00510bc6      2269061a       movea.l 0x61a(a1), a1
           0x00510bca      b3e9fffc       cmpa.l -0x4(a1), a1
       < 0x00510bce      6702           beq.b 0x510bd2
          0x00510bd0      4e4d           trap 0xd
       > 0x00510bd2      32310c02       move.w 0x2(a1, d0.l), d1
           0x00510bd6      48c1           ext.l d1
           0x00510bd8      342efffc       move.w -0x4(a6), d2
           0x00510bdc      48c2           ext.l d2
           0x00510bde      4482           neg.l d2
           0x00510be0      d481           add.l d1, d2
           0x00510be2      4c022800       muls.l d2, d2
           0x00510be6      32310c04       move.w 0x4(a1, d0.l), d1
           0x00510bea      48c1           ext.l d1
           0x00510bec      302efffe       move.w -0x2(a6), d0
           0x00510bf0      48c0           ext.l d0
           0x00510bf2      4480           neg.l d0
           0x00510bf4      d081           add.l d1, d0
           0x00510bf6      4c000800       muls.l d0, d0
           0x00510bfa      d082           add.l d2, d0
           0x00510bfc      f2004380       fmove.l d0, fp7
           0x00510c00      f22c47b80006   fcmp.s 0x6(a4), fp7
           0x00510c06      f29b0012       fbf.w 0x510c1a
           0x00510c0a      117c00100028   move.b 0x10, 0x28(a0)
           0x00510c10      3147002a       move.w d7, 0x2a(a0)
           0x00510c14      f22c67800006   fmove.s fp7, 0x6(a4)
           0x00510c1a      5247           addq.w 0x1, d7
           0x00510c1c      0c470121       cmpi.w 0x121, d7
        < 0x00510c20      6f88           ble.b 0x510baa
            0x00510c22      f21fd001       fmovem (a7)+, fp7
            0x00510c26      4cdf038f       movem.l (a7)+, d0-d3/d7/a0-a1
            0x00510c2a      4e5e           unlk a6
            0x00510c2c      4e75           rts
 24: MENU3DCOM.PAS.pick_point ();
           0x00510c2e      4e56ffce       link.w a6, 0xffce
           0x00510c32      bfd5           cmpa.l (a5), a7
       < 0x00510c34      6206           bhi.b 0x510c3c
          0x00510c36      44fc0002       move.w 0x2, ccr
          0x00510c3a      4e76           trapv
       > 0x00510c3c      defc002e       adda.w 0x2e, a7
           0x00510c40      48e7f0c0       movem.l d0-d3/a0-a1, -(a7)
           0x00510c44      f227e080       fmovem fp7, -(a7)
            0x00510c48      43f90083d1ce   lea.l 0x83d1ce, a1
            0x00510c4e      102e0008       move.b 0x8(a6), d0
            0x00510c52      4880           ext.w d0
            0x00510c54      2049           movea.l a1, a0
            0x00510c56      4a300072       tst.b 0x72(a0, d0.w)
        < 0x00510c5a      674a           beq.b 0x510ca6
           0x00510c5c      2049           movea.l a1, a0
           0x00510c5e      322c0012       move.w 0x12(a4), d1
           0x00510c62      48c1           ext.l d1
           0x00510c64      343007200084   move.w 0x84(a0, d0.w * 8), d2
           0x00510c6a      48c2           ext.l d2
           0x00510c6c      4482           neg.l d2
           0x00510c6e      d481           add.l d1, d2
           0x00510c70      4c022800       muls.l d2, d2
           0x00510c74      322c0014       move.w 0x14(a4), d1
           0x00510c78      48c1           ext.l d1
           0x00510c7a      363007200086   move.w 0x86(a0, d0.w * 8), d3
           0x00510c80      48c3           ext.l d3
           0x00510c82      4483           neg.l d3
           0x00510c84      d681           add.l d1, d3
           0x00510c86      4c033800       muls.l d3, d3
           0x00510c8a      d682           add.l d2, d3
           0x00510c8c      f2034380       fmove.l d3, fp7
           0x00510c90      f22c47b80006   fcmp.s 0x6(a4), fp7
           0x00510c96      f29b000e       fbf.w 0x510ca6
           0x00510c9a      2054           movea.l (a4), a0
           0x00510c9c      11400028       move.b d0, 0x28(a0)
           0x00510ca0      f22c67800006   fmove.s fp7, 0x6(a4)
        > 0x00510ca6      f21fd001       fmovem (a7)+, fp7
            0x00510caa      4cdf030f       movem.l (a7)+, d0-d3/a0-a1
            0x00510cae      4e5e           unlk a6
            0x00510cb0      4e75           rts
 24: MENU3DCOM.PAS.pick_line ();
           0x00510cb2      4e56ff6e       link.w a6, 0xff6e
           0x00510cb6      bfd5           cmpa.l (a5), a7
       < 0x00510cb8      6206           bhi.b 0x510cc0
          0x00510cba      44fc0002       move.w 0x2, ccr
          0x00510cbe      4e76           trapv
       > 0x00510cc0      defc0066       adda.w 0x66, a7
           0x00510cc4      48e7e0f0       movem.l d0-d2/a0-a3, -(a7)
           0x00510cc8      f227e0e3       fmovem fp0-fp1/fp5-fp7, -(a7)
            0x00510ccc      43f90083d1ce   lea.l 0x83d1ce, a1
            0x00510cd2      45eeffd4       lea.l -0x2c(a6), a2
            0x00510cd6      47eeffd8       lea.l -0x28(a6), a3
            0x00510cda      102e0008       move.b 0x8(a6), d0
            0x00510cde      4880           ext.w d0
            0x00510ce0      2049           movea.l a1, a0
            0x00510ce2      4a300072       tst.b 0x72(a0, d0.w)
        < 0x00510ce6      67000106       beq.w 0x510dee
           0x00510cea      2049           movea.l a1, a0
           0x00510cec      323007200084   move.w 0x84(a0, d0.w * 8), d1
           0x00510cf2      48c1           ext.l d1
           0x00510cf4      342c0012       move.w 0x12(a4), d2
           0x00510cf8      48c2           ext.l d2
           0x00510cfa      4482           neg.l d2
           0x00510cfc      d481           add.l d1, d2
           0x00510cfe      f2024000       fmove.l d2, fp0
           0x00510d02      f2126400       fmove.s fp0, (a2)
           0x00510d06      343007200088   move.w 0x88(a0, d0.w * 8), d2
           0x00510d0c      48c2           ext.l d2
           0x00510d0e      4481           neg.l d1
           0x00510d10      d282           add.l d2, d1
           0x00510d12      f2014380       fmove.l d1, fp7
           0x00510d16      323007200086   move.w 0x86(a0, d0.w * 8), d1
           0x00510d1c      48c1           ext.l d1
           0x00510d1e      342c0014       move.w 0x14(a4), d2
           0x00510d22      48c2           ext.l d2
           0x00510d24      4482           neg.l d2
           0x00510d26      d481           add.l d1, d2
           0x00510d28      f2024000       fmove.l d2, fp0
           0x00510d2c      f2136400       fmove.s fp0, (a3)
           0x00510d30      34300720008a   move.w 0x8a(a0, d0.w * 8), d2
           0x00510d36      48c2           ext.l d2
           0x00510d38      4481           neg.l d1
           0x00510d3a      d282           add.l d2, d1
           0x00510d3c      f2014300       fmove.l d1, fp6
           0x00510d40      f2001c00       fmove fp7, fp0
           0x00510d44      f2001c23       fmul fp7, fp0
           0x00510d48      f2001880       fmove fp6, fp1
           0x00510d4c      f20018a3       fmul fp6, fp1
           0x00510d50      f20000a2       fadd fp0, fp1
           0x00510d54      f22e6480ffec   fmove.s fp1, -0x14(a6)
           0x00510d5a      f22e4400ffec   fmove.s -0x14(a6), fp0
           0x00510d60      f23c44383727.  fcmp.s 0, fp0
           0x00510d68      f29d0084       fbf.w 0x510dee
           0x00510d6c      f2124680       fmove.s (a2), fp5
           0x00510d70      f2001ea3       fmul fp7, fp5
           0x00510d74      f2134400       fmove.s (a3), fp0
           0x00510d78      f2001823       fmul fp6, fp0
           0x00510d7c      f20002a2       fadd fp0, fp5
           0x00510d80      f22e46a0ffec   fdiv.s -0x14(a6), fp5
           0x00510d86      f200169a       fneg fp5
           0x00510d8a      f23c42b80000.  fcmp.l 0x0, fp5
           0x00510d92      f29d005a       fbf.w 0x510dee
           0x00510d96      f23c46b83f80.  fcmp.s 1, fp5
           0x00510d9e      f29b004e       fbf.w 0x510dee
           0x00510da2      f2001400       fmove fp5, fp0
           0x00510da6      f2001c23       fmul fp7, fp0
           0x00510daa      f2124422       fadd.s (a2), fp0
           0x00510dae      f22e6400fff4   fmove.s fp0, -0xc(a6)
           0x00510db4      f2001780       fmove fp5, fp7
           0x00510db8      f2001ba3       fmul fp6, fp7
           0x00510dbc      f21347a2       fadd.s (a3), fp7
           0x00510dc0      f22e4700fff4   fmove.s -0xc(a6), fp6
           0x00510dc6      f22e4723fff4   fmul.s -0xc(a6), fp6
           0x00510dcc      f2001c00       fmove fp7, fp0
           0x00510dd0      f2001c23       fmul fp7, fp0
           0x00510dd4      f2000322       fadd fp0, fp6
           0x00510dd8      f22c47380006   fcmp.s 0x6(a4), fp6
           0x00510dde      f29b000e       fbf.w 0x510dee
           0x00510de2      2054           movea.l (a4), a0
           0x00510de4      11400028       move.b d0, 0x28(a0)
           0x00510de8      f22c67000006   fmove.s fp6, 0x6(a4)
        > 0x00510dee      f21fd0c7       fmovem (a7)+, fp0-fp1/fp5-fp7
            0x00510df2      4cdf0f07       movem.l (a7)+, d0-d2/a0-a3
            0x00510df6      4e5e           unlk a6
            0x00510df8      4e75           rts
 24: MENU3DCOM.PAS.pick_graphics ();
           0x00510dfa      4e56ffca       link.w a6, 0xffca
           0x00510dfe      bfd5           cmpa.l (a5), a7
       < 0x00510e00      6206           bhi.b 0x510e08
          0x00510e02      44fc0002       move.w 0x2, ccr
          0x00510e06      4e76           trapv
       > 0x00510e08      defc0030       adda.w 0x30, a7
           0x00510e0c      48e781f8       movem.l d0/d7/a0-a4, -(a7)
           0x00510e10      f227e001       fmovem fp0, -(a7)
            0x00510e14      41eefff6       lea.l -0xa(a6), a0
            0x00510e18      43ec0028       lea.l 0x28(a4), a1
            0x00510e1c      45eefffc       lea.l -0x4(a6), a2
            0x00510e20      47fa9552       lea.l MENU3DCOM.PAS.pick_triad(pc), a3
            0x00510e24      4211           clr.b (a1)
            0x00510e26      426c002a       clr.w 0x2a(a4)
            0x00510e2a      7050           moveq 0x50, d0
            0x00510e2c      4c000800       muls.l d0, d0
            0x00510e30      f2004000       fmove.l d0, fp0
            0x00510e34      f2126400       fmove.s fp0, (a2)
            0x00510e38      554f           subq.w 0x2, a7
            0x00510e3a      3f390083e3c2   move.w 0x83e3c2, -(a7)
            0x00510e40      4eb900480fc2   jsr MENUCOM.get_boxon
            0x00510e46      544f           addq.w 0x2, a7
            0x00510e48      4a1f           tst.b (a7)+
        < 0x00510e4a      6720           beq.b 0x510e6c
           0x00510e4c      554f           subq.w 0x2, a7
           0x00510e4e      3f390083e3c4   move.w 0x83e3c4, -(a7)
           0x00510e54      4eb900480fc2   jsr MENUCOM.get_boxon
           0x00510e5a      544f           addq.w 0x2, a7
           0x00510e5c      4a1f           tst.b (a7)+
       < 0x00510e5e      670c           beq.b 0x510e6c
          0x00510e60      2848           movea.l a0, a4
          0x00510e62      4ebafce2       jsr MENU3DCOM.PAS.pick_contour_do(pc)
          0x00510e66      2850           movea.l (a0), a4
      < 0x00510e68      600000b8       bra.w 0x510f22
      > 0x00510e6c      554f           subq.w 0x2, a7
           0x00510e6e      4e93           jsr (a3)                    ; fcn.0000000c
           0x00510e70      4a1f           tst.b (a7)+
       < 0x00510e72      6716           beq.b 0x510e8a
          0x00510e74      7e02           moveq 0x2, d7
      > 0x00510e76      1f07           move.b d7, -(a7)
         0x00510e78      2848           movea.l a0, a4
         0x00510e7a      4ebafdb2       jsr MENU3DCOM.PAS.pick_point(pc)
         0x00510e7e      544f           addq.w 0x2, a7
         0x00510e80      2850           movea.l (a0), a4
         0x00510e82      5207           addq.b 0x1, d7
         0x00510e84      0c070004       cmpi.b 0x4, d7
      < 0x00510e88      6fec           ble.b 0x510e76
       > 0x00510e8a      554f           subq.w 0x2, a7
           0x00510e8c      4eba953a       jsr MENU3DCOM.PAS.pick_corners(pc)
           0x00510e90      4a1f           tst.b (a7)+
       < 0x00510e92      6716           beq.b 0x510eaa
          0x00510e94      7e08           moveq 0x8, d7
      > 0x00510e96      1f07           move.b d7, -(a7)
         0x00510e98      2848           movea.l a0, a4
         0x00510e9a      4ebafd92       jsr MENU3DCOM.PAS.pick_point(pc)
         0x00510e9e      544f           addq.w 0x2, a7
         0x00510ea0      2850           movea.l (a0), a4
         0x00510ea2      5207           addq.b 0x1, d7
         0x00510ea4      0c07000b       cmpi.b 0xb, d7
      < 0x00510ea8      6fec           ble.b 0x510e96
       > 0x00510eaa      554f           subq.w 0x2, a7
           0x00510eac      4e93           jsr (a3)                    ; fcn.0000000c
           0x00510eae      4a1f           tst.b (a7)+
       < 0x00510eb0      6720           beq.b 0x510ed2
          0x00510eb2      4a11           tst.b (a1)
      < 0x00510eb4      661c           bne.b 0x510ed2
         0x00510eb6      7010           moveq 0x10, d0
         0x00510eb8      4c000800       muls.l d0, d0
         0x00510ebc      f2004000       fmove.l d0, fp0
         0x00510ec0      f2126400       fmove.s fp0, (a2)
         0x00510ec4      1f3c0001       move.b 0x1, -(a7)
         0x00510ec8      2848           movea.l a0, a4
         0x00510eca      4ebafd62       jsr MENU3DCOM.PAS.pick_point(pc)
         0x00510ece      544f           addq.w 0x2, a7
         0x00510ed0      2850           movea.l (a0), a4
      > 0x00510ed2      4a11           tst.b (a1)
       < 0x00510ed4      664c           bne.b 0x510f22
          0x00510ed6      7050           moveq 0x50, d0
          0x00510ed8      4c000800       muls.l d0, d0
          0x00510edc      f2004000       fmove.l d0, fp0
          0x00510ee0      f2126400       fmove.s fp0, (a2)
          0x00510ee4      554f           subq.w 0x2, a7
          0x00510ee6      4e93           jsr (a3)                    ; fcn.0000000c
          0x00510ee8      4a1f           tst.b (a7)+
      < 0x00510eea      6716           beq.b 0x510f02
         0x00510eec      7e05           moveq 0x5, d7
     > 0x00510eee      1f07           move.b d7, -(a7)
        0x00510ef0      2848           movea.l a0, a4
        0x00510ef2      4ebafdbe       jsr MENU3DCOM.PAS.pick_line(pc)
        0x00510ef6      544f           addq.w 0x2, a7
        0x00510ef8      2850           movea.l (a0), a4
        0x00510efa      5207           addq.b 0x1, d7
        0x00510efc      0c070007       cmpi.b 0x7, d7
     < 0x00510f00      6fec           ble.b 0x510eee
      > 0x00510f02      554f           subq.w 0x2, a7
          0x00510f04      4eba950c       jsr MENU3DCOM.PAS.pick_edges(pc)
          0x00510f08      4a1f           tst.b (a7)+
      < 0x00510f0a      6716           beq.b 0x510f22
         0x00510f0c      7e0c           moveq 0xc, d7
     > 0x00510f0e      1f07           move.b d7, -(a7)
        0x00510f10      2848           movea.l a0, a4
        0x00510f12      4ebafd9e       jsr MENU3DCOM.PAS.pick_line(pc)
        0x00510f16      544f           addq.w 0x2, a7
        0x00510f18      2850           movea.l (a0), a4
        0x00510f1a      5207           addq.b 0x1, d7
        0x00510f1c      0c07000f       cmpi.b 0xf, d7
     < 0x00510f20      6fec           ble.b 0x510f0e
      > 0x00510f22      f21fd080       fmovem (a7)+, fp0
            0x00510f26      4cdf1f81       movem.l (a7)+, d0/d7/a0-a4
            0x00510f2a      4e5e           unlk a6
            0x00510f2c      4e75           rts
 24: MENU3DCOM.PAS.pick_stripey_st ();
           0x00510f2e      4e56ffa0       link.w a6, 0xffa0
           0x00510f32      bfd5           cmpa.l (a5), a7
       < 0x00510f34      6206           bhi.b 0x510f3c
          0x00510f36      44fc0002       move.w 0x2, ccr
          0x00510f3a      4e76           trapv
       > 0x00510f3c      defc0050       adda.w 0x50, a7
           0x00510f40      48e7f3c0       movem.l d0-d3/d6-d7/a0-a1, -(a7)
           0x00510f44      f227e0e0       fmovem fp5-fp7, -(a7)
            0x00510f48      43ee000c       lea.l 0xc(a6), a1
            0x00510f4c      7601           moveq 0x1, d3
            0x00510f4e      4211           clr.b (a1)
            0x00510f50      7e00           moveq 0x0, d7
            0x00510f52      7050           moveq 0x50, d0
            0x00510f54      4c000800       muls.l d0, d0
            0x00510f58      f2004300       fmove.l d0, fp6
            0x00510f5c      f2004280       fmove.l d0, fp5
            0x00510f60      3f390083d338   move.w 0x83d338, -(a7)
            0x00510f66      7c00           moveq 0x0, d6
        > 0x00510f68      bc57           cmp.w (a7), d6
       < 0x00510f6a      6e7c           bgt.b 0x510fe8
          0x00510f6c      4dbc03e7       chk.w 0x3e7, d6
          0x00510f70      41f90083d1ce   lea.l 0x83d1ce, a0
          0x00510f76      302e0008       move.w 0x8(a6), d0
          0x00510f7a      48c0           ext.l d0
          0x00510f7c      32306520016c   move.w 0x16c(a0, d6.w * 4), d1
          0x00510f82      48c1           ext.l d1
          0x00510f84      4481           neg.l d1
          0x00510f86      d280           add.l d0, d1
          0x00510f88      4c011800       muls.l d1, d1
          0x00510f8c      302e000a       move.w 0xa(a6), d0
          0x00510f90      48c0           ext.l d0
          0x00510f92      34306520016e   move.w 0x16e(a0, d6.w * 4), d2
          0x00510f98      48c2           ext.l d2
          0x00510f9a      4482           neg.l d2
          0x00510f9c      d480           add.l d0, d2
          0x00510f9e      4c022800       muls.l d2, d2
          0x00510fa2      d481           add.l d1, d2
          0x00510fa4      f2024380       fmove.l d2, fp7
          0x00510fa8      41f90083e2da   lea.l 0x83e2da, a0
          0x00510fae      48c6           ext.l d6
          0x00510fb0      2006           move.l d6, d0
          0x00510fb2      e8d00801       bftst (a0){0:1}
      < 0x00510fb6      6716           beq.b 0x510fce
         0x00510fb8      f20017b8       fcmp fp5, fp7
         0x00510fbc      f29b0026       fbf.w 0x510fe4
         0x00510fc0      1283           move.b d3, (a1)
         0x00510fc2      7e01           moveq 0x1, d7
         0x00510fc4      f2001e80       fmove fp7, fp5
         0x00510fc8      39460012       move.w d6, 0x12(a4)
     < 0x00510fcc      6016           bra.b 0x510fe4
     > 0x00510fce      4a07           tst.b d7
     < 0x00510fd0      6612           bne.b 0x510fe4
        0x00510fd2      f2001bb8       fcmp fp6, fp7
        0x00510fd6      f29b000c       fbf.w 0x510fe4
        0x00510fda      1283           move.b d3, (a1)
        0x00510fdc      39460012       move.w d6, 0x12(a4)
        0x00510fe0      f2001f00       fmove fp7, fp6
     > 0x00510fe4      5246           addq.w 0x1, d6
       < 0x00510fe6      6880           bvc.b 0x510f68
       > 0x00510fe8      544f           addq.w 0x2, a7
            0x00510fea      f21fd007       fmovem (a7)+, fp5-fp7
            0x00510fee      4cdf03cf       movem.l (a7)+, d0-d3/d6-d7/a0-a1
            0x00510ff2      4e5e           unlk a6
            0x00510ff4      4e75           rts
 24: MENU3DCOM.PAS.delete_point ();
           0x00510ff6      4e56ffb6       link.w a6, 0xffb6
           0x00510ffa      bfd5           cmpa.l (a5), a7
       < 0x00510ffc      6206           bhi.b 0x511004
          0x00510ffe      44fc0002       move.w 0x2, ccr
          0x00511002      4e76           trapv
       > 0x00511004      defc0044       adda.w 0x44, a7
           0x00511008      48e7f7c0       movem.l d0-d3/d5-d7/a0-a1, -(a7)
           0x0051100c      f227e001       fmovem fp0, -(a7)
            0x00511010      740f           moveq 0xf, d2
            0x00511012      263cffff8000   move.l 0xffff8000, d3
            0x00511018      7e04           moveq 0x4, d7
        > 0x0051101a      206c0008       movea.l 0x8(a4), a0
           0x0051101e      b1e8fffc       cmpa.l -0x4(a0), a0
       < 0x00511022      6702           beq.b 0x511026
          0x00511024      4e4d           trap 0xd
       > 0x00511026      594f           subq.w 0x4, a7
           0x00511028      4f82           chk.w d2, d7
           0x0051102a      48c7           ext.l d7
           0x0051102c      2007           move.l d7, d0
           0x0051102e      e980           asl.l 0x4, d0
           0x00511030      2f300920034e   move.l 0x34e(a0, d0.l), -(a7)
           0x00511036      4eb9004081f8   jsr p_trunc
           0x0051103c      584f           addq.w 0x4, a7
           0x0051103e      201f           move.l (a7)+, d0
           0x00511040      9083           sub.l d3, d0
           0x00511042      413c0000ffff   chk.l 0xffff, d0
           0x00511048      d083           add.l d3, d0
           0x0051104a      3a00           move.w d0, d5
           0x0051104c      7c00           moveq 0x0, d6
           0x0051104e      ba790083d2e0   cmp.w 0x83d2e0, d5
       < 0x00511054      6602           bne.b 0x511058
          0x00511056      5206           addq.b 0x1, d6
       > 0x00511058      4a06           tst.b d6
       < 0x0051105a      6612           bne.b 0x51106e
          0x0051105c      48c7           ext.l d7
          0x0051105e      2007           move.l d7, d0
          0x00511060      5280           addq.l 0x1, d0
          0x00511062      9083           sub.l d3, d0
          0x00511064      413c0000ffff   chk.l 0xffff, d0
          0x0051106a      d083           add.l d3, d0
          0x0051106c      3e00           move.w d0, d7
       > 0x0051106e      4a06           tst.b d6
       < 0x00511070      6604           bne.b 0x511076
          0x00511072      be42           cmp.w d2, d7
       < 0x00511074      6fa4           ble.b 0x51101a
       > 0x00511076      4a06           tst.b d6
        < 0x00511078      676c           beq.b 0x5110e6
           0x0051107a      4f82           chk.w d2, d7
           0x0051107c      48c7           ext.l d7
           0x0051107e      2007           move.l d7, d0
           0x00511080      e980           asl.l 0x4, d0
           0x00511082      f23c40000000.  fmove.l 0x0, fp0
           0x0051108a      f23064000920.  fmove.s fp0, 0x34e(a0, d0.l)
           0x00511092      48c7           ext.l d7
           0x00511094      7009           moveq 0x9, d0
           0x00511096      d087           add.l d7, d0
           0x00511098      1f00           move.b d0, -(a7)
           0x0051109a      101f           move.b (a7)+, d0
           0x0051109c      4880           ext.w d0
           0x0051109e      41bc0019       chk.w 0x19, d0
           0x005110a2      2f2c000c       move.l 0xc(a4), -(a7)
           0x005110a6      2f3a8bdc       move.l 0x509c84(pc), -(a7)
           0x005110aa      3200           move.w d0, d1
           0x005110ac      e649           lsr.w 0x3, d1
           0x005110ae      01f71000       bset.b d0, (a7, d1.w)
           0x005110b2      1f3c0001       move.b 0x1, -(a7)
           0x005110b6      4eb90075f4d8   jsr MENUKEYFRMCOM.del_keyfrm
           0x005110bc      defc000a       adda.w 0xa, a7
           0x005110c0      226c000c       movea.l 0xc(a4), a1
           0x005110c4      b3e9fffc       cmpa.l -0x4(a1), a1
       < 0x005110c8      6702           beq.b 0x5110cc
          0x005110ca      4e4d           trap 0xd
       > 0x005110cc      2f3a8bb6       move.l 0x509c84(pc), -(a7)
           0x005110d0      3200           move.w d0, d1
           0x005110d2      e649           lsr.w 0x3, d1
           0x005110d4      01f71000       bset.b d0, (a7, d1.w)
           0x005110d8      201f           move.l (a7)+, d0
           0x005110da      4680           not.l d0
           0x005110dc      c1a90338       and.l d0, 0x338(a1)
           0x005110e0      42790083d2e2   clr.w 0x83d2e2
        > 0x005110e6      f21fd080       fmovem (a7)+, fp0
            0x005110ea      4cdf03ef       movem.l (a7)+, d0-d3/d5-d7/a0-a1
            0x005110ee      4e5e           unlk a6
            0x005110f0      4e75           rts
 110: MENU3DCOM.PAS.find_boxnum_to_ ();
           0x005110f2      4e56ffe2       link.w a6, 0xffe2
           0x005110f6      bfd5           cmpa.l (a5), a7
       < 0x005110f8      6206           bhi.b 0x511100
          0x005110fa      44fc0002       move.w 0x2, ccr
          0x005110fe      4e76           trapv
       > 0x00511100      defc0018       adda.w 0x18, a7
           0x00511104      48e7c108       movem.l d0-d1/d7/a4, -(a7)
           0x00511108      7201           moveq 0x1, d1
           0x0051110a      7e00           moveq 0x0, d7
           0x0051110c      28790083d30e   movea.l 0x83d30e, a4
       > 0x00511112      b8c1           cmpa.w d1, a4
      < 0x00511114      6742           beq.b 0x511158
         0x00511116      4a07           tst.b d7
     < 0x00511118      663e           bne.b 0x511158
        0x0051111a      b9ecfffc       cmpa.l -0x4(a4), a4
    < 0x0051111e      6702           beq.b 0x511122
       0x00511120      4e4d           trap 0xd
    > 0x00511122      554f           subq.w 0x2, a7
        0x00511124      3f2c0004       move.w 0x4(a4), -(a7)
        0x00511128      4eb900480f72   jsr MENUCOM.active_box
        0x0051112e      544f           addq.w 0x2, a7
        0x00511130      101f           move.b (a7)+, d0
        0x00511132      4880           ext.w d0
        0x00511134      4181           chk.w d1, d0
        0x00511136      1e00           move.b d0, d7
    < 0x00511138      671a           beq.b 0x511154
       0x0051113a      13ec00060083.  move.b 0x6(a4), 0x83d2e4.l
       0x00511142      13ec00070083.  move.b 0x7(a4), 0x83d2e6.l
       0x0051114a      13ec00080083.  move.b 0x8(a4), 0x83d2e7.l
   < 0x00511152      6002           bra.b 0x511156
   > 0x00511154      2854           movea.l (a4), a4
   < 0x00511156      60ba           bra.b 0x511112
     > 0x00511158      4cdf1083       movem.l (a7)+, d0-d1/d7/a4
           0x0051115c      4e5e           unlk a6
           0x0051115e      4e75           rts
 24: MENU3DCOM.PAS.do_pick_dot ();
           0x00511160      4e56ffa6       link.w a6, 0xffa6
           0x00511164      bfd5           cmpa.l (a5), a7
       < 0x00511166      6206           bhi.b 0x51116e
          0x00511168      44fc0002       move.w 0x2, ccr
          0x0051116c      4e76           trapv
       > 0x0051116e      defc0052       adda.w 0x52, a7
           0x00511172      48e7fff0       movem.l d0-d7/a0-a3, -(a7)
           0x00511176      f227e001       fmovem fp0, -(a7)
            0x0051117a      45f90083d2e2   lea.l 0x83d2e2, a2
            0x00511180      47f90083d2e0   lea.l 0x83d2e0, a3
            0x00511186      760f           moveq 0xf, d3
            0x00511188      7801           moveq 0x1, d4
            0x0051118a      7e00           moveq 0x0, d7
            0x0051118c      3d7cfffffffe   move.w 0xffff, -0x2(a6)
            0x00511192      2054           movea.l (a4), a0
        > 0x00511194      2268000c       movea.l 0xc(a0), a1
           0x00511198      b3e9fffc       cmpa.l -0x4(a1), a1
       < 0x0051119c      6702           beq.b 0x5111a0
          0x0051119e      4e4d           trap 0xd
       > 0x005111a0      594f           subq.w 0x4, a7
           0x005111a2      4f83           chk.w d3, d7
           0x005111a4      48c7           ext.l d7
           0x005111a6      2007           move.l d7, d0
           0x005111a8      e980           asl.l 0x4, d0
           0x005111aa      2f310920034e   move.l 0x34e(a1, d0.l), -(a7)
           0x005111b0      4eb9004081f8   jsr p_trunc
           0x005111b6      584f           addq.w 0x4, a7
           0x005111b8      201f           move.l (a7)+, d0
           0x005111ba      0480ffff8000   subi.l 0xffff8000, d0
           0x005111c0      413c0000ffff   chk.l 0xffff, d0
           0x005111c6      0680ffff8000   addi.l 0xffff8000, d0
           0x005111cc      3a00           move.w d0, d5
           0x005111ce      7c00           moveq 0x0, d6
           0x005111d0      ba53           cmp.w (a3), d5
       < 0x005111d2      6602           bne.b 0x5111d6
          0x005111d4      5206           addq.b 0x1, d6
       > 0x005111d6      4a06           tst.b d6
       < 0x005111d8      662c           bne.b 0x511206
          0x005111da      4a45           tst.w d5
      < 0x005111dc      660e           bne.b 0x5111ec
         0x005111de      302efffe       move.w -0x2(a6), d0
         0x005111e2      0c40ffff       cmpi.w 0xffff, d0
     < 0x005111e6      6604           bne.b 0x5111ec
        0x005111e8      3d47fffe       move.w d7, -0x2(a6)
     > 0x005111ec      48c7           ext.l d7
          0x005111ee      2007           move.l d7, d0
          0x005111f0      5280           addq.l 0x1, d0
          0x005111f2      0480ffff8000   subi.l 0xffff8000, d0
          0x005111f8      413c0000ffff   chk.l 0xffff, d0
          0x005111fe      0680ffff8000   addi.l 0xffff8000, d0
          0x00511204      3e00           move.w d0, d7
       > 0x00511206      4a06           tst.b d6
       < 0x00511208      6604           bne.b 0x51120e
          0x0051120a      be43           cmp.w d3, d7
       < 0x0051120c      6f86           ble.b 0x511194
       > 0x0051120e      4a06           tst.b d6
        < 0x00511210      670e           beq.b 0x511220
           0x00511212      13fc00060083.  move.b 0x6, 0x83d2e4.l
           0x0051121a      3487           move.w d7, (a2)
       < 0x0051121c      60000094       bra.w 0x5112b2
       > 0x00511220      302efffe       move.w -0x2(a6), d0
           0x00511224      0c40ffff       cmpi.w 0xffff, d0
       < 0x00511228      6f000088       ble.w 0x5112b2
          0x0051122c      13fc00060083.  move.b 0x6, 0x83d2e4.l
          0x00511234      3480           move.w d0, (a2)
          0x00511236      4183           chk.w d3, d0
          0x00511238      48c0           ext.l d0
          0x0051123a      2200           move.l d0, d1
          0x0051123c      e981           asl.l 0x4, d1
          0x0051123e      f2135000       fmove.w (a3), fp0
          0x00511242      f23164001920.  fmove.s fp0, 0x34e(a1, d1.l)
          0x0051124a      3413           move.w (a3), d2
          0x0051124c      48c2           ext.l d2
          0x0051124e      5382           subq.l 0x1, d2
          0x00511250      0c8200000120   cmpi.l 0x120, d2
      < 0x00511256      6302           bls.b 0x51125a
         0x00511258      4e4f           trap 0xf
      > 0x0051125a      4c3c28000000.  muls.l 0xc, d2
          0x00511262      2069061a       movea.l 0x61a(a1), a0
          0x00511266      b1e8fffc       cmpa.l -0x4(a0), a0
      < 0x0051126a      6702           beq.b 0x51126e
         0x0051126c      4e4d           trap 0xd
      > 0x0051126e      23b029200486.  move.l 0x486(a0, d2.l), 0x352(a1, d1.l)
          0x00511278      23b02920048a.  move.l 0x48a(a0, d2.l), 0x356(a1, d1.l)
          0x00511282      23b02920048e.  move.l 0x48e(a0, d2.l), 0x35a(a1, d1.l)
          0x0051128c      48c0           ext.l d0
          0x0051128e      7209           moveq 0x9, d1
          0x00511290      d280           add.l d0, d1
          0x00511292      1f01           move.b d1, -(a7)
          0x00511294      121f           move.b (a7)+, d1
          0x00511296      4881           ext.w d1
          0x00511298      43bc0019       chk.w 0x19, d1
          0x0051129c      2f3a89e6       move.l 0x509c84(pc), -(a7)
          0x005112a0      3401           move.w d1, d2
          0x005112a2      e64a           lsr.w 0x3, d2
          0x005112a4      03f72000       bset.b d1, (a7, d2.w)
          0x005112a8      22290338       move.l 0x338(a1), d1
          0x005112ac      829f           or.l (a7)+, d1
          0x005112ae      23410338       move.l d1, 0x338(a1)
       > 0x005112b2      3f390083e3c6   move.w 0x83e3c6, -(a7)
            0x005112b8      3012           move.w (a2), d0
            0x005112ba      48c0           ext.l d0
            0x005112bc      5280           addq.l 0x1, d0
            0x005112be      f2004000       fmove.l d0, fp0
            0x005112c2      f2276400       fmove.s fp0, -(a7)
            0x005112c6      4227           clr.b -(a7)
            0x005112c8      1f04           move.b d4, -(a7)
            0x005112ca      4eb90048da84   jsr MENU2COM.set_numeric_val
            0x005112d0      504f           addq.w 0x8, a7
            0x005112d2      3eb90083e3c8   move.w 0x83e3c8, (a7)
            0x005112d8      3012           move.w (a2), d0
            0x005112da      4183           chk.w d3, d0
            0x005112dc      48c0           ext.l d0
            0x005112de      e980           asl.l 0x4, d0
            0x005112e0      2f3109200352   move.l 0x352(a1, d0.l), -(a7)
            0x005112e6      4227           clr.b -(a7)
            0x005112e8      1f04           move.b d4, -(a7)
            0x005112ea      4eb90048da84   jsr MENU2COM.set_numeric_val
            0x005112f0      504f           addq.w 0x8, a7
            0x005112f2      3eb90083e3ca   move.w 0x83e3ca, (a7)
            0x005112f8      3012           move.w (a2), d0
            0x005112fa      4183           chk.w d3, d0
            0x005112fc      48c0           ext.l d0
            0x005112fe      e980           asl.l 0x4, d0
            0x00511300      2f3109200356   move.l 0x356(a1, d0.l), -(a7)
            0x00511306      4227           clr.b -(a7)
            0x00511308      1f04           move.b d4, -(a7)
            0x0051130a      4eb90048da84   jsr MENU2COM.set_numeric_val
            0x00511310      504f           addq.w 0x8, a7
            0x00511312      3eb90083e3cc   move.w 0x83e3cc, (a7)
            0x00511318      3012           move.w (a2), d0
            0x0051131a      4183           chk.w d3, d0
            0x0051131c      48c0           ext.l d0
            0x0051131e      e980           asl.l 0x4, d0
            0x00511320      2f310920035a   move.l 0x35a(a1, d0.l), -(a7)
            0x00511326      4227           clr.b -(a7)
            0x00511328      1f04           move.b d4, -(a7)
            0x0051132a      4eb90048da84   jsr MENU2COM.set_numeric_val
            0x00511330      defc000a       adda.w 0xa, a7
            0x00511334      f21fd080       fmovem (a7)+, fp0
            0x00511338      4cdf0fff       movem.l (a7)+, d0-d7/a0-a3
            0x0051133c      4e5e           unlk a6
            0x0051133e      4e75           rts
 186: MENU3DCOM.PAS.update_enter_cu ();
           0x00511340      4e56ffbc       link.w a6, 0xffbc
           0x00511344      bfd5           cmpa.l (a5), a7
       < 0x00511346      6206           bhi.b 0x51134e
          0x00511348      44fc0002       move.w 0x2, ccr
          0x0051134c      4e76           trapv
       > 0x0051134e      defc003e       adda.w 0x3e, a7
           0x00511352      48e7fef8       movem.l d0-d6/a0-a4, -(a7)
           0x00511356      45f90083d308   lea.l 0x83d308, a2
           0x0051135c      47f90083d2e5   lea.l 0x83d2e5, a3
           0x00511362      7401           moveq 0x1, d2
           0x00511364      7602           moveq 0x2, d3
           0x00511366      7810           moveq 0x10, d4
           0x00511368      7a03           moveq 0x3, d5
           0x0051136a      7c09           moveq 0x9, d6
           0x0051136c      13c20083d2e4   move.b d2, 0x83d2e4
           0x00511372      10390083d2df   move.b 0x83d2df, d0
           0x00511378      4880           ext.w d0
           0x0051137a      4184           chk.w d4, d0
           0x0051137c      41fa8841       lea.l 0x509bbf(pc), a0
           0x00511380      13f000000083.  move.b (a0, d0.w), 0x83d2e6
           0x00511388      41fa8824       lea.l 0x509bae(pc), a0
           0x0051138c      13f000000083.  move.b (a0, d0.w), 0x83d2e7
           0x00511394      206c000c       movea.l 0xc(a4), a0
           0x00511398      b1e8fffc       cmpa.l -0x4(a0), a0
       < 0x0051139c      6702           beq.b 0x5113a0
          0x0051139e      4e4d           trap 0xd
       > 0x005113a0      43f90083d2e8   lea.l 0x83d2e8, a1
           0x005113a6      41e802b8       lea.l 0x2b8(a0), a0
           0x005113aa      7007           moveq 0x7, d0
       > 0x005113ac      22d8           move.l (a0)+, (a1)+
       < 0x005113ae      51c8fffc       dbra d0, 0x5113ac
           0x005113b2      4213           clr.b (a3)
           0x005113b4      554f           subq.w 0x2, a7
           0x005113b6      3f390083e37c   move.w 0x83e37c, -(a7)
           0x005113bc      4eb900480fc2   jsr MENUCOM.get_boxon
           0x005113c2      544f           addq.w 0x2, a7
           0x005113c4      4a1f           tst.b (a7)+
       < 0x005113c6      6704           beq.b 0x5113cc
          0x005113c8      1682           move.b d2, (a3)
      < 0x005113ca      6016           bra.b 0x5113e2
      > 0x005113cc      554f           subq.w 0x2, a7
          0x005113ce      3f390083e37a   move.w 0x83e37a, -(a7)
          0x005113d4      4eb900480fc2   jsr MENUCOM.get_boxon
          0x005113da      544f           addq.w 0x2, a7
          0x005113dc      4a1f           tst.b (a7)+
      < 0x005113de      6702           beq.b 0x5113e2
         0x005113e0      1683           move.b d3, (a3)
      > 0x005113e2      10390083d2df   move.b 0x83d2df, d0
           0x005113e8      4880           ext.w d0
           0x005113ea      b044           cmp.w d4, d0
       < 0x005113ec      6302           bls.b 0x5113f0
          0x005113ee      4e4e           trap 0xe
       > 0x005113f0      d040           add.w d0, d0
           0x005113f2      303b0006       move.w 0x5113fa(pc, d0.w), d0
           0x005113f6      4efb0002       jmp 0x5113fa(pc, d0.w)
            0x005113fa      00220028       ori.b 0x28, -(a2)
            0x005113fe      002800280028   ori.b 0x28, 0x28(a0)
            0x00511404      002800280028   ori.b 0x28, 0x28(a0)
            0x0051140a      007600760076   ori.w 0x76, 0x76(a6, d0.w)
            0x00511410      007600760076   ori.w 0x76, 0x76(a6, d0.w)
            0x00511416      007600760080   ori.w 0x76, -0x80(a6, d0.w)
            0x0051141c      4ebafcd4       jsr MENU3DCOM.PAS.find_boxnum_to_(pc)
        < 0x00511420      6064           bra.b 0x511486
           0x00511422      554f           subq.w 0x2, a7
           0x00511424      3f390083e360   move.w 0x83e360, -(a7)
           0x0051142a      4eb900480fc2   jsr MENUCOM.get_boxon
           0x00511430      544f           addq.w 0x2, a7
           0x00511432      4a1f           tst.b (a7)+
       < 0x00511434      6708           beq.b 0x51143e
          0x00511436      13c30083d2e4   move.b d3, 0x83d2e4
      < 0x0051143c      601a           bra.b 0x511458
      > 0x0051143e      554f           subq.w 0x2, a7
          0x00511440      3f390083e372   move.w 0x83e372, -(a7)
          0x00511446      4eb900480fc2   jsr MENUCOM.get_boxon
          0x0051144c      544f           addq.w 0x2, a7
          0x0051144e      4a1f           tst.b (a7)+
      < 0x00511450      6706           beq.b 0x511458
         0x00511452      13c50083d2e4   move.b d5, 0x83d2e4
      > 0x00511458      554f           subq.w 0x2, a7
           0x0051145a      3f390083e37c   move.w 0x83e37c, -(a7)
           0x00511460      4eb900480fc2   jsr MENUCOM.get_boxon
           0x00511466      544f           addq.w 0x2, a7
           0x00511468      4a1f           tst.b (a7)+
       < 0x0051146a      6702           beq.b 0x51146e
          0x0051146c      4213           clr.b (a3)
      > 0x0051146e      6016           bra.b 0x511486
          0x00511470      13fc00040083.  move.b 0x4, 0x83d2e4.l
      < 0x00511478      600c           bra.b 0x511486
         0x0051147a      49eefff6       lea.l -0xa(a6), a4
         0x0051147e      4ebafce0       jsr MENU3DCOM.PAS.do_pick_dot(pc)
         0x00511482      286efff6       movea.l -0xa(a6), a4
      > 0x00511486      10390083d2e4   move.b 0x83d2e4, d0
            0x0051148c      4880           ext.w d0
            0x0051148e      5340           subq.w 0x1, d0
            0x00511490      0c400007       cmpi.w 0x7, d0
        < 0x00511494      6302           bls.b 0x511498
           0x00511496      4e4e           trap 0xe
        > 0x00511498      d040           add.w d0, d0
            0x0051149a      303b0006       move.w 0x5114a2(pc, d0.w), d0
            0x0051149e      4efb0002       jmp 0x5114a2(pc, d0.w)
            0x005114a2      00100022       ori.b 0x22, (a0)
            0x005114a6      003e004a       
            0x005114a7      3e00           move.w d0, d7
            0x005114a9      4a00           tst.b d0
            0x005114ab      5000           addq.b 0x8, d0
            0x005114ad      5600           addq.b 0x3, d0
            0x005114af      7c00           moveq 0x0, d6
            0x005114b1      8210           or.b (a0), d1
            0x005114b3      13b003660624.  move.b ([0x624, a0]), -0x76(a1, a3.l)
            0x005114bb      d460           add.w -(a0), d2
            0x005114bd      0424ba8a       subi.b 0x8a, -(a4)
            0x005114c1      d260           add.w -(a0), d1
        < 0x005114c3      6410           bcc.b 0x5114d5
           0x005114c5      13b003660624.  move.b ([0x624, a0]), -0x76(a1, a3.l)
           0x005114cd      ca60           and.w -(a0), d5
           0x005114cf      0eb00266       
           0x005114d0      b002           cmp.b d2, d0
       < 0x005114d2      6606           bne.b 0x5114da
          0x005114d4      24ba8ac4       move.l 0x509f9a(pc), (a2)
       < 0x005114d8      6004           bra.b 0x5114de
       > 0x005114da      24ba8ac2       move.l 0x509f9e(pc), (a2)
       > 0x005114de      6048           bra.b 0x511528
           0x005114e0      1013           move.b (a3), d0
           0x005114e2      b003           cmp.b d3, d0
       < 0x005114e4      6704           beq.b 0x5114ea
          0x005114e6      24ba8aba       move.l 0x509fa2(pc), (a2)
      > 0x005114ea      603c           bra.b 0x511528
          0x005114ec      24ba8ab8       move.l 0x509fa6(pc), (a2)
      < 0x005114f0      6036           bra.b 0x511528
         0x005114f2      24ba8ab6       move.l 0x509faa(pc), (a2)
     < 0x005114f6      6030           bra.b 0x511528
        0x005114f8      30390083d2e2   move.w 0x83d2e2, d0
        0x005114fe      48c0           ext.l d0
        0x00511500      d086           add.l d6, d0
        0x00511502      1f00           move.b d0, -(a7)
        0x00511504      101f           move.b (a7)+, d0
        0x00511506      4880           ext.w d0
        0x00511508      41bc0019       chk.w 0x19, d0
        0x0051150c      24ba8776       move.l 0x509c84(pc), (a2)
        0x00511510      204a           movea.l a2, a0
        0x00511512      3200           move.w d0, d1
        0x00511514      e649           lsr.w 0x3, d1
        0x00511516      01f01000       bset.b d0, (a0, d1.w)
        0x0051151a      2092           move.l (a2), (a0)
    < 0x0051151c      600a           bra.b 0x511528
       0x0051151e      24ba8a8e       move.l 0x509fae(pc), (a2)
   < 0x00511522      6004           bra.b 0x511528
      0x00511524      24ba877a       move.l 0x509ca0(pc), (a2)
   > 0x00511528      554f           subq.w 0x2, a7
            0x0051152a      4eba8f38       jsr MENU3DCOM.PAS.graphics(pc)
            0x0051152e      4a1f           tst.b (a7)+
        < 0x00511530      6748           beq.b 0x51157a
           0x00511532      4eb9004558e4   jsr CURSORCOM.cursor_off
           0x00511538      1f3c0006       move.b 0x6, -(a7)
           0x0051153c      2f2c000c       move.l 0xc(a4), -(a7)
           0x00511540      4eb9006770b0   jsr PASTECOM.update_layer
           0x00511546      584f           addq.w 0x4, a7
           0x00511548      1e82           move.b d2, (a7)
           0x0051154a      1f02           move.b d2, -(a7)
           0x0051154c      4ebaa2bc       jsr MENU3DCOM.PAS.update_graphics(pc)
           0x00511550      584f           addq.w 0x4, a7
           0x00511552      4eb90051f298   jsr BRUSHCOM.brush_wait
           0x00511558      1f06           move.b d6, -(a7)
           0x0051155a      4eb900518dd8   jsr OUTCOM.set_out
           0x00511560      1e85           move.b d5, (a7)
           0x00511562      2f390083d322   move.l 0x83d322, -(a7)
           0x00511568      2f390083d31e   move.l 0x83d31e, -(a7)
           0x0051156e      4eb900518a2a   jsr OUTCOM.set_video_crops
           0x00511574      defc000a       adda.w 0xa, a7
       < 0x00511578      600c           bra.b 0x511586
       > 0x0051157a      2f2c000c       move.l 0xc(a4), -(a7)
           0x0051157e      1f02           move.b d2, -(a7)
           0x00511580      4ebab5d0       jsr MENU3DCOM.PAS.update_enter(pc)
           0x00511584      5c4f           addq.w 0x6, a7
       > 0x00511586      42390083e410   clr.b 0x83e410
            0x0051158c      4cdf1f7f       movem.l (a7)+, d0-d6/a0-a4
            0x00511590      4e5e           unlk a6
            0x00511592      4e75           rts
 24: MENU3DCOM.PAS.update_value ();
           0x00511594      4e56ffde       link.w a6, 0xffde
           0x00511598      bfd5           cmpa.l (a5), a7
       < 0x0051159a      6206           bhi.b 0x5115a2
          0x0051159c      44fc0002       move.w 0x2, ccr
          0x005115a0      4e76           trapv
       > 0x005115a2      defc0022       adda.w 0x22, a7
           0x005115a6      48e700c0       movem.l a0-a1, -(a7)
           0x005115aa      f227e001       fmovem fp0, -(a7)
            0x005115ae      43ee0010       lea.l 0x10(a6), a1
            0x005115b2      3f11           move.w (a1), -(a7)
            0x005115b4      594f           subq.w 0x4, a7
            0x005115b6      3f11           move.w (a1), -(a7)
            0x005115b8      4eb90048d992   jsr MENU2COM.get_numeric_val
            0x005115be      544f           addq.w 0x2, a7
            0x005115c0      f2174400       fmove.s (a7), fp0
            0x005115c4      f22e4422000c   fadd.s 0xc(a6), fp0
            0x005115ca      f2176400       fmove.s fp0, (a7)
            0x005115ce      4227           clr.b -(a7)
            0x005115d0      1f3c0001       move.b 0x1, -(a7)
            0x005115d4      4eb90048da84   jsr MENU2COM.set_numeric_val
            0x005115da      defc000a       adda.w 0xa, a7
            0x005115de      206e0008       movea.l 0x8(a6), a0
            0x005115e2      594f           subq.w 0x4, a7
            0x005115e4      3f11           move.w (a1), -(a7)
            0x005115e6      4eb90048d992   jsr MENU2COM.get_numeric_val
            0x005115ec      544f           addq.w 0x2, a7
            0x005115ee      209f           move.l (a7)+, (a0)
            0x005115f0      f21fd080       fmovem (a7)+, fp0
            0x005115f4      4cdf0300       movem.l (a7)+, a0-a1
            0x005115f8      4e5e           unlk a6
            0x005115fa      4e75           rts
 24: MENU3DCOM.PAS.get_intersect ();
           0x005115fc      4e56ff1a       link.w a6, 0xff1a
           0x00511600      bfd5           cmpa.l (a5), a7
       < 0x00511602      6206           bhi.b 0x51160a
          0x00511604      44fc0002       move.w 0x2, ccr
          0x00511608      4e76           trapv
       > 0x0051160a      defc00b8       adda.w 0xb8, a7
           0x0051160e      48e7e0f0       movem.l d0-d2/a0-a3, -(a7)
           0x00511612      f227e0ff       fmovem fp0-fp7, -(a7)
            0x00511616      43f90083d1ce   lea.l 0x83d1ce, a1
            0x0051161c      45eefff0       lea.l -0x10(a6), a2
            0x00511620      47eefffc       lea.l -0x4(a6), a3
            0x00511624      7203           moveq 0x3, d1
            0x00511626      740c           moveq 0xc, d2
            0x00511628      302e0010       move.w 0x10(a6), d0
            0x0051162c      48c0           ext.l d0
            0x0051162e      5380           subq.l 0x1, d0
            0x00511630      b081           cmp.l d1, d0
        < 0x00511632      6302           bls.b 0x511636
           0x00511634      4e4f           trap 0xf
        > 0x00511636      f23447800e1a   fmove.s 0x1a(a4, d0.l), fp7
            0x0051163c      f23447000e1e   fmove.s 0x1e(a4, d0.l), fp6
            0x00511642      302e000e       move.w 0xe(a6), d0
            0x00511646      48c0           ext.l d0
            0x00511648      5380           subq.l 0x1, d0
            0x0051164a      b081           cmp.l d1, d0
        < 0x0051164c      6302           bls.b 0x511650
           0x0051164e      4e4f           trap 0xf
        > 0x00511650      2d740e1affdc   move.l 0x1a(a4, d0.l), -0x24(a6)
            0x00511656      2d740e1effe0   move.l 0x1e(a4, d0.l), -0x20(a6)
            0x0051165c      302e000c       move.w 0xc(a6), d0
            0x00511660      48c0           ext.l d0
            0x00511662      5380           subq.l 0x1, d0
            0x00511664      b081           cmp.l d1, d0
        < 0x00511666      6302           bls.b 0x51166a
           0x00511668      4e4f           trap 0xf
        > 0x0051166a      2049           movea.l a1, a0
            0x0051166c      2d700f20011a.  move.l 0x11a(a0, d0.l * 8), -0x1c(a6)
            0x00511674      2d700f20011e.  move.l 0x11e(a0, d0.l * 8), -0x18(a6)
            0x0051167c      302e000a       move.w 0xa(a6), d0
            0x00511680      48c0           ext.l d0
            0x00511682      5380           subq.l 0x1, d0
            0x00511684      b081           cmp.l d1, d0
        < 0x00511686      6302           bls.b 0x51168a
           0x00511688      4e4f           trap 0xf
        > 0x0051168a      2049           movea.l a1, a0
            0x0051168c      f23046800f20.  fmove.s 0x11a(a0, d0.l * 8), fp5
            0x00511694      24b00f20011e   move.l 0x11e(a0, d0.l * 8), (a2)
            0x0051169a      f22e4400ffdc   fmove.s -0x24(a6), fp0
            0x005116a0      f2001c28       fsub fp7, fp0
            0x005116a4      f2124480       fmove.s (a2), fp1
            0x005116a8      f22e44a8ffe8   fsub.s -0x18(a6), fp1
            0x005116ae      f2000100       fmove fp0, fp2
            0x005116b2      f2000523       fmul fp1, fp2
            0x005116b6      f2001580       fmove fp5, fp3
            0x005116ba      f22e45a8ffe4   fsub.s -0x1c(a6), fp3
            0x005116c0      f22e4600ffe0   fmove.s -0x20(a6), fp4
            0x005116c6      f2001a28       fsub fp6, fp4
            0x005116ca      f2276a00       fmove.x fp4, invalid
            0x005116ce      f2000e23       fmul fp3, fp4
            0x005116d2      f200121a       fneg fp4
            0x005116d6      f2000a22       fadd fp2, fp4
            0x005116da      f2136600       fmove.s fp4, (a3)
            0x005116de      f2134518       fabs.s (a3), fp2
            0x005116e2      f23c45383727.  fcmp.s 0, fp2
            0x005116ea      f2920008       fbf.w 0x5116f4
            0x005116ee      dec2           adda.w d2, a7
        < 0x005116f0      6000006a       bra.w 0x51175c
           0x005116f4      f2001500       fmove fp5, fp2
           0x005116f8      f2001d28       fsub fp7, fp2
           0x005116fc      f2000523       fmul fp1, fp2
           0x00511700      f2124600       fmove.s (a2), fp4
           0x00511704      f2001a28       fsub fp6, fp4
           0x00511708      f2000e23       fmul fp3, fp4
           0x0051170c      f200121a       fneg fp4
           0x00511710      f2000a22       fadd fp2, fp4
           0x00511714      f2134620       fdiv.s (a3), fp4
           0x00511718      f22e6600fff4   fmove.s fp4, -0xc(a6)
           0x0051171e      302e0008       move.w 0x8(a6), d0
           0x00511722      48c0           ext.l d0
           0x00511724      5380           subq.l 0x1, d0
           0x00511726      b081           cmp.l d1, d0
       < 0x00511728      6302           bls.b 0x51172c
          0x0051172a      4e4f           trap 0xf
       > 0x0051172c      2049           movea.l a1, a0
           0x0051172e      f22e4500fff4   fmove.s -0xc(a6), fp2
           0x00511734      f2000123       fmul fp0, fp2
           0x00511738      f2001d22       fadd fp7, fp2
           0x0051173c      f23065000f20.  fmove.s fp2, 0x11a(a0, d0.l * 8)
           0x00511744      f2174900       fmove.x invalid, fp2
           0x00511748      f22e4523fff4   fmul.s -0xc(a6), fp2
           0x0051174e      f2001922       fadd fp6, fp2
           0x00511752      f23065000f20.  fmove.s fp2, 0x11e(a0, d0.l * 8)
           0x0051175a      dec2           adda.w d2, a7
        > 0x0051175c      f21fd0ff       fmovem (a7)+, fp0-fp7
            0x00511760      4cdf0f07       movem.l (a7)+, d0-d2/a0-a3
            0x00511764      4e5e           unlk a6
            0x00511766      4e75           rts
 24: MENU3DCOM.PAS.do_pin ();
           0x00511768      4e56ff2c       link.w a6, 0xff2c
           0x0051176c      bfd5           cmpa.l (a5), a7
       < 0x0051176e      6206           bhi.b 0x511776
          0x00511770      44fc0002       move.w 0x2, ccr
          0x00511774      4e76           trapv
       > 0x00511776      defc009e       adda.w 0x9e, a7
           0x0051177a      48e7fff8       movem.l d0-d7/a0-a4, -(a7)
           0x0051177e      f227e007       fmovem fp0-fp2, -(a7)
            0x00511782      47f90083d2e7   lea.l 0x83d2e7, a3
            0x00511788      7803           moveq 0x3, d4
            0x0051178a      206c0124       movea.l 0x124(a4), a0
            0x0051178e      b1e8fffc       cmpa.l -0x4(a0), a0
        < 0x00511792      6702           beq.b 0x511796
           0x00511794      4e4d           trap 0xd
        > 0x00511796      554f           subq.w 0x2, a7
            0x00511798      3f390083e388   move.w 0x83e388, -(a7)
            0x0051179e      4eb900480fc2   jsr MENUCOM.get_boxon
            0x005117a4      544f           addq.w 0x2, a7
            0x005117a6      4a1f           tst.b (a7)+
        < 0x005117a8      670e           beq.b 0x5117b8
           0x005117aa      f23c40000000.  fmove.l 0x0, fp0
           0x005117b2      f22c640000de   fmove.s fp0, 0xde(a4)
        > 0x005117b8      554f           subq.w 0x2, a7
            0x005117ba      3f390083e386   move.w 0x83e386, -(a7)
            0x005117c0      4eb900480fc2   jsr MENUCOM.get_boxon
            0x005117c6      544f           addq.w 0x2, a7
            0x005117c8      4a1f           tst.b (a7)+
        < 0x005117ca      670e           beq.b 0x5117da
           0x005117cc      f23c40000000.  fmove.l 0x0, fp0
           0x005117d4      f22c640000e2   fmove.s fp0, 0xe2(a4)
        > 0x005117da      554f           subq.w 0x2, a7
            0x005117dc      3f390083e38e   move.w 0x83e38e, -(a7)
            0x005117e2      4eb900480fc2   jsr MENUCOM.get_boxon
            0x005117e8      544f           addq.w 0x2, a7
            0x005117ea      4a1f           tst.b (a7)+
        < 0x005117ec      670002a8       beq.w 0x511a96
           0x005117f0      1013           move.b (a3), d0
           0x005117f2      0c000009       cmpi.b 0x9, d0
       < 0x005117f6      6700029e       beq.w 0x511a96
          0x005117fa      43eeffe0       lea.l -0x20(a6), a1
          0x005117fe      45f90083d2e8   lea.l 0x83d2e8, a2
          0x00511804      7007           moveq 0x7, d0
      > 0x00511806      22da           move.l (a2)+, (a1)+
      < 0x00511808      51c8fffc       dbra d0, 0x511806
          0x0051180c      1013           move.b (a3), d0
          0x0051180e      0c000005       cmpi.b 0x5, d0
      < 0x00511812      6d12           blt.b 0x511826
         0x00511814      0c000005       cmpi.b 0x5, d0
     < 0x00511818      6d08           blt.b 0x511822
        0x0051181a      0c000008       cmpi.b 0x8, d0
    < 0x0051181e      6f00016c       ble.w 0x51198c
   > 0x00511822      6000026a       bra.w 0x511a8e
    > 0x00511826      0c000001       cmpi.b 0x1, d0
    < 0x0051182a      6d06           blt.b 0x511832
       0x0051182c      0c000004       cmpi.b 0x4, d0
   < 0x00511830      6f04           ble.b 0x511836
  > 0x00511832      6000025a       bra.w 0x511a8e
  > 0x00511836      4880           ext.w d0
       0x00511838      43fa8396       lea.l 0x509bd0(pc), a1
       0x0051183c      32310200       move.w (a1, d0.w * 2), d1
       0x00511840      48c1           ext.l d1
       0x00511842      5381           subq.l 0x1, d1
       0x00511844      b284           cmp.l d4, d1
   < 0x00511846      6302           bls.b 0x51184a
      0x00511848      4e4f           trap 0xf
   > 0x0051184a      43f90083d1ce   lea.l 0x83d1ce, a1
       0x00511850      f23144001f20.  fmove.s 0x11a(a1, d1.l * 8), fp0
       0x00511858      f22c442200de   fadd.s 0xde(a4), fp0
       0x0051185e      f23164001f20.  fmove.s fp0, 0x11a(a1, d1.l * 8)
       0x00511866      f23144001f20.  fmove.s 0x11e(a1, d1.l * 8), fp0
       0x0051186e      f22c442200e2   fadd.s 0xe2(a4), fp0
       0x00511874      f23164001f20.  fmove.s fp0, 0x11e(a1, d1.l * 8)
       0x0051187c      43fa8366       lea.l 0x509be4(pc), a1
       0x00511880      32310200       move.w (a1, d0.w * 2), d1
       0x00511884      48c1           ext.l d1
       0x00511886      5381           subq.l 0x1, d1
       0x00511888      b284           cmp.l d4, d1
   < 0x0051188a      6302           bls.b 0x51188e
      0x0051188c      4e4f           trap 0xf
   > 0x0051188e      43f90083d1ce   lea.l 0x83d1ce, a1
       0x00511894      f23144001f20.  fmove.s 0x11a(a1, d1.l * 8), fp0
       0x0051189c      f22c442200de   fadd.s 0xde(a4), fp0
       0x005118a2      f23164001f20.  fmove.s fp0, 0x11a(a1, d1.l * 8)
       0x005118aa      f23144001f20.  fmove.s 0x11e(a1, d1.l * 8), fp0
       0x005118b2      f22c442200e2   fadd.s 0xe2(a4), fp0
       0x005118b8      f23164001f20.  fmove.s fp0, 0x11e(a1, d1.l * 8)
       0x005118c0      43fa834a       lea.l 0x509c0c(pc), a1
       0x005118c4      32310200       move.w (a1, d0.w * 2), d1
       0x005118c8      48c1           ext.l d1
       0x005118ca      5381           subq.l 0x1, d1
       0x005118cc      b284           cmp.l d4, d1
   < 0x005118ce      6302           bls.b 0x5118d2
      0x005118d0      4e4f           trap 0xf
   > 0x005118d2      43f90083d1ce   lea.l 0x83d1ce, a1
       0x005118d8      f23144001f20.  fmove.s 0x11a(a1, d1.l * 8), fp0
       0x005118e0      f22c442200de   fadd.s 0xde(a4), fp0
       0x005118e6      f23164001f20.  fmove.s fp0, 0x11a(a1, d1.l * 8)
       0x005118ee      f23144001f20.  fmove.s 0x11e(a1, d1.l * 8), fp0
       0x005118f6      f22c442200e2   fadd.s 0xe2(a4), fp0
       0x005118fc      f23164001f20.  fmove.s fp0, 0x11e(a1, d1.l * 8)
       0x00511904      43fa831a       lea.l 0x509c20(pc), a1
       0x00511908      3f310200       move.w (a1, d0.w * 2), -(a7)
       0x0051190c      43fa82c2       lea.l 0x509bd0(pc), a1
       0x00511910      3f310200       move.w (a1, d0.w * 2), -(a7)
       0x00511914      43fa82ba       lea.l 0x509bd0(pc), a1
       0x00511918      3f310200       move.w (a1, d0.w * 2), -(a7)
       0x0051191c      43fa82c6       lea.l 0x509be4(pc), a1
       0x00511920      3f310200       move.w (a1, d0.w * 2), -(a7)
       0x00511924      43fa82aa       lea.l 0x509bd0(pc), a1
       0x00511928      3f310200       move.w (a1, d0.w * 2), -(a7)
       0x0051192c      49eeffc6       lea.l -0x3a(a6), a4
       0x00511930      4ebafcca       jsr MENU3DCOM.PAS.get_intersect(pc)
       0x00511934      defc000a       adda.w 0xa, a7
       0x00511938      286effc6       movea.l -0x3a(a6), a4
       0x0051193c      1213           move.b (a3), d1
       0x0051193e      4881           ext.w d1
       0x00511940      43fa82de       lea.l 0x509c20(pc), a1
       0x00511944      3f311200       move.w (a1, d1.w * 2), -(a7)
       0x00511948      1213           move.b (a3), d1
       0x0051194a      4881           ext.w d1
       0x0051194c      43fa82be       lea.l 0x509c0c(pc), a1
       0x00511950      3f311200       move.w (a1, d1.w * 2), -(a7)
       0x00511954      1213           move.b (a3), d1
       0x00511956      4881           ext.w d1
       0x00511958      43fa82b2       lea.l 0x509c0c(pc), a1
       0x0051195c      3f311200       move.w (a1, d1.w * 2), -(a7)
       0x00511960      1213           move.b (a3), d1
       0x00511962      4881           ext.w d1
       0x00511964      43fa827e       lea.l 0x509be4(pc), a1
       0x00511968      3f311200       move.w (a1, d1.w * 2), -(a7)
       0x0051196c      1213           move.b (a3), d1
       0x0051196e      4881           ext.w d1
       0x00511970      43fa829a       lea.l 0x509c0c(pc), a1
   > 0x00511974      3f311200       move.w (a1, d1.w * 2), -(a7)
      0x00511978      49eeffc6       lea.l -0x3a(a6), a4
      0x0051197c      4ebafc7e       jsr MENU3DCOM.PAS.get_intersect(pc)
      0x00511980      defc000a       adda.w 0xa, a7
      0x00511984      286effc6       movea.l -0x3a(a6), a4
  < 0x00511988      600004d2       bra.w 0x511e5c
  > 0x0051198c      4880           ext.w d0
      0x0051198e      43fa8254       lea.l 0x509be4(pc), a1
      0x00511992      32310200       move.w (a1, d0.w * 2), d1
      0x00511996      48c1           ext.l d1
      0x00511998      5381           subq.l 0x1, d1
      0x0051199a      b284           cmp.l d4, d1
  < 0x0051199c      6302           bls.b 0x5119a0
     0x0051199e      4e4f           trap 0xf
  > 0x005119a0      43f90083d1ce   lea.l 0x83d1ce, a1
      0x005119a6      f23144001f20.  fmove.s 0x11a(a1, d1.l * 8), fp0
      0x005119ae      f22c442200de   fadd.s 0xde(a4), fp0
      0x005119b4      f23164001f20.  fmove.s fp0, 0x11a(a1, d1.l * 8)
      0x005119bc      f23144001f20.  fmove.s 0x11e(a1, d1.l * 8), fp0
      0x005119c4      f22c442200e2   fadd.s 0xe2(a4), fp0
      0x005119ca      f23164001f20.  fmove.s fp0, 0x11e(a1, d1.l * 8)
      0x005119d2      1213           move.b (a3), d1
      0x005119d4      4881           ext.w d1
      0x005119d6      43fa8220       lea.l 0x509bf8(pc), a1
      0x005119da      34311200       move.w (a1, d1.w * 2), d2
      0x005119de      48c2           ext.l d2
      0x005119e0      5382           subq.l 0x1, d2
      0x005119e2      b484           cmp.l d4, d2
  < 0x005119e4      6302           bls.b 0x5119e8
     0x005119e6      4e4f           trap 0xf
  > 0x005119e8      43f90083d1ce   lea.l 0x83d1ce, a1
      0x005119ee      f23144002f20.  fmove.s 0x11a(a1, d2.l * 8), fp0
      0x005119f6      f22c442200de   fadd.s 0xde(a4), fp0
      0x005119fc      f23164002f20.  fmove.s fp0, 0x11a(a1, d2.l * 8)
      0x00511a04      f23144002f20.  fmove.s 0x11e(a1, d2.l * 8), fp0
      0x00511a0c      f22c442200e2   fadd.s 0xe2(a4), fp0
      0x00511a12      f23164002f20.  fmove.s fp0, 0x11e(a1, d2.l * 8)
      0x00511a1a      43fa81b4       lea.l 0x509bd0(pc), a1
      0x00511a1e      3f311200       move.w (a1, d1.w * 2), -(a7)
      0x00511a22      43fa81c0       lea.l 0x509be4(pc), a1
      0x00511a26      3f311200       move.w (a1, d1.w * 2), -(a7)
      0x00511a2a      43fa81b8       lea.l 0x509be4(pc), a1
      0x00511a2e      3f311200       move.w (a1, d1.w * 2), -(a7)
      0x00511a32      43fa81c4       lea.l 0x509bf8(pc), a1
      0x00511a36      3f311200       move.w (a1, d1.w * 2), -(a7)
      0x00511a3a      43fa81a8       lea.l 0x509be4(pc), a1
      0x00511a3e      3f311200       move.w (a1, d1.w * 2), -(a7)
      0x00511a42      49eeffc6       lea.l -0x3a(a6), a4
      0x00511a46      4ebafbb4       jsr MENU3DCOM.PAS.get_intersect(pc)
      0x00511a4a      defc000a       adda.w 0xa, a7
      0x00511a4e      286effc6       movea.l -0x3a(a6), a4
      0x00511a52      1213           move.b (a3), d1
      0x00511a54      4881           ext.w d1
      0x00511a56      43fa81b4       lea.l 0x509c0c(pc), a1
      0x00511a5a      3f311200       move.w (a1, d1.w * 2), -(a7)
      0x00511a5e      1213           move.b (a3), d1
      0x00511a60      4881           ext.w d1
      0x00511a62      43fa8194       lea.l 0x509bf8(pc), a1
      0x00511a66      3f311200       move.w (a1, d1.w * 2), -(a7)
      0x00511a6a      1213           move.b (a3), d1
      0x00511a6c      4881           ext.w d1
      0x00511a6e      43fa8174       lea.l 0x509be4(pc), a1
      0x00511a72      3f311200       move.w (a1, d1.w * 2), -(a7)
      0x00511a76      1213           move.b (a3), d1
      0x00511a78      4881           ext.w d1
      0x00511a7a      43fa817c       lea.l 0x509bf8(pc), a1
      0x00511a7e      3f311200       move.w (a1, d1.w * 2), -(a7)
      0x00511a82      1213           move.b (a3), d1
      0x00511a84      4881           ext.w d1
      0x00511a86      43fa8170       lea.l 0x509bf8(pc), a1
   < 0x00511a8a      6000fee8       bra.w 0x511974
  < 0x00511a8e      600003cc       bra.w 0x511e5c
    < 0x00511a92      600003c8       bra.w 0x511e5c
    > 0x00511a96      22790083d1d0   movea.l 0x83d1d0, a1
         0x00511a9c      b3e9fffc       cmpa.l -0x4(a1), a1
     < 0x00511aa0      6702           beq.b 0x511aa4
        0x00511aa2      4e4d           trap 0xd
     > 0x00511aa4      4851           pea.l (a1)
         0x00511aa6      4eb9004ac46a   jsr MENUZOOMCOM.zoom_screen_pos
         0x00511aac      584f           addq.w 0x4, a7
         0x00511aae      4a390083e410   tst.b 0x83e410
     < 0x00511ab4      6754           beq.b 0x511b0a
        0x00511ab6      22790083d1d0   movea.l 0x83d1d0, a1
        0x00511abc      b3e9fffc       cmpa.l -0x4(a1), a1
    < 0x00511ac0      6702           beq.b 0x511ac4
       0x00511ac2      4e4d           trap 0xd
    > 0x00511ac4      3011           move.w (a1), d0
        0x00511ac6      48c0           ext.l d0
        0x00511ac8      32390083e412   move.w 0x83e412, d1
        0x00511ace      48c1           ext.l d1
        0x00511ad0      4481           neg.l d1
        0x00511ad2      d280           add.l d0, d1
        0x00511ad4      f2014000       fmove.l d1, fp0
        0x00511ad8      f23944230083.  fmul.s 0x83d1d8, fp0
        0x00511ae0      f22c640000de   fmove.s fp0, 0xde(a4)
        0x00511ae6      30290002       move.w 0x2(a1), d0
        0x00511aea      48c0           ext.l d0
        0x00511aec      32390083e414   move.w 0x83e414, d1
        0x00511af2      48c1           ext.l d1
        0x00511af4      4481           neg.l d1
        0x00511af6      d280           add.l d0, d1
        0x00511af8      f2014000       fmove.l d1, fp0
        0x00511afc      f23944230083.  fmul.s 0x83d1e0, fp0
        0x00511b04      f22c640000e2   fmove.s fp0, 0xe2(a4)
     > 0x00511b0a      7c01           moveq 0x1, d6
     > 0x00511b0c      48c6           ext.l d6
        0x00511b0e      2006           move.l d6, d0
        0x00511b10      5380           subq.l 0x1, d0
        0x00511b12      b084           cmp.l d4, d0
    < 0x00511b14      6302           bls.b 0x511b18
       0x00511b16      4e4f           trap 0xf
    > 0x00511b18      4c3c08000000.  muls.l 0x14, d0
        0x00511b20      43fa8112       lea.l 0x509c34(pc), a1
        0x00511b24      1213           move.b (a3), d1
        0x00511b26      4881           ext.w d1
        0x00511b28      43f10800       lea.l (a1, d0.l), a1
        0x00511b2c      3e311200       move.w (a1, d1.w * 2), d7
    < 0x00511b30      673e           beq.b 0x511b70
       0x00511b32      48c7           ext.l d7
       0x00511b34      2007           move.l d7, d0
       0x00511b36      5380           subq.l 0x1, d0
       0x00511b38      b084           cmp.l d4, d0
   < 0x00511b3a      6302           bls.b 0x511b3e
      0x00511b3c      4e4f           trap 0xf
   > 0x00511b3e      43f90083d1ce   lea.l 0x83d1ce, a1
       0x00511b44      f23144000f20.  fmove.s 0x11a(a1, d0.l * 8), fp0
       0x00511b4c      f22c442200de   fadd.s 0xde(a4), fp0
       0x00511b52      f23164000f20.  fmove.s fp0, 0x11a(a1, d0.l * 8)
       0x00511b5a      f23144000f20.  fmove.s 0x11e(a1, d0.l * 8), fp0
       0x00511b62      f22c442200e2   fadd.s 0xe2(a4), fp0
       0x00511b68      f23164000f20.  fmove.s fp0, 0x11e(a1, d0.l * 8)
    > 0x00511b70      5246           addq.w 0x1, d6
        0x00511b72      0c460004       cmpi.w 0x4, d6
     < 0x00511b76      6f94           ble.b 0x511b0c
         0x00511b78      554f           subq.w 0x2, a7
         0x00511b7a      4eb9004ff02a   jsr MENUGRIDCOM.get_constrainin
         0x00511b80      4a1f           tst.b (a7)+
     < 0x00511b82      670002d8       beq.w 0x511e5c
        0x00511b86      2254           movea.l (a4), a1
        0x00511b88      30290038       move.w 0x38(a1), d0
        0x00511b8c      0c400010       cmpi.w 0x10, d0
    < 0x00511b90      660002ca       bne.w 0x511e5c
       0x00511b94      1a13           move.b (a3), d5
       0x00511b96      554f           subq.w 0x2, a7
       0x00511b98      3f3c002f       move.w 0x2f, -(a7)
       0x00511b9c      4eb900480fc2   jsr MENUCOM.get_boxon
       0x00511ba2      544f           addq.w 0x2, a7
       0x00511ba4      4a1f           tst.b (a7)+
   < 0x00511ba6      670000b2       beq.w 0x511c5a
      0x00511baa      554f           subq.w 0x2, a7
      0x00511bac      3f3c005c       move.w 0x5c, -(a7)
      0x00511bb0      4eb900480fc2   jsr MENUCOM.get_boxon
      0x00511bb6      544f           addq.w 0x2, a7
      0x00511bb8      4a1f           tst.b (a7)+
  < 0x00511bba      6732           beq.b 0x511bee
     0x00511bbc      554f           subq.w 0x2, a7
     0x00511bbe      3f3c0033       move.w 0x33, -(a7)
     0x00511bc2      4eb900480fc2   jsr MENUCOM.get_boxon
     0x00511bc8      544f           addq.w 0x2, a7
     0x00511bca      4a1f           tst.b (a7)+
  < 0x00511bcc      6706           beq.b 0x511bd4
     0x00511bce      7a01           moveq 0x1, d5
  < 0x00511bd0      60000088       bra.w 0x511c5a
  > 0x00511bd4      554f           subq.w 0x2, a7
     0x00511bd6      3f3c0034       move.w 0x34, -(a7)
     0x00511bda      4eb900480fc2   jsr MENUCOM.get_boxon
     0x00511be0      544f           addq.w 0x2, a7
     0x00511be2      4a1f           tst.b (a7)+
  < 0x00511be4      6704           beq.b 0x511bea
     0x00511be6      7a02           moveq 0x2, d5
  < 0x00511be8      6070           bra.b 0x511c5a
  > 0x00511bea      7a05           moveq 0x5, d5
  < 0x00511bec      606c           bra.b 0x511c5a
  > 0x00511bee      554f           subq.w 0x2, a7
      0x00511bf0      3f3c005d       move.w 0x5d, -(a7)
      0x00511bf4      4eb900480fc2   jsr MENUCOM.get_boxon
      0x00511bfa      544f           addq.w 0x2, a7
      0x00511bfc      4a1f           tst.b (a7)+
  < 0x00511bfe      6730           beq.b 0x511c30
     0x00511c00      554f           subq.w 0x2, a7
     0x00511c02      3f3c0033       move.w 0x33, -(a7)
     0x00511c06      4eb900480fc2   jsr MENUCOM.get_boxon
     0x00511c0c      544f           addq.w 0x2, a7
     0x00511c0e      4a1f           tst.b (a7)+
  < 0x00511c10      6704           beq.b 0x511c16
     0x00511c12      7a04           moveq 0x4, d5
  < 0x00511c14      6044           bra.b 0x511c5a
  > 0x00511c16      554f           subq.w 0x2, a7
     0x00511c18      3f3c0034       move.w 0x34, -(a7)
     0x00511c1c      4eb900480fc2   jsr MENUCOM.get_boxon
     0x00511c22      544f           addq.w 0x2, a7
     0x00511c24      4a1f           tst.b (a7)+
  < 0x00511c26      6704           beq.b 0x511c2c
     0x00511c28      7a03           moveq 0x3, d5
  < 0x00511c2a      602e           bra.b 0x511c5a
  > 0x00511c2c      7a07           moveq 0x7, d5
  < 0x00511c2e      602a           bra.b 0x511c5a
  > 0x00511c30      554f           subq.w 0x2, a7
      0x00511c32      3f3c0033       move.w 0x33, -(a7)
      0x00511c36      4eb900480fc2   jsr MENUCOM.get_boxon
      0x00511c3c      544f           addq.w 0x2, a7
      0x00511c3e      4a1f           tst.b (a7)+
  < 0x00511c40      6704           beq.b 0x511c46
     0x00511c42      7a08           moveq 0x8, d5
  < 0x00511c44      6014           bra.b 0x511c5a
  > 0x00511c46      554f           subq.w 0x2, a7
      0x00511c48      3f3c0034       move.w 0x34, -(a7)
      0x00511c4c      4eb900480fc2   jsr MENUCOM.get_boxon
      0x00511c52      544f           addq.w 0x2, a7
      0x00511c54      4a1f           tst.b (a7)+
  < 0x00511c56      6702           beq.b 0x511c5a
     0x00511c58      7a06           moveq 0x6, d5
  > 0x00511c5a      48790083d2e8   pea.l 0x83d2e8
       0x00511c60      486effca       pea.l -0x36(a6)
       0x00511c64      4eba8af6       jsr MENU3DCOM.PAS.get_pin_pos(pc)
       0x00511c68      504f           addq.w 0x8, a7
       0x00511c6a      f23c40000000.  fmove.l 0x0, fp0
       0x00511c72      f22c64000108   fmove.s fp0, 0x108(a4)
       0x00511c78      f23c40000000.  fmove.l 0x0, fp0
       0x00511c80      f22c6400010c   fmove.s fp0, 0x10c(a4)
       0x00511c86      42390083e410   clr.b 0x83e410
       0x00511c8c      2254           movea.l (a4), a1
       0x00511c8e      7c01           moveq 0x1, d6
   > 0x00511c90      4885           ext.w d5
      0x00511c92      4bbc0009       chk.w 0x9, d5
      0x00511c96      48c6           ext.l d6
      0x00511c98      2006           move.l d6, d0
      0x00511c9a      5380           subq.l 0x1, d0
      0x00511c9c      b084           cmp.l d4, d0
  < 0x00511c9e      6302           bls.b 0x511ca2
     0x00511ca0      4e4f           trap 0xf
  > 0x00511ca2      4c3c08000000.  muls.l 0x14, d0
      0x00511caa      45f900509c34   lea.l 0x509c34, a2
      0x00511cb0      45f20800       lea.l (a2, d0.l), a2
      0x00511cb4      3e325200       move.w (a2, d5.w * 2), d7
  < 0x00511cb8      670000ba       beq.w 0x511d74
     0x00511cbc      48c7           ext.l d7
     0x00511cbe      2007           move.l d7, d0
     0x00511cc0      5380           subq.l 0x1, d0
     0x00511cc2      b084           cmp.l d4, d0
  < 0x00511cc4      6302           bls.b 0x511cc8
     0x00511cc6      4e4f           trap 0xf
  > 0x00511cc8      23760cca002c   move.l -0x36(a6, d0.l), 0x2c(a1)
     0x00511cce      4869002c       pea.l 0x2c(a1)
     0x00511cd2      4eb9004ff074   jsr MENUGRIDCOM.check_constrain
     0x00511cd8      584f           addq.w 0x4, a7
     0x00511cda      3229002c       move.w 0x2c(a1), d1
     0x00511cde      b2760cca       cmp.w -0x36(a6, d0.l), d1
  < 0x00511ce2      660c           bne.b 0x511cf0
     0x00511ce4      3429002e       move.w 0x2e(a1), d2
     0x00511ce8      b4760ccc       cmp.w -0x34(a6, d0.l), d2
  < 0x00511cec      67000086       beq.w 0x511d74
  > 0x00511cf0      48c1           ext.l d1
     0x00511cf2      34360cca       move.w -0x36(a6, d0.l), d2
     0x00511cf6      48c2           ext.l d2
     0x00511cf8      4482           neg.l d2
     0x00511cfa      d481           add.l d1, d2
     0x00511cfc      f2024000       fmove.l d2, fp0
     0x00511d00      f23944230083.  fmul.s 0x83d1d8, fp0
     0x00511d08      f22c64000110   fmove.s fp0, 0x110(a4)
     0x00511d0e      3429002e       move.w 0x2e(a1), d2
     0x00511d12      48c2           ext.l d2
     0x00511d14      36360ccc       move.w -0x34(a6, d0.l), d3
     0x00511d18      48c3           ext.l d3
     0x00511d1a      4483           neg.l d3
     0x00511d1c      d682           add.l d2, d3
     0x00511d1e      f2034000       fmove.l d3, fp0
     0x00511d22      f23944230083.  fmul.s 0x83d1e0, fp0
     0x00511d2a      f22c64000114   fmove.s fp0, 0x114(a4)
     0x00511d30      4a390083e410   tst.b 0x83e410
  < 0x00511d36      6728           beq.b 0x511d60
     0x00511d38      f22c44180110   fabs.s 0x110(a4), fp0
     0x00511d3e      f22c44980114   fabs.s 0x114(a4), fp1
     0x00511d44      f20000a2       fadd fp0, fp1
     0x00511d48      f22c44180108   fabs.s 0x108(a4), fp0
     0x00511d4e      f22c4518010c   fabs.s 0x10c(a4), fp2
     0x00511d54      f2000122       fadd fp0, fp2
     0x00511d58      f20008b8       fcmp fp2, fp1
     0x00511d5c      f29b0016       fbf.w 0x511d74
  > 0x00511d60      296c01100108   move.l 0x110(a4), 0x108(a4)
     0x00511d66      296c0114010c   move.l 0x114(a4), 0x10c(a4)
     0x00511d6c      13fc00010083.  move.b 0x1, 0x83e410.l
  > 0x00511d74      5246           addq.w 0x1, d6
      0x00511d76      0c460004       cmpi.w 0x4, d6
   < 0x00511d7a      6f00ff14       ble.w 0x511c90
       0x00511d7e      4a390083e410   tst.b 0x83e410
   < 0x00511d84      670000d6       beq.w 0x511e5c
      0x00511d88      7c01           moveq 0x1, d6
  > 0x00511d8a      48c6           ext.l d6
     0x00511d8c      2006           move.l d6, d0
     0x00511d8e      5380           subq.l 0x1, d0
     0x00511d90      b084           cmp.l d4, d0
  < 0x00511d92      6302           bls.b 0x511d96
     0x00511d94      4e4f           trap 0xf
  > 0x00511d96      4c3c08000000.  muls.l 0x14, d0
     0x00511d9e      43f900509c34   lea.l 0x509c34, a1
     0x00511da4      1213           move.b (a3), d1
     0x00511da6      4881           ext.w d1
     0x00511da8      43f10800       lea.l (a1, d0.l), a1
     0x00511dac      3e311200       move.w (a1, d1.w * 2), d7
  < 0x00511db0      67000094       beq.w 0x511e46
     0x00511db4      48c7           ext.l d7
     0x00511db6      2007           move.l d7, d0
     0x00511db8      5380           subq.l 0x1, d0
     0x00511dba      b084           cmp.l d4, d0
  < 0x00511dbc      6302           bls.b 0x511dc0
     0x00511dbe      4e4f           trap 0xf
  > 0x00511dc0      43f90083d1ce   lea.l 0x83d1ce, a1
     0x00511dc6      f23144000f20.  fmove.s 0x11a(a1, d0.l * 8), fp0
     0x00511dce      f22c44220108   fadd.s 0x108(a4), fp0
     0x00511dd4      f23164000f20.  fmove.s fp0, 0x11a(a1, d0.l * 8)
     0x00511ddc      f23144000f20.  fmove.s 0x11e(a1, d0.l * 8), fp0
     0x00511de4      f22c4422010c   fadd.s 0x10c(a4), fp0
     0x00511dea      f23164000f20.  fmove.s fp0, 0x11e(a1, d0.l * 8)
     0x00511df2      f23044000f20.  fmove.s 0x2b8(a0, d0.l * 8), fp0
     0x00511dfa      f23144280f20.  fsub.s 0x11a(a1, d0.l * 8), fp0
     0x00511e02      f2000018       fabs fp0
     0x00511e06      f23c44383a83.  fcmp.s 0, fp0
     0x00511e0e      f2920022       fbf.w 0x511e32
     0x00511e12      f23044000f20.  fmove.s 0x2bc(a0, d0.l * 8), fp0
     0x00511e1a      f23144280f20.  fsub.s 0x11e(a1, d0.l * 8), fp0
     0x00511e22      f2000018       fabs fp0
     0x00511e26      f23c44383a83.  fcmp.s 0, fp0
     0x00511e2e      f29d0016       fbf.w 0x511e46
     0x00511e32      24790083d1d0   movea.l 0x83d1d0, a2
     0x00511e38      b5eafffc       cmpa.l -0x4(a2), a2
  < 0x00511e3c      6702           beq.b 0x511e40
     0x00511e3e      4e4d           trap 0xd
  > 0x00511e40      23d20083e412   move.l (a2), 0x83e412
  > 0x00511e46      1f3c0001       move.b 0x1, -(a7)
     0x00511e4a      4eb900455052   jsr CURSORCOM.set_curs_colour
     0x00511e50      544f           addq.w 0x2, a7
     0x00511e52      5246           addq.w 0x1, d6
     0x00511e54      0c460004       cmpi.w 0x4, d6
  < 0x00511e58      6f00ff30       ble.w 0x511d8a
   > 0x00511e5c      43e802b8       lea.l 0x2b8(a0), a1
            0x00511e60      45f90083d2e8   lea.l 0x83d2e8, a2
            0x00511e66      7007           moveq 0x7, d0
        > 0x00511e68      22da           move.l (a2)+, (a1)+
        < 0x00511e6a      51c8fffc       dbra d0, 0x511e68
            0x00511e6e      554f           subq.w 0x2, a7
            0x00511e70      3f390083e38a   move.w 0x83e38a, -(a7)
            0x00511e76      4eb900480fc2   jsr MENUCOM.get_boxon
            0x00511e7c      544f           addq.w 0x2, a7
            0x00511e7e      4a1f           tst.b (a7)+
        < 0x00511e80      671c           beq.b 0x511e9e
           0x00511e82      486802b8       pea.l 0x2b8(a0)
           0x00511e86      48680056       pea.l 0x56(a0)
           0x00511e8a      48680210       pea.l 0x210(a0)
           0x00511e8e      486802a0       pea.l 0x2a0(a0)
           0x00511e92      4eb90067e60c   jsr THREEDMAV.inv_transform_p
           0x00511e98      defc0010       adda.w 0x10, a7
       < 0x00511e9c      6044           bra.b 0x511ee2
       > 0x00511e9e      2268000a       movea.l 0xa(a0), a1
           0x00511ea2      b3e9fffc       cmpa.l -0x4(a1), a1
       < 0x00511ea6      6702           beq.b 0x511eaa
          0x00511ea8      4e4d           trap 0xd
       > 0x00511eaa      43e901c8       lea.l 0x1c8(a1), a1
           0x00511eae      2f09           move.l a1, -(a7)
           0x00511eb0      2f28002a       move.l 0x2a(a0), -(a7)
           0x00511eb4      2f280026       move.l 0x26(a0), -(a7)
           0x00511eb8      486800f0       pea.l 0xf0(a0)
           0x00511ebc      48680138       pea.l 0x138(a0)
           0x00511ec0      486802a0       pea.l 0x2a0(a0)
           0x00511ec4      48680056       pea.l 0x56(a0)
           0x00511ec8      43e802d8       lea.l 0x2d8(a0), a1
           0x00511ecc      7007           moveq 0x7, d0
       > 0x00511ece      2f21           move.l -(a1), -(a7)
       < 0x00511ed0      51c8fffc       dbra d0, 0x511ece
           0x00511ed4      1f3c0002       move.b 0x2, -(a7)
           0x00511ed8      4eb90067ddda   jsr THREEDMAV.calc_pin_transf
           0x00511ede      defc003e       adda.w 0x3e, a7
       > 0x00511ee2      f21fd0e0       fmovem (a7)+, fp0-fp2
            0x00511ee6      4cdf1fff       movem.l (a7)+, d0-d7/a0-a4
            0x00511eea      4e5e           unlk a6
            0x00511eec      4e75           rts
 24: MENU3DCOM.PAS.update_picked_c ();
           0x00511eee      4e56fe40       link.w a6, 0xfe40
           0x00511ef2      bfd5           cmpa.l (a5), a7
       < 0x00511ef4      6206           bhi.b 0x511efc
          0x00511ef6      44fc0002       move.w 0x2, ccr
          0x00511efa      4e76           trapv
       > 0x00511efc      defc00a8       adda.w 0xa8, a7
           0x00511f00      48e7fff8       movem.l d0-d7/a0-a4, -(a7)
           0x00511f04      f227e001       fmovem fp0, -(a7)
            0x00511f08      47f900480fc2   lea.l MENUCOM.get_boxon, a3
            0x00511f0e      740a           moveq 0xa, d2
            0x00511f10      7664           moveq 0x64, d3
            0x00511f12      780f           moveq 0xf, d4
            0x00511f14      7a20           moveq 0x20, d5
            0x00511f16      2c3c00000100   move.l 0x100, d6
            0x00511f1c      7e04           moveq 0x4, d7
            0x00511f1e      486effe6       pea.l -0x1a(a6)
            0x00511f22      486effe8       pea.l -0x18(a6)
            0x00511f26      4eb9005186e8   jsr OUTCOM.get_zoom_and_of
            0x00511f2c      504f           addq.w 0x8, a7
            0x00511f2e      10390083d2e4   move.b 0x83d2e4, d0
            0x00511f34      4880           ext.w d0
            0x00511f36      41fa807a       lea.l 0x509fb2(pc), a0
            0x00511f3a      3200           move.w d0, d1
            0x00511f3c      e649           lsr.w 0x3, d1
            0x00511f3e      01301000       btst.l d0, (a0, d1.w)
        < 0x00511f42      6704           beq.b 0x511f48
           0x00511f44      3d46ffe6       move.w d6, -0x1a(a6)
        > 0x00511f48      20790083d1d0   movea.l 0x83d1d0, a0
            0x00511f4e      b1e8fffc       cmpa.l -0x4(a0), a0
        < 0x00511f52      6702           beq.b 0x511f56
           0x00511f54      4e4d           trap 0xd
        > 0x00511f56      f22850000012   fmove.w 0x12(a0), fp0
            0x00511f5c      f23944230083.  fmul.s 0x83d1d8, fp0
            0x00511f64      f22e5023ffe6   fmul.w -0x1a(a6), fp0
            0x00511f6a      f2064020       fdiv.l d6, fp0
            0x00511f6e      f22e6400ffc2   fmove.s fp0, -0x3e(a6)
            0x00511f74      f22850000014   fmove.w 0x14(a0), fp0
            0x00511f7a      f23944230083.  fmul.s 0x83d1e0, fp0
            0x00511f82      f22e5023ffe6   fmul.w -0x1a(a6), fp0
            0x00511f88      f2064020       fdiv.l d6, fp0
            0x00511f8c      f22e6400ffc6   fmove.s fp0, -0x3a(a6)
            0x00511f92      f22e4400ffc2   fmove.s -0x3e(a6), fp0
            0x00511f98      f22e4428ffc6   fsub.s -0x3a(a6), fp0
            0x00511f9e      f22e6400ffca   fmove.s fp0, -0x36(a6)
            0x00511fa4      554f           subq.w 0x2, a7
            0x00511fa6      3f390083e37c   move.w 0x83e37c, -(a7)
            0x00511fac      4e93           jsr (a3)                    ; fcn.0000000c
            0x00511fae      544f           addq.w 0x2, a7
            0x00511fb0      4a1f           tst.b (a7)+
        < 0x00511fb2      672c           beq.b 0x511fe0
           0x00511fb4      10390083d2df   move.b 0x83d2df, d0
           0x00511fba      4880           ext.w d0
           0x00511fbc      41f900509fb4   lea.l 0x509fb4, a0
           0x00511fc2      3200           move.w d0, d1
           0x00511fc4      e649           lsr.w 0x3, d1
           0x00511fc6      01301000       btst.l d0, (a0, d1.w)
       < 0x00511fca      6614           bne.b 0x511fe0
          0x00511fcc      41eefeea       lea.l -0x116(a6), a0
          0x00511fd0      43f90083d1e4   lea.l 0x83d1e4, a1
          0x00511fd6      7011           moveq 0x11, d0
      > 0x00511fd8      20d9           move.l (a1)+, (a0)+
      < 0x00511fda      51c8fffc       dbra d0, 0x511fd8
      < 0x00511fde      601c           bra.b 0x511ffc
      > 0x00511fe0      206e0008       movea.l 0x8(a6), a0
           0x00511fe4      b1e8fffc       cmpa.l -0x4(a0), a0
       < 0x00511fe8      6702           beq.b 0x511fec
          0x00511fea      4e4d           trap 0xd
       > 0x00511fec      43eefeea       lea.l -0x116(a6), a1
           0x00511ff0      41e80180       lea.l 0x180(a0), a0
           0x00511ff4      7011           moveq 0x11, d0
       > 0x00511ff6      22d8           move.l (a0)+, (a1)+
       < 0x00511ff8      51c8fffc       dbra d0, 0x511ff6
      > 0x00511ffc      206e0008       movea.l 0x8(a6), a0
            0x00512000      b1e8fffc       cmpa.l -0x4(a0), a0
        < 0x00512004      6702           beq.b 0x512008
           0x00512006      4e4d           trap 0xd
        > 0x00512008      10390083d2e4   move.b 0x83d2e4, d0
            0x0051200e      4880           ext.w d0
            0x00512010      5340           subq.w 0x1, d0
            0x00512012      0c400007       cmpi.w 0x7, d0
        < 0x00512016      6302           bls.b 0x51201a
           0x00512018      4e4e           trap 0xe
        > 0x0051201a      d040           add.w d0, d0
            0x0051201c      303b0006       move.w 0x512024(pc, d0.w), d0
            0x00512020      4efb0002       jmp 0x512024(pc, d0.w)
            0x00512024      00100044       ori.b 0x44, (a0)
            0x00512028      009801c001d0   ori.l 0x1c001d0, (a0)+
            0x0051202e      02240478       andi.b 0x78, -(a4)
            0x00512032      0616486e       addi.b 0x6e, (a6)
            0x00512036      feea486800f0   fbf.l 0x48b92128
            0x0051203c      48680138       pea.l 0x138(a0)
            0x00512040      486802a0       pea.l 0x2a0(a0)
            0x00512044      1f390083d2e5   move.b 0x83d2e5, -(a7)
            0x0051204a      1f390083d2e6   move.b 0x83d2e6, -(a7)
            0x00512050      2f2effca       move.l -0x36(a6), -(a7)
            0x00512054      2f2effc6       move.l -0x3a(a6), -(a7)
            0x00512058      2f2effc2       move.l -0x3e(a6), -(a7)
            0x0051205c      4eb90067ab4e   jsr THREEDMAV.do_pos
        > 0x00512062      dec5           adda.w d5, a7
       < 0x00512064      6000066c       bra.w 0x5126d2
          0x00512068      f22e441affc6   fneg.s -0x3a(a6), fp0
          0x0051206e      f22e6400ffce   fmove.s fp0, -0x32(a6)
          0x00512074      2d6effc2ffd2   move.l -0x3e(a6), -0x2e(a6)
          0x0051207a      f22e4400ffd2   fmove.s -0x2e(a6), fp0
          0x00512080      f22e4422ffce   fadd.s -0x32(a6), fp0
          0x00512086      f22e6400ffd6   fmove.s fp0, -0x2a(a6)
          0x0051208c      486efeea       pea.l -0x116(a6)
          0x00512090      486800f0       pea.l 0xf0(a0)
          0x00512094      48680138       pea.l 0x138(a0)
          0x00512098      486802a0       pea.l 0x2a0(a0)
          0x0051209c      1f390083d2e5   move.b 0x83d2e5, -(a7)
          0x005120a2      1f390083d2e6   move.b 0x83d2e6, -(a7)
          0x005120a8      2f2effd6       move.l -0x2a(a6), -(a7)
          0x005120ac      2f2effd2       move.l -0x2e(a6), -(a7)
          0x005120b0      2f2effce       move.l -0x32(a6), -(a7)
          0x005120b4      4eb90067c2ee   jsr THREEDMAV.do_spin
       < 0x005120ba      60a6           bra.b 0x512062
           0x005120bc      f22e4400ffc2   fmove.s -0x3e(a6), fp0
           0x005120c2      f2074020       fdiv.l d7, fp0
           0x005120c6      f22e6400ffda   fmove.s fp0, -0x26(a6)
           0x005120cc      f22e4400ffc6   fmove.s -0x3a(a6), fp0
           0x005120d2      f2074020       fdiv.l d7, fp0
           0x005120d6      f22e6400ffde   fmove.s fp0, -0x22(a6)
           0x005120dc      f22e4400ffda   fmove.s -0x26(a6), fp0
           0x005120e2      f22e4428ffde   fsub.s -0x22(a6), fp0
           0x005120e8      f22e6400ffe2   fmove.s fp0, -0x1e(a6)
           0x005120ee      554f           subq.w 0x2, a7
           0x005120f0      3f3c007f       move.w 0x7f, -(a7)
           0x005120f4      4e93           jsr (a3)                    ; fcn.0000000c
           0x005120f6      544f           addq.w 0x2, a7
           0x005120f8      4a1f           tst.b (a7)+
       < 0x005120fa      670000b4       beq.w 0x5121b0
          0x005120fe      554f           subq.w 0x2, a7
          0x00512100      3f390083e38a   move.w 0x83e38a, -(a7)
          0x00512106      4e93           jsr (a3)                    ; fcn.0000000c
          0x00512108      544f           addq.w 0x2, a7
          0x0051210a      4a1f           tst.b (a7)+
      < 0x0051210c      670000a2       beq.w 0x5121b0
         0x00512110      43eeff32       lea.l -0xce(a6), a1
         0x00512114      45e800f0       lea.l 0xf0(a0), a2
         0x00512118      7011           moveq 0x11, d0
     > 0x0051211a      22da           move.l (a2)+, (a1)+
     < 0x0051211c      51c8fffc       dbra d0, 0x51211a
         0x00512120      43eeff7a       lea.l -0x86(a6), a1
         0x00512124      45e80138       lea.l 0x138(a0), a2
         0x00512128      7011           moveq 0x11, d0
     > 0x0051212a      22da           move.l (a2)+, (a1)+
     < 0x0051212c      51c8fffc       dbra d0, 0x51212a
         0x00512130      486eff32       pea.l -0xce(a6)
         0x00512134      486eff32       pea.l -0xce(a6)
         0x00512138      486eff7a       pea.l -0x86(a6)
         0x0051213c      486802a0       pea.l 0x2a0(a0)
         0x00512140      1f390083d2e5   move.b 0x83d2e5, -(a7)
         0x00512146      1f390083d2e6   move.b 0x83d2e6, -(a7)
         0x0051214c      2f2effe2       move.l -0x1e(a6), -(a7)
         0x00512150      2f2effde       move.l -0x22(a6), -(a7)
         0x00512154      2f2effda       move.l -0x26(a6), -(a7)
         0x00512158      4eb90067c8c4   jsr THREEDMAV.do_size
         0x0051215e      defc001c       adda.w 0x1c, a7
         0x00512162      2ea8002a       move.l 0x2a(a0), (a7)
         0x00512166      2f280026       move.l 0x26(a0), -(a7)
         0x0051216a      43eeff7a       lea.l -0x86(a6), a1
         0x0051216e      7011           moveq 0x11, d0
     > 0x00512170      2f21           move.l -(a1), -(a7)
     < 0x00512172      51c8fffc       dbra d0, 0x512170
         0x00512176      486eff7a       pea.l -0x86(a6)
         0x0051217a      486802a0       pea.l 0x2a0(a0)
         0x0051217e      48680056       pea.l 0x56(a0)
         0x00512182      48790083d2e8   pea.l 0x83d2e8
         0x00512188      4eb90067d124   jsr THREEDMAV.calc_pin_shape
         0x0051218e      defc0060       adda.w 0x60, a7
         0x00512192      48790083d2e8   pea.l 0x83d2e8
         0x00512198      48680056       pea.l 0x56(a0)
         0x0051219c      48680210       pea.l 0x210(a0)
         0x005121a0      486802a0       pea.l 0x2a0(a0)
         0x005121a4      4eb90067e60c   jsr THREEDMAV.inv_transform_p
         0x005121aa      defc0010       adda.w 0x10, a7
     < 0x005121ae      6030           bra.b 0x5121e0
     > 0x005121b0      48680180       pea.l 0x180(a0)
          0x005121b4      486800f0       pea.l 0xf0(a0)
          0x005121b8      48680138       pea.l 0x138(a0)
          0x005121bc      486802a0       pea.l 0x2a0(a0)
          0x005121c0      1f390083d2e5   move.b 0x83d2e5, -(a7)
          0x005121c6      1f390083d2e6   move.b 0x83d2e6, -(a7)
          0x005121cc      2f2effe2       move.l -0x1e(a6), -(a7)
          0x005121d0      2f2effde       move.l -0x22(a6), -(a7)
          0x005121d4      2f2effda       move.l -0x26(a6), -(a7)
          0x005121d8      4eb90067c8c4   jsr THREEDMAV.do_size
          0x005121de      dec5           adda.w d5, a7
     < 0x005121e0      600004f0       bra.w 0x5126d2
          0x005121e4      49eefee4       lea.l -0x11c(a6), a4
          0x005121e8      4ebaf57e       jsr MENU3DCOM.PAS.do_pin(pc)
          0x005121ec      286efee4       movea.l -0x11c(a6), a4
      < 0x005121f0      600004e0       bra.w 0x5126d2
         0x005121f4      594f           subq.w 0x4, a7
         0x005121f6      f22e4400ffca   fmove.s -0x36(a6), fp0
         0x005121fc      f23c40230000.  fmul.l 0x1000, fp0
         0x00512204      f2276400       fmove.s fp0, -(a7)
         0x00512208      4eb9004081d2   jsr p_round
         0x0051220e      584f           addq.w 0x4, a7
         0x00512210      302802e8       move.w 0x2e8(a0), d0
         0x00512214      48c0           ext.l d0
         0x00512216      d09f           add.l (a7)+, d0
         0x00512218      0480ffff8000   subi.l 0xffff8000, d0
         0x0051221e      413c0000ffff   chk.l 0xffff, d0
         0x00512224      0680ffff8000   addi.l 0xffff8000, d0
         0x0051222a      314002e8       move.w d0, 0x2e8(a0)
         0x0051222e      4a40           tst.w d0
     < 0x00512230      6c06           bge.b 0x512238
        0x00512232      426802e8       clr.w 0x2e8(a0)
    < 0x00512236      600c           bra.b 0x512244
    > 0x00512238      0c404000       cmpi.w 0x4000, d0
    < 0x0051223c      6f06           ble.b 0x512244
       0x0051223e      317c400002e8   move.w 0x4000, 0x2e8(a0)
   > 0x00512244      6000048c       bra.w 0x5126d2
        0x00512248      3028034c       move.w 0x34c(a0), d0
        0x0051224c      5340           subq.w 0x1, d0
        0x0051224e      0c400003       cmpi.w 0x3, d0
    < 0x00512252      6302           bls.b 0x512256
       0x00512254      4e4e           trap 0xe
    > 0x00512256      d040           add.w d0, d0
        0x00512258      303b0006       move.w 0x512260(pc, d0.w), d0
        0x0051225c      4efb0002       jmp 0x512260(pc, d0.w)
        0x00512260      000800c6       
        0x00512261      0800c601       
        0x00512262      00c6016e       
        0x00512263      c601           and.b d1, d3
    < 0x00512265      6e01           bgt.b 0x512268
       0x00512267      c455           and.w (a5), d2
        0x00512269      4f3f3900       
        0x0051226a      3f390083e3c8   move.w 0x83e3c8, -(a7)
        0x00512270      4e93           jsr (a3)                    ; fcn.0000000c
        0x00512272      544f           addq.w 0x2, a7
        0x00512274      4a1f           tst.b (a7)+
    < 0x00512276      6720           beq.b 0x512298
       0x00512278      3f390083e3c8   move.w 0x83e3c8, -(a7)
       0x0051227e      2f2effc2       move.l -0x3e(a6), -(a7)
       0x00512282      30390083d2e2   move.w 0x83d2e2, d0
       0x00512288      4184           chk.w d4, d0
       0x0051228a      48c0           ext.l d0
       0x0051228c      e980           asl.l 0x4, d0
       0x0051228e      487009200352   pea.l 0x352(a0, d0.l)
   < 0x00512294      60000086       bra.w 0x51231c
   > 0x00512298      554f           subq.w 0x2, a7
       0x0051229a      3f390083e3ca   move.w 0x83e3ca, -(a7)
       0x005122a0      4e93           jsr (a3)                    ; fcn.0000000c
       0x005122a2      544f           addq.w 0x2, a7
       0x005122a4      4a1f           tst.b (a7)+
   < 0x005122a6      6702           beq.b 0x5122aa
  < 0x005122a8      6056           bra.b 0x512300
  > 0x005122aa      554f           subq.w 0x2, a7
      0x005122ac      3f390083e3cc   move.w 0x83e3cc, -(a7)
      0x005122b2      4e93           jsr (a3)                    ; fcn.0000000c
      0x005122b4      544f           addq.w 0x2, a7
      0x005122b6      4a1f           tst.b (a7)+
  < 0x005122b8      6724           beq.b 0x5122de
     0x005122ba      3f390083e3cc   move.w 0x83e3cc, -(a7)
     0x005122c0      f22e441affca   fneg.s -0x36(a6), fp0
     0x005122c6      f2276400       fmove.s fp0, -(a7)
     0x005122ca      30390083d2e2   move.w 0x83d2e2, d0
     0x005122d0      4184           chk.w d4, d0
     0x005122d2      48c0           ext.l d0
     0x005122d4      e980           asl.l 0x4, d0
     0x005122d6      48700920035a   pea.l 0x35a(a0, d0.l)
  < 0x005122dc      603e           bra.b 0x51231c
  > 0x005122de      3f390083e3c8   move.w 0x83e3c8, -(a7)
      0x005122e4      2f2effc2       move.l -0x3e(a6), -(a7)
      0x005122e8      30390083d2e2   move.w 0x83d2e2, d0
      0x005122ee      4184           chk.w d4, d0
      0x005122f0      48c0           ext.l d0
      0x005122f2      e980           asl.l 0x4, d0
      0x005122f4      487009200352   pea.l 0x352(a0, d0.l)
      0x005122fa      4ebaf298       jsr MENU3DCOM.PAS.update_value(pc)
      0x005122fe      dec2           adda.w d2, a7
  > 0x00512300      3f390083e3ca   move.w 0x83e3ca, -(a7)
       0x00512306      2f2effc6       move.l -0x3a(a6), -(a7)
       0x0051230a      30390083d2e2   move.w 0x83d2e2, d0
       0x00512310      4184           chk.w d4, d0
       0x00512312      48c0           ext.l d0
       0x00512314      e980           asl.l 0x4, d0
       0x00512316      487009200356   pea.l 0x356(a0, d0.l)
  > 0x0051231c      4ebaf276       jsr MENU3DCOM.PAS.update_value(pc)
        0x00512320      dec2           adda.w d2, a7
    < 0x00512322      60000174       bra.w 0x512498
       0x00512326      554f           subq.w 0x2, a7
       0x00512328      3f390083e3d0   move.w 0x83e3d0, -(a7)
       0x0051232e      4e93           jsr (a3)                    ; fcn.0000000c
       0x00512330      544f           addq.w 0x2, a7
       0x00512332      4a1f           tst.b (a7)+
   < 0x00512334      6710           beq.b 0x512346
      0x00512336      3f390083e3d0   move.w 0x83e3d0, -(a7)
      0x0051233c      2f2effca       move.l -0x36(a6), -(a7)
      0x00512340      4868034e       pea.l 0x34e(a0)
  < 0x00512344      607e           bra.b 0x5123c4
  > 0x00512346      554f           subq.w 0x2, a7
      0x00512348      3f390083e3d2   move.w 0x83e3d2, -(a7)
      0x0051234e      4e93           jsr (a3)                    ; fcn.0000000c
      0x00512350      544f           addq.w 0x2, a7
      0x00512352      4a1f           tst.b (a7)+
  < 0x00512354      670c           beq.b 0x512362
     0x00512356      3f390083e3d2   move.w 0x83e3d2, -(a7)
     0x0051235c      2f2effca       move.l -0x36(a6), -(a7)
  < 0x00512360      605e           bra.b 0x5123c0
  > 0x00512362      554f           subq.w 0x2, a7
      0x00512364      3f390083e3d4   move.w 0x83e3d4, -(a7)
      0x0051236a      4e93           jsr (a3)                    ; fcn.0000000c
      0x0051236c      544f           addq.w 0x2, a7
      0x0051236e      4a1f           tst.b (a7)+
  < 0x00512370      6710           beq.b 0x512382
     0x00512372      3f390083e3d4   move.w 0x83e3d4, -(a7)
     0x00512378      2f2effca       move.l -0x36(a6), -(a7)
     0x0051237c      48680356       pea.l 0x356(a0)
  < 0x00512380      6042           bra.b 0x5123c4
  > 0x00512382      554f           subq.w 0x2, a7
      0x00512384      3f390083e3d6   move.w 0x83e3d6, -(a7)
      0x0051238a      4e93           jsr (a3)                    ; fcn.0000000c
      0x0051238c      544f           addq.w 0x2, a7
      0x0051238e      4a1f           tst.b (a7)+
  < 0x00512390      6710           beq.b 0x5123a2
     0x00512392      3f390083e3d6   move.w 0x83e3d6, -(a7)
     0x00512398      2f2effca       move.l -0x36(a6), -(a7)
     0x0051239c      4868035a       pea.l 0x35a(a0)
  < 0x005123a0      6022           bra.b 0x5123c4
  > 0x005123a2      3f390083e3d0   move.w 0x83e3d0, -(a7)
      0x005123a8      2f2effc2       move.l -0x3e(a6), -(a7)
      0x005123ac      4868034e       pea.l 0x34e(a0)
      0x005123b0      4ebaf1e2       jsr MENU3DCOM.PAS.update_value(pc)
      0x005123b4      504f           addq.w 0x8, a7
      0x005123b6      3eb90083e3d2   move.w 0x83e3d2, (a7)
      0x005123bc      2f2effc6       move.l -0x3a(a6), -(a7)
  > 0x005123c0      48680352       pea.l 0x352(a0)
  > 0x005123c4      4ebaf1ce       jsr MENU3DCOM.PAS.update_value(pc)
       0x005123c8      dec2           adda.w d2, a7
   < 0x005123ca      600000cc       bra.w 0x512498
      0x005123ce      554f           subq.w 0x2, a7
      0x005123d0      3f390083e3dc   move.w 0x83e3dc, -(a7)
      0x005123d6      4e93           jsr (a3)                    ; fcn.0000000c
      0x005123d8      544f           addq.w 0x2, a7
      0x005123da      4a1f           tst.b (a7)+
  < 0x005123dc      6710           beq.b 0x5123ee
     0x005123de      3f390083e3dc   move.w 0x83e3dc, -(a7)
     0x005123e4      2f2effca       move.l -0x36(a6), -(a7)
     0x005123e8      48680352       pea.l 0x352(a0)
  < 0x005123ec      602e           bra.b 0x51241c
  > 0x005123ee      554f           subq.w 0x2, a7
      0x005123f0      3f390083e3de   move.w 0x83e3de, -(a7)
      0x005123f6      4e93           jsr (a3)                    ; fcn.0000000c
      0x005123f8      544f           addq.w 0x2, a7
      0x005123fa      4a1f           tst.b (a7)+
  < 0x005123fc      6710           beq.b 0x51240e
     0x005123fe      3f390083e3de   move.w 0x83e3de, -(a7)
     0x00512404      2f2effca       move.l -0x36(a6), -(a7)
     0x00512408      48680356       pea.l 0x356(a0)
  < 0x0051240c      600e           bra.b 0x51241c
  > 0x0051240e      3f390083e3da   move.w 0x83e3da, -(a7)
      0x00512414      2f2effca       move.l -0x36(a6), -(a7)
      0x00512418      4868034e       pea.l 0x34e(a0)
  > 0x0051241c      4ebaf176       jsr MENU3DCOM.PAS.update_value(pc)
      0x00512420      dec2           adda.w d2, a7
  < 0x00512422      6074           bra.b 0x512498
     0x00512424      554f           subq.w 0x2, a7
     0x00512426      3f390083e3e2   move.w 0x83e3e2, -(a7)
     0x0051242c      4e93           jsr (a3)                    ; fcn.0000000c
     0x0051242e      544f           addq.w 0x2, a7
     0x00512430      4a1f           tst.b (a7)+
  < 0x00512432      6710           beq.b 0x512444
     0x00512434      3f390083e3e2   move.w 0x83e3e2, -(a7)
     0x0051243a      2f2effca       move.l -0x36(a6), -(a7)
     0x0051243e      4868034e       pea.l 0x34e(a0)
  < 0x00512442      604e           bra.b 0x512492
  > 0x00512444      554f           subq.w 0x2, a7
     0x00512446      3f390083e3e6   move.w 0x83e3e6, -(a7)
     0x0051244c      4e93           jsr (a3)                    ; fcn.0000000c
     0x0051244e      544f           addq.w 0x2, a7
     0x00512450      4a1f           tst.b (a7)+
  < 0x00512452      6710           beq.b 0x512464
     0x00512454      3f390083e3e6   move.w 0x83e3e6, -(a7)
     0x0051245a      2f2effca       move.l -0x36(a6), -(a7)
     0x0051245e      48680356       pea.l 0x356(a0)
  < 0x00512462      602e           bra.b 0x512492
  > 0x00512464      554f           subq.w 0x2, a7
     0x00512466      3f390083e3e8   move.w 0x83e3e8, -(a7)
     0x0051246c      4e93           jsr (a3)                    ; fcn.0000000c
     0x0051246e      544f           addq.w 0x2, a7
     0x00512470      4a1f           tst.b (a7)+
  < 0x00512472      6710           beq.b 0x512484
     0x00512474      3f390083e3e8   move.w 0x83e3e8, -(a7)
     0x0051247a      2f2effca       move.l -0x36(a6), -(a7)
     0x0051247e      4868035a       pea.l 0x35a(a0)
  < 0x00512482      600e           bra.b 0x512492
  > 0x00512484      3f390083e3e4   move.w 0x83e3e4, -(a7)
     0x0051248a      2f2effca       move.l -0x36(a6), -(a7)
     0x0051248e      48680352       pea.l 0x352(a0)
  > 0x00512492      4ebaf100       jsr MENU3DCOM.PAS.update_value(pc)
     0x00512496      dec2           adda.w d2, a7
  > 0x00512498      60000238       bra.w 0x5126d2
        0x0051249c      554f           subq.w 0x2, a7
        0x0051249e      3f390083e3a2   move.w 0x83e3a2, -(a7)
        0x005124a4      4e93           jsr (a3)                    ; fcn.0000000c
        0x005124a6      544f           addq.w 0x2, a7
        0x005124a8      4a1f           tst.b (a7)+
    < 0x005124aa      671c           beq.b 0x5124c8
       0x005124ac      3f390083e3a2   move.w 0x83e3a2, -(a7)
       0x005124b2      f2034000       fmove.l d3, fp0
       0x005124b6      f22e4423ffca   fmul.s -0x36(a6), fp0
       0x005124bc      f2276400       fmove.s fp0, -(a7)
       0x005124c0      4868062c       pea.l 0x62c(a0)
   < 0x005124c4      6000016a       bra.w 0x512630
   > 0x005124c8      554f           subq.w 0x2, a7
       0x005124ca      3f390083e3a4   move.w 0x83e3a4, -(a7)
       0x005124d0      4e93           jsr (a3)                    ; fcn.0000000c
       0x005124d2      544f           addq.w 0x2, a7
       0x005124d4      4a1f           tst.b (a7)+
   < 0x005124d6      6720           beq.b 0x5124f8
      0x005124d8      3f390083e3a4   move.w 0x83e3a4, -(a7)
      0x005124de      f2034000       fmove.l d3, fp0
      0x005124e2      f22e4423ffca   fmul.s -0x36(a6), fp0
      0x005124e8      f200001a       fneg fp0
      0x005124ec      f2276400       fmove.s fp0, -(a7)
      0x005124f0      48680630       pea.l 0x630(a0)
  < 0x005124f4      6000013a       bra.w 0x512630
  > 0x005124f8      554f           subq.w 0x2, a7
      0x005124fa      3f390083e39e   move.w 0x83e39e, -(a7)
      0x00512500      4e93           jsr (a3)                    ; fcn.0000000c
      0x00512502      544f           addq.w 0x2, a7
      0x00512504      4a1f           tst.b (a7)+
  < 0x00512506      6720           beq.b 0x512528
     0x00512508      3f390083e39e   move.w 0x83e39e, -(a7)
     0x0051250e      f2034000       fmove.l d3, fp0
     0x00512512      f22e4423ffca   fmul.s -0x36(a6), fp0
     0x00512518      f200001a       fneg fp0
     0x0051251c      f2276400       fmove.s fp0, -(a7)
     0x00512520      48680624       pea.l 0x624(a0)
  < 0x00512524      6000010a       bra.w 0x512630
  > 0x00512528      554f           subq.w 0x2, a7
      0x0051252a      3f390083e3a0   move.w 0x83e3a0, -(a7)
      0x00512530      4e93           jsr (a3)                    ; fcn.0000000c
      0x00512532      544f           addq.w 0x2, a7
      0x00512534      4a1f           tst.b (a7)+
  < 0x00512536      671c           beq.b 0x512554
     0x00512538      3f390083e3a0   move.w 0x83e3a0, -(a7)
     0x0051253e      f2034000       fmove.l d3, fp0
     0x00512542      f22e4423ffca   fmul.s -0x36(a6), fp0
  > 0x00512548      f2276400       fmove.s fp0, -(a7)
     0x0051254c      48680628       pea.l 0x628(a0)
  < 0x00512550      600000de       bra.w 0x512630
  > 0x00512554      554f           subq.w 0x2, a7
      0x00512556      3f390083e3a6   move.w 0x83e3a6, -(a7)
      0x0051255c      4e93           jsr (a3)                    ; fcn.0000000c
      0x0051255e      544f           addq.w 0x2, a7
      0x00512560      4a1f           tst.b (a7)+
  < 0x00512562      6704           beq.b 0x512568
  < 0x00512564      600000b2       bra.w 0x512618
  > 0x00512568      554f           subq.w 0x2, a7
      0x0051256a      3f390083e3a8   move.w 0x83e3a8, -(a7)
      0x00512570      4e93           jsr (a3)                    ; fcn.0000000c
      0x00512572      544f           addq.w 0x2, a7
      0x00512574      4a1f           tst.b (a7)+
  < 0x00512576      671c           beq.b 0x512594
  > 0x00512578      3f390083e3a8   move.w 0x83e3a8, -(a7)
     0x0051257e      f2024000       fmove.l d2, fp0
     0x00512582      f22e4423ffca   fmul.s -0x36(a6), fp0
     0x00512588      f2276400       fmove.s fp0, -(a7)
     0x0051258c      48680638       pea.l 0x638(a0)
  < 0x00512590      6000009e       bra.w 0x512630
  > 0x00512594      554f           subq.w 0x2, a7
      0x00512596      3f390083e398   move.w 0x83e398, -(a7)
      0x0051259c      4e93           jsr (a3)                    ; fcn.0000000c
      0x0051259e      544f           addq.w 0x2, a7
      0x005125a0      4a1f           tst.b (a7)+
  < 0x005125a2      6750           beq.b 0x5125f4
     0x005125a4      f2034000       fmove.l d3, fp0
     0x005125a8      f22e4423ffca   fmul.s -0x36(a6), fp0
     0x005125ae      3f390083e3a2   move.w 0x83e3a2, -(a7)
     0x005125b4      f2276400       fmove.s fp0, -(a7)
     0x005125b8      4868062c       pea.l 0x62c(a0)
     0x005125bc      4ebaefd6       jsr MENU3DCOM.PAS.update_value(pc)
     0x005125c0      504f           addq.w 0x8, a7
     0x005125c2      3eb90083e3a4   move.w 0x83e3a4, (a7)
     0x005125c8      f2276400       fmove.s fp0, -(a7)
     0x005125cc      48680630       pea.l 0x630(a0)
     0x005125d0      4ebaefc2       jsr MENU3DCOM.PAS.update_value(pc)
     0x005125d4      504f           addq.w 0x8, a7
     0x005125d6      3eb90083e39e   move.w 0x83e39e, (a7)
     0x005125dc      f2276400       fmove.s fp0, -(a7)
     0x005125e0      48680624       pea.l 0x624(a0)
     0x005125e4      4ebaefae       jsr MENU3DCOM.PAS.update_value(pc)
     0x005125e8      504f           addq.w 0x8, a7
     0x005125ea      3eb90083e3a0   move.w 0x83e3a0, (a7)
  < 0x005125f0      6000ff56       bra.w 0x512548
  > 0x005125f4      554f           subq.w 0x2, a7
      0x005125f6      3f390083e39c   move.w 0x83e39c, -(a7)
      0x005125fc      4e93           jsr (a3)                    ; fcn.0000000c
      0x005125fe      544f           addq.w 0x2, a7
      0x00512600      4a1f           tst.b (a7)+
  < 0x00512602      6704           beq.b 0x512608
  < 0x00512604      6000ff72       bra.w 0x512578
  > 0x00512608      554f           subq.w 0x2, a7
      0x0051260a      3f390083e39a   move.w 0x83e39a, -(a7)
      0x00512610      4e93           jsr (a3)                    ; fcn.0000000c
      0x00512612      544f           addq.w 0x2, a7
      0x00512614      4a1f           tst.b (a7)+
  < 0x00512616      671e           beq.b 0x512636
  > 0x00512618      3f390083e3a6   move.w 0x83e3a6, -(a7)
     0x0051261e      f2024000       fmove.l d2, fp0
     0x00512622      f22e4423ffca   fmul.s -0x36(a6), fp0
     0x00512628      f2276400       fmove.s fp0, -(a7)
     0x0051262c      48680634       pea.l 0x634(a0)
  > 0x00512630      4ebaef62       jsr MENU3DCOM.PAS.update_value(pc)
       0x00512634      dec2           adda.w d2, a7
   > 0x00512636      6000009a       bra.w 0x5126d2
       0x0051263a      554f           subq.w 0x2, a7
       0x0051263c      3f390083e3b0   move.w 0x83e3b0, -(a7)
       0x00512642      4e93           jsr (a3)                    ; fcn.0000000c
       0x00512644      544f           addq.w 0x2, a7
       0x00512646      4a1f           tst.b (a7)+
   < 0x00512648      6708           beq.b 0x512652
      0x0051264a      3f390083e3b0   move.w 0x83e3b0, -(a7)
  < 0x00512650      605e           bra.b 0x5126b0
  > 0x00512652      554f           subq.w 0x2, a7
      0x00512654      3f390083e3b6   move.w 0x83e3b6, -(a7)
      0x0051265a      4e93           jsr (a3)                    ; fcn.0000000c
      0x0051265c      544f           addq.w 0x2, a7
      0x0051265e      4a1f           tst.b (a7)+
  < 0x00512660      6708           beq.b 0x51266a
     0x00512662      3f390083e3b6   move.w 0x83e3b6, -(a7)
  < 0x00512668      6046           bra.b 0x5126b0
  > 0x0051266a      554f           subq.w 0x2, a7
      0x0051266c      3f390083e3bc   move.w 0x83e3bc, -(a7)
      0x00512672      4e93           jsr (a3)                    ; fcn.0000000c
      0x00512674      544f           addq.w 0x2, a7
      0x00512676      4a1f           tst.b (a7)+
  < 0x00512678      6708           beq.b 0x512682
     0x0051267a      3f390083e3bc   move.w 0x83e3bc, -(a7)
  < 0x00512680      602e           bra.b 0x5126b0
  > 0x00512682      554f           subq.w 0x2, a7
      0x00512684      3f390083e3b8   move.w 0x83e3b8, -(a7)
      0x0051268a      4e93           jsr (a3)                    ; fcn.0000000c
      0x0051268c      544f           addq.w 0x2, a7
      0x0051268e      4a1f           tst.b (a7)+
  < 0x00512690      6708           beq.b 0x51269a
     0x00512692      3f390083e3b8   move.w 0x83e3b8, -(a7)
  < 0x00512698      6016           bra.b 0x5126b0
  > 0x0051269a      554f           subq.w 0x2, a7
      0x0051269c      3f390083e3be   move.w 0x83e3be, -(a7)
      0x005126a2      4e93           jsr (a3)                    ; fcn.0000000c
      0x005126a4      544f           addq.w 0x2, a7
      0x005126a6      4a1f           tst.b (a7)+
  < 0x005126a8      671e           beq.b 0x5126c8
     0x005126aa      3f390083e3be   move.w 0x83e3be, -(a7)
  > 0x005126b0      f2054000       fmove.l d5, fp0
      0x005126b4      f22e4423ffca   fmul.s -0x36(a6), fp0
      0x005126ba      f2276400       fmove.s fp0, -(a7)
      0x005126be      486efffc       pea.l -0x4(a6)
      0x005126c2      4ebaeed0       jsr MENU3DCOM.PAS.update_value(pc)
      0x005126c6      dec2           adda.w d2, a7
   > 0x005126c8      4ebab852       jsr MENU3DCOM.PAS.update_lighting(pc)
       0x005126cc      4eb90075cd12   jsr MENUKEYFRMCOM.tryit_trash
  > 0x005126d2      2f2e0008       move.l 0x8(a6), -(a7)
            0x005126d6      4eb90066ff74   jsr PASTECOM.calc_transforms
            0x005126dc      584f           addq.w 0x4, a7
            0x005126de      f21fd080       fmovem (a7)+, fp0
            0x005126e2      4cdf1fff       movem.l (a7)+, d0-d7/a0-a4
            0x005126e6      4e5e           unlk a6
            0x005126e8      4e75           rts
 142: MENU3DCOM.PAS.check_enable_li ();
           0x005126ea      4e56ffd4       link.w a6, 0xffd4
           0x005126ee      bfd5           cmpa.l (a5), a7
       < 0x005126f0      6206           bhi.b 0x5126f8
          0x005126f2      44fc0002       move.w 0x2, ccr
          0x005126f6      4e76           trapv
       > 0x005126f8      defc002a       adda.w 0x2a, a7
           0x005126fc      48e7c100       movem.l d0-d1/d7, -(a7)
           0x00512700      7205           moveq 0x5, d1
           0x00512702      554f           subq.w 0x2, a7
           0x00512704      3f3c007e       move.w 0x7e, -(a7)
           0x00512708      4eb900480fc2   jsr MENUCOM.get_boxon
           0x0051270e      544f           addq.w 0x2, a7
           0x00512710      4a1f           tst.b (a7)+
       < 0x00512712      6778           beq.b 0x51278c
          0x00512714      554f           subq.w 0x2, a7
          0x00512716      4eb900520700   jsr BRUSHCOM.br_live_enabled
          0x0051271c      4a1f           tst.b (a7)+
      < 0x0051271e      666c           bne.b 0x51278c
         0x00512720      554f           subq.w 0x2, a7
         0x00512722      4eb9004755c2   jsr CONFIG.cfg_gender
         0x00512728      101f           move.b (a7)+, d0
         0x0051272a      0c000003       cmpi.b 0x3, d0
     < 0x0051272e      660a           bne.b 0x51273a
        0x00512730      554f           subq.w 0x2, a7
        0x00512732      4eb9007a46f4   jsr PICBOX_DUMMY.vls_input
    < 0x00512738      6008           bra.b 0x512742
    > 0x0051273a      554f           subq.w 0x2, a7
        0x0051273c      4eb9004db7d8   jsr MENUFULLCOM.vpb_input
    > 0x00512742      101f           move.b (a7)+, d0
         0x00512744      4880           ext.w d0
         0x00512746      4181           chk.w d1, d0
         0x00512748      1e00           move.b d0, d7
         0x0051274a      4887           ext.w d7
         0x0051274c      4f81           chk.w d1, d7
         0x0051274e      554f           subq.w 0x2, a7
         0x00512750      1f07           move.b d7, -(a7)
         0x00512752      1f07           move.b d7, -(a7)
         0x00512754      1f3c0002       move.b 0x2, -(a7)
         0x00512758      4227           clr.b -(a7)
         0x0051275a      4227           clr.b -(a7)
         0x0051275c      514f           subq.w 0x8, a7
         0x0051275e      4227           clr.b -(a7)
         0x00512760      4eb9006336ea   jsr HANDCOM.get_area
         0x00512766      554f           subq.w 0x2, a7
         0x00512768      3f3c00cb       move.w 0xcb, -(a7)
         0x0051276c      4eb900480fc2   jsr MENUCOM.get_boxon
         0x00512772      544f           addq.w 0x2, a7
         0x00512774      101f           move.b (a7)+, d0
         0x00512776      49c0           extb.l d0
          0x00512778      5280           addq.l 0x1, d0
          0x0051277a      3e80           move.w d0, (a7)
          0x0051277c      48780000       pea.l 0x0
          0x00512780      4eb900520eb6   jsr BRUSHCOM.br_live
          0x00512786      defc0018       adda.w 0x18, a7
          0x0051278a      4a1f           tst.b (a7)+
       > 0x0051278c      4cdf0083       movem.l (a7)+, d0-d1/d7
            0x00512790      4e5e           unlk a6
            0x00512792      4e75           rts
 342: MENU3DCOM.PAS.before_sell ();
           0x00512794      4e56ffd0       link.w a6, 0xffd0
           0x00512798      bfd5           cmpa.l (a5), a7
       < 0x0051279a      6206           bhi.b 0x5127a2
          0x0051279c      44fc0002       move.w 0x2, ccr
          0x005127a0      4e76           trapv
       > 0x005127a2      defc0030       adda.w 0x30, a7
           0x005127a6      48e7f8e0       movem.l d0-d4/a0-a2, -(a7)
           0x005127aa      43f90083d30c   lea.l 0x83d30c, a1
           0x005127b0      45ec000c       lea.l 0xc(a4), a2
           0x005127b4      7403           moveq 0x3, d2
           0x005127b6      7604           moveq 0x4, d3
           0x005127b8      7801           moveq 0x1, d4
           0x005127ba      4eb9004558e4   jsr CURSORCOM.cursor_off
           0x005127c0      4eb9004558c8   jsr CURSORCOM.grid_off
           0x005127c6      4227           clr.b -(a7)
           0x005127c8      4eb90047bc6c   jsr CNTLCOM.show_menu
           0x005127ce      4217           clr.b (a7)
           0x005127d0      4eb9004aba70   jsr MENUZOOMCOM.show_zoom
           0x005127d6      544f           addq.w 0x2, a7
           0x005127d8      1011           move.b (a1), d0
           0x005127da      4880           ext.w d0
           0x005127dc      41f900509fb8   lea.l 0x509fb8, a0
           0x005127e2      3200           move.w d0, d1
           0x005127e4      e649           lsr.w 0x3, d1
           0x005127e6      01301000       btst.l d0, (a0, d1.w)
       < 0x005127ea      6726           beq.b 0x512812
          0x005127ec      554f           subq.w 0x2, a7
          0x005127ee      4eb90050a464   jsr MENU3DCOM.PAS.graphics
          0x005127f4      4a1f           tst.b (a7)+
      < 0x005127f6      6710           beq.b 0x512808
         0x005127f8      1f3c0007       move.b 0x7, -(a7)
         0x005127fc      2f12           move.l (a2), -(a7)
         0x005127fe      4eb9006770b0   jsr PASTECOM.update_layer
         0x00512804      5c4f           addq.w 0x6, a7
     < 0x00512806      6008           bra.b 0x512810
     > 0x00512808      2f12           move.l (a2), -(a7)
         0x0051280a      4ebab28a       jsr MENU3DCOM.PAS.update_final(pc)
         0x0051280e      584f           addq.w 0x4, a7
     > 0x00512810      4211           clr.b (a1)
       > 0x00512812      1f3c000a       move.b 0xa, -(a7)
           0x00512816      48780001       pea.l 0x1
           0x0051281a      4eb9006770b0   jsr PASTECOM.update_layer
           0x00512820      5c4f           addq.w 0x6, a7
           0x00512822      4eb900523cda   jsr BRUSHCOM.open_block
           0x00512828      1f02           move.b d2, -(a7)
           0x0051282a      514f           subq.w 0x8, a7
           0x0051282c      1f03           move.b d3, -(a7)
           0x0051282e      4eb9006336ea   jsr HANDCOM.get_area
           0x00512834      544f           addq.w 0x2, a7
           0x00512836      4eb900518a2a   jsr OUTCOM.set_video_crops
           0x0051283c      504f           addq.w 0x8, a7
           0x0051283e      1e82           move.b d2, (a7)
           0x00512840      594f           subq.w 0x4, a7
           0x00512842      1f03           move.b d3, -(a7)
           0x00512844      4eb9006338f6   jsr HANDCOM.get_point
           0x0051284a      544f           addq.w 0x2, a7
           0x0051284c      4eb90051872e   jsr OUTCOM.set_scroll
           0x00512852      5c4f           addq.w 0x6, a7
           0x00512854      2052           movea.l (a2), a0
           0x00512856      b1e8fffc       cmpa.l -0x4(a0), a0
       < 0x0051285a      6702           beq.b 0x51285e
          0x0051285c      4e4d           trap 0xd
       > 0x0051285e      4227           clr.b -(a7)
           0x00512860      10390083d1ce   move.b 0x83d1ce, d0
           0x00512866      4400           neg.b d0
           0x00512868      5200           addq.b 0x1, d0
       < 0x0051286a      6716           beq.b 0x512882
          0x0051286c      4a2802db       tst.b 0x2db(a0)
      < 0x00512870      6610           bne.b 0x512882
         0x00512872      4a2802da       tst.b 0x2da(a0)
     < 0x00512876      6608           bne.b 0x512880
        0x00512878      102802d9       move.b 0x2d9(a0), d0
        0x0051287c      b004           cmp.b d4, d0
    < 0x0051287e      6602           bne.b 0x512882
    > 0x00512880      5217           addq.b 0x1, (a7)
    > 0x00512882      4227           clr.b -(a7)
           0x00512884      554f           subq.w 0x2, a7
           0x00512886      4eb90066f8d8   jsr PASTECOM.fake_layer
           0x0051288c      1017           move.b (a7), d0
           0x0051288e      4880           ext.w d0
           0x00512890      4184           chk.w d4, d0
           0x00512892      1e80           move.b d0, (a7)
           0x00512894      3f2802e8       move.w 0x2e8(a0), -(a7)
           0x00512898      4eb9004b22e2   jsr MENUPASTECOM.paste_set_out
           0x0051289e      504f           addq.w 0x8, a7
           0x005128a0      4eb900523cf0   jsr BRUSHCOM.close_block
           0x005128a6      4eb900518f36   jsr OUTCOM.save_out
           0x005128ac      554f           subq.w 0x2, a7
           0x005128ae      3f3c001f       move.w 0x1f, -(a7)
           0x005128b2      4eb900480fc2   jsr MENUCOM.get_boxon
           0x005128b8      544f           addq.w 0x2, a7
           0x005128ba      4a1f           tst.b (a7)+
       < 0x005128bc      6724           beq.b 0x5128e2
          0x005128be      554f           subq.w 0x2, a7
          0x005128c0      3f3c0027       move.w 0x27, -(a7)
          0x005128c4      4eb900480fc2   jsr MENUCOM.get_boxon
          0x005128ca      544f           addq.w 0x2, a7
          0x005128cc      4a1f           tst.b (a7)+
      < 0x005128ce      6706           beq.b 0x5128d6
         0x005128d0      1f3c000f       move.b 0xf, -(a7)
     < 0x005128d4      6004           bra.b 0x5128da
     > 0x005128d6      1f3c0012       move.b 0x12, -(a7)
     > 0x005128da      4eb900518dd8   jsr OUTCOM.set_out
          0x005128e0      544f           addq.w 0x2, a7
       > 0x005128e2      4cdf071f       movem.l (a7)+, d0-d4/a0-a2
           0x005128e6      4e5e           unlk a6
           0x005128e8      4e75           rts
 62: MENU3DCOM.PAS.after_sell ();
           0x005128ea      4e56fff6       link.w a6, 0xfff6
           0x005128ee      bfd5           cmpa.l (a5), a7
       < 0x005128f0      6206           bhi.b 0x5128f8
          0x005128f2      44fc0002       move.w 0x2, ccr
          0x005128f6      4e76           trapv
       > 0x005128f8      defc000a       adda.w 0xa, a7
           0x005128fc      48e78000       movem.l d0, -(a7)
           0x00512900      7001           moveq 0x1, d0
           0x00512902      4eb900518f56   jsr OUTCOM.restore_out
           0x00512908      1f00           move.b d0, -(a7)
           0x0051290a      4eb90047bc6c   jsr CNTLCOM.show_menu
           0x00512910      1e80           move.b d0, (a7)
           0x00512912      4eb9004aba70   jsr MENUZOOMCOM.show_zoom
           0x00512918      544f           addq.w 0x2, a7
           0x0051291a      4eb9004ff1b6   jsr MENUGRIDCOM.redraw_grid_ove
           0x00512920      4cdf0001       movem.l (a7)+, d0
           0x00512924      4e5e           unlk a6
           0x00512926      4e75           rts
 132: MENU3DCOM.PAS.after_buy ();
           0x00512928      4e56ffe6       link.w a6, 0xffe6
           0x0051292c      bfd5           cmpa.l (a5), a7
       < 0x0051292e      6206           bhi.b 0x512936
          0x00512930      44fc0002       move.w 0x2, ccr
          0x00512934      4e76           trapv
       > 0x00512936      defc001a       adda.w 0x1a, a7
           0x0051293a      48e7e080       movem.l d0-d2/a0, -(a7)
           0x0051293e      7401           moveq 0x1, d2
           0x00512940      554f           subq.w 0x2, a7
           0x00512942      3f390083e38a   move.w 0x83e38a, -(a7)
           0x00512948      4eb900480fc2   jsr MENUCOM.get_boxon
           0x0051294e      544f           addq.w 0x2, a7
           0x00512950      4a1f           tst.b (a7)+
       < 0x00512952      6614           bne.b 0x512968
          0x00512954      554f           subq.w 0x2, a7
          0x00512956      3f390083e37a   move.w 0x83e37a, -(a7)
          0x0051295c      4eb900480fc2   jsr MENUCOM.get_boxon
          0x00512962      544f           addq.w 0x2, a7
          0x00512964      4a1f           tst.b (a7)+
      < 0x00512966      6718           beq.b 0x512980
      > 0x00512968      10390083d30c   move.b 0x83d30c, d0
          0x0051296e      4880           ext.w d0
          0x00512970      41f900509fba   lea.l 0x509fba, a0
          0x00512976      3200           move.w d0, d1
          0x00512978      e649           lsr.w 0x3, d1
          0x0051297a      01301000       btst.l d0, (a0, d1.w)
      < 0x0051297e      670a           beq.b 0x51298a
      > 0x00512980      4227           clr.b -(a7)
          0x00512982      4eb900529b98   jsr BRUSH2COM.br_size_done
          0x00512988      544f           addq.w 0x2, a7
       > 0x0051298a      1f3c0002       move.b 0x2, -(a7)
           0x0051298e      2f2c000c       move.l 0xc(a4), -(a7)
           0x00512992      4eb9006770b0   jsr PASTECOM.update_layer
           0x00512998      584f           addq.w 0x4, a7
           0x0051299a      1e82           move.b d2, (a7)
           0x0051299c      1f02           move.b d2, -(a7)
           0x0051299e      4eba9156       jsr MENU3DCOM.PAS.do_3d_cutout_cu(pc)
           0x005129a2      584f           addq.w 0x4, a7
           0x005129a4      4cdf0107       movem.l (a7)+, d0-d2/a0
           0x005129a8      4e5e           unlk a6
           0x005129aa      4e75           rts
 184: MENU3DCOM.PAS.used (int32_t arg_8h);
           ; arg int32_t arg_8h @ a6+0x8
           0x005129ac      4e56ffe6       link.w a6, 0xffe6
           0x005129b0      bfd5           cmpa.l (a5), a7
       < 0x005129b2      6206           bhi.b 0x5129ba
          0x005129b4      44fc0002       move.w 0x2, ccr
          0x005129b8      4e76           trapv
       > 0x005129ba      defc001a       adda.w 0x1a, a7
           0x005129be      48e780e0       movem.l d0/a0-a2, -(a7)
           0x005129c2      43ec003a       lea.l 0x3a(a4), a1
           0x005129c6      45ec0038       lea.l 0x38(a4), a2
           0x005129ca      701c           moveq 0x1c, d0
           0x005129cc      1d6e0008000a   move.b 0x8(a6), 0xa(a6)
           0x005129d2      4a2e0008       tst.b 0x8(a6)
       < 0x005129d6      67000084       beq.w 0x512a5c
          0x005129da      554f           subq.w 0x2, a7
          0x005129dc      3f3c00a6       move.w 0xa6, -(a7)
          0x005129e0      4eb900480fc2   jsr MENUCOM.get_boxon
          0x005129e6      544f           addq.w 0x2, a7
          0x005129e8      4a1f           tst.b (a7)+
      < 0x005129ea      670e           beq.b 0x5129fa
         0x005129ec      3f11           move.w (a1), -(a7)
         0x005129ee      3f12           move.w (a2), -(a7)
         0x005129f0      4eb900760b42   jsr MENUKEYFRMCOM.hit_frame_info
     > 0x005129f6      584f           addq.w 0x4, a7
    < 0x005129f8      6062           bra.b 0x512a5c
    > 0x005129fa      554f           subq.w 0x2, a7
        0x005129fc      3f3c00a7       move.w 0xa7, -(a7)
        0x00512a00      4eb900480fc2   jsr MENUCOM.get_boxon
        0x00512a06      544f           addq.w 0x2, a7
        0x00512a08      4a1f           tst.b (a7)+
    < 0x00512a0a      670c           beq.b 0x512a18
       0x00512a0c      3f11           move.w (a1), -(a7)
       0x00512a0e      3f12           move.w (a2), -(a7)
       0x00512a10      4eb900760c52   jsr MENUKEYFRMCOM.hit_total_info
    < 0x00512a16      60de           bra.b 0x5129f6
     > 0x00512a18      4a390083d2df   tst.b 0x83d2df
     < 0x00512a1e      6638           bne.b 0x512a58
        0x00512a20      20790083d2da   movea.l 0x83d2da, a0
        0x00512a26      b0fc0001       cmpa.w 0x1, a0
    < 0x00512a2a      662c           bne.b 0x512a58
       0x00512a2c      554f           subq.w 0x2, a7
       0x00512a2e      3f00           move.w d0, -(a7)
       0x00512a30      4eb900480f72   jsr MENUCOM.active_box
       0x00512a36      544f           addq.w 0x2, a7
       0x00512a38      4a1f           tst.b (a7)+
   < 0x00512a3a      671c           beq.b 0x512a58
      0x00512a3c      554f           subq.w 0x2, a7
      0x00512a3e      4eb900482154   jsr MENUCOM.get_crnt_numeri
      0x00512a44      4a5f           tst.w (a7)+
  < 0x00512a46      6610           bne.b 0x512a58
     0x00512a48      3f00           move.w d0, -(a7)
     0x00512a4a      3f11           move.w (a1), -(a7)
     0x00512a4c      3f12           move.w (a2), -(a7)
     0x00512a4e      4eb90048128c   jsr MENUCOM.box_action
     0x00512a54      5c4f           addq.w 0x6, a7
 < 0x00512a56      6004           bra.b 0x512a5c
 > 0x00512a58      422e000a       clr.b 0xa(a6)
 > 0x00512a5c      4cdf0701       movem.l (a7)+, d0/a0-a2
           0x00512a60      4e5e           unlk a6
           0x00512a62      4e75           rts
            ; CALL XREF from loc.004b407e @ 0x4b4106
 24: MENU3DCOM.PAS.hit_3d_update ();
           0x00512a64      4e56ff74       link.w a6, 0xff74
           0x00512a68      bfd5           cmpa.l (a5), a7
       < 0x00512a6a      6206           bhi.b 0x512a72
          0x00512a6c      44fc0002       move.w 0x2, ccr
          0x00512a70      4e76           trapv
       > 0x00512a72      defc005c       adda.w 0x5c, a7
           0x00512a76      48e7fff8       movem.l d0-d7/a0-a4, -(a7)
           0x00512a7a      f227e001       fmovem fp0, -(a7)
            0x00512a7e      43f90083d2da   lea.l 0x83d2da, a1
            0x00512a84      45eeffdc       lea.l -0x24(a6), a2
            0x00512a88      47eeffd0       lea.l -0x30(a6), a3
            0x00512a8c      7601           moveq 0x1, d3
            0x00512a8e      780a           moveq 0xa, d4
            0x00512a90      7a05           moveq 0x5, d5
            0x00512a92      7c10           moveq 0x10, d6
            0x00512a94      554f           subq.w 0x2, a7
            0x00512a96      4227           clr.b -(a7)
            0x00512a98      554f           subq.w 0x2, a7
            0x00512a9a      3f3c0080       move.w 0x80, -(a7)
            0x00512a9e      4eb900480fc2   jsr MENUCOM.get_boxon
            0x00512aa4      544f           addq.w 0x2, a7
            0x00512aa6      4a1f           tst.b (a7)+
        < 0x00512aa8      660c           bne.b 0x512ab6
           0x00512aaa      10390083d2e4   move.b 0x83d2e4, d0
           0x00512ab0      0c000008       cmpi.b 0x8, d0
       < 0x00512ab4      6602           bne.b 0x512ab8
       > 0x00512ab6      5217           addq.b 0x1, (a7)
       > 0x00512ab8      1017           move.b (a7), d0
            0x00512aba      4880           ext.w d0
            0x00512abc      4183           chk.w d3, d0
            0x00512abe      1e80           move.b d0, (a7)
            0x00512ac0      4853           pea.l (a3)
            0x00512ac2      486effd4       pea.l -0x2c(a6)
            0x00512ac6      486effd8       pea.l -0x28(a6)
            0x00512aca      4852           pea.l (a2)
            0x00512acc      4eb900670bb4   jsr PASTECOM.get_layer_info
            0x00512ad2      defc0012       adda.w 0x12, a7
            0x00512ad6      3d5fffe0       move.w (a7)+, -0x20(a6)
            0x00512ada      302e0008       move.w 0x8(a6), d0
            0x00512ade      5140           subq.w 0x8, d0
            0x00512ae0      0c400021       cmpi.w 0x21, d0
        < 0x00512ae4      620009cc       bhi.w 0x5134b2
           0x00512ae8      d040           add.w d0, d0
           0x00512aea      303b0006       move.w 0x512af2(pc, d0.w), d0
           0x00512aee      4efb0002       jmp 0x512af2(pc, d0.w)
           0x00512af2      02f405e0       
           0x00512af3      f405           invalid
           0x00512af5      e007           asr.b 0x8, d7
           0x00512af7      da00           add.b d0, d5
           0x00512af9      5600           addq.b 0x3, d0
           0x00512afb      4400           neg.b d0
       < 0x00512afd      6201           bhi.b 0x512b00
          0x00512aff      4802           nbcd.b d2
           0x00512b01      f405           invalid
           0x00512b03      e007           asr.b 0x8, d7
           0x00512b05      da09c001       
           0x00512b06      09c0           bset.b d4, d0
           0x00512b08      014809c0       movep.l 0x9c0(a0), d0
           0x00512b0c      09c0           bset.b d4, d0
           0x00512b0e      08ec098e       
           0x00512b0f      ec09           lsr.b 0x6, d1
           0x00512b11      8e099009       
           0x00512b12      0990           bclr.b d4, (a0)
           0x00512b14      09c0           bset.b d4, d0
           0x00512b16      09c0           bset.b d4, d0
           0x00512b18      09c0           bset.b d4, d0
           0x00512b1a      00600134       ori.w 0x134, -(a0)
           0x00512b1e      09c0           bset.b d4, d0
           0x00512b20      09c0           bset.b d4, d0
           0x00512b22      09c0           bset.b d4, d0
           0x00512b24      09c0           bset.b d4, d0
           0x00512b26      09c0           bset.b d4, d0
           0x00512b28      09c0           bset.b d4, d0
           0x00512b2a      09c0           bset.b d4, d0
           0x00512b2c      09c0           bset.b d4, d0
           0x00512b2e      024e024e       
           0x00512b2f      4e024e09       
           0x00512b30      024e09c0       
           0x00512b31      4e09c000       
           0x00512b32      09c0           bset.b d4, d0
           0x00512b34      007222834267   ori.w 0x2283, 0x67(a2, d4.w)
          0x00512b3a      3f03           move.w d3, -(a7)
          0x00512b3c      4eb900520f00   jsr BRUSHCOM.br_freeze
      > 0x00512b42      584f           addq.w 0x4, a7
     < 0x00512b44      60000996       bra.w 0x5134dc
        0x00512b48      2283           move.l d3, (a1)
        0x00512b4a      4ebafb9e       jsr MENU3DCOM.PAS.check_enable_li(pc)
    < 0x00512b4e      6000098c       bra.w 0x5134dc
    < 0x00512b52      60e4           bra.b 0x512b38
        0x00512b54      4227           clr.b -(a7)
        0x00512b56      2f12           move.l (a2), -(a7)
    > 0x00512b58      4eb9006770b0   jsr PASTECOM.update_layer
       0x00512b5e      5c4f           addq.w 0x6, a7
   < 0x00512b60      6000097a       bra.w 0x5134dc
      0x00512b64      7e00           moveq 0x0, d7
      0x00512b66      2052           movea.l (a2), a0
      0x00512b68      b1e8fffc       cmpa.l -0x4(a0), a0
  < 0x00512b6c      6702           beq.b 0x512b70
     0x00512b6e      4e4d           trap 0xd
  > 0x00512b70      554f           subq.w 0x2, a7
      0x00512b72      2f2802de       move.l 0x2de(a0), -(a7)
      0x00512b76      3f2802dc       move.w 0x2dc(a0), -(a7)
      0x00512b7a      5d4f           subq.w 0x6, a7
      0x00512b7c      4eb900636d9e   jsr PALETCOM.br_colour
      0x00512b82      4eb90063c2c0   jsr COLOURCOM.same_colour
      0x00512b88      defc000c       adda.w 0xc, a7
      0x00512b8c      101f           move.b (a7)+, d0
      0x00512b8e      4400           neg.b d0
      0x00512b90      5200           addq.b 0x1, d0
  < 0x00512b92      6718           beq.b 0x512bac
     0x00512b94      102802db       move.b 0x2db(a0), d0
     0x00512b98      b003           cmp.b d3, d0
  < 0x00512b9a      670e           beq.b 0x512baa
     0x00512b9c      4a2802da       tst.b 0x2da(a0)
  < 0x00512ba0      6608           bne.b 0x512baa
     0x00512ba2      102802d9       move.b 0x2d9(a0), d0
     0x00512ba6      b003           cmp.b d3, d0
  < 0x00512ba8      6602           bne.b 0x512bac
  > 0x00512baa      5207           addq.b 0x1, d7
  > 0x00512bac      5d4f           subq.w 0x6, a7
      0x00512bae      4eb900636d9e   jsr PALETCOM.br_colour
      0x00512bb4      215f02dc       move.l (a7)+, 0x2dc(a0)
      0x00512bb8      315f02e0       move.w (a7)+, 0x2e0(a0)
      0x00512bbc      4a07           tst.b d7
  < 0x00512bbe      6720           beq.b 0x512be0
     0x00512bc0      4eb90075cd12   jsr MENUKEYFRMCOM.tryit_trash
     0x00512bc6      4a390083d1ce   tst.b 0x83d1ce
  < 0x00512bcc      6606           bne.b 0x512bd4
     0x00512bce      4a2802db       tst.b 0x2db(a0)
  < 0x00512bd2      670c           beq.b 0x512be0
  > 0x00512bd4      1f03           move.b d3, -(a7)
     0x00512bd6      1f03           move.b d3, -(a7)
     0x00512bd8      4eb90067439c   jsr PASTECOM.update_cutout
     0x00512bde      584f           addq.w 0x4, a7
  > 0x00512be0      2283           move.l d3, (a1)
      0x00512be2      1f3c0008       move.b 0x8, -(a7)
      0x00512be6      48780001       pea.l 0x1
      0x00512bea      4eb9006770b0   jsr PASTECOM.update_layer
      0x00512bf0      544f           addq.w 0x2, a7
      0x00512bf2      3ebc001f       move.w 0x1f, (a7)
      0x00512bf6      4eb900480fc2   jsr MENUCOM.get_boxon
      0x00512bfc      544f           addq.w 0x2, a7
      0x00512bfe      1017           move.b (a7), d0
      0x00512c00      4400           neg.b d0
      0x00512c02      5200           addq.b 0x1, d0
      0x00512c04      c007           and.b d7, d0
      0x00512c06      4880           ext.w d0
      0x00512c08      4183           chk.w d3, d0
      0x00512c0a      1e80           move.b d0, (a7)
      0x00512c0c      1f03           move.b d3, -(a7)
      0x00512c0e      4eba8ee6       jsr MENU3DCOM.PAS.do_3d_cutout_cu(pc)
      0x00512c12      544f           addq.w 0x2, a7
      0x00512c14      3eb90083d312   move.w 0x83d312, (a7)
      0x00512c1a      1f03           move.b d3, -(a7)
      0x00512c1c      4eb900483776   jsr MENUCOM.swtch_box
   < 0x00512c22      6000ff1e       bra.w 0x512b42
       0x00512c26      4227           clr.b -(a7)
       0x00512c28      1f03           move.b d3, -(a7)
       0x00512c2a      4eba8eca       jsr MENU3DCOM.PAS.do_3d_cutout_cu(pc)
       0x00512c2e      544f           addq.w 0x2, a7
       0x00512c30      1e84           move.b d4, (a7)
       0x00512c32      48780001       pea.l 0x1
    < 0x00512c36      6000ff20       bra.w 0x512b58
        0x00512c3a      4227           clr.b -(a7)
        0x00512c3c      1f03           move.b d3, -(a7)
        0x00512c3e      4eba8eb6       jsr MENU3DCOM.PAS.do_3d_cutout_cu(pc)
        0x00512c42      584f           addq.w 0x4, a7
        0x00512c44      4eb90047b9c8   jsr CNTLCOM.update_cursor
        0x00512c4a      20790083d1d0   movea.l 0x83d1d0, a0
        0x00512c50      b1e8fffc       cmpa.l -0x4(a0), a0
    < 0x00512c54      6702           beq.b 0x512c58
       0x00512c56      4e4d           trap 0xd
    > 0x00512c58      4850           pea.l (a0)
        0x00512c5a      4eb9004ac46a   jsr MENUZOOMCOM.zoom_screen_pos
        0x00512c60      584f           addq.w 0x4, a7
        0x00512c62      20790083d1d0   movea.l 0x83d1d0, a0
        0x00512c68      b1e8fffc       cmpa.l -0x4(a0), a0
    < 0x00512c6c      6702           beq.b 0x512c70
       0x00512c6e      4e4d           trap 0xd
    > 0x00512c70      2f10           move.l (a0), -(a7)
        0x00512c72      284b           movea.l a3, a4
        0x00512c74      4ebae184       jsr MENU3DCOM.PAS.pick_graphics(pc)
        0x00512c78      584f           addq.w 0x4, a7
        0x00512c7a      102efff8       move.b -0x8(a6), d0
        0x00512c7e      b0390083d2df   cmp.b 0x83d2df, d0
    < 0x00512c84      660c           bne.b 0x512c92
       0x00512c86      322efffa       move.w -0x6(a6), d1
       0x00512c8a      b2790083d2e0   cmp.w 0x83d2e0, d1
   < 0x00512c90      672c           beq.b 0x512cbe
   > 0x00512c92      4267           clr.w -(a7)
       0x00512c94      3f03           move.w d3, -(a7)
       0x00512c96      4eb900520f00   jsr BRUSHCOM.br_freeze
       0x00512c9c      584f           addq.w 0x4, a7
       0x00512c9e      12390083d2df   move.b 0x83d2df, d1
       0x00512ca4      4881           ext.w d1
       0x00512ca6      4386           chk.w d6, d1
       0x00512ca8      1f01           move.b d1, -(a7)
       0x00512caa      1f00           move.b d0, -(a7)
       0x00512cac      3f390083d2e0   move.w 0x83d2e0, -(a7)
       0x00512cb2      3f2efffa       move.w -0x6(a6), -(a7)
       0x00512cb6      4eb90050abf0   jsr MENU3DCOM.PAS.change_highligh
       0x00512cbc      504f           addq.w 0x8, a7
   > 0x00512cbe      13c00083d2df   move.b d0, 0x83d2df
        0x00512cc4      33eefffa0083.  move.w -0x6(a6), 0x83d2e0.l
        0x00512ccc      554f           subq.w 0x2, a7
        0x00512cce      3f3c00a3       move.w 0xa3, -(a7)
        0x00512cd2      4eb900480fc2   jsr MENUCOM.get_boxon
        0x00512cd8      544f           addq.w 0x2, a7
        0x00512cda      4a1f           tst.b (a7)+
    < 0x00512cdc      6612           bne.b 0x512cf0
       0x00512cde      554f           subq.w 0x2, a7
       0x00512ce0      3f3c0080       move.w 0x80, -(a7)
       0x00512ce4      4eb900480fc2   jsr MENUCOM.get_boxon
       0x00512cea      544f           addq.w 0x2, a7
       0x00512cec      4a1f           tst.b (a7)+
   < 0x00512cee      6636           bne.b 0x512d26
   > 0x00512cf0      4a390083d2df   tst.b 0x83d2df
   < 0x00512cf6      6704           beq.b 0x512cfc
      0x00512cf8      2292           move.l (a2), (a1)
  < 0x00512cfa      601e           bra.b 0x512d1a
  > 0x00512cfc      554f           subq.w 0x2, a7
      0x00512cfe      20790083d1d0   movea.l 0x83d1d0, a0
      0x00512d04      b1e8fffc       cmpa.l -0x4(a0), a0
  < 0x00512d08      6702           beq.b 0x512d0c
     0x00512d0a      4e4d           trap 0xd
  > 0x00512d0c      2f10           move.l (a0), -(a7)
      0x00512d0e      4851           pea.l (a1)
      0x00512d10      4eb900676852   jsr PASTECOM.pick_layer
      0x00512d16      504f           addq.w 0x8, a7
      0x00512d18      4a1f           tst.b (a7)+
  > 0x00512d1a      1f04           move.b d4, -(a7)
       0x00512d1c      2f11           move.l (a1), -(a7)
       0x00512d1e      4eb9006770b0   jsr PASTECOM.update_layer
       0x00512d24      5c4f           addq.w 0x6, a7
   > 0x00512d26      4a390083d2df   tst.b 0x83d2df
    < 0x00512d2c      660e           bne.b 0x512d3c
       0x00512d2e      302e0008       move.w 0x8(a6), d0
       0x00512d32      0c40000e       cmpi.w 0xe, d0
   < 0x00512d36      6604           bne.b 0x512d3c
      0x00512d38      4ebaf9b0       jsr MENU3DCOM.PAS.check_enable_li(pc)
  > 0x00512d3c      6000079e       bra.w 0x5134dc
       0x00512d40      4eb900523cda   jsr BRUSHCOM.open_block
       0x00512d46      1f3c0003       move.b 0x3, -(a7)
       0x00512d4a      514f           subq.w 0x8, a7
       0x00512d4c      1f3c0004       move.b 0x4, -(a7)
       0x00512d50      4eb9006336ea   jsr HANDCOM.get_area
       0x00512d56      544f           addq.w 0x2, a7
       0x00512d58      4eb900518a2a   jsr OUTCOM.set_video_crops
       0x00512d5e      504f           addq.w 0x8, a7
       0x00512d60      1ebc0003       move.b 0x3, (a7)
       0x00512d64      594f           subq.w 0x4, a7
       0x00512d66      1f3c0004       move.b 0x4, -(a7)
       0x00512d6a      4eb9006338f6   jsr HANDCOM.get_point
       0x00512d70      544f           addq.w 0x2, a7
       0x00512d72      4eb90051872e   jsr OUTCOM.set_scroll
       0x00512d78      5c4f           addq.w 0x6, a7
       0x00512d7a      2052           movea.l (a2), a0
       0x00512d7c      b1e8fffc       cmpa.l -0x4(a0), a0
   < 0x00512d80      6702           beq.b 0x512d84
      0x00512d82      4e4d           trap 0xd
   > 0x00512d84      4227           clr.b -(a7)
       0x00512d86      10390083d1ce   move.b 0x83d1ce, d0
       0x00512d8c      4400           neg.b d0
       0x00512d8e      5200           addq.b 0x1, d0
   < 0x00512d90      6716           beq.b 0x512da8
      0x00512d92      4a2802db       tst.b 0x2db(a0)
  < 0x00512d96      6610           bne.b 0x512da8
     0x00512d98      4a2802da       tst.b 0x2da(a0)
  < 0x00512d9c      6608           bne.b 0x512da6
     0x00512d9e      102802d9       move.b 0x2d9(a0), d0
     0x00512da2      b003           cmp.b d3, d0
  < 0x00512da4      6602           bne.b 0x512da8
  > 0x00512da6      5217           addq.b 0x1, (a7)
  > 0x00512da8      4227           clr.b -(a7)
       0x00512daa      554f           subq.w 0x2, a7
       0x00512dac      4eb90066f8d8   jsr PASTECOM.fake_layer
       0x00512db2      1017           move.b (a7), d0
       0x00512db4      4880           ext.w d0
       0x00512db6      4183           chk.w d3, d0
       0x00512db8      1e80           move.b d0, (a7)
       0x00512dba      3f2802e8       move.w 0x2e8(a0), -(a7)
       0x00512dbe      4eb9004b22e2   jsr MENUPASTECOM.paste_set_out
       0x00512dc4      504f           addq.w 0x8, a7
       0x00512dc6      4eb900523cf0   jsr BRUSHCOM.close_block
       0x00512dcc      4eb9004558e4   jsr CURSORCOM.cursor_off
       0x00512dd2      1f04           move.b d4, -(a7)
       0x00512dd4      48780001       pea.l 0x1
       0x00512dd8      4eb9006770b0   jsr PASTECOM.update_layer
       0x00512dde      5c4f           addq.w 0x6, a7
       0x00512de0      2283           move.l d3, (a1)
   < 0x00512de2      600006f8       bra.w 0x5134dc
      0x00512de6      554f           subq.w 0x2, a7
      0x00512de8      4227           clr.b -(a7)
      0x00512dea      302e0008       move.w 0x8(a6), d0
      0x00512dee      0c400008       cmpi.w 0x8, d0
  < 0x00512df2      6602           bne.b 0x512df6
     0x00512df4      5217           addq.b 0x1, (a7)
  > 0x00512df6      284b           movea.l a3, a4
      0x00512df8      4ebafbb2       jsr MENU3DCOM.PAS.used(pc)
      0x00512dfc      544f           addq.w 0x2, a7
      0x00512dfe      4a1f           tst.b (a7)+
  < 0x00512e00      660002cc       bne.w 0x5130ce
     0x00512e04      4a390083d30c   tst.b 0x83d30c
  < 0x00512e0a      66000216       bne.w 0x513022
     0x00512e0e      4267           clr.w -(a7)
     0x00512e10      3f03           move.w d3, -(a7)
     0x00512e12      4eb900520f00   jsr BRUSHCOM.br_freeze
     0x00512e18      584f           addq.w 0x4, a7
     0x00512e1a      4ebaada6       jsr MENU3DCOM.PAS.save_undo(pc)
     0x00512e1e      13fc00020083.  move.b 0x2, 0x83d30c.l
     0x00512e26      554f           subq.w 0x2, a7
     0x00512e28      3f3c00a3       move.w 0xa3, -(a7)
     0x00512e2c      4eb900480fc2   jsr MENUCOM.get_boxon
     0x00512e32      544f           addq.w 0x2, a7
     0x00512e34      4a1f           tst.b (a7)+
  < 0x00512e36      6612           bne.b 0x512e4a
     0x00512e38      554f           subq.w 0x2, a7
     0x00512e3a      3f3c0077       move.w 0x77, -(a7)
     0x00512e3e      4eb900480fc2   jsr MENUCOM.get_boxon
     0x00512e44      544f           addq.w 0x2, a7
     0x00512e46      4a1f           tst.b (a7)+
  < 0x00512e48      6776           beq.b 0x512ec0
  > 0x00512e4a      554f           subq.w 0x2, a7
     0x00512e4c      3f3c00a3       move.w 0xa3, -(a7)
     0x00512e50      4eb900480fc2   jsr MENUCOM.get_boxon
     0x00512e56      544f           addq.w 0x2, a7
     0x00512e58      4a1f           tst.b (a7)+
  < 0x00512e5a      670c           beq.b 0x512e68
     0x00512e5c      3f3c00a3       move.w 0xa3, -(a7)
     0x00512e60      4eb9004836a4   jsr MENUCOM.push_box
     0x00512e66      544f           addq.w 0x2, a7
  > 0x00512e68      10390083d2df   move.b 0x83d2df, d0
     0x00512e6e      b006           cmp.b d6, d0
  < 0x00512e70      6624           bne.b 0x512e96
     0x00512e72      284b           movea.l a3, a4
     0x00512e74      4ebae180       jsr MENU3DCOM.PAS.delete_point(pc)
     0x00512e78      4eb9004558e4   jsr CURSORCOM.cursor_off
     0x00512e7e      1f03           move.b d3, -(a7)
     0x00512e80      4227           clr.b -(a7)
     0x00512e82      4eb90067439c   jsr PASTECOM.update_cutout
     0x00512e88      544f           addq.w 0x2, a7
     0x00512e8a      1e83           move.b d3, (a7)
     0x00512e8c      1f03           move.b d3, -(a7)
     0x00512e8e      4eba8c66       jsr MENU3DCOM.PAS.do_3d_cutout_cu(pc)
     0x00512e92      584f           addq.w 0x4, a7
  < 0x00512e94      6020           bra.b 0x512eb6
  > 0x00512e96      2051           movea.l (a1), a0
     0x00512e98      b0c3           cmpa.w d3, a0
  < 0x00512e9a      671a           beq.b 0x512eb6
     0x00512e9c      3f3c0077       move.w 0x77, -(a7)
     0x00512ea0      4227           clr.b -(a7)
     0x00512ea2      4eb900483776   jsr MENUCOM.swtch_box
     0x00512ea8      544f           addq.w 0x2, a7
     0x00512eaa      4217           clr.b (a7)
     0x00512eac      4851           pea.l (a1)
     0x00512eae      4eb9006769a8   jsr PASTECOM.del_layer
     0x00512eb4      5c4f           addq.w 0x6, a7
  > 0x00512eb6      13c30083d30c   move.b d3, 0x83d30c
  < 0x00512ebc      60000210       bra.w 0x5130ce
  > 0x00512ec0      554f           subq.w 0x2, a7
     0x00512ec2      3f390083e402   move.w 0x83e402, -(a7)
     0x00512ec8      4eb900480fc2   jsr MENUCOM.get_boxon
     0x00512ece      544f           addq.w 0x2, a7
     0x00512ed0      4a1f           tst.b (a7)+
  < 0x00512ed2      676e           beq.b 0x512f42
     0x00512ed4      2051           movea.l (a1), a0
     0x00512ed6      b1eeffd8       cmpa.l -0x28(a6), a0
  < 0x00512eda      6612           bne.b 0x512eee
     0x00512edc      10390083d2df   move.b 0x83d2df, d0
     0x00512ee2      4880           ext.w d0
     0x00512ee4      4186           chk.w d6, d0
     0x00512ee6      13c00083d2de   move.b d0, 0x83d2de
  < 0x00512eec      6050           bra.b 0x512f3e
  > 0x00512eee      b0c3           cmpa.w d3, a0
  < 0x00512ef0      674c           beq.b 0x512f3e
     0x00512ef2      3f390083e402   move.w 0x83e402, -(a7)
     0x00512ef8      4227           clr.b -(a7)
     0x00512efa      4eb900483776   jsr MENUCOM.swtch_box
     0x00512f00      544f           addq.w 0x2, a7
     0x00512f02      2f12           move.l (a2), -(a7)
     0x00512f04      2f11           move.l (a1), -(a7)
     0x00512f06      4eb900670776   jsr PASTECOM.attach_cutout
     0x00512f0c      504f           addq.w 0x8, a7
     0x00512f0e      4a1f           tst.b (a7)+
  < 0x00512f10      672c           beq.b 0x512f3e
     0x00512f12      2f12           move.l (a2), -(a7)
     0x00512f14      2f11           move.l (a1), -(a7)
     0x00512f16      4ebad8b0       jsr MENU3DCOM.PAS.attach_transfor(pc)
     0x00512f1a      584f           addq.w 0x4, a7
     0x00512f1c      2e92           move.l (a2), (a7)
     0x00512f1e      4eb90066ff74   jsr PASTECOM.calc_transforms
     0x00512f24      544f           addq.w 0x2, a7
     0x00512f26      1ebc0002       move.b 0x2, (a7)
     0x00512f2a      2f11           move.l (a1), -(a7)
     0x00512f2c      4eb9006770b0   jsr PASTECOM.update_layer
     0x00512f32      584f           addq.w 0x4, a7
     0x00512f34      1e83           move.b d3, (a7)
     0x00512f36      1f03           move.b d3, -(a7)
     0x00512f38      4eba8bbc       jsr MENU3DCOM.PAS.do_3d_cutout_cu(pc)
     0x00512f3c      584f           addq.w 0x4, a7
  > 0x00512f3e      6000ff76       bra.w 0x512eb6
  > 0x00512f42      4a390083d2df   tst.b 0x83d2df
  < 0x00512f48      6712           beq.b 0x512f5c
     0x00512f4a      1f04           move.b d4, -(a7)
     0x00512f4c      48780001       pea.l 0x1
     0x00512f50      4eb9006770b0   jsr PASTECOM.update_layer
     0x00512f56      5c4f           addq.w 0x6, a7
  < 0x00512f58      60000174       bra.w 0x5130ce
  > 0x00512f5c      20790083d1d0   movea.l 0x83d1d0, a0
     0x00512f62      b1e8fffc       cmpa.l -0x4(a0), a0
  < 0x00512f66      6702           beq.b 0x512f6a
     0x00512f68      4e4d           trap 0xd
  > 0x00512f6a      4850           pea.l (a0)
     0x00512f6c      4eb9004ac46a   jsr MENUZOOMCOM.zoom_screen_pos
     0x00512f72      584f           addq.w 0x4, a7
     0x00512f74      7e00           moveq 0x0, d7
     0x00512f76      4a790083d338   tst.w 0x83d338
  < 0x00512f7c      6f02           ble.b 0x512f80
     0x00512f7e      5207           addq.b 0x1, d7
  > 0x00512f80      4a07           tst.b d7
  < 0x00512f82      6722           beq.b 0x512fa6
     0x00512f84      554f           subq.w 0x2, a7
     0x00512f86      20790083d1d0   movea.l 0x83d1d0, a0
     0x00512f8c      b1e8fffc       cmpa.l -0x4(a0), a0
  < 0x00512f90      6702           beq.b 0x512f94
     0x00512f92      4e4d           trap 0xd
  > 0x00512f94      2f10           move.l (a0), -(a7)
     0x00512f96      284b           movea.l a3, a4
     0x00512f98      4ebadf94       jsr MENU3DCOM.PAS.pick_stripey_st(pc)
     0x00512f9c      584f           addq.w 0x4, a7
     0x00512f9e      101f           move.b (a7)+, d0
     0x00512fa0      4880           ext.w d0
     0x00512fa2      4183           chk.w d3, d0
     0x00512fa4      1e00           move.b d0, d7
  > 0x00512fa6      4a07           tst.b d7
  < 0x00512fa8      6724           beq.b 0x512fce
     0x00512faa      3f3c00a6       move.w 0xa6, -(a7)
     0x00512fae      302effe2       move.w -0x1e(a6), d0
     0x00512fb2      48c0           ext.l d0
     0x00512fb4      5280           addq.l 0x1, d0
     0x00512fb6      f2004000       fmove.l d0, fp0
     0x00512fba      f2276400       fmove.s fp0, -(a7)
     0x00512fbe      1f03           move.b d3, -(a7)
     0x00512fc0      1f03           move.b d3, -(a7)
     0x00512fc2      4eb90048da84   jsr MENU2COM.set_numeric_val
     0x00512fc8      dec4           adda.w d4, a7
  < 0x00512fca      60000102       bra.w 0x5130ce
  > 0x00512fce      2051           movea.l (a1), a0
     0x00512fd0      b0c3           cmpa.w d3, a0
  < 0x00512fd2      670000fa       beq.w 0x5130ce
     0x00512fd6      b1d2           cmpa.l (a2), a0
  < 0x00512fd8      6626           bne.b 0x513000
     0x00512fda      1f04           move.b d4, -(a7)
     0x00512fdc      48780001       pea.l 0x1
     0x00512fe0      4eb9006770b0   jsr PASTECOM.update_layer
     0x00512fe6      5c4f           addq.w 0x6, a7
     0x00512fe8      10390083d2df   move.b 0x83d2df, d0
     0x00512fee      b006           cmp.b d6, d0
  < 0x00512ff0      660000dc       bne.w 0x5130ce
     0x00512ff4      13fc00060083.  move.b 0x6, 0x83d30c.l
  < 0x00512ffc      600000d0       bra.w 0x5130ce
  > 0x00513000      1f03           move.b d3, -(a7)
     0x00513002      2f08           move.l a0, -(a7)
     0x00513004      4eb9006770b0   jsr PASTECOM.update_layer
     0x0051300a      5c4f           addq.w 0x6, a7
     0x0051300c      13fc00030083.  move.b 0x3, 0x83d30c.l
     0x00513014      13c30083d336   move.b d3, 0x83d336
     0x0051301a      4eba8e94       jsr MENU3DCOM.PAS.update_3d_menu_(pc)
  < 0x0051301e      600000ae       bra.w 0x5130ce
  > 0x00513022      10390083d30c   move.b 0x83d30c, d0
     0x00513028      b003           cmp.b d3, d0
  < 0x0051302a      670000a2       beq.w 0x5130ce
     0x0051302e      0c000003       cmpi.b 0x3, d0
  < 0x00513032      6614           bne.b 0x513048
     0x00513034      1f03           move.b d3, -(a7)
     0x00513036      1f03           move.b d3, -(a7)
     0x00513038      4eba8abc       jsr MENU3DCOM.PAS.do_3d_cutout_cu(pc)
     0x0051303c      584f           addq.w 0x4, a7
     0x0051303e      13fc00040083.  move.b 0x4, 0x83d30c.l
  < 0x00513046      6052           bra.b 0x51309a
  > 0x00513048      12390083d2df   move.b 0x83d2df, d1
     0x0051304e      b206           cmp.b d6, d1
  < 0x00513050      6648           bne.b 0x51309a
     0x00513052      4880           ext.w d0
     0x00513054      41f900509fbc   lea.l 0x509fbc, a0
     0x0051305a      3200           move.w d0, d1
     0x0051305c      e649           lsr.w 0x3, d1
     0x0051305e      01301000       btst.l d0, (a0, d1.w)
  < 0x00513062      6736           beq.b 0x51309a
     0x00513064      4eb9004558e4   jsr CURSORCOM.cursor_off
     0x0051306a      284b           movea.l a3, a4
     0x0051306c      4ebae2d2       jsr MENU3DCOM.PAS.update_enter_cu(pc)
     0x00513070      4ebaab50       jsr MENU3DCOM.PAS.save_undo(pc)
     0x00513074      2f2effd8       move.l -0x28(a6), -(a7)
     0x00513078      4227           clr.b -(a7)
     0x0051307a      4eb9006734fe   jsr PASTECOM.load_unsized_cu
     0x00513080      544f           addq.w 0x2, a7
     0x00513082      2eaeffd8       move.l -0x28(a6), (a7)
     0x00513086      4227           clr.b -(a7)
     0x00513088      1f03           move.b d3, -(a7)
     0x0051308a      1f03           move.b d3, -(a7)
     0x0051308c      4227           clr.b -(a7)
     0x0051308e      4eba9b8c       jsr MENU3DCOM.PAS.update_single(pc)
     0x00513092      defc000c       adda.w 0xc, a7
     0x00513096      4eba8e18       jsr MENU3DCOM.PAS.update_3d_menu_(pc)
  > 0x0051309a      12390083d2e4   move.b 0x83d2e4, d1
     0x005130a0      b205           cmp.b d5, d1
  < 0x005130a2      672a           beq.b 0x5130ce
     0x005130a4      4227           clr.b -(a7)
     0x005130a6      1f03           move.b d3, -(a7)
     0x005130a8      554f           subq.w 0x2, a7
     0x005130aa      4eb90066f8d8   jsr PASTECOM.fake_layer
     0x005130b0      1217           move.b (a7), d1
     0x005130b2      4881           ext.w d1
     0x005130b4      4383           chk.w d3, d1
     0x005130b6      1e81           move.b d1, (a7)
     0x005130b8      2052           movea.l (a2), a0
     0x005130ba      b1e8fffc       cmpa.l -0x4(a0), a0
  < 0x005130be      6702           beq.b 0x5130c2
     0x005130c0      4e4d           trap 0xd
  > 0x005130c2      3f2802e8       move.w 0x2e8(a0), -(a7)
     0x005130c6      4eb9004b22e2   jsr MENUPASTECOM.paste_set_out
     0x005130cc      504f           addq.w 0x8, a7
  > 0x005130ce      6000040c       bra.w 0x5134dc
      0x005130d2      554f           subq.w 0x2, a7
      0x005130d4      4227           clr.b -(a7)
      0x005130d6      302e0008       move.w 0x8(a6), d0
      0x005130da      0c400009       cmpi.w 0x9, d0
  < 0x005130de      6602           bne.b 0x5130e2
     0x005130e0      5217           addq.b 0x1, (a7)
  > 0x005130e2      284b           movea.l a3, a4
      0x005130e4      4ebaf8c6       jsr MENU3DCOM.PAS.used(pc)
      0x005130e8      544f           addq.w 0x2, a7
      0x005130ea      4a1f           tst.b (a7)+
  < 0x005130ec      660001da       bne.w 0x5132c8
     0x005130f0      10390083d30c   move.b 0x83d30c, d0
     0x005130f6      b003           cmp.b d3, d0
  < 0x005130f8      670001ce       beq.w 0x5132c8
     0x005130fc      4880           ext.w d0
     0x005130fe      41f900509fbe   lea.l 0x509fbe, a0
     0x00513104      3200           move.w d0, d1
     0x00513106      e649           lsr.w 0x3, d1
     0x00513108      01301000       btst.l d0, (a0, d1.w)
  < 0x0051310c      6710           beq.b 0x51311e
     0x0051310e      4eb9004558e4   jsr CURSORCOM.cursor_off
     0x00513114      284b           movea.l a3, a4
     0x00513116      4ebae228       jsr MENU3DCOM.PAS.update_enter_cu(pc)
     0x0051311a      4ebaaaa6       jsr MENU3DCOM.PAS.save_undo(pc)
  > 0x0051311e      2f2effd8       move.l -0x28(a6), -(a7)
     0x00513122      284b           movea.l a3, a4
     0x00513124      4ebaedc8       jsr MENU3DCOM.PAS.update_picked_c(pc)
     0x00513128      584f           addq.w 0x4, a7
     0x0051312a      7e00           moveq 0x0, d7
     0x0051312c      20790083d1d0   movea.l 0x83d1d0, a0
     0x00513132      b1e8fffc       cmpa.l -0x4(a0), a0
  < 0x00513136      6702           beq.b 0x51313a
     0x00513138      4e4d           trap 0xd
  > 0x0051313a      32280012       move.w 0x12(a0), d1
     0x0051313e      48c1           ext.l d1
  < 0x00513140      6a02           bpl.b 0x513144
     0x00513142      4481           neg.l d1
  > 0x00513144      34280014       move.w 0x14(a0), d2
     0x00513148      48c2           ext.l d2
  < 0x0051314a      6a02           bpl.b 0x51314e
     0x0051314c      4482           neg.l d2
  > 0x0051314e      d481           add.l d1, d2
     0x00513150      0c8200000080   cmpi.l 0x80, d2
  < 0x00513156      6f02           ble.b 0x51315a
     0x00513158      5207           addq.b 0x1, d7
  > 0x0051315a      12390083d2e4   move.b 0x83d2e4, d1
     0x00513160      b205           cmp.b d5, d1
  < 0x00513162      66000096       bne.w 0x5131fa
     0x00513166      554f           subq.w 0x2, a7
     0x00513168      4eb90066f8d8   jsr PASTECOM.fake_layer
     0x0051316e      4a1f           tst.b (a7)+
  < 0x00513170      66000088       bne.w 0x5131fa
     0x00513174      554f           subq.w 0x2, a7
     0x00513176      3f3c002c       move.w 0x2c, -(a7)
     0x0051317a      4eb900480fc2   jsr MENUCOM.get_boxon
     0x00513180      544f           addq.w 0x2, a7
     0x00513182      4a1f           tst.b (a7)+
  < 0x00513184      6674           bne.b 0x5131fa
     0x00513186      554f           subq.w 0x2, a7
     0x00513188      3f3c001f       move.w 0x1f, -(a7)
     0x0051318c      4eb900480fc2   jsr MENUCOM.get_boxon
     0x00513192      544f           addq.w 0x2, a7
     0x00513194      4a1f           tst.b (a7)+
  < 0x00513196      6662           bne.b 0x5131fa
     0x00513198      2052           movea.l (a2), a0
     0x0051319a      b1e8fffc       cmpa.l -0x4(a0), a0
  < 0x0051319e      6702           beq.b 0x5131a2
     0x005131a0      4e4d           trap 0xd
  > 0x005131a2      4227           clr.b -(a7)
     0x005131a4      12390083d1ce   move.b 0x83d1ce, d1
     0x005131aa      4401           neg.b d1
     0x005131ac      5201           addq.b 0x1, d1
  < 0x005131ae      6716           beq.b 0x5131c6
     0x005131b0      4a2802db       tst.b 0x2db(a0)
  < 0x005131b4      6610           bne.b 0x5131c6
     0x005131b6      4a2802da       tst.b 0x2da(a0)
  < 0x005131ba      6608           bne.b 0x5131c4
     0x005131bc      122802d9       move.b 0x2d9(a0), d1
     0x005131c0      b203           cmp.b d3, d1
  < 0x005131c2      6602           bne.b 0x5131c6
  > 0x005131c4      5217           addq.b 0x1, (a7)
  > 0x005131c6      4227           clr.b -(a7)
     0x005131c8      554f           subq.w 0x2, a7
     0x005131ca      4eb90066f8d8   jsr PASTECOM.fake_layer
     0x005131d0      1217           move.b (a7), d1
     0x005131d2      4881           ext.w d1
     0x005131d4      4383           chk.w d3, d1
     0x005131d6      1e81           move.b d1, (a7)
     0x005131d8      3f2802e8       move.w 0x2e8(a0), -(a7)
     0x005131dc      4eb9004b22e2   jsr MENUPASTECOM.paste_set_out
     0x005131e2      504f           addq.w 0x8, a7
     0x005131e4      4eba8cca       jsr MENU3DCOM.PAS.update_3d_menu_(pc)
     0x005131e8      13c30083d336   move.b d3, 0x83d336
     0x005131ee      13fc00090083.  move.b 0x9, 0x83d30c.l
  < 0x005131f6      600000d0       bra.w 0x5132c8
  > 0x005131fa      554f           subq.w 0x2, a7
     0x005131fc      4eb90050a464   jsr MENU3DCOM.PAS.graphics
     0x00513202      4a1f           tst.b (a7)+
  < 0x00513204      6726           beq.b 0x51322c
     0x00513206      1f390083d314   move.b 0x83d314, -(a7)
     0x0051320c      4417           neg.b (a7)
     0x0051320e      5217           addq.b 0x1, (a7)
     0x00513210      1f03           move.b d3, -(a7)
     0x00513212      4eba85f6       jsr MENU3DCOM.PAS.update_graphics(pc)
     0x00513216      584f           addq.w 0x4, a7
     0x00513218      4eba8c96       jsr MENU3DCOM.PAS.update_3d_menu_(pc)
     0x0051321c      13c30083d336   move.b d3, 0x83d336
     0x00513222      13c50083d30c   move.b d5, 0x83d30c
  < 0x00513228      6000009e       bra.w 0x5132c8
  > 0x0051322c      554f           subq.w 0x2, a7
     0x0051322e      3f3c0080       move.w 0x80, -(a7)
     0x00513232      4eb900480fc2   jsr MENUCOM.get_boxon
     0x00513238      544f           addq.w 0x2, a7
     0x0051323a      4a1f           tst.b (a7)+
  < 0x0051323c      6616           bne.b 0x513254
     0x0051323e      12390083d2e4   move.b 0x83d2e4, d1
     0x00513244      0c010008       cmpi.b 0x8, d1
  < 0x00513248      670a           beq.b 0x513254
     0x0051324a      322effe0       move.w -0x20(a6), d1
     0x0051324e      0c410006       cmpi.w 0x6, d1
  < 0x00513252      661e           bne.b 0x513272
  > 0x00513254      13c30083d336   move.b d3, 0x83d336
     0x0051325a      4887           ext.w d7
     0x0051325c      4f83           chk.w d3, d7
     0x0051325e      1f07           move.b d7, -(a7)
     0x00513260      4ebaa612       jsr MENU3DCOM.PAS.update_many_pre(pc)
     0x00513264      544f           addq.w 0x2, a7
     0x00513266      4eba8c48       jsr MENU3DCOM.PAS.update_3d_menu_(pc)
     0x0051326a      13c40083d30c   move.b d4, 0x83d30c
  < 0x00513270      6056           bra.b 0x5132c8
  > 0x00513272      2f2effd8       move.l -0x28(a6), -(a7)
     0x00513276      4227           clr.b -(a7)
     0x00513278      4eb9006734fe   jsr PASTECOM.load_unsized_cu
     0x0051327e      5c4f           addq.w 0x6, a7
     0x00513280      12390083d2e4   move.b 0x83d2e4, d1
     0x00513286      b205           cmp.b d5, d1
  < 0x00513288      6710           beq.b 0x51329a
     0x0051328a      4a07           tst.b d7
  < 0x0051328c      670c           beq.b 0x51329a
     0x0051328e      2f12           move.l (a2), -(a7)
     0x00513290      1f03           move.b d3, -(a7)
     0x00513292      1f03           move.b d3, -(a7)
     0x00513294      1f03           move.b d3, -(a7)
     0x00513296      1f03           move.b d3, -(a7)
  < 0x00513298      6022           bra.b 0x5132bc
  > 0x0051329a      2f12           move.l (a2), -(a7)
     0x0051329c      4227           clr.b -(a7)
     0x0051329e      4227           clr.b -(a7)
     0x005132a0      2052           movea.l (a2), a0
     0x005132a2      b1e8fffc       cmpa.l -0x4(a0), a0
  < 0x005132a6      6702           beq.b 0x5132aa
     0x005132a8      4e4d           trap 0xd
  > 0x005132aa      4a68034c       tst.w 0x34c(a0)
  < 0x005132ae      6702           beq.b 0x5132b2
     0x005132b0      5217           addq.b 0x1, (a7)
  > 0x005132b2      1f03           move.b d3, -(a7)
     0x005132b4      4227           clr.b -(a7)
     0x005132b6      b205           cmp.b d5, d1
  < 0x005132b8      6702           beq.b 0x5132bc
     0x005132ba      5217           addq.b 0x1, (a7)
  > 0x005132bc      4eba995e       jsr MENU3DCOM.PAS.update_single(pc)
     0x005132c0      defc000c       adda.w 0xc, a7
     0x005132c4      4eba8bea       jsr MENU3DCOM.PAS.update_3d_menu_(pc)
  > 0x005132c8      60000212       bra.w 0x5134dc
      0x005132cc      554f           subq.w 0x2, a7
      0x005132ce      4227           clr.b -(a7)
      0x005132d0      302e0008       move.w 0x8(a6), d0
      0x005132d4      b044           cmp.w d4, d0
  < 0x005132d6      6602           bne.b 0x5132da
     0x005132d8      5217           addq.b 0x1, (a7)
  > 0x005132da      284b           movea.l a3, a4
      0x005132dc      4ebaf6ce       jsr MENU3DCOM.PAS.used(pc)
      0x005132e0      544f           addq.w 0x2, a7
      0x005132e2      4a1f           tst.b (a7)+
  < 0x005132e4      660000f4       bne.w 0x5133da
     0x005132e8      10390083d30c   move.b 0x83d30c, d0
     0x005132ee      b003           cmp.b d3, d0
  < 0x005132f0      670000ca       beq.w 0x5133bc
     0x005132f4      4880           ext.w d0
     0x005132f6      41f900509fc0   lea.l 0x509fc0, a0
     0x005132fc      3200           move.w d0, d1
     0x005132fe      e649           lsr.w 0x3, d1
     0x00513300      01301000       btst.l d0, (a0, d1.w)
  < 0x00513304      6700009c       beq.w 0x5133a2
     0x00513308      b005           cmp.b d5, d0
  < 0x0051330a      6610           bne.b 0x51331c
     0x0051330c      1f3c0007       move.b 0x7, -(a7)
  > 0x00513310      2f12           move.l (a2), -(a7)
     0x00513312      4eb9006770b0   jsr PASTECOM.update_layer
     0x00513318      5c4f           addq.w 0x6, a7
  < 0x0051331a      6048           bra.b 0x513364
  > 0x0051331c      41f900509fc2   lea.l 0x509fc2, a0
     0x00513322      3200           move.w d0, d1
     0x00513324      e649           lsr.w 0x3, d1
     0x00513326      01301000       btst.l d0, (a0, d1.w)
  < 0x0051332a      6708           beq.b 0x513334
     0x0051332c      2f12           move.l (a2), -(a7)
     0x0051332e      4ebaa766       jsr MENU3DCOM.PAS.update_final(pc)
     0x00513332      584f           addq.w 0x4, a7
  > 0x00513334      206effd8       movea.l -0x28(a6), a0
     0x00513338      b1e8fffc       cmpa.l -0x4(a0), a0
  < 0x0051333c      6702           beq.b 0x513340
     0x0051333e      4e4d           trap 0xd
  > 0x00513340      2068000e       movea.l 0xe(a0), a0
     0x00513344      b0c3           cmpa.w d3, a0
  < 0x00513346      6706           beq.b 0x51334e
     0x00513348      1f3c0002       move.b 0x2, -(a7)
  < 0x0051334c      60c2           bra.b 0x513310
  > 0x0051334e      12390083d2e4   move.b 0x83d2e4, d1
     0x00513354      b205           cmp.b d5, d1
  < 0x00513356      660c           bne.b 0x513364
     0x00513358      1f03           move.b d3, -(a7)
     0x0051335a      4227           clr.b -(a7)
     0x0051335c      4eb90067439c   jsr PASTECOM.update_cutout
     0x00513362      584f           addq.w 0x4, a7
  > 0x00513364      2052           movea.l (a2), a0
     0x00513366      b1e8fffc       cmpa.l -0x4(a0), a0
  < 0x0051336a      6702           beq.b 0x51336e
     0x0051336c      4e4d           trap 0xd
  > 0x0051336e      48680210       pea.l 0x210(a0)
     0x00513372      486802a0       pea.l 0x2a0(a0)
     0x00513376      48680056       pea.l 0x56(a0)
     0x0051337a      486802b8       pea.l 0x2b8(a0)
     0x0051337e      4eb90067d034   jsr THREEDMAV.transform_shape
     0x00513384      defc000c       adda.w 0xc, a7
     0x00513388      2eaeffd8       move.l -0x28(a6), (a7)
     0x0051338c      2f390083d308   move.l 0x83d308, -(a7)
     0x00513392      4227           clr.b -(a7)
     0x00513394      4eb90075fcb8   jsr MENUKEYFRMCOM.edit_keyfrm
     0x0051339a      dec4           adda.w d4, a7
     0x0051339c      4eb900670a5c   jsr PASTECOM.save_layers
  > 0x005133a2      4eba8b0c       jsr MENU3DCOM.PAS.update_3d_menu_(pc)
     0x005133a6      12390083d336   move.b 0x83d336, d1
     0x005133ac      4881           ext.w d1
     0x005133ae      4383           chk.w d3, d1
     0x005133b0      1f01           move.b d1, -(a7)
     0x005133b2      1f03           move.b d3, -(a7)
     0x005133b4      4eba8740       jsr MENU3DCOM.PAS.do_3d_cutout_cu(pc)
     0x005133b8      584f           addq.w 0x4, a7
  < 0x005133ba      6004           bra.b 0x5133c0
  > 0x005133bc      4eba8af2       jsr MENU3DCOM.PAS.update_3d_menu_(pc)
  > 0x005133c0      42390083d30c   clr.b 0x83d30c
     0x005133c6      42390083d2e4   clr.b 0x83d2e4
     0x005133cc      302e0008       move.w 0x8(a6), d0
     0x005133d0      0c400011       cmpi.w 0x11, d0
  < 0x005133d4      6604           bne.b 0x5133da
     0x005133d6      4ebaf312       jsr MENU3DCOM.PAS.check_enable_li(pc)
  > 0x005133da      60000100       bra.w 0x5134dc
      0x005133de      302e000a       move.w 0xa(a6), d0
      0x005133e2      0c40fff5       cmpi.w 0xfff5, d0
  < 0x005133e6      661a           bne.b 0x513402
     0x005133e8      284b           movea.l a3, a4
     0x005133ea      4ebaf3a8       jsr MENU3DCOM.PAS.before_sell(pc)
     0x005133ee      1f3c0002       move.b 0x2, -(a7)
  > 0x005133f2      4eb9004bda9a   jsr MENUANIMCOM.do_anim_op
     0x005133f8      544f           addq.w 0x2, a7
     0x005133fa      284b           movea.l a3, a4
     0x005133fc      4ebaf52a       jsr MENU3DCOM.PAS.after_buy(pc)
  < 0x00513400      607c           bra.b 0x51347e
  > 0x00513402      0c40fff4       cmpi.w 0xfff4, d0
  < 0x00513406      6634           bne.b 0x51343c
     0x00513408      554f           subq.w 0x2, a7
     0x0051340a      3f3c007e       move.w 0x7e, -(a7)
     0x0051340e      4eb900480fc2   jsr MENUCOM.get_boxon
     0x00513414      544f           addq.w 0x2, a7
     0x00513416      4a1f           tst.b (a7)+
  < 0x00513418      671e           beq.b 0x513438
     0x0051341a      554f           subq.w 0x2, a7
     0x0051341c      4eb90047d586   jsr CNTLCOM.get_swipe_state
     0x00513422      4a1f           tst.b (a7)+
  < 0x00513424      6612           bne.b 0x513438
     0x00513426      4eb9004558e4   jsr CURSORCOM.cursor_off
     0x0051342c      1f3c0006       move.b 0x6, -(a7)
  > 0x00513430      4eb9004bda9a   jsr MENUANIMCOM.do_anim_op
  < 0x00513436      6044           bra.b 0x51347c
  > 0x00513438      1f03           move.b d3, -(a7)
  < 0x0051343a      60b6           bra.b 0x5133f2
  > 0x0051343c      0c40fff3       cmpi.w 0xfff3, d0
  < 0x00513440      6606           bne.b 0x513448
     0x00513442      1f3c0003       move.b 0x3, -(a7)
  < 0x00513446      60e8           bra.b 0x513430
  > 0x00513448      0c40fff2       cmpi.w 0xfff2, d0
  < 0x0051344c      660a           bne.b 0x513458
     0x0051344e      284b           movea.l a3, a4
     0x00513450      4ebaf342       jsr MENU3DCOM.PAS.before_sell(pc)
     0x00513454      4227           clr.b -(a7)
  < 0x00513456      60d8           bra.b 0x513430
  > 0x00513458      0c40fff1       cmpi.w 0xfff1, d0
  < 0x0051345c      6620           bne.b 0x51347e
     0x0051345e      554f           subq.w 0x2, a7
     0x00513460      4eb90047d586   jsr CNTLCOM.get_swipe_state
     0x00513466      121f           move.b (a7)+, d1
     0x00513468      4881           ext.w d1
     0x0051346a      033900509fc4   btst.l d1, 0x509fc4
  < 0x00513470      670c           beq.b 0x51347e
     0x00513472      3f3c001b       move.w 0x1b, -(a7)
     0x00513476      4eb9004836a4   jsr MENUCOM.push_box
  > 0x0051347c      544f           addq.w 0x2, a7
  > 0x0051347e      605c           bra.b 0x5134dc
  < 0x00513480      605a           bra.b 0x5134dc
     0x00513482      302e000a       move.w 0xa(a6), d0
     0x00513486      0c40fff5       cmpi.w 0xfff5, d0
  < 0x0051348a      6706           beq.b 0x513492
     0x0051348c      0c40fff2       cmpi.w 0xfff2, d0
  < 0x00513490      6606           bne.b 0x513498
  > 0x00513492      4ebaf456       jsr MENU3DCOM.PAS.after_sell(pc)
  < 0x00513496      6018           bra.b 0x5134b0
  > 0x00513498      0c40fff3       cmpi.w 0xfff3, d0
  < 0x0051349c      6612           bne.b 0x5134b0
     0x0051349e      1f3c0004       move.b 0x4, -(a7)
     0x005134a2      4eb9004bda9a   jsr MENUANIMCOM.do_anim_op
     0x005134a8      544f           addq.w 0x2, a7
     0x005134aa      284b           movea.l a3, a4
     0x005134ac      4ebaf47a       jsr MENU3DCOM.PAS.after_buy(pc)
  > 0x005134b0      602a           bra.b 0x5134dc
  > 0x005134b2      302e0008       move.w 0x8(a6), d0
      0x005134b6      02401000       andi.w 0x1000, d0
  < 0x005134ba      6720           beq.b 0x5134dc
     0x005134bc      554f           subq.w 0x2, a7
     0x005134be      4eb90048f0ee   jsr MENURIGHTCOM.get_rh_mode
     0x005134c4      101f           move.b (a7)+, d0
     0x005134c6      b003           cmp.b d3, d0
  < 0x005134c8      6612           bne.b 0x5134dc
     0x005134ca      1f03           move.b d3, -(a7)
     0x005134cc      3f2e000a       move.w 0xa(a6), -(a7)
     0x005134d0      3f2e0008       move.w 0x8(a6), -(a7)
     0x005134d4      4eb90048f67e   jsr MENURIGHTCOM.rh_act
     0x005134da      5c4f           addq.w 0x6, a7
  > 0x005134dc      f21fd080       fmovem (a7)+, fp0
            0x005134e0      4cdf1fff       movem.l (a7)+, d0-d7/a0-a4
            0x005134e4      4e5e           unlk a6
            0x005134e6      4e75           rts
            ; CALL XREF from MENUPASTECOM.menupaste_area_ @ 0x4b53f8
 24: MENU3DCOM.PAS.pos3d_area_init ();
           0x005134e8      4e56ffca       link.w a6, 0xffca
           0x005134ec      bfd5           cmpa.l (a5), a7
       < 0x005134ee      6206           bhi.b 0x5134f6
          0x005134f0      44fc0002       move.w 0x2, ccr
          0x005134f4      4e76           trapv
       > 0x005134f6      defc0036       adda.w 0x36, a7
           0x005134fa      48e7f8c0       movem.l d0-d4/a0-a1, -(a7)
           0x005134fe      f227e001       fmovem fp0, -(a7)
            0x00513502      41f9006336ea   lea.l HANDCOM.get_area, a0
            0x00513508      43f90083d230   lea.l 0x83d230, a1
            0x0051350e      243cffff8000   move.l 0xffff8000, d2
            0x00513514      7605           moveq 0x5, d3
            0x00513516      7801           moveq 0x1, d4
            0x00513518      514f           subq.w 0x8, a7
            0x0051351a      4eb9006339f2   jsr HANDCOM.get_picture_are
            0x00513520      23df0083d22c   move.l (a7)+, 0x83d22c
            0x00513526      2297           move.l (a7), (a1)
            0x00513528      4eb900633b4e   jsr HANDCOM.get_centre_poin
            0x0051352e      23df0083d234   move.l (a7)+, 0x83d234
            0x00513534      30390083d232   move.w 0x83d232, d0
            0x0051353a      48c0           ext.l d0
            0x0051353c      e580           asl.l 0x2, d0
            0x0051353e      9082           sub.l d2, d0
            0x00513540      413c0000ffff   chk.l 0xffff, d0
            0x00513546      d082           add.l d2, d0
            0x00513548      33c00083d23e   move.w d0, 0x83d23e
            0x0051354e      3211           move.w (a1), d1
            0x00513550      48c1           ext.l d1
            0x00513552      e581           asl.l 0x2, d1
            0x00513554      9282           sub.l d2, d1
            0x00513556      433c0000ffff   chk.l 0xffff, d1
            0x0051355c      d282           add.l d2, d1
            0x0051355e      33c10083d23c   move.w d1, 0x83d23c
            0x00513564      33c10083d238   move.w d1, 0x83d238
            0x0051356a      33c00083d23a   move.w d0, 0x83d23a
            0x00513570      514f           subq.w 0x8, a7
            0x00513572      1f3c0004       move.b 0x4, -(a7)
            0x00513576      4e90           jsr (a0)                    ; fcn.00000009
            0x00513578      544f           addq.w 0x2, a7
            0x0051357a      23df0083d316   move.l (a7)+, 0x83d316
            0x00513580      23d70083d31a   move.l (a7), 0x83d31a
            0x00513586      594f           subq.w 0x4, a7
            0x00513588      1f03           move.b d3, -(a7)
            0x0051358a      4e90           jsr (a0)                    ; fcn.00000009
            0x0051358c      544f           addq.w 0x2, a7
            0x0051358e      23df0083d31e   move.l (a7)+, 0x83d31e
            0x00513594      23d70083d322   move.l (a7), 0x83d322
            0x0051359a      594f           subq.w 0x4, a7
            0x0051359c      1f03           move.b d3, -(a7)
            0x0051359e      4e90           jsr (a0)                    ; fcn.00000009
            0x005135a0      544f           addq.w 0x2, a7
            0x005135a2      23df0083d326   move.l (a7)+, 0x83d326
            0x005135a8      23d70083d32a   move.l (a7), 0x83d32a
            0x005135ae      594f           subq.w 0x4, a7
            0x005135b0      1f3c0006       move.b 0x6, -(a7)
            0x005135b4      4e90           jsr (a0)                    ; fcn.00000009
            0x005135b6      544f           addq.w 0x2, a7
            0x005135b8      23df0083d32e   move.l (a7)+, 0x83d32e
            0x005135be      23d70083d332   move.l (a7), 0x83d332
            0x005135c4      4eb900633e18   jsr HANDCOM.get_subpixel
            0x005135ca      23d70083d1d4   move.l (a7), 0x83d1d4
            0x005135d0      4eb900633e68   jsr HANDCOM.get_subline
            0x005135d6      23d70083d1dc   move.l (a7), 0x83d1dc
            0x005135dc      4eb900633e18   jsr HANDCOM.get_subpixel
            0x005135e2      f2044000       fmove.l d4, fp0
            0x005135e6      f21f4420       fdiv.s (a7)+, fp0
            0x005135ea      f23964000083.  fmove.s fp0, 0x83d1d8
            0x005135f2      594f           subq.w 0x4, a7
            0x005135f4      4eb900633e68   jsr HANDCOM.get_subline
            0x005135fa      f2044000       fmove.l d4, fp0
            0x005135fe      f21f4420       fdiv.s (a7)+, fp0
            0x00513602      f23964000083.  fmove.s fp0, 0x83d1e0
            0x0051360a      f21fd080       fmovem (a7)+, fp0
            0x0051360e      4cdf031f       movem.l (a7)+, d0-d4/a0-a1
            0x00513612      4e5e           unlk a6
            0x00513614      4e75           rts
 124: MENU3DCOM.PAS.add_boxnum_to_p ();
           0x00513616      4e56ffd0       link.w a6, 0xffd0
           0x0051361a      bfd5           cmpa.l (a5), a7
       < 0x0051361c      6206           bhi.b 0x513624
          0x0051361e      44fc0002       move.w 0x2, ccr
          0x00513622      4e76           trapv
       > 0x00513624      defc0028       adda.w 0x28, a7
           0x00513628      48e780f8       movem.l d0/a0-a4, -(a7)
           0x0051362c      45eefffc       lea.l -0x4(a6), a2
           0x00513630      47f90083d30e   lea.l 0x83d30e, a3
           0x00513636      7001           moveq 0x1, d0
           0x00513638      4852           pea.l (a2)
           0x0051363a      48780009       pea.l 0x9
           0x0051363e      4eb900403a92   jsr p_New
           0x00513644      504f           addq.w 0x8, a7
           0x00513646      2052           movea.l (a2), a0
           0x00513648      b1e8fffc       cmpa.l -0x4(a0), a0
       < 0x0051364c      6702           beq.b 0x513650
          0x0051364e      4e4d           trap 0xd
       > 0x00513650      2080           move.l d0, (a0)
           0x00513652      316e000e0004   move.w 0xe(a6), 0x4(a0)
           0x00513658      116e000c0006   move.b 0xc(a6), 0x6(a0)
           0x0051365e      116e000a0007   move.b 0xa(a6), 0x7(a0)
           0x00513664      116e00080008   move.b 0x8(a6), 0x8(a0)
           0x0051366a      2053           movea.l (a3), a0
           0x0051366c      b0c0           cmpa.w d0, a0
       < 0x0051366e      6604           bne.b 0x513674
          0x00513670      2692           move.l (a2), (a3)
      < 0x00513672      6016           bra.b 0x51368a
      > 0x00513674      2848           movea.l a0, a4
      > 0x00513676      b9ecfffc       cmpa.l -0x4(a4), a4
     < 0x0051367a      6702           beq.b 0x51367e
        0x0051367c      4e4d           trap 0xd
     > 0x0051367e      2254           movea.l (a4), a1
         0x00513680      b2c0           cmpa.w d0, a1
     < 0x00513682      6704           beq.b 0x513688
        0x00513684      2849           movea.l a1, a4
     < 0x00513686      60ee           bra.b 0x513676
     > 0x00513688      2892           move.l (a2), (a4)
      > 0x0051368a      4cdf1f01       movem.l (a7)+, d0/a0-a4
           0x0051368e      4e5e           unlk a6
           0x00513690      4e75           rts
            ; CALL XREF from MENUPASTECOM.men_pasteup_box @ 0x4b7060
 24: MENU3DCOM.PAS.menupos3d_init ();
           0x00513692      4e56feb8       link.w a6, 0xfeb8
           0x00513696      bfd5           cmpa.l (a5), a7
       < 0x00513698      6206           bhi.b 0x5136a0
          0x0051369a      44fc0002       move.w 0x2, ccr
          0x0051369e      4e76           trapv
       > 0x005136a0      defc0146       adda.w 0x146, a7
           0x005136a4      48e7fff8       movem.l d0-d7/a0-a4, -(a7)
           0x005136a8      f227e001       fmovem fp0, -(a7)
            0x005136ac      45f90083d1cf   lea.l 0x83d1cf, a2
            0x005136b2      47f90083d1ce   lea.l 0x83d1ce, a3
            0x005136b8      7201           moveq 0x1, d1
            0x005136ba      7402           moveq 0x2, d2
            0x005136bc      7604           moveq 0x4, d3
            0x005136be      7803           moveq 0x3, d4
            0x005136c0      7a08           moveq 0x8, d5
            0x005136c2      7c10           moveq 0x10, d6
            0x005136c4      4213           clr.b (a3)
            0x005136c6      554f           subq.w 0x2, a7
            0x005136c8      4eb90052ada2   jsr BRUSH2COM.br_size_card
            0x005136ce      101f           move.b (a7)+, d0
            0x005136d0      b004           cmp.b d4, d0
        < 0x005136d2      6602           bne.b 0x5136d6
           0x005136d4      5213           addq.b 0x1, (a3)
        > 0x005136d6      4212           clr.b (a2)
            0x005136d8      554f           subq.w 0x2, a7
            0x005136da      4eb90052ada2   jsr BRUSH2COM.br_size_card
            0x005136e0      101f           move.b (a7)+, d0
            0x005136e2      4880           ext.w d0
            0x005136e4      013900509fc6   btst.l d0, 0x509fc6
        < 0x005136ea      6702           beq.b 0x5136ee
           0x005136ec      5212           addq.b 0x1, (a2)
        > 0x005136ee      4a12           tst.b (a2)
        < 0x005136f0      6764           beq.b 0x513756
           0x005136f2      554f           subq.w 0x2, a7
           0x005136f4      4227           clr.b -(a7)
           0x005136f6      4eb900474c44   jsr CONFIG.cfg_pb_options
           0x005136fc      544f           addq.w 0x2, a7
           0x005136fe      4a1f           tst.b (a7)+
       < 0x00513700      6710           beq.b 0x513712
          0x00513702      554f           subq.w 0x2, a7
          0x00513704      1f3c0009       move.b 0x9, -(a7)
          0x00513708      4eb900474c44   jsr CONFIG.cfg_pb_options
      > 0x0051370e      544f           addq.w 0x2, a7
     < 0x00513710      603c           bra.b 0x51374e
     > 0x00513712      554f           subq.w 0x2, a7
         0x00513714      4227           clr.b -(a7)
         0x00513716      4eb900474c8e   jsr CONFIG.cfg_pbx_options
         0x0051371c      544f           addq.w 0x2, a7
         0x0051371e      4a1f           tst.b (a7)+
     < 0x00513720      670e           beq.b 0x513730
        0x00513722      554f           subq.w 0x2, a7
        0x00513724      1f3c0009       move.b 0x9, -(a7)
        0x00513728      4eb900474c8e   jsr CONFIG.cfg_pbx_options
     < 0x0051372e      60de           bra.b 0x51370e
      > 0x00513730      554f           subq.w 0x2, a7
          0x00513732      4eb9004755c2   jsr CONFIG.cfg_gender
          0x00513738      101f           move.b (a7)+, d0
          0x0051373a      0c00000b       cmpi.b 0xb, d0
      < 0x0051373e      6616           bne.b 0x513756
         0x00513740      554f           subq.w 0x2, a7
         0x00513742      48780042       pea.l 0x42
         0x00513746      4eb900474af8   jsr CONFIG.cfg_option
         0x0051374c      584f           addq.w 0x4, a7
     > 0x0051374e      101f           move.b (a7)+, d0
          0x00513750      4880           ext.w d0
          0x00513752      4181           chk.w d1, d0
          0x00513754      1480           move.b d0, (a2)
       > 0x00513756      594f           subq.w 0x4, a7
            0x00513758      4eb90047b70e   jsr CNTLCOM.get_pen_info_pt
            0x0051375e      23df0083d1d0   move.l (a7)+, 0x83d1d0
            0x00513764      42390083d314   clr.b 0x83d314
            0x0051376a      4ebafd7c       jsr MENU3DCOM.PAS.pos3d_area_init(pc)
            0x0051376e      41f90083d1e4   lea.l 0x83d1e4, a0
            0x00513774      43f900509a72   lea.l 0x509a72, a1
            0x0051377a      7011           moveq 0x11, d0
        > 0x0051377c      20d9           move.l (a1)+, (a0)+
        < 0x0051377e      51c8fffc       dbra d0, 0x51377c
            0x00513782      594f           subq.w 0x4, a7
            0x00513784      4eb900402e30   jsr p_Cur_Ticks
            0x0051378a      23df0083e416   move.l (a7)+, 0x83e416
            0x00513790      42390083d30c   clr.b 0x83d30c
            0x00513796      42390083d2e4   clr.b 0x83d2e4
            0x0051379c      42390083d2df   clr.b 0x83d2df
            0x005137a2      23c10083d2da   move.l d1, 0x83d2da
            0x005137a8      42390083d2de   clr.b 0x83d2de
            0x005137ae      42790083d2e2   clr.w 0x83d2e2
            0x005137b4      7e00           moveq 0x0, d7
        > 0x005137b6      4887           ext.w d7
           0x005137b8      204b           movea.l a3, a0
           0x005137ba      42307072       clr.b 0x72(a0, d7.w)
           0x005137be      5207           addq.b 0x1, d7
           0x005137c0      0c07000f       cmpi.b 0xf, d7
        < 0x005137c4      6ff0           ble.b 0x5137b6
            0x005137c6      42390083d2df   clr.b 0x83d2df
            0x005137cc      42790083d2e0   clr.w 0x83d2e0
            0x005137d2      23f900509ca0.  move.l 0x509ca0, 0x83d308.l
            0x005137dc      4ebaa3e4       jsr MENU3DCOM.PAS.save_undo(pc)
            0x005137e0      42390083d336   clr.b 0x83d336
            0x005137e6      42790083d338   clr.w 0x83d338
            0x005137ec      42790083e408   clr.w 0x83e408
            0x005137f2      42790083e40c   clr.w 0x83e40c
            0x005137f8      42790083e40e   clr.w 0x83e40e
            0x005137fe      42790083e3fc   clr.w 0x83e3fc
            0x00513804      42790083e3c2   clr.w 0x83e3c2
            0x0051380a      42790083e406   clr.w 0x83e406
            0x00513810      42790083e396   clr.w 0x83e396
            0x00513816      42790083e398   clr.w 0x83e398
            0x0051381c      42790083e39a   clr.w 0x83e39a
            0x00513822      42790083e39c   clr.w 0x83e39c
            0x00513828      42790083e3a2   clr.w 0x83e3a2
            0x0051382e      42790083e3a4   clr.w 0x83e3a4
            0x00513834      42790083e39e   clr.w 0x83e39e
            0x0051383a      42790083e3a0   clr.w 0x83e3a0
            0x00513840      42790083e3a6   clr.w 0x83e3a6
            0x00513846      42790083e3a8   clr.w 0x83e3a8
            0x0051384c      42790083e3aa   clr.w 0x83e3aa
            0x00513852      42790083e3ac   clr.w 0x83e3ac
            0x00513858      42790083e3ae   clr.w 0x83e3ae
            0x0051385e      42790083e3b0   clr.w 0x83e3b0
            0x00513864      42790083e3b2   clr.w 0x83e3b2
            0x0051386a      42790083e3b6   clr.w 0x83e3b6
            0x00513870      42790083e3b8   clr.w 0x83e3b8
            0x00513876      42790083e3ba   clr.w 0x83e3ba
            0x0051387c      42790083e3bc   clr.w 0x83e3bc
            0x00513882      42790083e3be   clr.w 0x83e3be
            0x00513888      554f           subq.w 0x2, a7
            0x0051388a      4227           clr.b -(a7)
            0x0051388c      4eb900474c44   jsr CONFIG.cfg_pb_options
            0x00513892      544f           addq.w 0x2, a7
            0x00513894      4a1f           tst.b (a7)+
        < 0x00513896      6710           beq.b 0x5138a8
           0x00513898      554f           subq.w 0x2, a7
           0x0051389a      1f03           move.b d3, -(a7)
           0x0051389c      4eb900474c44   jsr CONFIG.cfg_pb_options
           0x005138a2      544f           addq.w 0x2, a7
           0x005138a4      4a1f           tst.b (a7)+
       < 0x005138a6      6720           beq.b 0x5138c8
       > 0x005138a8      554f           subq.w 0x2, a7
           0x005138aa      4227           clr.b -(a7)
           0x005138ac      4eb900474c8e   jsr CONFIG.cfg_pbx_options
           0x005138b2      544f           addq.w 0x2, a7
           0x005138b4      4a1f           tst.b (a7)+
       < 0x005138b6      6746           beq.b 0x5138fe
          0x005138b8      554f           subq.w 0x2, a7
          0x005138ba      1f03           move.b d3, -(a7)
          0x005138bc      4eb900474c8e   jsr CONFIG.cfg_pbx_options
          0x005138c2      544f           addq.w 0x2, a7
          0x005138c4      4a1f           tst.b (a7)+
      < 0x005138c6      6636           bne.b 0x5138fe
      > 0x005138c8      2f3900509fc8   move.l 0x509fc8, -(a7)
          0x005138ce      48790083e3fa   pea.l 0x83e3fa
          0x005138d4      3f3c0007       move.w 0x7, -(a7)
          0x005138d8      3f04           move.w d4, -(a7)
          0x005138da      3f3c0005       move.w 0x5, -(a7)
          0x005138de      3f01           move.w d1, -(a7)
          0x005138e0      1f05           move.b d5, -(a7)
          0x005138e2      1f02           move.b d2, -(a7)
          0x005138e4      3f2e0012       move.w 0x12(a6), -(a7)
          0x005138e8      4267           clr.w -(a7)
          0x005138ea      2f3900509c84   move.l 0x509c84, -(a7)
          0x005138f0      486f0018       pea.l 0x18(a7)
          0x005138f4      48780001       pea.l 0x1
          0x005138f8      48780004       pea.l 0x4
      < 0x005138fc      603c           bra.b 0x51393a
      > 0x005138fe      554f           subq.w 0x2, a7
           0x00513900      3f3900509fcd   move.w 0x509fcd, -(a7)
           0x00513906      1f7900509fcf.  move.b 0x509fcf, 0x2(a7)
           0x0051390e      48790083e3fa   pea.l 0x83e3fa
           0x00513914      3f3c000a       move.w 0xa, -(a7)
           0x00513918      3f04           move.w d4, -(a7)
           0x0051391a      3f02           move.w d2, -(a7)
           0x0051391c      3f01           move.w d1, -(a7)
           0x0051391e      1f05           move.b d5, -(a7)
           0x00513920      1f02           move.b d2, -(a7)
           0x00513922      3f2e0012       move.w 0x12(a6), -(a7)
           0x00513926      4267           clr.w -(a7)
           0x00513928      2f3900509c84   move.l 0x509c84, -(a7)
           0x0051392e      486f0018       pea.l 0x18(a7)
           0x00513932      48780001       pea.l 0x1
           0x00513936      48780003       pea.l 0x3
       > 0x0051393a      486d0010       pea.l 0x10(a5)
            0x0051393e      487ab824       pea.l MENU3DCOM.PAS.hit_num(pc)
            0x00513942      4eb900487aa6   jsr MENUCOM.new_box
            0x00513948      defc0030       adda.w 0x30, a7
            0x0051394c      3f390083e3fa   move.w 0x83e3fa, -(a7)
            0x00513952      9efc00fc       suba.w 0xfc, a7
            0x00513956      2f3900509fd0   move.l 0x509fd0, -(a7)
            0x0051395c      2f7900509fd4.  move.l 0x509fd4, 0x4(a7)
            0x00513964      1f7900509fd8.  move.b 0x509fd8, 0x8(a7)
            0x0051396c      4eb90048442e   jsr MENUCOM.set_box_macro_n
            0x00513972      defc0100       adda.w 0x100, a7
            0x00513976      3eb90083e3fa   move.w 0x83e3fa, (a7)
            0x0051397c      f23c40000000.  fmove.l 0x64, fp0
            0x00513984      f2276400       fmove.s fp0, -(a7)
            0x00513988      f23c40000000.  fmove.l 0x0, fp0
            0x00513990      f2276400       fmove.s fp0, -(a7)
            0x00513994      f23c40000000.  fmove.l 0x64, fp0
            0x0051399c      f2276400       fmove.s fp0, -(a7)
            0x005139a0      3f3cfffe       move.w 0xfffe, -(a7)
            0x005139a4      4267           clr.w -(a7)
            0x005139a6      4eb90048d4ae   jsr MENU2COM.make_numeric_bo
            0x005139ac      defc0012       adda.w 0x12, a7
            0x005139b0      4a12           tst.b (a2)
        < 0x005139b2      67001074       beq.w 0x514a28
           0x005139b6      487900509fda   pea.l 0x509fda
           0x005139bc      48780016       pea.l 0x16
           0x005139c0      2f17           move.l (a7), -(a7)
           0x005139c2      4eb9004047ea   jsr p_wts_o
           0x005139c8      defc000c       adda.w 0xc, a7
           0x005139cc      4eb900404946   jsr p_wtln_o
           0x005139d2      554f           subq.w 0x2, a7
           0x005139d4      2f3900509ff5   move.l 0x509ff5, -(a7)
           0x005139da      1f7900509ff9.  move.b 0x509ff9, 0x4(a7)
           0x005139e2      48790083e358   pea.l 0x83e358
           0x005139e8      3f3c000c       move.w 0xc, -(a7)
           0x005139ec      3f01           move.w d1, -(a7)
           0x005139ee      3f02           move.w d2, -(a7)
           0x005139f0      3f01           move.w d1, -(a7)
           0x005139f2      1f01           move.b d1, -(a7)
           0x005139f4      4227           clr.b -(a7)
           0x005139f6      3f2e0010       move.w 0x10(a6), -(a7)
           0x005139fa      4267           clr.w -(a7)
           0x005139fc      2f3900509ff0   move.l 0x509ff0, -(a7)
           0x00513a02      486f0018       pea.l 0x18(a7)
           0x00513a06      48780001       pea.l 0x1
           0x00513a0a      48780005       pea.l 0x5
           0x00513a0e      486d0010       pea.l 0x10(a5)
           0x00513a12      487ab414       pea.l MENU3DCOM.PAS.hit_3d(pc)
           0x00513a16      4eb900487aa6   jsr MENUCOM.new_box
           0x00513a1c      defc002e       adda.w 0x2e, a7
           0x00513a20      2eb900509ffd   move.l 0x509ffd, (a7)
           0x00513a26      3f3900509ffb   move.w 0x509ffb, -(a7)
           0x00513a2c      48790083e360   pea.l 0x83e360
           0x00513a32      3f3c000e       move.w 0xe, -(a7)
           0x00513a36      3f01           move.w d1, -(a7)
           0x00513a38      3f02           move.w d2, -(a7)
           0x00513a3a      3f01           move.w d1, -(a7)
           0x00513a3c      1f01           move.b d1, -(a7)
           0x00513a3e      4227           clr.b -(a7)
           0x00513a40      3f2e0010       move.w 0x10(a6), -(a7)
           0x00513a44      3f390083e358   move.w 0x83e358, -(a7)
           0x00513a4a      2f3900509c84   move.l 0x509c84, -(a7)
           0x00513a50      486f0018       pea.l 0x18(a7)
           0x00513a54      48780001       pea.l 0x1
           0x00513a58      48780006       pea.l 0x6
           0x00513a5c      486d0010       pea.l 0x10(a5)
           0x00513a60      487ab3c6       pea.l MENU3DCOM.PAS.hit_3d(pc)
           0x00513a64      4eb900487aa6   jsr MENUCOM.new_box
           0x00513a6a      defc002e       adda.w 0x2e, a7
           0x00513a6e      2eb90050a004   move.l 0x50a004, (a7)
           0x00513a74      3f390050a002   move.w 0x50a002, -(a7)
           0x00513a7a      48790083e372   pea.l 0x83e372
           0x00513a80      3f3c000c       move.w 0xc, -(a7)
           0x00513a84      3f02           move.w d2, -(a7)
           0x00513a86      3f02           move.w d2, -(a7)
           0x00513a88      3f01           move.w d1, -(a7)
           0x00513a8a      1f01           move.b d1, -(a7)
           0x00513a8c      4227           clr.b -(a7)
           0x00513a8e      3f2e0010       move.w 0x10(a6), -(a7)
           0x00513a92      3f390083e358   move.w 0x83e358, -(a7)
           0x00513a98      2f3900509c84   move.l 0x509c84, -(a7)
           0x00513a9e      486f0018       pea.l 0x18(a7)
           0x00513aa2      48780001       pea.l 0x1
           0x00513aa6      48780006       pea.l 0x6
           0x00513aaa      486d0010       pea.l 0x10(a5)
           0x00513aae      487ab378       pea.l MENU3DCOM.PAS.hit_3d(pc)
           0x00513ab2      4eb900487aa6   jsr MENUCOM.new_box
           0x00513ab8      defc002e       adda.w 0x2e, a7
           0x00513abc      3eb90050a00d   move.w 0x50a00d, (a7)
           0x00513ac2      1f790050a00f.  move.b 0x50a00f, 0x2(a7)
           0x00513aca      48790083e3f8   pea.l 0x83e3f8
           0x00513ad0      4267           clr.w -(a7)
           0x00513ad2      4267           clr.w -(a7)
           0x00513ad4      4267           clr.w -(a7)
           0x00513ad6      4267           clr.w -(a7)
           0x00513ad8      1f01           move.b d1, -(a7)
           0x00513ada      4227           clr.b -(a7)
           0x00513adc      3f390083e358   move.w 0x83e358, -(a7)
           0x00513ae2      4267           clr.w -(a7)
           0x00513ae4      2f390050a008   move.l 0x50a008, -(a7)
           0x00513aea      486f0018       pea.l 0x18(a7)
           0x00513aee      48780001       pea.l 0x1
           0x00513af2      48780003       pea.l 0x3
           0x00513af6      486d0010       pea.l 0x10(a5)
           0x00513afa      487900481fee   pea.l MENUCOM.hit_nothing
           0x00513b00      4eb900487aa6   jsr MENUCOM.new_box
           0x00513b06      defc002e       adda.w 0x2e, a7
           0x00513b0a      3eb90083e360   move.w 0x83e360, (a7)
           0x00513b10      3f390083e3f8   move.w 0x83e3f8, -(a7)
           0x00513b16      4eb900486f94   jsr MENUCOM.add_slave
           0x00513b1c      544f           addq.w 0x2, a7
           0x00513b1e      3eb90083e372   move.w 0x83e372, (a7)
           0x00513b24      3f390083e3f8   move.w 0x83e3f8, -(a7)
           0x00513b2a      4eb900486f94   jsr MENUCOM.add_slave
           0x00513b30      3eb90050a011   move.w 0x50a011, (a7)
           0x00513b36      1f790050a013.  move.b 0x50a013, 0x2(a7)
           0x00513b3e      3f3c007f       move.w 0x7f, -(a7)
           0x00513b42      3f3c000e       move.w 0xe, -(a7)
           0x00513b46      3f02           move.w d2, -(a7)
           0x00513b48      3f02           move.w d2, -(a7)
           0x00513b4a      3f01           move.w d1, -(a7)
           0x00513b4c      1f01           move.b d1, -(a7)
           0x00513b4e      4227           clr.b -(a7)
           0x00513b50      3f2e0010       move.w 0x10(a6), -(a7)
           0x00513b54      3f390083e358   move.w 0x83e358, -(a7)
           0x00513b5a      2f3900509c84   move.l 0x509c84, -(a7)
           0x00513b60      486f0016       pea.l 0x16(a7)
           0x00513b64      48780001       pea.l 0x1
           0x00513b68      48780003       pea.l 0x3
           0x00513b6c      486d0010       pea.l 0x10(a5)
           0x00513b70      487ab2b6       pea.l MENU3DCOM.PAS.hit_3d(pc)
           0x00513b74      4eb900487686   jsr MENUCOM.def_box
           0x00513b7a      defc002a       adda.w 0x2a, a7
           0x00513b7e      2eb90050a017   move.l 0x50a017, (a7)
           0x00513b84      3f390050a015   move.w 0x50a015, -(a7)
           0x00513b8a      3f3c0080       move.w 0x80, -(a7)
           0x00513b8e      3f06           move.w d6, -(a7)
           0x00513b90      3f02           move.w d2, -(a7)
           0x00513b92      3f03           move.w d3, -(a7)
           0x00513b94      3f01           move.w d1, -(a7)
           0x00513b96      1f02           move.b d2, -(a7)
           0x00513b98      4227           clr.b -(a7)
           0x00513b9a      3f390083e358   move.w 0x83e358, -(a7)
           0x00513ba0      4267           clr.w -(a7)
           0x00513ba2      2f3900509c84   move.l 0x509c84, -(a7)
           0x00513ba8      486f0016       pea.l 0x16(a7)
           0x00513bac      48780001       pea.l 0x1
           0x00513bb0      48780006       pea.l 0x6
           0x00513bb4      486d0010       pea.l 0x10(a5)
           0x00513bb8      487ab26e       pea.l MENU3DCOM.PAS.hit_3d(pc)
           0x00513bbc      4eb900487686   jsr MENUCOM.def_box
           0x00513bc2      defc002e       adda.w 0x2e, a7
           0x00513bc6      3eb90083e360   move.w 0x83e360, (a7)
           0x00513bcc      3f3c0080       move.w 0x80, -(a7)
           0x00513bd0      4eb900486f94   jsr MENUCOM.add_slave
           0x00513bd6      544f           addq.w 0x2, a7
           0x00513bd8      3eb90083e372   move.w 0x83e372, (a7)
           0x00513bde      3f3c0080       move.w 0x80, -(a7)
           0x00513be2      4eb900486f94   jsr MENUCOM.add_slave
           0x00513be8      2eb90050a024   move.l 0x50a024, (a7)
           0x00513bee      2f390050a020   move.l 0x50a020, -(a7)
           0x00513bf4      2f390050a01c   move.l 0x50a01c, -(a7)
           0x00513bfa      48790083e37a   pea.l 0x83e37a
           0x00513c00      3f3c0014       move.w 0x14, -(a7)
           0x00513c04      3f02           move.w d2, -(a7)
           0x00513c06      3f03           move.w d3, -(a7)
           0x00513c08      3f01           move.w d1, -(a7)
           0x00513c0a      1f02           move.b d2, -(a7)
           0x00513c0c      4227           clr.b -(a7)
           0x00513c0e      3f390083e358   move.w 0x83e358, -(a7)
           0x00513c14      4267           clr.w -(a7)
           0x00513c16      2f3900509c84   move.l 0x509c84, -(a7)
           0x00513c1c      486f0018       pea.l 0x18(a7)
           0x00513c20      48780001       pea.l 0x1
           0x00513c24      4878000c       pea.l 0xc
           0x00513c28      486d0010       pea.l 0x10(a5)
           0x00513c2c      487ab1fa       pea.l MENU3DCOM.PAS.hit_3d(pc)
           0x00513c30      4eb900487aa6   jsr MENUCOM.new_box
           0x00513c36      defc0034       adda.w 0x34, a7
           0x00513c3a      2eb90050a02b   move.l 0x50a02b, (a7)
           0x00513c40      3f390050a029   move.w 0x50a029, -(a7)
           0x00513c46      48790083e37c   pea.l 0x83e37c
           0x00513c4c      3f3c0018       move.w 0x18, -(a7)
           0x00513c50      3f02           move.w d2, -(a7)
           0x00513c52      3f03           move.w d3, -(a7)
           0x00513c54      3f01           move.w d1, -(a7)
           0x00513c56      1f02           move.b d2, -(a7)
           0x00513c58      4227           clr.b -(a7)
           0x00513c5a      3f390083e358   move.w 0x83e358, -(a7)
           0x00513c60      3f390083e37a   move.w 0x83e37a, -(a7)
           0x00513c66      2f3900509c84   move.l 0x509c84, -(a7)
           0x00513c6c      486f0018       pea.l 0x18(a7)
           0x00513c70      48780001       pea.l 0x1
           0x00513c74      48780006       pea.l 0x6
           0x00513c78      486d0010       pea.l 0x10(a5)
           0x00513c7c      487ab1aa       pea.l MENU3DCOM.PAS.hit_3d(pc)
           0x00513c80      4eb900487aa6   jsr MENUCOM.new_box
           0x00513c86      defc002a       adda.w 0x2a, a7
           0x00513c8a      2eb90050a030   move.l 0x50a030, (a7)
           0x00513c90      3f790050a034.  move.w 0x50a034, 0x4(a7)
           0x00513c98      1f790050a036.  move.b 0x50a036, 0x6(a7)
           0x00513ca0      48790083e40a   pea.l 0x83e40a
           0x00513ca6      3f06           move.w d6, -(a7)
           0x00513ca8      3f04           move.w d4, -(a7)
           0x00513caa      3f02           move.w d2, -(a7)
           0x00513cac      3f01           move.w d1, -(a7)
           0x00513cae      1f02           move.b d2, -(a7)
           0x00513cb0      4227           clr.b -(a7)
           0x00513cb2      3f390083e3f8   move.w 0x83e3f8, -(a7)
           0x00513cb8      4267           clr.w -(a7)
           0x00513cba      2f3900509c84   move.l 0x509c84, -(a7)
           0x00513cc0      486f0018       pea.l 0x18(a7)
           0x00513cc4      48780001       pea.l 0x1
           0x00513cc8      48780007       pea.l 0x7
           0x00513ccc      486d0010       pea.l 0x10(a5)
           0x00513cd0      487ac2ac       pea.l MENU3DCOM.PAS.hit_front_back(pc)
           0x00513cd4      4eb900487aa6   jsr MENUCOM.new_box
           0x00513cda      defc0030       adda.w 0x30, a7
           0x00513cde      2eb90050a03a   move.l 0x50a03a, (a7)
           0x00513ce4      3f390050a038   move.w 0x50a038, -(a7)
           0x00513cea      48790083e40c   pea.l 0x83e40c
           0x00513cf0      3f3c0012       move.w 0x12, -(a7)
           0x00513cf4      3f04           move.w d4, -(a7)
           0x00513cf6      3f02           move.w d2, -(a7)
           0x00513cf8      3f01           move.w d1, -(a7)
           0x00513cfa      1f02           move.b d2, -(a7)
           0x00513cfc      4227           clr.b -(a7)
           0x00513cfe      3f390083e3f8   move.w 0x83e3f8, -(a7)
           0x00513d04      3f390083e40a   move.w 0x83e40a, -(a7)
           0x00513d0a      2f3900509c84   move.l 0x509c84, -(a7)
           0x00513d10      486f0018       pea.l 0x18(a7)
           0x00513d14      48780001       pea.l 0x1
           0x00513d18      48780006       pea.l 0x6
           0x00513d1c      486d0010       pea.l 0x10(a5)
           0x00513d20      487ac25c       pea.l MENU3DCOM.PAS.hit_front_back(pc)
           0x00513d24      4eb900487aa6   jsr MENUCOM.new_box
           0x00513d2a      defc002e       adda.w 0x2e, a7
           0x00513d2e      2eb90050a041   move.l 0x50a041, (a7)
           0x00513d34      3f390050a03f   move.w 0x50a03f, -(a7)
           0x00513d3a      48790083e408   pea.l 0x83e408
           0x00513d40      3f3c0014       move.w 0x14, -(a7)
           0x00513d44      3f04           move.w d4, -(a7)
           0x00513d46      3f02           move.w d2, -(a7)
           0x00513d48      3f01           move.w d1, -(a7)
           0x00513d4a      1f02           move.b d2, -(a7)
           0x00513d4c      4227           clr.b -(a7)
           0x00513d4e      3f390083e3f8   move.w 0x83e3f8, -(a7)
           0x00513d54      3f390083e40a   move.w 0x83e40a, -(a7)
           0x00513d5a      2f3900509c84   move.l 0x509c84, -(a7)
           0x00513d60      486f0018       pea.l 0x18(a7)
           0x00513d64      48780001       pea.l 0x1
           0x00513d68      48780006       pea.l 0x6
           0x00513d6c      486d0010       pea.l 0x10(a5)
           0x00513d70      487ac20c       pea.l MENU3DCOM.PAS.hit_front_back(pc)
           0x00513d74      4eb900487aa6   jsr MENUCOM.new_box
           0x00513d7a      defc002e       adda.w 0x2e, a7
           0x00513d7e      2eb90050a048   move.l 0x50a048, (a7)
           0x00513d84      3f390050a046   move.w 0x50a046, -(a7)
           0x00513d8a      48790083e40e   pea.l 0x83e40e
           0x00513d90      3f3c0016       move.w 0x16, -(a7)
           0x00513d94      3f04           move.w d4, -(a7)
           0x00513d96      3f02           move.w d2, -(a7)
           0x00513d98      3f01           move.w d1, -(a7)
           0x00513d9a      1f02           move.b d2, -(a7)
           0x00513d9c      4227           clr.b -(a7)
           0x00513d9e      3f390083e3f8   move.w 0x83e3f8, -(a7)
           0x00513da4      3f390083e40a   move.w 0x83e40a, -(a7)
           0x00513daa      2f3900509c84   move.l 0x509c84, -(a7)
           0x00513db0      486f0018       pea.l 0x18(a7)
           0x00513db4      48780001       pea.l 0x1
           0x00513db8      48780006       pea.l 0x6
           0x00513dbc      486d0010       pea.l 0x10(a5)
           0x00513dc0      487ac1bc       pea.l MENU3DCOM.PAS.hit_front_back(pc)
           0x00513dc4      4eb900487aa6   jsr MENUCOM.new_box
           0x00513dca      defc002e       adda.w 0x2e, a7
           0x00513dce      2eb90050a053   move.l 0x50a053, (a7)
           0x00513dd4      3f390050a051   move.w 0x50a051, -(a7)
           0x00513dda      48790083e402   pea.l 0x83e402
           0x00513de0      3f06           move.w d6, -(a7)
           0x00513de2      3f03           move.w d3, -(a7)
           0x00513de4      3f03           move.w d3, -(a7)
           0x00513de6      3f01           move.w d1, -(a7)
           0x00513de8      1f02           move.b d2, -(a7)
           0x00513dea      4227           clr.b -(a7)
           0x00513dec      3f390083e358   move.w 0x83e358, -(a7)
           0x00513df2      4267           clr.w -(a7)
           0x00513df4      2f390050a04c   move.l 0x50a04c, -(a7)
           0x00513dfa      486f0018       pea.l 0x18(a7)
           0x00513dfe      48780001       pea.l 0x1
           0x00513e02      48780006       pea.l 0x6
           0x00513e06      486d0010       pea.l 0x10(a5)
           0x00513e0a      487ac24c       pea.l MENU3DCOM.PAS.hit_attach(pc)
           0x00513e0e      4eb900487aa6   jsr MENUCOM.new_box
           0x00513e14      defc002e       adda.w 0x2e, a7
           0x00513e18      2eb90050a05f   move.l 0x50a05f, (a7)
           0x00513e1e      3f390050a05d   move.w 0x50a05d, -(a7)
           0x00513e24      48790083e404   pea.l 0x83e404
           0x00513e2a      3f06           move.w d6, -(a7)
           0x00513e2c      3f03           move.w d3, -(a7)
           0x00513e2e      3f03           move.w d3, -(a7)
           0x00513e30      3f01           move.w d1, -(a7)
           0x00513e32      1f3c0005       move.b 0x5, -(a7)
           0x00513e36      4227           clr.b -(a7)
           0x00513e38      3f390083e358   move.w 0x83e358, -(a7)
           0x00513e3e      4267           clr.w -(a7)
           0x00513e40      2f390050a058   move.l 0x50a058, -(a7)
           0x00513e46      486f0018       pea.l 0x18(a7)
           0x00513e4a      48780001       pea.l 0x1
           0x00513e4e      48780006       pea.l 0x6
           0x00513e52      486d0010       pea.l 0x10(a5)
           0x00513e56      487ac194       pea.l MENU3DCOM.PAS.hit_detach(pc)
           0x00513e5a      4eb900487aa6   jsr MENUCOM.new_box
           0x00513e60      defc0030       adda.w 0x30, a7
           0x00513e64      4eb9004755c2   jsr CONFIG.cfg_gender
           0x00513e6a      101f           move.b (a7)+, d0
           0x00513e6c      0c00000b       cmpi.b 0xb, d0
       < 0x00513e70      660000fa       bne.w 0x513f6c
          0x00513e74      2f390050a06a   move.l 0x50a06a, -(a7)
          0x00513e7a      2f390050a066   move.l 0x50a066, -(a7)
          0x00513e80      3f390050a064   move.w 0x50a064, -(a7)
          0x00513e86      48790083e394   pea.l 0x83e394
          0x00513e8c      3f3c0014       move.w 0x14, -(a7)
          0x00513e90      3f03           move.w d3, -(a7)
          0x00513e92      3f03           move.w d3, -(a7)
          0x00513e94      3f01           move.w d1, -(a7)
          0x00513e96      1f3c0005       move.b 0x5, -(a7)
          0x00513e9a      4227           clr.b -(a7)
          0x00513e9c      3f390083e358   move.w 0x83e358, -(a7)
          0x00513ea2      4267           clr.w -(a7)
          0x00513ea4      2f3900509c84   move.l 0x509c84, -(a7)
          0x00513eaa      486f0018       pea.l 0x18(a7)
          0x00513eae      48780001       pea.l 0x1
          0x00513eb2      4878000a       pea.l 0xa
          0x00513eb6      486d0010       pea.l 0x10(a5)
          0x00513eba      487ac25c       pea.l MENU3DCOM.PAS.hit_alf(pc)
          0x00513ebe      4eb900487aa6   jsr MENUCOM.new_box
          0x00513ec4      defc0032       adda.w 0x32, a7
          0x00513ec8      2eb90050a075   move.l 0x50a075, (a7)
          0x00513ece      2f390050a071   move.l 0x50a071, -(a7)
          0x00513ed4      3f390050a06f   move.w 0x50a06f, -(a7)
          0x00513eda      48790083e392   pea.l 0x83e392
          0x00513ee0      3f3c0018       move.w 0x18, -(a7)
          0x00513ee4      3f03           move.w d3, -(a7)
          0x00513ee6      3f03           move.w d3, -(a7)
          0x00513ee8      3f01           move.w d1, -(a7)
          0x00513eea      1f3c0005       move.b 0x5, -(a7)
          0x00513eee      4227           clr.b -(a7)
          0x00513ef0      3f390083e358   move.w 0x83e358, -(a7)
          0x00513ef6      4267           clr.w -(a7)
          0x00513ef8      2f3900509c84   move.l 0x509c84, -(a7)
          0x00513efe      486f0018       pea.l 0x18(a7)
          0x00513f02      48780001       pea.l 0x1
          0x00513f06      4878000a       pea.l 0xa
          0x00513f0a      486d0010       pea.l 0x10(a5)
          0x00513f0e      487ac208       pea.l MENU3DCOM.PAS.hit_alf(pc)
          0x00513f12      4eb900487aa6   jsr MENUCOM.new_box
          0x00513f18      defc0032       adda.w 0x32, a7
          0x00513f1c      2eb90050a080   move.l 0x50a080, (a7)
          0x00513f22      2f390050a07c   move.l 0x50a07c, -(a7)
          0x00513f28      3f390050a07a   move.w 0x50a07a, -(a7)
          0x00513f2e      48790083e390   pea.l 0x83e390
          0x00513f34      3f06           move.w d6, -(a7)
          0x00513f36      3f03           move.w d3, -(a7)
          0x00513f38      3f03           move.w d3, -(a7)
          0x00513f3a      3f01           move.w d1, -(a7)
          0x00513f3c      1f3c0005       move.b 0x5, -(a7)
          0x00513f40      4227           clr.b -(a7)
          0x00513f42      3f3c007f       move.w 0x7f, -(a7)
          0x00513f46      4267           clr.w -(a7)
          0x00513f48      2f3900509c84   move.l 0x509c84, -(a7)
          0x00513f4e      486f0018       pea.l 0x18(a7)
          0x00513f52      48780001       pea.l 0x1
          0x00513f56      4878000a       pea.l 0xa
          0x00513f5a      486d0010       pea.l 0x10(a5)
          0x00513f5e      487ac1b8       pea.l MENU3DCOM.PAS.hit_alf(pc)
          0x00513f62      4eb900487aa6   jsr MENUCOM.new_box
          0x00513f68      defc0036       adda.w 0x36, a7
       > 0x00513f6c      4a13           tst.b (a3)
       < 0x00513f6e      67000a1c       beq.w 0x51498c
          0x00513f72      554f           subq.w 0x2, a7
          0x00513f74      2f390050a085   move.l 0x50a085, -(a7)
          0x00513f7a      1f790050a089.  move.b 0x50a089, 0x4(a7)
          0x00513f82      48790083e3c2   pea.l 0x83e3c2
          0x00513f88      3f3c000c       move.w 0xc, -(a7)
          0x00513f8c      3f04           move.w d4, -(a7)
          0x00513f8e      3f02           move.w d2, -(a7)
          0x00513f90      3f01           move.w d1, -(a7)
          0x00513f92      1f01           move.b d1, -(a7)
          0x00513f94      4227           clr.b -(a7)
          0x00513f96      3f2e0010       move.w 0x10(a6), -(a7)
          0x00513f9a      3f390083e358   move.w 0x83e358, -(a7)
          0x00513fa0      2f3900509c84   move.l 0x509c84, -(a7)
          0x00513fa6      486f0018       pea.l 0x18(a7)
          0x00513faa      48780001       pea.l 0x1
          0x00513fae      48780005       pea.l 0x5
          0x00513fb2      486d0010       pea.l 0x10(a5)
          0x00513fb6      487aae70       pea.l MENU3DCOM.PAS.hit_3d(pc)
          0x00513fba      4eb900487aa6   jsr MENUCOM.new_box
          0x00513fc0      defc002e       adda.w 0x2e, a7
          0x00513fc4      3eb90050a08b   move.w 0x50a08b, (a7)
          0x00513fca      1f790050a08d.  move.b 0x50a08d, 0x2(a7)
          0x00513fd2      48790083e3ac   pea.l 0x83e3ac
          0x00513fd8      3f3c000e       move.w 0xe, -(a7)
          0x00513fdc      3f04           move.w d4, -(a7)
          0x00513fde      3f02           move.w d2, -(a7)
          0x00513fe0      3f01           move.w d1, -(a7)
          0x00513fe2      1f01           move.b d1, -(a7)
          0x00513fe4      4227           clr.b -(a7)
          0x00513fe6      3f2e0010       move.w 0x10(a6), -(a7)
          0x00513fea      3f390083e358   move.w 0x83e358, -(a7)
          0x00513ff0      2f3900509c84   move.l 0x509c84, -(a7)
          0x00513ff6      486f0018       pea.l 0x18(a7)
          0x00513ffa      48780001       pea.l 0x1
          0x00513ffe      48780003       pea.l 0x3
          0x00514002      486d0010       pea.l 0x10(a5)
          0x00514006      487aae20       pea.l MENU3DCOM.PAS.hit_3d(pc)
          0x0051400a      4eb900487aa6   jsr MENUCOM.new_box
          0x00514010      defc002c       adda.w 0x2c, a7
          0x00514014      2eb90050a091   move.l 0x50a091, (a7)
          0x0051401a      3f390050a08f   move.w 0x50a08f, -(a7)
          0x00514020      48790083e3fc   pea.l 0x83e3fc
          0x00514026      3f3c000c       move.w 0xc, -(a7)
          0x0051402a      3f03           move.w d3, -(a7)
          0x0051402c      3f02           move.w d2, -(a7)
          0x0051402e      3f01           move.w d1, -(a7)
          0x00514030      1f3c0005       move.b 0x5, -(a7)
          0x00514034      4227           clr.b -(a7)
          0x00514036      3f2e0010       move.w 0x10(a6), -(a7)
          0x0051403a      4267           clr.w -(a7)
          0x0051403c      2f3900509c84   move.l 0x509c84, -(a7)
          0x00514042      486f0018       pea.l 0x18(a7)
          0x00514046      48780001       pea.l 0x1
          0x0051404a      48780006       pea.l 0x6
          0x0051404e      486d0010       pea.l 0x10(a5)
          0x00514052      487a9c4a       pea.l MENU3DCOM.PAS.hit_undo(pc)
          0x00514056      4eb900487aa6   jsr MENUCOM.new_box
          0x0051405c      defc002e       adda.w 0x2e, a7
          0x00514060      2eb90050a098   move.l 0x50a098, (a7)
          0x00514066      3f390050a096   move.w 0x50a096, -(a7)
          0x0051406c      48790083e396   pea.l 0x83e396
          0x00514072      3f3c000e       move.w 0xe, -(a7)
          0x00514076      3f03           move.w d3, -(a7)
          0x00514078      3f02           move.w d2, -(a7)
          0x0051407a      3f01           move.w d1, -(a7)
          0x0051407c      1f01           move.b d1, -(a7)
          0x0051407e      4227           clr.b -(a7)
          0x00514080      3f2e0010       move.w 0x10(a6), -(a7)
          0x00514084      3f390083e358   move.w 0x83e358, -(a7)
          0x0051408a      2f3900509c84   move.l 0x509c84, -(a7)
          0x00514090      486f0018       pea.l 0x18(a7)
          0x00514094      48780001       pea.l 0x1
          0x00514098      48780006       pea.l 0x6
          0x0051409c      486d0010       pea.l 0x10(a5)
          0x005140a0      487aad86       pea.l MENU3DCOM.PAS.hit_3d(pc)
          0x005140a4      4eb900487aa6   jsr MENUCOM.new_box
          0x005140aa      defc0030       adda.w 0x30, a7
          0x005140ae      3eb90050a09d   move.w 0x50a09d, (a7)
          0x005140b4      48790083e3ae   pea.l 0x83e3ae
          0x005140ba      3f06           move.w d6, -(a7)
          0x005140bc      3f01           move.w d1, -(a7)
          0x005140be      3f02           move.w d2, -(a7)
          0x005140c0      3f01           move.w d1, -(a7)
          0x005140c2      1f02           move.b d2, -(a7)
          0x005140c4      1f3c0006       move.b 0x6, -(a7)
          0x005140c8      3f390083e3ac   move.w 0x83e3ac, -(a7)
          0x005140ce      4267           clr.w -(a7)
          0x005140d0      2f3900509c84   move.l 0x509c84, -(a7)
          0x005140d6      486f0018       pea.l 0x18(a7)
          0x005140da      48780001       pea.l 0x1
          0x005140de      48780002       pea.l 0x2
          0x005140e2      486d0010       pea.l 0x10(a5)
          0x005140e6      487a9f6c       pea.l MENU3DCOM.PAS.hit_light(pc)
          0x005140ea      4eb900487aa6   jsr MENUCOM.new_box
          0x005140f0      defc002c       adda.w 0x2c, a7
          0x005140f4      3eb90083e3ae   move.w 0x83e3ae, (a7)
          0x005140fa      2f3900509a0e   move.l 0x509a0e, -(a7)
          0x00514100      3f3900509a0c   move.w 0x509a0c, -(a7)
          0x00514106      4eb900484148   jsr MENUCOM.set_boxcol
          0x0051410c      5c4f           addq.w 0x6, a7
          0x0051410e      3eb90050a0a0   move.w 0x50a0a0, (a7)
          0x00514114      48790083e3b0   pea.l 0x83e3b0
          0x0051411a      3f3c0012       move.w 0x12, -(a7)
          0x0051411e      3f01           move.w d1, -(a7)
          0x00514120      3f04           move.w d4, -(a7)
          0x00514122      3f01           move.w d1, -(a7)
          0x00514124      1f3c0009       move.b 0x9, -(a7)
          0x00514128      1f02           move.b d2, -(a7)
          0x0051412a      3f390083e3ae   move.w 0x83e3ae, -(a7)
          0x00514130      4267           clr.w -(a7)
          0x00514132      2f3900509c84   move.l 0x509c84, -(a7)
          0x00514138      486f0018       pea.l 0x18(a7)
          0x0051413c      48780001       pea.l 0x1
          0x00514140      48780002       pea.l 0x2
          0x00514144      486d0010       pea.l 0x10(a5)
          0x00514148      487aa25c       pea.l MENU3DCOM.PAS.hit_light_num(pc)
          0x0051414c      4eb900487aa6   jsr MENUCOM.new_box
          0x00514152      defc002c       adda.w 0x2c, a7
          0x00514156      3eb90083e3b0   move.w 0x83e3b0, (a7)
          0x0051415c      f23c40000000.  fmove.l 0x32, fp0
          0x00514164      f2276400       fmove.s fp0, -(a7)
          0x00514168      f23c40000000.  fmove.l 0x0, fp0
          0x00514170      f2276400       fmove.s fp0, -(a7)
          0x00514174      f23c40000000.  fmove.l 0x64, fp0
          0x0051417c      f2276400       fmove.s fp0, -(a7)
          0x00514180      3f3cfffd       move.w 0xfffd, -(a7)
          0x00514184      4267           clr.w -(a7)
          0x00514186      4eb90048d4ae   jsr MENU2COM.make_numeric_bo
          0x0051418c      defc000e       adda.w 0xe, a7
          0x00514190      3eb90050a0a3   move.w 0x50a0a3, (a7)
          0x00514196      1f790050a0a5.  move.b 0x50a0a5, 0x2(a7)
          0x0051419e      48790083e3b2   pea.l 0x83e3b2
          0x005141a4      3f06           move.w d6, -(a7)
          0x005141a6      3f02           move.w d2, -(a7)
          0x005141a8      3f02           move.w d2, -(a7)
          0x005141aa      3f01           move.w d1, -(a7)
          0x005141ac      1f02           move.b d2, -(a7)
          0x005141ae      1f3c0006       move.b 0x6, -(a7)
          0x005141b2      3f390083e3ac   move.w 0x83e3ac, -(a7)
          0x005141b8      4267           clr.w -(a7)
          0x005141ba      2f3900509c84   move.l 0x509c84, -(a7)
          0x005141c0      486f0018       pea.l 0x18(a7)
          0x005141c4      48780001       pea.l 0x1
          0x005141c8      48780003       pea.l 0x3
          0x005141cc      486d0010       pea.l 0x10(a5)
          0x005141d0      487a9e82       pea.l MENU3DCOM.PAS.hit_light(pc)
          0x005141d4      4eb900487aa6   jsr MENUCOM.new_box
          0x005141da      defc002e       adda.w 0x2e, a7
          0x005141de      3eb90083e3b2   move.w 0x83e3b2, (a7)
          0x005141e4      2f3900509a0e   move.l 0x509a0e, -(a7)
          0x005141ea      3f3900509a0c   move.w 0x509a0c, -(a7)
          0x005141f0      4eb900484148   jsr MENUCOM.set_boxcol
          0x005141f6      5c4f           addq.w 0x6, a7
          0x005141f8      3eb90050a0a7   move.w 0x50a0a7, (a7)
          0x005141fe      48790083e3b6   pea.l 0x83e3b6
          0x00514204      3f3c0012       move.w 0x12, -(a7)
          0x00514208      3f02           move.w d2, -(a7)
          0x0051420a      3f04           move.w d4, -(a7)
          0x0051420c      3f01           move.w d1, -(a7)
          0x0051420e      1f3c0009       move.b 0x9, -(a7)
          0x00514212      1f02           move.b d2, -(a7)
          0x00514214      3f390083e3b2   move.w 0x83e3b2, -(a7)
          0x0051421a      4267           clr.w -(a7)
          0x0051421c      2f3900509c84   move.l 0x509c84, -(a7)
          0x00514222      486f0018       pea.l 0x18(a7)
          0x00514226      48780001       pea.l 0x1
          0x0051422a      48780002       pea.l 0x2
          0x0051422e      486d0010       pea.l 0x10(a5)
          0x00514232      487aa172       pea.l MENU3DCOM.PAS.hit_light_num(pc)
          0x00514236      4eb900487aa6   jsr MENUCOM.new_box
          0x0051423c      defc002c       adda.w 0x2c, a7
          0x00514240      3eb90083e3b6   move.w 0x83e3b6, (a7)
          0x00514246      f23c40000000.  fmove.l 0x32, fp0
          0x0051424e      f2276400       fmove.s fp0, -(a7)
          0x00514252      f23c40000000.  fmove.l 0x0, fp0
          0x0051425a      f2276400       fmove.s fp0, -(a7)
          0x0051425e      f23c40000000.  fmove.l 0x64, fp0
          0x00514266      f2276400       fmove.s fp0, -(a7)
          0x0051426a      3f3cfffd       move.w 0xfffd, -(a7)
          0x0051426e      4267           clr.w -(a7)
          0x00514270      4eb90048d4ae   jsr MENU2COM.make_numeric_bo
          0x00514276      dec6           adda.w d6, a7
          0x00514278      3eb90050a0aa   move.w 0x50a0aa, (a7)
          0x0051427e      48790083e3b8   pea.l 0x83e3b8
          0x00514284      3f3c0015       move.w 0x15, -(a7)
          0x00514288      3f02           move.w d2, -(a7)
          0x0051428a      3f04           move.w d4, -(a7)
          0x0051428c      3f01           move.w d1, -(a7)
          0x0051428e      1f05           move.b d5, -(a7)
          0x00514290      1f02           move.b d2, -(a7)
          0x00514292      3f390083e3b2   move.w 0x83e3b2, -(a7)
          0x00514298      4267           clr.w -(a7)
          0x0051429a      2f3900509c84   move.l 0x509c84, -(a7)
          0x005142a0      486f0018       pea.l 0x18(a7)
          0x005142a4      48780001       pea.l 0x1
          0x005142a8      48780002       pea.l 0x2
          0x005142ac      486d0010       pea.l 0x10(a5)
          0x005142b0      487aa0f4       pea.l MENU3DCOM.PAS.hit_light_num(pc)
          0x005142b4      4eb900487aa6   jsr MENUCOM.new_box
          0x005142ba      defc002c       adda.w 0x2c, a7
          0x005142be      3eb90083e3b8   move.w 0x83e3b8, (a7)
          0x005142c4      f2014000       fmove.l d1, fp0
          0x005142c8      f2276400       fmove.s fp0, -(a7)
          0x005142cc      f2014000       fmove.l d1, fp0
          0x005142d0      f2276400       fmove.s fp0, -(a7)
          0x005142d4      f23c40000000.  fmove.l 0x64, fp0
          0x005142dc      f2276400       fmove.s fp0, -(a7)
          0x005142e0      3f3cfffd       move.w 0xfffd, -(a7)
          0x005142e4      4267           clr.w -(a7)
          0x005142e6      4eb90048d4ae   jsr MENU2COM.make_numeric_bo
          0x005142ec      dec6           adda.w d6, a7
          0x005142ee      3eb90050a0ad   move.w 0x50a0ad, (a7)
          0x005142f4      48790083e3b4   pea.l 0x83e3b4
          0x005142fa      3f3c0018       move.w 0x18, -(a7)
          0x005142fe      3f02           move.w d2, -(a7)
          0x00514300      3f01           move.w d1, -(a7)
          0x00514302      3f01           move.w d1, -(a7)
          0x00514304      1f3c000e       move.b 0xe, -(a7)
          0x00514308      1f3c0006       move.b 0x6, -(a7)
          0x0051430c      3f390083e3b2   move.w 0x83e3b2, -(a7)
          0x00514312      4267           clr.w -(a7)
          0x00514314      2f3900509c84   move.l 0x509c84, -(a7)
          0x0051431a      486f0018       pea.l 0x18(a7)
          0x0051431e      48780001       pea.l 0x1
          0x00514322      48780002       pea.l 0x2
          0x00514326      486d0010       pea.l 0x10(a5)
          0x0051432a      487a9d28       pea.l MENU3DCOM.PAS.hit_light(pc)
          0x0051432e      4eb900487aa6   jsr MENUCOM.new_box
          0x00514334      defc002c       adda.w 0x2c, a7
          0x00514338      3eb90083e3b4   move.w 0x83e3b4, (a7)
          0x0051433e      2f3900509a02   move.l 0x509a02, -(a7)
          0x00514344      3f3900509a00   move.w 0x509a00, -(a7)
          0x0051434a      4eb900484148   jsr MENUCOM.set_boxcol
          0x00514350      584f           addq.w 0x4, a7
          0x00514352      3eb90050a0b0   move.w 0x50a0b0, (a7)
          0x00514358      1f790050a0b2.  move.b 0x50a0b2, 0x2(a7)
          0x00514360      48790083e3ba   pea.l 0x83e3ba
          0x00514366      3f06           move.w d6, -(a7)
          0x00514368      3f04           move.w d4, -(a7)
          0x0051436a      3f02           move.w d2, -(a7)
          0x0051436c      3f01           move.w d1, -(a7)
          0x0051436e      1f02           move.b d2, -(a7)
          0x00514370      1f3c0006       move.b 0x6, -(a7)
          0x00514374      3f390083e3ac   move.w 0x83e3ac, -(a7)
          0x0051437a      4267           clr.w -(a7)
          0x0051437c      2f3900509c84   move.l 0x509c84, -(a7)
          0x00514382      486f0018       pea.l 0x18(a7)
          0x00514386      48780001       pea.l 0x1
          0x0051438a      48780003       pea.l 0x3
          0x0051438e      486d0010       pea.l 0x10(a5)
          0x00514392      487a9cc0       pea.l MENU3DCOM.PAS.hit_light(pc)
          0x00514396      4eb900487aa6   jsr MENUCOM.new_box
          0x0051439c      defc002e       adda.w 0x2e, a7
          0x005143a0      3eb90083e3ba   move.w 0x83e3ba, (a7)
          0x005143a6      2f3900509a0e   move.l 0x509a0e, -(a7)
          0x005143ac      3f3900509a0c   move.w 0x509a0c, -(a7)
          0x005143b2      4eb900484148   jsr MENUCOM.set_boxcol
          0x005143b8      5c4f           addq.w 0x6, a7
          0x005143ba      3eb90050a0b4   move.w 0x50a0b4, (a7)
          0x005143c0      48790083e3bc   pea.l 0x83e3bc
          0x005143c6      3f3c0012       move.w 0x12, -(a7)
          0x005143ca      3f04           move.w d4, -(a7)
          0x005143cc      3f04           move.w d4, -(a7)
          0x005143ce      3f01           move.w d1, -(a7)
          0x005143d0      1f3c0009       move.b 0x9, -(a7)
          0x005143d4      1f02           move.b d2, -(a7)
          0x005143d6      3f390083e3ba   move.w 0x83e3ba, -(a7)
          0x005143dc      4267           clr.w -(a7)
          0x005143de      2f3900509c84   move.l 0x509c84, -(a7)
          0x005143e4      486f0018       pea.l 0x18(a7)
          0x005143e8      48780001       pea.l 0x1
          0x005143ec      48780002       pea.l 0x2
          0x005143f0      486d0010       pea.l 0x10(a5)
          0x005143f4      487a9fb0       pea.l MENU3DCOM.PAS.hit_light_num(pc)
          0x005143f8      4eb900487aa6   jsr MENUCOM.new_box
          0x005143fe      defc002c       adda.w 0x2c, a7
          0x00514402      3eb90083e3bc   move.w 0x83e3bc, (a7)
          0x00514408      f23c40000000.  fmove.l 0x32, fp0
          0x00514410      f2276400       fmove.s fp0, -(a7)
          0x00514414      f23c40000000.  fmove.l 0x0, fp0
          0x0051441c      f2276400       fmove.s fp0, -(a7)
          0x00514420      f23c40000000.  fmove.l 0x64, fp0
          0x00514428      f2276400       fmove.s fp0, -(a7)
          0x0051442c      3f3cfffd       move.w 0xfffd, -(a7)
          0x00514430      4267           clr.w -(a7)
          0x00514432      4eb90048d4ae   jsr MENU2COM.make_numeric_bo
          0x00514438      dec6           adda.w d6, a7
          0x0051443a      3eb90050a0b7   move.w 0x50a0b7, (a7)
          0x00514440      48790083e3be   pea.l 0x83e3be
          0x00514446      3f3c0015       move.w 0x15, -(a7)
          0x0051444a      3f04           move.w d4, -(a7)
          0x0051444c      3f04           move.w d4, -(a7)
          0x0051444e      3f01           move.w d1, -(a7)
          0x00514450      1f05           move.b d5, -(a7)
          0x00514452      1f02           move.b d2, -(a7)
          0x00514454      3f390083e3ba   move.w 0x83e3ba, -(a7)
          0x0051445a      4267           clr.w -(a7)
          0x0051445c      2f3900509c84   move.l 0x509c84, -(a7)
          0x00514462      486f0018       pea.l 0x18(a7)
          0x00514466      48780001       pea.l 0x1
          0x0051446a      48780002       pea.l 0x2
          0x0051446e      486d0010       pea.l 0x10(a5)
          0x00514472      487a9f32       pea.l MENU3DCOM.PAS.hit_light_num(pc)
          0x00514476      4eb900487aa6   jsr MENUCOM.new_box
          0x0051447c      defc002c       adda.w 0x2c, a7
          0x00514480      3eb90083e3be   move.w 0x83e3be, (a7)
          0x00514486      f2014000       fmove.l d1, fp0
          0x0051448a      f2276400       fmove.s fp0, -(a7)
          0x0051448e      f2014000       fmove.l d1, fp0
          0x00514492      f2276400       fmove.s fp0, -(a7)
          0x00514496      f23c40000000.  fmove.l 0x64, fp0
          0x0051449e      f2276400       fmove.s fp0, -(a7)
          0x005144a2      3f3cfffd       move.w 0xfffd, -(a7)
          0x005144a6      4267           clr.w -(a7)
          0x005144a8      4eb90048d4ae   jsr MENU2COM.make_numeric_bo
          0x005144ae      defc000e       adda.w 0xe, a7
          0x005144b2      3eb90050a0ba   move.w 0x50a0ba, (a7)
          0x005144b8      1f790050a0bc.  move.b 0x50a0bc, 0x2(a7)
          0x005144c0      48790083e3c0   pea.l 0x83e3c0
          0x005144c6      3f06           move.w d6, -(a7)
          0x005144c8      3f03           move.w d3, -(a7)
          0x005144ca      3f02           move.w d2, -(a7)
          0x005144cc      3f01           move.w d1, -(a7)
          0x005144ce      1f02           move.b d2, -(a7)
          0x005144d0      4227           clr.b -(a7)
          0x005144d2      3f390083e3ac   move.w 0x83e3ac, -(a7)
          0x005144d8      4267           clr.w -(a7)
          0x005144da      2f3900509c84   move.l 0x509c84, -(a7)
          0x005144e0      486f0018       pea.l 0x18(a7)
          0x005144e4      48780001       pea.l 0x1
          0x005144e8      48780003       pea.l 0x3
          0x005144ec      486d0010       pea.l 0x10(a5)
          0x005144f0      487900481fee   pea.l MENUCOM.hit_nothing
          0x005144f6      4eb900487aa6   jsr MENUCOM.new_box
          0x005144fc      defc002c       adda.w 0x2c, a7
          0x00514500      2eb90050a0c0   move.l 0x50a0c0, (a7)
          0x00514506      3f390050a0be   move.w 0x50a0be, -(a7)
          0x0051450c      48790083e398   pea.l 0x83e398
          0x00514512      3f06           move.w d6, -(a7)
          0x00514514      3f01           move.w d1, -(a7)
          0x00514516      3f04           move.w d4, -(a7)
          0x00514518      3f01           move.w d1, -(a7)
          0x0051451a      1f02           move.b d2, -(a7)
          0x0051451c      4227           clr.b -(a7)
          0x0051451e      3f390083e396   move.w 0x83e396, -(a7)
          0x00514524      4267           clr.w -(a7)
          0x00514526      2f3900509c84   move.l 0x509c84, -(a7)
          0x0051452c      486f0018       pea.l 0x18(a7)
          0x00514530      48780001       pea.l 0x1
          0x00514534      48780006       pea.l 0x6
          0x00514538      486d0010       pea.l 0x10(a5)
          0x0051453c      487aa8ea       pea.l MENU3DCOM.PAS.hit_3d(pc)
          0x00514540      4eb900487aa6   jsr MENUCOM.new_box
          0x00514546      defc002e       adda.w 0x2e, a7
          0x0051454a      3eb90050a0c5   move.w 0x50a0c5, (a7)
          0x00514550      1f790050a0c7.  move.b 0x50a0c7, 0x2(a7)
          0x00514558      48790083e3a2   pea.l 0x83e3a2
          0x0051455e      3f3c0013       move.w 0x13, -(a7)
          0x00514562      3f01           move.w d1, -(a7)
          0x00514564      3f02           move.w d2, -(a7)
          0x00514566      3f01           move.w d1, -(a7)
          0x00514568      1f05           move.b d5, -(a7)
          0x0051456a      1f02           move.b d2, -(a7)
          0x0051456c      3f390083e398   move.w 0x83e398, -(a7)
          0x00514572      4267           clr.w -(a7)
          0x00514574      2f3900509c84   move.l 0x509c84, -(a7)
          0x0051457a      486f0018       pea.l 0x18(a7)
          0x0051457e      48780001       pea.l 0x1
          0x00514582      48780003       pea.l 0x3
          0x00514586      486d0010       pea.l 0x10(a5)
          0x0051458a      487aabd8       pea.l MENU3DCOM.PAS.hit_num(pc)
          0x0051458e      4eb900487aa6   jsr MENUCOM.new_box
          0x00514594      defc002e       adda.w 0x2e, a7
          0x00514598      3eb90083e3a2   move.w 0x83e3a2, (a7)
          0x0051459e      f23c40000000.  fmove.l 0x0, fp0
          0x005145a6      f2276400       fmove.s fp0, -(a7)
          0x005145aa      f23c40000000.  fmove.l 0x0, fp0
          0x005145b2      f2276400       fmove.s fp0, -(a7)
          0x005145b6      f23c40000000.  fmove.l 0x2d0, fp0
          0x005145be      f2276400       fmove.s fp0, -(a7)
          0x005145c2      3f3cfffd       move.w 0xfffd, -(a7)
          0x005145c6      4267           clr.w -(a7)
          0x005145c8      4eb90048d4ae   jsr MENU2COM.make_numeric_bo
          0x005145ce      defc000e       adda.w 0xe, a7
          0x005145d2      3eb90050a0c9   move.w 0x50a0c9, (a7)
          0x005145d8      1f790050a0cb.  move.b 0x50a0cb, 0x2(a7)
          0x005145e0      48790083e3a4   pea.l 0x83e3a4
          0x005145e6      3f3c0015       move.w 0x15, -(a7)
          0x005145ea      3f01           move.w d1, -(a7)
          0x005145ec      3f02           move.w d2, -(a7)
          0x005145ee      3f01           move.w d1, -(a7)
          0x005145f0      1f05           move.b d5, -(a7)
          0x005145f2      1f02           move.b d2, -(a7)
          0x005145f4      3f390083e398   move.w 0x83e398, -(a7)
          0x005145fa      4267           clr.w -(a7)
          0x005145fc      2f3900509c84   move.l 0x509c84, -(a7)
          0x00514602      486f0018       pea.l 0x18(a7)
          0x00514606      48780001       pea.l 0x1
          0x0051460a      48780003       pea.l 0x3
          0x0051460e      486d0010       pea.l 0x10(a5)
          0x00514612      487aab50       pea.l MENU3DCOM.PAS.hit_num(pc)
          0x00514616      4eb900487aa6   jsr MENUCOM.new_box
          0x0051461c      defc002e       adda.w 0x2e, a7
          0x00514620      3eb90083e3a4   move.w 0x83e3a4, (a7)
          0x00514626      f23c40000000.  fmove.l 0x0, fp0
          0x0051462e      f2276400       fmove.s fp0, -(a7)
          0x00514632      f23c40000000.  fmove.l 0x0, fp0
          0x0051463a      f2276400       fmove.s fp0, -(a7)
          0x0051463e      f23c40000000.  fmove.l 0x2d0, fp0
          0x00514646      f2276400       fmove.s fp0, -(a7)
          0x0051464a      3f3cfffd       move.w 0xfffd, -(a7)
          0x0051464e      4267           clr.w -(a7)
          0x00514650      4eb90048d4ae   jsr MENU2COM.make_numeric_bo
          0x00514656      defc000e       adda.w 0xe, a7
          0x0051465a      3eb90050a0cd   move.w 0x50a0cd, (a7)
          0x00514660      1f790050a0cf.  move.b 0x50a0cf, 0x2(a7)
          0x00514668      48790083e39e   pea.l 0x83e39e
          0x0051466e      3f3c0017       move.w 0x17, -(a7)
          0x00514672      3f01           move.w d1, -(a7)
          0x00514674      3f02           move.w d2, -(a7)
          0x00514676      3f01           move.w d1, -(a7)
          0x00514678      1f05           move.b d5, -(a7)
          0x0051467a      1f02           move.b d2, -(a7)
          0x0051467c      3f390083e398   move.w 0x83e398, -(a7)
          0x00514682      4267           clr.w -(a7)
          0x00514684      2f3900509c84   move.l 0x509c84, -(a7)
          0x0051468a      486f0018       pea.l 0x18(a7)
          0x0051468e      48780001       pea.l 0x1
          0x00514692      48780003       pea.l 0x3
          0x00514696      486d0010       pea.l 0x10(a5)
          0x0051469a      487aaac8       pea.l MENU3DCOM.PAS.hit_num(pc)
          0x0051469e      4eb900487aa6   jsr MENUCOM.new_box
          0x005146a4      defc002e       adda.w 0x2e, a7
          0x005146a8      3eb90083e39e   move.w 0x83e39e, (a7)
          0x005146ae      f23c40000000.  fmove.l 0x0, fp0
          0x005146b6      f2276400       fmove.s fp0, -(a7)
          0x005146ba      f23c40000000.  fmove.l 0x0, fp0
          0x005146c2      f2276400       fmove.s fp0, -(a7)
          0x005146c6      f23c40000000.  fmove.l 0x240, fp0
          0x005146ce      f2276400       fmove.s fp0, -(a7)
          0x005146d2      3f3cfffd       move.w 0xfffd, -(a7)
          0x005146d6      4267           clr.w -(a7)
          0x005146d8      4eb90048d4ae   jsr MENU2COM.make_numeric_bo
          0x005146de      defc000e       adda.w 0xe, a7
          0x005146e2      3eb90050a0d1   move.w 0x50a0d1, (a7)
          0x005146e8      1f790050a0d3.  move.b 0x50a0d3, 0x2(a7)
          0x005146f0      48790083e3a0   pea.l 0x83e3a0
          0x005146f6      3f3c0019       move.w 0x19, -(a7)
          0x005146fa      3f01           move.w d1, -(a7)
          0x005146fc      3f02           move.w d2, -(a7)
          0x005146fe      3f01           move.w d1, -(a7)
          0x00514700      1f05           move.b d5, -(a7)
          0x00514702      1f02           move.b d2, -(a7)
          0x00514704      3f390083e398   move.w 0x83e398, -(a7)
          0x0051470a      4267           clr.w -(a7)
          0x0051470c      2f3900509c84   move.l 0x509c84, -(a7)
          0x00514712      486f0018       pea.l 0x18(a7)
          0x00514716      48780001       pea.l 0x1
          0x0051471a      48780003       pea.l 0x3
          0x0051471e      486d0010       pea.l 0x10(a5)
          0x00514722      487aaa40       pea.l MENU3DCOM.PAS.hit_num(pc)
          0x00514726      4eb900487aa6   jsr MENUCOM.new_box
          0x0051472c      defc002e       adda.w 0x2e, a7
          0x00514730      3eb90083e3a0   move.w 0x83e3a0, (a7)
          0x00514736      f23c40000000.  fmove.l 0x0, fp0
          0x0051473e      f2276400       fmove.s fp0, -(a7)
          0x00514742      f23c40000000.  fmove.l 0x0, fp0
          0x0051474a      f2276400       fmove.s fp0, -(a7)
          0x0051474e      f23c40000000.  fmove.l 0x240, fp0
          0x00514756      f2276400       fmove.s fp0, -(a7)
          0x0051475a      3f3cfffd       move.w 0xfffd, -(a7)
          0x0051475e      4267           clr.w -(a7)
          0x00514760      4eb90048d4ae   jsr MENU2COM.make_numeric_bo
          0x00514766      defc000e       adda.w 0xe, a7
          0x0051476a      2eb90050a0d5   move.l 0x50a0d5, (a7)
          0x00514770      48790083e39c   pea.l 0x83e39c
          0x00514776      3f06           move.w d6, -(a7)
          0x00514778      3f02           move.w d2, -(a7)
          0x0051477a      3f04           move.w d4, -(a7)
          0x0051477c      3f01           move.w d1, -(a7)
          0x0051477e      1f02           move.b d2, -(a7)
          0x00514780      4227           clr.b -(a7)
          0x00514782      3f390083e396   move.w 0x83e396, -(a7)
          0x00514788      4267           clr.w -(a7)
          0x0051478a      2f3900509c84   move.l 0x509c84, -(a7)
          0x00514790      486f0018       pea.l 0x18(a7)
          0x00514794      48780001       pea.l 0x1
          0x00514798      48780004       pea.l 0x4
          0x0051479c      486d0010       pea.l 0x10(a5)
          0x005147a0      487aa686       pea.l MENU3DCOM.PAS.hit_3d(pc)
          0x005147a4      4eb900487aa6   jsr MENUCOM.new_box
          0x005147aa      defc002e       adda.w 0x2e, a7
          0x005147ae      3eb90050a0da   move.w 0x50a0da, (a7)
          0x005147b4      48790083e3aa   pea.l 0x83e3aa
          0x005147ba      3f3c0013       move.w 0x13, -(a7)
          0x005147be      3f02           move.w d2, -(a7)
          0x005147c0      3f01           move.w d1, -(a7)
          0x005147c2      3f01           move.w d1, -(a7)
          0x005147c4      1f3c000e       move.b 0xe, -(a7)
          0x005147c8      1f3c0006       move.b 0x6, -(a7)
          0x005147cc      3f390083e39c   move.w 0x83e39c, -(a7)
          0x005147d2      4267           clr.w -(a7)
          0x005147d4      2f3900509c84   move.l 0x509c84, -(a7)
          0x005147da      486f0018       pea.l 0x18(a7)
          0x005147de      48780001       pea.l 0x1
          0x005147e2      48780002       pea.l 0x2
          0x005147e6      486d0010       pea.l 0x10(a5)
          0x005147ea      487ab490       pea.l MENU3DCOM.PAS.hit_colour(pc)
          0x005147ee      4eb900487aa6   jsr MENUCOM.new_box
          0x005147f4      defc002c       adda.w 0x2c, a7
          0x005147f8      3eb90083e3aa   move.w 0x83e3aa, (a7)
          0x005147fe      9efc00fc       suba.w 0xfc, a7
          0x00514802      2f390050a0dc   move.l 0x50a0dc, -(a7)
          0x00514808      2f790050a0e0.  move.l 0x50a0e0, 0x4(a7)
          0x00514810      1f790050a0e4.  move.b 0x50a0e4, 0x8(a7)
          0x00514818      4eb90048442e   jsr MENUCOM.set_box_macro_n
          0x0051481e      defc0100       adda.w 0x100, a7
          0x00514822      3eb90083e3aa   move.w 0x83e3aa, (a7)
          0x00514828      2f3900509a02   move.l 0x509a02, -(a7)
          0x0051482e      3f3900509a00   move.w 0x509a00, -(a7)
          0x00514834      4eb900484148   jsr MENUCOM.set_boxcol
          0x0051483a      584f           addq.w 0x4, a7
          0x0051483c      3eb90050a0e6   move.w 0x50a0e6, (a7)
          0x00514842      1f790050a0e8.  move.b 0x50a0e8, 0x2(a7)
          0x0051484a      48790083e3a8   pea.l 0x83e3a8
          0x00514850      3f3c0014       move.w 0x14, -(a7)
          0x00514854      3f02           move.w d2, -(a7)
          0x00514856      3f02           move.w d2, -(a7)
          0x00514858      3f01           move.w d1, -(a7)
          0x0051485a      1f05           move.b d5, -(a7)
          0x0051485c      1f02           move.b d2, -(a7)
          0x0051485e      3f390083e39c   move.w 0x83e39c, -(a7)
          0x00514864      4267           clr.w -(a7)
          0x00514866      2f3900509c84   move.l 0x509c84, -(a7)
          0x0051486c      486f0018       pea.l 0x18(a7)
          0x00514870      48780001       pea.l 0x1
          0x00514874      48780003       pea.l 0x3
          0x00514878      486d0010       pea.l 0x10(a5)
          0x0051487c      487aa8e6       pea.l MENU3DCOM.PAS.hit_num(pc)
          0x00514880      4eb900487aa6   jsr MENUCOM.new_box
          0x00514886      defc002e       adda.w 0x2e, a7
          0x0051488a      3eb90083e3a8   move.w 0x83e3a8, (a7)
          0x00514890      f23c40000000.  fmove.l 0x0, fp0
          0x00514898      f2276400       fmove.s fp0, -(a7)
          0x0051489c      f23c40000000.  fmove.l 0x0, fp0
          0x005148a4      f2276400       fmove.s fp0, -(a7)
          0x005148a8      f23c40000000.  fmove.l 0x168, fp0
          0x005148b0      f2276400       fmove.s fp0, -(a7)
          0x005148b4      3f3cfffd       move.w 0xfffd, -(a7)
          0x005148b8      4267           clr.w -(a7)
          0x005148ba      4eb90048d4ae   jsr MENU2COM.make_numeric_bo
          0x005148c0      defc000e       adda.w 0xe, a7
          0x005148c4      2eb90050a0ea   move.l 0x50a0ea, (a7)
          0x005148ca      48790083e39a   pea.l 0x83e39a
          0x005148d0      3f06           move.w d6, -(a7)
          0x005148d2      3f04           move.w d4, -(a7)
          0x005148d4      3f04           move.w d4, -(a7)
          0x005148d6      3f01           move.w d1, -(a7)
          0x005148d8      1f02           move.b d2, -(a7)
          0x005148da      4227           clr.b -(a7)
          0x005148dc      3f390083e396   move.w 0x83e396, -(a7)
          0x005148e2      4267           clr.w -(a7)
          0x005148e4      2f3900509c84   move.l 0x509c84, -(a7)
          0x005148ea      486f0018       pea.l 0x18(a7)
          0x005148ee      48780001       pea.l 0x1
          0x005148f2      48780004       pea.l 0x4
          0x005148f6      486d0010       pea.l 0x10(a5)
          0x005148fa      487aa52c       pea.l MENU3DCOM.PAS.hit_3d(pc)
          0x005148fe      4eb900487aa6   jsr MENUCOM.new_box
          0x00514904      defc002e       adda.w 0x2e, a7
          0x00514908      3eb90050a0ef   move.w 0x50a0ef, (a7)
          0x0051490e      48790083e3a6   pea.l 0x83e3a6
          0x00514914      3f3c0013       move.w 0x13, -(a7)
          0x00514918      3f04           move.w d4, -(a7)
          0x0051491a      3f04           move.w d4, -(a7)
          0x0051491c      3f01           move.w d1, -(a7)
          0x0051491e      1f05           move.b d5, -(a7)
          0x00514920      1f02           move.b d2, -(a7)
          0x00514922      3f390083e39a   move.w 0x83e39a, -(a7)
          0x00514928      4267           clr.w -(a7)
          0x0051492a      2f3900509c84   move.l 0x509c84, -(a7)
          0x00514930      486f0018       pea.l 0x18(a7)
          0x00514934      48780001       pea.l 0x1
          0x00514938      48780002       pea.l 0x2
          0x0051493c      486d0010       pea.l 0x10(a5)
          0x00514940      487aa822       pea.l MENU3DCOM.PAS.hit_num(pc)
          0x00514944      4eb900487aa6   jsr MENUCOM.new_box
          0x0051494a      defc002c       adda.w 0x2c, a7
          0x0051494e      3eb90083e3a6   move.w 0x83e3a6, (a7)
          0x00514954      f23c40000000.  fmove.l 0x0, fp0
          0x0051495c      f2276400       fmove.s fp0, -(a7)
          0x00514960      f23c40000000.  fmove.l 0x0, fp0
          0x00514968      f2276400       fmove.s fp0, -(a7)
          0x0051496c      f23c40000000.  fmove.l 0x168, fp0
          0x00514974      f2276400       fmove.s fp0, -(a7)
          0x00514978      3f3cfffd       move.w 0xfffd, -(a7)
          0x0051497c      3f02           move.w d2, -(a7)
          0x0051497e      4eb90048d4ae   jsr MENU2COM.make_numeric_bo
          0x00514984      defc0012       adda.w 0x12, a7
      < 0x00514988      60000448       bra.w 0x514dd2
      > 0x0051498c      554f           subq.w 0x2, a7
          0x0051498e      2f390050a0f2   move.l 0x50a0f2, -(a7)
          0x00514994      1f790050a0f6.  move.b 0x50a0f6, 0x4(a7)
          0x0051499c      48790083e3c2   pea.l 0x83e3c2
          0x005149a2      3f3c000c       move.w 0xc, -(a7)
          0x005149a6      3f04           move.w d4, -(a7)
          0x005149a8      3f03           move.w d3, -(a7)
          0x005149aa      3f01           move.w d1, -(a7)
          0x005149ac      1f01           move.b d1, -(a7)
          0x005149ae      4227           clr.b -(a7)
          0x005149b0      3f2e0010       move.w 0x10(a6), -(a7)
          0x005149b4      3f390083e358   move.w 0x83e358, -(a7)
          0x005149ba      2f3900509c84   move.l 0x509c84, -(a7)
          0x005149c0      486f0018       pea.l 0x18(a7)
          0x005149c4      48780001       pea.l 0x1
          0x005149c8      48780005       pea.l 0x5
          0x005149cc      486d0010       pea.l 0x10(a5)
          0x005149d0      487aa456       pea.l MENU3DCOM.PAS.hit_3d(pc)
          0x005149d4      4eb900487aa6   jsr MENUCOM.new_box
          0x005149da      defc002e       adda.w 0x2e, a7
          0x005149de      2eb90050a0f8   move.l 0x50a0f8, (a7)
          0x005149e4      48790083e3fc   pea.l 0x83e3fc
          0x005149ea      3f3c000c       move.w 0xc, -(a7)
          0x005149ee      3f03           move.w d3, -(a7)
          0x005149f0      3f03           move.w d3, -(a7)
          0x005149f2      3f01           move.w d1, -(a7)
          0x005149f4      1f3c0005       move.b 0x5, -(a7)
          0x005149f8      4227           clr.b -(a7)
          0x005149fa      3f2e0010       move.w 0x10(a6), -(a7)
          0x005149fe      4267           clr.w -(a7)
          0x00514a00      2f3900509c84   move.l 0x509c84, -(a7)
          0x00514a06      486f0018       pea.l 0x18(a7)
          0x00514a0a      48780001       pea.l 0x1
          0x00514a0e      48780004       pea.l 0x4
          0x00514a12      486d0010       pea.l 0x10(a5)
          0x00514a16      487a9286       pea.l MENU3DCOM.PAS.hit_undo(pc)
          0x00514a1a      4eb900487aa6   jsr MENUCOM.new_box
          0x00514a20      defc0030       adda.w 0x30, a7
      < 0x00514a24      600003ac       bra.w 0x514dd2
      > 0x00514a28      5d4f           subq.w 0x6, a7
          0x00514a2a      2f390050a101   move.l 0x50a101, -(a7)
          0x00514a30      2f790050a105.  move.l 0x50a105, 0x4(a7)
          0x00514a38      1f790050a109.  move.b 0x50a109, 0x8(a7)
          0x00514a40      48790083e358   pea.l 0x83e358
          0x00514a46      3f3c000c       move.w 0xc, -(a7)
          0x00514a4a      3f01           move.w d1, -(a7)
          0x00514a4c      3f03           move.w d3, -(a7)
          0x00514a4e      3f01           move.w d1, -(a7)
          0x00514a50      1f01           move.b d1, -(a7)
          0x00514a52      4227           clr.b -(a7)
          0x00514a54      3f2e0010       move.w 0x10(a6), -(a7)
          0x00514a58      4267           clr.w -(a7)
          0x00514a5a      2f390050a0fc   move.l 0x50a0fc, -(a7)
          0x00514a60      486f0018       pea.l 0x18(a7)
          0x00514a64      48780001       pea.l 0x1
          0x00514a68      48780009       pea.l 0x9
          0x00514a6c      486d0010       pea.l 0x10(a5)
          0x00514a70      487aa3b6       pea.l MENU3DCOM.PAS.hit_3d(pc)
          0x00514a74      4eb900487aa6   jsr MENUCOM.new_box
          0x00514a7a      defc002a       adda.w 0x2a, a7
          0x00514a7e      2eb90050a10b   move.l 0x50a10b, (a7)
          0x00514a84      2f790050a10f.  move.l 0x50a10f, 0x4(a7)
          0x00514a8c      3f790050a113.  move.w 0x50a113, 0x8(a7)
          0x00514a94      1f790050a115.  move.b 0x50a115, 0xa(a7)
          0x00514a9c      48790083e360   pea.l 0x83e360
          0x00514aa2      3f3c000c       move.w 0xc, -(a7)
          0x00514aa6      3f02           move.w d2, -(a7)
          0x00514aa8      3f03           move.w d3, -(a7)
          0x00514aaa      3f01           move.w d1, -(a7)
          0x00514aac      1f01           move.b d1, -(a7)
          0x00514aae      4227           clr.b -(a7)
          0x00514ab0      3f2e0010       move.w 0x10(a6), -(a7)
          0x00514ab4      3f390083e358   move.w 0x83e358, -(a7)
          0x00514aba      2f3900509c84   move.l 0x509c84, -(a7)
          0x00514ac0      486f0018       pea.l 0x18(a7)
          0x00514ac4      48780001       pea.l 0x1
          0x00514ac8      4878000b       pea.l 0xb
          0x00514acc      486d0010       pea.l 0x10(a5)
          0x00514ad0      487aa356       pea.l MENU3DCOM.PAS.hit_3d(pc)
          0x00514ad4      4eb900487aa6   jsr MENUCOM.new_box
          0x00514ada      defc002c       adda.w 0x2c, a7
          0x00514ade      2eb90050a117   move.l 0x50a117, (a7)
          0x00514ae4      2f790050a11b.  move.l 0x50a11b, 0x4(a7)
          0x00514aec      3f790050a11f.  move.w 0x50a11f, 0x8(a7)
          0x00514af4      1f790050a121.  move.b 0x50a121, 0xa(a7)
          0x00514afc      48790083e372   pea.l 0x83e372
          0x00514b02      3f3c000c       move.w 0xc, -(a7)
          0x00514b06      3f04           move.w d4, -(a7)
          0x00514b08      3f03           move.w d3, -(a7)
          0x00514b0a      3f01           move.w d1, -(a7)
          0x00514b0c      1f01           move.b d1, -(a7)
          0x00514b0e      4227           clr.b -(a7)
          0x00514b10      3f2e0010       move.w 0x10(a6), -(a7)
          0x00514b14      3f390083e358   move.w 0x83e358, -(a7)
          0x00514b1a      2f3900509c84   move.l 0x509c84, -(a7)
          0x00514b20      486f0018       pea.l 0x18(a7)
          0x00514b24      48780001       pea.l 0x1
          0x00514b28      4878000b       pea.l 0xb
          0x00514b2c      486d0010       pea.l 0x10(a5)
          0x00514b30      487aa2f6       pea.l MENU3DCOM.PAS.hit_3d(pc)
          0x00514b34      4eb900487aa6   jsr MENUCOM.new_box
          0x00514b3a      defc0034       adda.w 0x34, a7
          0x00514b3e      3eb90050a127   move.w 0x50a127, (a7)
          0x00514b44      1f790050a129.  move.b 0x50a129, 0x2(a7)
          0x00514b4c      48790083e3f8   pea.l 0x83e3f8
          0x00514b52      4267           clr.w -(a7)
          0x00514b54      4267           clr.w -(a7)
          0x00514b56      4267           clr.w -(a7)
          0x00514b58      4267           clr.w -(a7)
          0x00514b5a      1f01           move.b d1, -(a7)
          0x00514b5c      4227           clr.b -(a7)
          0x00514b5e      3f390083e358   move.w 0x83e358, -(a7)
          0x00514b64      4267           clr.w -(a7)
          0x00514b66      2f390050a122   move.l 0x50a122, -(a7)
          0x00514b6c      486f0018       pea.l 0x18(a7)
          0x00514b70      48780001       pea.l 0x1
          0x00514b74      48780003       pea.l 0x3
          0x00514b78      486d0010       pea.l 0x10(a5)
          0x00514b7c      487900481fee   pea.l MENUCOM.hit_nothing
          0x00514b82      4eb900487aa6   jsr MENUCOM.new_box
          0x00514b88      defc002e       adda.w 0x2e, a7
          0x00514b8c      3eb90083e360   move.w 0x83e360, (a7)
          0x00514b92      3f390083e3f8   move.w 0x83e3f8, -(a7)
          0x00514b98      4eb900486f94   jsr MENUCOM.add_slave
          0x00514b9e      544f           addq.w 0x2, a7
          0x00514ba0      3eb90083e372   move.w 0x83e372, (a7)
          0x00514ba6      3f390083e3f8   move.w 0x83e3f8, -(a7)
          0x00514bac      4eb900486f94   jsr MENUCOM.add_slave
          0x00514bb2      3eb90050a12b   move.w 0x50a12b, (a7)
          0x00514bb8      1f790050a12d.  move.b 0x50a12d, 0x2(a7)
          0x00514bc0      3f3c007f       move.w 0x7f, -(a7)
          0x00514bc4      3f3c000c       move.w 0xc, -(a7)
          0x00514bc8      3f03           move.w d3, -(a7)
          0x00514bca      3f03           move.w d3, -(a7)
          0x00514bcc      3f01           move.w d1, -(a7)
          0x00514bce      1f01           move.b d1, -(a7)
          0x00514bd0      4227           clr.b -(a7)
          0x00514bd2      3f2e0010       move.w 0x10(a6), -(a7)
          0x00514bd6      3f390083e358   move.w 0x83e358, -(a7)
          0x00514bdc      2f3900509c84   move.l 0x509c84, -(a7)
          0x00514be2      486f0016       pea.l 0x16(a7)
          0x00514be6      48780001       pea.l 0x1
          0x00514bea      48780003       pea.l 0x3
          0x00514bee      486d0010       pea.l 0x10(a5)
          0x00514bf2      487aa234       pea.l MENU3DCOM.PAS.hit_3d(pc)
          0x00514bf6      4eb900487686   jsr MENUCOM.def_box
          0x00514bfc      defc002a       adda.w 0x2a, a7
          0x00514c00      2eb90050a137   move.l 0x50a137, (a7)
          0x00514c06      2f390050a133   move.l 0x50a133, -(a7)
          0x00514c0c      2f390050a12f   move.l 0x50a12f, -(a7)
          0x00514c12      48790083e37a   pea.l 0x83e37a
          0x00514c18      3f06           move.w d6, -(a7)
          0x00514c1a      3f02           move.w d2, -(a7)
          0x00514c1c      3f03           move.w d3, -(a7)
          0x00514c1e      3f01           move.w d1, -(a7)
          0x00514c20      1f02           move.b d2, -(a7)
          0x00514c22      4227           clr.b -(a7)
          0x00514c24      3f390083e358   move.w 0x83e358, -(a7)
          0x00514c2a      4267           clr.w -(a7)
          0x00514c2c      2f3900509c84   move.l 0x509c84, -(a7)
          0x00514c32      486f0018       pea.l 0x18(a7)
          0x00514c36      48780001       pea.l 0x1
          0x00514c3a      4878000c       pea.l 0xc
          0x00514c3e      486d0010       pea.l 0x10(a5)
          0x00514c42      487aa1e4       pea.l MENU3DCOM.PAS.hit_3d(pc)
          0x00514c46      4eb900487aa6   jsr MENUCOM.new_box
          0x00514c4c      defc0034       adda.w 0x34, a7
          0x00514c50      2eb90050a13e   move.l 0x50a13e, (a7)
          0x00514c56      3f390050a13c   move.w 0x50a13c, -(a7)
          0x00514c5c      48790083e37c   pea.l 0x83e37c
          0x00514c62      3f3c0014       move.w 0x14, -(a7)
          0x00514c66      3f02           move.w d2, -(a7)
          0x00514c68      3f03           move.w d3, -(a7)
          0x00514c6a      3f01           move.w d1, -(a7)
          0x00514c6c      1f02           move.b d2, -(a7)
          0x00514c6e      4227           clr.b -(a7)
          0x00514c70      3f390083e358   move.w 0x83e358, -(a7)
          0x00514c76      3f390083e37a   move.w 0x83e37a, -(a7)
          0x00514c7c      2f3900509c84   move.l 0x509c84, -(a7)
          0x00514c82      486f0018       pea.l 0x18(a7)
          0x00514c86      48780001       pea.l 0x1
          0x00514c8a      48780006       pea.l 0x6
          0x00514c8e      486d0010       pea.l 0x10(a5)
          0x00514c92      487aa194       pea.l MENU3DCOM.PAS.hit_3d(pc)
          0x00514c96      4eb900487aa6   jsr MENUCOM.new_box
          0x00514c9c      defc002e       adda.w 0x2e, a7
          0x00514ca0      2eb90050a149   move.l 0x50a149, (a7)
          0x00514ca6      3f390050a147   move.w 0x50a147, -(a7)
          0x00514cac      48790083e402   pea.l 0x83e402
          0x00514cb2      4267           clr.w -(a7)
          0x00514cb4      4267           clr.w -(a7)
          0x00514cb6      4267           clr.w -(a7)
          0x00514cb8      4267           clr.w -(a7)
          0x00514cba      1f02           move.b d2, -(a7)
          0x00514cbc      4227           clr.b -(a7)
          0x00514cbe      3f390083e358   move.w 0x83e358, -(a7)
          0x00514cc4      4267           clr.w -(a7)
          0x00514cc6      2f390050a142   move.l 0x50a142, -(a7)
          0x00514ccc      486f0018       pea.l 0x18(a7)
          0x00514cd0      48780001       pea.l 0x1
          0x00514cd4      48780006       pea.l 0x6
          0x00514cd8      486d0010       pea.l 0x10(a5)
          0x00514cdc      487ab37a       pea.l MENU3DCOM.PAS.hit_attach(pc)
          0x00514ce0      4eb900487aa6   jsr MENUCOM.new_box
          0x00514ce6      defc002e       adda.w 0x2e, a7
          0x00514cea      2eb90050a155   move.l 0x50a155, (a7)
          0x00514cf0      3f390050a153   move.w 0x50a153, -(a7)
          0x00514cf6      48790083e404   pea.l 0x83e404
          0x00514cfc      4267           clr.w -(a7)
          0x00514cfe      4267           clr.w -(a7)
          0x00514d00      4267           clr.w -(a7)
          0x00514d02      4267           clr.w -(a7)
          0x00514d04      1f3c0005       move.b 0x5, -(a7)
          0x00514d08      4227           clr.b -(a7)
          0x00514d0a      3f390083e358   move.w 0x83e358, -(a7)
          0x00514d10      4267           clr.w -(a7)
          0x00514d12      2f390050a14e   move.l 0x50a14e, -(a7)
          0x00514d18      486f0018       pea.l 0x18(a7)
          0x00514d1c      48780001       pea.l 0x1
          0x00514d20      48780006       pea.l 0x6
          0x00514d24      486d0010       pea.l 0x10(a5)
          0x00514d28      487ab2c2       pea.l MENU3DCOM.PAS.hit_detach(pc)
          0x00514d2c      4eb900487aa6   jsr MENUCOM.new_box
          0x00514d32      defc0028       adda.w 0x28, a7
          0x00514d36      2eb90050a15a   move.l 0x50a15a, (a7)
          0x00514d3c      2f790050a15e.  move.l 0x50a15e, 0x4(a7)
          0x00514d44      1f790050a162.  move.b 0x50a162, 0x8(a7)
          0x00514d4c      48790083e40a   pea.l 0x83e40a
          0x00514d52      3f06           move.w d6, -(a7)
          0x00514d54      3f04           move.w d4, -(a7)
          0x00514d56      3f03           move.w d3, -(a7)
          0x00514d58      3f01           move.w d1, -(a7)
          0x00514d5a      1f02           move.b d2, -(a7)
          0x00514d5c      4227           clr.b -(a7)
          0x00514d5e      3f390083e3f8   move.w 0x83e3f8, -(a7)
          0x00514d64      4267           clr.w -(a7)
          0x00514d66      2f3900509c84   move.l 0x509c84, -(a7)
          0x00514d6c      486f0018       pea.l 0x18(a7)
          0x00514d70      48780001       pea.l 0x1
          0x00514d74      48780009       pea.l 0x9
          0x00514d78      486d0010       pea.l 0x10(a5)
          0x00514d7c      487ab200       pea.l MENU3DCOM.PAS.hit_front_back(pc)
          0x00514d80      4eb900487aa6   jsr MENUCOM.new_box
          0x00514d86      defc0034       adda.w 0x34, a7
          0x00514d8a      3eb90050a164   move.w 0x50a164, (a7)
          0x00514d90      48790083e3c2   pea.l 0x83e3c2
          0x00514d96      4267           clr.w -(a7)
          0x00514d98      4267           clr.w -(a7)
          0x00514d9a      4267           clr.w -(a7)
          0x00514d9c      4267           clr.w -(a7)
          0x00514d9e      1f01           move.b d1, -(a7)
          0x00514da0      4227           clr.b -(a7)
          0x00514da2      3f2e0010       move.w 0x10(a6), -(a7)
          0x00514da6      3f390083e358   move.w 0x83e358, -(a7)
          0x00514dac      2f3900509c84   move.l 0x509c84, -(a7)
          0x00514db2      486f0018       pea.l 0x18(a7)
          0x00514db6      48780001       pea.l 0x1
          0x00514dba      48780002       pea.l 0x2
          0x00514dbe      486d0010       pea.l 0x10(a5)
          0x00514dc2      487900481fee   pea.l MENUCOM.hit_nothing
          0x00514dc8      4eb900487aa6   jsr MENUCOM.new_box
          0x00514dce      defc002e       adda.w 0x2e, a7
      > 0x00514dd2      2f390050a167   move.l 0x50a167, -(a7)
            0x00514dd8      48790083e3c4   pea.l 0x83e3c4
            0x00514dde      3f06           move.w d6, -(a7)
            0x00514de0      3f01           move.w d1, -(a7)
            0x00514de2      3f03           move.w d3, -(a7)
            0x00514de4      3f01           move.w d1, -(a7)
            0x00514de6      1f02           move.b d2, -(a7)
            0x00514de8      4227           clr.b -(a7)
            0x00514dea      3f390083e3c2   move.w 0x83e3c2, -(a7)
            0x00514df0      4267           clr.w -(a7)
            0x00514df2      2f3900509c84   move.l 0x509c84, -(a7)
            0x00514df8      486f0018       pea.l 0x18(a7)
            0x00514dfc      48780001       pea.l 0x1
            0x00514e00      48780004       pea.l 0x4
            0x00514e04      486d0010       pea.l 0x10(a5)
            0x00514e08      487aa01e       pea.l MENU3DCOM.PAS.hit_3d(pc)
            0x00514e0c      4eb900487aa6   jsr MENUCOM.new_box
            0x00514e12      defc002a       adda.w 0x2a, a7
            0x00514e16      2eb90050a16c   move.l 0x50a16c, (a7)
            0x00514e1c      1f790050a170.  move.b 0x50a170, 0x4(a7)
            0x00514e24      48790083e3c6   pea.l 0x83e3c6
            0x00514e2a      3f3c0014       move.w 0x14, -(a7)
            0x00514e2e      3f01           move.w d1, -(a7)
            0x00514e30      3f3c0005       move.w 0x5, -(a7)
            0x00514e34      3f01           move.w d1, -(a7)
            0x00514e36      1f05           move.b d5, -(a7)
            0x00514e38      1f02           move.b d2, -(a7)
            0x00514e3a      3f390083e3c4   move.w 0x83e3c4, -(a7)
            0x00514e40      4267           clr.w -(a7)
            0x00514e42      2f3900509c84   move.l 0x509c84, -(a7)
            0x00514e48      486f0018       pea.l 0x18(a7)
            0x00514e4c      48780001       pea.l 0x1
            0x00514e50      48780005       pea.l 0x5
            0x00514e54      486d0010       pea.l 0x10(a5)
            0x00514e58      487aa30a       pea.l MENU3DCOM.PAS.hit_num(pc)
            0x00514e5c      4eb900487aa6   jsr MENUCOM.new_box
            0x00514e62      defc0030       adda.w 0x30, a7
            0x00514e66      3eb90083e3c6   move.w 0x83e3c6, (a7)
            0x00514e6c      f2014000       fmove.l d1, fp0
            0x00514e70      f2276400       fmove.s fp0, -(a7)
            0x00514e74      f2014000       fmove.l d1, fp0
            0x00514e78      f2276400       fmove.s fp0, -(a7)
            0x00514e7c      f2064000       fmove.l d6, fp0
            0x00514e80      f2276400       fmove.s fp0, -(a7)
            0x00514e84      4267           clr.w -(a7)
            0x00514e86      4267           clr.w -(a7)
            0x00514e88      4eb90048d4ae   jsr MENU2COM.make_numeric_bo
            0x00514e8e      defc000e       adda.w 0xe, a7
            0x00514e92      3eb90050a172   move.w 0x50a172, (a7)
            0x00514e98      1f790050a174.  move.b 0x50a174, 0x2(a7)
            0x00514ea0      48790083e3c8   pea.l 0x83e3c8
            0x00514ea6      3f3c0014       move.w 0x14, -(a7)
            0x00514eaa      3f02           move.w d2, -(a7)
            0x00514eac      3f3c0005       move.w 0x5, -(a7)
            0x00514eb0      3f01           move.w d1, -(a7)
            0x00514eb2      1f05           move.b d5, -(a7)
            0x00514eb4      1f02           move.b d2, -(a7)
            0x00514eb6      3f390083e3c4   move.w 0x83e3c4, -(a7)
            0x00514ebc      4267           clr.w -(a7)
            0x00514ebe      2f3900509c84   move.l 0x509c84, -(a7)
            0x00514ec4      486f0018       pea.l 0x18(a7)
            0x00514ec8      48780001       pea.l 0x1
            0x00514ecc      48780003       pea.l 0x3
            0x00514ed0      486d0010       pea.l 0x10(a5)
            0x00514ed4      487aa28e       pea.l MENU3DCOM.PAS.hit_num(pc)
            0x00514ed8      4eb900487aa6   jsr MENUCOM.new_box
            0x00514ede      defc002e       adda.w 0x2e, a7
            0x00514ee2      3eb90083e3c8   move.w 0x83e3c8, (a7)
            0x00514ee8      f23c40000000.  fmove.l 0x0, fp0
            0x00514ef0      f2276400       fmove.s fp0, -(a7)
            0x00514ef4      f23c4000ffff.  fmove.l 0xffffff9d, fp0
            0x00514efc      f2276400       fmove.s fp0, -(a7)
            0x00514f00      f23c40000000.  fmove.l 0x63, fp0
            0x00514f08      f2276400       fmove.s fp0, -(a7)
            0x00514f0c      3f3cfffe       move.w 0xfffe, -(a7)
            0x00514f10      3f04           move.w d4, -(a7)
            0x00514f12      4eb90048d4ae   jsr MENU2COM.make_numeric_bo
            0x00514f18      defc000e       adda.w 0xe, a7
            0x00514f1c      3eb90050a176   move.w 0x50a176, (a7)
            0x00514f22      1f790050a178.  move.b 0x50a178, 0x2(a7)
            0x00514f2a      48790083e3ca   pea.l 0x83e3ca
            0x00514f30      3f3c0014       move.w 0x14, -(a7)
            0x00514f34      3f04           move.w d4, -(a7)
            0x00514f36      3f3c0005       move.w 0x5, -(a7)
            0x00514f3a      3f01           move.w d1, -(a7)
            0x00514f3c      1f05           move.b d5, -(a7)
            0x00514f3e      1f02           move.b d2, -(a7)
            0x00514f40      3f390083e3c4   move.w 0x83e3c4, -(a7)
            0x00514f46      3f390083e3c8   move.w 0x83e3c8, -(a7)
            0x00514f4c      2f3900509c84   move.l 0x509c84, -(a7)
            0x00514f52      486f0018       pea.l 0x18(a7)
            0x00514f56      48780001       pea.l 0x1
            0x00514f5a      48780003       pea.l 0x3
            0x00514f5e      486d0010       pea.l 0x10(a5)
            0x00514f62      487aa200       pea.l MENU3DCOM.PAS.hit_num(pc)
            0x00514f66      4eb900487aa6   jsr MENUCOM.new_box
            0x00514f6c      defc002e       adda.w 0x2e, a7
            0x00514f70      3eb90083e3ca   move.w 0x83e3ca, (a7)
            0x00514f76      f23c40000000.  fmove.l 0x0, fp0
            0x00514f7e      f2276400       fmove.s fp0, -(a7)
            0x00514f82      f23c4000ffff.  fmove.l 0xffffff9d, fp0
            0x00514f8a      f2276400       fmove.s fp0, -(a7)
            0x00514f8e      f23c40000000.  fmove.l 0x63, fp0
            0x00514f96      f2276400       fmove.s fp0, -(a7)
            0x00514f9a      3f3cfffe       move.w 0xfffe, -(a7)
            0x00514f9e      3f04           move.w d4, -(a7)
            0x00514fa0      4eb90048d4ae   jsr MENU2COM.make_numeric_bo
            0x00514fa6      defc000e       adda.w 0xe, a7
            0x00514faa      3eb90050a17a   move.w 0x50a17a, (a7)
            0x00514fb0      1f790050a17c.  move.b 0x50a17c, 0x2(a7)
            0x00514fb8      48790083e3cc   pea.l 0x83e3cc
            0x00514fbe      3f3c0014       move.w 0x14, -(a7)
            0x00514fc2      3f03           move.w d3, -(a7)
            0x00514fc4      3f3c0005       move.w 0x5, -(a7)
            0x00514fc8      3f01           move.w d1, -(a7)
            0x00514fca      1f05           move.b d5, -(a7)
            0x00514fcc      1f02           move.b d2, -(a7)
            0x00514fce      3f390083e3c4   move.w 0x83e3c4, -(a7)
            0x00514fd4      3f390083e3ca   move.w 0x83e3ca, -(a7)
            0x00514fda      2f3900509c84   move.l 0x509c84, -(a7)
            0x00514fe0      486f0018       pea.l 0x18(a7)
            0x00514fe4      48780001       pea.l 0x1
            0x00514fe8      48780003       pea.l 0x3
            0x00514fec      486d0010       pea.l 0x10(a5)
            0x00514ff0      487aa172       pea.l MENU3DCOM.PAS.hit_num(pc)
            0x00514ff4      4eb900487aa6   jsr MENUCOM.new_box
            0x00514ffa      defc002e       adda.w 0x2e, a7
            0x00514ffe      3eb90083e3cc   move.w 0x83e3cc, (a7)
            0x00515004      f23c40000000.  fmove.l 0x0, fp0
            0x0051500c      f2276400       fmove.s fp0, -(a7)
            0x00515010      f23c4000ffff.  fmove.l 0xffffff9d, fp0
            0x00515018      f2276400       fmove.s fp0, -(a7)
            0x0051501c      f23c40000000.  fmove.l 0x63, fp0
            0x00515024      f2276400       fmove.s fp0, -(a7)
            0x00515028      3f3cfffe       move.w 0xfffe, -(a7)
            0x0051502c      3f04           move.w d4, -(a7)
            0x0051502e      4eb90048d4ae   jsr MENU2COM.make_numeric_bo
            0x00515034      defc000e       adda.w 0xe, a7
            0x00515038      2eb90050a17e   move.l 0x50a17e, (a7)
            0x0051503e      48790083e3ce   pea.l 0x83e3ce
            0x00515044      3f06           move.w d6, -(a7)
            0x00515046      3f02           move.w d2, -(a7)
            0x00515048      3f03           move.w d3, -(a7)
            0x0051504a      3f01           move.w d1, -(a7)
            0x0051504c      1f02           move.b d2, -(a7)
            0x0051504e      4227           clr.b -(a7)
            0x00515050      3f390083e3c2   move.w 0x83e3c2, -(a7)
            0x00515056      3f390083e3c4   move.w 0x83e3c4, -(a7)
            0x0051505c      2f3900509c84   move.l 0x509c84, -(a7)
            0x00515062      486f0018       pea.l 0x18(a7)
            0x00515066      48780001       pea.l 0x1
            0x0051506a      48780004       pea.l 0x4
            0x0051506e      486d0010       pea.l 0x10(a5)
            0x00515072      487a9db4       pea.l MENU3DCOM.PAS.hit_3d(pc)
            0x00515076      4eb900487aa6   jsr MENUCOM.new_box
            0x0051507c      defc002e       adda.w 0x2e, a7
            0x00515080      3eb90050a183   move.w 0x50a183, (a7)
            0x00515086      48790083e3d2   pea.l 0x83e3d2
            0x0051508c      3f3c0014       move.w 0x14, -(a7)
            0x00515090      3f01           move.w d1, -(a7)
            0x00515092      3f3c0005       move.w 0x5, -(a7)
            0x00515096      3f01           move.w d1, -(a7)
            0x00515098      1f05           move.b d5, -(a7)
            0x0051509a      1f02           move.b d2, -(a7)
            0x0051509c      3f390083e3ce   move.w 0x83e3ce, -(a7)
            0x005150a2      4267           clr.w -(a7)
            0x005150a4      2f3900509c84   move.l 0x509c84, -(a7)
            0x005150aa      486f0018       pea.l 0x18(a7)
            0x005150ae      48780001       pea.l 0x1
            0x005150b2      48780002       pea.l 0x2
            0x005150b6      486d0010       pea.l 0x10(a5)
            0x005150ba      487aa0a8       pea.l MENU3DCOM.PAS.hit_num(pc)
            0x005150be      4eb900487aa6   jsr MENUCOM.new_box
            0x005150c4      defc002c       adda.w 0x2c, a7
            0x005150c8      3eb90083e3d2   move.w 0x83e3d2, (a7)
            0x005150ce      f23c40000000.  fmove.l 0x0, fp0
            0x005150d6      f2276400       fmove.s fp0, -(a7)
            0x005150da      f23c4000ffff.  fmove.l 0xfffffffe, fp0
            0x005150e2      f2276400       fmove.s fp0, -(a7)
            0x005150e6      f2024000       fmove.l d2, fp0
            0x005150ea      f2276400       fmove.s fp0, -(a7)
            0x005150ee      3f3cfffe       move.w 0xfffe, -(a7)
            0x005150f2      3f04           move.w d4, -(a7)
            0x005150f4      4eb90048d4ae   jsr MENU2COM.make_numeric_bo
            0x005150fa      dec6           adda.w d6, a7
            0x005150fc      3eb90050a186   move.w 0x50a186, (a7)
            0x00515102      48790083e3d0   pea.l 0x83e3d0
            0x00515108      3f3c0014       move.w 0x14, -(a7)
            0x0051510c      3f02           move.w d2, -(a7)
            0x0051510e      3f3c0005       move.w 0x5, -(a7)
            0x00515112      3f01           move.w d1, -(a7)
            0x00515114      1f05           move.b d5, -(a7)
            0x00515116      1f02           move.b d2, -(a7)
            0x00515118      3f390083e3ce   move.w 0x83e3ce, -(a7)
            0x0051511e      3f390083e3d2   move.w 0x83e3d2, -(a7)
            0x00515124      2f3900509c84   move.l 0x509c84, -(a7)
            0x0051512a      486f0018       pea.l 0x18(a7)
            0x0051512e      48780001       pea.l 0x1
            0x00515132      48780002       pea.l 0x2
            0x00515136      486d0010       pea.l 0x10(a5)
            0x0051513a      487aa028       pea.l MENU3DCOM.PAS.hit_num(pc)
            0x0051513e      4eb900487aa6   jsr MENUCOM.new_box
            0x00515144      defc002c       adda.w 0x2c, a7
            0x00515148      3eb90083e3d0   move.w 0x83e3d0, (a7)
            0x0051514e      f23c40000000.  fmove.l 0x0, fp0
            0x00515156      f2276400       fmove.s fp0, -(a7)
            0x0051515a      f23c4000ffff.  fmove.l 0xfffffffe, fp0
            0x00515162      f2276400       fmove.s fp0, -(a7)
            0x00515166      f2024000       fmove.l d2, fp0
            0x0051516a      f2276400       fmove.s fp0, -(a7)
            0x0051516e      3f3cfffe       move.w 0xfffe, -(a7)
            0x00515172      3f04           move.w d4, -(a7)
            0x00515174      4eb90048d4ae   jsr MENU2COM.make_numeric_bo
            0x0051517a      defc000c       adda.w 0xc, a7
            0x0051517e      2eb90050a189   move.l 0x50a189, (a7)
            0x00515184      1f790050a18d.  move.b 0x50a18d, 0x4(a7)
            0x0051518c      48790083e3d4   pea.l 0x83e3d4
            0x00515192      3f3c0014       move.w 0x14, -(a7)
            0x00515196      3f04           move.w d4, -(a7)
            0x00515198      3f3c0005       move.w 0x5, -(a7)
            0x0051519c      3f01           move.w d1, -(a7)
            0x0051519e      1f05           move.b d5, -(a7)
            0x005151a0      1f02           move.b d2, -(a7)
            0x005151a2      3f390083e3ce   move.w 0x83e3ce, -(a7)
            0x005151a8      3f390083e3d0   move.w 0x83e3d0, -(a7)
            0x005151ae      2f3900509c84   move.l 0x509c84, -(a7)
            0x005151b4      486f0018       pea.l 0x18(a7)
            0x005151b8      48780001       pea.l 0x1
            0x005151bc      48780005       pea.l 0x5
            0x005151c0      486d0010       pea.l 0x10(a5)
            0x005151c4      487a9f9e       pea.l MENU3DCOM.PAS.hit_num(pc)
            0x005151c8      4eb900487aa6   jsr MENUCOM.new_box
            0x005151ce      defc0030       adda.w 0x30, a7
            0x005151d2      3eb90083e3d4   move.w 0x83e3d4, (a7)
            0x005151d8      f2014000       fmove.l d1, fp0
            0x005151dc      f2276400       fmove.s fp0, -(a7)
            0x005151e0      f23c40000000.  fmove.l 0x0, fp0
            0x005151e8      f2276400       fmove.s fp0, -(a7)
            0x005151ec      f2034000       fmove.l d3, fp0
            0x005151f0      f2276400       fmove.s fp0, -(a7)
            0x005151f4      3f3cffff       move.w 0xffff, -(a7)
            0x005151f8      3f04           move.w d4, -(a7)
            0x005151fa      4eb90048d4ae   jsr MENU2COM.make_numeric_bo
            0x00515200      defc000c       adda.w 0xc, a7
            0x00515204      2eb90050a18f   move.l 0x50a18f, (a7)
            0x0051520a      1f790050a193.  move.b 0x50a193, 0x4(a7)
            0x00515212      48790083e3d6   pea.l 0x83e3d6
            0x00515218      3f3c0014       move.w 0x14, -(a7)
            0x0051521c      3f03           move.w d3, -(a7)
            0x0051521e      3f3c0005       move.w 0x5, -(a7)
            0x00515222      3f01           move.w d1, -(a7)
            0x00515224      1f05           move.b d5, -(a7)
            0x00515226      1f02           move.b d2, -(a7)
            0x00515228      3f390083e3ce   move.w 0x83e3ce, -(a7)
            0x0051522e      3f390083e3d4   move.w 0x83e3d4, -(a7)
            0x00515234      2f3900509c84   move.l 0x509c84, -(a7)
            0x0051523a      486f0018       pea.l 0x18(a7)
            0x0051523e      48780001       pea.l 0x1
            0x00515242      48780005       pea.l 0x5
            0x00515246      486d0010       pea.l 0x10(a5)
            0x0051524a      487a9f18       pea.l MENU3DCOM.PAS.hit_num(pc)
            0x0051524e      4eb900487aa6   jsr MENUCOM.new_box
            0x00515254      defc0030       adda.w 0x30, a7
            0x00515258      3eb90083e3d6   move.w 0x83e3d6, (a7)
            0x0051525e      f2014000       fmove.l d1, fp0
            0x00515262      f2276400       fmove.s fp0, -(a7)
            0x00515266      f23c40000000.  fmove.l 0x0, fp0
            0x0051526e      f2276400       fmove.s fp0, -(a7)
            0x00515272      f2034000       fmove.l d3, fp0
            0x00515276      f2276400       fmove.s fp0, -(a7)
            0x0051527a      3f3cffff       move.w 0xffff, -(a7)
            0x0051527e      3f04           move.w d4, -(a7)
            0x00515280      4eb90048d4ae   jsr MENU2COM.make_numeric_bo
            0x00515286      defc000e       adda.w 0xe, a7
            0x0051528a      2eb90050a197   move.l 0x50a197, (a7)
            0x00515290      3f390050a195   move.w 0x50a195, -(a7)
            0x00515296      48790083e3d8   pea.l 0x83e3d8
            0x0051529c      3f06           move.w d6, -(a7)
            0x0051529e      3f04           move.w d4, -(a7)
            0x005152a0      3f03           move.w d3, -(a7)
            0x005152a2      3f01           move.w d1, -(a7)
            0x005152a4      1f02           move.b d2, -(a7)
            0x005152a6      4227           clr.b -(a7)
            0x005152a8      3f390083e3c2   move.w 0x83e3c2, -(a7)
            0x005152ae      3f390083e3c4   move.w 0x83e3c4, -(a7)
            0x005152b4      2f3900509c84   move.l 0x509c84, -(a7)
            0x005152ba      486f0018       pea.l 0x18(a7)
            0x005152be      48780001       pea.l 0x1
            0x005152c2      48780006       pea.l 0x6
            0x005152c6      486d0010       pea.l 0x10(a5)
            0x005152ca      487a9b5c       pea.l MENU3DCOM.PAS.hit_3d(pc)
            0x005152ce      4eb900487aa6   jsr MENUCOM.new_box
            0x005152d4      defc002c       adda.w 0x2c, a7
            0x005152d8      2eb90050a19c   move.l 0x50a19c, (a7)
            0x005152de      1f790050a1a0.  move.b 0x50a1a0, 0x4(a7)
            0x005152e6      48790083e3dc   pea.l 0x83e3dc
            0x005152ec      3f3c0014       move.w 0x14, -(a7)
            0x005152f0      3f01           move.w d1, -(a7)
            0x005152f2      3f3c0006       move.w 0x6, -(a7)
            0x005152f6      3f01           move.w d1, -(a7)
            0x005152f8      1f05           move.b d5, -(a7)
            0x005152fa      1f02           move.b d2, -(a7)
            0x005152fc      3f390083e3d8   move.w 0x83e3d8, -(a7)
            0x00515302      4267           clr.w -(a7)
            0x00515304      2f3900509c84   move.l 0x509c84, -(a7)
            0x0051530a      486f0018       pea.l 0x18(a7)
            0x0051530e      48780001       pea.l 0x1
            0x00515312      48780005       pea.l 0x5
            0x00515316      486d0010       pea.l 0x10(a5)
            0x0051531a      487a9e48       pea.l MENU3DCOM.PAS.hit_num(pc)
            0x0051531e      4eb900487aa6   jsr MENUCOM.new_box
            0x00515324      defc0030       adda.w 0x30, a7
            0x00515328      3eb90083e3dc   move.w 0x83e3dc, (a7)
            0x0051532e      f23c40000000.  fmove.l 0x0, fp0
            0x00515336      f2276400       fmove.s fp0, -(a7)
            0x0051533a      f23c4000ffff.  fmove.l 0xfffffff6, fp0
            0x00515342      f2276400       fmove.s fp0, -(a7)
            0x00515346      f23c40000000.  fmove.l 0xa, fp0
            0x0051534e      f2276400       fmove.s fp0, -(a7)
            0x00515352      3f3cfffe       move.w 0xfffe, -(a7)
            0x00515356      3f04           move.w d4, -(a7)
            0x00515358      4eb90048d4ae   jsr MENU2COM.make_numeric_bo
            0x0051535e      defc000a       adda.w 0xa, a7
            0x00515362      2eb90050a1a2   move.l 0x50a1a2, (a7)
            0x00515368      3f790050a1a6.  move.w 0x50a1a6, 0x4(a7)
            0x00515370      1f790050a1a8.  move.b 0x50a1a8, 0x6(a7)
            0x00515378      48790083e3da   pea.l 0x83e3da
            0x0051537e      3f3c0014       move.w 0x14, -(a7)
            0x00515382      3f02           move.w d2, -(a7)
            0x00515384      3f3c0006       move.w 0x6, -(a7)
            0x00515388      3f01           move.w d1, -(a7)
            0x0051538a      1f05           move.b d5, -(a7)
            0x0051538c      1f02           move.b d2, -(a7)
            0x0051538e      3f390083e3d8   move.w 0x83e3d8, -(a7)
            0x00515394      3f390083e3dc   move.w 0x83e3dc, -(a7)
            0x0051539a      2f3900509c84   move.l 0x509c84, -(a7)
            0x005153a0      486f0018       pea.l 0x18(a7)
            0x005153a4      48780001       pea.l 0x1
            0x005153a8      48780007       pea.l 0x7
            0x005153ac      486d0010       pea.l 0x10(a5)
            0x005153b0      487a9db2       pea.l MENU3DCOM.PAS.hit_num(pc)
            0x005153b4      4eb900487aa6   jsr MENUCOM.new_box
            0x005153ba      defc0032       adda.w 0x32, a7
            0x005153be      3eb90083e3da   move.w 0x83e3da, (a7)
            0x005153c4      f23c40000000.  fmove.l 0x0, fp0
            0x005153cc      f2276400       fmove.s fp0, -(a7)
            0x005153d0      f23c4000ffff.  fmove.l 0xfffffff6, fp0
            0x005153d8      f2276400       fmove.s fp0, -(a7)
            0x005153dc      f23c40000000.  fmove.l 0xa, fp0
            0x005153e4      f2276400       fmove.s fp0, -(a7)
            0x005153e8      3f3cfffe       move.w 0xfffe, -(a7)
            0x005153ec      3f04           move.w d4, -(a7)
            0x005153ee      4eb90048d4ae   jsr MENU2COM.make_numeric_bo
            0x005153f4      defc000a       adda.w 0xa, a7
            0x005153f8      2eb90050a1aa   move.l 0x50a1aa, (a7)
            0x005153fe      3f790050a1ae.  move.w 0x50a1ae, 0x4(a7)
            0x00515406      1f790050a1b0.  move.b 0x50a1b0, 0x6(a7)
            0x0051540e      48790083e3de   pea.l 0x83e3de
            0x00515414      3f3c0014       move.w 0x14, -(a7)
            0x00515418      3f04           move.w d4, -(a7)
            0x0051541a      3f3c0006       move.w 0x6, -(a7)
            0x0051541e      3f01           move.w d1, -(a7)
            0x00515420      1f05           move.b d5, -(a7)
            0x00515422      1f02           move.b d2, -(a7)
            0x00515424      3f390083e3d8   move.w 0x83e3d8, -(a7)
            0x0051542a      3f390083e3da   move.w 0x83e3da, -(a7)
            0x00515430      2f3900509c84   move.l 0x509c84, -(a7)
            0x00515436      486f0018       pea.l 0x18(a7)
            0x0051543a      48780001       pea.l 0x1
            0x0051543e      48780007       pea.l 0x7
            0x00515442      486d0010       pea.l 0x10(a5)
            0x00515446      487a9d1c       pea.l MENU3DCOM.PAS.hit_num(pc)
            0x0051544a      4eb900487aa6   jsr MENUCOM.new_box
            0x00515450      defc0032       adda.w 0x32, a7
            0x00515454      3eb90083e3de   move.w 0x83e3de, (a7)
            0x0051545a      f23c40000000.  fmove.l 0x0, fp0
            0x00515462      f2276400       fmove.s fp0, -(a7)
            0x00515466      f23c4000ffff.  fmove.l 0xfffffff6, fp0
            0x0051546e      f2276400       fmove.s fp0, -(a7)
            0x00515472      f23c40000000.  fmove.l 0xa, fp0
            0x0051547a      f2276400       fmove.s fp0, -(a7)
            0x0051547e      3f3cfffe       move.w 0xfffe, -(a7)
            0x00515482      3f04           move.w d4, -(a7)
            0x00515484      4eb90048d4ae   jsr MENU2COM.make_numeric_bo
            0x0051548a      defc000e       adda.w 0xe, a7
            0x0051548e      2eb90050a1b4   move.l 0x50a1b4, (a7)
            0x00515494      3f390050a1b2   move.w 0x50a1b2, -(a7)
            0x0051549a      48790083e3e0   pea.l 0x83e3e0
            0x005154a0      3f06           move.w d6, -(a7)
            0x005154a2      3f03           move.w d3, -(a7)
            0x005154a4      3f03           move.w d3, -(a7)
            0x005154a6      3f01           move.w d1, -(a7)
            0x005154a8      1f02           move.b d2, -(a7)
            0x005154aa      4227           clr.b -(a7)
            0x005154ac      3f390083e3c2   move.w 0x83e3c2, -(a7)
            0x005154b2      3f390083e3c4   move.w 0x83e3c4, -(a7)
            0x005154b8      2f3900509c84   move.l 0x509c84, -(a7)
            0x005154be      486f0018       pea.l 0x18(a7)
            0x005154c2      48780001       pea.l 0x1
            0x005154c6      48780006       pea.l 0x6
            0x005154ca      486d0010       pea.l 0x10(a5)
            0x005154ce      487a9958       pea.l MENU3DCOM.PAS.hit_3d(pc)
            0x005154d2      4eb900487aa6   jsr MENUCOM.new_box
            0x005154d8      defc002e       adda.w 0x2e, a7
            0x005154dc      2eb90050a1bb   move.l 0x50a1bb, (a7)
            0x005154e2      3f390050a1b9   move.w 0x50a1b9, -(a7)
            0x005154e8      48790083e3e2   pea.l 0x83e3e2
            0x005154ee      3f3c0014       move.w 0x14, -(a7)
            0x005154f2      3f01           move.w d1, -(a7)
            0x005154f4      3f3c0006       move.w 0x6, -(a7)
            0x005154f8      3f01           move.w d1, -(a7)
            0x005154fa      1f05           move.b d5, -(a7)
            0x005154fc      1f02           move.b d2, -(a7)
            0x005154fe      3f390083e3e0   move.w 0x83e3e0, -(a7)
            0x00515504      4267           clr.w -(a7)
            0x00515506      2f3900509c84   move.l 0x509c84, -(a7)
            0x0051550c      486f0018       pea.l 0x18(a7)
            0x00515510      48780001       pea.l 0x1
            0x00515514      48780006       pea.l 0x6
            0x00515518      486d0010       pea.l 0x10(a5)
            0x0051551c      487a9c46       pea.l MENU3DCOM.PAS.hit_num(pc)
            0x00515520      4eb900487aa6   jsr MENUCOM.new_box
            0x00515526      defc0030       adda.w 0x30, a7
            0x0051552a      3eb90083e3e2   move.w 0x83e3e2, (a7)
            0x00515530      f23c40000000.  fmove.l 0x0, fp0
            0x00515538      f2276400       fmove.s fp0, -(a7)
            0x0051553c      f23c4000ffff.  fmove.l 0xfffffffe, fp0
            0x00515544      f2276400       fmove.s fp0, -(a7)
            0x00515548      f2024000       fmove.l d2, fp0
            0x0051554c      f2276400       fmove.s fp0, -(a7)
            0x00515550      3f3cfffe       move.w 0xfffe, -(a7)
            0x00515554      3f04           move.w d4, -(a7)
            0x00515556      4eb90048d4ae   jsr MENU2COM.make_numeric_bo
            0x0051555c      defc000e       adda.w 0xe, a7
            0x00515560      2eb90050a1c4   move.l 0x50a1c4, (a7)
            0x00515566      2f390050a1c0   move.l 0x50a1c0, -(a7)
            0x0051556c      48790083e3e8   pea.l 0x83e3e8
            0x00515572      3f3c0014       move.w 0x14, -(a7)
            0x00515576      3f02           move.w d2, -(a7)
            0x00515578      3f3c0006       move.w 0x6, -(a7)
            0x0051557c      3f01           move.w d1, -(a7)
            0x0051557e      1f05           move.b d5, -(a7)
            0x00515580      1f02           move.b d2, -(a7)
            0x00515582      3f390083e3e0   move.w 0x83e3e0, -(a7)
            0x00515588      3f390083e3e2   move.w 0x83e3e2, -(a7)
            0x0051558e      2f3900509c84   move.l 0x509c84, -(a7)
            0x00515594      486f0018       pea.l 0x18(a7)
            0x00515598      48780001       pea.l 0x1
            0x0051559c      48780008       pea.l 0x8
            0x005155a0      486d0010       pea.l 0x10(a5)
            0x005155a4      487a9bbe       pea.l MENU3DCOM.PAS.hit_num(pc)
            0x005155a8      4eb900487aa6   jsr MENUCOM.new_box
            0x005155ae      defc0032       adda.w 0x32, a7
            0x005155b2      3eb90083e3e8   move.w 0x83e3e8, (a7)
            0x005155b8      f2014000       fmove.l d1, fp0
            0x005155bc      f2276400       fmove.s fp0, -(a7)
            0x005155c0      f23c4000ffff.  fmove.l 0xfffffffc, fp0
            0x005155c8      f2276400       fmove.s fp0, -(a7)
            0x005155cc      f2034000       fmove.l d3, fp0
            0x005155d0      f2276400       fmove.s fp0, -(a7)
            0x005155d4      3f3cfffe       move.w 0xfffe, -(a7)
            0x005155d8      3f04           move.w d4, -(a7)
            0x005155da      4eb90048d4ae   jsr MENU2COM.make_numeric_bo
            0x005155e0      defc000c       adda.w 0xc, a7
            0x005155e4      2eb90050a1c9   move.l 0x50a1c9, (a7)
            0x005155ea      1f790050a1cd.  move.b 0x50a1cd, 0x4(a7)
            0x005155f2      48790083e3e4   pea.l 0x83e3e4
            0x005155f8      3f3c0014       move.w 0x14, -(a7)
            0x005155fc      3f04           move.w d4, -(a7)
            0x005155fe      3f3c0006       move.w 0x6, -(a7)
            0x00515602      3f01           move.w d1, -(a7)
            0x00515604      1f05           move.b d5, -(a7)
            0x00515606      1f02           move.b d2, -(a7)
            0x00515608      3f390083e3e0   move.w 0x83e3e0, -(a7)
            0x0051560e      3f390083e3e8   move.w 0x83e3e8, -(a7)
            0x00515614      2f3900509c84   move.l 0x509c84, -(a7)
            0x0051561a      486f0018       pea.l 0x18(a7)
            0x0051561e      48780001       pea.l 0x1
            0x00515622      48780005       pea.l 0x5
            0x00515626      486d0010       pea.l 0x10(a5)
            0x0051562a      487a9b38       pea.l MENU3DCOM.PAS.hit_num(pc)
            0x0051562e      4eb900487aa6   jsr MENUCOM.new_box
            0x00515634      defc0030       adda.w 0x30, a7
            0x00515638      3eb90083e3e4   move.w 0x83e3e4, (a7)
            0x0051563e      f23c40000000.  fmove.l 0x0, fp0
            0x00515646      f2276400       fmove.s fp0, -(a7)
            0x0051564a      f23c4000ffff.  fmove.l 0xfffffff7, fp0
            0x00515652      f2276400       fmove.s fp0, -(a7)
            0x00515656      f23c40000000.  fmove.l 0x9, fp0
            0x0051565e      f2276400       fmove.s fp0, -(a7)
            0x00515662      3f3cfffe       move.w 0xfffe, -(a7)
            0x00515666      3f04           move.w d4, -(a7)
            0x00515668      4eb90048d4ae   jsr MENU2COM.make_numeric_bo
            0x0051566e      504f           addq.w 0x8, a7
            0x00515670      2eb90050a1cf   move.l 0x50a1cf, (a7)
            0x00515676      2f790050a1d3.  move.l 0x50a1d3, 0x4(a7)
            0x0051567e      1f790050a1d7.  move.b 0x50a1d7, 0x8(a7)
            0x00515686      48790083e3e6   pea.l 0x83e3e6
            0x0051568c      3f3c0014       move.w 0x14, -(a7)
            0x00515690      3f03           move.w d3, -(a7)
            0x00515692      3f3c0006       move.w 0x6, -(a7)
            0x00515696      3f01           move.w d1, -(a7)
            0x00515698      1f05           move.b d5, -(a7)
            0x0051569a      1f02           move.b d2, -(a7)
            0x0051569c      3f390083e3e0   move.w 0x83e3e0, -(a7)
            0x005156a2      3f390083e3e4   move.w 0x83e3e4, -(a7)
            0x005156a8      2f3900509c84   move.l 0x509c84, -(a7)
            0x005156ae      486f0018       pea.l 0x18(a7)
            0x005156b2      48780001       pea.l 0x1
            0x005156b6      48780009       pea.l 0x9
            0x005156ba      486d0010       pea.l 0x10(a5)
            0x005156be      487a9aa4       pea.l MENU3DCOM.PAS.hit_num(pc)
            0x005156c2      4eb900487aa6   jsr MENUCOM.new_box
            0x005156c8      defc0034       adda.w 0x34, a7
            0x005156cc      3eb90083e3e6   move.w 0x83e3e6, (a7)
            0x005156d2      f2014000       fmove.l d1, fp0
            0x005156d6      f2276400       fmove.s fp0, -(a7)
            0x005156da      f23c40000000.  fmove.l 0x0, fp0
            0x005156e2      f2276400       fmove.s fp0, -(a7)
            0x005156e6      f2034000       fmove.l d3, fp0
            0x005156ea      f2276400       fmove.s fp0, -(a7)
            0x005156ee      3f3cfffe       move.w 0xfffe, -(a7)
            0x005156f2      3f04           move.w d4, -(a7)
            0x005156f4      4eb90048d4ae   jsr MENU2COM.make_numeric_bo
            0x005156fa      defc0012       adda.w 0x12, a7
            0x005156fe      48790083e680   pea.l 0x83e680
            0x00515704      48780054       pea.l 0x54
            0x00515708      4eb900403a92   jsr p_New
            0x0051570e      504f           addq.w 0x8, a7
            0x00515710      20790083e680   movea.l 0x83e680, a0
            0x00515716      b1e8fffc       cmpa.l -0x4(a0), a0
        < 0x0051571a      6702           beq.b 0x51571e
           0x0051571c      4e4d           trap 0xd
        > 0x0051571e      43f90050a1d8   lea.l 0x50a1d8, a1
            0x00515724      7014           moveq 0x14, d0
        > 0x00515726      20d9           move.l (a1)+, (a0)+
        < 0x00515728      51c8fffc       dbra d0, 0x515726
            0x0051572c      2f390050a233   move.l 0x50a233, -(a7)
            0x00515732      3f390050a231   move.w 0x50a231, -(a7)
            0x00515738      3f3c0086       move.w 0x86, -(a7)
            0x0051573c      3f3c0018       move.w 0x18, -(a7)
            0x00515740      3f04           move.w d4, -(a7)
            0x00515742      3f03           move.w d3, -(a7)
            0x00515744      3f01           move.w d1, -(a7)
            0x00515746      1f02           move.b d2, -(a7)
            0x00515748      4227           clr.b -(a7)
            0x0051574a      3f390083e3f8   move.w 0x83e3f8, -(a7)
            0x00515750      4267           clr.w -(a7)
            0x00515752      2f390050a22c   move.l 0x50a22c, -(a7)
            0x00515758      486f0016       pea.l 0x16(a7)
            0x0051575c      48780001       pea.l 0x1
            0x00515760      48780006       pea.l 0x6
            0x00515764      486d0010       pea.l 0x10(a5)
            0x00515768      487aa77c       pea.l MENU3DCOM.PAS.hit_src_fields(pc)
            0x0051576c      4eb900487686   jsr MENUCOM.def_box
            0x00515772      defc002e       adda.w 0x2e, a7
            0x00515776      3eb90050a238   move.w 0x50a238, (a7)
            0x0051577c      48790083e35a   pea.l 0x83e35a
            0x00515782      3f06           move.w d6, -(a7)
            0x00515784      3f01           move.w d1, -(a7)
            0x00515786      3f03           move.w d3, -(a7)
            0x00515788      3f01           move.w d1, -(a7)
            0x0051578a      1f05           move.b d5, -(a7)
            0x0051578c      1f02           move.b d2, -(a7)
            0x0051578e      3f390083e358   move.w 0x83e358, -(a7)
            0x00515794      4267           clr.w -(a7)
            0x00515796      2f3900509c84   move.l 0x509c84, -(a7)
            0x0051579c      486f0018       pea.l 0x18(a7)
            0x005157a0      48780001       pea.l 0x1
            0x005157a4      48780002       pea.l 0x2
            0x005157a8      486d0010       pea.l 0x10(a5)
            0x005157ac      487a99b6       pea.l MENU3DCOM.PAS.hit_num(pc)
            0x005157b0      4eb900487aa6   jsr MENUCOM.new_box
            0x005157b6      defc002c       adda.w 0x2c, a7
            0x005157ba      3eb90083e35a   move.w 0x83e35a, (a7)
            0x005157c0      9efc00fc       suba.w 0xfc, a7
            0x005157c4      2f390050a23a   move.l 0x50a23a, -(a7)
            0x005157ca      3f790050a23e.  move.w 0x50a23e, 0x4(a7)
            0x005157d2      4eb90048442e   jsr MENUCOM.set_box_macro_n
            0x005157d8      defc0100       adda.w 0x100, a7
            0x005157dc      3eb90083e35a   move.w 0x83e35a, (a7)
            0x005157e2      f23c40000000.  fmove.l 0x0, fp0
            0x005157ea      f2276400       fmove.s fp0, -(a7)
            0x005157ee      f23c4000ffff.  fmove.l 0xffffd8f1, fp0
            0x005157f6      f2276400       fmove.s fp0, -(a7)
            0x005157fa      f23c40000000.  fmove.l 0x270f, fp0
            0x00515802      f2276400       fmove.s fp0, -(a7)
            0x00515806      3f3cfffe       move.w 0xfffe, -(a7)
            0x0051580a      3f03           move.w d3, -(a7)
            0x0051580c      4eb90048d4ae   jsr MENU2COM.make_numeric_bo
            0x00515812      dec6           adda.w d6, a7
            0x00515814      3eb90050a241   move.w 0x50a241, (a7)
            0x0051581a      48790083e35c   pea.l 0x83e35c
            0x00515820      3f3c0014       move.w 0x14, -(a7)
            0x00515824      3f01           move.w d1, -(a7)
            0x00515826      3f03           move.w d3, -(a7)
            0x00515828      3f01           move.w d1, -(a7)
            0x0051582a      1f05           move.b d5, -(a7)
            0x0051582c      1f02           move.b d2, -(a7)
            0x0051582e      3f390083e358   move.w 0x83e358, -(a7)
            0x00515834      3f390083e35a   move.w 0x83e35a, -(a7)
            0x0051583a      2f3900509c84   move.l 0x509c84, -(a7)
            0x00515840      486f0018       pea.l 0x18(a7)
            0x00515844      48780001       pea.l 0x1
            0x00515848      48780002       pea.l 0x2
            0x0051584c      486d0010       pea.l 0x10(a5)
            0x00515850      487a9912       pea.l MENU3DCOM.PAS.hit_num(pc)
            0x00515854      4eb900487aa6   jsr MENUCOM.new_box
            0x0051585a      defc002c       adda.w 0x2c, a7
            0x0051585e      3eb90083e35c   move.w 0x83e35c, (a7)
            0x00515864      9efc00fc       suba.w 0xfc, a7
            0x00515868      2f390050a243   move.l 0x50a243, -(a7)
            0x0051586e      3f790050a247.  move.w 0x50a247, 0x4(a7)
            0x00515876      4eb90048442e   jsr MENUCOM.set_box_macro_n
            0x0051587c      defc0100       adda.w 0x100, a7
            0x00515880      3eb90083e35c   move.w 0x83e35c, (a7)
            0x00515886      f23c40000000.  fmove.l 0x0, fp0
            0x0051588e      f2276400       fmove.s fp0, -(a7)
            0x00515892      f23c4000ffff.  fmove.l 0xffffd8f1, fp0
            0x0051589a      f2276400       fmove.s fp0, -(a7)
            0x0051589e      f23c40000000.  fmove.l 0x270f, fp0
            0x005158a6      f2276400       fmove.s fp0, -(a7)
            0x005158aa      3f3cfffe       move.w 0xfffe, -(a7)
            0x005158ae      3f03           move.w d3, -(a7)
            0x005158b0      4eb90048d4ae   jsr MENU2COM.make_numeric_bo
            0x005158b6      dec6           adda.w d6, a7
            0x005158b8      3eb90050a24a   move.w 0x50a24a, (a7)
            0x005158be      48790083e35e   pea.l 0x83e35e
            0x005158c4      3f3c0018       move.w 0x18, -(a7)
            0x005158c8      3f01           move.w d1, -(a7)
            0x005158ca      3f03           move.w d3, -(a7)
            0x005158cc      3f01           move.w d1, -(a7)
            0x005158ce      1f05           move.b d5, -(a7)
            0x005158d0      1f02           move.b d2, -(a7)
            0x005158d2      3f390083e358   move.w 0x83e358, -(a7)
            0x005158d8      3f390083e35c   move.w 0x83e35c, -(a7)
            0x005158de      2f3900509c84   move.l 0x509c84, -(a7)
            0x005158e4      486f0018       pea.l 0x18(a7)
            0x005158e8      48780001       pea.l 0x1
            0x005158ec      48780002       pea.l 0x2
            0x005158f0      486d0010       pea.l 0x10(a5)
            0x005158f4      487a986e       pea.l MENU3DCOM.PAS.hit_num(pc)
            0x005158f8      4eb900487aa6   jsr MENUCOM.new_box
            0x005158fe      defc002c       adda.w 0x2c, a7
            0x00515902      3eb90083e35e   move.w 0x83e35e, (a7)
            0x00515908      9efc00fc       suba.w 0xfc, a7
            0x0051590c      2f390050a24c   move.l 0x50a24c, -(a7)
            0x00515912      3f790050a250.  move.w 0x50a250, 0x4(a7)
            0x0051591a      4eb90048442e   jsr MENUCOM.set_box_macro_n
            0x00515920      defc0100       adda.w 0x100, a7
            0x00515924      3eb90083e35e   move.w 0x83e35e, (a7)
            0x0051592a      f23c40000000.  fmove.l 0x0, fp0
            0x00515932      f2276400       fmove.s fp0, -(a7)
            0x00515936      f23c4000ffff.  fmove.l 0xffffd8f1, fp0
            0x0051593e      f2276400       fmove.s fp0, -(a7)
            0x00515942      f23c40000000.  fmove.l 0x270f, fp0
            0x0051594a      f2276400       fmove.s fp0, -(a7)
            0x0051594e      3f3cfffe       move.w 0xfffe, -(a7)
            0x00515952      3f03           move.w d3, -(a7)
            0x00515954      4eb90048d4ae   jsr MENU2COM.make_numeric_bo
            0x0051595a      dec6           adda.w d6, a7
            0x0051595c      3eb90083e360   move.w 0x83e360, (a7)
            0x00515962      3f390083e37a   move.w 0x83e37a, -(a7)
            0x00515968      4eb900486f94   jsr MENUCOM.add_slave
            0x0051596e      544f           addq.w 0x2, a7
            0x00515970      3eb90050a253   move.w 0x50a253, (a7)
            0x00515976      48790083e362   pea.l 0x83e362
            0x0051597c      3f06           move.w d6, -(a7)
            0x0051597e      3f01           move.w d1, -(a7)
            0x00515980      3f03           move.w d3, -(a7)
            0x00515982      3f01           move.w d1, -(a7)
            0x00515984      1f05           move.b d5, -(a7)
            0x00515986      1f02           move.b d2, -(a7)
            0x00515988      3f390083e360   move.w 0x83e360, -(a7)
            0x0051598e      4267           clr.w -(a7)
            0x00515990      2f3900509c84   move.l 0x509c84, -(a7)
            0x00515996      486f0018       pea.l 0x18(a7)
            0x0051599a      48780001       pea.l 0x1
            0x0051599e      48780002       pea.l 0x2
            0x005159a2      486d0010       pea.l 0x10(a5)
            0x005159a6      487a97bc       pea.l MENU3DCOM.PAS.hit_num(pc)
            0x005159aa      4eb900487aa6   jsr MENUCOM.new_box
            0x005159b0      defc002c       adda.w 0x2c, a7
            0x005159b4      3eb90083e362   move.w 0x83e362, (a7)
            0x005159ba      9efc00fc       suba.w 0xfc, a7
            0x005159be      2f390050a255   move.l 0x50a255, -(a7)
            0x005159c4      3f790050a259.  move.w 0x50a259, 0x4(a7)
            0x005159cc      1f790050a25b.  move.b 0x50a25b, 0x6(a7)
            0x005159d4      4eb90048442e   jsr MENUCOM.set_box_macro_n
            0x005159da      defc0100       adda.w 0x100, a7
            0x005159de      3eb90083e362   move.w 0x83e362, (a7)
            0x005159e4      f23c40000000.  fmove.l 0x0, fp0
            0x005159ec      f2276400       fmove.s fp0, -(a7)
            0x005159f0      f23c4000ffff.  fmove.l 0xffffd8f1, fp0
            0x005159f8      f2276400       fmove.s fp0, -(a7)
            0x005159fc      f23c40000000.  fmove.l 0x270f, fp0
            0x00515a04      f2276400       fmove.s fp0, -(a7)
            0x00515a08      3f3cfffe       move.w 0xfffe, -(a7)
            0x00515a0c      3f03           move.w d3, -(a7)
            0x00515a0e      4eb90048d4ae   jsr MENU2COM.make_numeric_bo
            0x00515a14      dec6           adda.w d6, a7
            0x00515a16      3eb90050a25d   move.w 0x50a25d, (a7)
            0x00515a1c      48790083e364   pea.l 0x83e364
            0x00515a22      3f3c0014       move.w 0x14, -(a7)
            0x00515a26      3f01           move.w d1, -(a7)
            0x00515a28      3f03           move.w d3, -(a7)
            0x00515a2a      3f01           move.w d1, -(a7)
            0x00515a2c      1f05           move.b d5, -(a7)
            0x00515a2e      1f02           move.b d2, -(a7)
            0x00515a30      3f390083e360   move.w 0x83e360, -(a7)
            0x00515a36      3f390083e362   move.w 0x83e362, -(a7)
            0x00515a3c      2f3900509c84   move.l 0x509c84, -(a7)
            0x00515a42      486f0018       pea.l 0x18(a7)
            0x00515a46      48780001       pea.l 0x1
            0x00515a4a      48780002       pea.l 0x2
            0x00515a4e      486d0010       pea.l 0x10(a5)
            0x00515a52      487a9710       pea.l MENU3DCOM.PAS.hit_num(pc)
            0x00515a56      4eb900487aa6   jsr MENUCOM.new_box
            0x00515a5c      defc002c       adda.w 0x2c, a7
            0x00515a60      3eb90083e364   move.w 0x83e364, (a7)
            0x00515a66      9efc00fc       suba.w 0xfc, a7
            0x00515a6a      2f390050a25f   move.l 0x50a25f, -(a7)
            0x00515a70      3f790050a263.  move.w 0x50a263, 0x4(a7)
            0x00515a78      1f790050a265.  move.b 0x50a265, 0x6(a7)
            0x00515a80      4eb90048442e   jsr MENUCOM.set_box_macro_n
            0x00515a86      defc0100       adda.w 0x100, a7
            0x00515a8a      3eb90083e364   move.w 0x83e364, (a7)
            0x00515a90      f23c40000000.  fmove.l 0x0, fp0
            0x00515a98      f2276400       fmove.s fp0, -(a7)
            0x00515a9c      f23c4000ffff.  fmove.l 0xffffd8f1, fp0
            0x00515aa4      f2276400       fmove.s fp0, -(a7)
            0x00515aa8      f23c40000000.  fmove.l 0x270f, fp0
            0x00515ab0      f2276400       fmove.s fp0, -(a7)
            0x00515ab4      3f3cfffe       move.w 0xfffe, -(a7)
            0x00515ab8      3f03           move.w d3, -(a7)
            0x00515aba      4eb90048d4ae   jsr MENU2COM.make_numeric_bo
            0x00515ac0      dec6           adda.w d6, a7
            0x00515ac2      3eb90050a267   move.w 0x50a267, (a7)
            0x00515ac8      48790083e366   pea.l 0x83e366
            0x00515ace      3f3c0018       move.w 0x18, -(a7)
            0x00515ad2      3f01           move.w d1, -(a7)
            0x00515ad4      3f03           move.w d3, -(a7)
            0x00515ad6      3f01           move.w d1, -(a7)
            0x00515ad8      1f05           move.b d5, -(a7)
            0x00515ada      1f02           move.b d2, -(a7)
            0x00515adc      3f390083e360   move.w 0x83e360, -(a7)
            0x00515ae2      3f390083e364   move.w 0x83e364, -(a7)
            0x00515ae8      2f3900509c84   move.l 0x509c84, -(a7)
            0x00515aee      486f0018       pea.l 0x18(a7)
            0x00515af2      48780001       pea.l 0x1
            0x00515af6      48780002       pea.l 0x2
            0x00515afa      486d0010       pea.l 0x10(a5)
            0x00515afe      487a9664       pea.l MENU3DCOM.PAS.hit_num(pc)
            0x00515b02      4eb900487aa6   jsr MENUCOM.new_box
            0x00515b08      defc002c       adda.w 0x2c, a7
            0x00515b0c      3eb90083e366   move.w 0x83e366, (a7)
            0x00515b12      9efc00fc       suba.w 0xfc, a7
            0x00515b16      2f390050a269   move.l 0x50a269, -(a7)
            0x00515b1c      3f790050a26d.  move.w 0x50a26d, 0x4(a7)
            0x00515b24      1f790050a26f.  move.b 0x50a26f, 0x6(a7)
            0x00515b2c      4eb90048442e   jsr MENUCOM.set_box_macro_n
            0x00515b32      defc0100       adda.w 0x100, a7
            0x00515b36      3eb90083e366   move.w 0x83e366, (a7)
            0x00515b3c      f23c40000000.  fmove.l 0x0, fp0
            0x00515b44      f2276400       fmove.s fp0, -(a7)
            0x00515b48      f23c4000ffff.  fmove.l 0xffffd8f1, fp0
            0x00515b50      f2276400       fmove.s fp0, -(a7)
            0x00515b54      f23c40000000.  fmove.l 0x270f, fp0
            0x00515b5c      f2276400       fmove.s fp0, -(a7)
            0x00515b60      3f3cfffe       move.w 0xfffe, -(a7)
            0x00515b64      3f03           move.w d3, -(a7)
            0x00515b66      4eb90048d4ae   jsr MENU2COM.make_numeric_bo
            0x00515b6c      defc000c       adda.w 0xc, a7
            0x00515b70      2eb90050a271   move.l 0x50a271, (a7)
            0x00515b76      1f790050a275.  move.b 0x50a275, 0x4(a7)
            0x00515b7e      48790083e3f6   pea.l 0x83e3f6
            0x00515b84      4267           clr.w -(a7)
            0x00515b86      4267           clr.w -(a7)
            0x00515b88      4267           clr.w -(a7)
            0x00515b8a      4267           clr.w -(a7)
            0x00515b8c      1f01           move.b d1, -(a7)
            0x00515b8e      4227           clr.b -(a7)
            0x00515b90      3f390083e360   move.w 0x83e360, -(a7)
            0x00515b96      3f390083e3f8   move.w 0x83e3f8, -(a7)
            0x00515b9c      2f3900509c84   move.l 0x509c84, -(a7)
            0x00515ba2      486f0018       pea.l 0x18(a7)
            0x00515ba6      48780001       pea.l 0x1
            0x00515baa      48780005       pea.l 0x5
            0x00515bae      486d0010       pea.l 0x10(a5)
            0x00515bb2      487900481fee   pea.l MENUCOM.hit_nothing
            0x00515bb8      4eb900487aa6   jsr MENUCOM.new_box
            0x00515bbe      defc002e       adda.w 0x2e, a7
            0x00515bc2      3eb90050a27b   move.w 0x50a27b, (a7)
            0x00515bc8      1f790050a27d.  move.b 0x50a27d, 0x2(a7)
            0x00515bd0      48790083e368   pea.l 0x83e368
            0x00515bd6      3f06           move.w d6, -(a7)
            0x00515bd8      3f04           move.w d4, -(a7)
            0x00515bda      3f02           move.w d2, -(a7)
            0x00515bdc      3f01           move.w d1, -(a7)
            0x00515bde      1f01           move.b d1, -(a7)
            0x00515be0      4227           clr.b -(a7)
            0x00515be2      3f390083e3f6   move.w 0x83e3f6, -(a7)
            0x00515be8      4267           clr.w -(a7)
            0x00515bea      2f390050a276   move.l 0x50a276, -(a7)
            0x00515bf0      486f0018       pea.l 0x18(a7)
            0x00515bf4      48780001       pea.l 0x1
            0x00515bf8      48780003       pea.l 0x3
            0x00515bfc      486d0010       pea.l 0x10(a5)
            0x00515c00      487900481fee   pea.l MENUCOM.hit_nothing
            0x00515c06      4eb900487aa6   jsr MENUCOM.new_box
            0x00515c0c      defc002c       adda.w 0x2c, a7
            0x00515c10      2eb90050a281   move.l 0x50a281, (a7)
            0x00515c16      3f390050a27f   move.w 0x50a27f, -(a7)
            0x00515c1c      48790083e36a   pea.l 0x83e36a
            0x00515c22      3f3c0012       move.w 0x12, -(a7)
            0x00515c26      3f04           move.w d4, -(a7)
            0x00515c28      3f02           move.w d2, -(a7)
            0x00515c2a      3f01           move.w d1, -(a7)
            0x00515c2c      1f01           move.b d1, -(a7)
            0x00515c2e      4227           clr.b -(a7)
            0x00515c30      3f390083e3f6   move.w 0x83e3f6, -(a7)
            0x00515c36      3f390083e368   move.w 0x83e368, -(a7)
            0x00515c3c      2f3900509c84   move.l 0x509c84, -(a7)
            0x00515c42      486f0018       pea.l 0x18(a7)
            0x00515c46      48780001       pea.l 0x1
            0x00515c4a      48780006       pea.l 0x6
            0x00515c4e      486d0010       pea.l 0x10(a5)
            0x00515c52      487900481fee   pea.l MENUCOM.hit_nothing
            0x00515c58      4eb900487aa6   jsr MENUCOM.new_box
            0x00515c5e      defc002e       adda.w 0x2e, a7
            0x00515c62      3eb90050a286   move.w 0x50a286, (a7)
            0x00515c68      1f790050a288.  move.b 0x50a288, 0x2(a7)
            0x00515c70      48790083e36c   pea.l 0x83e36c
            0x00515c76      3f3c0014       move.w 0x14, -(a7)
            0x00515c7a      3f04           move.w d4, -(a7)
            0x00515c7c      3f02           move.w d2, -(a7)
            0x00515c7e      3f01           move.w d1, -(a7)
            0x00515c80      1f3c0005       move.b 0x5, -(a7)
            0x00515c84      4227           clr.b -(a7)
            0x00515c86      3f390083e3f6   move.w 0x83e3f6, -(a7)
            0x00515c8c      4267           clr.w -(a7)
            0x00515c8e      2f3900509c84   move.l 0x509c84, -(a7)
            0x00515c94      486f0018       pea.l 0x18(a7)
            0x00515c98      48780001       pea.l 0x1
            0x00515c9c      48780003       pea.l 0x3
            0x00515ca0      486d0010       pea.l 0x10(a5)
            0x00515ca4      487a9e5a       pea.l MENU3DCOM.PAS.hit_spin_inc(pc)
            0x00515ca8      4eb900487aa6   jsr MENUCOM.new_box
            0x00515cae      defc002c       adda.w 0x2c, a7
            0x00515cb2      2eb90050a28c   move.l 0x50a28c, (a7)
            0x00515cb8      3f390050a28a   move.w 0x50a28a, -(a7)
            0x00515cbe      48790083e36e   pea.l 0x83e36e
            0x00515cc4      3f3c0016       move.w 0x16, -(a7)
            0x00515cc8      3f04           move.w d4, -(a7)
            0x00515cca      3f02           move.w d2, -(a7)
            0x00515ccc      3f01           move.w d1, -(a7)
            0x00515cce      1f3c0005       move.b 0x5, -(a7)
            0x00515cd2      4227           clr.b -(a7)
            0x00515cd4      3f390083e3f6   move.w 0x83e3f6, -(a7)
            0x00515cda      4267           clr.w -(a7)
            0x00515cdc      2f3900509c84   move.l 0x509c84, -(a7)
            0x00515ce2      486f0018       pea.l 0x18(a7)
            0x00515ce6      48780001       pea.l 0x1
            0x00515cea      48780006       pea.l 0x6
            0x00515cee      486d0010       pea.l 0x10(a5)
            0x00515cf2      487a9e0c       pea.l MENU3DCOM.PAS.hit_spin_inc(pc)
            0x00515cf6      4eb900487aa6   jsr MENUCOM.new_box
            0x00515cfc      defc002c       adda.w 0x2c, a7
            0x00515d00      2eb90050a291   move.l 0x50a291, (a7)
            0x00515d06      1f790050a295.  move.b 0x50a295, 0x4(a7)
            0x00515d0e      48790083e370   pea.l 0x83e370
            0x00515d14      3f3c0018       move.w 0x18, -(a7)
            0x00515d18      3f04           move.w d4, -(a7)
            0x00515d1a      3f03           move.w d3, -(a7)
            0x00515d1c      3f01           move.w d1, -(a7)
            0x00515d1e      1f3c0005       move.b 0x5, -(a7)
            0x00515d22      4227           clr.b -(a7)
            0x00515d24      3f390083e3f6   move.w 0x83e3f6, -(a7)
            0x00515d2a      4267           clr.w -(a7)
            0x00515d2c      2f3900509c84   move.l 0x509c84, -(a7)
            0x00515d32      486f0018       pea.l 0x18(a7)
            0x00515d36      48780001       pea.l 0x1
            0x00515d3a      48780005       pea.l 0x5
            0x00515d3e      486d0010       pea.l 0x10(a5)
            0x00515d42      487a9dbc       pea.l MENU3DCOM.PAS.hit_spin_inc(pc)
            0x00515d46      4eb900487aa6   jsr MENUCOM.new_box
            0x00515d4c      defc0030       adda.w 0x30, a7
            0x00515d50      3eb90083e372   move.w 0x83e372, (a7)
            0x00515d56      3f390083e37a   move.w 0x83e37a, -(a7)
            0x00515d5c      4eb900486f94   jsr MENUCOM.add_slave
            0x00515d62      544f           addq.w 0x2, a7
            0x00515d64      3eb90050a297   move.w 0x50a297, (a7)
            0x00515d6a      48790083e374   pea.l 0x83e374
            0x00515d70      3f06           move.w d6, -(a7)
            0x00515d72      3f01           move.w d1, -(a7)
            0x00515d74      3f03           move.w d3, -(a7)
            0x00515d76      3f01           move.w d1, -(a7)
            0x00515d78      1f05           move.b d5, -(a7)
            0x00515d7a      1f02           move.b d2, -(a7)
            0x00515d7c      3f390083e372   move.w 0x83e372, -(a7)
            0x00515d82      4267           clr.w -(a7)
            0x00515d84      2f3900509c84   move.l 0x509c84, -(a7)
            0x00515d8a      486f0018       pea.l 0x18(a7)
            0x00515d8e      48780001       pea.l 0x1
            0x00515d92      48780002       pea.l 0x2
            0x00515d96      486d0010       pea.l 0x10(a5)
            0x00515d9a      487a93c8       pea.l MENU3DCOM.PAS.hit_num(pc)
            0x00515d9e      4eb900487aa6   jsr MENUCOM.new_box
            0x00515da4      defc002c       adda.w 0x2c, a7
            0x00515da8      3eb90083e374   move.w 0x83e374, (a7)
            0x00515dae      9efc00fc       suba.w 0xfc, a7
            0x00515db2      2f390050a299   move.l 0x50a299, -(a7)
            0x00515db8      3f790050a29d.  move.w 0x50a29d, 0x4(a7)
            0x00515dc0      1f790050a29f.  move.b 0x50a29f, 0x6(a7)
            0x00515dc8      4eb90048442e   jsr MENUCOM.set_box_macro_n
            0x00515dce      defc0100       adda.w 0x100, a7
            0x00515dd2      3eb90083e374   move.w 0x83e374, (a7)
            0x00515dd8      f2014000       fmove.l d1, fp0
            0x00515ddc      f2276400       fmove.s fp0, -(a7)
            0x00515de0      f23c4000ffff.  fmove.l 0xfffffc19, fp0
            0x00515de8      f2276400       fmove.s fp0, -(a7)
            0x00515dec      f23c40000000.  fmove.l 0x3e7, fp0
            0x00515df4      f2276400       fmove.s fp0, -(a7)
            0x00515df8      3f3cfffe       move.w 0xfffe, -(a7)
            0x00515dfc      3f03           move.w d3, -(a7)
            0x00515dfe      4eb90048d4ae   jsr MENU2COM.make_numeric_bo
            0x00515e04      dec6           adda.w d6, a7
            0x00515e06      3eb90050a2a1   move.w 0x50a2a1, (a7)
            0x00515e0c      48790083e376   pea.l 0x83e376
            0x00515e12      3f3c0014       move.w 0x14, -(a7)
            0x00515e16      3f01           move.w d1, -(a7)
            0x00515e18      3f03           move.w d3, -(a7)
            0x00515e1a      3f01           move.w d1, -(a7)
            0x00515e1c      1f05           move.b d5, -(a7)
            0x00515e1e      1f02           move.b d2, -(a7)
            0x00515e20      3f390083e372   move.w 0x83e372, -(a7)
            0x00515e26      3f390083e374   move.w 0x83e374, -(a7)
            0x00515e2c      2f3900509c84   move.l 0x509c84, -(a7)
            0x00515e32      486f0018       pea.l 0x18(a7)
            0x00515e36      48780001       pea.l 0x1
            0x00515e3a      48780002       pea.l 0x2
            0x00515e3e      486d0010       pea.l 0x10(a5)
            0x00515e42      487a9320       pea.l MENU3DCOM.PAS.hit_num(pc)
            0x00515e46      4eb900487aa6   jsr MENUCOM.new_box
            0x00515e4c      defc002c       adda.w 0x2c, a7
            0x00515e50      3eb90083e376   move.w 0x83e376, (a7)
            0x00515e56      9efc00fc       suba.w 0xfc, a7
            0x00515e5a      2f390050a2a3   move.l 0x50a2a3, -(a7)
            0x00515e60      3f790050a2a7.  move.w 0x50a2a7, 0x4(a7)
            0x00515e68      1f790050a2a9.  move.b 0x50a2a9, 0x6(a7)
            0x00515e70      4eb90048442e   jsr MENUCOM.set_box_macro_n
            0x00515e76      defc0100       adda.w 0x100, a7
            0x00515e7a      3eb90083e376   move.w 0x83e376, (a7)
            0x00515e80      f2014000       fmove.l d1, fp0
            0x00515e84      f2276400       fmove.s fp0, -(a7)
            0x00515e88      f23c4000ffff.  fmove.l 0xfffffc19, fp0
            0x00515e90      f2276400       fmove.s fp0, -(a7)
            0x00515e94      f23c40000000.  fmove.l 0x3e7, fp0
            0x00515e9c      f2276400       fmove.s fp0, -(a7)
            0x00515ea0      3f3cfffe       move.w 0xfffe, -(a7)
            0x00515ea4      3f03           move.w d3, -(a7)
            0x00515ea6      4eb90048d4ae   jsr MENU2COM.make_numeric_bo
            0x00515eac      dec6           adda.w d6, a7
            0x00515eae      3eb90050a2ab   move.w 0x50a2ab, (a7)
            0x00515eb4      48790083e378   pea.l 0x83e378
            0x00515eba      3f3c0018       move.w 0x18, -(a7)
            0x00515ebe      3f01           move.w d1, -(a7)
            0x00515ec0      3f03           move.w d3, -(a7)
            0x00515ec2      3f01           move.w d1, -(a7)
            0x00515ec4      1f05           move.b d5, -(a7)
            0x00515ec6      1f02           move.b d2, -(a7)
            0x00515ec8      3f390083e372   move.w 0x83e372, -(a7)
            0x00515ece      3f390083e376   move.w 0x83e376, -(a7)
            0x00515ed4      2f3900509c84   move.l 0x509c84, -(a7)
            0x00515eda      486f0018       pea.l 0x18(a7)
            0x00515ede      48780001       pea.l 0x1
            0x00515ee2      48780002       pea.l 0x2
            0x00515ee6      486d0010       pea.l 0x10(a5)
            0x00515eea      487a9278       pea.l MENU3DCOM.PAS.hit_num(pc)
            0x00515eee      4eb900487aa6   jsr MENUCOM.new_box
            0x00515ef4      defc002c       adda.w 0x2c, a7
            0x00515ef8      3eb90083e378   move.w 0x83e378, (a7)
            0x00515efe      9efc00fc       suba.w 0xfc, a7
            0x00515f02      2f390050a2ad   move.l 0x50a2ad, -(a7)
            0x00515f08      3f790050a2b1.  move.w 0x50a2b1, 0x4(a7)
            0x00515f10      1f790050a2b3.  move.b 0x50a2b3, 0x6(a7)
            0x00515f18      4eb90048442e   jsr MENUCOM.set_box_macro_n
            0x00515f1e      defc0100       adda.w 0x100, a7
            0x00515f22      3eb90083e378   move.w 0x83e378, (a7)
            0x00515f28      f2014000       fmove.l d1, fp0
            0x00515f2c      f2276400       fmove.s fp0, -(a7)
            0x00515f30      f23c4000ffff.  fmove.l 0xfffffc19, fp0
            0x00515f38      f2276400       fmove.s fp0, -(a7)
            0x00515f3c      f23c40000000.  fmove.l 0x3e7, fp0
            0x00515f44      f2276400       fmove.s fp0, -(a7)
            0x00515f48      3f3cfffe       move.w 0xfffe, -(a7)
            0x00515f4c      3f03           move.w d3, -(a7)
            0x00515f4e      4eb90048d4ae   jsr MENU2COM.make_numeric_bo
            0x00515f54      defc000e       adda.w 0xe, a7
            0x00515f58      3eb90050a2b9   move.w 0x50a2b9, (a7)
            0x00515f5e      1f790050a2bb.  move.b 0x50a2bb, 0x2(a7)
            0x00515f66      48790083e406   pea.l 0x83e406
            0x00515f6c      3f3c000e       move.w 0xe, -(a7)
            0x00515f70      3f02           move.w d2, -(a7)
            0x00515f72      3f02           move.w d2, -(a7)
            0x00515f74      3f01           move.w d1, -(a7)
            0x00515f76      1f3c0005       move.b 0x5, -(a7)
            0x00515f7a      4227           clr.b -(a7)
            0x00515f7c      3f2e0010       move.w 0x10(a6), -(a7)
            0x00515f80      4267           clr.w -(a7)
            0x00515f82      2f390050a2b4   move.l 0x50a2b4, -(a7)
            0x00515f88      486f0018       pea.l 0x18(a7)
            0x00515f8c      48780001       pea.l 0x1
            0x00515f90      48780003       pea.l 0x3
            0x00515f94      486d0010       pea.l 0x10(a5)
            0x00515f98      487aa10a       pea.l MENU3DCOM.PAS.hit_top(pc)
            0x00515f9c      4eb900487aa6   jsr MENUCOM.new_box
            0x00515fa2      defc002c       adda.w 0x2c, a7
            0x00515fa6      2eb90050a2bd   move.l 0x50a2bd, (a7)
            0x00515fac      48790083e38a   pea.l 0x83e38a
            0x00515fb2      3f06           move.w d6, -(a7)
            0x00515fb4      3f01           move.w d1, -(a7)
            0x00515fb6      3f03           move.w d3, -(a7)
            0x00515fb8      3f01           move.w d1, -(a7)
            0x00515fba      1f02           move.b d2, -(a7)
            0x00515fbc      4227           clr.b -(a7)
            0x00515fbe      3f3c007f       move.w 0x7f, -(a7)
            0x00515fc2      4267           clr.w -(a7)
            0x00515fc4      2f3900509c84   move.l 0x509c84, -(a7)
            0x00515fca      486f0018       pea.l 0x18(a7)
            0x00515fce      48780001       pea.l 0x1
            0x00515fd2      48780004       pea.l 0x4
            0x00515fd6      486d0010       pea.l 0x10(a5)
            0x00515fda      487a8e4c       pea.l MENU3DCOM.PAS.hit_3d(pc)
            0x00515fde      4eb900487aa6   jsr MENUCOM.new_box
            0x00515fe4      defc002c       adda.w 0x2c, a7
            0x00515fe8      2eb90050a2c6   move.l 0x50a2c6, (a7)
            0x00515fee      2f390050a2c2   move.l 0x50a2c2, -(a7)
            0x00515ff4      48790083e38e   pea.l 0x83e38e
            0x00515ffa      3f3c0018       move.w 0x18, -(a7)
            0x00515ffe      3f01           move.w d1, -(a7)
            0x00516000      3f03           move.w d3, -(a7)
            0x00516002      3f01           move.w d1, -(a7)
            0x00516004      1f02           move.b d2, -(a7)
            0x00516006      4227           clr.b -(a7)
            0x00516008      3f3c007f       move.w 0x7f, -(a7)
            0x0051600c      4267           clr.w -(a7)
            0x0051600e      2f3900509c84   move.l 0x509c84, -(a7)
            0x00516014      486f0018       pea.l 0x18(a7)
            0x00516018      48780001       pea.l 0x1
            0x0051601c      48780008       pea.l 0x8
            0x00516020      486d0010       pea.l 0x10(a5)
            0x00516024      487900481fee   pea.l MENUCOM.hit_nothing
            0x0051602a      4eb900487aa6   jsr MENUCOM.new_box
            0x00516030      defc002a       adda.w 0x2a, a7
            0x00516034      2eb90050a2cf   move.l 0x50a2cf, (a7)
            0x0051603a      2f790050a2d3.  move.l 0x50a2d3, 0x4(a7)
            0x00516042      1f790050a2d7.  move.b 0x50a2d7, 0x8(a7)
            0x0051604a      48790083e38c   pea.l 0x83e38c
            0x00516050      3f3c0014       move.w 0x14, -(a7)
            0x00516054      3f01           move.w d1, -(a7)
            0x00516056      3f03           move.w d3, -(a7)
            0x00516058      3f01           move.w d1, -(a7)
            0x0051605a      1f02           move.b d2, -(a7)
            0x0051605c      4227           clr.b -(a7)
            0x0051605e      3f3c007f       move.w 0x7f, -(a7)
            0x00516062      4267           clr.w -(a7)
            0x00516064      2f390050a2ca   move.l 0x50a2ca, -(a7)
            0x0051606a      486f0018       pea.l 0x18(a7)
            0x0051606e      48780001       pea.l 0x1
            0x00516072      48780009       pea.l 0x9
            0x00516076      486d0010       pea.l 0x10(a5)
            0x0051607a      487a8dac       pea.l MENU3DCOM.PAS.hit_3d(pc)
            0x0051607e      4eb900487aa6   jsr MENUCOM.new_box
            0x00516084      defc0032       adda.w 0x32, a7
            0x00516088      7000           moveq 0x0, d0
            0x0051608a      41ef0001       lea.l 0x1(a7), a0
            0x0051608e      43f90050a2db   lea.l 0x50a2db, a1
        > 0x00516094      10d9           move.b (a1)+, (a0)+
        < 0x00516096      51c8fffc       dbra d0, 0x516094
            0x0051609a      1e81           move.b d1, (a7)
            0x0051609c      5217           addq.b 0x1, (a7)
            0x0051609e      7000           moveq 0x0, d0
            0x005160a0      43f90050a2d9   lea.l 0x50a2d9, a1
        > 0x005160a6      10d9           move.b (a1)+, (a0)+
        < 0x005160a8      51c8fffc       dbra d0, 0x5160a6
            0x005160ac      554f           subq.w 0x2, a7
            0x005160ae      3f2f0002       move.w 0x2(a7), -(a7)
            0x005160b2      1f6f00060002   move.b 0x6(a7), 0x2(a7)
            0x005160b8      48790083e37e   pea.l 0x83e37e
            0x005160be      3f06           move.w d6, -(a7)
            0x005160c0      3f02           move.w d2, -(a7)
            0x005160c2      3f02           move.w d2, -(a7)
            0x005160c4      3f01           move.w d1, -(a7)
            0x005160c6      1f02           move.b d2, -(a7)
            0x005160c8      4227           clr.b -(a7)
            0x005160ca      3f3c007f       move.w 0x7f, -(a7)
            0x005160ce      4267           clr.w -(a7)
            0x005160d0      2f3900509c84   move.l 0x509c84, -(a7)
            0x005160d6      486f0018       pea.l 0x18(a7)
            0x005160da      48780000       pea.l 0x0
            0x005160de      48780003       pea.l 0x3
            0x005160e2      486d0010       pea.l 0x10(a5)
            0x005160e6      487a8d40       pea.l MENU3DCOM.PAS.hit_3d(pc)
            0x005160ea      4eb900487aa6   jsr MENUCOM.new_box
            0x005160f0      defc0030       adda.w 0x30, a7
            0x005160f4      7000           moveq 0x0, d0
            0x005160f6      41ef0001       lea.l 0x1(a7), a0
            0x005160fa      43f90050a2df   lea.l 0x50a2df, a1
        > 0x00516100      10d9           move.b (a1)+, (a0)+
        < 0x00516102      51c8fffc       dbra d0, 0x516100
            0x00516106      1e81           move.b d1, (a7)
            0x00516108      5217           addq.b 0x1, (a7)
            0x0051610a      7000           moveq 0x0, d0
            0x0051610c      43f90050a2dd   lea.l 0x50a2dd, a1
        > 0x00516112      10d9           move.b (a1)+, (a0)+
        < 0x00516114      51c8fffc       dbra d0, 0x516112
            0x00516118      554f           subq.w 0x2, a7
            0x0051611a      3f2f0002       move.w 0x2(a7), -(a7)
            0x0051611e      1f6f00060002   move.b 0x6(a7), 0x2(a7)
            0x00516124      48790083e380   pea.l 0x83e380
            0x0051612a      3f3c0012       move.w 0x12, -(a7)
            0x0051612e      3f02           move.w d2, -(a7)
            0x00516130      3f02           move.w d2, -(a7)
            0x00516132      3f01           move.w d1, -(a7)
            0x00516134      1f02           move.b d2, -(a7)
            0x00516136      4227           clr.b -(a7)
            0x00516138      3f3c007f       move.w 0x7f, -(a7)
            0x0051613c      3f390083e37e   move.w 0x83e37e, -(a7)
            0x00516142      2f3900509c84   move.l 0x509c84, -(a7)
            0x00516148      486f0018       pea.l 0x18(a7)
            0x0051614c      48780000       pea.l 0x0
            0x00516150      48780003       pea.l 0x3
            0x00516154      486d0010       pea.l 0x10(a5)
            0x00516158      487a8cce       pea.l MENU3DCOM.PAS.hit_3d(pc)
            0x0051615c      4eb900487aa6   jsr MENUCOM.new_box
            0x00516162      defc0030       adda.w 0x30, a7
            0x00516166      7000           moveq 0x0, d0
            0x00516168      41ef0001       lea.l 0x1(a7), a0
            0x0051616c      43f90050a2e3   lea.l 0x50a2e3, a1
        > 0x00516172      10d9           move.b (a1)+, (a0)+
        < 0x00516174      51c8fffc       dbra d0, 0x516172
            0x00516178      1e81           move.b d1, (a7)
            0x0051617a      5217           addq.b 0x1, (a7)
            0x0051617c      7000           moveq 0x0, d0
            0x0051617e      43f90050a2e1   lea.l 0x50a2e1, a1
        > 0x00516184      10d9           move.b (a1)+, (a0)+
        < 0x00516186      51c8fffc       dbra d0, 0x516184
            0x0051618a      554f           subq.w 0x2, a7
            0x0051618c      3f2f0002       move.w 0x2(a7), -(a7)
            0x00516190      1f6f00060002   move.b 0x6(a7), 0x2(a7)
            0x00516196      48790083e382   pea.l 0x83e382
            0x0051619c      3f06           move.w d6, -(a7)
            0x0051619e      3f04           move.w d4, -(a7)
            0x005161a0      3f02           move.w d2, -(a7)
            0x005161a2      3f01           move.w d1, -(a7)
            0x005161a4      1f02           move.b d2, -(a7)
            0x005161a6      4227           clr.b -(a7)
            0x005161a8      3f3c007f       move.w 0x7f, -(a7)
            0x005161ac      3f390083e380   move.w 0x83e380, -(a7)
            0x005161b2      2f3900509c84   move.l 0x509c84, -(a7)
            0x005161b8      486f0018       pea.l 0x18(a7)
            0x005161bc      48780000       pea.l 0x0
            0x005161c0      48780003       pea.l 0x3
            0x005161c4      486d0010       pea.l 0x10(a5)
            0x005161c8      487a8c5e       pea.l MENU3DCOM.PAS.hit_3d(pc)
            0x005161cc      4eb900487aa6   jsr MENUCOM.new_box
            0x005161d2      defc0030       adda.w 0x30, a7
            0x005161d6      7000           moveq 0x0, d0
            0x005161d8      41ef0001       lea.l 0x1(a7), a0
            0x005161dc      43f90050a2e7   lea.l 0x50a2e7, a1
        > 0x005161e2      10d9           move.b (a1)+, (a0)+
        < 0x005161e4      51c8fffc       dbra d0, 0x5161e2
            0x005161e8      1e81           move.b d1, (a7)
            0x005161ea      5217           addq.b 0x1, (a7)
            0x005161ec      7000           moveq 0x0, d0
            0x005161ee      43f90050a2e5   lea.l 0x50a2e5, a1
        > 0x005161f4      10d9           move.b (a1)+, (a0)+
        < 0x005161f6      51c8fffc       dbra d0, 0x5161f4
            0x005161fa      554f           subq.w 0x2, a7
            0x005161fc      3f2f0002       move.w 0x2(a7), -(a7)
            0x00516200      1f6f00060002   move.b 0x6(a7), 0x2(a7)
            0x00516206      48790083e384   pea.l 0x83e384
            0x0051620c      3f3c0012       move.w 0x12, -(a7)
            0x00516210      3f04           move.w d4, -(a7)
            0x00516212      3f02           move.w d2, -(a7)
            0x00516214      3f01           move.w d1, -(a7)
            0x00516216      1f02           move.b d2, -(a7)
            0x00516218      4227           clr.b -(a7)
            0x0051621a      3f3c007f       move.w 0x7f, -(a7)
            0x0051621e      3f390083e382   move.w 0x83e382, -(a7)
            0x00516224      2f3900509c84   move.l 0x509c84, -(a7)
            0x0051622a      486f0018       pea.l 0x18(a7)
            0x0051622e      48780000       pea.l 0x0
            0x00516232      48780003       pea.l 0x3
            0x00516236      486d0010       pea.l 0x10(a5)
            0x0051623a      487a8bec       pea.l MENU3DCOM.PAS.hit_3d(pc)
            0x0051623e      4eb900487aa6   jsr MENUCOM.new_box
            0x00516244      defc0032       adda.w 0x32, a7
            0x00516248      3eb90050a2e9   move.w 0x50a2e9, (a7)
            0x0051624e      48790083e386   pea.l 0x83e386
            0x00516254      3f3c0014       move.w 0x14, -(a7)
            0x00516258      3f02           move.w d2, -(a7)
            0x0051625a      3f03           move.w d3, -(a7)
            0x0051625c      3f01           move.w d1, -(a7)
            0x0051625e      1f05           move.b d5, -(a7)
            0x00516260      1f02           move.b d2, -(a7)
            0x00516262      3f390083e37e   move.w 0x83e37e, -(a7)
            0x00516268      4267           clr.w -(a7)
            0x0051626a      2f3900509c84   move.l 0x509c84, -(a7)
            0x00516270      486f0018       pea.l 0x18(a7)
            0x00516274      48780001       pea.l 0x1
            0x00516278      48780002       pea.l 0x2
            0x0051627c      486d0010       pea.l 0x10(a5)
            0x00516280      487a8ee2       pea.l MENU3DCOM.PAS.hit_num(pc)
            0x00516284      4eb900487aa6   jsr MENUCOM.new_box
            0x0051628a      defc002c       adda.w 0x2c, a7
            0x0051628e      3eb90083e386   move.w 0x83e386, (a7)
            0x00516294      9efc00fc       suba.w 0xfc, a7
            0x00516298      2f390050a2eb   move.l 0x50a2eb, -(a7)
            0x0051629e      3f790050a2ef.  move.w 0x50a2ef, 0x4(a7)
            0x005162a6      4eb90048442e   jsr MENUCOM.set_box_macro_n
            0x005162ac      defc0100       adda.w 0x100, a7
            0x005162b0      3eb90083e386   move.w 0x83e386, (a7)
            0x005162b6      f23c40000000.  fmove.l 0x0, fp0
            0x005162be      f2276400       fmove.s fp0, -(a7)
            0x005162c2      f23c4000ffff.  fmove.l 0xffffd8f1, fp0
            0x005162ca      f2276400       fmove.s fp0, -(a7)
            0x005162ce      f23c40000000.  fmove.l 0x270f, fp0
            0x005162d6      f2276400       fmove.s fp0, -(a7)
            0x005162da      3f3cfffe       move.w 0xfffe, -(a7)
            0x005162de      3f03           move.w d3, -(a7)
            0x005162e0      4eb90048d4ae   jsr MENU2COM.make_numeric_bo
            0x005162e6      dec6           adda.w d6, a7
            0x005162e8      3eb90083e380   move.w 0x83e380, (a7)
            0x005162ee      3f390083e386   move.w 0x83e386, -(a7)
            0x005162f4      4eb900486f94   jsr MENUCOM.add_slave
            0x005162fa      544f           addq.w 0x2, a7
            0x005162fc      3eb90083e384   move.w 0x83e384, (a7)
            0x00516302      3f390083e386   move.w 0x83e386, -(a7)
            0x00516308      4eb900486f94   jsr MENUCOM.add_slave
            0x0051630e      544f           addq.w 0x2, a7
            0x00516310      3eb90083e382   move.w 0x83e382, (a7)
            0x00516316      3f390083e386   move.w 0x83e386, -(a7)
            0x0051631c      4eb900486f94   jsr MENUCOM.add_slave
            0x00516322      544f           addq.w 0x2, a7
            0x00516324      3eb90050a2f2   move.w 0x50a2f2, (a7)
            0x0051632a      48790083e388   pea.l 0x83e388
            0x00516330      3f3c0018       move.w 0x18, -(a7)
            0x00516334      3f02           move.w d2, -(a7)
            0x00516336      3f03           move.w d3, -(a7)
            0x00516338      3f01           move.w d1, -(a7)
            0x0051633a      1f05           move.b d5, -(a7)
            0x0051633c      1f02           move.b d2, -(a7)
            0x0051633e      3f390083e37e   move.w 0x83e37e, -(a7)
            0x00516344      3f390083e386   move.w 0x83e386, -(a7)
            0x0051634a      2f3900509c84   move.l 0x509c84, -(a7)
            0x00516350      486f0018       pea.l 0x18(a7)
            0x00516354      48780001       pea.l 0x1
            0x00516358      48780002       pea.l 0x2
            0x0051635c      486d0010       pea.l 0x10(a5)
            0x00516360      487a8e02       pea.l MENU3DCOM.PAS.hit_num(pc)
            0x00516364      4eb900487aa6   jsr MENUCOM.new_box
            0x0051636a      defc002c       adda.w 0x2c, a7
            0x0051636e      3eb90083e388   move.w 0x83e388, (a7)
            0x00516374      9efc00fc       suba.w 0xfc, a7
            0x00516378      2f390050a2f4   move.l 0x50a2f4, -(a7)
            0x0051637e      3f790050a2f8.  move.w 0x50a2f8, 0x4(a7)
            0x00516386      4eb90048442e   jsr MENUCOM.set_box_macro_n
            0x0051638c      defc0100       adda.w 0x100, a7
            0x00516390      3eb90083e388   move.w 0x83e388, (a7)
            0x00516396      f23c40000000.  fmove.l 0x0, fp0
            0x0051639e      f2276400       fmove.s fp0, -(a7)
            0x005163a2      f23c4000ffff.  fmove.l 0xffffd8f1, fp0
            0x005163aa      f2276400       fmove.s fp0, -(a7)
            0x005163ae      f23c40000000.  fmove.l 0x270f, fp0
            0x005163b6      f2276400       fmove.s fp0, -(a7)
            0x005163ba      3f3cfffe       move.w 0xfffe, -(a7)
            0x005163be      3f03           move.w d3, -(a7)
            0x005163c0      4eb90048d4ae   jsr MENU2COM.make_numeric_bo
            0x005163c6      dec6           adda.w d6, a7
            0x005163c8      3eb90083e380   move.w 0x83e380, (a7)
            0x005163ce      3f390083e388   move.w 0x83e388, -(a7)
            0x005163d4      4eb900486f94   jsr MENUCOM.add_slave
            0x005163da      544f           addq.w 0x2, a7
            0x005163dc      3eb90083e384   move.w 0x83e384, (a7)
            0x005163e2      3f390083e388   move.w 0x83e388, -(a7)
            0x005163e8      4eb900486f94   jsr MENUCOM.add_slave
            0x005163ee      544f           addq.w 0x2, a7
            0x005163f0      3eb90083e382   move.w 0x83e382, (a7)
            0x005163f6      3f390083e388   move.w 0x83e388, -(a7)
            0x005163fc      4eb900486f94   jsr MENUCOM.add_slave
            0x00516402      2eb90050a2ff   move.l 0x50a2ff, (a7)
            0x00516408      2f390050a2fb   move.l 0x50a2fb, -(a7)
            0x0051640e      48790083e3fe   pea.l 0x83e3fe
            0x00516414      3f3c000c       move.w 0xc, -(a7)
            0x00516418      3f3c0005       move.w 0x5, -(a7)
            0x0051641c      3f02           move.w d2, -(a7)
            0x0051641e      3f01           move.w d1, -(a7)
            0x00516420      1f02           move.b d2, -(a7)
            0x00516422      4227           clr.b -(a7)
            0x00516424      3f2e0010       move.w 0x10(a6), -(a7)
            0x00516428      4267           clr.w -(a7)
            0x0051642a      2f3900509c84   move.l 0x509c84, -(a7)
            0x00516430      486f0018       pea.l 0x18(a7)
            0x00516434      48780001       pea.l 0x1
            0x00516438      48780008       pea.l 0x8
            0x0051643c      486d0010       pea.l 0x10(a5)
            0x00516440      487a89e6       pea.l MENU3DCOM.PAS.hit_3d(pc)
            0x00516444      4eb900487aa6   jsr MENUCOM.new_box
            0x0051644a      defc0030       adda.w 0x30, a7
            0x0051644e      3eb90050a304   move.w 0x50a304, (a7)
            0x00516454      1f790050a306.  move.b 0x50a306, 0x2(a7)
            0x0051645c      48790083e400   pea.l 0x83e400
            0x00516462      3f3c000e       move.w 0xe, -(a7)
            0x00516466      3f3c0005       move.w 0x5, -(a7)
            0x0051646a      3f02           move.w d2, -(a7)
            0x0051646c      3f01           move.w d1, -(a7)
            0x0051646e      1f3c0005       move.b 0x5, -(a7)
            0x00516472      4227           clr.b -(a7)
            0x00516474      3f2e0010       move.w 0x10(a6), -(a7)
            0x00516478      4267           clr.w -(a7)
            0x0051647a      2f3900509c84   move.l 0x509c84, -(a7)
            0x00516480      486f0018       pea.l 0x18(a7)
            0x00516484      48780001       pea.l 0x1
            0x00516488      48780003       pea.l 0x3
            0x0051648c      486d0010       pea.l 0x10(a5)
            0x00516490      487a8996       pea.l MENU3DCOM.PAS.hit_3d(pc)
            0x00516494      4eb900487aa6   jsr MENUCOM.new_box
            0x0051649a      defc002c       adda.w 0x2c, a7
            0x0051649e      2eb90050a30a   move.l 0x50a30a, (a7)
            0x005164a4      3f390050a308   move.w 0x50a308, -(a7)
            0x005164aa      48790083e3ea   pea.l 0x83e3ea
            0x005164b0      4267           clr.w -(a7)
            0x005164b2      4267           clr.w -(a7)
            0x005164b4      4267           clr.w -(a7)
            0x005164b6      4267           clr.w -(a7)
            0x005164b8      1f02           move.b d2, -(a7)
            0x005164ba      4227           clr.b -(a7)
            0x005164bc      3f2e0010       move.w 0x10(a6), -(a7)
            0x005164c0      4267           clr.w -(a7)
            0x005164c2      2f3900509c84   move.l 0x509c84, -(a7)
            0x005164c8      486f0018       pea.l 0x18(a7)
            0x005164cc      48780001       pea.l 0x1
            0x005164d0      48780006       pea.l 0x6
            0x005164d4      486d0010       pea.l 0x10(a5)
            0x005164d8      487900481fee   pea.l MENUCOM.hit_nothing
            0x005164de      4eb900487aa6   jsr MENUCOM.new_box
            0x005164e4      defc0030       adda.w 0x30, a7
            0x005164e8      3eb90050a313   move.w 0x50a313, (a7)
            0x005164ee      48790083e3f2   pea.l 0x83e3f2
            0x005164f4      3f06           move.w d6, -(a7)
            0x005164f6      3f3c0005       move.w 0x5, -(a7)
            0x005164fa      3f03           move.w d3, -(a7)
            0x005164fc      3f01           move.w d1, -(a7)
            0x005164fe      4227           clr.b -(a7)
            0x00516500      1f01           move.b d1, -(a7)
            0x00516502      3f390083e3ea   move.w 0x83e3ea, -(a7)
            0x00516508      4267           clr.w -(a7)
            0x0051650a      2f390050a30e   move.l 0x50a30e, -(a7)
            0x00516510      486f0018       pea.l 0x18(a7)
            0x00516514      48780001       pea.l 0x1
            0x00516518      48780002       pea.l 0x2
            0x0051651c      486d0010       pea.l 0x10(a5)
            0x00516520      487a97fa       pea.l MENU3DCOM.PAS.hit_curved(pc)
            0x00516524      4eb900487aa6   jsr MENUCOM.new_box
            0x0051652a      defc002c       adda.w 0x2c, a7
            0x0051652e      3eb90083e3f2   move.w 0x83e3f2, (a7)
            0x00516534      9efc00fc       suba.w 0xfc, a7
            0x00516538      2f390050a315   move.l 0x50a315, -(a7)
            0x0051653e      2f790050a319.  move.l 0x50a319, 0x4(a7)
            0x00516546      2f790050a31d.  move.l 0x50a31d, 0x8(a7)
            0x0051654e      4eb90048442e   jsr MENUCOM.set_box_macro_n
            0x00516554      defc00fc       adda.w 0xfc, a7
            0x00516558      7002           moveq 0x2, d0
            0x0051655a      41ef0001       lea.l 0x1(a7), a0
            0x0051655e      43f90050a327   lea.l 0x50a327, a1
        > 0x00516564      10d9           move.b (a1)+, (a0)+
        < 0x00516566      51c8fffc       dbra d0, 0x516564
            0x0051656a      1e84           move.b d4, (a7)
            0x0051656c      5217           addq.b 0x1, (a7)
            0x0051656e      7000           moveq 0x0, d0
            0x00516570      43f90050a32b   lea.l 0x50a32b, a1
        > 0x00516576      10d9           move.b (a1)+, (a0)+
        < 0x00516578      51c8fffc       dbra d0, 0x516576
            0x0051657c      554f           subq.w 0x2, a7
            0x0051657e      2f2f0002       move.l 0x2(a7), -(a7)
            0x00516582      1f6f000a0004   move.b 0xa(a7), 0x4(a7)
            0x00516588      48790083e3ec   pea.l 0x83e3ec
            0x0051658e      554f           subq.w 0x2, a7
            0x00516590      f2064000       fmove.l d6, fp0
            0x00516594      f2276400       fmove.s fp0, -(a7)
            0x00516598      4eb900486b8c   jsr MENUCOM.grid_xpos
            0x0051659e      544f           addq.w 0x2, a7
            0x005165a0      3ebc0005       move.w 0x5, (a7)
            0x005165a4      554f           subq.w 0x2, a7
            0x005165a6      2f3c3fc00000   move.l 0x3fc00000, -(a7)
            0x005165ac      4eb900486c44   jsr MENUCOM.grid_xlen
            0x005165b2      544f           addq.w 0x2, a7
            0x005165b4      3e81           move.w d1, (a7)
            0x005165b6      1f02           move.b d2, -(a7)
            0x005165b8      4227           clr.b -(a7)
            0x005165ba      3f390083e3ea   move.w 0x83e3ea, -(a7)
            0x005165c0      4267           clr.w -(a7)
            0x005165c2      2f390050a322   move.l 0x50a322, -(a7)
            0x005165c8      486f0018       pea.l 0x18(a7)
            0x005165cc      48780000       pea.l 0x0
            0x005165d0      48780005       pea.l 0x5
            0x005165d4      486d0010       pea.l 0x10(a5)
            0x005165d8      487a9742       pea.l MENU3DCOM.PAS.hit_curved(pc)
            0x005165dc      4eb900487aa6   jsr MENUCOM.new_box
            0x005165e2      defc0036       adda.w 0x36, a7
            0x005165e6      3eb90083e3ec   move.w 0x83e3ec, (a7)
            0x005165ec      9efc00fc       suba.w 0xfc, a7
            0x005165f0      2f390050a32c   move.l 0x50a32c, -(a7)
            0x005165f6      2f790050a330.  move.l 0x50a330, 0x4(a7)
            0x005165fe      2f790050a334.  move.l 0x50a334, 0x8(a7)
            0x00516606      4eb90048442e   jsr MENUCOM.set_box_macro_n
            0x0051660c      defc0100       adda.w 0x100, a7
            0x00516610      3eb90050a33d   move.w 0x50a33d, (a7)
            0x00516616      48790083e3ee   pea.l 0x83e3ee
            0x0051661c      554f           subq.w 0x2, a7
            0x0051661e      2f3c418c0000   move.l 0x418c0000, -(a7)
            0x00516624      4eb900486b8c   jsr MENUCOM.grid_xpos
            0x0051662a      544f           addq.w 0x2, a7
            0x0051662c      3ebc0005       move.w 0x5, (a7)
            0x00516630      554f           subq.w 0x2, a7
            0x00516632      f2014000       fmove.l d1, fp0
            0x00516636      f2276400       fmove.s fp0, -(a7)
            0x0051663a      4eb900486c44   jsr MENUCOM.grid_xlen
            0x00516640      544f           addq.w 0x2, a7
            0x00516642      3e81           move.w d1, (a7)
            0x00516644      1f02           move.b d2, -(a7)
            0x00516646      4227           clr.b -(a7)
            0x00516648      3f390083e3ea   move.w 0x83e3ea, -(a7)
            0x0051664e      4267           clr.w -(a7)
            0x00516650      2f390050a338   move.l 0x50a338, -(a7)
            0x00516656      486f0018       pea.l 0x18(a7)
            0x0051665a      48780001       pea.l 0x1
            0x0051665e      48780002       pea.l 0x2
            0x00516662      486d0010       pea.l 0x10(a5)
            0x00516666      487a96b4       pea.l MENU3DCOM.PAS.hit_curved(pc)
            0x0051666a      4eb900487aa6   jsr MENUCOM.new_box
            0x00516670      defc0028       adda.w 0x28, a7
            0x00516674      7002           moveq 0x2, d0
            0x00516676      41ef0001       lea.l 0x1(a7), a0
            0x0051667a      43f90050a345   lea.l 0x50a345, a1
        > 0x00516680      10d9           move.b (a1)+, (a0)+
        < 0x00516682      51c8fffc       dbra d0, 0x516680
            0x00516686      1e84           move.b d4, (a7)
            0x00516688      5217           addq.b 0x1, (a7)
            0x0051668a      7000           moveq 0x0, d0
            0x0051668c      43f90050a349   lea.l 0x50a349, a1
        > 0x00516692      10d9           move.b (a1)+, (a0)+
        < 0x00516694      51c8fffc       dbra d0, 0x516692
            0x00516698      554f           subq.w 0x2, a7
            0x0051669a      2f2f0002       move.l 0x2(a7), -(a7)
            0x0051669e      1f6f000a0004   move.b 0xa(a7), 0x4(a7)
            0x005166a4      48790083e3f0   pea.l 0x83e3f0
            0x005166aa      554f           subq.w 0x2, a7
            0x005166ac      2f3c41940000   move.l 0x41940000, -(a7)
            0x005166b2      4eb900486b8c   jsr MENUCOM.grid_xpos
            0x005166b8      544f           addq.w 0x2, a7
            0x005166ba      3ebc0005       move.w 0x5, (a7)
            0x005166be      554f           subq.w 0x2, a7
            0x005166c0      2f3c3fc00000   move.l 0x3fc00000, -(a7)
            0x005166c6      4eb900486c44   jsr MENUCOM.grid_xlen
            0x005166cc      544f           addq.w 0x2, a7
            0x005166ce      3e81           move.w d1, (a7)
            0x005166d0      1f02           move.b d2, -(a7)
            0x005166d2      4227           clr.b -(a7)
            0x005166d4      3f390083e3ea   move.w 0x83e3ea, -(a7)
            0x005166da      4267           clr.w -(a7)
            0x005166dc      2f390050a340   move.l 0x50a340, -(a7)
            0x005166e2      486f0018       pea.l 0x18(a7)
            0x005166e6      48780000       pea.l 0x0
            0x005166ea      48780005       pea.l 0x5
            0x005166ee      486d0010       pea.l 0x10(a5)
            0x005166f2      487a9628       pea.l MENU3DCOM.PAS.hit_curved(pc)
            0x005166f6      4eb900487aa6   jsr MENUCOM.new_box
            0x005166fc      defc0036       adda.w 0x36, a7
            0x00516700      3eb90083e3f0   move.w 0x83e3f0, (a7)
            0x00516706      9efc00fc       suba.w 0xfc, a7
            0x0051670a      2f390050a34a   move.l 0x50a34a, -(a7)
            0x00516710      2f790050a34e.  move.l 0x50a34e, 0x4(a7)
            0x00516718      2f790050a352.  move.l 0x50a352, 0x8(a7)
            0x00516720      3f790050a356.  move.w 0x50a356, 0xc(a7)
            0x00516728      4eb90048442e   jsr MENUCOM.set_box_macro_n
            0x0051672e      defc00fe       adda.w 0xfe, a7
            0x00516732      3eb90050a359   move.w 0x50a359, (a7)
            0x00516738      1f790050a35b.  move.b 0x50a35b, 0x2(a7)
            0x00516740      3f3c0089       move.w 0x89, -(a7)
            0x00516744      3f3c0014       move.w 0x14, -(a7)
            0x00516748      3f3c0005       move.w 0x5, -(a7)
            0x0051674c      3f02           move.w d2, -(a7)
            0x0051674e      3f01           move.w d1, -(a7)
            0x00516750      1f02           move.b d2, -(a7)
            0x00516752      4227           clr.b -(a7)
            0x00516754      3f390083e3ea   move.w 0x83e3ea, -(a7)
            0x0051675a      4267           clr.w -(a7)
            0x0051675c      2f3900509c84   move.l 0x509c84, -(a7)
            0x00516762      486f0016       pea.l 0x16(a7)
            0x00516766      48780001       pea.l 0x1
            0x0051676a      48780003       pea.l 0x3
            0x0051676e      486d0010       pea.l 0x10(a5)
            0x00516772      487a95a8       pea.l MENU3DCOM.PAS.hit_curved(pc)
            0x00516776      4eb900487686   jsr MENUCOM.def_box
            0x0051677c      defc002a       adda.w 0x2a, a7
            0x00516780      2eb90050a363   move.l 0x50a363, (a7)
            0x00516786      2f390050a35f   move.l 0x50a35f, -(a7)
            0x0051678c      3f390050a35d   move.w 0x50a35d, -(a7)
            0x00516792      3f3c008a       move.w 0x8a, -(a7)
            0x00516796      3f3c0016       move.w 0x16, -(a7)
            0x0051679a      3f3c0005       move.w 0x5, -(a7)
            0x0051679e      3f02           move.w d2, -(a7)
            0x005167a0      3f01           move.w d1, -(a7)
            0x005167a2      1f02           move.b d2, -(a7)
            0x005167a4      4227           clr.b -(a7)
            0x005167a6      3f390083e3ea   move.w 0x83e3ea, -(a7)
            0x005167ac      3f3c0089       move.w 0x89, -(a7)
            0x005167b0      2f3900509c84   move.l 0x509c84, -(a7)
            0x005167b6      486f0016       pea.l 0x16(a7)
            0x005167ba      48780001       pea.l 0x1
            0x005167be      4878000a       pea.l 0xa
            0x005167c2      486d0010       pea.l 0x10(a5)
            0x005167c6      487a9554       pea.l MENU3DCOM.PAS.hit_curved(pc)
            0x005167ca      4eb900487686   jsr MENUCOM.def_box
            0x005167d0      defc0030       adda.w 0x30, a7
            0x005167d4      2eb90050a370   move.l 0x50a370, (a7)
            0x005167da      2f390050a36c   move.l 0x50a36c, -(a7)
            0x005167e0      2f390050a368   move.l 0x50a368, -(a7)
            0x005167e6      48790083e3f4   pea.l 0x83e3f4
            0x005167ec      3f3c0018       move.w 0x18, -(a7)
            0x005167f0      3f3c0005       move.w 0x5, -(a7)
            0x005167f4      3f03           move.w d3, -(a7)
            0x005167f6      3f01           move.w d1, -(a7)
            0x005167f8      1f02           move.b d2, -(a7)
            0x005167fa      4227           clr.b -(a7)
            0x005167fc      3f390083e3ea   move.w 0x83e3ea, -(a7)
            0x00516802      4267           clr.w -(a7)
            0x00516804      2f3900509c84   move.l 0x509c84, -(a7)
            0x0051680a      486f0018       pea.l 0x18(a7)
            0x0051680e      48780001       pea.l 0x1
            0x00516812      4878000c       pea.l 0xc
            0x00516816      486d0010       pea.l 0x10(a5)
            0x0051681a      487a9500       pea.l MENU3DCOM.PAS.hit_curved(pc)
            0x0051681e      4eb900487aa6   jsr MENUCOM.new_box
            0x00516824      defc0038       adda.w 0x38, a7
            0x00516828      42790083d2e2   clr.w 0x83d2e2
            0x0051682e      23c10083d30e   move.l d1, 0x83d30e
            0x00516834      3f390083e3fa   move.w 0x83e3fa, -(a7)
            0x0051683a      1f3c0005       move.b 0x5, -(a7)
            0x0051683e      4227           clr.b -(a7)
            0x00516840      4227           clr.b -(a7)
            0x00516842      4ebacdd2       jsr MENU3DCOM.PAS.add_boxnum_to_p(pc)
            0x00516846      5c4f           addq.w 0x6, a7
            0x00516848      3eb90083e35a   move.w 0x83e35a, (a7)
            0x0051684e      1f01           move.b d1, -(a7)
            0x00516850      1f01           move.b d1, -(a7)
            0x00516852      4227           clr.b -(a7)
            0x00516854      4ebacdc0       jsr MENU3DCOM.PAS.add_boxnum_to_p(pc)
            0x00516858      5c4f           addq.w 0x6, a7
            0x0051685a      3eb90083e35c   move.w 0x83e35c, (a7)
            0x00516860      1f01           move.b d1, -(a7)
            0x00516862      1f02           move.b d2, -(a7)
            0x00516864      4227           clr.b -(a7)
            0x00516866      4ebacdae       jsr MENU3DCOM.PAS.add_boxnum_to_p(pc)
            0x0051686a      5c4f           addq.w 0x6, a7
            0x0051686c      3eb90083e35e   move.w 0x83e35e, (a7)
            0x00516872      1f01           move.b d1, -(a7)
            0x00516874      1f04           move.b d4, -(a7)
            0x00516876      4227           clr.b -(a7)
            0x00516878      4ebacd9c       jsr MENU3DCOM.PAS.add_boxnum_to_p(pc)
            0x0051687c      5c4f           addq.w 0x6, a7
            0x0051687e      3eb90083e362   move.w 0x83e362, (a7)
            0x00516884      1f02           move.b d2, -(a7)
            0x00516886      1f01           move.b d1, -(a7)
            0x00516888      4227           clr.b -(a7)
            0x0051688a      4ebacd8a       jsr MENU3DCOM.PAS.add_boxnum_to_p(pc)
            0x0051688e      5c4f           addq.w 0x6, a7
            0x00516890      3eb90083e364   move.w 0x83e364, (a7)
            0x00516896      1f02           move.b d2, -(a7)
            0x00516898      1f02           move.b d2, -(a7)
            0x0051689a      4227           clr.b -(a7)
            0x0051689c      4ebacd78       jsr MENU3DCOM.PAS.add_boxnum_to_p(pc)
            0x005168a0      5c4f           addq.w 0x6, a7
            0x005168a2      3eb90083e366   move.w 0x83e366, (a7)
            0x005168a8      1f02           move.b d2, -(a7)
            0x005168aa      1f04           move.b d4, -(a7)
            0x005168ac      4227           clr.b -(a7)
            0x005168ae      4ebacd66       jsr MENU3DCOM.PAS.add_boxnum_to_p(pc)
            0x005168b2      5c4f           addq.w 0x6, a7
            0x005168b4      3eb90083e374   move.w 0x83e374, (a7)
            0x005168ba      1f04           move.b d4, -(a7)
            0x005168bc      1f01           move.b d1, -(a7)
            0x005168be      4227           clr.b -(a7)
            0x005168c0      4ebacd54       jsr MENU3DCOM.PAS.add_boxnum_to_p(pc)
            0x005168c4      5c4f           addq.w 0x6, a7
            0x005168c6      3eb90083e376   move.w 0x83e376, (a7)
            0x005168cc      1f04           move.b d4, -(a7)
            0x005168ce      1f02           move.b d2, -(a7)
            0x005168d0      4227           clr.b -(a7)
            0x005168d2      4ebacd42       jsr MENU3DCOM.PAS.add_boxnum_to_p(pc)
            0x005168d6      5c4f           addq.w 0x6, a7
            0x005168d8      3eb90083e378   move.w 0x83e378, (a7)
            0x005168de      1f04           move.b d4, -(a7)
            0x005168e0      1f04           move.b d4, -(a7)
            0x005168e2      4227           clr.b -(a7)
            0x005168e4      4ebacd30       jsr MENU3DCOM.PAS.add_boxnum_to_p(pc)
            0x005168e8      5c4f           addq.w 0x6, a7
            0x005168ea      3eb90083e37e   move.w 0x83e37e, (a7)
            0x005168f0      1f03           move.b d3, -(a7)
            0x005168f2      4227           clr.b -(a7)
            0x005168f4      1f01           move.b d1, -(a7)
            0x005168f6      4ebacd1e       jsr MENU3DCOM.PAS.add_boxnum_to_p(pc)
            0x005168fa      5c4f           addq.w 0x6, a7
            0x005168fc      3eb90083e380   move.w 0x83e380, (a7)
            0x00516902      1f03           move.b d3, -(a7)
            0x00516904      4227           clr.b -(a7)
            0x00516906      1f02           move.b d2, -(a7)
            0x00516908      4ebacd0c       jsr MENU3DCOM.PAS.add_boxnum_to_p(pc)
            0x0051690c      5c4f           addq.w 0x6, a7
            0x0051690e      3eb90083e384   move.w 0x83e384, (a7)
            0x00516914      1f03           move.b d3, -(a7)
            0x00516916      4227           clr.b -(a7)
            0x00516918      1f04           move.b d4, -(a7)
            0x0051691a      4ebaccfa       jsr MENU3DCOM.PAS.add_boxnum_to_p(pc)
            0x0051691e      5c4f           addq.w 0x6, a7
            0x00516920      3eb90083e382   move.w 0x83e382, (a7)
            0x00516926      1f03           move.b d3, -(a7)
            0x00516928      4227           clr.b -(a7)
            0x0051692a      1f03           move.b d3, -(a7)
            0x0051692c      4ebacce8       jsr MENU3DCOM.PAS.add_boxnum_to_p(pc)
            0x00516930      5c4f           addq.w 0x6, a7
            0x00516932      3eb90083e358   move.w 0x83e358, (a7)
            0x00516938      1f01           move.b d1, -(a7)
            0x0051693a      4227           clr.b -(a7)
            0x0051693c      4227           clr.b -(a7)
            0x0051693e      4ebaccd6       jsr MENU3DCOM.PAS.add_boxnum_to_p(pc)
            0x00516942      5c4f           addq.w 0x6, a7
            0x00516944      3eb90083e360   move.w 0x83e360, (a7)
            0x0051694a      1f02           move.b d2, -(a7)
            0x0051694c      4227           clr.b -(a7)
            0x0051694e      4227           clr.b -(a7)
            0x00516950      4ebaccc4       jsr MENU3DCOM.PAS.add_boxnum_to_p(pc)
            0x00516954      5c4f           addq.w 0x6, a7
            0x00516956      3eb90083e372   move.w 0x83e372, (a7)
            0x0051695c      1f04           move.b d4, -(a7)
            0x0051695e      4227           clr.b -(a7)
            0x00516960      4227           clr.b -(a7)
            0x00516962      4ebaccb2       jsr MENU3DCOM.PAS.add_boxnum_to_p(pc)
            0x00516966      5c4f           addq.w 0x6, a7
            0x00516968      3ebc007f       move.w 0x7f, (a7)
            0x0051696c      1f03           move.b d3, -(a7)
            0x0051696e      4227           clr.b -(a7)
            0x00516970      1f3c0009       move.b 0x9, -(a7)
            0x00516974      4ebacca0       jsr MENU3DCOM.PAS.add_boxnum_to_p(pc)
            0x00516978      5c4f           addq.w 0x6, a7
            0x0051697a      3eb90083e3c6   move.w 0x83e3c6, (a7)
            0x00516980      1f3c0006       move.b 0x6, -(a7)
            0x00516984      4227           clr.b -(a7)
            0x00516986      4227           clr.b -(a7)
            0x00516988      4ebacc8c       jsr MENU3DCOM.PAS.add_boxnum_to_p(pc)
            0x0051698c      5c4f           addq.w 0x6, a7
            0x0051698e      3eb90083e3c8   move.w 0x83e3c8, (a7)
            0x00516994      1f3c0006       move.b 0x6, -(a7)
            0x00516998      4227           clr.b -(a7)
            0x0051699a      4227           clr.b -(a7)
            0x0051699c      4ebacc78       jsr MENU3DCOM.PAS.add_boxnum_to_p(pc)
            0x005169a0      5c4f           addq.w 0x6, a7
            0x005169a2      3eb90083e3ca   move.w 0x83e3ca, (a7)
            0x005169a8      1f3c0006       move.b 0x6, -(a7)
            0x005169ac      4227           clr.b -(a7)
            0x005169ae      4227           clr.b -(a7)
            0x005169b0      4ebacc64       jsr MENU3DCOM.PAS.add_boxnum_to_p(pc)
            0x005169b4      5c4f           addq.w 0x6, a7
            0x005169b6      3eb90083e3cc   move.w 0x83e3cc, (a7)
            0x005169bc      1f3c0006       move.b 0x6, -(a7)
            0x005169c0      4227           clr.b -(a7)
            0x005169c2      4227           clr.b -(a7)
            0x005169c4      4ebacc50       jsr MENU3DCOM.PAS.add_boxnum_to_p(pc)
            0x005169c8      5c4f           addq.w 0x6, a7
            0x005169ca      3eb90083e3ce   move.w 0x83e3ce, (a7)
            0x005169d0      1f3c0006       move.b 0x6, -(a7)
            0x005169d4      4227           clr.b -(a7)
            0x005169d6      4227           clr.b -(a7)
            0x005169d8      4ebacc3c       jsr MENU3DCOM.PAS.add_boxnum_to_p(pc)
            0x005169dc      5c4f           addq.w 0x6, a7
            0x005169de      3eb90083e3d8   move.w 0x83e3d8, (a7)
            0x005169e4      1f3c0006       move.b 0x6, -(a7)
            0x005169e8      4227           clr.b -(a7)
            0x005169ea      4227           clr.b -(a7)
            0x005169ec      4ebacc28       jsr MENU3DCOM.PAS.add_boxnum_to_p(pc)
            0x005169f0      5c4f           addq.w 0x6, a7
            0x005169f2      3eb90083e3e0   move.w 0x83e3e0, (a7)
            0x005169f8      1f3c0006       move.b 0x6, -(a7)
            0x005169fc      4227           clr.b -(a7)
            0x005169fe      4227           clr.b -(a7)
            0x00516a00      4ebacc14       jsr MENU3DCOM.PAS.add_boxnum_to_p(pc)
            0x00516a04      5c4f           addq.w 0x6, a7
            0x00516a06      3eb90083e39e   move.w 0x83e39e, (a7)
            0x00516a0c      1f3c0007       move.b 0x7, -(a7)
            0x00516a10      4227           clr.b -(a7)
            0x00516a12      4227           clr.b -(a7)
            0x00516a14      4ebacc00       jsr MENU3DCOM.PAS.add_boxnum_to_p(pc)
            0x00516a18      5c4f           addq.w 0x6, a7
            0x00516a1a      3eb90083e3a0   move.w 0x83e3a0, (a7)
            0x00516a20      1f3c0007       move.b 0x7, -(a7)
            0x00516a24      4227           clr.b -(a7)
            0x00516a26      4227           clr.b -(a7)
            0x00516a28      4ebacbec       jsr MENU3DCOM.PAS.add_boxnum_to_p(pc)
            0x00516a2c      5c4f           addq.w 0x6, a7
            0x00516a2e      3eb90083e3a2   move.w 0x83e3a2, (a7)
            0x00516a34      1f3c0007       move.b 0x7, -(a7)
            0x00516a38      4227           clr.b -(a7)
            0x00516a3a      4227           clr.b -(a7)
            0x00516a3c      4ebacbd8       jsr MENU3DCOM.PAS.add_boxnum_to_p(pc)
            0x00516a40      5c4f           addq.w 0x6, a7
            0x00516a42      3eb90083e3a4   move.w 0x83e3a4, (a7)
            0x00516a48      1f3c0007       move.b 0x7, -(a7)
            0x00516a4c      4227           clr.b -(a7)
            0x00516a4e      4227           clr.b -(a7)
            0x00516a50      4ebacbc4       jsr MENU3DCOM.PAS.add_boxnum_to_p(pc)
            0x00516a54      5c4f           addq.w 0x6, a7
            0x00516a56      3eb90083e3a6   move.w 0x83e3a6, (a7)
            0x00516a5c      1f3c0007       move.b 0x7, -(a7)
            0x00516a60      4227           clr.b -(a7)
            0x00516a62      4227           clr.b -(a7)
            0x00516a64      4ebacbb0       jsr MENU3DCOM.PAS.add_boxnum_to_p(pc)
            0x00516a68      5c4f           addq.w 0x6, a7
            0x00516a6a      3eb90083e3a8   move.w 0x83e3a8, (a7)
            0x00516a70      1f3c0007       move.b 0x7, -(a7)
            0x00516a74      4227           clr.b -(a7)
            0x00516a76      4227           clr.b -(a7)
            0x00516a78      4ebacb9c       jsr MENU3DCOM.PAS.add_boxnum_to_p(pc)
            0x00516a7c      5c4f           addq.w 0x6, a7
            0x00516a7e      3eb90083e3b0   move.w 0x83e3b0, (a7)
            0x00516a84      1f05           move.b d5, -(a7)
            0x00516a86      4227           clr.b -(a7)
            0x00516a88      4227           clr.b -(a7)
            0x00516a8a      4ebacb8a       jsr MENU3DCOM.PAS.add_boxnum_to_p(pc)
            0x00516a8e      5c4f           addq.w 0x6, a7
            0x00516a90      3eb90083e3b6   move.w 0x83e3b6, (a7)
            0x00516a96      1f05           move.b d5, -(a7)
            0x00516a98      4227           clr.b -(a7)
            0x00516a9a      4227           clr.b -(a7)
            0x00516a9c      4ebacb78       jsr MENU3DCOM.PAS.add_boxnum_to_p(pc)
            0x00516aa0      5c4f           addq.w 0x6, a7
            0x00516aa2      3eb90083e3bc   move.w 0x83e3bc, (a7)
            0x00516aa8      1f05           move.b d5, -(a7)
            0x00516aaa      4227           clr.b -(a7)
            0x00516aac      4227           clr.b -(a7)
            0x00516aae      4ebacb66       jsr MENU3DCOM.PAS.add_boxnum_to_p(pc)
            0x00516ab2      5c4f           addq.w 0x6, a7
            0x00516ab4      3eb90083e3b8   move.w 0x83e3b8, (a7)
            0x00516aba      1f05           move.b d5, -(a7)
            0x00516abc      4227           clr.b -(a7)
            0x00516abe      4227           clr.b -(a7)
            0x00516ac0      4ebacb54       jsr MENU3DCOM.PAS.add_boxnum_to_p(pc)
            0x00516ac4      5c4f           addq.w 0x6, a7
            0x00516ac6      3eb90083e3be   move.w 0x83e3be, (a7)
            0x00516acc      1f05           move.b d5, -(a7)
            0x00516ace      4227           clr.b -(a7)
            0x00516ad0      4227           clr.b -(a7)
            0x00516ad2      4ebacb42       jsr MENU3DCOM.PAS.add_boxnum_to_p(pc)
            0x00516ad6      5c4f           addq.w 0x6, a7
            0x00516ad8      3eb90083e396   move.w 0x83e396, (a7)
            0x00516ade      1f3c0007       move.b 0x7, -(a7)
            0x00516ae2      4227           clr.b -(a7)
            0x00516ae4      4227           clr.b -(a7)
            0x00516ae6      4ebacb2e       jsr MENU3DCOM.PAS.add_boxnum_to_p(pc)
            0x00516aea      504f           addq.w 0x8, a7
            0x00516aec      206e0008       movea.l 0x8(a6), a0
            0x00516af0      3f2e0010       move.w 0x10(a6), -(a7)
            0x00516af4      226e000c       movea.l 0xc(a6), a1
            0x00516af8      4851           pea.l (a1)
            0x00516afa      4850           pea.l (a0)
            0x00516afc      4eb9007628c8   jsr MENUKEYFRMCOM.men_keyfrm_init
            0x00516b02      defc000a       adda.w 0xa, a7
            0x00516b06      33d00083d312   move.w (a0), 0x83d312
            0x00516b0c      f21fd080       fmovem (a7)+, fp0
            0x00516b10      4cdf1fff       movem.l (a7)+, d0-d7/a0-a4
            0x00516b14      4e5e           unlk a6
