            ;-- MENUNUMPADCOM:
            0x0049b110      .byte 0x00
            0x0049b111      .byte 0x88
            0x0049b112      .byte 0x00
            0x0049b113      .byte 0x46
            0x0049b114      .byte 0x00
            0x0049b115      .byte 0xd2
            0x0049b116      .byte 0x00
            0x0049b117      .byte 0x51
            0x0049b118      .byte 0x00
            0x0049b119      .byte 0x80
            0x0049b11a      .byte 0x00
            0x0049b11b      .byte 0x80
            0x0049b11c      .byte 0x00
            0x0049b11d      .byte 0x3c
            0x0049b11e      .byte 0x00
            0x0049b11f      .byte 0x80
            0x0049b120      .byte 0x00
            0x0049b121      .byte 0x80
            0x0049b122      .byte 0x00
            0x0049b123      .byte 0x32
            0x0049b124      .byte 0x00
            0x0049b125      .byte 0x80
            0x0049b126      .byte 0x00
            0x0049b127      .byte 0x80
            0x0049b128      .byte 0x00
            0x0049b129      .byte 0x10
            0x0049b12a      .byte 0x00
            0x0049b12b      .byte 0x80
            0x0049b12c      .byte 0x00
            0x0049b12d      .byte 0x80
            0x0049b12e      .byte 0x00
            0x0049b12f      .byte 0xa7
            0x0049b130      .byte 0x00
            0x0049b131      .byte 0x72
            0x0049b132      .byte 0x00
            0x0049b133      .byte 0x9e
            0x0049b134      .byte 0x00
            0x0049b135      .byte 0xbf
            0x0049b136      .byte 0x00
            0x0049b137      .byte 0x80
            0x0049b138      .byte 0x00
            0x0049b139      .byte 0x80
            0x0049b13a      .byte 0x00
            0x0049b13b      .byte 0xa0
            0x0049b13c      .byte 0x00
            0x0049b13d      .byte 0x96
            0x0049b13e      .byte 0x00
            0x0049b13f      .byte 0x74
            0x0049b140      .byte 0x00
            0x0049b141      .byte 0x23
            0x0049b142      .byte 0x00
            0x0049b143      .byte 0xf0
            0x0049b144      .byte 0x00
            0x0049b145      .byte 0x6e
            0x0049b146      .byte 0x00
            0x0049b147      .byte 0x8c
            0x0049b148      .byte 0x00
            0x0049b149      .byte 0x6e
            0x0049b14a      .byte 0x00
            0x0049b14b      .byte 0x6e
            0x0049b14c      .byte 0x00
            0x0049b14d      .byte 0xc4
            0x0049b14e      .byte 0x00
            0x0049b14f      .byte 0x31
            0x0049b150      .byte 0x00
            0x0049b151      .byte 0x8c
            0x0049b152      .byte 0x00
            0x0049b153      .byte 0xa8
            0x0049b154      .byte 0x00
            0x0049b155      .byte 0x28
            0x0049b156      .byte 0x00
            0x0049b157      .byte 0xb1
            0x0049b158      .byte 0x00
            0x0049b159      .byte 0x00
            0x0049b15a      .byte 0x00
            0x0049b15b      .byte 0x80
            0x0049b15c      .byte 0x00
            0x0049b15d      .byte 0x80
            0x0049b15e      .byte 0x00
            0x0049b15f      .byte 0xff
            0x0049b160      .byte 0x00
            0x0049b161      .byte 0x80
            0x0049b162      .byte 0x00
            0x0049b163      .byte 0x80
            0x0049b164      .byte 0x00
            0x0049b165      .byte 0xcc
            0x0049b166      .byte 0x00
            0x0049b167      .byte 0x80
            0x0049b168      .byte 0x00
            0x0049b169      .byte 0x80
            0x0049b16a      .byte 0x00
            0x0049b16b      .byte 0xad
            0x0049b16c      .byte 0x00
            0x0049b16d      .byte 0x80
            0x0049b16e      .byte 0x00
            0x0049b16f      .byte 0x80
            0x0049b170      .byte 0x00
            0x0049b171      .byte 0xeb
            0x0049b172      .byte 0x00
            0x0049b173      .byte 0x80
            0x0049b174      .byte 0x00
            0x0049b175      .byte 0x80
            0x0049b176      .byte 0x00
            0x0049b177      .byte 0x10
            0x0049b178      .byte 0x00
            0x0049b179      .byte 0x80
            0x0049b17a      .byte 0x00
            0x0049b17b      .byte 0x80
            0x0049b17c      .byte 0x00
            0x0049b17d      .byte 0x80
            0x0049b17e      .byte 0x00
            0x0049b17f      .byte 0x80
            0x0049b180      .byte 0x00
            0x0049b181      .byte 0x80
            0x0049b182      .byte 0x00
            0x0049b183      .byte 0x51
            0x0049b184      .byte 0x00
            0x0049b185      .byte 0x5a
            0x0049b186      .byte 0x00
            0x0049b187      .byte 0xf0
            0x0049b188      .byte 0x00
            0x0049b189      .byte 0xd2
            0x0049b18a      .byte 0x00
            0x0049b18b      .byte 0x10
            0x0049b18c      .byte 0x00
            0x0049b18d      .byte 0x92
            0x0049b18e      .byte 0x00
            0x0049b18f      .byte 0x29
            0x0049b190      .byte 0x00
            0x0049b191      .byte 0xf0
            0x0049b192      .byte 0x00
            0x0049b193      .byte 0x6e
            0x0049b194      .byte 0x00
            0x0049b195      .byte 0x91
            0x0049b196      .byte 0x00
            0x0049b197      .byte 0x36
            0x0049b198      .byte 0x00
            0x0049b199      .byte 0x22
            0x0049b19a      .byte 0x00
            0x0049b19b      .byte 0xa2
            0x0049b19c      .byte 0x00
            0x0049b19d      .byte 0x2c
            0x0049b19e      .byte 0x00
            0x0049b19f      .byte 0x8e
            0x0049b1a0      .byte 0x00
            0x0049b1a1      .byte 0x83
            0x0049b1a2      .byte 0x00
            0x0049b1a3      .byte 0x9c
            0x0049b1a4      .byte 0x00
            0x0049b1a5      .byte 0x2c
            0x0049b1a6      .byte 0x00
            0x0049b1a7      .byte 0x70
            0x0049b1a8      .byte 0x00
            0x0049b1a9      .byte 0x48
            0x0049b1aa      .byte 0x00
            0x0049b1ab      .byte 0x3a
            0x0049b1ac      .byte 0x00
            0x0049b1ad      .byte 0x54
            0x0049b1ae      .byte 0x00
            0x0049b1af      .byte 0xb8
            0x0049b1b0      .byte 0x00
            0x0049b1b1      .byte 0xc6
            0x0049b1b2      .byte 0x00
            0x0049b1b3      .byte 0x41
            0x0049b1b4      .byte 0x00
            0x0049b1b5      .byte 0x64
            0x0049b1b6      .byte 0x00
            0x0049b1b7      .byte 0xd4
            0x0049b1b8      .byte 0x00
            0x0049b1b9      .byte 0x23
            0x0049b1ba      .byte 0x00
            0x0049b1bb      .byte 0xd4
            0x0049b1bc      .byte 0x00
            0x0049b1bd      .byte 0x72
            0x0049b1be      .byte 0x00
            0x0049b1bf      .byte 0xd2
            0x0049b1c0      .byte 0x00
            0x0049b1c1      .byte 0x10
            0x0049b1c2      .byte 0x00
            0x0049b1c3      .byte 0x92
            0x0049b1c4      .byte 0x00
            0x0049b1c5      .byte 0xaa
            0x0049b1c6      .byte 0x00
            0x0049b1c7      .byte 0xa6
            0x0049b1c8      .byte 0x00
            0x0049b1c9      .byte 0x10
            0x0049b1ca      .byte 0x00
            0x0049b1cb      .byte 0x91
            0x0049b1cc      .byte 0x00
            0x0049b1cd      .byte 0x36
            0x0049b1ce      .byte 0x00
            0x0049b1cf      .byte 0x22
            0x0049b1d0      .byte 0x00
            0x0049b1d1      .byte 0x6a
            0x0049b1d2      .byte 0x00
            0x0049b1d3      .byte 0xca
            0x0049b1d4      .byte 0x00
            0x0049b1d5      .byte 0xde
            0x0049b1d6      .byte 0x00
            0x0049b1d7      .byte 0x51
            0x0049b1d8      .byte 0x00
            0x0049b1d9      .byte 0x5a
            0x0049b1da      .byte 0x00
            0x0049b1db      .byte 0xf0
            0x0049b1dc      .byte 0x00
            0x0049b1dd      .byte 0x29
            0x0049b1de      .byte 0x00
            0x0049b1df      .byte 0xf0
            0x0049b1e0      .byte 0x00
            0x0049b1e1      .byte 0x6e
            0x0049b1e2      .byte 0x02
            0x0049b1e3      .byte 0xc7
            0x0049b1e4      .byte 0x01
            0x0049b1e5      .byte 0xe5
            0x0049b1e6      .byte 0x03
            0x0049b1e7      .byte 0x00
            0x0049b1e8      .byte 0x01
            0x0049b1e9      .byte 0xe4
            0x0049b1ea      .byte 0x02
            0x0049b1eb      .byte 0xbd
            0x0049b1ec      .byte 0x02
            0x0049b1ed      .byte 0x3f
            0x0049b1ee      .byte 0x00
            0x0049b1ef      .byte 0x2a
            0x0049b1f0      .byte 0x01
            0x0049b1f1      .byte 0x00
            0x0049b1f2      .byte 0x00
            0x0049b1f3      .byte 0x36
            0x0049b1f4      .byte 0x01
            0x0049b1f5      .byte 0x00
            0x0049b1f6      .byte 0x00
            0x0049b1f7      .byte 0x1d
            0x0049b1f8      .byte 0x02
            0x0049b1f9      .byte 0x00
            0x0049b1fa      .byte 0x00
            0x0049b1fb      .byte 0x81
            0x0049b1fc      .byte 0x00
            0x0049b1fd      .byte 0x00
            0x0049b1fe      .byte 0x00
            0x0049b1ff      .byte 0x00
            0x0049b200      .byte 0x00
            0x0049b201      .byte 0x00
            0x0049b202      .byte 0x00
            0x0049b203      .byte 0x00
            0x0049b204      .byte 0x00
            0x0049b205      .byte 0x00
            0x0049b206      .byte 0x00
            0x0049b207      .byte 0x00
            0x0049b208      .byte 0x00
            0x0049b209      .byte 0x00
            0x0049b20a      .byte 0x00
            0x0049b20b      .byte 0x00
            0x0049b20c      .byte 0x00
            0x0049b20d      .byte 0x00
            0x0049b20e      .byte 0x00
            0x0049b20f      .byte 0x00
            0x0049b210      .byte 0x00
            0x0049b211      .byte 0x00
            0x0049b212      .byte 0x00
            0x0049b213      .byte 0x00
            0x0049b214      .byte 0x00
            0x0049b215      .byte 0x00
            0x0049b216      .byte 0x00
            0x0049b217      .byte 0x00
            0x0049b218      .byte 0x00
            0x0049b219      .byte 0x00
            0x0049b21a      .byte 0x00
            0x0049b21b      .byte 0x04
            0x0049b21c      .byte 0x02
            0x0049b21d      .byte 0x00
            0x0049b21e      .byte 0x00
            0x0049b21f      .byte 0x00
            0x0049b220      .byte 0x00
            0x0049b221      .byte 0x00
            0x0049b222      .byte 0x00
            0x0049b223      .byte 0x00
            0x0049b224      .byte 0x00
            0x0049b225      .byte 0x00
            0x0049b226      .byte 0x00
            0x0049b227      .byte 0x00
            0x0049b228      .byte 0x00
            0x0049b229      .byte 0x00
            0x0049b22a      .byte 0x00
            0x0049b22b      .byte 0x00
            0x0049b22c      .byte 0x00
            0x0049b22d      .byte 0x00
            0x0049b22e      .byte 0x00
            0x0049b22f      .byte 0x00
            0x0049b230      .byte 0x00
            0x0049b231      .byte 0x00
            0x0049b232      .byte 0x00
            0x0049b233      .byte 0x00
            0x0049b234      .byte 0x00
            0x0049b235      .byte 0x00
            0x0049b236      .byte 0x00
            0x0049b237      .byte 0x00
            0x0049b238      .byte 0x00
            0x0049b239      .byte 0x00
            0x0049b23a      .byte 0x0f
            0x0049b23b     .string "hit numpad box " ; len=15
            0x0049b24a      .byte 0x09
            0x0049b24b     .string "jan      " ; len=9
            0x0049b254      .byte 0x09
            0x0049b255     .string "<f<eb    " ; len=9
            0x0049b25e      .byte 0x09
            0x0049b25f     .string "<m<<<a<r " ; len=9
            0x0049b268      .byte 0x09
            0x0049b269     .string "<a<pr    " ; len=9
            0x0049b272      .byte 0x09
            0x0049b273     .string "<<m<<a<<y" ; len=9
            0x0049b27c      .byte 0x09
            0x0049b27d     .string "jun      " ; len=9
            0x0049b286      .byte 0x09
            0x0049b287     .string ">jul     " ; len=9
            0x0049b290      .byte 0x09
            0x0049b291     .string "<<a<u<g  " ; len=9
            0x0049b29a      .byte 0x09
            0x0049b29b     .string "<<s<e<p  " ; len=9
            0x0049b2a4      .byte 0x09
            0x0049b2a5     .string "<oc<t    " ; len=9
            0x0049b2ae      .byte 0x09
            0x0049b2af     .string "<n<o<<v  " ; len=9
            0x0049b2b8      .byte 0x09
            0x0049b2b9     .string "<d<e<c   " ; len=9
            0x0049b2c2      .byte 0x02
            0x0049b2c3      .byte 0x37
            0x0049b2c4      .byte 0x20
            0x0049b2c5      .byte 0x02
            0x0049b2c6      .byte 0x38
            0x0049b2c7      .byte 0x20
            0x0049b2c8      .byte 0x02
            0x0049b2c9      .byte 0x39
            0x0049b2ca      .byte 0x20
            0x0049b2cb      .byte 0x02
            0x0049b2cc      .byte 0x34
            0x0049b2cd      .byte 0x20
            0x0049b2ce      .byte 0x02
            0x0049b2cf      .byte 0x35
            0x0049b2d0      .byte 0x20
            0x0049b2d1      .byte 0x02
            0x0049b2d2      .byte 0x36
            0x0049b2d3      .byte 0x20
            0x0049b2d4      .byte 0x02
            0x0049b2d5      .byte 0x31
            0x0049b2d6      .byte 0x20
            0x0049b2d7      .byte 0x02
            0x0049b2d8      .byte 0x32
            0x0049b2d9      .byte 0x20
            0x0049b2da      .byte 0x02
            0x0049b2db      .byte 0x33
            0x0049b2dc      .byte 0x20
            0x0049b2dd      .byte 0x02
            0x0049b2de      .byte 0x20
            0x0049b2df      .byte 0x20
            0x0049b2e0      .byte 0x02
            0x0049b2e1      .byte 0x30
            0x0049b2e2      .byte 0x20
            0x0049b2e3      .byte 0x02
            0x0049b2e4      .byte 0x20
            0x0049b2e5      .byte 0x20
            0x0049b2e6      .byte 0x19
            0x0049b2e7     .string "set_num_month_boxes with " ; len=25
            0x0049b300      .byte 0x0a
            0x0049b301     .string "Set months" ; len=10
            0x0049b30b      .byte 0x03
            0x0049b30c      .byte 0x3c
            0x0049b30d      .byte 0x3c
            0x0049b30e      .byte 0x3c
            0x0049b30f      .byte 0x0a
            0x0049b310     .string "Set digits" ; len=10
            0x0049b31a      .byte 0x15
            0x0049b31b     .string "Don't change box text" ; len=21
            0x0049b330      .byte 0x19
            0x0049b331     .string "set numpad for timecodes " ; len=25
            0x0049b34a      .byte 0x16
            0x0049b34b     .string "set numpad for pic num" ; len=22
            0x0049b361      .byte 0x00
            0x0049b362      .byte 0x00
            0x0049b363      .byte 0x20
            0x0049b364      .byte 0x00
            0x0049b365      .byte 0x00
            0x0049b366      .byte 0x02
            0x0049b367      .byte 0x37
            0x0049b368      .byte 0x20
            0x0049b369      .byte 0x05
            0x0049b36a     .string "pad 7" ; len=5
            0x0049b36f      .byte 0x00
            0x0049b370      .byte 0x00
            0x0049b371      .byte 0x20
            0x0049b372      .byte 0x00
            0x0049b373      .byte 0x00
            0x0049b374      .byte 0x02
            0x0049b375      .byte 0x38
            0x0049b376      .byte 0x20
            0x0049b377      .byte 0x05
            0x0049b378     .string "pad 8" ; len=5
            0x0049b37d      .byte 0x00
            0x0049b37e      .byte 0x00
            0x0049b37f      .byte 0x20
            0x0049b380      .byte 0x00
            0x0049b381      .byte 0x00
            0x0049b382      .byte 0x02
            0x0049b383      .byte 0x39
            0x0049b384      .byte 0x20
            0x0049b385      .byte 0x05
            0x0049b386     .string "pad 9" ; len=5
            0x0049b38b      .byte 0x00
            0x0049b38c      .byte 0x00
            0x0049b38d      .byte 0x20
            0x0049b38e      .byte 0x00
            0x0049b38f      .byte 0x00
            0x0049b390      .byte 0x02
            0x0049b391      .byte 0x34
            0x0049b392      .byte 0x20
            0x0049b393      .byte 0x05
            0x0049b394     .string "pad 4" ; len=5
            0x0049b399      .byte 0x00
            0x0049b39a      .byte 0x00
            0x0049b39b      .byte 0x20
            0x0049b39c      .byte 0x00
            0x0049b39d      .byte 0x00
            0x0049b39e      .byte 0x02
            0x0049b39f      .byte 0x35
            0x0049b3a0      .byte 0x20
            0x0049b3a1      .byte 0x05
            0x0049b3a2     .string "pad 5" ; len=5
            0x0049b3a7      .byte 0x00
            0x0049b3a8      .byte 0x00
            0x0049b3a9      .byte 0x20
            0x0049b3aa      .byte 0x00
            0x0049b3ab      .byte 0x00
            0x0049b3ac      .byte 0x02
            0x0049b3ad      .byte 0x36
            0x0049b3ae      .byte 0x20
            0x0049b3af      .byte 0x05
            0x0049b3b0     .string "pad 6" ; len=5
            0x0049b3b5      .byte 0x00
            0x0049b3b6      .byte 0x00
            0x0049b3b7      .byte 0x20
            0x0049b3b8      .byte 0x00
            0x0049b3b9      .byte 0x00
            0x0049b3ba      .byte 0x02
            0x0049b3bb      .byte 0x31
            0x0049b3bc      .byte 0x20
            0x0049b3bd      .byte 0x05
            0x0049b3be     .string "pad 1" ; len=5
            0x0049b3c3      .byte 0x00
            0x0049b3c4      .byte 0x00
            0x0049b3c5      .byte 0x20
            0x0049b3c6      .byte 0x00
            0x0049b3c7      .byte 0x00
            0x0049b3c8      .byte 0x02
            0x0049b3c9      .byte 0x32
            0x0049b3ca      .byte 0x20
            0x0049b3cb      .byte 0x05
            0x0049b3cc     .string "pad 2" ; len=5
            0x0049b3d1      .byte 0x00
            0x0049b3d2      .byte 0x00
            0x0049b3d3      .byte 0x20
            0x0049b3d4      .byte 0x00
            0x0049b3d5      .byte 0x00
            0x0049b3d6      .byte 0x02
            0x0049b3d7      .byte 0x33
            0x0049b3d8      .byte 0x20
            0x0049b3d9      .byte 0x05
            0x0049b3da     .string "pad 3" ; len=5
            0x0049b3df      .byte 0x00
            0x0049b3e0      .byte 0x00
            0x0049b3e1      .byte 0x20
            0x0049b3e2      .byte 0x00
            0x0049b3e3      .byte 0x00
            0x0049b3e4      .byte 0x02
            0x0049b3e5      .byte 0x43
            0x0049b3e6      .byte 0x20
            0x0049b3e7      .byte 0x05
            0x0049b3e8     .string "pad C" ; len=5
            0x0049b3ed      .byte 0x00
            0x0049b3ee      .byte 0x00
            0x0049b3ef      .byte 0x20
            0x0049b3f0      .byte 0x00
            0x0049b3f1      .byte 0x00
            0x0049b3f2      .byte 0x02
            0x0049b3f3      .byte 0x30
            0x0049b3f4      .byte 0x20
            0x0049b3f5      .byte 0x05
            0x0049b3f6     .string "pad 0" ; len=5
            0x0049b3fb      .byte 0x00
            0x0049b3fc      .byte 0x00
            0x0049b3fd      .byte 0x08
            0x0049b3fe      .byte 0x00
            0x0049b3ff      .byte 0x00
            0x0049b400      .byte 0x0f
            0x0049b401     .string "*pad gen number" ; len=15
            0x0049b410      .byte 0x00
            0x0049b411      .byte 0x20
            0x0049b412      .byte 0x00
            0x0049b413      .byte 0x00
            0x0049b414      .byte 0x0c
            0x0049b415     .string "*pad pic num" ; len=12
            0x0049b421      .byte 0x00
            0x0049b422      .byte 0x00
            0x0049b423      .byte 0x20
            0x0049b424      .byte 0x00
            0x0049b425      .byte 0x00
            0x0049b426      .byte 0x0d
            0x0049b427     .string "*pad timecode" ; len=13
            0x0049b434      .byte 0x00
            0x0049b435      .byte 0x20
            0x0049b436      .byte 0x00
            0x0049b437      .byte 0x00
            0x0049b438      .byte 0x0b
            0x0049b439     .string "           " ; len=11
            0x0049b444      .byte 0x09
            0x0049b445     .string "pad value" ; len=9
            0x0049b44e      .byte 0x00
            0x0049b44f      .byte 0x20
            0x0049b450      .byte 0x00
            0x0049b451      .byte 0x00
            0x0049b452      .byte 0x02
            0x0049b453      .byte 0x2d
            0x0049b454      .byte 0x20
            0x0049b455      .byte 0x05
            0x0049b456     .string "pad -" ; len=5
            0x0049b45b      .byte 0x00
            0x0049b45c      .byte 0x00
            0x0049b45d      .byte 0x20
            0x0049b45e      .byte 0x00
            0x0049b45f      .byte 0x00
            0x0049b460      .byte 0x04
            0x0049b461      .byte 0x3c
            0x0049b462      .byte 0x3c
            0x0049b463      .byte 0x3c
            0x0049b464      .byte 0x3c
            0x0049b465      .byte 0x01
            0x0049b466      .byte 0x19
            0x0049b467      .byte 0x08
            0x0049b468     .string "pad left" ; len=8
            0x0049b470      .byte 0x00
            0x0049b471      .byte 0x20
            0x0049b472      .byte 0x00
            0x0049b473      .byte 0x00
            0x0049b474      .byte 0x04
            0x0049b475      .byte 0x3c
            0x0049b476      .byte 0x3c
            0x0049b477      .byte 0x3c
            0x0049b478      .byte 0x3c
            0x0049b479      .byte 0x01
            0x0049b47a      .byte 0x15
            0x0049b47b      .byte 0x09
            0x0049b47c     .string "pad right" ; len=9
            0x0049b485      .byte 0x00
            0x0049b486      .byte 0x00
            0x0049b487      .byte 0x20
            0x0049b488      .byte 0x00
            0x0049b489      .byte 0x00
            0x0049b48a      .byte 0x02
            0x0049b48b      .byte 0x20
            0x0049b48c      .byte 0x20
            0x0049b48d      .byte 0x0a
            0x0049b48e     .string "pad lblank" ; len=10
            0x0049b498      .byte 0x00
            0x0049b499      .byte 0x20
            0x0049b49a      .byte 0x00
            0x0049b49b      .byte 0x00
            0x0049b49c      .byte 0x02
            0x0049b49d      .byte 0x2e
            0x0049b49e      .byte 0x20
            0x0049b49f      .byte 0x05
            0x0049b4a0     .string "pad ." ; len=5
            0x0049b4a5      .byte 0x00
            0x0049b4a6      .byte 0x00
            0x0049b4a7      .byte 0x20
            0x0049b4a8      .byte 0x00
            0x0049b4a9      .byte 0x00
            0x0049b4aa      .byte 0x03
            0x0049b4ab      .byte 0x69
            0x0049b4ac      .byte 0x6e
            0x0049b4ad      .byte 0x63
            0x0049b4ae      .byte 0x07
            0x0049b4af     .string "pad inc" ; len=7
            0x0049b4b6      .byte 0x00
            0x0049b4b7      .byte 0x20
            0x0049b4b8      .byte 0x00
            0x0049b4b9      .byte 0x00
            0x0049b4ba      .byte 0x03
            0x0049b4bb      .byte 0x64
            0x0049b4bc      .byte 0x65
            0x0049b4bd      .byte 0x63
            0x0049b4be      .byte 0x07
            0x0049b4bf     .string "pad dec" ; len=7
            0x0049b4c6      .byte 0x00
            0x0049b4c7      .byte 0x20
            0x0049b4c8      .byte 0x00
            0x0049b4c9      .byte 0x00
            0x0049b4ca      .byte 0x02
            0x0049b4cb      .byte 0x3a
            0x0049b4cc      .byte 0x20
            0x0049b4cd      .byte 0x05
            0x0049b4ce     .string "pad :" ; len=5
            0x0049b4d3      .byte 0x00
            0x0049b4d4      .byte 0x00
            0x0049b4d5      .byte 0x20
            0x0049b4d6      .byte 0x00
            0x0049b4d7      .byte 0x00
            0x0049b4d8      .byte 0x02
            0x0049b4d9      .byte 0x20
            0x0049b4da      .byte 0x20
            0x0049b4db      .byte 0x09
            0x0049b4dc     .string "pad blank" ; len=9
            0x0049b4e5      .byte 0x00
            0x0049b4e6      .byte 0x00
            0x0049b4e7      .byte 0x20
            0x0049b4e8      .byte 0x00
            0x0049b4e9      .byte 0x00
            0x0049b4ea      .byte 0x03
            0x0049b4eb      .byte 0x20
            0x0049b4ec      .byte 0x20
            0x0049b4ed      .byte 0x20
            0x0049b4ee      .byte 0x0c
            0x0049b4ef     .string "picnum value" ; len=12
            0x0049b4fb      .byte 0x00
            0x0049b4fc      .byte 0x00
            0x0049b4fd      .byte 0x20
            0x0049b4fe      .byte 0x00
            0x0049b4ff      .byte 0x00
            0x0049b500      .byte 0x02
            0x0049b501      .byte 0x3d
            0x0049b502      .byte 0x20
            0x0049b503      .byte 0x05
            0x0049b504     .string "pad =" ; len=5
            0x0049b509      .byte 0x00
            0x0049b50a      .byte 0x00
            0x0049b50b      .byte 0x20
            0x0049b50c      .byte 0x00
            0x0049b50d      .byte 0x00
            0x0049b50e      .byte 0x0d
            0x0049b50f     .string "<<free <<<num" ; len=13
            0x0049b51c      .byte 0x00
            0x0049b51d      .byte 0x20
            0x0049b51e      .byte 0x00
            0x0049b51f      .byte 0x00
            0x0049b520      .byte 0x07
            0x0049b521     .string "replace" ; len=7
            0x0049b528      .byte 0x00
            0x0049b529      .byte 0x20
            0x0049b52a      .byte 0x00
            0x0049b52b      .byte 0x00
            0x0049b52c      .byte 0x06
            0x0049b52d     .string "no num" ; len=6
            0x0049b533      .byte 0x00
            0x0049b534      .byte 0x00
            0x0049b535      .byte 0x20
            0x0049b536      .byte 0x00
            0x0049b537      .byte 0x00
            0x0049b538      .byte 0x02
            0x0049b539      .byte 0x3c
            0x0049b53a      .byte 0x3c
            0x0049b53b      .byte 0x01
            0x0049b53c      .byte 0x13
            0x0049b53d      .byte 0x05
            0x0049b53e     .string "pad n" ; len=5
            0x0049b543      .byte 0x00
            0x0049b544      .byte 0x00
            0x0049b545      .byte 0x20
            0x0049b546      .byte 0x00
            0x0049b547      .byte 0x00
            0x0049b548      .byte 0x02
            0x0049b549      .byte 0x3c
            0x0049b54a      .byte 0x3c
            0x0049b54b      .byte 0x01
            0x0049b54c      .byte 0x14
            0x0049b54d      .byte 0x06
            0x0049b54e     .string "pad ne" ; len=6
            0x0049b554      .byte 0x00
            0x0049b555      .byte 0x20
            0x0049b556      .byte 0x00
            0x0049b557      .byte 0x00
            0x0049b558      .byte 0x02
            0x0049b559      .byte 0x3c
            0x0049b55a      .byte 0x3c
            0x0049b55b      .byte 0x01
            0x0049b55c      .byte 0x15
            0x0049b55d      .byte 0x05
            0x0049b55e     .string "pad e" ; len=5
            0x0049b563      .byte 0x00
            0x0049b564      .byte 0x00
            0x0049b565      .byte 0x20
            0x0049b566      .byte 0x00
            0x0049b567      .byte 0x00
            0x0049b568      .byte 0x02
            0x0049b569      .byte 0x3c
            0x0049b56a      .byte 0x3c
            0x0049b56b      .byte 0x01
            0x0049b56c      .byte 0x16
            0x0049b56d      .byte 0x06
            0x0049b56e     .string "pad se" ; len=6
            0x0049b574      .byte 0x00
            0x0049b575      .byte 0x20
            0x0049b576      .byte 0x00
            0x0049b577      .byte 0x00
            0x0049b578      .byte 0x02
            0x0049b579      .byte 0x3c
            0x0049b57a      .byte 0x3c
            0x0049b57b      .byte 0x01
            0x0049b57c      .byte 0x17
            0x0049b57d      .byte 0x05
            0x0049b57e     .string "pad s" ; len=5
            0x0049b583      .byte 0x00
            0x0049b584      .byte 0x00
            0x0049b585      .byte 0x20
            0x0049b586      .byte 0x00
            0x0049b587      .byte 0x00
            0x0049b588      .byte 0x02
            0x0049b589      .byte 0x3c
            0x0049b58a      .byte 0x3c
            0x0049b58b      .byte 0x01
            0x0049b58c      .byte 0x18
            0x0049b58d      .byte 0x06
            0x0049b58e     .string "pad sw" ; len=6
            0x0049b594      .byte 0x00
            0x0049b595      .byte 0x20
            0x0049b596      .byte 0x00
            0x0049b597      .byte 0x00
            0x0049b598      .byte 0x02
            0x0049b599      .byte 0x3c
            0x0049b59a      .byte 0x3c
            0x0049b59b      .byte 0x01
            0x0049b59c      .byte 0x19
            0x0049b59d      .byte 0x05
            0x0049b59e     .string "pad w" ; len=5
            0x0049b5a3      .byte 0x00
            0x0049b5a4      .byte 0x00
            0x0049b5a5      .byte 0x20
            0x0049b5a6      .byte 0x00
            0x0049b5a7      .byte 0x00
            0x0049b5a8      .byte 0x02
            0x0049b5a9      .byte 0x3c
            0x0049b5aa      .byte 0x3c
            0x0049b5ab      .byte 0x01
            0x0049b5ac      .byte 0x1a
            0x0049b5ad      .byte 0x06
            0x0049b5ae     .string "pad nw" ; len=6
            0x0049b5b4      .byte 0x00
            0x0049b5b5      .byte 0x20
            0x0049b5b6      .byte 0x00
            0x0049b5b7      .byte 0x00
            0x0049b5b8      .byte 0x05
            0x0049b5b9     .string "<<inc" ; len=5
            0x0049b5be      .byte 0x08
            0x0049b5bf     .string "pad incr" ; len=8
            0x0049b5c7      .byte 0x00
            0x0049b5c8      .byte 0x00
            0x0049b5c9      .byte 0x20
            0x0049b5ca      .byte 0x00
            0x0049b5cb      .byte 0x00
            0x0049b5cc      .byte 0x07
            0x0049b5cd     .string "<<today" ; len=7
            0x0049b5d4      .byte 0x09
            0x0049b5d5     .string "pad today" ; len=9
            0x0049b5de      .byte 0x00
            0x0049b5df      .byte 0x20
            0x0049b5e0      .byte 0x00
            0x0049b5e1      .byte 0x00
            0x0049b5e2      .byte 0x09
            0x0049b5e3     .string "<<<<d<e<c" ; len=9
            0x0049b5ec      .byte 0x08
            0x0049b5ed     .string "pad decr" ; len=8
            0x0049b5f5      .byte 0x00
            0x0049b5f6      .byte 0x00
            0x0049b5f7      .byte 0x20
            0x0049b5f8      .byte 0x00
            0x0049b5f9      .byte 0x00
            0x0049b5fa      .byte 0x0b
            0x0049b5fb     .string "           " ; len=11
            0x0049b606      .byte 0x09
            0x0049b607     .string "pad value" ; len=9
            0x0049b610      .byte 0x00
            0x0049b611      .byte 0x20
            0x0049b612      .byte 0x00
            0x0049b613      .byte 0x00
            0x0049b614      .byte 0x02
            0x0049b615      .byte 0x37
            0x0049b616      .byte 0x20
            0x0049b617      .byte 0x09
            0x0049b618     .string "pad 7/jan" ; len=9
            0x0049b621      .byte 0x00
            0x0049b622      .byte 0x00
            0x0049b623      .byte 0x20
            0x0049b624      .byte 0x00
            0x0049b625      .byte 0x00
            0x0049b626      .byte 0x02
            0x0049b627      .byte 0x38
            0x0049b628      .byte 0x20
            0x0049b629      .byte 0x09
            0x0049b62a     .string "pad 8/feb" ; len=9
            0x0049b633      .byte 0x00
            0x0049b634      .byte 0x00
            0x0049b635      .byte 0x20
            0x0049b636      .byte 0x00
            0x0049b637      .byte 0x00
            0x0049b638      .byte 0x02
            0x0049b639      .byte 0x39
            0x0049b63a      .byte 0x20
            0x0049b63b      .byte 0x09
            0x0049b63c     .string "pad 9/mar" ; len=9
            0x0049b645      .byte 0x00
            0x0049b646      .byte 0x00
            0x0049b647      .byte 0x20
            0x0049b648      .byte 0x00
            0x0049b649      .byte 0x00
            0x0049b64a      .byte 0x02
            0x0049b64b      .byte 0x34
            0x0049b64c      .byte 0x20
            0x0049b64d      .byte 0x09
            0x0049b64e     .string "pad 4/apr" ; len=9
            0x0049b657      .byte 0x00
            0x0049b658      .byte 0x00
            0x0049b659      .byte 0x20
            0x0049b65a      .byte 0x00
            0x0049b65b      .byte 0x00
            0x0049b65c      .byte 0x02
            0x0049b65d      .byte 0x35
            0x0049b65e      .byte 0x20
            0x0049b65f      .byte 0x09
            0x0049b660     .string "pad 5/may" ; len=9
            0x0049b669      .byte 0x00
            0x0049b66a      .byte 0x00
            0x0049b66b      .byte 0x20
            0x0049b66c      .byte 0x00
            0x0049b66d      .byte 0x00
            0x0049b66e      .byte 0x02
            0x0049b66f      .byte 0x36
            0x0049b670      .byte 0x20
            0x0049b671      .byte 0x09
            0x0049b672     .string "pad 6/jun" ; len=9
            0x0049b67b      .byte 0x00
            0x0049b67c      .byte 0x00
            0x0049b67d      .byte 0x20
            0x0049b67e      .byte 0x00
            0x0049b67f      .byte 0x00
            0x0049b680      .byte 0x02
            0x0049b681      .byte 0x31
            0x0049b682      .byte 0x20
            0x0049b683      .byte 0x09
            0x0049b684     .string "pad 1/jul" ; len=9
            0x0049b68d      .byte 0x00
            0x0049b68e      .byte 0x00
            0x0049b68f      .byte 0x20
            0x0049b690      .byte 0x00
            0x0049b691      .byte 0x00
            0x0049b692      .byte 0x02
            0x0049b693      .byte 0x32
            0x0049b694      .byte 0x20
            0x0049b695      .byte 0x09
            0x0049b696     .string "pad 2/aug" ; len=9
            0x0049b69f      .byte 0x00
            0x0049b6a0      .byte 0x00
            0x0049b6a1      .byte 0x20
            0x0049b6a2      .byte 0x00
            0x0049b6a3      .byte 0x00
            0x0049b6a4      .byte 0x02
            0x0049b6a5      .byte 0x33
            0x0049b6a6      .byte 0x20
            0x0049b6a7      .byte 0x09
            0x0049b6a8     .string "pad 3/sep" ; len=9
            0x0049b6b1      .byte 0x00
            0x0049b6b2      .byte 0x00
            0x0049b6b3      .byte 0x20
            0x0049b6b4      .byte 0x00
            0x0049b6b5      .byte 0x00
            0x0049b6b6      .byte 0x02
            0x0049b6b7      .byte 0x20
            0x0049b6b8      .byte 0x20
            0x0049b6b9      .byte 0x07
            0x0049b6ba     .string "pad oct" ; len=7
            0x0049b6c1      .byte 0x00
            0x0049b6c2      .byte 0x00
            0x0049b6c3      .byte 0x20
            0x0049b6c4      .byte 0x00
            0x0049b6c5      .byte 0x00
            0x0049b6c6      .byte 0x02
            0x0049b6c7      .byte 0x30
            0x0049b6c8      .byte 0x20
            0x0049b6c9      .byte 0x09
            0x0049b6ca     .string "pad 0/nov" ; len=9
            0x0049b6d3      .byte 0x00
            0x0049b6d4      .byte 0x00
            0x0049b6d5      .byte 0x20
            0x0049b6d6      .byte 0x00
            0x0049b6d7      .byte 0x00
            0x0049b6d8      .byte 0x02
            0x0049b6d9      .byte 0x20
            0x0049b6da      .byte 0x20
            0x0049b6db      .byte 0x07
            0x0049b6dc     .string "pad dec" ; len=7
            0x0049b6e3      .byte 0x00
            0x0049b6e4      .byte 0x00
            0x0049b6e5      .byte 0x20
            0x0049b6e6      .byte 0x00
            0x0049b6e7      .byte 0x00
            0x0049b6e8      .byte 0x02
            0x0049b6e9      .byte 0x43
            0x0049b6ea      .byte 0x20
            0x0049b6eb      .byte 0x05
            0x0049b6ec     .string "pad C" ; len=5
            0x0049b6f1      .byte 0x00
            0x0049b6f2      .byte 0x00
            0x0049b6f3      .byte 0x20
            0x0049b6f4      .byte 0x00
            0x0049b6f5      .byte 0x00
            0x0049b6f6      .byte 0x02
            0x0049b6f7      .byte 0x2d
            0x0049b6f8      .byte 0x20
            0x0049b6f9      .byte 0x05
            0x0049b6fa     .string "pad -" ; len=5
            0x0049b6ff      .byte 0x00
            0x0049b700      .byte 0x00
            0x0049b701      .byte 0x20
            0x0049b702      .byte 0x00
            0x0049b703      .byte 0x00
            0x0049b704      .byte 0x02
            0x0049b705      .byte 0x3c
            0x0049b706      .byte 0x3c
            0x0049b707      .byte 0x01
            0x0049b708      .byte 0x19
            0x0049b709      .byte 0x08
            0x0049b70a     .string "pad left" ; len=8
            0x0049b712      .byte 0x00
            0x0049b713      .byte 0x20
            0x0049b714      .byte 0x00
            0x0049b715      .byte 0x00
            0x0049b716      .byte 0x02
            0x0049b717      .byte 0x3c
            0x0049b718      .byte 0x3c
            0x0049b719      .byte 0x01
            0x0049b71a      .byte 0x15
            0x0049b71b      .byte 0x09
            0x0049b71c      .byte 0x70
            0x0049b71d      .byte 0x61
            0x0049b71e      .byte 0x64
            0x0049b71f      .byte 0x20
            0x0049b720      .byte 0x72
            0x0049b721      .byte 0x69
            0x0049b722      .byte 0x67
            0x0049b723      .byte 0x68
            0x0049b724      .byte 0x74
            0x0049b725      .byte 0x69
┌ 628: MENUNUMPADCOM.pen_adjust_box ();
│           0x0049b726      4e56ff80       link.w a6, 0xff80
│           0x0049b72a      bfd5           cmpa.l (a5), a7
│       ┌─< 0x0049b72c      6206           bhi.b 0x49b734
│       │   0x0049b72e      44fc0002       move.w 0x2, ccr
│       │   0x0049b732      4e76           trapv
│       └─> 0x0049b734      defc004a       adda.w 0x4a, a7
│           0x0049b738      48e7fff8       movem.l d0-d7/a0-a4, -(a7)
│           0x0049b73c      43ee000c       lea.l 0xc(a6), a1
│           0x0049b740      45eeffe2       lea.l -0x1e(a6), a2
│           0x0049b744      47f9008192de   lea.l 0x8192de, a3
│           0x0049b74a      49f90048d702   lea.l MENU2COM.get_num_data, a4
│           0x0049b750      302e0008       move.w 0x8(a6), d0
│           0x0049b754      41fafaa4       lea.l 0x49b1fa(pc), a0
│           0x0049b758      3200           move.w d0, d1
│           0x0049b75a      e649           lsr.w 0x3, d1
│           0x0049b75c      0c410020       cmpi.w 0x20, d1
│       ┌─< 0x0049b760      6d04           blt.b 0x49b766
│       │   0x0049b762      7200           moveq 0x0, d1
│      ┌──< 0x0049b764      6004           bra.b 0x49b76a
│      │└─> 0x0049b766      01301000       btst.l d0, (a0, d1.w)
│      └┌─< 0x0049b76a      6706           beq.b 0x49b772
│       │   0x0049b76c      4213           clr.b (a3)
│      ┌──< 0x0049b76e      60000222       bra.w 0x49b992
│      │└─> 0x0049b772      41fafaa6       lea.l 0x49b21a(pc), a0
│      │    0x0049b776      3200           move.w d0, d1
│      │    0x0049b778      e649           lsr.w 0x3, d1
│      │    0x0049b77a      0c410020       cmpi.w 0x20, d1
│      │┌─< 0x0049b77e      6d04           blt.b 0x49b784
│      ││   0x0049b780      7200           moveq 0x0, d1
│     ┌───< 0x0049b782      6004           bra.b 0x49b788
│     ││└─> 0x0049b784      01301000       btst.l d0, (a0, d1.w)
│     └─┌─< 0x0049b788      6712           beq.b 0x49b79c
│      ││   0x0049b78a      4a13           tst.b (a3)
│     ┌───< 0x0049b78c      67000204       beq.w 0x49b992
│     │││   0x0049b790      3f11           move.w (a1), -(a7)
│     │││   0x0049b792      3f11           move.w (a1), -(a7)
│     │││   0x0049b794      3f3c0002       move.w 0x2, -(a7)
│    ┌────< 0x0049b798      600001f0       bra.w 0x49b98a
│    │││└─> 0x0049b79c      16bc0001       move.b 0x1, (a3)
│    │││    0x0049b7a0      3f11           move.w (a1), -(a7)
│    │││    0x0049b7a2      4227           clr.b -(a7)
│    │││    0x0049b7a4      4852           pea.l (a2)
│    │││    0x0049b7a6      4e94           jsr (a4)                    ; fcn.0000000d
│    │││    0x0049b7a8      504f           addq.w 0x8, a7
│    │││    0x0049b7aa      122effe5       move.b -0x1b(a6), d1
│    │││    0x0049b7ae      4881           ext.w d1
│    │││    0x0049b7b0      43bc0001       chk.w 0x1, d1
│    │││    0x0049b7b4      1c01           move.b d1, d6
│    │││    0x0049b7b6      3f2e000a       move.w 0xa(a6), -(a7)
│    │││    0x0049b7ba      1f3c0001       move.b 0x1, -(a7)
│    │││    0x0049b7be      4852           pea.l (a2)
│    │││    0x0049b7c0      4e94           jsr (a4)                    ; fcn.0000000d
│    │││    0x0049b7c2      504f           addq.w 0x8, a7
│    │││    0x0049b7c4      122effe5       move.b -0x1b(a6), d1
│    │││    0x0049b7c8      4881           ext.w d1
│    │││    0x0049b7ca      43bc0001       chk.w 0x1, d1
│    │││    0x0049b7ce      1d41ffef       move.b d1, -0x11(a6)
│    │││    0x0049b7d2      3f11           move.w (a1), -(a7)
│    │││    0x0049b7d4      1f3c0002       move.b 0x2, -(a7)
│    │││    0x0049b7d8      4852           pea.l (a2)
│    │││    0x0049b7da      4e94           jsr (a4)                    ; fcn.0000000d
│    │││    0x0049b7dc      504f           addq.w 0x8, a7
│    │││    0x0049b7de      2e12           move.l (a2), d7
│    │││    0x0049b7e0      3f11           move.w (a1), -(a7)
│    │││    0x0049b7e2      1f3c0003       move.b 0x3, -(a7)
│    │││    0x0049b7e6      4852           pea.l (a2)
│    │││    0x0049b7e8      4e94           jsr (a4)                    ; fcn.0000000d
│    │││    0x0049b7ea      504f           addq.w 0x8, a7
│    │││    0x0049b7ec      142effe5       move.b -0x1b(a6), d2
│    │││    0x0049b7f0      4882           ext.w d2
│    │││    0x0049b7f2      45bc0001       chk.w 0x1, d2
│    │││    0x0049b7f6      1a02           move.b d2, d5
│    │││    0x0049b7f8      3f11           move.w (a1), -(a7)
│    │││    0x0049b7fa      1f3c0004       move.b 0x4, -(a7)
│    │││    0x0049b7fe      4852           pea.l (a2)
│    │││    0x0049b800      4e94           jsr (a4)                    ; fcn.0000000d
│    │││    0x0049b802      504f           addq.w 0x8, a7
│    │││    0x0049b804      142effe5       move.b -0x1b(a6), d2
│    │││    0x0049b808      4882           ext.w d2
│    │││    0x0049b80a      45bc0001       chk.w 0x1, d2
│    │││    0x0049b80e      1d42fff1       move.b d2, -0xf(a6)
│    │││    0x0049b812      4a05           tst.b d5
│    │││┌─< 0x0049b814      6606           bne.b 0x49b81c
│    ││││   0x0049b816      4eb90047b9c8   jsr CNTLCOM.update_cursor
│    │││└─> 0x0049b81c      4a06           tst.b d6
│    │││┌─< 0x0049b81e      6754           beq.b 0x49b874
│    ││││   0x0049b820      486efffa       pea.l -0x6(a6)
│    ││││   0x0049b824      486efffc       pea.l -0x4(a6)
│    ││││   0x0049b828      4eb9005186e8   jsr OUTCOM.get_zoom_and_of
│    ││││   0x0049b82e      504f           addq.w 0x8, a7
│    ││││   0x0049b830      4284           clr.l d4
│    ││││   0x0049b832      382efffa       move.w -0x6(a6), d4
│    ││││   0x0049b836      4eb900408686   jsr fcn.00408686
│    ││││   0x0049b83c      2f04           move.l d4, -(a7)
│    ││││   0x0049b83e      283c00000100   move.l 0x100, d4
│    ││││   0x0049b844      4eb900408686   jsr fcn.00408686
│    ││││   0x0049b84a      2604           move.l d4, d3
│    ││││   0x0049b84c      2817           move.l (a7), d4
│    ││││   0x0049b84e      4eb900407ff8   jsr fcn.00407ff8
│    ││││   0x0049b854      584f           addq.w 0x4, a7
│    ││││   0x0049b856      2c04           move.l d4, d6
│    ││││   0x0049b858      2806           move.l d6, d4
│    ││││   0x0049b85a      2607           move.l d7, d3
│    ││││   0x0049b85c      4eb900407e92   jsr fcn.00407e92
│    ││││   0x0049b862      2c04           move.l d4, d6
│    ││││   0x0049b864      4a02           tst.b d2
│   ┌─────< 0x0049b866      670e           beq.b 0x49b876
│   │││││   0x0049b868      4227           clr.b -(a7)
│   │││││   0x0049b86a      4eb90040452a   jsr p_Assert
│   │││││   0x0049b870      544f           addq.w 0x2, a7
│  ┌──────< 0x0049b872      6002           bra.b 0x49b876
│  │││││└─> 0x0049b874      2c07           move.l d7, d6
│  └└─────> 0x0049b876      342e000a       move.w 0xa(a6), d2
│    │││    0x0049b87a      b451           cmp.w (a1), d2
│    │││┌─< 0x0049b87c      6614           bne.b 0x49b892
│    ││││   0x0049b87e      4a39008192df   tst.b 0x8192df
│   ┌─────< 0x0049b884      6604           bne.b 0x49b88a
│   │││││   0x0049b886      4a01           tst.b d1
│  ┌──────< 0x0049b888      6704           beq.b 0x49b88e
│  │└─────> 0x0049b88a      7e01           moveq 0x1, d7
│  │┌─────< 0x0049b88c      6006           bra.b 0x49b894
│  └──────> 0x0049b88e      7eff           moveq 0xff, d7
│  ┌──────< 0x0049b890      6002           bra.b 0x49b894
│  │││││└─> 0x0049b892      7e00           moveq 0x0, d7
│  └└─────> 0x0049b894      2d7c00000001.  move.l 0x1, -0x1a(a6)
│    │││    0x0049b89c      594f           subq.w 0x4, a7
│    │││    0x0049b89e      3f11           move.w (a1), -(a7)
│    │││    0x0049b8a0      4eb90048d992   jsr MENU2COM.get_numeric_val
│    │││    0x0049b8a6      544f           addq.w 0x2, a7
│    │││    0x0049b8a8      2a1f           move.l (a7)+, d5
│    │││    0x0049b8aa      2079008192da   movea.l 0x8192da, a0
│    │││    0x0049b8b0      7601           moveq 0x1, d3
│    │││    0x0049b8b2      c7e80012       muls.w 0x12(a0), d3
│    │││    0x0049b8b6      2f03           move.l d3, -(a7)
│    │││    0x0049b8b8      38280014       move.w 0x14(a0), d4
│    │││    0x0049b8bc      48c4           ext.l d4
│    │││    0x0049b8be      2607           move.l d7, d3
│    │││    0x0049b8c0      4eb900406a74   jsr fcn.00406a74
│    │││    0x0049b8c6      2617           move.l (a7), d3
│    │││    0x0049b8c8      d883           add.l d3, d4
│    │││    0x0049b8ca      584f           addq.w 0x4, a7
│    │││    0x0049b8cc      4eb900408686   jsr fcn.00408686
│    │││    0x0049b8d2      2606           move.l d6, d3
│    │││    0x0049b8d4      4eb900407e92   jsr fcn.00407e92
│    │││    0x0049b8da      2605           move.l d5, d3
│    │││    0x0049b8dc      4eb900407ba8   jsr fcn.00407ba8
│    │││    0x0049b8e2      2d44ffd6       move.l d4, -0x2a(a6)
│    │││    0x0049b8e6      3f11           move.w (a1), -(a7)
│    │││    0x0049b8e8      2f2effd6       move.l -0x2a(a6), -(a7)
│    │││    0x0049b8ec      4227           clr.b -(a7)
│    │││    0x0049b8ee      1f3c0001       move.b 0x1, -(a7)
│    │││    0x0049b8f2      4eb90048da84   jsr MENU2COM.set_numeric_val
│    │││    0x0049b8f8      defc000a       adda.w 0xa, a7
│    │││    0x0049b8fc      b451           cmp.w (a1), d2
│    │││┌─< 0x0049b8fe      67000082       beq.w 0x49b982
│    ││││   0x0049b902      4a39008192df   tst.b 0x8192df
│   ┌─────< 0x0049b908      6604           bne.b 0x49b90e
│   │││││   0x0049b90a      4a01           tst.b d1
│  ┌──────< 0x0049b90c      6704           beq.b 0x49b912
│  │└─────> 0x0049b90e      7e01           moveq 0x1, d7
│  │┌─────< 0x0049b910      6002           bra.b 0x49b914
│  └──────> 0x0049b912      7eff           moveq 0xff, d7
│   └─────> 0x0049b914      42aeffe6       clr.l -0x1a(a6)
│    ││││   0x0049b918      594f           subq.w 0x4, a7
│    ││││   0x0049b91a      3f02           move.w d2, -(a7)
│    ││││   0x0049b91c      4eb90048d992   jsr MENU2COM.get_numeric_val
│    ││││   0x0049b922      544f           addq.w 0x2, a7
│    ││││   0x0049b924      2a1f           move.l (a7)+, d5
│    ││││   0x0049b926      2079008192da   movea.l 0x8192da, a0
│    ││││   0x0049b92c      38280012       move.w 0x12(a0), d4
│    ││││   0x0049b930      48c4           ext.l d4
│    ││││   0x0049b932      262effe6       move.l -0x1a(a6), d3
│    ││││   0x0049b936      4eb900406a74   jsr fcn.00406a74
│    ││││   0x0049b93c      2f04           move.l d4, -(a7)
│    ││││   0x0049b93e      38280014       move.w 0x14(a0), d4
│    ││││   0x0049b942      48c4           ext.l d4
│    ││││   0x0049b944      2607           move.l d7, d3
│    ││││   0x0049b946      4eb900406a74   jsr fcn.00406a74
│    ││││   0x0049b94c      2617           move.l (a7), d3
│    ││││   0x0049b94e      d883           add.l d3, d4
│    ││││   0x0049b950      584f           addq.w 0x4, a7
│    ││││   0x0049b952      4eb900408686   jsr fcn.00408686
│    ││││   0x0049b958      2606           move.l d6, d3
│    ││││   0x0049b95a      4eb900407e92   jsr fcn.00407e92
│    ││││   0x0049b960      2605           move.l d5, d3
│    ││││   0x0049b962      4eb900407ba8   jsr fcn.00407ba8
│    ││││   0x0049b968      2d44ffd6       move.l d4, -0x2a(a6)
│    ││││   0x0049b96c      3f02           move.w d2, -(a7)
│    ││││   0x0049b96e      2f2effd6       move.l -0x2a(a6), -(a7)
│    ││││   0x0049b972      4227           clr.b -(a7)
│    ││││   0x0049b974      1f3c0001       move.b 0x1, -(a7)
│    ││││   0x0049b978      4eb90048da84   jsr MENU2COM.set_numeric_val
│    ││││   0x0049b97e      defc000a       adda.w 0xa, a7
│    │││└─> 0x0049b982      3f11           move.w (a1), -(a7)
│    │││    0x0049b984      3f11           move.w (a1), -(a7)
│    │││    0x0049b986      3f3c0005       move.w 0x5, -(a7)
│    └────> 0x0049b98a      4eb90048128c   jsr MENUCOM.box_action
│     ││    0x0049b990      5c4f           addq.w 0x6, a7
│     └└──> 0x0049b992      4cdf1fff       movem.l (a7)+, d0-d7/a0-a4
│           0x0049b996      4e5e           unlk a6
└           0x0049b998      4e75           rts
            ; CALL XREF from MENUEFFECTCOM.send_to_submenu @ 0x745b20
┌ 52: MENUNUMPADCOM.hit_numpad ();
│           0x0049b99a      4e56ffc4       link.w a6, 0xffc4
│           0x0049b99e      bfd5           cmpa.l (a5), a7
│       ┌─< 0x0049b9a0      6206           bhi.b 0x49b9a8
│       │   0x0049b9a2      44fc0002       move.w 0x2, ccr
│       │   0x0049b9a6      4e76           trapv
│       └─> 0x0049b9a8      defc0022       adda.w 0x22, a7
│           0x0049b9ac      48e7e180       movem.l d0-d2/d7/a0, -(a7)
│           0x0049b9b0      41ee0008       lea.l 0x8(a6), a0
│           0x0049b9b4      243cffff8000   move.l 0xffff8000, d2
│           0x0049b9ba      3010           move.w (a0), d0
│           0x0049b9bc      0c400027       cmpi.w 0x27, d0
│       ┌─< 0x0049b9c0      620000e4       bhi.w 0x49baa6
│       │   0x0049b9c4      d040           add.w d0, d0
│       │   0x0049b9c6      303b0006       move.w 0x49b9ce(pc, d0.w), d0
└       │   0x0049b9ca      4efb0002       jmp 0x49b9ce(pc, d0.w)
        │   0x0049b9ce      0050008c       ori.w 0x8c, (a0)
        │   0x0049b9d2      00d800d8       
        │   0x0049b9d3      d800           add.b d0, d4
        │   0x0049b9d5      d800           add.b d0, d4
        │   0x0049b9d7      d800           add.b d0, d4
        │   0x0049b9d9      d800           add.b d0, d4
        │   0x0049b9db      d800           add.b d0, d4
        │   0x0049b9dd      d800           add.b d0, d4
        │   0x0049b9df      ae00           invalid
        │   0x0049b9e1      ae00           invalid
        │   0x0049b9e3      ae00           invalid
        │   0x0049b9e5      d800           add.b d0, d4
        │   0x0049b9e7      d800           add.b d0, d4
        │   0x0049b9e9      d800           add.b d0, d4
        │   0x0049b9eb      d000           add.b d0, d0
        │   0x0049b9ed      ae00           invalid
        │   0x0049b9ef      ae00           invalid
        │   0x0049b9f1      ae00           invalid
        │   0x0049b9f3      d800           add.b d0, d4
        │   0x0049b9f5      d000           add.b d0, d0
        │   0x0049b9f7      d800           add.b d0, d4
        │   0x0049b9f9      d800           add.b d0, d4
        │   0x0049b9fb      d800           add.b d0, d4
        │   0x0049b9fd      d800           add.b d0, d4
        │   0x0049b9ff      d800           add.b d0, d4
        │   0x0049ba01      d800           add.b d0, d4
        │   0x0049ba03      d800           add.b d0, d4
        │   0x0049ba05      d800           add.b d0, d4
        │   0x0049ba07      d800           add.b d0, d4
        │   0x0049ba09      d000           add.b d0, d0
        │   0x0049ba0b      d800           add.b d0, d4
        │   0x0049ba0d      d800           add.b d0, d4
        │   0x0049ba0f      d800           add.b d0, d4
        │   0x0049ba11      d800           add.b d0, d4
        │   0x0049ba13      d800           add.b d0, d4
        │   0x0049ba15      d800           add.b d0, d4
        │   0x0049ba17      d800           add.b d0, d4
        │   0x0049ba19      d800           add.b d0, d4
        │   0x0049ba1b      c800           and.b d0, d4
        │   0x0049ba1d      c8302e00       and.b (a0, d2.l * 8), d4
        │   0x0049ba21      0ab079008192.  eori.l 0x79008192, 0x67(a0, a6.w)
        │   0x0049ba29      08b07900       
        │   0x0049ba2a      b079008192e8   cmp.w 0x8192e8, d0
       ┌──< 0x0049ba30      6626           bne.b 0x49ba58
       ││   0x0049ba32      5d4f           subq.w 0x6, a7
       ││   0x0049ba34      3f00           move.w d0, -(a7)
       ││   0x0049ba36      4eb90048406e   jsr MENUCOM.get_b_id
       ││   0x0049ba3c      544f           addq.w 0x2, a7
       ││   0x0049ba3e      221f           move.l (a7)+, d1
       ││   0x0049ba40      9282           sub.l d2, d1
       ││   0x0049ba42      0c810000ffff   cmpi.l 0xffff, d1
      ┌───< 0x0049ba48      6302           bls.b 0x49ba4c
      │││   0x0049ba4a      4e4f           trap 0xf
      └───> 0x0049ba4c      d282           add.l d2, d1
       ││   0x0049ba4e      3e81           move.w d1, (a7)
      ┌───> 0x0049ba50      4eb90048bfe8   jsr MENU2COM.numeric_char_ac
      ╎││   0x0049ba56      544f           addq.w 0x2, a7
     ┌─└──> 0x0049ba58      6062           bra.b 0x49babc
     │╎ │   0x0049ba5a      5d4f           subq.w 0x6, a7
     │╎ │   0x0049ba5c      3f2e000a       move.w 0xa(a6), -(a7)
     │╎ │   0x0049ba60      4eb90048406e   jsr MENUCOM.get_b_id
     │╎ │   0x0049ba66      544f           addq.w 0x2, a7
     │╎ │   0x0049ba68      201f           move.l (a7)+, d0
     │╎ │   0x0049ba6a      9082           sub.l d2, d0
     │╎ │   0x0049ba6c      0c800000ffff   cmpi.l 0xffff, d0
     │╎┌──< 0x0049ba72      6302           bls.b 0x49ba76
     │╎││   0x0049ba74      4e4f           trap 0xf
     │╎└──> 0x0049ba76      d082           add.l d2, d0
     │╎ │   0x0049ba78      3e80           move.w d0, (a7)
     │└───< 0x0049ba7a      60d4           bra.b 0x49ba50
     │  │   0x0049ba7c      554f           subq.w 0x2, a7
     │  │   0x0049ba7e      4eb900482154   jsr MENUCOM.get_crnt_numeri
     │  │   0x0049ba84      3e1f           move.w (a7)+, d7
     │ ┌──< 0x0049ba86      6f0c           ble.b 0x49ba94
     │ ││   0x0049ba88      3f07           move.w d7, -(a7)
     │ ││   0x0049ba8a      3f07           move.w d7, -(a7)
     │ ││   0x0049ba8c      3f10           move.w (a0), -(a7)
     │ ││   0x0049ba8e      4ebafc96       jsr MENUNUMPADCOM.pen_adjust_box(pc)
     │ ││   0x0049ba92      5c4f           addq.w 0x6, a7
     │┌└──> 0x0049ba94      6026           bra.b 0x49babc
     ││ │   0x0049ba96      4eb9004558e4   jsr CURSORCOM.cursor_off
     ││┌──< 0x0049ba9c      601e           bra.b 0x49babc
     ││││   0x0049ba9e      4eb90047b9c8   jsr CNTLCOM.update_cursor
    ┌─────< 0x0049baa4      6016           bra.b 0x49babc
    ││││└─> 0x0049baa6      3010           move.w (a0), d0
    ││││    0x0049baa8      02401000       andi.w 0x1000, d0
    ││││┌─< 0x0049baac      670e           beq.b 0x49babc
    │││││   0x0049baae      3f10           move.w (a0), -(a7)
    │││││   0x0049bab0      02570fff       andi.w 0xfff, (a7)
    │││││   0x0049bab4      4eb90048bfe8   jsr MENU2COM.numeric_char_ac
    │││││   0x0049baba      544f           addq.w 0x2, a7
    └└└└└─> 0x0049babc      4cdf0187       movem.l (a7)+, d0-d2/d7/a0
            0x0049bac0      4e5e           unlk a6
            0x0049bac2      4e75           rts
            ; CALL XREFS from MENUNUMPADCOM.hit_datepad @ 0x49bca6, 0x49bdac
┌ 416: MENUNUMPADCOM.set_num_month_b ();
│           ; var int32_t var_1h @ a7+0x1
│           ; var int32_t var_2h @ a7+0x2
│           ; var int32_t var_14h @ a7+0x14
│           ; var int32_t var_18h @ a7+0x18
│           ; var int32_t var_1ch @ a7+0x1c
│           0x0049bac4      4e56ff86       link.w a6, 0xff86
│           0x0049bac8      bfd5           cmpa.l (a5), a7
│       ┌─< 0x0049baca      6206           bhi.b 0x49bad2
│       │   0x0049bacc      44fc0002       move.w 0x2, ccr
│       │   0x0049bad0      4e76           trapv
│       └─> 0x0049bad2      defc0064       adda.w 0x64, a7
│           0x0049bad6      48e7fff0       movem.l d0-d7/a0-a3, -(a7)
│           0x0049bada      45f90081932a   lea.l 0x81932a, a2
│           0x0049bae0      47f900819340   lea.l 0x819340, a3
│           0x0049bae6      7409           moveq 0x9, d2
│           0x0049bae8      2a3cffff8000   move.l 0xffff8000, d5
│           0x0049baee      102e0008       move.b 0x8(a6), d0
│           0x0049baf2      0c000044       cmpi.b 0x44, d0
│       ┌─< 0x0049baf6      671a           beq.b 0x49bb12
│       │   0x0049baf8      0c00004e       cmpi.b 0x4e, d0
│      ┌──< 0x0049bafc      660000f2       bne.w 0x49bbf0
│      ││   0x0049bb00      554f           subq.w 0x2, a7
│      ││   0x0049bb02      4eb900478a3a   jsr CONFIGCOM.tvsys
│      ││   0x0049bb08      101f           move.b (a7)+, d0
│      ││   0x0049bb0a      0c000001       cmpi.b 0x1, d0
│     ┌───< 0x0049bb0e      660000e0       bne.w 0x49bbf0
│     ││└─> 0x0049bb12      3013           move.w (a3), d0
│     ││    0x0049bb14      48c0           ext.l d0
│     ││    0x0049bb16      2f00           move.l d0, -(a7)
│     ││    0x0049bb18      3012           move.w (a2), d0
│     ││    0x0049bb1a      48c0           ext.l d0
│     ││    0x0049bb1c      2c00           move.l d0, d6
│     ││┌─> 0x0049bb1e      bc97           cmp.l (a7), d6
│    ┌────< 0x0049bb20      6e0000cc       bgt.w 0x49bbee
│    │││╎   0x0049bb24      2006           move.l d6, d0
│    │││╎   0x0049bb26      5280           addq.l 0x1, d0
│    │││╎   0x0049bb28      3212           move.w (a2), d1
│    │││╎   0x0049bb2a      48c1           ext.l d1
│    │││╎   0x0049bb2c      4481           neg.l d1
│    │││╎   0x0049bb2e      d280           add.l d0, d1
│    │││╎   0x0049bb30      7e01           moveq 0x1, d7
│   ┌─────> 0x0049bb32      0c870000000c   cmpi.l 0xc, d7
│  ┌──────< 0x0049bb38      6302           bls.b 0x49bb3c
│  │╎│││╎   0x0049bb3a      4e4f           trap 0xf
│  └──────> 0x0049bb3c      be82           cmp.l d2, d7
│  ┌──────< 0x0049bb3e      6302           bls.b 0x49bb42
│  │╎│││╎   0x0049bb40      4e4f           trap 0xf
│  └──────> 0x0049bb42      2001           move.l d1, d0
│   ╎│││╎   0x0049bb44      5380           subq.l 0x1, d0
│   ╎│││╎   0x0049bb46      0c800000000b   cmpi.l 0xb, d0
│  ┌──────< 0x0049bb4c      6302           bls.b 0x49bb50
│  │╎│││╎   0x0049bb4e      4e4f           trap 0xf
│  └──────> 0x0049bb50      2800           move.l d0, d4
│   ╎│││╎   0x0049bb52      760a           moveq 0xa, d3
│   ╎│││╎   0x0049bb54      4eb900406a74   jsr fcn.00406a74
│   ╎│││╎   0x0049bb5a      41faf6ee       lea.l 0x49b24a(pc), a0
│   ╎│││╎   0x0049bb5e      41f04800       lea.l (a0, d4.l), a0
│   ╎│││╎   0x0049bb62      1db0780078f2   move.b (a0, d7.l), -0xe(a6, d7.l)
│   ╎│││╎   0x0049bb68      5287           addq.l 0x1, d7
│   ╎│││╎   0x0049bb6a      be82           cmp.l d2, d7
│   └─────< 0x0049bb6c      6fc4           ble.b 0x49bb32
│    │││╎   0x0049bb6e      1d42fff2       move.b d2, -0xe(a6)
│    │││╎   0x0049bb72      9efc0010       suba.w 0x10, a7
│    │││╎   0x0049bb76      7002           moveq 0x2, d0
│    │││╎   0x0049bb78      41ef0001       lea.l 0x1(a7), a0
│    │││╎   0x0049bb7c      43faf78e       lea.l 0x49b30c(pc), a1
│   ┌─────> 0x0049bb80      10d9           move.b (a1)+, (a0)+
│   └─────< 0x0049bb82      51c8fffc       dbra d0, 0x49bb80
│    │││╎   0x0049bb86      4240           clr.w d0
│    │││╎   0x0049bb88      102efff2       move.b -0xe(a6), d0
│    │││╎   0x0049bb8c      720f           moveq 0xf, d1
│    │││╎   0x0049bb8e      5741           subq.w 0x3, d1
│    │││╎   0x0049bb90      b041           cmp.w d1, d0
│   ┌─────< 0x0049bb92      6302           bls.b 0x49bb96
│   ││││╎   0x0049bb94      3001           move.w d1, d0
│   └─────> 0x0049bb96      1ebc0003       move.b 0x3, (a7)
│    │││╎   0x0049bb9a      d117           add.b d0, (a7)
│    │││╎   0x0049bb9c      5300           subq.b 0x1, d0
│   ┌─────< 0x0049bb9e      650a           bcs.b 0x49bbaa
│   ││││╎   0x0049bba0      43eefff3       lea.l -0xd(a6), a1
│  ┌──────> 0x0049bba4      10d9           move.b (a1)+, (a0)+
│  └──────< 0x0049bba6      51c8fffc       dbra d0, 0x49bba4
│   └─────> 0x0049bbaa      9efc000c       suba.w 0xc, a7
│    │││╎   0x0049bbae      2f2f000c       move.l 0xc(a7), -(a7)
│    │││╎   0x0049bbb2      2f6f00140004   move.l 0x14(a7), 0x4(a7)
│    │││╎   0x0049bbb8      2f6f00180008   move.l 0x18(a7), 0x8(a7)
│    │││╎   0x0049bbbe      2f6f001c000c   move.l 0x1c(a7), 0xc(a7)
│    │││╎   0x0049bbc4      9c85           sub.l d5, d6
│    │││╎   0x0049bbc6      0c860000ffff   cmpi.l 0xffff, d6
│   ┌─────< 0x0049bbcc      6302           bls.b 0x49bbd0
│   ││││╎   0x0049bbce      4e4f           trap 0xf
│   └─────> 0x0049bbd0      dc85           add.l d5, d6
│    │││╎   0x0049bbd2      3f06           move.w d6, -(a7)
│    │││╎   0x0049bbd4      486f0002       pea.l 0x2(a7)
│    │││╎   0x0049bbd8      4267           clr.w -(a7)
│    │││╎   0x0049bbda      3f3c0010       move.w 0x10, -(a7)
│    │││╎   0x0049bbde      4eb900483da2   jsr MENUCOM.set_boxtext
│    │││╎   0x0049bbe4      defc002a       adda.w 0x2a, a7
│    │││╎   0x0049bbe8      5286           addq.l 0x1, d6
│    │││└─< 0x0049bbea      6800ff32       bvc.w 0x49bb1e
│    └──┌─< 0x0049bbee      606a           bra.b 0x49bc5a
│     └└──> 0x0049bbf0      3013           move.w (a3), d0
│       │   0x0049bbf2      48c0           ext.l d0
│       │   0x0049bbf4      2f00           move.l d0, -(a7)
│       │   0x0049bbf6      3012           move.w (a2), d0
│       │   0x0049bbf8      48c0           ext.l d0
│       │   0x0049bbfa      2c00           move.l d0, d6
│      ┌──> 0x0049bbfc      bc97           cmp.l (a7), d6
│     ┌───< 0x0049bbfe      6e5a           bgt.b 0x49bc5a
│     │╎│   0x0049bc00      3012           move.w (a2), d0
│     │╎│   0x0049bc02      48c0           ext.l d0
│     │╎│   0x0049bc04      4480           neg.l d0
│     │╎│   0x0049bc06      d086           add.l d6, d0
│     │╎│   0x0049bc08      0c800000000b   cmpi.l 0xb, d0
│    ┌────< 0x0049bc0e      6302           bls.b 0x49bc12
│    ││╎│   0x0049bc10      4e4f           trap 0xf
│    └────> 0x0049bc12      2800           move.l d0, d4
│     │╎│   0x0049bc14      7603           moveq 0x3, d3
│     │╎│   0x0049bc16      4eb900406a74   jsr fcn.00406a74
│     │╎│   0x0049bc1c      41faf6a4       lea.l 0x49b2c2(pc), a0
│     │╎│   0x0049bc20      594f           subq.w 0x4, a7
│     │╎│   0x0049bc22      1eb04800       move.b (a0, d4.l), (a7)
│     │╎│   0x0049bc26      1f7048010001   move.b 0x1(a0, d4.l), 0x1(a7)
│     │╎│   0x0049bc2c      1f7048020002   move.b 0x2(a0, d4.l), 0x2(a7)
│     │╎│   0x0049bc32      9c85           sub.l d5, d6
│     │╎│   0x0049bc34      0c860000ffff   cmpi.l 0xffff, d6
│    ┌────< 0x0049bc3a      6302           bls.b 0x49bc3e
│    ││╎│   0x0049bc3c      4e4f           trap 0xf
│    └────> 0x0049bc3e      dc85           add.l d5, d6
│     │╎│   0x0049bc40      3f06           move.w d6, -(a7)
│     │╎│   0x0049bc42      486f0002       pea.l 0x2(a7)
│     │╎│   0x0049bc46      4267           clr.w -(a7)
│     │╎│   0x0049bc48      3f3c0002       move.w 0x2, -(a7)
│     │╎│   0x0049bc4c      4eb900483da2   jsr MENUCOM.set_boxtext
│     │╎│   0x0049bc52      defc000e       adda.w 0xe, a7
│     │╎│   0x0049bc56      5286           addq.l 0x1, d6
│     │└──< 0x0049bc58      68a2           bvc.b 0x49bbfc
│     └─└─> 0x0049bc5a      584f           addq.w 0x4, a7
│           0x0049bc5c      4cdf0fff       movem.l (a7)+, d0-d7/a0-a3
│           0x0049bc60      4e5e           unlk a6
└           0x0049bc62      4e75           rts
┌ 342: MENUNUMPADCOM.hit_datepad ();
│           0x0049bc64      4e56fed4       link.w a6, 0xfed4
│           0x0049bc68      bfd5           cmpa.l (a5), a7
│       ┌─< 0x0049bc6a      6206           bhi.b 0x49bc72
│       │   0x0049bc6c      44fc0002       move.w 0x2, ccr
│       │   0x0049bc70      4e76           trapv
│       └─> 0x0049bc72      defc0028       adda.w 0x28, a7
│           0x0049bc76      48e7f180       movem.l d0-d3/d7/a0, -(a7)
│           0x0049bc7a      41eefefc       lea.l -0x104(a6), a0
│           0x0049bc7e      7601           moveq 0x1, d3
│           0x0049bc80      4850           pea.l (a0)
│           0x0049bc82      4eb90048b2ba   jsr MENU2COM.get_date_phase
│           0x0049bc88      584f           addq.w 0x4, a7
│           0x0049bc8a      302e0008       move.w 0x8(a6), d0
│           0x0049bc8e      b043           cmp.w d3, d0
│       ┌─< 0x0049bc90      6704           beq.b 0x49bc96
│      ┌──< 0x0049bc92      600000ec       bra.w 0x49bd80
│      │└─> 0x0049bc96      7e3f           moveq 0x3f, d7
│      │    0x0049bc98      322e000a       move.w 0xa(a6), d1
│      │    0x0049bc9c      b2790081934a   cmp.w 0x81934a, d1
│      │┌─< 0x0049bca2      660c           bne.b 0x49bcb0
│      ││   0x0049bca4      1f10           move.b (a0), -(a7)
│      ││   0x0049bca6      4ebafe1c       jsr MENUNUMPADCOM.set_num_month_b(pc)
│      ││   0x0049bcaa      544f           addq.w 0x2, a7
│     ┌───< 0x0049bcac      600000c6       bra.w 0x49bd74
│     ││└─> 0x0049bcb0      b27900819324   cmp.w 0x819324, d1
│     ││┌─< 0x0049bcb6      6608           bne.b 0x49bcc0
│     │││   0x0049bcb8      3e3c0414       move.w 0x414, d7
│    ┌────< 0x0049bcbc      600000b6       bra.w 0x49bd74
│    │││└─> 0x0049bcc0      b27900819326   cmp.w 0x819326, d1
│    │││┌─< 0x0049bcc6      6606           bne.b 0x49bcce
│    ││││   0x0049bcc8      7e2e           moveq 0x2e, d7
│   ┌─────< 0x0049bcca      600000a8       bra.w 0x49bd74
│   ││││└─> 0x0049bcce      b27900819328   cmp.w 0x819328, d1
│   ││││┌─< 0x0049bcd4      6608           bne.b 0x49bcde
│   │││││   0x0049bcd6      3e3c0418       move.w 0x418, d7
│  ┌──────< 0x0049bcda      60000098       bra.w 0x49bd74
│  │││││└─> 0x0049bcde      b27900819346   cmp.w 0x819346, d1
│  │││││┌─< 0x0049bce4      6608           bne.b 0x49bcee
│  ││││││   0x0049bce6      3e3c041a       move.w 0x41a, d7
│ ┌───────< 0x0049bcea      60000088       bra.w 0x49bd74
│ ││││││└─> 0x0049bcee      b27900819348   cmp.w 0x819348, d1
│ ││││││┌─< 0x0049bcf4      6606           bne.b 0x49bcfc
│ │││││││   0x0049bcf6      3e3c0416       move.w 0x416, d7
│ ────────< 0x0049bcfa      6078           bra.b 0x49bd74
│ ││││││└─> 0x0049bcfc      b27900819342   cmp.w 0x819342, d1
│ ││││││┌─< 0x0049bd02      6606           bne.b 0x49bd0a
│ │││││││   0x0049bd04      3e3c0504       move.w 0x504, d7
│ ────────< 0x0049bd08      606a           bra.b 0x49bd74
│ ││││││└─> 0x0049bd0a      0c410039       cmpi.w 0x39, d1
│ ││││││┌─< 0x0049bd0e      6604           bne.b 0x49bd14
│ │││││││   0x0049bd10      7e0d           moveq 0xd, d7
│ ────────< 0x0049bd12      6060           bra.b 0x49bd74
│ ││││││└─> 0x0049bd14      1410           move.b (a0), d2
│ ││││││    0x0049bd16      0c020044       cmpi.b 0x44, d2
│ ││││││┌─< 0x0049bd1a      6714           beq.b 0x49bd30
│ │││││││   0x0049bd1c      0c02004e       cmpi.b 0x4e, d2
│ ────────< 0x0049bd20      663c           bne.b 0x49bd5e
│ │││││││   0x0049bd22      554f           subq.w 0x2, a7
│ │││││││   0x0049bd24      4eb900478a3a   jsr CONFIGCOM.tvsys
│ │││││││   0x0049bd2a      141f           move.b (a7)+, d2
│ │││││││   0x0049bd2c      b403           cmp.b d3, d2
│ ────────< 0x0049bd2e      662e           bne.b 0x49bd5e
│ ││││││└─> 0x0049bd30      48c1           ext.l d1
│ ││││││    0x0049bd32      34390081932a   move.w 0x81932a, d2
│ ││││││    0x0049bd38      48c2           ext.l d2
│ ││││││    0x0049bd3a      4482           neg.l d2
│ ││││││    0x0049bd3c      d481           add.l d1, d2
│ ││││││    0x0049bd3e      068200000680   addi.l 0x680, d2
│ ││││││    0x0049bd44      0482ffff8000   subi.l 0xffff8000, d2
│ ││││││    0x0049bd4a      0c820000ffff   cmpi.l 0xffff, d2
│ ││││││┌─< 0x0049bd50      6302           bls.b 0x49bd54
│ │││││││   0x0049bd52      4e4f           trap 0xf
│ ││││││└─> 0x0049bd54      0682ffff8000   addi.l 0xffff8000, d2
│ ││││││    0x0049bd5a      3e02           move.w d2, d7
│ ││││││┌─< 0x0049bd5c      6016           bra.b 0x49bd74
│ ────────> 0x0049bd5e      3f01           move.w d1, -(a7)
│ │││││││   0x0049bd60      486eff00       pea.l -0x100(a6)
│ │││││││   0x0049bd64      4eb900483f6a   jsr MENUCOM.get_boxtext
│ │││││││   0x0049bd6a      5c4f           addq.w 0x6, a7
│ │││││││   0x0049bd6c      4282           clr.l d2
│ │││││││   0x0049bd6e      142eff01       move.b -0xff(a6), d2
│ │││││││   0x0049bd72      3e02           move.w d2, d7
│ └└└└└─└─> 0x0049bd74      3f07           move.w d7, -(a7)
│      │    0x0049bd76      4eb90048b796   jsr MENU2COM.date_char_actio
│      │    0x0049bd7c      544f           addq.w 0x2, a7
│      │┌─< 0x0049bd7e      6016           bra.b 0x49bd96
│      └──> 0x0049bd80      3200           move.w d0, d1
│       │   0x0049bd82      02411000       andi.w 0x1000, d1
│      ┌──< 0x0049bd86      670e           beq.b 0x49bd96
│      ││   0x0049bd88      3f00           move.w d0, -(a7)
│      ││   0x0049bd8a      02570fff       andi.w 0xfff, (a7)
│      ││   0x0049bd8e      4eb90048b796   jsr MENU2COM.date_char_actio
│      ││   0x0049bd94      544f           addq.w 0x2, a7
│      └└─> 0x0049bd96      486efefd       pea.l -0x103(a6)
│           0x0049bd9a      4eb90048b2ba   jsr MENU2COM.get_date_phase
│           0x0049bda0      584f           addq.w 0x4, a7
│           0x0049bda2      102efefd       move.b -0x103(a6), d0
│           0x0049bda6      b010           cmp.b (a0), d0
│       ┌─< 0x0049bda8      6708           beq.b 0x49bdb2
│       │   0x0049bdaa      1f00           move.b d0, -(a7)
│       │   0x0049bdac      4ebafd16       jsr MENUNUMPADCOM.set_num_month_b(pc)
│       │   0x0049bdb0      544f           addq.w 0x2, a7
│       └─> 0x0049bdb2      4cdf018f       movem.l (a7)+, d0-d3/d7/a0
│           0x0049bdb6      4e5e           unlk a6
└           0x0049bdb8      4e75           rts
┌ 76: MENUNUMPADCOM.hit_joystick ();
│           0x0049bdba      4e56fff0       link.w a6, 0xfff0
│           0x0049bdbe      bfd5           cmpa.l (a5), a7
│       ┌─< 0x0049bdc0      6206           bhi.b 0x49bdc8
│       │   0x0049bdc2      44fc0002       move.w 0x2, ccr
│       │   0x0049bdc6      4e76           trapv
│       └─> 0x0049bdc8      defc0010       adda.w 0x10, a7
│           0x0049bdcc      48e78000       movem.l d0, -(a7)
│           0x0049bdd0      302e0008       move.w 0x8(a6), d0
│           0x0049bdd4      0c400001       cmpi.w 0x1, d0
│       ┌─< 0x0049bdd8      6624           bne.b 0x49bdfe
│       │   0x0049bdda      5d4f           subq.w 0x6, a7
│       │   0x0049bddc      3f2e000a       move.w 0xa(a6), -(a7)
│       │   0x0049bde0      4eb90048406e   jsr MENUCOM.get_b_id
│       │   0x0049bde6      544f           addq.w 0x2, a7
│       │   0x0049bde8      102f0003       move.b 0x3(a7), d0
│       │   0x0049bdec      4880           ext.w d0
│       │   0x0049bdee      41bc0008       chk.w 0x8, d0
│       │   0x0049bdf2      584f           addq.w 0x4, a7
│       │   0x0049bdf4      1e80           move.b d0, (a7)
│       │   0x0049bdf6      4eb90048cee4   jsr MENU2COM.numeric_joy_act
│       │   0x0049bdfc      544f           addq.w 0x2, a7
│       └─> 0x0049bdfe      4cdf0001       movem.l (a7)+, d0
│           0x0049be02      4e5e           unlk a6
└           0x0049be04      4e75           rts
            ; CALL XREF from MENUGRIDCOM.hit_update_grid @ 0x501170
            ; CALL XREF from MENUGRAPHICCOM.hit_value @ 0x7343e8
┌ 30: MENUNUMPADCOM.inv_numpad_pen_ ();
│           0x0049be06      4e56fffc       link.w a6, 0xfffc
│           0x0049be0a      bfd5           cmpa.l (a5), a7
│       ┌─< 0x0049be0c      6206           bhi.b 0x49be14
│       │   0x0049be0e      44fc0002       move.w 0x2, ccr
│       │   0x0049be12      4e76           trapv
│       └─> 0x0049be14      defc0004       adda.w 0x4, a7
│           0x0049be18      13ee00080081.  move.b 0x8(a6), 0x8192df.l
│           0x0049be20      4e5e           unlk a6
└           0x0049be22      4e75           rts
┌ 156: MENUNUMPADCOM.move_box_alt ();
│           0x0049be24      4e56ffd6       link.w a6, 0xffd6
│           0x0049be28      bfd5           cmpa.l (a5), a7
│       ┌─< 0x0049be2a      6206           bhi.b 0x49be32
│       │   0x0049be2c      44fc0002       move.w 0x2, ccr
│       │   0x0049be30      4e76           trapv
│       └─> 0x0049be32      defc0022       adda.w 0x22, a7
│           0x0049be36      48e7e0c0       movem.l d0-d2/a0-a1, -(a7)
│           0x0049be3a      41eefff8       lea.l -0x8(a6), a0
│           0x0049be3e      43ee0008       lea.l 0x8(a6), a1
│           0x0049be42      243cffff8000   move.l 0xffff8000, d2
│           0x0049be48      514f           subq.w 0x8, a7
│           0x0049be4a      3f11           move.w (a1), -(a7)
│           0x0049be4c      4eb9004811d6   jsr MENUCOM.get_boxarea
│           0x0049be52      544f           addq.w 0x2, a7
│           0x0049be54      209f           move.l (a7)+, (a0)
│           0x0049be56      2d5ffffc       move.l (a7)+, -0x4(a6)
│           0x0049be5a      3010           move.w (a0), d0
│           0x0049be5c      48c0           ext.l d0
│           0x0049be5e      322c000a       move.w 0xa(a4), d1
│           0x0049be62      48c1           ext.l d1
│           0x0049be64      d280           add.l d0, d1
│           0x0049be66      9282           sub.l d2, d1
│           0x0049be68      0c810000ffff   cmpi.l 0xffff, d1
│       ┌─< 0x0049be6e      6302           bls.b 0x49be72
│       │   0x0049be70      4e4f           trap 0xf
│       └─> 0x0049be72      d282           add.l d2, d1
│           0x0049be74      3081           move.w d1, (a0)
│           0x0049be76      302efffa       move.w -0x6(a6), d0
│           0x0049be7a      48c0           ext.l d0
│           0x0049be7c      322c000c       move.w 0xc(a4), d1
│           0x0049be80      48c1           ext.l d1
│           0x0049be82      d280           add.l d0, d1
│           0x0049be84      9282           sub.l d2, d1
│           0x0049be86      0c810000ffff   cmpi.l 0xffff, d1
│       ┌─< 0x0049be8c      6302           bls.b 0x49be90
│       │   0x0049be8e      4e4f           trap 0xf
│       └─> 0x0049be90      d282           add.l d2, d1
│           0x0049be92      3d41fffa       move.w d1, -0x6(a6)
│           0x0049be96      3f11           move.w (a1), -(a7)
│           0x0049be98      2f2efffc       move.l -0x4(a6), -(a7)
│           0x0049be9c      2f10           move.l (a0), -(a7)
│           0x0049be9e      4eb9004841ca   jsr MENUCOM.set_box_area
│           0x0049bea4      504f           addq.w 0x8, a7
│           0x0049bea6      3e91           move.w (a1), (a7)
│           0x0049bea8      1f3c0012       move.b 0x12, -(a7)
│           0x0049beac      1f2c0008       move.b 0x8(a4), -(a7)
│           0x0049beb0      4eb900486936   jsr MENUCOM.set_menu_flag
│           0x0049beb6      5c4f           addq.w 0x6, a7
│           0x0049beb8      4cdf0307       movem.l (a7)+, d0-d2/a0-a1
│           0x0049bebc      4e5e           unlk a6
└           0x0049bebe      4e75           rts
            ; CALL XREF from PALETCOM @ +0x2de4
            ; CALL XREF from MENULIBCOM.hit_num_field @ 0x7513cc
┌ 548: MENUNUMPADCOM.move_numpad ();
│           0x0049bec0      4e56fff2       link.w a6, 0xfff2
│           0x0049bec4      bfd5           cmpa.l (a5), a7
│       ┌─< 0x0049bec6      6206           bhi.b 0x49bece
│       │   0x0049bec8      44fc0002       move.w 0x2, ccr
│       │   0x0049becc      4e76           trapv
│       └─> 0x0049bece      defc000e       adda.w 0xe, a7
│           0x0049bed2      48e70088       movem.l a0/a4, -(a7)
│           0x0049bed6      41faff4c       lea.l MENUNUMPADCOM.move_box_alt(pc), a0
│           0x0049beda      3f3c0036       move.w 0x36, -(a7)
│           0x0049bede      284e           movea.l a6, a4
│           0x0049bee0      4e90           jsr (a0)                    ; fcn.00000009
│           0x0049bee2      3ebc0037       move.w 0x37, (a7)
│           0x0049bee6      284e           movea.l a6, a4
│           0x0049bee8      4e90           jsr (a0)                    ; fcn.00000009
│           0x0049beea      3ebc0038       move.w 0x38, (a7)
│           0x0049beee      284e           movea.l a6, a4
│           0x0049bef0      4e90           jsr (a0)                    ; fcn.00000009
│           0x0049bef2      3eb90081930c   move.w 0x81930c, (a7)
│           0x0049bef8      284e           movea.l a6, a4
│           0x0049befa      4e90           jsr (a0)                    ; fcn.00000009
│           0x0049befc      3eb90081930e   move.w 0x81930e, (a7)
│           0x0049bf02      284e           movea.l a6, a4
│           0x0049bf04      4e90           jsr (a0)                    ; fcn.00000009
│           0x0049bf06      3eb900819310   move.w 0x819310, (a7)
│           0x0049bf0c      284e           movea.l a6, a4
│           0x0049bf0e      4e90           jsr (a0)                    ; fcn.00000009
│           0x0049bf10      3eb900819306   move.w 0x819306, (a7)
│           0x0049bf16      284e           movea.l a6, a4
│           0x0049bf18      4e90           jsr (a0)                    ; fcn.00000009
│           0x0049bf1a      3eb900819308   move.w 0x819308, (a7)
│           0x0049bf20      284e           movea.l a6, a4
│           0x0049bf22      4e90           jsr (a0)                    ; fcn.00000009
│           0x0049bf24      3eb90081930a   move.w 0x81930a, (a7)
│           0x0049bf2a      284e           movea.l a6, a4
│           0x0049bf2c      4e90           jsr (a0)                    ; fcn.00000009
│           0x0049bf2e      3eb900819300   move.w 0x819300, (a7)
│           0x0049bf34      284e           movea.l a6, a4
│           0x0049bf36      4e90           jsr (a0)                    ; fcn.00000009
│           0x0049bf38      3eb900819302   move.w 0x819302, (a7)
│           0x0049bf3e      284e           movea.l a6, a4
│           0x0049bf40      4e90           jsr (a0)                    ; fcn.00000009
│           0x0049bf42      3eb900819304   move.w 0x819304, (a7)
│           0x0049bf48      284e           movea.l a6, a4
│           0x0049bf4a      4e90           jsr (a0)                    ; fcn.00000009
│           0x0049bf4c      3eb9008192f4   move.w 0x8192f4, (a7)
│           0x0049bf52      284e           movea.l a6, a4
│           0x0049bf54      4e90           jsr (a0)                    ; fcn.00000009
│           0x0049bf56      3eb9008192fa   move.w 0x8192fa, (a7)
│           0x0049bf5c      284e           movea.l a6, a4
│           0x0049bf5e      4e90           jsr (a0)                    ; fcn.00000009
│           0x0049bf60      3eb9008192f6   move.w 0x8192f6, (a7)
│           0x0049bf66      284e           movea.l a6, a4
│           0x0049bf68      4e90           jsr (a0)                    ; fcn.00000009
│           0x0049bf6a      3eb9008192f8   move.w 0x8192f8, (a7)
│           0x0049bf70      284e           movea.l a6, a4
│           0x0049bf72      4e90           jsr (a0)                    ; fcn.00000009
│           0x0049bf74      3eb9008192fe   move.w 0x8192fe, (a7)
│           0x0049bf7a      284e           movea.l a6, a4
│           0x0049bf7c      4e90           jsr (a0)                    ; fcn.00000009
│           0x0049bf7e      3eb9008192f0   move.w 0x8192f0, (a7)
│           0x0049bf84      284e           movea.l a6, a4
│           0x0049bf86      4e90           jsr (a0)                    ; fcn.00000009
│           0x0049bf88      3eb9008192f2   move.w 0x8192f2, (a7)
│           0x0049bf8e      284e           movea.l a6, a4
│           0x0049bf90      4e90           jsr (a0)                    ; fcn.00000009
│           0x0049bf92      3eb9008192ec   move.w 0x8192ec, (a7)
│           0x0049bf98      284e           movea.l a6, a4
│           0x0049bf9a      4e90           jsr (a0)                    ; fcn.00000009
│           0x0049bf9c      3eb9008192ee   move.w 0x8192ee, (a7)
│           0x0049bfa2      284e           movea.l a6, a4
│           0x0049bfa4      4e90           jsr (a0)                    ; fcn.00000009
│           0x0049bfa6      3eb900819312   move.w 0x819312, (a7)
│           0x0049bfac      284e           movea.l a6, a4
│           0x0049bfae      4e90           jsr (a0)                    ; fcn.00000009
│           0x0049bfb0      3eb9008192e6   move.w 0x8192e6, (a7)
│           0x0049bfb6      284e           movea.l a6, a4
│           0x0049bfb8      4e90           jsr (a0)                    ; fcn.00000009
│           0x0049bfba      3eb9008192e8   move.w 0x8192e8, (a7)
│           0x0049bfc0      284e           movea.l a6, a4
│           0x0049bfc2      4e90           jsr (a0)                    ; fcn.00000009
│           0x0049bfc4      3eb900819324   move.w 0x819324, (a7)
│           0x0049bfca      284e           movea.l a6, a4
│           0x0049bfcc      4e90           jsr (a0)                    ; fcn.00000009
│           0x0049bfce      3eb900819326   move.w 0x819326, (a7)
│           0x0049bfd4      284e           movea.l a6, a4
│           0x0049bfd6      4e90           jsr (a0)                    ; fcn.00000009
│           0x0049bfd8      3eb900819328   move.w 0x819328, (a7)
│           0x0049bfde      284e           movea.l a6, a4
│           0x0049bfe0      4e90           jsr (a0)                    ; fcn.00000009
│           0x0049bfe2      3ebc0039       move.w 0x39, (a7)
│           0x0049bfe6      284e           movea.l a6, a4
│           0x0049bfe8      4e90           jsr (a0)                    ; fcn.00000009
│           0x0049bfea      3eb90081932a   move.w 0x81932a, (a7)
│           0x0049bff0      284e           movea.l a6, a4
│           0x0049bff2      4e90           jsr (a0)                    ; fcn.00000009
│           0x0049bff4      3eb90081932c   move.w 0x81932c, (a7)
│           0x0049bffa      284e           movea.l a6, a4
│           0x0049bffc      4e90           jsr (a0)                    ; fcn.00000009
│           0x0049bffe      3eb90081932e   move.w 0x81932e, (a7)
│           0x0049c004      284e           movea.l a6, a4
│           0x0049c006      4e90           jsr (a0)                    ; fcn.00000009
│           0x0049c008      3eb900819330   move.w 0x819330, (a7)
│           0x0049c00e      284e           movea.l a6, a4
│           0x0049c010      4e90           jsr (a0)                    ; fcn.00000009
│           0x0049c012      3eb900819332   move.w 0x819332, (a7)
│           0x0049c018      284e           movea.l a6, a4
│           0x0049c01a      4e90           jsr (a0)                    ; fcn.00000009
│           0x0049c01c      3eb900819334   move.w 0x819334, (a7)
│           0x0049c022      284e           movea.l a6, a4
│           0x0049c024      4e90           jsr (a0)                    ; fcn.00000009
│           0x0049c026      3eb900819336   move.w 0x819336, (a7)
│           0x0049c02c      284e           movea.l a6, a4
│           0x0049c02e      4e90           jsr (a0)                    ; fcn.00000009
│           0x0049c030      3eb900819338   move.w 0x819338, (a7)
│           0x0049c036      284e           movea.l a6, a4
│           0x0049c038      4e90           jsr (a0)                    ; fcn.00000009
│           0x0049c03a      3eb90081933a   move.w 0x81933a, (a7)
│           0x0049c040      284e           movea.l a6, a4
│           0x0049c042      4e90           jsr (a0)                    ; fcn.00000009
│           0x0049c044      3eb90081933c   move.w 0x81933c, (a7)
│           0x0049c04a      284e           movea.l a6, a4
│           0x0049c04c      4e90           jsr (a0)                    ; fcn.00000009
│           0x0049c04e      3eb90081933e   move.w 0x81933e, (a7)
│           0x0049c054      284e           movea.l a6, a4
│           0x0049c056      4e90           jsr (a0)                    ; fcn.00000009
│           0x0049c058      3eb900819340   move.w 0x819340, (a7)
│           0x0049c05e      284e           movea.l a6, a4
│           0x0049c060      4e90           jsr (a0)                    ; fcn.00000009
│           0x0049c062      3eb900819342   move.w 0x819342, (a7)
│           0x0049c068      284e           movea.l a6, a4
│           0x0049c06a      4e90           jsr (a0)                    ; fcn.00000009
│           0x0049c06c      3eb900819344   move.w 0x819344, (a7)
│           0x0049c072      284e           movea.l a6, a4
│           0x0049c074      4e90           jsr (a0)                    ; fcn.00000009
│           0x0049c076      3eb900819346   move.w 0x819346, (a7)
│           0x0049c07c      284e           movea.l a6, a4
│           0x0049c07e      4e90           jsr (a0)                    ; fcn.00000009
│           0x0049c080      3eb900819348   move.w 0x819348, (a7)
│           0x0049c086      284e           movea.l a6, a4
│           0x0049c088      4e90           jsr (a0)                    ; fcn.00000009
│           0x0049c08a      3eb900819314   move.w 0x819314, (a7)
│           0x0049c090      284e           movea.l a6, a4
│           0x0049c092      4e90           jsr (a0)                    ; fcn.00000009
│           0x0049c094      3eb900819316   move.w 0x819316, (a7)
│           0x0049c09a      284e           movea.l a6, a4
│           0x0049c09c      4e90           jsr (a0)                    ; fcn.00000009
│           0x0049c09e      3eb900819318   move.w 0x819318, (a7)
│           0x0049c0a4      284e           movea.l a6, a4
│           0x0049c0a6      4e90           jsr (a0)                    ; fcn.00000009
│           0x0049c0a8      3eb90081931a   move.w 0x81931a, (a7)
│           0x0049c0ae      284e           movea.l a6, a4
│           0x0049c0b0      4e90           jsr (a0)                    ; fcn.00000009
│           0x0049c0b2      3eb90081931c   move.w 0x81931c, (a7)
│           0x0049c0b8      284e           movea.l a6, a4
│           0x0049c0ba      4e90           jsr (a0)                    ; fcn.00000009
│           0x0049c0bc      3eb90081931e   move.w 0x81931e, (a7)
│           0x0049c0c2      284e           movea.l a6, a4
│           0x0049c0c4      4e90           jsr (a0)                    ; fcn.00000009
│           0x0049c0c6      3eb900819320   move.w 0x819320, (a7)
│           0x0049c0cc      284e           movea.l a6, a4
│           0x0049c0ce      4e90           jsr (a0)                    ; fcn.00000009
│           0x0049c0d0      3eb900819322   move.w 0x819322, (a7)
│           0x0049c0d6      284e           movea.l a6, a4
│           0x0049c0d8      4e90           jsr (a0)                    ; fcn.00000009
│           0x0049c0da      544f           addq.w 0x2, a7
│           0x0049c0dc      4cdf1100       movem.l (a7)+, a0/a4
│           0x0049c0e0      4e5e           unlk a6
└           0x0049c0e2      4e75           rts
            ; CALL XREF from MENU2COM.setup_numpad_fo @ 0x48e344
┌ 108: MENUNUMPADCOM.set_numpad ();
│           0x0049c0e4      4e56ffde       link.w a6, 0xffde
│           0x0049c0e8      bfd5           cmpa.l (a5), a7
│       ┌─< 0x0049c0ea      6206           bhi.b 0x49c0f2
│       │   0x0049c0ec      44fc0002       move.w 0x2, ccr
│       │   0x0049c0f0      4e76           trapv
│       └─> 0x0049c0f2      defc0022       adda.w 0x22, a7
│           0x0049c0f6      48e7e0e0       movem.l d0-d2/a0-a2, -(a7)
│           0x0049c0fa      41f900483776   lea.l MENUCOM.swtch_box, a0
│           0x0049c100      43f9008192e6   lea.l 0x8192e6, a1
│           0x0049c106      45f9008192e8   lea.l 0x8192e8, a2
│           0x0049c10c      7201           moveq 0x1, d1
│           0x0049c10e      7402           moveq 0x2, d2
│           0x0049c110      102e000a       move.b 0xa(a6), d0
│           0x0049c114      b002           cmp.b d2, d0
│       ┌─< 0x0049c116      6708           beq.b 0x49c120
│       │   0x0049c118      0c000003       cmpi.b 0x3, d0
│      ┌──< 0x0049c11c      6710           beq.b 0x49c12e
│     ┌───< 0x0049c11e      6054           bra.b fcn.0049c174
│     ││└─> 0x0049c120      3f39008192e4   move.w 0x8192e4, -(a7)
│     ││    ; CODE XREF from fcn.0049c174 @ 0x49c17a
│     ││┌─> 0x0049c126      1f01           move.b d1, -(a7)
│     ││╎   0x0049c128      4e90           jsr (a0)                    ; fcn.00000009
│     ││╎   0x0049c12a      584f           addq.w 0x4, a7
│    ┌────< 0x0049c12c      604e           bra.b loc.0049c17c
│    ││└──> 0x0049c12e      3f39008192e2   move.w 0x8192e2, -(a7)
│    ││ ╎   0x0049c134      1f01           move.b d1, -(a7)
│    ││ ╎   0x0049c136      4e90           jsr (a0)                    ; fcn.00000009
│    ││ ╎   0x0049c138      584f           addq.w 0x4, a7
│    ││ ╎   0x0049c13a      102e0008       move.b 0x8(a6), d0
│    ││ ╎   0x0049c13e      4880           ext.w d0
│    ││ ╎   0x0049c140      b042           cmp.w d2, d0
│    ││┌──< 0x0049c142      6302           bls.b 0x49c146
│    │││╎   0x0049c144      4e4e           trap 0xe
│    ││└──> 0x0049c146      d040           add.w d0, d0
│    ││ ╎   0x0049c148      303b0006       move.w 0x49c150(pc, d0.w), d0
└    ││ ╎   0x0049c14c      4efb0002       jmp 0x49c150(pc, d0.w)
     ││ ╎   0x0049c150      00060010       ori.b 0x10, d6
     ││ ╎   0x0049c154      001e3f11       ori.b 0x11, (a6)+
     ││┌──> 0x0049c158      1f01           move.b d1, -(a7)
    ┌─────> 0x0049c15a      4e90           jsr (a0)                    ; fcn.00000009
    ╎││╎╎   0x0049c15c      584f           addq.w 0x4, a7
   ┌──────< 0x0049c15e      6012           bra.b 0x49c172
   │╎││╎╎   0x0049c160      3f11           move.w (a1), -(a7)
   │╎││╎╎   0x0049c162      4227           clr.b -(a7)
   │╎││╎╎   0x0049c164      4e90           jsr (a0)                    ; fcn.00000009
   │╎││╎╎   0x0049c166      544f           addq.w 0x2, a7
   │╎││╎╎   0x0049c168      3e92           move.w (a2), (a7)
   │╎││╎╎   0x0049c16a      4227           clr.b -(a7)
   │└─────< 0x0049c16c      60ec           bra.b 0x49c15a
   │ ││╎╎   0x0049c16e      3f12           move.w (a2), -(a7)
   │ ││└──< 0x0049c170      60e6           bra.b 0x49c158
   └───┌──< 0x0049c172      6008           bra.b loc.0049c17c
     │││╎   ; CODE XREF from MENUNUMPADCOM.set_numpad @ 0x49c11e
├ 8: fcn.0049c174 ();
│    │└───> 0x0049c174      3f39008192e0   move.w 0x8192e0, -(a7)
└    │ │└─< 0x0049c17a      60aa           bra.b 0x49c126              ; MENUNUMPADCOM.set_numpad+0x42
     │ │    ; CODE XREF from MENUNUMPADCOM.set_numpad @ 0x49c12c
├ 8: loc.0049c17c ();
│    └─└──> 0x0049c17c      4cdf0707       movem.l (a7)+, d0-d2/a0-a2
│           0x0049c180      4e5e           unlk a6
└           0x0049c182      4e75           rts
            ; CALL XREFS from MENU2COM.numeric_char_ac @ 0x48c38e, 0x48c428, 0x48c9cc
┌ 88: MENUNUMPADCOM.get_pad_num_con ();
│           0x0049c184      4e56fff4       link.w a6, 0xfff4
│           0x0049c188      bfd5           cmpa.l (a5), a7
│       ┌─< 0x0049c18a      6206           bhi.b 0x49c192
│       │   0x0049c18c      44fc0002       move.w 0x2, ccr
│       │   0x0049c190      4e76           trapv
│       └─> 0x0049c192      defc000c       adda.w 0xc, a7
│           0x0049c196      48e70080       movem.l a0, -(a7)
│           0x0049c19a      41ee0008       lea.l 0x8(a6), a0
│           0x0049c19e      554f           subq.w 0x2, a7
│           0x0049c1a0      3f39008192e6   move.w 0x8192e6, -(a7)
│           0x0049c1a6      4eb900480fc2   jsr MENUCOM.get_boxon
│           0x0049c1ac      544f           addq.w 0x2, a7
│           0x0049c1ae      4a1f           tst.b (a7)+
│       ┌─< 0x0049c1b0      6704           beq.b 0x49c1b6
│       │   0x0049c1b2      4210           clr.b (a0)
│      ┌──< 0x0049c1b4      601e           bra.b 0x49c1d4
│      │└─> 0x0049c1b6      554f           subq.w 0x2, a7
│      │    0x0049c1b8      3f39008192e8   move.w 0x8192e8, -(a7)
│      │    0x0049c1be      4eb900480fc2   jsr MENUCOM.get_boxon
│      │    0x0049c1c4      544f           addq.w 0x2, a7
│      │    0x0049c1c6      4a1f           tst.b (a7)+
│      │┌─< 0x0049c1c8      6706           beq.b 0x49c1d0
│      ││   0x0049c1ca      10bc0002       move.b 0x2, (a0)
│     ┌───< 0x0049c1ce      6004           bra.b 0x49c1d4
│     ││└─> 0x0049c1d0      10bc0001       move.b 0x1, (a0)
│     └└──> 0x0049c1d4      4cdf0100       movem.l (a7)+, a0
│           0x0049c1d8      4e5e           unlk a6
└           0x0049c1da      4e75           rts
            ; CALL XREF from MENUMAILCOM.mail_list_init @ 0x4f5a8e
┌ 108: MENUNUMPADCOM.picnum_slaves ();
│           0x0049c1dc      4e56fff0       link.w a6, 0xfff0
│           0x0049c1e0      bfd5           cmpa.l (a5), a7
│       ┌─< 0x0049c1e2      6206           bhi.b 0x49c1ea
│       │   0x0049c1e4      44fc0002       move.w 0x2, ccr
│       │   0x0049c1e8      4e76           trapv
│       └─> 0x0049c1ea      defc0010       adda.w 0x10, a7
│           0x0049c1ee      48e7c000       movem.l d0-d1, -(a7)
│           0x0049c1f2      223cffff8000   move.l 0xffff8000, d1
│           0x0049c1f8      3f39008192e6   move.w 0x8192e6, -(a7)
│           0x0049c1fe      4280           clr.l d0
│           0x0049c200      302e000a       move.w 0xa(a6), d0
│           0x0049c204      9081           sub.l d1, d0
│           0x0049c206      0c800000ffff   cmpi.l 0xffff, d0
│       ┌─< 0x0049c20c      6302           bls.b 0x49c210
│       │   0x0049c20e      4e4f           trap 0xf
│       └─> 0x0049c210      d081           add.l d1, d0
│           0x0049c212      3f00           move.w d0, -(a7)
│           0x0049c214      4eb900485acc   jsr MENUCOM.make_sibling_bo
│           0x0049c21a      544f           addq.w 0x2, a7
│           0x0049c21c      3eb9008192e8   move.w 0x8192e8, (a7)
│           0x0049c222      4280           clr.l d0
│           0x0049c224      302e0008       move.w 0x8(a6), d0
│           0x0049c228      9081           sub.l d1, d0
│           0x0049c22a      0c800000ffff   cmpi.l 0xffff, d0
│       ┌─< 0x0049c230      6302           bls.b 0x49c234
│       │   0x0049c232      4e4f           trap 0xf
│       └─> 0x0049c234      d081           add.l d1, d0
│           0x0049c236      3f00           move.w d0, -(a7)
│           0x0049c238      4eb900485acc   jsr MENUCOM.make_sibling_bo
│           0x0049c23e      584f           addq.w 0x4, a7
│           0x0049c240      4cdf0003       movem.l (a7)+, d0-d1
│           0x0049c244      4e5e           unlk a6
└           0x0049c246      4e75           rts
            ; CALL XREF from MENURIGHTCOM.men_right_hand_ @ 0x491368
┌ 4122: MENUNUMPADCOM.men_numpad_init ();
│           ; var int32_t var_ah @ a7+0xa
│           0x0049c248      4e56fe86       link.w a6, 0xfe86
│           0x0049c24c      bfd5           cmpa.l (a5), a7
│       ┌─< 0x0049c24e      6206           bhi.b 0x49c256
│       │   0x0049c250      44fc0002       move.w 0x2, ccr
│       │   0x0049c254      4e76           trapv
│       └─> 0x0049c256      defc0146       adda.w 0x146, a7
│           0x0049c25a      48e7fff8       movem.l d0-d7/a0-a4, -(a7)
│           0x0049c25e      45ed0010       lea.l 0x10(a5), a2
│           0x0049c262      47f900487aa6   lea.l MENUCOM.new_box, a3
│           0x0049c268      49f90048442e   lea.l MENUCOM.set_box_macro_n, a4
│           0x0049c26e      7801           moveq 0x1, d4
│           0x0049c270      3a3c0100       move.w 0x100, d5
│           0x0049c274      7c05           moveq 0x5, d6
│           0x0049c276      2e3cffff8000   move.l 0xffff8000, d7
│           0x0049c27c      594f           subq.w 0x4, a7
│           0x0049c27e      4eb90047b70e   jsr CNTLCOM.get_pen_info_pt
│           0x0049c284      23df008192da   move.l (a7)+, 0x8192da
│           0x0049c28a      486effd8       pea.l -0x28(a6)
│           0x0049c28e      4eb900486a4e   jsr MENUCOM.get_menu_grid
│           0x0049c294      584f           addq.w 0x4, a7
│           0x0049c296      41eeffec       lea.l -0x14(a6), a0
│           0x0049c29a      43eeffd8       lea.l -0x28(a6), a1
│           0x0049c29e      7004           moveq 0x4, d0
│       ┌─> 0x0049c2a0      20d9           move.l (a1)+, (a0)+
│       └─< 0x0049c2a2      51c8fffc       dbra d0, 0x49c2a0
│           0x0049c2a6      3d7c0016ffec   move.w 0x16, -0x14(a6)
│           0x0049c2ac      3d7c0032fff8   move.w 0x32, -0x8(a6)
│           0x0049c2b2      302effdc       move.w -0x24(a6), d0
│           0x0049c2b6      48c0           ext.l d0
│           0x0049c2b8      2200           move.l d0, d1
│           0x0049c2ba      068100000244   addi.l 0x244, d1
│           0x0049c2c0      9287           sub.l d7, d1
│           0x0049c2c2      0c810000ffff   cmpi.l 0xffff, d1
│       ┌─< 0x0049c2c8      6302           bls.b 0x49c2cc
│       │   0x0049c2ca      4e4f           trap 0xf
│       └─> 0x0049c2cc      d287           add.l d7, d1
│           0x0049c2ce      3d41fff0       move.w d1, -0x10(a6)
│           0x0049c2d2      204e           movea.l a6, a0
│           0x0049c2d4      7204           moveq 0x4, d1
│       ┌─> 0x0049c2d6      2f20           move.l -(a0), -(a7)
│       └─< 0x0049c2d8      51c9fffc       dbra d1, 0x49c2d6
│           0x0049c2dc      4eb900486a7e   jsr MENUCOM.set_menu_grid
│           0x0049c2e2      defc0014       adda.w 0x14, a7
│           0x0049c2e6      42aeffcc       clr.l -0x34(a6)
│           0x0049c2ea      1f04           move.b d4, -(a7)
│           0x0049c2ec      3f2e000c       move.w 0xc(a6), -(a7)
│           0x0049c2f0      4eb900487516   jsr MENUCOM.menu_group
│           0x0049c2f6      584f           addq.w 0x4, a7
│           0x0049c2f8      7200           moveq 0x0, d1
│           0x0049c2fa      9287           sub.l d7, d1
│           0x0049c2fc      0c810000ffff   cmpi.l 0xffff, d1
│       ┌─< 0x0049c302      6302           bls.b 0x49c306
│       │   0x0049c304      4e4f           trap 0xf
│       └─> 0x0049c306      d287           add.l d7, d1
│           0x0049c308      554f           subq.w 0x2, a7
│           0x0049c30a      1ebaf05b       move.b 0x49b367(pc), (a7)
│           0x0049c30e      1f7af0580001   move.b 0x49b368(pc), 0x1(a7)
│           0x0049c314      48790081930c   pea.l 0x81930c
│           0x0049c31a      3f01           move.w d1, -(a7)
│           0x0049c31c      3f3c0003       move.w 0x3, -(a7)
│           0x0049c320      3f04           move.w d4, -(a7)
│           0x0049c322      3f04           move.w d4, -(a7)
│           0x0049c324      1f06           move.b d6, -(a7)
│           0x0049c326      4227           clr.b -(a7)
│           0x0049c328      3f2e000c       move.w 0xc(a6), -(a7)
│           0x0049c32c      4267           clr.w -(a7)
│           0x0049c32e      2f3af032       move.l 0x49b362(pc), -(a7)
│           0x0049c332      486f0018       pea.l 0x18(a7)
│           0x0049c336      48780001       pea.l 0x1
│           0x0049c33a      48780002       pea.l 0x2
│           0x0049c33e      4852           pea.l (a2)
│           0x0049c340      487af658       pea.l MENUNUMPADCOM.hit_numpad(pc)
│           0x0049c344      4e93           jsr (a3)                    ; fcn.0000000c
│           0x0049c346      defc002c       adda.w 0x2c, a7
│           0x0049c34a      3eb90081930c   move.w 0x81930c, (a7)
│           0x0049c350      48780037       pea.l 0x37
│           0x0049c354      4eb90048402c   jsr MENUCOM.set_b_id
│           0x0049c35a      584f           addq.w 0x4, a7
│           0x0049c35c      3eb90081930c   move.w 0x81930c, (a7)
│           0x0049c362      9ec5           suba.w d5, a7
│           0x0049c364      204f           movea.l a7, a0
│           0x0049c366      43faf001       lea.l 0x49b369(pc), a1
│           0x0049c36a      7405           moveq 0x5, d2
│       ┌─> 0x0049c36c      10d9           move.b (a1)+, (a0)+
│       └─< 0x0049c36e      51cafffc       dbra d2, 0x49c36c
│           0x0049c372      4e94           jsr (a4)                    ; fcn.0000000d
│           0x0049c374      defc0102       adda.w 0x102, a7
│           0x0049c378      7400           moveq 0x0, d2
│           0x0049c37a      5282           addq.l 0x1, d2
│           0x0049c37c      9487           sub.l d7, d2
│           0x0049c37e      0c820000ffff   cmpi.l 0xffff, d2
│       ┌─< 0x0049c384      6302           bls.b 0x49c388
│       │   0x0049c386      4e4f           trap 0xf
│       └─> 0x0049c388      d487           add.l d7, d2
│           0x0049c38a      554f           subq.w 0x2, a7
│           0x0049c38c      1ebaefe7       move.b 0x49b375(pc), (a7)
│           0x0049c390      1f7aefe40001   move.b 0x49b376(pc), 0x1(a7)
│           0x0049c396      48790081930e   pea.l 0x81930e
│           0x0049c39c      3f02           move.w d2, -(a7)
│           0x0049c39e      3f3c0003       move.w 0x3, -(a7)
│           0x0049c3a2      3f04           move.w d4, -(a7)
│           0x0049c3a4      3f04           move.w d4, -(a7)
│           0x0049c3a6      1f06           move.b d6, -(a7)
│           0x0049c3a8      4227           clr.b -(a7)
│           0x0049c3aa      3f2e000c       move.w 0xc(a6), -(a7)
│           0x0049c3ae      4267           clr.w -(a7)
│           0x0049c3b0      2f3aefbe       move.l 0x49b370(pc), -(a7)
│           0x0049c3b4      486f0018       pea.l 0x18(a7)
│           0x0049c3b8      48780001       pea.l 0x1
│           0x0049c3bc      48780002       pea.l 0x2
│           0x0049c3c0      4852           pea.l (a2)
│           0x0049c3c2      487af5d6       pea.l MENUNUMPADCOM.hit_numpad(pc)
│           0x0049c3c6      4e93           jsr (a3)                    ; fcn.0000000c
│           0x0049c3c8      defc002c       adda.w 0x2c, a7
│           0x0049c3cc      3eb90081930e   move.w 0x81930e, (a7)
│           0x0049c3d2      48780038       pea.l 0x38
│           0x0049c3d6      4eb90048402c   jsr MENUCOM.set_b_id
│           0x0049c3dc      584f           addq.w 0x4, a7
│           0x0049c3de      3eb90081930e   move.w 0x81930e, (a7)
│           0x0049c3e4      9ec5           suba.w d5, a7
│           0x0049c3e6      204f           movea.l a7, a0
│           0x0049c3e8      43faef8d       lea.l 0x49b377(pc), a1
│           0x0049c3ec      7605           moveq 0x5, d3
│       ┌─> 0x0049c3ee      10d9           move.b (a1)+, (a0)+
│       └─< 0x0049c3f0      51cbfffc       dbra d3, 0x49c3ee
│           0x0049c3f4      4e94           jsr (a4)                    ; fcn.0000000d
│           0x0049c3f6      dec5           adda.w d5, a7
│           0x0049c3f8      1ebaef89       move.b 0x49b383(pc), (a7)
│           0x0049c3fc      1f7aef860001   move.b 0x49b384(pc), 0x1(a7)
│           0x0049c402      487900819310   pea.l 0x819310
│           0x0049c408      7602           moveq 0x2, d3
│           0x0049c40a      9687           sub.l d7, d3
│           0x0049c40c      0c830000ffff   cmpi.l 0xffff, d3
│       ┌─< 0x0049c412      6302           bls.b 0x49c416
│       │   0x0049c414      4e4f           trap 0xf
│       └─> 0x0049c416      d687           add.l d7, d3
│           0x0049c418      3f03           move.w d3, -(a7)
│           0x0049c41a      3f3c0003       move.w 0x3, -(a7)
│           0x0049c41e      3f04           move.w d4, -(a7)
│           0x0049c420      3f04           move.w d4, -(a7)
│           0x0049c422      1f06           move.b d6, -(a7)
│           0x0049c424      4227           clr.b -(a7)
│           0x0049c426      3f2e000c       move.w 0xc(a6), -(a7)
│           0x0049c42a      4267           clr.w -(a7)
│           0x0049c42c      2f3aef50       move.l 0x49b37e(pc), -(a7)
│           0x0049c430      486f0018       pea.l 0x18(a7)
│           0x0049c434      48780001       pea.l 0x1
│           0x0049c438      48780002       pea.l 0x2
│           0x0049c43c      4852           pea.l (a2)
│           0x0049c43e      487af55a       pea.l MENUNUMPADCOM.hit_numpad(pc)
│           0x0049c442      4e93           jsr (a3)                    ; fcn.0000000c
│           0x0049c444      defc002c       adda.w 0x2c, a7
│           0x0049c448      3eb900819310   move.w 0x819310, (a7)
│           0x0049c44e      48780039       pea.l 0x39
│           0x0049c452      4eb90048402c   jsr MENUCOM.set_b_id
│           0x0049c458      584f           addq.w 0x4, a7
│           0x0049c45a      3eb900819310   move.w 0x819310, (a7)
│           0x0049c460      9ec5           suba.w d5, a7
│           0x0049c462      204f           movea.l a7, a0
│           0x0049c464      43faef1f       lea.l 0x49b385(pc), a1
│           0x0049c468      7605           moveq 0x5, d3
│       ┌─> 0x0049c46a      10d9           move.b (a1)+, (a0)+
│       └─< 0x0049c46c      51cbfffc       dbra d3, 0x49c46a
│           0x0049c470      4e94           jsr (a4)                    ; fcn.0000000d
│           0x0049c472      dec5           adda.w d5, a7
│           0x0049c474      1ebaef1b       move.b 0x49b391(pc), (a7)
│           0x0049c478      1f7aef180001   move.b 0x49b392(pc), 0x1(a7)
│           0x0049c47e      487900819306   pea.l 0x819306
│           0x0049c484      3f01           move.w d1, -(a7)
│           0x0049c486      3f3c0004       move.w 0x4, -(a7)
│           0x0049c48a      3f04           move.w d4, -(a7)
│           0x0049c48c      3f04           move.w d4, -(a7)
│           0x0049c48e      1f06           move.b d6, -(a7)
│           0x0049c490      4227           clr.b -(a7)
│           0x0049c492      3f2e000c       move.w 0xc(a6), -(a7)
│           0x0049c496      4267           clr.w -(a7)
│           0x0049c498      2f3aeef2       move.l 0x49b38c(pc), -(a7)
│           0x0049c49c      486f0018       pea.l 0x18(a7)
│           0x0049c4a0      48780001       pea.l 0x1
│           0x0049c4a4      48780002       pea.l 0x2
│           0x0049c4a8      4852           pea.l (a2)
│           0x0049c4aa      487af4ee       pea.l MENUNUMPADCOM.hit_numpad(pc)
│           0x0049c4ae      4e93           jsr (a3)                    ; fcn.0000000c
│           0x0049c4b0      defc002c       adda.w 0x2c, a7
│           0x0049c4b4      3eb900819306   move.w 0x819306, (a7)
│           0x0049c4ba      48780034       pea.l 0x34
│           0x0049c4be      4eb90048402c   jsr MENUCOM.set_b_id
│           0x0049c4c4      584f           addq.w 0x4, a7
│           0x0049c4c6      3eb900819306   move.w 0x819306, (a7)
│           0x0049c4cc      9ec5           suba.w d5, a7
│           0x0049c4ce      204f           movea.l a7, a0
│           0x0049c4d0      43faeec1       lea.l 0x49b393(pc), a1
│           0x0049c4d4      7605           moveq 0x5, d3
│       ┌─> 0x0049c4d6      10d9           move.b (a1)+, (a0)+
│       └─< 0x0049c4d8      51cbfffc       dbra d3, 0x49c4d6
│           0x0049c4dc      4e94           jsr (a4)                    ; fcn.0000000d
│           0x0049c4de      dec5           adda.w d5, a7
│           0x0049c4e0      1ebaeebd       move.b 0x49b39f(pc), (a7)
│           0x0049c4e4      1f7aeeba0001   move.b 0x49b3a0(pc), 0x1(a7)
│           0x0049c4ea      487900819308   pea.l 0x819308
│           0x0049c4f0      3f02           move.w d2, -(a7)
│           0x0049c4f2      3f3c0004       move.w 0x4, -(a7)
│           0x0049c4f6      3f04           move.w d4, -(a7)
│           0x0049c4f8      3f04           move.w d4, -(a7)
│           0x0049c4fa      1f06           move.b d6, -(a7)
│           0x0049c4fc      4227           clr.b -(a7)
│           0x0049c4fe      3f2e000c       move.w 0xc(a6), -(a7)
│           0x0049c502      4267           clr.w -(a7)
│           0x0049c504      2f3aee94       move.l 0x49b39a(pc), -(a7)
│           0x0049c508      486f0018       pea.l 0x18(a7)
│           0x0049c50c      48780001       pea.l 0x1
│           0x0049c510      48780002       pea.l 0x2
│           0x0049c514      4852           pea.l (a2)
│           0x0049c516      487af482       pea.l MENUNUMPADCOM.hit_numpad(pc)
│           0x0049c51a      4e93           jsr (a3)                    ; fcn.0000000c
│           0x0049c51c      defc002c       adda.w 0x2c, a7
│           0x0049c520      3eb900819308   move.w 0x819308, (a7)
│           0x0049c526      48780035       pea.l 0x35
│           0x0049c52a      4eb90048402c   jsr MENUCOM.set_b_id
│           0x0049c530      584f           addq.w 0x4, a7
│           0x0049c532      3eb900819308   move.w 0x819308, (a7)
│           0x0049c538      9ec5           suba.w d5, a7
│           0x0049c53a      204f           movea.l a7, a0
│           0x0049c53c      43faee63       lea.l 0x49b3a1(pc), a1
│           0x0049c540      7605           moveq 0x5, d3
│       ┌─> 0x0049c542      10d9           move.b (a1)+, (a0)+
│       └─< 0x0049c544      51cbfffc       dbra d3, 0x49c542
│           0x0049c548      4e94           jsr (a4)                    ; fcn.0000000d
│           0x0049c54a      dec5           adda.w d5, a7
│           0x0049c54c      1ebaee5f       move.b 0x49b3ad(pc), (a7)
│           0x0049c550      1f7aee5c0001   move.b 0x49b3ae(pc), 0x1(a7)
│           0x0049c556      48790081930a   pea.l 0x81930a
│           0x0049c55c      7602           moveq 0x2, d3
│           0x0049c55e      9687           sub.l d7, d3
│           0x0049c560      0c830000ffff   cmpi.l 0xffff, d3
│       ┌─< 0x0049c566      6302           bls.b 0x49c56a
│       │   0x0049c568      4e4f           trap 0xf
│       └─> 0x0049c56a      d687           add.l d7, d3
│           0x0049c56c      3f03           move.w d3, -(a7)
│           0x0049c56e      3f3c0004       move.w 0x4, -(a7)
│           0x0049c572      3f04           move.w d4, -(a7)
│           0x0049c574      3f04           move.w d4, -(a7)
│           0x0049c576      1f06           move.b d6, -(a7)
│           0x0049c578      4227           clr.b -(a7)
│           0x0049c57a      3f2e000c       move.w 0xc(a6), -(a7)
│           0x0049c57e      4267           clr.w -(a7)
│           0x0049c580      2f3aee26       move.l 0x49b3a8(pc), -(a7)
│           0x0049c584      486f0018       pea.l 0x18(a7)
│           0x0049c588      48780001       pea.l 0x1
│           0x0049c58c      48780002       pea.l 0x2
│           0x0049c590      4852           pea.l (a2)
│           0x0049c592      487af406       pea.l MENUNUMPADCOM.hit_numpad(pc)
│           0x0049c596      4e93           jsr (a3)                    ; fcn.0000000c
│           0x0049c598      defc002c       adda.w 0x2c, a7
│           0x0049c59c      3eb90081930a   move.w 0x81930a, (a7)
│           0x0049c5a2      48780036       pea.l 0x36
│           0x0049c5a6      4eb90048402c   jsr MENUCOM.set_b_id
│           0x0049c5ac      584f           addq.w 0x4, a7
│           0x0049c5ae      3eb90081930a   move.w 0x81930a, (a7)
│           0x0049c5b4      9ec5           suba.w d5, a7
│           0x0049c5b6      204f           movea.l a7, a0
│           0x0049c5b8      43faedf5       lea.l 0x49b3af(pc), a1
│           0x0049c5bc      7605           moveq 0x5, d3
│       ┌─> 0x0049c5be      10d9           move.b (a1)+, (a0)+
│       └─< 0x0049c5c0      51cbfffc       dbra d3, 0x49c5be
│           0x0049c5c4      4e94           jsr (a4)                    ; fcn.0000000d
│           0x0049c5c6      dec5           adda.w d5, a7
│           0x0049c5c8      1ebaedf1       move.b 0x49b3bb(pc), (a7)
│           0x0049c5cc      1f7aedee0001   move.b 0x49b3bc(pc), 0x1(a7)
│           0x0049c5d2      487900819300   pea.l 0x819300
│           0x0049c5d8      3f01           move.w d1, -(a7)
│           0x0049c5da      3f06           move.w d6, -(a7)
│           0x0049c5dc      3f04           move.w d4, -(a7)
│           0x0049c5de      3f04           move.w d4, -(a7)
│           0x0049c5e0      1f06           move.b d6, -(a7)
│           0x0049c5e2      4227           clr.b -(a7)
│           0x0049c5e4      3f2e000c       move.w 0xc(a6), -(a7)
│           0x0049c5e8      4267           clr.w -(a7)
│           0x0049c5ea      2f3aedca       move.l 0x49b3b6(pc), -(a7)
│           0x0049c5ee      486f0018       pea.l 0x18(a7)
│           0x0049c5f2      48780001       pea.l 0x1
│           0x0049c5f6      48780002       pea.l 0x2
│           0x0049c5fa      4852           pea.l (a2)
│           0x0049c5fc      487af39c       pea.l MENUNUMPADCOM.hit_numpad(pc)
│           0x0049c600      4e93           jsr (a3)                    ; fcn.0000000c
│           0x0049c602      defc002c       adda.w 0x2c, a7
│           0x0049c606      3eb900819300   move.w 0x819300, (a7)
│           0x0049c60c      48780031       pea.l 0x31
│           0x0049c610      4eb90048402c   jsr MENUCOM.set_b_id
│           0x0049c616      584f           addq.w 0x4, a7
│           0x0049c618      3eb900819300   move.w 0x819300, (a7)
│           0x0049c61e      9ec5           suba.w d5, a7
│           0x0049c620      204f           movea.l a7, a0
│           0x0049c622      43faed99       lea.l 0x49b3bd(pc), a1
│           0x0049c626      7605           moveq 0x5, d3
│       ┌─> 0x0049c628      10d9           move.b (a1)+, (a0)+
│       └─< 0x0049c62a      51cbfffc       dbra d3, 0x49c628
│           0x0049c62e      4e94           jsr (a4)                    ; fcn.0000000d
│           0x0049c630      dec5           adda.w d5, a7
│           0x0049c632      1ebaed95       move.b 0x49b3c9(pc), (a7)
│           0x0049c636      1f7aed920001   move.b 0x49b3ca(pc), 0x1(a7)
│           0x0049c63c      487900819302   pea.l 0x819302
│           0x0049c642      3f02           move.w d2, -(a7)
│           0x0049c644      3f06           move.w d6, -(a7)
│           0x0049c646      3f04           move.w d4, -(a7)
│           0x0049c648      3f04           move.w d4, -(a7)
│           0x0049c64a      1f06           move.b d6, -(a7)
│           0x0049c64c      4227           clr.b -(a7)
│           0x0049c64e      3f2e000c       move.w 0xc(a6), -(a7)
│           0x0049c652      4267           clr.w -(a7)
│           0x0049c654      2f3aed6e       move.l 0x49b3c4(pc), -(a7)
│           0x0049c658      486f0018       pea.l 0x18(a7)
│           0x0049c65c      48780001       pea.l 0x1
│           0x0049c660      48780002       pea.l 0x2
│           0x0049c664      4852           pea.l (a2)
│           0x0049c666      487af332       pea.l MENUNUMPADCOM.hit_numpad(pc)
│           0x0049c66a      4e93           jsr (a3)                    ; fcn.0000000c
│           0x0049c66c      defc002c       adda.w 0x2c, a7
│           0x0049c670      3eb900819302   move.w 0x819302, (a7)
│           0x0049c676      48780032       pea.l 0x32
│           0x0049c67a      4eb90048402c   jsr MENUCOM.set_b_id
│           0x0049c680      584f           addq.w 0x4, a7
│           0x0049c682      3eb900819302   move.w 0x819302, (a7)
│           0x0049c688      9ec5           suba.w d5, a7
│           0x0049c68a      204f           movea.l a7, a0
│           0x0049c68c      43faed3d       lea.l 0x49b3cb(pc), a1
│           0x0049c690      7605           moveq 0x5, d3
│       ┌─> 0x0049c692      10d9           move.b (a1)+, (a0)+
│       └─< 0x0049c694      51cbfffc       dbra d3, 0x49c692
│           0x0049c698      4e94           jsr (a4)                    ; fcn.0000000d
│           0x0049c69a      dec5           adda.w d5, a7
│           0x0049c69c      1ebaed39       move.b 0x49b3d7(pc), (a7)
│           0x0049c6a0      1f7aed360001   move.b 0x49b3d8(pc), 0x1(a7)
│           0x0049c6a6      487900819304   pea.l 0x819304
│           0x0049c6ac      7602           moveq 0x2, d3
│           0x0049c6ae      9687           sub.l d7, d3
│           0x0049c6b0      0c830000ffff   cmpi.l 0xffff, d3
│       ┌─< 0x0049c6b6      6302           bls.b 0x49c6ba
│       │   0x0049c6b8      4e4f           trap 0xf
│       └─> 0x0049c6ba      d687           add.l d7, d3
│           0x0049c6bc      3f03           move.w d3, -(a7)
│           0x0049c6be      3f06           move.w d6, -(a7)
│           0x0049c6c0      3f04           move.w d4, -(a7)
│           0x0049c6c2      3f04           move.w d4, -(a7)
│           0x0049c6c4      1f06           move.b d6, -(a7)
│           0x0049c6c6      4227           clr.b -(a7)
│           0x0049c6c8      3f2e000c       move.w 0xc(a6), -(a7)
│           0x0049c6cc      4267           clr.w -(a7)
│           0x0049c6ce      2f3aed02       move.l 0x49b3d2(pc), -(a7)
│           0x0049c6d2      486f0018       pea.l 0x18(a7)
│           0x0049c6d6      48780001       pea.l 0x1
│           0x0049c6da      48780002       pea.l 0x2
│           0x0049c6de      4852           pea.l (a2)
│           0x0049c6e0      487af2b8       pea.l MENUNUMPADCOM.hit_numpad(pc)
│           0x0049c6e4      4e93           jsr (a3)                    ; fcn.0000000c
│           0x0049c6e6      defc002c       adda.w 0x2c, a7
│           0x0049c6ea      3eb900819304   move.w 0x819304, (a7)
│           0x0049c6f0      48780033       pea.l 0x33
│           0x0049c6f4      4eb90048402c   jsr MENUCOM.set_b_id
│           0x0049c6fa      584f           addq.w 0x4, a7
│           0x0049c6fc      3eb900819304   move.w 0x819304, (a7)
│           0x0049c702      9ec5           suba.w d5, a7
│           0x0049c704      204f           movea.l a7, a0
│           0x0049c706      43faecd1       lea.l 0x49b3d9(pc), a1
│           0x0049c70a      7605           moveq 0x5, d3
│       ┌─> 0x0049c70c      10d9           move.b (a1)+, (a0)+
│       └─< 0x0049c70e      51cbfffc       dbra d3, 0x49c70c
│           0x0049c712      4e94           jsr (a4)                    ; fcn.0000000d
│           0x0049c714      dec5           adda.w d5, a7
│           0x0049c716      1ebaeccd       move.b 0x49b3e5(pc), (a7)
│           0x0049c71a      1f7aecca0001   move.b 0x49b3e6(pc), 0x1(a7)
│           0x0049c720      4879008192fe   pea.l 0x8192fe
│           0x0049c726      7603           moveq 0x3, d3
│           0x0049c728      9687           sub.l d7, d3
│           0x0049c72a      0c830000ffff   cmpi.l 0xffff, d3
│       ┌─< 0x0049c730      6302           bls.b 0x49c734
│       │   0x0049c732      4e4f           trap 0xf
│       └─> 0x0049c734      d687           add.l d7, d3
│           0x0049c736      3f03           move.w d3, -(a7)
│           0x0049c738      3f3c0006       move.w 0x6, -(a7)
│           0x0049c73c      3f04           move.w d4, -(a7)
│           0x0049c73e      3f04           move.w d4, -(a7)
│           0x0049c740      1f06           move.b d6, -(a7)
│           0x0049c742      4227           clr.b -(a7)
│           0x0049c744      3f2e000c       move.w 0xc(a6), -(a7)
│           0x0049c748      4267           clr.w -(a7)
│           0x0049c74a      2f3aec94       move.l 0x49b3e0(pc), -(a7)
│           0x0049c74e      486f0018       pea.l 0x18(a7)
│           0x0049c752      48780001       pea.l 0x1
│           0x0049c756      48780002       pea.l 0x2
│           0x0049c75a      4852           pea.l (a2)
│           0x0049c75c      487af23c       pea.l MENUNUMPADCOM.hit_numpad(pc)
│           0x0049c760      4e93           jsr (a3)                    ; fcn.0000000c
│           0x0049c762      defc002c       adda.w 0x2c, a7
│           0x0049c766      3eb9008192fe   move.w 0x8192fe, (a7)
│           0x0049c76c      48780043       pea.l 0x43
│           0x0049c770      4eb90048402c   jsr MENUCOM.set_b_id
│           0x0049c776      584f           addq.w 0x4, a7
│           0x0049c778      3eb9008192fe   move.w 0x8192fe, (a7)
│           0x0049c77e      9ec5           suba.w d5, a7
│           0x0049c780      204f           movea.l a7, a0
│           0x0049c782      43faec63       lea.l 0x49b3e7(pc), a1
│           0x0049c786      7605           moveq 0x5, d3
│       ┌─> 0x0049c788      10d9           move.b (a1)+, (a0)+
│       └─< 0x0049c78a      51cbfffc       dbra d3, 0x49c788
│           0x0049c78e      4e94           jsr (a4)                    ; fcn.0000000d
│           0x0049c790      dec5           adda.w d5, a7
│           0x0049c792      1ebaec5f       move.b 0x49b3f3(pc), (a7)
│           0x0049c796      1f7aec5c0001   move.b 0x49b3f4(pc), 0x1(a7)
│           0x0049c79c      4879008192f6   pea.l 0x8192f6
│           0x0049c7a2      3f02           move.w d2, -(a7)
│           0x0049c7a4      3f3c0006       move.w 0x6, -(a7)
│           0x0049c7a8      3f04           move.w d4, -(a7)
│           0x0049c7aa      3f04           move.w d4, -(a7)
│           0x0049c7ac      1f06           move.b d6, -(a7)
│           0x0049c7ae      4227           clr.b -(a7)
│           0x0049c7b0      3f2e000c       move.w 0xc(a6), -(a7)
│           0x0049c7b4      4267           clr.w -(a7)
│           0x0049c7b6      2f3aec36       move.l 0x49b3ee(pc), -(a7)
│           0x0049c7ba      486f0018       pea.l 0x18(a7)
│           0x0049c7be      48780001       pea.l 0x1
│           0x0049c7c2      48780002       pea.l 0x2
│           0x0049c7c6      4852           pea.l (a2)
│           0x0049c7c8      487af1d0       pea.l MENUNUMPADCOM.hit_numpad(pc)
│           0x0049c7cc      4e93           jsr (a3)                    ; fcn.0000000c
│           0x0049c7ce      defc002c       adda.w 0x2c, a7
│           0x0049c7d2      3eb9008192f6   move.w 0x8192f6, (a7)
│           0x0049c7d8      48780030       pea.l 0x30
│           0x0049c7dc      4eb90048402c   jsr MENUCOM.set_b_id
│           0x0049c7e2      584f           addq.w 0x4, a7
│           0x0049c7e4      3eb9008192f6   move.w 0x8192f6, (a7)
│           0x0049c7ea      9ec5           suba.w d5, a7
│           0x0049c7ec      204f           movea.l a7, a0
│           0x0049c7ee      43faec05       lea.l 0x49b3f5(pc), a1
│           0x0049c7f2      7605           moveq 0x5, d3
│       ┌─> 0x0049c7f4      10d9           move.b (a1)+, (a0)+
│       └─< 0x0049c7f6      51cbfffc       dbra d3, 0x49c7f4
│           0x0049c7fa      4e94           jsr (a4)                    ; fcn.0000000d
│           0x0049c7fc      defc00f2       adda.w 0xf2, a7
│           0x0049c800      204f           movea.l a7, a0
│           0x0049c802      43faebfd       lea.l 0x49b401(pc), a1
│           0x0049c806      760e           moveq 0xe, d3
│       ┌─> 0x0049c808      10d9           move.b (a1)+, (a0)+
│       └─< 0x0049c80a      51cbfffc       dbra d3, 0x49c808
│           0x0049c80e      4879008192e0   pea.l 0x8192e0
│           0x0049c814      4267           clr.w -(a7)
│           0x0049c816      4267           clr.w -(a7)
│           0x0049c818      4267           clr.w -(a7)
│           0x0049c81a      4267           clr.w -(a7)
│           0x0049c81c      1f3c0002       move.b 0x2, -(a7)
│           0x0049c820      4227           clr.b -(a7)
│           0x0049c822      3f2e000c       move.w 0xc(a6), -(a7)
│           0x0049c826      4267           clr.w -(a7)
│           0x0049c828      2f3aebd2       move.l 0x49b3fc(pc), -(a7)
│           0x0049c82c      486f0018       pea.l 0x18(a7)
│           0x0049c830      48780001       pea.l 0x1
│           0x0049c834      4878000f       pea.l 0xf
│           0x0049c838      4852           pea.l (a2)
│           0x0049c83a      487900481fee   pea.l MENUCOM.hit_nothing
│           0x0049c840      4e93           jsr (a3)                    ; fcn.0000000c
│           0x0049c842      defc0030       adda.w 0x30, a7
│           0x0049c846      204f           movea.l a7, a0
│           0x0049c848      43faebcb       lea.l 0x49b415(pc), a1
│           0x0049c84c      760b           moveq 0xb, d3
│       ┌─> 0x0049c84e      10d9           move.b (a1)+, (a0)+
│       └─< 0x0049c850      51cbfffc       dbra d3, 0x49c84e
│           0x0049c854      4879008192e2   pea.l 0x8192e2
│           0x0049c85a      4267           clr.w -(a7)
│           0x0049c85c      4267           clr.w -(a7)
│           0x0049c85e      4267           clr.w -(a7)
│           0x0049c860      4267           clr.w -(a7)
│           0x0049c862      1f3c0002       move.b 0x2, -(a7)
│           0x0049c866      4227           clr.b -(a7)
│           0x0049c868      3f2e000c       move.w 0xc(a6), -(a7)
│           0x0049c86c      3f39008192e0   move.w 0x8192e0, -(a7)
│           0x0049c872      2f3aeb9c       move.l 0x49b410(pc), -(a7)
│           0x0049c876      486f0018       pea.l 0x18(a7)
│           0x0049c87a      48780001       pea.l 0x1
│           0x0049c87e      4878000c       pea.l 0xc
│           0x0049c882      4852           pea.l (a2)
│           0x0049c884      487900481fee   pea.l MENUCOM.hit_nothing
│           0x0049c88a      4e93           jsr (a3)                    ; fcn.0000000c
│           0x0049c88c      defc002a       adda.w 0x2a, a7
│           0x0049c890      204f           movea.l a7, a0
│           0x0049c892      43faeb93       lea.l 0x49b427(pc), a1
│           0x0049c896      760c           moveq 0xc, d3
│       ┌─> 0x0049c898      10d9           move.b (a1)+, (a0)+
│       └─< 0x0049c89a      51cbfffc       dbra d3, 0x49c898
│           0x0049c89e      4879008192e4   pea.l 0x8192e4
│           0x0049c8a4      4267           clr.w -(a7)
│           0x0049c8a6      4267           clr.w -(a7)
│           0x0049c8a8      4267           clr.w -(a7)
│           0x0049c8aa      4267           clr.w -(a7)
│           0x0049c8ac      1f3c0002       move.b 0x2, -(a7)
│           0x0049c8b0      4227           clr.b -(a7)
│           0x0049c8b2      3f2e000c       move.w 0xc(a6), -(a7)
│           0x0049c8b6      3f39008192e2   move.w 0x8192e2, -(a7)
│           0x0049c8bc      2f3aeb64       move.l 0x49b422(pc), -(a7)
│           0x0049c8c0      486f0018       pea.l 0x18(a7)
│           0x0049c8c4      48780001       pea.l 0x1
│           0x0049c8c8      4878000d       pea.l 0xd
│           0x0049c8cc      4852           pea.l (a2)
│           0x0049c8ce      487900481fee   pea.l MENUCOM.hit_nothing
│           0x0049c8d4      4e93           jsr (a3)                    ; fcn.0000000c
│           0x0049c8d6      defc002e       adda.w 0x2e, a7
│           0x0049c8da      204f           movea.l a7, a0
│           0x0049c8dc      43faeb5b       lea.l 0x49b439(pc), a1
│           0x0049c8e0      760a           moveq 0xa, d3
│       ┌─> 0x0049c8e2      10d9           move.b (a1)+, (a0)+
│       └─< 0x0049c8e4      51cbfffc       dbra d3, 0x49c8e2
│           0x0049c8e8      3f3c0038       move.w 0x38, -(a7)
│           0x0049c8ec      3f01           move.w d1, -(a7)
│           0x0049c8ee      3f3c0002       move.w 0x2, -(a7)
│           0x0049c8f2      3f3c0004       move.w 0x4, -(a7)
│           0x0049c8f6      3f04           move.w d4, -(a7)
│           0x0049c8f8      1f06           move.b d6, -(a7)
│           0x0049c8fa      1f04           move.b d4, -(a7)
│           0x0049c8fc      3f39008192e0   move.w 0x8192e0, -(a7)
│           0x0049c902      4267           clr.w -(a7)
│           0x0049c904      2f3aeb2e       move.l 0x49b434(pc), -(a7)
│           0x0049c908      486f0016       pea.l 0x16(a7)
│           0x0049c90c      48780001       pea.l 0x1
│           0x0049c910      4878000b       pea.l 0xb
│           0x0049c914      4852           pea.l (a2)
│           0x0049c916      487af082       pea.l MENUNUMPADCOM.hit_numpad(pc)
│           0x0049c91a      4eb900487686   jsr MENUCOM.def_box
│           0x0049c920      defc0034       adda.w 0x34, a7
│           0x0049c924      3ebc0038       move.w 0x38, (a7)
│           0x0049c928      4878000d       pea.l 0xd
│           0x0049c92c      4eb90048402c   jsr MENUCOM.set_b_id
│           0x0049c932      584f           addq.w 0x4, a7
│           0x0049c934      3ebc0038       move.w 0x38, (a7)
│           0x0049c938      9efc00fc       suba.w 0xfc, a7
│           0x0049c93c      2f3aeb06       move.l 0x49b444(pc), -(a7)
│           0x0049c940      2f7aeb060004   move.l 0x49b448(pc), 0x4(a7)
│           0x0049c946      3f7aeb040008   move.w 0x49b44c(pc), 0x8(a7)
│           0x0049c94c      4e94           jsr (a4)                    ; fcn.0000000d
│           0x0049c94e      dec5           adda.w d5, a7
│           0x0049c950      1ebaeb01       move.b 0x49b453(pc), (a7)
│           0x0049c954      1f7aeafe0001   move.b 0x49b454(pc), 0x1(a7)
│           0x0049c95a      4879008192f0   pea.l 0x8192f0
│           0x0049c960      7603           moveq 0x3, d3
│           0x0049c962      9687           sub.l d7, d3
│           0x0049c964      0c830000ffff   cmpi.l 0xffff, d3
│       ┌─< 0x0049c96a      6302           bls.b 0x49c96e
│       │   0x0049c96c      4e4f           trap 0xf
│       └─> 0x0049c96e      d687           add.l d7, d3
│           0x0049c970      3f03           move.w d3, -(a7)
│           0x0049c972      3f06           move.w d6, -(a7)
│           0x0049c974      3f04           move.w d4, -(a7)
│           0x0049c976      3f04           move.w d4, -(a7)
│           0x0049c978      1f06           move.b d6, -(a7)
│           0x0049c97a      4227           clr.b -(a7)
│           0x0049c97c      3f39008192e0   move.w 0x8192e0, -(a7)
│           0x0049c982      4267           clr.w -(a7)
│           0x0049c984      2f3aeac8       move.l 0x49b44e(pc), -(a7)
│           0x0049c988      486f0018       pea.l 0x18(a7)
│           0x0049c98c      48780001       pea.l 0x1
│           0x0049c990      48780002       pea.l 0x2
│           0x0049c994      4852           pea.l (a2)
│           0x0049c996      487af002       pea.l MENUNUMPADCOM.hit_numpad(pc)
│           0x0049c99a      4e93           jsr (a3)                    ; fcn.0000000c
│           0x0049c99c      defc002c       adda.w 0x2c, a7
│           0x0049c9a0      3eb9008192f0   move.w 0x8192f0, (a7)
│           0x0049c9a6      4878002d       pea.l 0x2d
│           0x0049c9aa      4eb90048402c   jsr MENUCOM.set_b_id
│           0x0049c9b0      584f           addq.w 0x4, a7
│           0x0049c9b2      3eb9008192f0   move.w 0x8192f0, (a7)
│           0x0049c9b8      9ec5           suba.w d5, a7
│           0x0049c9ba      204f           movea.l a7, a0
│           0x0049c9bc      43faea97       lea.l 0x49b455(pc), a1
│           0x0049c9c0      7605           moveq 0x5, d3
│       ┌─> 0x0049c9c2      10d9           move.b (a1)+, (a0)+
│       └─< 0x0049c9c4      51cbfffc       dbra d3, 0x49c9c2
│           0x0049c9c8      4e94           jsr (a4)                    ; fcn.0000000d
│           0x0049c9ca      defc00fc       adda.w 0xfc, a7
│           0x0049c9ce      7603           moveq 0x3, d3
│           0x0049c9d0      41ef0001       lea.l 0x1(a7), a0
│           0x0049c9d4      43faea8b       lea.l 0x49b461(pc), a1
│       ┌─> 0x0049c9d8      10d9           move.b (a1)+, (a0)+
│       └─< 0x0049c9da      51cbfffc       dbra d3, 0x49c9d8
│           0x0049c9de      1ebc0004       move.b 0x4, (a7)
│           0x0049c9e2      5217           addq.b 0x1, (a7)
│           0x0049c9e4      7600           moveq 0x0, d3
│           0x0049c9e6      43faea7e       lea.l 0x49b466(pc), a1
│       ┌─> 0x0049c9ea      10d9           move.b (a1)+, (a0)+
│       └─< 0x0049c9ec      51cbfffc       dbra d3, 0x49c9ea
│           0x0049c9f0      554f           subq.w 0x2, a7
│           0x0049c9f2      2f2f0002       move.l 0x2(a7), -(a7)
│           0x0049c9f6      3f6f000a0004   move.w 0xa(a7), 0x4(a7)
│           0x0049c9fc      4879008192ec   pea.l 0x8192ec
│           0x0049ca02      7603           moveq 0x3, d3
│           0x0049ca04      9687           sub.l d7, d3
│           0x0049ca06      0c830000ffff   cmpi.l 0xffff, d3
│       ┌─< 0x0049ca0c      6302           bls.b 0x49ca10
│       │   0x0049ca0e      4e4f           trap 0xf
│       └─> 0x0049ca10      d687           add.l d7, d3
│           0x0049ca12      3f03           move.w d3, -(a7)
│           0x0049ca14      3f3c0003       move.w 0x3, -(a7)
│           0x0049ca18      3f04           move.w d4, -(a7)
│           0x0049ca1a      3f04           move.w d4, -(a7)
│           0x0049ca1c      1f06           move.b d6, -(a7)
│           0x0049ca1e      4227           clr.b -(a7)
│           0x0049ca20      3f39008192e0   move.w 0x8192e0, -(a7)
│           0x0049ca26      4267           clr.w -(a7)
│           0x0049ca28      2f3aea32       move.l 0x49b45c(pc), -(a7)
│           0x0049ca2c      486f0018       pea.l 0x18(a7)
│           0x0049ca30      48780000       pea.l 0x0
│           0x0049ca34      48780006       pea.l 0x6
│           0x0049ca38      4852           pea.l (a2)
│           0x0049ca3a      487aef5e       pea.l MENUNUMPADCOM.hit_numpad(pc)
│           0x0049ca3e      4e93           jsr (a3)                    ; fcn.0000000c
│           0x0049ca40      defc0036       adda.w 0x36, a7
│           0x0049ca44      3eb9008192ec   move.w 0x8192ec, (a7)
│           0x0049ca4a      4878041a       pea.l 0x41a
│           0x0049ca4e      4eb90048402c   jsr MENUCOM.set_b_id
│           0x0049ca54      584f           addq.w 0x4, a7
│           0x0049ca56      3eb9008192ec   move.w 0x8192ec, (a7)
│           0x0049ca5c      9ec5           suba.w d5, a7
│           0x0049ca5e      204f           movea.l a7, a0
│           0x0049ca60      43faea05       lea.l 0x49b467(pc), a1
│           0x0049ca64      7608           moveq 0x8, d3
│       ┌─> 0x0049ca66      10d9           move.b (a1)+, (a0)+
│       └─< 0x0049ca68      51cbfffc       dbra d3, 0x49ca66
│           0x0049ca6c      4e94           jsr (a4)                    ; fcn.0000000d
│           0x0049ca6e      defc00fc       adda.w 0xfc, a7
│           0x0049ca72      7603           moveq 0x3, d3
│           0x0049ca74      41ef0001       lea.l 0x1(a7), a0
│           0x0049ca78      43fae9fb       lea.l 0x49b475(pc), a1
│       ┌─> 0x0049ca7c      10d9           move.b (a1)+, (a0)+
│       └─< 0x0049ca7e      51cbfffc       dbra d3, 0x49ca7c
│           0x0049ca82      1ebc0004       move.b 0x4, (a7)
│           0x0049ca86      5217           addq.b 0x1, (a7)
│           0x0049ca88      7600           moveq 0x0, d3
│           0x0049ca8a      43fae9ee       lea.l 0x49b47a(pc), a1
│       ┌─> 0x0049ca8e      10d9           move.b (a1)+, (a0)+
│       └─< 0x0049ca90      51cbfffc       dbra d3, 0x49ca8e
│           0x0049ca94      554f           subq.w 0x2, a7
│           0x0049ca96      2f2f0002       move.l 0x2(a7), -(a7)
│           0x0049ca9a      3f6f000a0004   move.w 0xa(a7), 0x4(a7)
│           0x0049caa0      4879008192ee   pea.l 0x8192ee
│           0x0049caa6      7603           moveq 0x3, d3
│           0x0049caa8      9687           sub.l d7, d3
│           0x0049caaa      0c830000ffff   cmpi.l 0xffff, d3
│       ┌─< 0x0049cab0      6302           bls.b 0x49cab4
│       │   0x0049cab2      4e4f           trap 0xf
│       └─> 0x0049cab4      d687           add.l d7, d3
│           0x0049cab6      3f03           move.w d3, -(a7)
│           0x0049cab8      3f3c0004       move.w 0x4, -(a7)
│           0x0049cabc      3f04           move.w d4, -(a7)
│           0x0049cabe      3f04           move.w d4, -(a7)
│           0x0049cac0      1f06           move.b d6, -(a7)
│           0x0049cac2      4227           clr.b -(a7)
│           0x0049cac4      3f39008192e0   move.w 0x8192e0, -(a7)
│           0x0049caca      4267           clr.w -(a7)
│           0x0049cacc      2f3ae9a2       move.l 0x49b470(pc), -(a7)
│           0x0049cad0      486f0018       pea.l 0x18(a7)
│           0x0049cad4      48780000       pea.l 0x0
│           0x0049cad8      48780006       pea.l 0x6
│           0x0049cadc      4852           pea.l (a2)
│           0x0049cade      487aeeba       pea.l MENUNUMPADCOM.hit_numpad(pc)
│           0x0049cae2      4e93           jsr (a3)                    ; fcn.0000000c
│           0x0049cae4      defc0036       adda.w 0x36, a7
│           0x0049cae8      3eb9008192ee   move.w 0x8192ee, (a7)
│           0x0049caee      48780416       pea.l 0x416
│           0x0049caf2      4eb90048402c   jsr MENUCOM.set_b_id
│           0x0049caf8      584f           addq.w 0x4, a7
│           0x0049cafa      3eb9008192ee   move.w 0x8192ee, (a7)
│           0x0049cb00      9ec5           suba.w d5, a7
│           0x0049cb02      204f           movea.l a7, a0
│           0x0049cb04      43fae975       lea.l 0x49b47b(pc), a1
│           0x0049cb08      7609           moveq 0x9, d3
│       ┌─> 0x0049cb0a      10d9           move.b (a1)+, (a0)+
│       └─< 0x0049cb0c      51cbfffc       dbra d3, 0x49cb0a
│           0x0049cb10      4e94           jsr (a4)                    ; fcn.0000000d
│           0x0049cb12      dec5           adda.w d5, a7
│           0x0049cb14      1ebae975       move.b 0x49b48b(pc), (a7)
│           0x0049cb18      1f7ae9720001   move.b 0x49b48c(pc), 0x1(a7)
│           0x0049cb1e      4879008192fa   pea.l 0x8192fa
│           0x0049cb24      3f01           move.w d1, -(a7)
│           0x0049cb26      3f3c0006       move.w 0x6, -(a7)
│           0x0049cb2a      3f04           move.w d4, -(a7)
│           0x0049cb2c      3f04           move.w d4, -(a7)
│           0x0049cb2e      4227           clr.b -(a7)
│           0x0049cb30      4227           clr.b -(a7)
│           0x0049cb32      3f39008192e0   move.w 0x8192e0, -(a7)
│           0x0049cb38      4267           clr.w -(a7)
│           0x0049cb3a      2f3ae94a       move.l 0x49b486(pc), -(a7)
│           0x0049cb3e      486f0018       pea.l 0x18(a7)
│           0x0049cb42      48780001       pea.l 0x1
│           0x0049cb46      48780002       pea.l 0x2
│           0x0049cb4a      4852           pea.l (a2)
│           0x0049cb4c      487900481fee   pea.l MENUCOM.hit_nothing
│           0x0049cb52      4e93           jsr (a3)                    ; fcn.0000000c
│           0x0049cb54      defc002c       adda.w 0x2c, a7
│           0x0049cb58      3eb9008192fa   move.w 0x8192fa, (a7)
│           0x0049cb5e      9ec5           suba.w d5, a7
│           0x0049cb60      204f           movea.l a7, a0
│           0x0049cb62      43fae929       lea.l 0x49b48d(pc), a1
│           0x0049cb66      760a           moveq 0xa, d3
│       ┌─> 0x0049cb68      10d9           move.b (a1)+, (a0)+
│       └─< 0x0049cb6a      51cbfffc       dbra d3, 0x49cb68
│           0x0049cb6e      4e94           jsr (a4)                    ; fcn.0000000d
│           0x0049cb70      dec5           adda.w d5, a7
│           0x0049cb72      1ebae929       move.b 0x49b49d(pc), (a7)
│           0x0049cb76      1f7ae9260001   move.b 0x49b49e(pc), 0x1(a7)
│           0x0049cb7c      4879008192f8   pea.l 0x8192f8
│           0x0049cb82      7602           moveq 0x2, d3
│           0x0049cb84      9687           sub.l d7, d3
│           0x0049cb86      0c830000ffff   cmpi.l 0xffff, d3
│       ┌─< 0x0049cb8c      6302           bls.b 0x49cb90
│       │   0x0049cb8e      4e4f           trap 0xf
│       └─> 0x0049cb90      d687           add.l d7, d3
│           0x0049cb92      3f03           move.w d3, -(a7)
│           0x0049cb94      3f3c0006       move.w 0x6, -(a7)
│           0x0049cb98      3f04           move.w d4, -(a7)
│           0x0049cb9a      3f04           move.w d4, -(a7)
│           0x0049cb9c      1f06           move.b d6, -(a7)
│           0x0049cb9e      4227           clr.b -(a7)
│           0x0049cba0      3f39008192e0   move.w 0x8192e0, -(a7)
│           0x0049cba6      4267           clr.w -(a7)
│           0x0049cba8      2f3ae8ee       move.l 0x49b498(pc), -(a7)
│           0x0049cbac      486f0018       pea.l 0x18(a7)
│           0x0049cbb0      48780001       pea.l 0x1
│           0x0049cbb4      48780002       pea.l 0x2
│           0x0049cbb8      4852           pea.l (a2)
│           0x0049cbba      487aedde       pea.l MENUNUMPADCOM.hit_numpad(pc)
│           0x0049cbbe      4e93           jsr (a3)                    ; fcn.0000000c
│           0x0049cbc0      defc002c       adda.w 0x2c, a7
│           0x0049cbc4      3eb9008192f8   move.w 0x8192f8, (a7)
│           0x0049cbca      4878002e       pea.l 0x2e
│           0x0049cbce      4eb90048402c   jsr MENUCOM.set_b_id
│           0x0049cbd4      584f           addq.w 0x4, a7
│           0x0049cbd6      3eb9008192f8   move.w 0x8192f8, (a7)
│           0x0049cbdc      9ec5           suba.w d5, a7
│           0x0049cbde      204f           movea.l a7, a0
│           0x0049cbe0      43fae8bd       lea.l 0x49b49f(pc), a1
│           0x0049cbe4      7605           moveq 0x5, d3
│       ┌─> 0x0049cbe6      10d9           move.b (a1)+, (a0)+
│       └─< 0x0049cbe8      51cbfffc       dbra d3, 0x49cbe6
│           0x0049cbec      4e94           jsr (a4)                    ; fcn.0000000d
│           0x0049cbee      defc00fe       adda.w 0xfe, a7
│           0x0049cbf2      1ebae8b7       move.b 0x49b4ab(pc), (a7)
│           0x0049cbf6      1f7ae8b40001   move.b 0x49b4ac(pc), 0x1(a7)
│           0x0049cbfc      1f7ae8af0002   move.b 0x49b4ad(pc), 0x2(a7)
│           0x0049cc02      3f3c0036       move.w 0x36, -(a7)
│           0x0049cc06      3f01           move.w d1, -(a7)
│           0x0049cc08      3f04           move.w d4, -(a7)
│           0x0049cc0a      3f3c0002       move.w 0x2, -(a7)
│           0x0049cc0e      3f04           move.w d4, -(a7)
│           0x0049cc10      1f06           move.b d6, -(a7)
│           0x0049cc12      4227           clr.b -(a7)
│           0x0049cc14      3f39008192e0   move.w 0x8192e0, -(a7)
│           0x0049cc1a      4267           clr.w -(a7)
│           0x0049cc1c      2f3ae888       move.l 0x49b4a6(pc), -(a7)
│           0x0049cc20      486f0016       pea.l 0x16(a7)
│           0x0049cc24      48780001       pea.l 0x1
│           0x0049cc28      48780003       pea.l 0x3
│           0x0049cc2c      4852           pea.l (a2)
│           0x0049cc2e      487aed6a       pea.l MENUNUMPADCOM.hit_numpad(pc)
│           0x0049cc32      4eb900487686   jsr MENUCOM.def_box
│           0x0049cc38      defc002c       adda.w 0x2c, a7
│           0x0049cc3c      3ebc0036       move.w 0x36, (a7)
│           0x0049cc40      48780414       pea.l 0x414
│           0x0049cc44      4eb90048402c   jsr MENUCOM.set_b_id
│           0x0049cc4a      584f           addq.w 0x4, a7
│           0x0049cc4c      3ebc0036       move.w 0x36, (a7)
│           0x0049cc50      9efc00fc       suba.w 0xfc, a7
│           0x0049cc54      2f3ae858       move.l 0x49b4ae(pc), -(a7)
│           0x0049cc58      2f7ae8580004   move.l 0x49b4b2(pc), 0x4(a7)
│           0x0049cc5e      4e94           jsr (a4)                    ; fcn.0000000d
│           0x0049cc60      defc00fe       adda.w 0xfe, a7
│           0x0049cc64      1ebae855       move.b 0x49b4bb(pc), (a7)
│           0x0049cc68      1f7ae8520001   move.b 0x49b4bc(pc), 0x1(a7)
│           0x0049cc6e      1f7ae84d0002   move.b 0x49b4bd(pc), 0x2(a7)
│           0x0049cc74      3f3c0037       move.w 0x37, -(a7)
│           0x0049cc78      7602           moveq 0x2, d3
│           0x0049cc7a      9687           sub.l d7, d3
│           0x0049cc7c      0c830000ffff   cmpi.l 0xffff, d3
│       ┌─< 0x0049cc82      6302           bls.b 0x49cc86
│       │   0x0049cc84      4e4f           trap 0xf
│       └─> 0x0049cc86      d687           add.l d7, d3
│           0x0049cc88      3f03           move.w d3, -(a7)
│           0x0049cc8a      3f04           move.w d4, -(a7)
│           0x0049cc8c      3f3c0002       move.w 0x2, -(a7)
│           0x0049cc90      3f04           move.w d4, -(a7)
│           0x0049cc92      1f06           move.b d6, -(a7)
│           0x0049cc94      4227           clr.b -(a7)
│           0x0049cc96      3f39008192e0   move.w 0x8192e0, -(a7)
│           0x0049cc9c      4267           clr.w -(a7)
│           0x0049cc9e      2f3ae816       move.l 0x49b4b6(pc), -(a7)
│           0x0049cca2      486f0016       pea.l 0x16(a7)
│           0x0049cca6      48780001       pea.l 0x1
│           0x0049ccaa      48780003       pea.l 0x3
│           0x0049ccae      4852           pea.l (a2)
│           0x0049ccb0      487aece8       pea.l MENUNUMPADCOM.hit_numpad(pc)
│           0x0049ccb4      4eb900487686   jsr MENUCOM.def_box
│           0x0049ccba      defc002c       adda.w 0x2c, a7
│           0x0049ccbe      3ebc0037       move.w 0x37, (a7)
│           0x0049ccc2      48780418       pea.l 0x418
│           0x0049ccc6      4eb90048402c   jsr MENUCOM.set_b_id
│           0x0049cccc      584f           addq.w 0x4, a7
│           0x0049ccce      3ebc0037       move.w 0x37, (a7)
│           0x0049ccd2      9efc00fc       suba.w 0xfc, a7
│           0x0049ccd6      2f3ae7e6       move.l 0x49b4be(pc), -(a7)
│           0x0049ccda      2f7ae7e60004   move.l 0x49b4c2(pc), 0x4(a7)
│           0x0049cce0      4e94           jsr (a4)                    ; fcn.0000000d
│           0x0049cce2      dec5           adda.w d5, a7
│           0x0049cce4      1ebae7e5       move.b 0x49b4cb(pc), (a7)
│           0x0049cce8      1f7ae7e20001   move.b 0x49b4cc(pc), 0x1(a7)
│           0x0049ccee      4879008192f4   pea.l 0x8192f4
│           0x0049ccf4      3f01           move.w d1, -(a7)
│           0x0049ccf6      3f3c0006       move.w 0x6, -(a7)
│           0x0049ccfa      3f04           move.w d4, -(a7)
│           0x0049ccfc      3f04           move.w d4, -(a7)
│           0x0049ccfe      1f06           move.b d6, -(a7)
│           0x0049cd00      4227           clr.b -(a7)
│           0x0049cd02      3f39008192e4   move.w 0x8192e4, -(a7)
│           0x0049cd08      4267           clr.w -(a7)
│           0x0049cd0a      2f3ae7ba       move.l 0x49b4c6(pc), -(a7)
│           0x0049cd0e      486f0018       pea.l 0x18(a7)
│           0x0049cd12      48780001       pea.l 0x1
│           0x0049cd16      48780002       pea.l 0x2
│           0x0049cd1a      4852           pea.l (a2)
│           0x0049cd1c      487aec7c       pea.l MENUNUMPADCOM.hit_numpad(pc)
│           0x0049cd20      4e93           jsr (a3)                    ; fcn.0000000c
│           0x0049cd22      defc002c       adda.w 0x2c, a7
│           0x0049cd26      3eb9008192f4   move.w 0x8192f4, (a7)
│           0x0049cd2c      4878003a       pea.l 0x3a
│           0x0049cd30      4eb90048402c   jsr MENUCOM.set_b_id
│           0x0049cd36      584f           addq.w 0x4, a7
│           0x0049cd38      3eb9008192f4   move.w 0x8192f4, (a7)
│           0x0049cd3e      9ec5           suba.w d5, a7
│           0x0049cd40      204f           movea.l a7, a0
│           0x0049cd42      43fae789       lea.l 0x49b4cd(pc), a1
│           0x0049cd46      7605           moveq 0x5, d3
│       ┌─> 0x0049cd48      10d9           move.b (a1)+, (a0)+
│       └─< 0x0049cd4a      51cbfffc       dbra d3, 0x49cd48
│           0x0049cd4e      4e94           jsr (a4)                    ; fcn.0000000d
│           0x0049cd50      dec5           adda.w d5, a7
│           0x0049cd52      1ebae785       move.b 0x49b4d9(pc), (a7)
│           0x0049cd56      1f7ae7820001   move.b 0x49b4da(pc), 0x1(a7)
│           0x0049cd5c      4879008192f2   pea.l 0x8192f2
│           0x0049cd62      7603           moveq 0x3, d3
│           0x0049cd64      9687           sub.l d7, d3
│           0x0049cd66      0c830000ffff   cmpi.l 0xffff, d3
│       ┌─< 0x0049cd6c      6302           bls.b 0x49cd70
│       │   0x0049cd6e      4e4f           trap 0xf
│       └─> 0x0049cd70      d687           add.l d7, d3
│           0x0049cd72      3f03           move.w d3, -(a7)
│           0x0049cd74      3f06           move.w d6, -(a7)
│           0x0049cd76      3f04           move.w d4, -(a7)
│           0x0049cd78      3f04           move.w d4, -(a7)
│           0x0049cd7a      1f06           move.b d6, -(a7)
│           0x0049cd7c      4227           clr.b -(a7)
│           0x0049cd7e      3f39008192e4   move.w 0x8192e4, -(a7)
│           0x0049cd84      4267           clr.w -(a7)
│           0x0049cd86      2f3ae74c       move.l 0x49b4d4(pc), -(a7)
│           0x0049cd8a      486f0018       pea.l 0x18(a7)
│           0x0049cd8e      48780001       pea.l 0x1
│           0x0049cd92      48780002       pea.l 0x2
│           0x0049cd96      4852           pea.l (a2)
│           0x0049cd98      487900481fee   pea.l MENUCOM.hit_nothing
│           0x0049cd9e      4e93           jsr (a3)                    ; fcn.0000000c
│           0x0049cda0      defc002c       adda.w 0x2c, a7
│           0x0049cda4      3eb9008192f0   move.w 0x8192f0, (a7)
│           0x0049cdaa      9ec5           suba.w d5, a7
│           0x0049cdac      204f           movea.l a7, a0
│           0x0049cdae      43fae72b       lea.l 0x49b4db(pc), a1
│           0x0049cdb2      7609           moveq 0x9, d3
│       ┌─> 0x0049cdb4      10d9           move.b (a1)+, (a0)+
│       └─< 0x0049cdb6      51cbfffc       dbra d3, 0x49cdb4
│           0x0049cdba      4e94           jsr (a4)                    ; fcn.0000000d
│           0x0049cdbc      dec5           adda.w d5, a7
│           0x0049cdbe      3eb9008192e4   move.w 0x8192e4, (a7)
│           0x0049cdc4      3f3c0038       move.w 0x38, -(a7)
│           0x0049cdc8      4eb900486f94   jsr MENUCOM.add_slave
│           0x0049cdce      544f           addq.w 0x2, a7
│           0x0049cdd0      3eb9008192e4   move.w 0x8192e4, (a7)
│           0x0049cdd6      3f3c0036       move.w 0x36, -(a7)
│           0x0049cdda      4eb900486f94   jsr MENUCOM.add_slave
│           0x0049cde0      544f           addq.w 0x2, a7
│           0x0049cde2      3eb9008192e4   move.w 0x8192e4, (a7)
│           0x0049cde8      3f3c0037       move.w 0x37, -(a7)
│           0x0049cdec      4eb900486f94   jsr MENUCOM.add_slave
│           0x0049cdf2      544f           addq.w 0x2, a7
│           0x0049cdf4      3eb9008192e4   move.w 0x8192e4, (a7)
│           0x0049cdfa      3f39008192f8   move.w 0x8192f8, -(a7)
│           0x0049ce00      4eb900486f94   jsr MENUCOM.add_slave
│           0x0049ce06      544f           addq.w 0x2, a7
│           0x0049ce08      3eb9008192e4   move.w 0x8192e4, (a7)
│           0x0049ce0e      3f39008192ec   move.w 0x8192ec, -(a7)
│           0x0049ce14      4eb900486f94   jsr MENUCOM.add_slave
│           0x0049ce1a      544f           addq.w 0x2, a7
│           0x0049ce1c      3eb9008192e4   move.w 0x8192e4, (a7)
│           0x0049ce22      3f39008192ee   move.w 0x8192ee, -(a7)
│           0x0049ce28      4eb900486f94   jsr MENUCOM.add_slave
│           0x0049ce2e      1ebae6bb       move.b 0x49b4eb(pc), (a7)
│           0x0049ce32      1f7ae6b80001   move.b 0x49b4ec(pc), 0x1(a7)
│           0x0049ce38      1f7ae6b30002   move.b 0x49b4ed(pc), 0x2(a7)
│           0x0049ce3e      3f3c003c       move.w 0x3c, -(a7)
│           0x0049ce42      3f01           move.w d1, -(a7)
│           0x0049ce44      3f3c0002       move.w 0x2, -(a7)
│           0x0049ce48      3f3c0003       move.w 0x3, -(a7)
│           0x0049ce4c      3f04           move.w d4, -(a7)
│           0x0049ce4e      1f06           move.b d6, -(a7)
│           0x0049ce50      1f04           move.b d4, -(a7)
│           0x0049ce52      3f39008192e2   move.w 0x8192e2, -(a7)
│           0x0049ce58      4267           clr.w -(a7)
│           0x0049ce5a      2f3ae68a       move.l 0x49b4e6(pc), -(a7)
│           0x0049ce5e      486f0016       pea.l 0x16(a7)
│           0x0049ce62      48780001       pea.l 0x1
│           0x0049ce66      48780003       pea.l 0x3
│           0x0049ce6a      4852           pea.l (a2)
│           0x0049ce6c      487aeb2c       pea.l MENUNUMPADCOM.hit_numpad(pc)
│           0x0049ce70      4eb900487686   jsr MENUCOM.def_box
│           0x0049ce76      defc002c       adda.w 0x2c, a7
│           0x0049ce7a      3ebc003c       move.w 0x3c, (a7)
│           0x0049ce7e      4878000d       pea.l 0xd
│           0x0049ce82      4eb90048402c   jsr MENUCOM.set_b_id
│           0x0049ce88      584f           addq.w 0x4, a7
│           0x0049ce8a      3ebc003c       move.w 0x3c, (a7)
│           0x0049ce8e      9efc00fc       suba.w 0xfc, a7
│           0x0049ce92      2f3ae65a       move.l 0x49b4ee(pc), -(a7)
│           0x0049ce96      2f7ae65a0004   move.l 0x49b4f2(pc), 0x4(a7)
│           0x0049ce9c      2f7ae6580008   move.l 0x49b4f6(pc), 0x8(a7)
│           0x0049cea2      1f7ae656000c   move.b 0x49b4fa(pc), 0xc(a7)
│           0x0049cea8      4e94           jsr (a4)                    ; fcn.0000000d
│           0x0049ceaa      dec5           adda.w d5, a7
│           0x0049ceac      1ebae653       move.b 0x49b501(pc), (a7)
│           0x0049ceb0      1f7ae6500001   move.b 0x49b502(pc), 0x1(a7)
│           0x0049ceb6      487900819312   pea.l 0x819312
│           0x0049cebc      7602           moveq 0x2, d3
│           0x0049cebe      9687           sub.l d7, d3
│           0x0049cec0      0c830000ffff   cmpi.l 0xffff, d3
│       ┌─< 0x0049cec6      6302           bls.b 0x49ceca
│       │   0x0049cec8      4e4f           trap 0xf
│       └─> 0x0049ceca      d687           add.l d7, d3
│           0x0049cecc      3f03           move.w d3, -(a7)
│           0x0049cece      3f3c0006       move.w 0x6, -(a7)
│           0x0049ced2      3f04           move.w d4, -(a7)
│           0x0049ced4      3f04           move.w d4, -(a7)
│           0x0049ced6      1f06           move.b d6, -(a7)
│           0x0049ced8      4227           clr.b -(a7)
│           0x0049ceda      3f39008192e2   move.w 0x8192e2, -(a7)
│           0x0049cee0      4267           clr.w -(a7)
│           0x0049cee2      2f3ae618       move.l 0x49b4fc(pc), -(a7)
│           0x0049cee6      486f0018       pea.l 0x18(a7)
│           0x0049ceea      48780001       pea.l 0x1
│           0x0049ceee      48780002       pea.l 0x2
│           0x0049cef2      4852           pea.l (a2)
│           0x0049cef4      487aeaa4       pea.l MENUNUMPADCOM.hit_numpad(pc)
│           0x0049cef8      4e93           jsr (a3)                    ; fcn.0000000c
│           0x0049cefa      defc002c       adda.w 0x2c, a7
│           0x0049cefe      3eb900819312   move.w 0x819312, (a7)
│           0x0049cf04      4878003d       pea.l 0x3d
│           0x0049cf08      4eb90048402c   jsr MENUCOM.set_b_id
│           0x0049cf0e      584f           addq.w 0x4, a7
│           0x0049cf10      3eb900819312   move.w 0x819312, (a7)
│           0x0049cf16      9ec5           suba.w d5, a7
│           0x0049cf18      204f           movea.l a7, a0
│           0x0049cf1a      43fae5e7       lea.l 0x49b503(pc), a1
│           0x0049cf1e      7605           moveq 0x5, d3
│       ┌─> 0x0049cf20      10d9           move.b (a1)+, (a0)+
│       └─< 0x0049cf22      51cbfffc       dbra d3, 0x49cf20
│           0x0049cf26      4e94           jsr (a4)                    ; fcn.0000000d
│           0x0049cf28      defc00f4       adda.w 0xf4, a7
│           0x0049cf2c      204f           movea.l a7, a0
│           0x0049cf2e      43fae5df       lea.l 0x49b50f(pc), a1
│           0x0049cf32      760c           moveq 0xc, d3
│       ┌─> 0x0049cf34      10d9           move.b (a1)+, (a0)+
│       └─< 0x0049cf36      51cbfffc       dbra d3, 0x49cf34
│           0x0049cf3a      4879008192e6   pea.l 0x8192e6
│           0x0049cf40      7603           moveq 0x3, d3
│           0x0049cf42      9687           sub.l d7, d3
│           0x0049cf44      0c830000ffff   cmpi.l 0xffff, d3
│       ┌─< 0x0049cf4a      6302           bls.b 0x49cf4e
│       │   0x0049cf4c      4e4f           trap 0xf
│       └─> 0x0049cf4e      d687           add.l d7, d3
│           0x0049cf50      3f03           move.w d3, -(a7)
│           0x0049cf52      3f3c0003       move.w 0x3, -(a7)
│           0x0049cf56      3f3c0003       move.w 0x3, -(a7)
│           0x0049cf5a      3f04           move.w d4, -(a7)
│           0x0049cf5c      1f3c0002       move.b 0x2, -(a7)
│           0x0049cf60      4227           clr.b -(a7)
│           0x0049cf62      3f39008192e2   move.w 0x8192e2, -(a7)
│           0x0049cf68      4267           clr.w -(a7)
│           0x0049cf6a      2f3ae59e       move.l 0x49b50a(pc), -(a7)
│           0x0049cf6e      486f0018       pea.l 0x18(a7)
│           0x0049cf72      48780001       pea.l 0x1
│           0x0049cf76      4878000d       pea.l 0xd
│           0x0049cf7a      4852           pea.l (a2)
│           0x0049cf7c      487aea1c       pea.l MENUNUMPADCOM.hit_numpad(pc)
│           0x0049cf80      4e93           jsr (a3)                    ; fcn.0000000c
│           0x0049cf82      defc0038       adda.w 0x38, a7
│           0x0049cf86      3eb9008192e6   move.w 0x8192e6, (a7)
│           0x0049cf8c      48780046       pea.l 0x46
│           0x0049cf90      4eb90048402c   jsr MENUCOM.set_b_id
│           0x0049cf96      554f           subq.w 0x2, a7
│           0x0049cf98      204f           movea.l a7, a0
│           0x0049cf9a      43fae585       lea.l 0x49b521(pc), a1
│           0x0049cf9e      7606           moveq 0x6, d3
│       ┌─> 0x0049cfa0      10d9           move.b (a1)+, (a0)+
│       └─< 0x0049cfa2      51cbfffc       dbra d3, 0x49cfa0
│           0x0049cfa6      4879008192e8   pea.l 0x8192e8
│           0x0049cfac      7603           moveq 0x3, d3
│           0x0049cfae      9687           sub.l d7, d3
│           0x0049cfb0      0c830000ffff   cmpi.l 0xffff, d3
│       ┌─< 0x0049cfb6      6302           bls.b 0x49cfba
│       │   0x0049cfb8      4e4f           trap 0xf
│       └─> 0x0049cfba      d687           add.l d7, d3
│           0x0049cfbc      3f03           move.w d3, -(a7)
│           0x0049cfbe      3f3c0004       move.w 0x4, -(a7)
│           0x0049cfc2      3f3c0003       move.w 0x3, -(a7)
│           0x0049cfc6      3f04           move.w d4, -(a7)
│           0x0049cfc8      1f3c0002       move.b 0x2, -(a7)
│           0x0049cfcc      4227           clr.b -(a7)
│           0x0049cfce      3f39008192e2   move.w 0x8192e2, -(a7)
│           0x0049cfd4      3f39008192e6   move.w 0x8192e6, -(a7)
│           0x0049cfda      2f3ae540       move.l 0x49b51c(pc), -(a7)
│           0x0049cfde      486f0018       pea.l 0x18(a7)
│           0x0049cfe2      48780001       pea.l 0x1
│           0x0049cfe6      48780007       pea.l 0x7
│           0x0049cfea      4852           pea.l (a2)
│           0x0049cfec      487ae9ac       pea.l MENUNUMPADCOM.hit_numpad(pc)
│           0x0049cff0      4e93           jsr (a3)                    ; fcn.0000000c
│           0x0049cff2      defc0032       adda.w 0x32, a7
│           0x0049cff6      3eb9008192e8   move.w 0x8192e8, (a7)
│           0x0049cffc      48780052       pea.l 0x52
│           0x0049d000      4eb90048402c   jsr MENUCOM.set_b_id
│           0x0049d006      204f           movea.l a7, a0
│           0x0049d008      43fae523       lea.l 0x49b52d(pc), a1
│           0x0049d00c      7605           moveq 0x5, d3
│       ┌─> 0x0049d00e      10d9           move.b (a1)+, (a0)+
│       └─< 0x0049d010      51cbfffc       dbra d3, 0x49d00e
│           0x0049d014      4879008192ea   pea.l 0x8192ea
│           0x0049d01a      7603           moveq 0x3, d3
│           0x0049d01c      9687           sub.l d7, d3
│           0x0049d01e      0c830000ffff   cmpi.l 0xffff, d3
│       ┌─< 0x0049d024      6302           bls.b 0x49d028
│       │   0x0049d026      4e4f           trap 0xf
│       └─> 0x0049d028      d687           add.l d7, d3
│           0x0049d02a      3f03           move.w d3, -(a7)
│           0x0049d02c      3f06           move.w d6, -(a7)
│           0x0049d02e      3f3c0003       move.w 0x3, -(a7)
│           0x0049d032      3f04           move.w d4, -(a7)
│           0x0049d034      1f06           move.b d6, -(a7)
│           0x0049d036      4227           clr.b -(a7)
│           0x0049d038      3f39008192e2   move.w 0x8192e2, -(a7)
│           0x0049d03e      4267           clr.w -(a7)
│           0x0049d040      2f3ae4e6       move.l 0x49b528(pc), -(a7)
│           0x0049d044      486f0018       pea.l 0x18(a7)
│           0x0049d048      48780001       pea.l 0x1
│           0x0049d04c      48780006       pea.l 0x6
│           0x0049d050      4852           pea.l (a2)
│           0x0049d052      487ae946       pea.l MENUNUMPADCOM.hit_numpad(pc)
│           0x0049d056      4e93           jsr (a3)                    ; fcn.0000000c
│           0x0049d058      defc0030       adda.w 0x30, a7
│           0x0049d05c      3eb9008192ea   move.w 0x8192ea, (a7)
│           0x0049d062      48780055       pea.l 0x55
│           0x0049d066      4eb90048402c   jsr MENUCOM.set_b_id
│           0x0049d06c      584f           addq.w 0x4, a7
│           0x0049d06e      3eb9008192e2   move.w 0x8192e2, (a7)
│           0x0049d074      3f39008192fa   move.w 0x8192fa, -(a7)
│           0x0049d07a      4eb900486f94   jsr MENUCOM.add_slave
│           0x0049d080      584f           addq.w 0x4, a7
│           0x0049d082      42aeffd4       clr.l -0x2c(a6)
│           0x0049d086      594f           subq.w 0x4, a7
│           0x0049d088      7601           moveq 0x1, d3
│           0x0049d08a      41ef0001       lea.l 0x1(a7), a0
│           0x0049d08e      43fae4a9       lea.l 0x49b539(pc), a1
│       ┌─> 0x0049d092      10d9           move.b (a1)+, (a0)+
│       └─< 0x0049d094      51cbfffc       dbra d3, 0x49d092
│           0x0049d098      1ebc0002       move.b 0x2, (a7)
│           0x0049d09c      5217           addq.b 0x1, (a7)
│           0x0049d09e      7600           moveq 0x0, d3
│           0x0049d0a0      43fae49a       lea.l 0x49b53c(pc), a1
│       ┌─> 0x0049d0a4      10d9           move.b (a1)+, (a0)+
│       └─< 0x0049d0a6      51cbfffc       dbra d3, 0x49d0a4
│           0x0049d0aa      2f17           move.l (a7), -(a7)
│           0x0049d0ac      487900819314   pea.l 0x819314
│           0x0049d0b2      3f02           move.w d2, -(a7)
│           0x0049d0b4      3f3c0003       move.w 0x3, -(a7)
│           0x0049d0b8      3f04           move.w d4, -(a7)
│           0x0049d0ba      3f04           move.w d4, -(a7)
│           0x0049d0bc      1f06           move.b d6, -(a7)
│           0x0049d0be      4227           clr.b -(a7)
│           0x0049d0c0      3f2e0008       move.w 0x8(a6), -(a7)
│           0x0049d0c4      4267           clr.w -(a7)
│           0x0049d0c6      2f3ae46c       move.l 0x49b534(pc), -(a7)
│           0x0049d0ca      486f0018       pea.l 0x18(a7)
│           0x0049d0ce      48780000       pea.l 0x0
│           0x0049d0d2      48780004       pea.l 0x4
│           0x0049d0d6      4852           pea.l (a2)
│           0x0049d0d8      487aece0       pea.l MENUNUMPADCOM.hit_joystick(pc)
│           0x0049d0dc      4e93           jsr (a3)                    ; fcn.0000000c
│           0x0049d0de      defc0032       adda.w 0x32, a7
│           0x0049d0e2      3eb900819314   move.w 0x819314, (a7)
│           0x0049d0e8      48780001       pea.l 0x1
│           0x0049d0ec      4eb90048402c   jsr MENUCOM.set_b_id
│           0x0049d0f2      584f           addq.w 0x4, a7
│           0x0049d0f4      3eb900819314   move.w 0x819314, (a7)
│           0x0049d0fa      9ec5           suba.w d5, a7
│           0x0049d0fc      204f           movea.l a7, a0
│           0x0049d0fe      43fae43d       lea.l 0x49b53d(pc), a1
│           0x0049d102      7605           moveq 0x5, d3
│       ┌─> 0x0049d104      10d9           move.b (a1)+, (a0)+
│       └─< 0x0049d106      51cbfffc       dbra d3, 0x49d104
│           0x0049d10a      4e94           jsr (a4)                    ; fcn.0000000d
│           0x0049d10c      defc00fe       adda.w 0xfe, a7
│           0x0049d110      7601           moveq 0x1, d3
│           0x0049d112      41ef0001       lea.l 0x1(a7), a0
│           0x0049d116      43fae431       lea.l 0x49b549(pc), a1
│       ┌─> 0x0049d11a      10d9           move.b (a1)+, (a0)+
│       └─< 0x0049d11c      51cbfffc       dbra d3, 0x49d11a
│           0x0049d120      1ebc0002       move.b 0x2, (a7)
│           0x0049d124      5217           addq.b 0x1, (a7)
│           0x0049d126      7600           moveq 0x0, d3
│           0x0049d128      43fae422       lea.l 0x49b54c(pc), a1
│       ┌─> 0x0049d12c      10d9           move.b (a1)+, (a0)+
│       └─< 0x0049d12e      51cbfffc       dbra d3, 0x49d12c
│           0x0049d132      2f17           move.l (a7), -(a7)
│           0x0049d134      487900819316   pea.l 0x819316
│           0x0049d13a      7602           moveq 0x2, d3
│           0x0049d13c      9687           sub.l d7, d3
│           0x0049d13e      0c830000ffff   cmpi.l 0xffff, d3
│       ┌─< 0x0049d144      6302           bls.b 0x49d148
│       │   0x0049d146      4e4f           trap 0xf
│       └─> 0x0049d148      d687           add.l d7, d3
│           0x0049d14a      3f03           move.w d3, -(a7)
│           0x0049d14c      3f3c0003       move.w 0x3, -(a7)
│           0x0049d150      3f04           move.w d4, -(a7)
│           0x0049d152      3f04           move.w d4, -(a7)
│           0x0049d154      1f06           move.b d6, -(a7)
│           0x0049d156      4227           clr.b -(a7)
│           0x0049d158      3f2e0008       move.w 0x8(a6), -(a7)
│           0x0049d15c      4267           clr.w -(a7)
│           0x0049d15e      2f3ae3e4       move.l 0x49b544(pc), -(a7)
│           0x0049d162      486f0018       pea.l 0x18(a7)
│           0x0049d166      48780000       pea.l 0x0
│           0x0049d16a      48780004       pea.l 0x4
│           0x0049d16e      4852           pea.l (a2)
│           0x0049d170      487aec48       pea.l MENUNUMPADCOM.hit_joystick(pc)
│           0x0049d174      4e93           jsr (a3)                    ; fcn.0000000c
│           0x0049d176      defc0032       adda.w 0x32, a7
│           0x0049d17a      3eb900819316   move.w 0x819316, (a7)
│           0x0049d180      48780002       pea.l 0x2
│           0x0049d184      4eb90048402c   jsr MENUCOM.set_b_id
│           0x0049d18a      584f           addq.w 0x4, a7
│           0x0049d18c      3eb900819316   move.w 0x819316, (a7)
│           0x0049d192      9ec5           suba.w d5, a7
│           0x0049d194      204f           movea.l a7, a0
│           0x0049d196      43fae3b5       lea.l 0x49b54d(pc), a1
│           0x0049d19a      7606           moveq 0x6, d3
│       ┌─> 0x0049d19c      10d9           move.b (a1)+, (a0)+
│       └─< 0x0049d19e      51cbfffc       dbra d3, 0x49d19c
│           0x0049d1a2      4e94           jsr (a4)                    ; fcn.0000000d
│           0x0049d1a4      defc00fe       adda.w 0xfe, a7
│           0x0049d1a8      7601           moveq 0x1, d3
│           0x0049d1aa      41ef0001       lea.l 0x1(a7), a0
│           0x0049d1ae      43fae3a9       lea.l 0x49b559(pc), a1
│       ┌─> 0x0049d1b2      10d9           move.b (a1)+, (a0)+
│       └─< 0x0049d1b4      51cbfffc       dbra d3, 0x49d1b2
│           0x0049d1b8      1ebc0002       move.b 0x2, (a7)
│           0x0049d1bc      5217           addq.b 0x1, (a7)
│           0x0049d1be      7600           moveq 0x0, d3
│           0x0049d1c0      43fae39a       lea.l 0x49b55c(pc), a1
│       ┌─> 0x0049d1c4      10d9           move.b (a1)+, (a0)+
│       └─< 0x0049d1c6      51cbfffc       dbra d3, 0x49d1c4
│           0x0049d1ca      2f17           move.l (a7), -(a7)
│           0x0049d1cc      487900819318   pea.l 0x819318
│           0x0049d1d2      7602           moveq 0x2, d3
│           0x0049d1d4      9687           sub.l d7, d3
│           0x0049d1d6      0c830000ffff   cmpi.l 0xffff, d3
│       ┌─< 0x0049d1dc      6302           bls.b 0x49d1e0
│       │   0x0049d1de      4e4f           trap 0xf
│       └─> 0x0049d1e0      d687           add.l d7, d3
│           0x0049d1e2      3f03           move.w d3, -(a7)
│           0x0049d1e4      3f3c0004       move.w 0x4, -(a7)
│           0x0049d1e8      3f04           move.w d4, -(a7)
│           0x0049d1ea      3f04           move.w d4, -(a7)
│           0x0049d1ec      1f06           move.b d6, -(a7)
│           0x0049d1ee      4227           clr.b -(a7)
│           0x0049d1f0      3f2e0008       move.w 0x8(a6), -(a7)
│           0x0049d1f4      4267           clr.w -(a7)
│           0x0049d1f6      2f3ae35c       move.l 0x49b554(pc), -(a7)
│           0x0049d1fa      486f0018       pea.l 0x18(a7)
│           0x0049d1fe      48780000       pea.l 0x0
│           0x0049d202      48780004       pea.l 0x4
│           0x0049d206      4852           pea.l (a2)
│           0x0049d208      487aebb0       pea.l MENUNUMPADCOM.hit_joystick(pc)
│           0x0049d20c      4e93           jsr (a3)                    ; fcn.0000000c
│           0x0049d20e      defc0032       adda.w 0x32, a7
│           0x0049d212      3eb900819318   move.w 0x819318, (a7)
│           0x0049d218      48780003       pea.l 0x3
│           0x0049d21c      4eb90048402c   jsr MENUCOM.set_b_id
│           0x0049d222      584f           addq.w 0x4, a7
│           0x0049d224      3eb900819318   move.w 0x819318, (a7)
│           0x0049d22a      9ec5           suba.w d5, a7
│           0x0049d22c      204f           movea.l a7, a0
│           0x0049d22e      43fae32d       lea.l 0x49b55d(pc), a1
│           0x0049d232      7605           moveq 0x5, d3
│       ┌─> 0x0049d234      10d9           move.b (a1)+, (a0)+
│       └─< 0x0049d236      51cbfffc       dbra d3, 0x49d234
│           0x0049d23a      4e94           jsr (a4)                    ; fcn.0000000d
│           0x0049d23c      defc00fe       adda.w 0xfe, a7
│           0x0049d240      7601           moveq 0x1, d3
│           0x0049d242      41ef0001       lea.l 0x1(a7), a0
│           0x0049d246      43fae321       lea.l 0x49b569(pc), a1
│       ┌─> 0x0049d24a      10d9           move.b (a1)+, (a0)+
│       └─< 0x0049d24c      51cbfffc       dbra d3, 0x49d24a
│           0x0049d250      1ebc0002       move.b 0x2, (a7)
│           0x0049d254      5217           addq.b 0x1, (a7)
│           0x0049d256      7600           moveq 0x0, d3
│           0x0049d258      43fae312       lea.l 0x49b56c(pc), a1
│       ┌─> 0x0049d25c      10d9           move.b (a1)+, (a0)+
└       └─< 0x0049d25e      51cbfffc       dbra d3, 0x49d25c
            0x0049d262      2f17           move.l (a7), -(a7)
            0x0049d264      48790081931a   pea.l 0x81931a
            0x0049d26a      7602           moveq 0x2, d3
            0x0049d26c      9687           sub.l d7, d3
            0x0049d26e      0c830000ffff   cmpi.l 0xffff, d3
        ┌─< 0x0049d274      6302           bls.b 0x49d278
        │   0x0049d276      4e4f           trap 0xf
        └─> 0x0049d278      d687           add.l d7, d3
            0x0049d27a      3f03           move.w d3, -(a7)
            0x0049d27c      3f06           move.w d6, -(a7)
            0x0049d27e      3f04           move.w d4, -(a7)
            0x0049d280      3f04           move.w d4, -(a7)
            0x0049d282      1f06           move.b d6, -(a7)
            0x0049d284      4227           clr.b -(a7)
            0x0049d286      3f2e0008       move.w 0x8(a6), -(a7)
            0x0049d28a      4267           clr.w -(a7)
            0x0049d28c      2f3ae2d6       move.l 0x49b564(pc), -(a7)
            0x0049d290      486f0018       pea.l 0x18(a7)
            0x0049d294      48780000       pea.l 0x0
            0x0049d298      48780004       pea.l 0x4
            0x0049d29c      4852           pea.l (a2)
            0x0049d29e      487aeb1a       pea.l MENUNUMPADCOM.hit_joystick(pc)
            0x0049d2a2      4e93           jsr (a3)                    ; fcn.0000000c
            0x0049d2a4      defc0032       adda.w 0x32, a7
            0x0049d2a8      3eb90081931a   move.w 0x81931a, (a7)
            0x0049d2ae      48780004       pea.l 0x4
            0x0049d2b2      4eb90048402c   jsr MENUCOM.set_b_id
            0x0049d2b8      584f           addq.w 0x4, a7
            0x0049d2ba      3eb90081931a   move.w 0x81931a, (a7)
            0x0049d2c0      9ec5           suba.w d5, a7
            0x0049d2c2      204f           movea.l a7, a0
            0x0049d2c4      43fae2a7       lea.l 0x49b56d(pc), a1
            0x0049d2c8      7606           moveq 0x6, d3
        ┌─> 0x0049d2ca      10d9           move.b (a1)+, (a0)+
        └─< 0x0049d2cc      51cbfffc       dbra d3, 0x49d2ca
            0x0049d2d0      4e94           jsr (a4)                    ; fcn.0000000d
            0x0049d2d2      defc00fe       adda.w 0xfe, a7
            0x0049d2d6      7601           moveq 0x1, d3
            0x0049d2d8      41ef0001       lea.l 0x1(a7), a0
            0x0049d2dc      43fae29b       lea.l 0x49b579(pc), a1
        ┌─> 0x0049d2e0      10d9           move.b (a1)+, (a0)+
        └─< 0x0049d2e2      51cbfffc       dbra d3, 0x49d2e0
            0x0049d2e6      1ebc0002       move.b 0x2, (a7)
            0x0049d2ea      5217           addq.b 0x1, (a7)
            0x0049d2ec      7600           moveq 0x0, d3
            0x0049d2ee      43fae28c       lea.l 0x49b57c(pc), a1
        ┌─> 0x0049d2f2      10d9           move.b (a1)+, (a0)+
        └─< 0x0049d2f4      51cbfffc       dbra d3, 0x49d2f2
            0x0049d2f8      2f17           move.l (a7), -(a7)
            0x0049d2fa      48790081931c   pea.l 0x81931c
            0x0049d300      3f02           move.w d2, -(a7)
            0x0049d302      3f06           move.w d6, -(a7)
            0x0049d304      3f04           move.w d4, -(a7)
            0x0049d306      3f04           move.w d4, -(a7)
            0x0049d308      1f06           move.b d6, -(a7)
            0x0049d30a      4227           clr.b -(a7)
            0x0049d30c      3f2e0008       move.w 0x8(a6), -(a7)
            0x0049d310      4267           clr.w -(a7)
            0x0049d312      2f3ae260       move.l 0x49b574(pc), -(a7)
            0x0049d316      486f0018       pea.l 0x18(a7)
            0x0049d31a      48780000       pea.l 0x0
            0x0049d31e      48780004       pea.l 0x4
            0x0049d322      4852           pea.l (a2)
            0x0049d324      487aea94       pea.l MENUNUMPADCOM.hit_joystick(pc)
            0x0049d328      4e93           jsr (a3)                    ; fcn.0000000c
            0x0049d32a      defc0032       adda.w 0x32, a7
            0x0049d32e      3eb90081931c   move.w 0x81931c, (a7)
            0x0049d334      48780005       pea.l 0x5
            0x0049d338      4eb90048402c   jsr MENUCOM.set_b_id
            0x0049d33e      584f           addq.w 0x4, a7
            0x0049d340      3eb90081931c   move.w 0x81931c, (a7)
            0x0049d346      9ec5           suba.w d5, a7
            0x0049d348      204f           movea.l a7, a0
            0x0049d34a      43fae231       lea.l 0x49b57d(pc), a1
            0x0049d34e      7405           moveq 0x5, d2
        ┌─> 0x0049d350      10d9           move.b (a1)+, (a0)+
        └─< 0x0049d352      51cafffc       dbra d2, 0x49d350
            0x0049d356      4e94           jsr (a4)                    ; fcn.0000000d
            0x0049d358      defc00fe       adda.w 0xfe, a7
            0x0049d35c      7401           moveq 0x1, d2
            0x0049d35e      41ef0001       lea.l 0x1(a7), a0
            0x0049d362      43fae225       lea.l 0x49b589(pc), a1
        ┌─> 0x0049d366      10d9           move.b (a1)+, (a0)+
        └─< 0x0049d368      51cafffc       dbra d2, 0x49d366
            0x0049d36c      1ebc0002       move.b 0x2, (a7)
            0x0049d370      5217           addq.b 0x1, (a7)
            0x0049d372      7400           moveq 0x0, d2
            0x0049d374      43fae216       lea.l 0x49b58c(pc), a1
        ┌─> 0x0049d378      10d9           move.b (a1)+, (a0)+
        └─< 0x0049d37a      51cafffc       dbra d2, 0x49d378
            0x0049d37e      2f17           move.l (a7), -(a7)
            0x0049d380      48790081931e   pea.l 0x81931e
            0x0049d386      3f01           move.w d1, -(a7)
            0x0049d388      3f06           move.w d6, -(a7)
            0x0049d38a      3f04           move.w d4, -(a7)
            0x0049d38c      3f04           move.w d4, -(a7)
            0x0049d38e      1f06           move.b d6, -(a7)
            0x0049d390      4227           clr.b -(a7)
            0x0049d392      3f2e0008       move.w 0x8(a6), -(a7)
            0x0049d396      4267           clr.w -(a7)
            0x0049d398      2f3ae1ea       move.l 0x49b584(pc), -(a7)
            0x0049d39c      486f0018       pea.l 0x18(a7)
            0x0049d3a0      48780000       pea.l 0x0
            0x0049d3a4      48780004       pea.l 0x4
            0x0049d3a8      4852           pea.l (a2)
            0x0049d3aa      487aea0e       pea.l MENUNUMPADCOM.hit_joystick(pc)
            0x0049d3ae      4e93           jsr (a3)                    ; fcn.0000000c
            0x0049d3b0      defc0032       adda.w 0x32, a7
            0x0049d3b4      3eb90081931e   move.w 0x81931e, (a7)
            0x0049d3ba      48780006       pea.l 0x6
            0x0049d3be      4eb90048402c   jsr MENUCOM.set_b_id
            0x0049d3c4      584f           addq.w 0x4, a7
            0x0049d3c6      3eb90081931e   move.w 0x81931e, (a7)
            0x0049d3cc      9ec5           suba.w d5, a7
            0x0049d3ce      204f           movea.l a7, a0
            0x0049d3d0      43fae1bb       lea.l 0x49b58d(pc), a1
            0x0049d3d4      7406           moveq 0x6, d2
        ┌─> 0x0049d3d6      10d9           move.b (a1)+, (a0)+
        └─< 0x0049d3d8      51cafffc       dbra d2, 0x49d3d6
            0x0049d3dc      4e94           jsr (a4)                    ; fcn.0000000d
            0x0049d3de      defc00fe       adda.w 0xfe, a7
            0x0049d3e2      7401           moveq 0x1, d2
            0x0049d3e4      41ef0001       lea.l 0x1(a7), a0
            0x0049d3e8      43fae1af       lea.l 0x49b599(pc), a1
        ┌─> 0x0049d3ec      10d9           move.b (a1)+, (a0)+
        └─< 0x0049d3ee      51cafffc       dbra d2, 0x49d3ec
            0x0049d3f2      1ebc0002       move.b 0x2, (a7)
            0x0049d3f6      5217           addq.b 0x1, (a7)
            0x0049d3f8      7400           moveq 0x0, d2
            0x0049d3fa      43fae1a0       lea.l 0x49b59c(pc), a1
        ┌─> 0x0049d3fe      10d9           move.b (a1)+, (a0)+
        └─< 0x0049d400      51cafffc       dbra d2, 0x49d3fe
            0x0049d404      2f17           move.l (a7), -(a7)
            0x0049d406      487900819320   pea.l 0x819320
            0x0049d40c      3f01           move.w d1, -(a7)
            0x0049d40e      3f3c0004       move.w 0x4, -(a7)
            0x0049d412      3f04           move.w d4, -(a7)
            0x0049d414      3f04           move.w d4, -(a7)
            0x0049d416      1f06           move.b d6, -(a7)
            0x0049d418      4227           clr.b -(a7)
            0x0049d41a      3f2e0008       move.w 0x8(a6), -(a7)
            0x0049d41e      4267           clr.w -(a7)
            0x0049d420      2f3ae172       move.l 0x49b594(pc), -(a7)
            0x0049d424      486f0018       pea.l 0x18(a7)
            0x0049d428      48780000       pea.l 0x0
            0x0049d42c      48780004       pea.l 0x4
            0x0049d430      4852           pea.l (a2)
            0x0049d432      487ae986       pea.l MENUNUMPADCOM.hit_joystick(pc)
            0x0049d436      4e93           jsr (a3)                    ; fcn.0000000c
            0x0049d438      defc0032       adda.w 0x32, a7
            0x0049d43c      3eb900819320   move.w 0x819320, (a7)
            0x0049d442      48780007       pea.l 0x7
            0x0049d446      4eb90048402c   jsr MENUCOM.set_b_id
            0x0049d44c      584f           addq.w 0x4, a7
            0x0049d44e      3eb900819320   move.w 0x819320, (a7)
            0x0049d454      9ec5           suba.w d5, a7
            0x0049d456      204f           movea.l a7, a0
            0x0049d458      43fae143       lea.l 0x49b59d(pc), a1
            0x0049d45c      7405           moveq 0x5, d2
        ┌─> 0x0049d45e      10d9           move.b (a1)+, (a0)+
        └─< 0x0049d460      51cafffc       dbra d2, 0x49d45e
            0x0049d464      4e94           jsr (a4)                    ; fcn.0000000d
            0x0049d466      defc00fe       adda.w 0xfe, a7
            0x0049d46a      7401           moveq 0x1, d2
            0x0049d46c      41ef0001       lea.l 0x1(a7), a0
            0x0049d470      43fae137       lea.l 0x49b5a9(pc), a1
        ┌─> 0x0049d474      10d9           move.b (a1)+, (a0)+
        └─< 0x0049d476      51cafffc       dbra d2, 0x49d474
            0x0049d47a      1ebc0002       move.b 0x2, (a7)
            0x0049d47e      5217           addq.b 0x1, (a7)
            0x0049d480      7400           moveq 0x0, d2
            0x0049d482      43fae128       lea.l 0x49b5ac(pc), a1
        ┌─> 0x0049d486      10d9           move.b (a1)+, (a0)+
        └─< 0x0049d488      51cafffc       dbra d2, 0x49d486
            0x0049d48c      2f17           move.l (a7), -(a7)
            0x0049d48e      487900819322   pea.l 0x819322
            0x0049d494      3f01           move.w d1, -(a7)
            0x0049d496      3f3c0003       move.w 0x3, -(a7)
            0x0049d49a      3f04           move.w d4, -(a7)
            0x0049d49c      3f04           move.w d4, -(a7)
            0x0049d49e      1f06           move.b d6, -(a7)
            0x0049d4a0      4227           clr.b -(a7)
            0x0049d4a2      3f2e0008       move.w 0x8(a6), -(a7)
            0x0049d4a6      4267           clr.w -(a7)
            0x0049d4a8      2f3ae0fa       move.l 0x49b5a4(pc), -(a7)
            0x0049d4ac      486f0018       pea.l 0x18(a7)
            0x0049d4b0      48780000       pea.l 0x0
            0x0049d4b4      48780004       pea.l 0x4
            0x0049d4b8      4852           pea.l (a2)
            0x0049d4ba      487ae8fe       pea.l MENUNUMPADCOM.hit_joystick(pc)
            0x0049d4be      4e93           jsr (a3)                    ; fcn.0000000c
            0x0049d4c0      defc0032       adda.w 0x32, a7
            0x0049d4c4      3eb900819322   move.w 0x819322, (a7)
            0x0049d4ca      48780008       pea.l 0x8
            0x0049d4ce      4eb90048402c   jsr MENUCOM.set_b_id
            0x0049d4d4      584f           addq.w 0x4, a7
            0x0049d4d6      3eb900819322   move.w 0x819322, (a7)
            0x0049d4dc      9ec5           suba.w d5, a7
            0x0049d4de      204f           movea.l a7, a0
            0x0049d4e0      43fae0cb       lea.l 0x49b5ad(pc), a1
            0x0049d4e4      7206           moveq 0x6, d1
        ┌─> 0x0049d4e6      10d9           move.b (a1)+, (a0)+
        └─< 0x0049d4e8      51c9fffc       dbra d1, 0x49d4e6
            0x0049d4ec      4e94           jsr (a4)                    ; fcn.0000000d
            0x0049d4ee      dec5           adda.w d5, a7
            0x0049d4f0      3eae0008       move.w 0x8(a6), (a7)
            0x0049d4f4      3f3c0036       move.w 0x36, -(a7)
            0x0049d4f8      4eb900486f94   jsr MENUCOM.add_slave
            0x0049d4fe      544f           addq.w 0x2, a7
            0x0049d500      3eae0008       move.w 0x8(a6), (a7)
            0x0049d504      3f3c0037       move.w 0x37, -(a7)
            0x0049d508      4eb900486f94   jsr MENUCOM.add_slave
            0x0049d50e      544f           addq.w 0x2, a7
            0x0049d510      3eae0008       move.w 0x8(a6), (a7)
            0x0049d514      3f39008192ec   move.w 0x8192ec, -(a7)
            0x0049d51a      4eb900486f94   jsr MENUCOM.add_slave
            0x0049d520      544f           addq.w 0x2, a7
            0x0049d522      3eae0008       move.w 0x8(a6), (a7)
            0x0049d526      3f39008192ee   move.w 0x8192ee, -(a7)
            0x0049d52c      4eb900486f94   jsr MENUCOM.add_slave
            0x0049d532      584f           addq.w 0x4, a7
            0x0049d534      3d40fff0       move.w d0, -0x10(a6)
            0x0049d538      3d7c0018ffec   move.w 0x18, -0x14(a6)
            0x0049d53e      3d7c002cfff8   move.w 0x2c, -0x8(a6)
            0x0049d544      204e           movea.l a6, a0
            0x0049d546      7004           moveq 0x4, d0
        ┌─> 0x0049d548      2f20           move.l -(a0), -(a7)
        └─< 0x0049d54a      51c8fffc       dbra d0, 0x49d548
            0x0049d54e      4eb900486a7e   jsr MENUCOM.set_menu_grid
            0x0049d554      defc0014       adda.w 0x14, a7
            0x0049d558      2d7c00000017.  move.l 0x17, -0x30(a6)
            0x0049d560      33ee000a0081.  move.w 0xa(a6), 0x81934a.l
            0x0049d568      7017           moveq 0x17, d0
            0x0049d56a      9087           sub.l d7, d0
            0x0049d56c      0c800000ffff   cmpi.l 0xffff, d0
        ┌─< 0x0049d572      6302           bls.b 0x49d576
        │   0x0049d574      4e4f           trap 0xf
        └─> 0x0049d576      d087           add.l d7, d0
            0x0049d578      5d4f           subq.w 0x6, a7
            0x0049d57a      204f           movea.l a7, a0
            0x0049d57c      43fae03b       lea.l 0x49b5b9(pc), a1
            0x0049d580      7204           moveq 0x4, d1
        ┌─> 0x0049d582      10d9           move.b (a1)+, (a0)+
        └─< 0x0049d584      51c9fffc       dbra d1, 0x49d582
            0x0049d588      487900819324   pea.l 0x819324
            0x0049d58e      3f00           move.w d0, -(a7)
            0x0049d590      3f04           move.w d4, -(a7)
            0x0049d592      3f04           move.w d4, -(a7)
            0x0049d594      3f04           move.w d4, -(a7)
            0x0049d596      1f06           move.b d6, -(a7)
            0x0049d598      4227           clr.b -(a7)
            0x0049d59a      3f2e000a       move.w 0xa(a6), -(a7)
            0x0049d59e      4267           clr.w -(a7)
            0x0049d5a0      2f3ae012       move.l 0x49b5b4(pc), -(a7)
            0x0049d5a4      486f0018       pea.l 0x18(a7)
            0x0049d5a8      48780001       pea.l 0x1
            0x0049d5ac      48780005       pea.l 0x5
            0x0049d5b0      4852           pea.l (a2)
            0x0049d5b2      487ae6b0       pea.l MENUNUMPADCOM.hit_datepad(pc)
            0x0049d5b6      4e93           jsr (a3)                    ; fcn.0000000c
            0x0049d5b8      defc0030       adda.w 0x30, a7
            0x0049d5bc      3eb900819324   move.w 0x819324, (a7)
            0x0049d5c2      9efc00fc       suba.w 0xfc, a7
            0x0049d5c6      2f3adff6       move.l 0x49b5be(pc), -(a7)
            0x0049d5ca      2f7adff60004   move.l 0x49b5c2(pc), 0x4(a7)
            0x0049d5d0      1f7adff40008   move.b 0x49b5c6(pc), 0x8(a7)
            0x0049d5d6      4e94           jsr (a4)                    ; fcn.0000000d
            0x0049d5d8      defc0102       adda.w 0x102, a7
            0x0049d5dc      7217           moveq 0x17, d1
            0x0049d5de      5281           addq.l 0x1, d1
            0x0049d5e0      9287           sub.l d7, d1
            0x0049d5e2      0c810000ffff   cmpi.l 0xffff, d1
        ┌─< 0x0049d5e8      6302           bls.b 0x49d5ec
        │   0x0049d5ea      4e4f           trap 0xf
        └─> 0x0049d5ec      d287           add.l d7, d1
            0x0049d5ee      514f           subq.w 0x8, a7
            0x0049d5f0      204f           movea.l a7, a0
            0x0049d5f2      43fadfd9       lea.l 0x49b5cd(pc), a1
            0x0049d5f6      7406           moveq 0x6, d2
        ┌─> 0x0049d5f8      10d9           move.b (a1)+, (a0)+
        └─< 0x0049d5fa      51cafffc       dbra d2, 0x49d5f8
            0x0049d5fe      487900819326   pea.l 0x819326
            0x0049d604      3f01           move.w d1, -(a7)
            0x0049d606      3f04           move.w d4, -(a7)
            0x0049d608      3f3c0002       move.w 0x2, -(a7)
            0x0049d60c      3f04           move.w d4, -(a7)
            0x0049d60e      1f06           move.b d6, -(a7)
            0x0049d610      4227           clr.b -(a7)
            0x0049d612      3f2e000a       move.w 0xa(a6), -(a7)
            0x0049d616      4267           clr.w -(a7)
            0x0049d618      2f3adfae       move.l 0x49b5c8(pc), -(a7)
            0x0049d61c      486f0018       pea.l 0x18(a7)
            0x0049d620      48780001       pea.l 0x1
            0x0049d624      48780007       pea.l 0x7
            0x0049d628      4852           pea.l (a2)
            0x0049d62a      487ae638       pea.l MENUNUMPADCOM.hit_datepad(pc)
            0x0049d62e      4e93           jsr (a3)                    ; fcn.0000000c
            0x0049d630      defc0032       adda.w 0x32, a7
            0x0049d634      3eb900819326   move.w 0x819326, (a7)
            0x0049d63a      9efc00fc       suba.w 0xfc, a7
            0x0049d63e      2f3adf94       move.l 0x49b5d4(pc), -(a7)
            0x0049d642      2f7adf940004   move.l 0x49b5d8(pc), 0x4(a7)
            0x0049d648      3f7adf920008   move.w 0x49b5dc(pc), 0x8(a7)
            0x0049d64e      4e94           jsr (a4)                    ; fcn.0000000d
            0x0049d650      defc00f8       adda.w 0xf8, a7
            0x0049d654      204f           movea.l a7, a0
            0x0049d656      43fadf8b       lea.l 0x49b5e3(pc), a1
            0x0049d65a      7408           moveq 0x8, d2
        ┌─> 0x0049d65c      10d9           move.b (a1)+, (a0)+
        └─< 0x0049d65e      51cafffc       dbra d2, 0x49d65c
            0x0049d662      487900819328   pea.l 0x819328
            0x0049d668      741a           moveq 0x1a, d2
            0x0049d66a      9487           sub.l d7, d2
            0x0049d66c      0c820000ffff   cmpi.l 0xffff, d2
        ┌─< 0x0049d672      6302           bls.b 0x49d676
        │   0x0049d674      4e4f           trap 0xf
        └─> 0x0049d676      d487           add.l d7, d2
            0x0049d678      3f02           move.w d2, -(a7)
            0x0049d67a      3f04           move.w d4, -(a7)
            0x0049d67c      3f04           move.w d4, -(a7)
            0x0049d67e      3f04           move.w d4, -(a7)
            0x0049d680      1f06           move.b d6, -(a7)
            0x0049d682      4227           clr.b -(a7)
            0x0049d684      3f2e000a       move.w 0xa(a6), -(a7)
            0x0049d688      4267           clr.w -(a7)
            0x0049d68a      2f3adf52       move.l 0x49b5de(pc), -(a7)
            0x0049d68e      486f0018       pea.l 0x18(a7)
            0x0049d692      48780001       pea.l 0x1
            0x0049d696      48780009       pea.l 0x9
            0x0049d69a      4852           pea.l (a2)
            0x0049d69c      487ae5c6       pea.l MENUNUMPADCOM.hit_datepad(pc)
            0x0049d6a0      4e93           jsr (a3)                    ; fcn.0000000c
            0x0049d6a2      defc0034       adda.w 0x34, a7
            0x0049d6a6      3eb900819328   move.w 0x819328, (a7)
            0x0049d6ac      9efc00fc       suba.w 0xfc, a7
            0x0049d6b0      2f3adf3a       move.l 0x49b5ec(pc), -(a7)
            0x0049d6b4      2f7adf3a0004   move.l 0x49b5f0(pc), 0x4(a7)
            0x0049d6ba      1f7adf380008   move.b 0x49b5f4(pc), 0x8(a7)
            0x0049d6c0      4e94           jsr (a4)                    ; fcn.0000000d
            0x0049d6c2      defc00f6       adda.w 0xf6, a7
            0x0049d6c6      204f           movea.l a7, a0
            0x0049d6c8      43fadf31       lea.l 0x49b5fb(pc), a1
            0x0049d6cc      740a           moveq 0xa, d2
        ┌─> 0x0049d6ce      10d9           move.b (a1)+, (a0)+
        └─< 0x0049d6d0      51cafffc       dbra d2, 0x49d6ce
            0x0049d6d4      3f3c0039       move.w 0x39, -(a7)
            0x0049d6d8      3f00           move.w d0, -(a7)
            0x0049d6da      3f3c0002       move.w 0x2, -(a7)
            0x0049d6de      3f3c0004       move.w 0x4, -(a7)
            0x0049d6e2      3f04           move.w d4, -(a7)
            0x0049d6e4      1f06           move.b d6, -(a7)
            0x0049d6e6      1f04           move.b d4, -(a7)
            0x0049d6e8      3f2e000a       move.w 0xa(a6), -(a7)
            0x0049d6ec      4267           clr.w -(a7)
            0x0049d6ee      2f3adf06       move.l 0x49b5f6(pc), -(a7)
            0x0049d6f2      486f0016       pea.l 0x16(a7)
            0x0049d6f6      48780001       pea.l 0x1
            0x0049d6fa      4878000b       pea.l 0xb
            0x0049d6fe      4852           pea.l (a2)
            0x0049d700      487ae562       pea.l MENUNUMPADCOM.hit_datepad(pc)
            0x0049d704      4eb900487686   jsr MENUCOM.def_box
            0x0049d70a      defc0034       adda.w 0x34, a7
            0x0049d70e      3ebc0039       move.w 0x39, (a7)
            0x0049d712      9efc00fc       suba.w 0xfc, a7
            0x0049d716      2f3adeee       move.l 0x49b606(pc), -(a7)
            0x0049d71a      2f7adeee0004   move.l 0x49b60a(pc), 0x4(a7)
            0x0049d720      3f7adeec0008   move.w 0x49b60e(pc), 0x8(a7)
            0x0049d726      4e94           jsr (a4)                    ; fcn.0000000d
            0x0049d728      dec5           adda.w d5, a7
            0x0049d72a      1ebadee9       move.b 0x49b615(pc), (a7)
            0x0049d72e      1f7adee60001   move.b 0x49b616(pc), 0x1(a7)
            0x0049d734      48790081932a   pea.l 0x81932a
            0x0049d73a      3f00           move.w d0, -(a7)
            0x0049d73c      3f3c0003       move.w 0x3, -(a7)
            0x0049d740      3f04           move.w d4, -(a7)
            0x0049d742      3f04           move.w d4, -(a7)
            0x0049d744      1f06           move.b d6, -(a7)
            0x0049d746      4227           clr.b -(a7)
            0x0049d748      3f2e000a       move.w 0xa(a6), -(a7)
            0x0049d74c      4267           clr.w -(a7)
            0x0049d74e      2f3adec0       move.l 0x49b610(pc), -(a7)
            0x0049d752      486f0018       pea.l 0x18(a7)
            0x0049d756      48780001       pea.l 0x1
            0x0049d75a      48780002       pea.l 0x2
            0x0049d75e      4852           pea.l (a2)
            0x0049d760      487ae502       pea.l MENUNUMPADCOM.hit_datepad(pc)
            0x0049d764      4e93           jsr (a3)                    ; fcn.0000000c
            0x0049d766      defc002c       adda.w 0x2c, a7
            0x0049d76a      3eb90081932a   move.w 0x81932a, (a7)
            0x0049d770      9ec5           suba.w d5, a7
            0x0049d772      204f           movea.l a7, a0
            0x0049d774      43fadea1       lea.l 0x49b617(pc), a1
            0x0049d778      7409           moveq 0x9, d2
        ┌─> 0x0049d77a      10d9           move.b (a1)+, (a0)+
        └─< 0x0049d77c      51cafffc       dbra d2, 0x49d77a
            0x0049d780      4e94           jsr (a4)                    ; fcn.0000000d
            0x0049d782      dec5           adda.w d5, a7
            0x0049d784      1ebadea1       move.b 0x49b627(pc), (a7)
            0x0049d788      1f7ade9e0001   move.b 0x49b628(pc), 0x1(a7)
            0x0049d78e      48790081932c   pea.l 0x81932c
            0x0049d794      3f01           move.w d1, -(a7)
            0x0049d796      3f3c0003       move.w 0x3, -(a7)
            0x0049d79a      3f04           move.w d4, -(a7)
            0x0049d79c      3f04           move.w d4, -(a7)
            0x0049d79e      1f06           move.b d6, -(a7)
            0x0049d7a0      4227           clr.b -(a7)
            0x0049d7a2      3f2e000a       move.w 0xa(a6), -(a7)
            0x0049d7a6      4267           clr.w -(a7)
            0x0049d7a8      2f3ade78       move.l 0x49b622(pc), -(a7)
            0x0049d7ac      486f0018       pea.l 0x18(a7)
            0x0049d7b0      48780001       pea.l 0x1
            0x0049d7b4      48780002       pea.l 0x2
            0x0049d7b8      4852           pea.l (a2)
            0x0049d7ba      487ae4a8       pea.l MENUNUMPADCOM.hit_datepad(pc)
            0x0049d7be      4e93           jsr (a3)                    ; fcn.0000000c
            0x0049d7c0      defc002c       adda.w 0x2c, a7
            0x0049d7c4      3eb90081932c   move.w 0x81932c, (a7)
            0x0049d7ca      9ec5           suba.w d5, a7
            0x0049d7cc      204f           movea.l a7, a0
            0x0049d7ce      43fade59       lea.l 0x49b629(pc), a1
            0x0049d7d2      7409           moveq 0x9, d2
        ┌─> 0x0049d7d4      10d9           move.b (a1)+, (a0)+
        └─< 0x0049d7d6      51cafffc       dbra d2, 0x49d7d4
            0x0049d7da      4e94           jsr (a4)                    ; fcn.0000000d
            0x0049d7dc      dec5           adda.w d5, a7
            0x0049d7de      1ebade59       move.b 0x49b639(pc), (a7)
            0x0049d7e2      1f7ade560001   move.b 0x49b63a(pc), 0x1(a7)
            0x0049d7e8      48790081932e   pea.l 0x81932e
            0x0049d7ee      7419           moveq 0x19, d2
            0x0049d7f0      9487           sub.l d7, d2
            0x0049d7f2      0c820000ffff   cmpi.l 0xffff, d2
        ┌─< 0x0049d7f8      6302           bls.b 0x49d7fc
        │   0x0049d7fa      4e4f           trap 0xf
        └─> 0x0049d7fc      d487           add.l d7, d2
            0x0049d7fe      3f02           move.w d2, -(a7)
            0x0049d800      3f3c0003       move.w 0x3, -(a7)
            0x0049d804      3f04           move.w d4, -(a7)
            0x0049d806      3f04           move.w d4, -(a7)
            0x0049d808      1f06           move.b d6, -(a7)
            0x0049d80a      4227           clr.b -(a7)
            0x0049d80c      3f2e000a       move.w 0xa(a6), -(a7)
            0x0049d810      4267           clr.w -(a7)
            0x0049d812      2f3ade20       move.l 0x49b634(pc), -(a7)
            0x0049d816      486f0018       pea.l 0x18(a7)
            0x0049d81a      48780001       pea.l 0x1
            0x0049d81e      48780002       pea.l 0x2
            0x0049d822      4852           pea.l (a2)
            0x0049d824      487ae43e       pea.l MENUNUMPADCOM.hit_datepad(pc)
            0x0049d828      4e93           jsr (a3)                    ; fcn.0000000c
            0x0049d82a      defc002c       adda.w 0x2c, a7
            0x0049d82e      3eb90081932e   move.w 0x81932e, (a7)
            0x0049d834      9ec5           suba.w d5, a7
            0x0049d836      204f           movea.l a7, a0
            0x0049d838      43fade01       lea.l 0x49b63b(pc), a1
            0x0049d83c      7409           moveq 0x9, d2
        ┌─> 0x0049d83e      10d9           move.b (a1)+, (a0)+
        └─< 0x0049d840      51cafffc       dbra d2, 0x49d83e
            0x0049d844      4e94           jsr (a4)                    ; fcn.0000000d
            0x0049d846      dec5           adda.w d5, a7
            0x0049d848      1ebade01       move.b 0x49b64b(pc), (a7)
            0x0049d84c      1f7addfe0001   move.b 0x49b64c(pc), 0x1(a7)
            0x0049d852      487900819330   pea.l 0x819330
            0x0049d858      3f00           move.w d0, -(a7)
            0x0049d85a      3f3c0004       move.w 0x4, -(a7)
            0x0049d85e      3f04           move.w d4, -(a7)
            0x0049d860      3f04           move.w d4, -(a7)
            0x0049d862      1f06           move.b d6, -(a7)
            0x0049d864      4227           clr.b -(a7)
            0x0049d866      3f2e000a       move.w 0xa(a6), -(a7)
            0x0049d86a      4267           clr.w -(a7)
            0x0049d86c      2f3addd8       move.l 0x49b646(pc), -(a7)
            0x0049d870      486f0018       pea.l 0x18(a7)
            0x0049d874      48780001       pea.l 0x1
            0x0049d878      48780002       pea.l 0x2
            0x0049d87c      4852           pea.l (a2)
            0x0049d87e      487ae3e4       pea.l MENUNUMPADCOM.hit_datepad(pc)
            0x0049d882      4e93           jsr (a3)                    ; fcn.0000000c
            0x0049d884      defc002c       adda.w 0x2c, a7
            0x0049d888      3eb900819330   move.w 0x819330, (a7)
            0x0049d88e      9ec5           suba.w d5, a7
            0x0049d890      204f           movea.l a7, a0
            0x0049d892      43faddb9       lea.l 0x49b64d(pc), a1
            0x0049d896      7409           moveq 0x9, d2
        ┌─> 0x0049d898      10d9           move.b (a1)+, (a0)+
        └─< 0x0049d89a      51cafffc       dbra d2, 0x49d898
            0x0049d89e      4e94           jsr (a4)                    ; fcn.0000000d
            0x0049d8a0      dec5           adda.w d5, a7
            0x0049d8a2      1ebaddb9       move.b 0x49b65d(pc), (a7)
            0x0049d8a6      1f7addb60001   move.b 0x49b65e(pc), 0x1(a7)
            0x0049d8ac      487900819332   pea.l 0x819332
            0x0049d8b2      3f01           move.w d1, -(a7)
            0x0049d8b4      3f3c0004       move.w 0x4, -(a7)
            0x0049d8b8      3f04           move.w d4, -(a7)
            0x0049d8ba      3f04           move.w d4, -(a7)
            0x0049d8bc      1f06           move.b d6, -(a7)
            0x0049d8be      4227           clr.b -(a7)
            0x0049d8c0      3f2e000a       move.w 0xa(a6), -(a7)
            0x0049d8c4      4267           clr.w -(a7)
            0x0049d8c6      2f3add90       move.l 0x49b658(pc), -(a7)
            0x0049d8ca      486f0018       pea.l 0x18(a7)
            0x0049d8ce      48780001       pea.l 0x1
            0x0049d8d2      48780002       pea.l 0x2
            0x0049d8d6      4852           pea.l (a2)
            0x0049d8d8      487ae38a       pea.l MENUNUMPADCOM.hit_datepad(pc)
            0x0049d8dc      4e93           jsr (a3)                    ; fcn.0000000c
            0x0049d8de      defc002c       adda.w 0x2c, a7
            0x0049d8e2      3eb900819332   move.w 0x819332, (a7)
            0x0049d8e8      9ec5           suba.w d5, a7
            0x0049d8ea      204f           movea.l a7, a0
            0x0049d8ec      43fadd71       lea.l 0x49b65f(pc), a1
            0x0049d8f0      7409           moveq 0x9, d2
        ┌─> 0x0049d8f2      10d9           move.b (a1)+, (a0)+
        └─< 0x0049d8f4      51cafffc       dbra d2, 0x49d8f2
            0x0049d8f8      4e94           jsr (a4)                    ; fcn.0000000d
            0x0049d8fa      dec5           adda.w d5, a7
            0x0049d8fc      1ebadd71       move.b 0x49b66f(pc), (a7)
            0x0049d900      1f7add6e0001   move.b 0x49b670(pc), 0x1(a7)
            0x0049d906      487900819334   pea.l 0x819334
            0x0049d90c      7419           moveq 0x19, d2
            0x0049d90e      9487           sub.l d7, d2
            0x0049d910      0c820000ffff   cmpi.l 0xffff, d2
        ┌─< 0x0049d916      6302           bls.b 0x49d91a
        │   0x0049d918      4e4f           trap 0xf
        └─> 0x0049d91a      d487           add.l d7, d2
            0x0049d91c      3f02           move.w d2, -(a7)
            0x0049d91e      3f3c0004       move.w 0x4, -(a7)
            0x0049d922      3f04           move.w d4, -(a7)
            0x0049d924      3f04           move.w d4, -(a7)
            0x0049d926      1f06           move.b d6, -(a7)
            0x0049d928      4227           clr.b -(a7)
            0x0049d92a      3f2e000a       move.w 0xa(a6), -(a7)
            0x0049d92e      4267           clr.w -(a7)
            0x0049d930      2f3add38       move.l 0x49b66a(pc), -(a7)
            0x0049d934      486f0018       pea.l 0x18(a7)
            0x0049d938      48780001       pea.l 0x1
            0x0049d93c      48780002       pea.l 0x2
            0x0049d940      4852           pea.l (a2)
            0x0049d942      487ae320       pea.l MENUNUMPADCOM.hit_datepad(pc)
            0x0049d946      4e93           jsr (a3)                    ; fcn.0000000c
            0x0049d948      defc002c       adda.w 0x2c, a7
            0x0049d94c      3eb900819334   move.w 0x819334, (a7)
            0x0049d952      9ec5           suba.w d5, a7
            0x0049d954      204f           movea.l a7, a0
            0x0049d956      43fadd19       lea.l 0x49b671(pc), a1
            0x0049d95a      7409           moveq 0x9, d2
        ┌─> 0x0049d95c      10d9           move.b (a1)+, (a0)+
        └─< 0x0049d95e      51cafffc       dbra d2, 0x49d95c
            0x0049d962      4e94           jsr (a4)                    ; fcn.0000000d
            0x0049d964      dec5           adda.w d5, a7
            0x0049d966      1ebadd19       move.b 0x49b681(pc), (a7)
            0x0049d96a      1f7add160001   move.b 0x49b682(pc), 0x1(a7)
            0x0049d970      487900819336   pea.l 0x819336
            0x0049d976      3f00           move.w d0, -(a7)
            0x0049d978      3f06           move.w d6, -(a7)
            0x0049d97a      3f04           move.w d4, -(a7)
            0x0049d97c      3f04           move.w d4, -(a7)
            0x0049d97e      1f06           move.b d6, -(a7)
            0x0049d980      4227           clr.b -(a7)
            0x0049d982      3f2e000a       move.w 0xa(a6), -(a7)
            0x0049d986      4267           clr.w -(a7)
            0x0049d988      2f3adcf2       move.l 0x49b67c(pc), -(a7)
            0x0049d98c      486f0018       pea.l 0x18(a7)
            0x0049d990      48780001       pea.l 0x1
            0x0049d994      48780002       pea.l 0x2
            0x0049d998      4852           pea.l (a2)
            0x0049d99a      487ae2c8       pea.l MENUNUMPADCOM.hit_datepad(pc)
            0x0049d99e      4e93           jsr (a3)                    ; fcn.0000000c
            0x0049d9a0      defc002c       adda.w 0x2c, a7
            0x0049d9a4      3eb900819336   move.w 0x819336, (a7)
            0x0049d9aa      9ec5           suba.w d5, a7
            0x0049d9ac      204f           movea.l a7, a0
            0x0049d9ae      43fadcd3       lea.l 0x49b683(pc), a1
            0x0049d9b2      7409           moveq 0x9, d2
        ┌─> 0x0049d9b4      10d9           move.b (a1)+, (a0)+
        └─< 0x0049d9b6      51cafffc       dbra d2, 0x49d9b4
            0x0049d9ba      4e94           jsr (a4)                    ; fcn.0000000d
            0x0049d9bc      dec5           adda.w d5, a7
            0x0049d9be      1ebadcd3       move.b 0x49b693(pc), (a7)
            0x0049d9c2      1f7adcd00001   move.b 0x49b694(pc), 0x1(a7)
            0x0049d9c8      487900819338   pea.l 0x819338
            0x0049d9ce      3f01           move.w d1, -(a7)
            0x0049d9d0      3f06           move.w d6, -(a7)
            0x0049d9d2      3f04           move.w d4, -(a7)
            0x0049d9d4      3f04           move.w d4, -(a7)
            0x0049d9d6      1f06           move.b d6, -(a7)
            0x0049d9d8      4227           clr.b -(a7)
            0x0049d9da      3f2e000a       move.w 0xa(a6), -(a7)
            0x0049d9de      4267           clr.w -(a7)
            0x0049d9e0      2f3adcac       move.l 0x49b68e(pc), -(a7)
            0x0049d9e4      486f0018       pea.l 0x18(a7)
            0x0049d9e8      48780001       pea.l 0x1
            0x0049d9ec      48780002       pea.l 0x2
            0x0049d9f0      4852           pea.l (a2)
            0x0049d9f2      487ae270       pea.l MENUNUMPADCOM.hit_datepad(pc)
            0x0049d9f6      4e93           jsr (a3)                    ; fcn.0000000c
            0x0049d9f8      defc002c       adda.w 0x2c, a7
            0x0049d9fc      3eb900819338   move.w 0x819338, (a7)
            0x0049da02      9ec5           suba.w d5, a7
            0x0049da04      204f           movea.l a7, a0
            0x0049da06      43fadc8d       lea.l 0x49b695(pc), a1
            0x0049da0a      7409           moveq 0x9, d2
        ┌─> 0x0049da0c      10d9           move.b (a1)+, (a0)+
        └─< 0x0049da0e      51cafffc       dbra d2, 0x49da0c
            0x0049da12      4e94           jsr (a4)                    ; fcn.0000000d
            0x0049da14      dec5           adda.w d5, a7
            0x0049da16      1ebadc8d       move.b 0x49b6a5(pc), (a7)
            0x0049da1a      1f7adc8a0001   move.b 0x49b6a6(pc), 0x1(a7)
            0x0049da20      48790081933a   pea.l 0x81933a
            0x0049da26      7419           moveq 0x19, d2
            0x0049da28      9487           sub.l d7, d2
            0x0049da2a      0c820000ffff   cmpi.l 0xffff, d2
        ┌─< 0x0049da30      6302           bls.b 0x49da34
        │   0x0049da32      4e4f           trap 0xf
        └─> 0x0049da34      d487           add.l d7, d2
            0x0049da36      3f02           move.w d2, -(a7)
            0x0049da38      3f06           move.w d6, -(a7)
            0x0049da3a      3f04           move.w d4, -(a7)
            0x0049da3c      3f04           move.w d4, -(a7)
            0x0049da3e      1f06           move.b d6, -(a7)
            0x0049da40      4227           clr.b -(a7)
            0x0049da42      3f2e000a       move.w 0xa(a6), -(a7)
            0x0049da46      4267           clr.w -(a7)
            0x0049da48      2f3adc56       move.l 0x49b6a0(pc), -(a7)
            0x0049da4c      486f0018       pea.l 0x18(a7)
            0x0049da50      48780001       pea.l 0x1
            0x0049da54      48780002       pea.l 0x2
            0x0049da58      4852           pea.l (a2)
            0x0049da5a      487ae208       pea.l MENUNUMPADCOM.hit_datepad(pc)
            0x0049da5e      4e93           jsr (a3)                    ; fcn.0000000c
            0x0049da60      defc002c       adda.w 0x2c, a7
            0x0049da64      3eb90081933a   move.w 0x81933a, (a7)
            0x0049da6a      9ec5           suba.w d5, a7
            0x0049da6c      204f           movea.l a7, a0
            0x0049da6e      43fadc37       lea.l 0x49b6a7(pc), a1
            0x0049da72      7409           moveq 0x9, d2
        ┌─> 0x0049da74      10d9           move.b (a1)+, (a0)+
        └─< 0x0049da76      51cafffc       dbra d2, 0x49da74
            0x0049da7a      4e94           jsr (a4)                    ; fcn.0000000d
            0x0049da7c      dec5           adda.w d5, a7
            0x0049da7e      1ebadc37       move.b 0x49b6b7(pc), (a7)
            0x0049da82      1f7adc340001   move.b 0x49b6b8(pc), 0x1(a7)
            0x0049da88      48790081933c   pea.l 0x81933c
            0x0049da8e      3f00           move.w d0, -(a7)
            0x0049da90      3f3c0006       move.w 0x6, -(a7)
            0x0049da94      3f04           move.w d4, -(a7)
            0x0049da96      3f04           move.w d4, -(a7)
            0x0049da98      1f06           move.b d6, -(a7)
            0x0049da9a      4227           clr.b -(a7)
            0x0049da9c      3f2e000a       move.w 0xa(a6), -(a7)
            0x0049daa0      4267           clr.w -(a7)
            0x0049daa2      2f3adc0e       move.l 0x49b6b2(pc), -(a7)
            0x0049daa6      486f0018       pea.l 0x18(a7)
            0x0049daaa      48780001       pea.l 0x1
            0x0049daae      48780002       pea.l 0x2
            0x0049dab2      4852           pea.l (a2)
            0x0049dab4      487ae1ae       pea.l MENUNUMPADCOM.hit_datepad(pc)
            0x0049dab8      4e93           jsr (a3)                    ; fcn.0000000c
            0x0049daba      defc002c       adda.w 0x2c, a7
            0x0049dabe      3eb90081933c   move.w 0x81933c, (a7)
            0x0049dac4      9ec5           suba.w d5, a7
            0x0049dac6      204f           movea.l a7, a0
            0x0049dac8      43fadbef       lea.l 0x49b6b9(pc), a1
            0x0049dacc      7007           moveq 0x7, d0
        ┌─> 0x0049dace      10d9           move.b (a1)+, (a0)+
        └─< 0x0049dad0      51c8fffc       dbra d0, 0x49dace
            0x0049dad4      4e94           jsr (a4)                    ; fcn.0000000d
            0x0049dad6      dec5           adda.w d5, a7
            0x0049dad8      1ebadbed       move.b 0x49b6c7(pc), (a7)
            0x0049dadc      1f7adbea0001   move.b 0x49b6c8(pc), 0x1(a7)
            0x0049dae2      48790081933e   pea.l 0x81933e
            0x0049dae8      3f01           move.w d1, -(a7)
            0x0049daea      3f3c0006       move.w 0x6, -(a7)
            0x0049daee      3f04           move.w d4, -(a7)
            0x0049daf0      3f04           move.w d4, -(a7)
            0x0049daf2      1f06           move.b d6, -(a7)
            0x0049daf4      4227           clr.b -(a7)
            0x0049daf6      3f2e000a       move.w 0xa(a6), -(a7)
            0x0049dafa      4267           clr.w -(a7)
            0x0049dafc      2f3adbc4       move.l 0x49b6c2(pc), -(a7)
            0x0049db00      486f0018       pea.l 0x18(a7)
            0x0049db04      48780001       pea.l 0x1
            0x0049db08      48780002       pea.l 0x2
            0x0049db0c      4852           pea.l (a2)
            0x0049db0e      487ae154       pea.l MENUNUMPADCOM.hit_datepad(pc)
            0x0049db12      4e93           jsr (a3)                    ; fcn.0000000c
            0x0049db14      defc002c       adda.w 0x2c, a7
            0x0049db18      3eb90081933e   move.w 0x81933e, (a7)
            0x0049db1e      9ec5           suba.w d5, a7
            0x0049db20      204f           movea.l a7, a0
            0x0049db22      43fadba5       lea.l 0x49b6c9(pc), a1
            0x0049db26      7009           moveq 0x9, d0
        ┌─> 0x0049db28      10d9           move.b (a1)+, (a0)+
        └─< 0x0049db2a      51c8fffc       dbra d0, 0x49db28
            0x0049db2e      4e94           jsr (a4)                    ; fcn.0000000d
            0x0049db30      dec5           adda.w d5, a7
            0x0049db32      1ebadba5       move.b 0x49b6d9(pc), (a7)
            0x0049db36      1f7adba20001   move.b 0x49b6da(pc), 0x1(a7)
            0x0049db3c      487900819340   pea.l 0x819340
            0x0049db42      7019           moveq 0x19, d0
            0x0049db44      9087           sub.l d7, d0
            0x0049db46      0c800000ffff   cmpi.l 0xffff, d0
        ┌─< 0x0049db4c      6302           bls.b 0x49db50
        │   0x0049db4e      4e4f           trap 0xf
        └─> 0x0049db50      d087           add.l d7, d0
            0x0049db52      3f00           move.w d0, -(a7)
            0x0049db54      3f3c0006       move.w 0x6, -(a7)
            0x0049db58      3f04           move.w d4, -(a7)
            0x0049db5a      3f04           move.w d4, -(a7)
            0x0049db5c      1f06           move.b d6, -(a7)
            0x0049db5e      4227           clr.b -(a7)
            0x0049db60      3f2e000a       move.w 0xa(a6), -(a7)
            0x0049db64      4267           clr.w -(a7)
            0x0049db66      2f3adb6c       move.l 0x49b6d4(pc), -(a7)
            0x0049db6a      486f0018       pea.l 0x18(a7)
            0x0049db6e      48780001       pea.l 0x1
            0x0049db72      48780002       pea.l 0x2
            0x0049db76      4852           pea.l (a2)
            0x0049db78      487ae0ea       pea.l MENUNUMPADCOM.hit_datepad(pc)
            0x0049db7c      4e93           jsr (a3)                    ; fcn.0000000c
            0x0049db7e      defc002c       adda.w 0x2c, a7
            0x0049db82      3eb900819340   move.w 0x819340, (a7)
            0x0049db88      9ec5           suba.w d5, a7
            0x0049db8a      204f           movea.l a7, a0
            0x0049db8c      43fadb4d       lea.l 0x49b6db(pc), a1
            0x0049db90      7007           moveq 0x7, d0
        ┌─> 0x0049db92      10d9           move.b (a1)+, (a0)+
        └─< 0x0049db94      51c8fffc       dbra d0, 0x49db92
            0x0049db98      4e94           jsr (a4)                    ; fcn.0000000d
            0x0049db9a      dec5           adda.w d5, a7
            0x0049db9c      1ebadb4b       move.b 0x49b6e9(pc), (a7)
            0x0049dba0      1f7adb480001   move.b 0x49b6ea(pc), 0x1(a7)
            0x0049dba6      487900819342   pea.l 0x819342
            0x0049dbac      701a           moveq 0x1a, d0
            0x0049dbae      9087           sub.l d7, d0
            0x0049dbb0      0c800000ffff   cmpi.l 0xffff, d0
        ┌─< 0x0049dbb6      6302           bls.b 0x49dbba
        │   0x0049dbb8      4e4f           trap 0xf
        └─> 0x0049dbba      d087           add.l d7, d0
            0x0049dbbc      3f00           move.w d0, -(a7)
            0x0049dbbe      3f3c0006       move.w 0x6, -(a7)
            0x0049dbc2      3f04           move.w d4, -(a7)
            0x0049dbc4      3f04           move.w d4, -(a7)
            0x0049dbc6      1f06           move.b d6, -(a7)
            0x0049dbc8      4227           clr.b -(a7)
            0x0049dbca      3f2e000a       move.w 0xa(a6), -(a7)
            0x0049dbce      4267           clr.w -(a7)
            0x0049dbd0      2f3adb12       move.l 0x49b6e4(pc), -(a7)
            0x0049dbd4      486f0018       pea.l 0x18(a7)
            0x0049dbd8      48780001       pea.l 0x1
            0x0049dbdc      48780002       pea.l 0x2
            0x0049dbe0      4852           pea.l (a2)
            0x0049dbe2      487ae080       pea.l MENUNUMPADCOM.hit_datepad(pc)
            0x0049dbe6      4e93           jsr (a3)                    ; fcn.0000000c
            0x0049dbe8      defc002c       adda.w 0x2c, a7
            0x0049dbec      3eb900819342   move.w 0x819342, (a7)
            0x0049dbf2      9ec5           suba.w d5, a7
            0x0049dbf4      204f           movea.l a7, a0
            0x0049dbf6      43fadaf3       lea.l 0x49b6eb(pc), a1
            0x0049dbfa      7005           moveq 0x5, d0
        ┌─> 0x0049dbfc      10d9           move.b (a1)+, (a0)+
        └─< 0x0049dbfe      51c8fffc       dbra d0, 0x49dbfc
            0x0049dc02      4e94           jsr (a4)                    ; fcn.0000000d
            0x0049dc04      dec5           adda.w d5, a7
            0x0049dc06      1ebadaef       move.b 0x49b6f7(pc), (a7)
            0x0049dc0a      1f7adaec0001   move.b 0x49b6f8(pc), 0x1(a7)
            0x0049dc10      487900819344   pea.l 0x819344
            0x0049dc16      701a           moveq 0x1a, d0
            0x0049dc18      9087           sub.l d7, d0
            0x0049dc1a      0c800000ffff   cmpi.l 0xffff, d0
        ┌─< 0x0049dc20      6302           bls.b 0x49dc24
        │   0x0049dc22      4e4f           trap 0xf
        └─> 0x0049dc24      d087           add.l d7, d0
            0x0049dc26      3f00           move.w d0, -(a7)
            0x0049dc28      3f06           move.w d6, -(a7)
            0x0049dc2a      3f04           move.w d4, -(a7)
            0x0049dc2c      3f04           move.w d4, -(a7)
            0x0049dc2e      1f06           move.b d6, -(a7)
            0x0049dc30      4227           clr.b -(a7)
            0x0049dc32      3f2e000a       move.w 0xa(a6), -(a7)
            0x0049dc36      4267           clr.w -(a7)
            0x0049dc38      2f3adab8       move.l 0x49b6f2(pc), -(a7)
            0x0049dc3c      486f0018       pea.l 0x18(a7)
            0x0049dc40      48780001       pea.l 0x1
            0x0049dc44      48780002       pea.l 0x2
            0x0049dc48      4852           pea.l (a2)
            0x0049dc4a      487ae018       pea.l MENUNUMPADCOM.hit_datepad(pc)
            0x0049dc4e      4e93           jsr (a3)                    ; fcn.0000000c
            0x0049dc50      defc002c       adda.w 0x2c, a7
            0x0049dc54      3eb900819344   move.w 0x819344, (a7)
            0x0049dc5a      9ec5           suba.w d5, a7
            0x0049dc5c      204f           movea.l a7, a0
            0x0049dc5e      43fada99       lea.l 0x49b6f9(pc), a1
            0x0049dc62      7005           moveq 0x5, d0
        ┌─> 0x0049dc64      10d9           move.b (a1)+, (a0)+
        └─< 0x0049dc66      51c8fffc       dbra d0, 0x49dc64
            0x0049dc6a      4e94           jsr (a4)                    ; fcn.0000000d
            0x0049dc6c      defc00fe       adda.w 0xfe, a7
            0x0049dc70      7001           moveq 0x1, d0
            0x0049dc72      41ef0001       lea.l 0x1(a7), a0
            0x0049dc76      43fada8d       lea.l 0x49b705(pc), a1
        ┌─> 0x0049dc7a      10d9           move.b (a1)+, (a0)+
        └─< 0x0049dc7c      51c8fffc       dbra d0, 0x49dc7a
            0x0049dc80      1ebc0002       move.b 0x2, (a7)
            0x0049dc84      5217           addq.b 0x1, (a7)
            0x0049dc86      7000           moveq 0x0, d0
            0x0049dc88      43fada7e       lea.l 0x49b708(pc), a1
        ┌─> 0x0049dc8c      10d9           move.b (a1)+, (a0)+
        └─< 0x0049dc8e      51c8fffc       dbra d0, 0x49dc8c
            0x0049dc92      2f17           move.l (a7), -(a7)
            0x0049dc94      487900819346   pea.l 0x819346
            0x0049dc9a      701a           moveq 0x1a, d0
            0x0049dc9c      9087           sub.l d7, d0
            0x0049dc9e      0c800000ffff   cmpi.l 0xffff, d0
        ┌─< 0x0049dca4      6302           bls.b 0x49dca8
        │   0x0049dca6      4e4f           trap 0xf
        └─> 0x0049dca8      d087           add.l d7, d0
            0x0049dcaa      3f00           move.w d0, -(a7)
            0x0049dcac      3f3c0003       move.w 0x3, -(a7)
            0x0049dcb0      3f04           move.w d4, -(a7)
            0x0049dcb2      3f04           move.w d4, -(a7)
            0x0049dcb4      1f06           move.b d6, -(a7)
            0x0049dcb6      4227           clr.b -(a7)
            0x0049dcb8      3f2e000a       move.w 0xa(a6), -(a7)
            0x0049dcbc      4267           clr.w -(a7)
            0x0049dcbe      2f3ada40       move.l 0x49b700(pc), -(a7)
            0x0049dcc2      486f0018       pea.l 0x18(a7)
            0x0049dcc6      48780000       pea.l 0x0
            0x0049dcca      48780004       pea.l 0x4
            0x0049dcce      4852           pea.l (a2)
            0x0049dcd0      487adf92       pea.l MENUNUMPADCOM.hit_datepad(pc)
            0x0049dcd4      4e93           jsr (a3)                    ; fcn.0000000c
            0x0049dcd6      defc0032       adda.w 0x32, a7
            0x0049dcda      3eb900819346   move.w 0x819346, (a7)
            0x0049dce0      4878041a       pea.l 0x41a
            0x0049dce4      4eb90048402c   jsr MENUCOM.set_b_id
            0x0049dcea      584f           addq.w 0x4, a7
            0x0049dcec      3eb900819346   move.w 0x819346, (a7)
            0x0049dcf2      9ec5           suba.w d5, a7
            0x0049dcf4      204f           movea.l a7, a0
            0x0049dcf6      43fada11       lea.l 0x49b709(pc), a1
            0x0049dcfa      7008           moveq 0x8, d0
        ┌─> 0x0049dcfc      10d9           move.b (a1)+, (a0)+
        └─< 0x0049dcfe      51c8fffc       dbra d0, 0x49dcfc
            0x0049dd02      4e94           jsr (a4)                    ; fcn.0000000d
            0x0049dd04      defc00fe       adda.w 0xfe, a7
            0x0049dd08      7001           moveq 0x1, d0
            0x0049dd0a      41ef0001       lea.l 0x1(a7), a0
            0x0049dd0e      43fada07       lea.l 0x49b717(pc), a1
        ┌─> 0x0049dd12      10d9           move.b (a1)+, (a0)+
        └─< 0x0049dd14      51c8fffc       dbra d0, 0x49dd12
            0x0049dd18      1ebc0002       move.b 0x2, (a7)
            0x0049dd1c      5217           addq.b 0x1, (a7)
            0x0049dd1e      7000           moveq 0x0, d0
            0x0049dd20      43fad9f8       lea.l 0x49b71a(pc), a1
        ┌─> 0x0049dd24      10d9           move.b (a1)+, (a0)+
        └─< 0x0049dd26      51c8fffc       dbra d0, 0x49dd24
            0x0049dd2a      2f17           move.l (a7), -(a7)
            0x0049dd2c      487900819348   pea.l 0x819348
            0x0049dd32      701a           moveq 0x1a, d0
            0x0049dd34      9087           sub.l d7, d0
            0x0049dd36      0c800000ffff   cmpi.l 0xffff, d0
        ┌─< 0x0049dd3c      6302           bls.b 0x49dd40
        │   0x0049dd3e      4e4f           trap 0xf
        └─> 0x0049dd40      d087           add.l d7, d0
            0x0049dd42      3f00           move.w d0, -(a7)
            0x0049dd44      3f3c0004       move.w 0x4, -(a7)
            0x0049dd48      3f04           move.w d4, -(a7)
            0x0049dd4a      3f04           move.w d4, -(a7)
            0x0049dd4c      1f06           move.b d6, -(a7)
            0x0049dd4e      4227           clr.b -(a7)
            0x0049dd50      3f2e000a       move.w 0xa(a6), -(a7)
            0x0049dd54      4267           clr.w -(a7)
            0x0049dd56      2f3ad9ba       move.l 0x49b712(pc), -(a7)
            0x0049dd5a      486f0018       pea.l 0x18(a7)
            0x0049dd5e      48780000       pea.l 0x0
            0x0049dd62      48780004       pea.l 0x4
            0x0049dd66      4852           pea.l (a2)
            0x0049dd68      487adefa       pea.l MENUNUMPADCOM.hit_datepad(pc)
            0x0049dd6c      4e93           jsr (a3)                    ; fcn.0000000c
            0x0049dd6e      defc0032       adda.w 0x32, a7
            0x0049dd72      3eb900819348   move.w 0x819348, (a7)
            0x0049dd78      48780416       pea.l 0x416
            0x0049dd7c      4eb90048402c   jsr MENUCOM.set_b_id
            0x0049dd82      584f           addq.w 0x4, a7
            0x0049dd84      3eb900819348   move.w 0x819348, (a7)
            0x0049dd8a      9ec5           suba.w d5, a7
            0x0049dd8c      204f           movea.l a7, a0
            0x0049dd8e      43fad98b       lea.l 0x49b71b(pc), a1
            0x0049dd92      7009           moveq 0x9, d0
        ┌─> 0x0049dd94      10d9           move.b (a1)+, (a0)+
        └─< 0x0049dd96      51c8fffc       dbra d0, 0x49dd94
            0x0049dd9a      4e94           jsr (a4)                    ; fcn.0000000d
            0x0049dd9c      dec5           adda.w d5, a7
            0x0049dd9e      1e84           move.b d4, (a7)
            0x0049dda0      4267           clr.w -(a7)
            0x0049dda2      4eb900487516   jsr MENUCOM.menu_group
            0x0049dda8      584f           addq.w 0x4, a7
            0x0049ddaa      4239008192df   clr.b 0x8192df
            0x0049ddb0      41eeffec       lea.l -0x14(a6), a0
            0x0049ddb4      7004           moveq 0x4, d0
        ┌─> 0x0049ddb6      2f20           move.l -(a0), -(a7)
        └─< 0x0049ddb8      51c8fffc       dbra d0, 0x49ddb6
            0x0049ddbc      4eb900486a7e   jsr MENUCOM.set_menu_grid
            0x0049ddc2      defc0014       adda.w 0x14, a7
            0x0049ddc6      4cdf1fff       movem.l (a7)+, d0-d7/a0-a4
            0x0049ddca      4e5e           unlk a6
