            ;-- MENULIBCOM:
            0x0074ccac      .byte 0x00
            0x0074ccad      .byte 0x88
            0x0074ccae      .byte 0x00
            0x0074ccaf      .byte 0x46
            0x0074ccb0      .byte 0x00
            0x0074ccb1      .byte 0xd2
            0x0074ccb2      .byte 0x00
            0x0074ccb3      .byte 0x51
            0x0074ccb4      .byte 0x00
            0x0074ccb5      .byte 0x80
            0x0074ccb6      .byte 0x00
            0x0074ccb7      .byte 0x80
            0x0074ccb8      .byte 0x00
            0x0074ccb9      .byte 0x3c
            0x0074ccba      .byte 0x00
            0x0074ccbb      .byte 0x80
            0x0074ccbc      .byte 0x00
            0x0074ccbd      .byte 0x80
            0x0074ccbe      .byte 0x00
            0x0074ccbf      .byte 0x32
            0x0074ccc0      .byte 0x00
            0x0074ccc1      .byte 0x80
            0x0074ccc2      .byte 0x00
            0x0074ccc3      .byte 0x80
            0x0074ccc4      .byte 0x00
            0x0074ccc5      .byte 0x10
            0x0074ccc6      .byte 0x00
            0x0074ccc7      .byte 0x80
            0x0074ccc8      .byte 0x00
            0x0074ccc9      .byte 0x80
            0x0074ccca      .byte 0x00
            0x0074cccb      .byte 0xa7
            0x0074cccc      .byte 0x00
            0x0074cccd      .byte 0x72
            0x0074ccce      .byte 0x00
            0x0074cccf      .byte 0x9e
            0x0074ccd0      .byte 0x00
            0x0074ccd1      .byte 0xbf
            0x0074ccd2      .byte 0x00
            0x0074ccd3      .byte 0x80
            0x0074ccd4      .byte 0x00
            0x0074ccd5      .byte 0x80
            0x0074ccd6      .byte 0x00
            0x0074ccd7      .byte 0xa0
            0x0074ccd8      .byte 0x00
            0x0074ccd9      .byte 0x96
            0x0074ccda      .byte 0x00
            0x0074ccdb      .byte 0x74
            0x0074ccdc      .byte 0x00
            0x0074ccdd      .byte 0x23
            0x0074ccde      .byte 0x00
            0x0074ccdf      .byte 0xf0
            0x0074cce0      .byte 0x00
            0x0074cce1      .byte 0x6e
            0x0074cce2      .byte 0x00
            0x0074cce3      .byte 0x8c
            0x0074cce4      .byte 0x00
            0x0074cce5      .byte 0x6e
            0x0074cce6      .byte 0x00
            0x0074cce7      .byte 0x6e
            0x0074cce8      .byte 0x00
            0x0074cce9      .byte 0xc4
            0x0074ccea      .byte 0x00
            0x0074cceb      .byte 0x31
            0x0074ccec      .byte 0x00
            0x0074cced      .byte 0x8c
            0x0074ccee      .byte 0x00
            0x0074ccef      .byte 0xa8
            0x0074ccf0      .byte 0x00
            0x0074ccf1      .byte 0x28
            0x0074ccf2      .byte 0x00
            0x0074ccf3      .byte 0xb1
            0x0074ccf4      .byte 0x00
            0x0074ccf5      .byte 0x00
            0x0074ccf6      .byte 0x00
            0x0074ccf7      .byte 0x80
            0x0074ccf8      .byte 0x00
            0x0074ccf9      .byte 0x80
            0x0074ccfa      .byte 0x00
            0x0074ccfb      .byte 0xff
            0x0074ccfc      .byte 0x00
            0x0074ccfd      .byte 0x80
            0x0074ccfe      .byte 0x00
            0x0074ccff      .byte 0x80
            0x0074cd00      .byte 0x00
            0x0074cd01      .byte 0xcc
            0x0074cd02      .byte 0x00
            0x0074cd03      .byte 0x80
            0x0074cd04      .byte 0x00
            0x0074cd05      .byte 0x80
            0x0074cd06      .byte 0x00
            0x0074cd07      .byte 0xad
            0x0074cd08      .byte 0x00
            0x0074cd09      .byte 0x80
            0x0074cd0a      .byte 0x00
            0x0074cd0b      .byte 0x80
            0x0074cd0c      .byte 0x00
            0x0074cd0d      .byte 0xeb
            0x0074cd0e      .byte 0x00
            0x0074cd0f      .byte 0x80
            0x0074cd10      .byte 0x00
            0x0074cd11      .byte 0x80
            0x0074cd12      .byte 0x00
            0x0074cd13      .byte 0x10
            0x0074cd14      .byte 0x00
            0x0074cd15      .byte 0x80
            0x0074cd16      .byte 0x00
            0x0074cd17      .byte 0x80
            0x0074cd18      .byte 0x00
            0x0074cd19      .byte 0x80
            0x0074cd1a      .byte 0x00
            0x0074cd1b      .byte 0x80
            0x0074cd1c      .byte 0x00
            0x0074cd1d      .byte 0x80
            0x0074cd1e      .byte 0x00
            0x0074cd1f      .byte 0x51
            0x0074cd20      .byte 0x00
            0x0074cd21      .byte 0x5a
            0x0074cd22      .byte 0x00
            0x0074cd23      .byte 0xf0
            0x0074cd24      .byte 0x00
            0x0074cd25      .byte 0xd2
            0x0074cd26      .byte 0x00
            0x0074cd27      .byte 0x10
            0x0074cd28      .byte 0x00
            0x0074cd29      .byte 0x92
            0x0074cd2a      .byte 0x00
            0x0074cd2b      .byte 0x29
            0x0074cd2c      .byte 0x00
            0x0074cd2d      .byte 0xf0
            0x0074cd2e      .byte 0x00
            0x0074cd2f      .byte 0x6e
            0x0074cd30      .byte 0x00
            0x0074cd31      .byte 0x91
            0x0074cd32      .byte 0x00
            0x0074cd33      .byte 0x36
            0x0074cd34      .byte 0x00
            0x0074cd35      .byte 0x22
            0x0074cd36      .byte 0x00
            0x0074cd37      .byte 0xa2
            0x0074cd38      .byte 0x00
            0x0074cd39      .byte 0x2c
            0x0074cd3a      .byte 0x00
            0x0074cd3b      .byte 0x8e
            0x0074cd3c      .byte 0x00
            0x0074cd3d      .byte 0x83
            0x0074cd3e      .byte 0x00
            0x0074cd3f      .byte 0x9c
            0x0074cd40      .byte 0x00
            0x0074cd41      .byte 0x2c
            0x0074cd42      .byte 0x00
            0x0074cd43      .byte 0x70
            0x0074cd44      .byte 0x00
            0x0074cd45      .byte 0x48
            0x0074cd46      .byte 0x00
            0x0074cd47      .byte 0x3a
            0x0074cd48      .byte 0x00
            0x0074cd49      .byte 0x54
            0x0074cd4a      .byte 0x00
            0x0074cd4b      .byte 0xb8
            0x0074cd4c      .byte 0x00
            0x0074cd4d      .byte 0xc6
            0x0074cd4e      .byte 0x00
            0x0074cd4f      .byte 0x41
            0x0074cd50      .byte 0x00
            0x0074cd51      .byte 0x64
            0x0074cd52      .byte 0x00
            0x0074cd53      .byte 0xd4
            0x0074cd54      .byte 0x00
            0x0074cd55      .byte 0x23
            0x0074cd56      .byte 0x00
            0x0074cd57      .byte 0xd4
            0x0074cd58      .byte 0x00
            0x0074cd59      .byte 0x72
            0x0074cd5a      .byte 0x00
            0x0074cd5b      .byte 0xd2
            0x0074cd5c      .byte 0x00
            0x0074cd5d      .byte 0x10
            0x0074cd5e      .byte 0x00
            0x0074cd5f      .byte 0x92
            0x0074cd60      .byte 0x00
            0x0074cd61      .byte 0xaa
            0x0074cd62      .byte 0x00
            0x0074cd63      .byte 0xa6
            0x0074cd64      .byte 0x00
            0x0074cd65      .byte 0x10
            0x0074cd66      .byte 0x00
            0x0074cd67      .byte 0x91
            0x0074cd68      .byte 0x00
            0x0074cd69      .byte 0x36
            0x0074cd6a      .byte 0x00
            0x0074cd6b      .byte 0x22
            0x0074cd6c      .byte 0x00
            0x0074cd6d      .byte 0x6a
            0x0074cd6e      .byte 0x00
            0x0074cd6f      .byte 0xca
            0x0074cd70      .byte 0x00
            0x0074cd71      .byte 0xde
            0x0074cd72      .byte 0x00
            0x0074cd73      .byte 0x51
            0x0074cd74      .byte 0x00
            0x0074cd75      .byte 0x5a
            0x0074cd76      .byte 0x00
            0x0074cd77      .byte 0xf0
            0x0074cd78      .byte 0x00
            0x0074cd79      .byte 0x29
            0x0074cd7a      .byte 0x00
            0x0074cd7b      .byte 0xf0
            0x0074cd7c      .byte 0x00
            0x0074cd7d      .byte 0x6e
            0x0074cd7e      .byte 0x00
            0x0074cd7f      .byte 0x00
            0x0074cd80      .byte 0x00
            0x0074cd81      .byte 0x00
            0x0074cd82      .byte 0x00
            0x0074cd83      .byte 0x00
            0x0074cd84      .byte 0x00
            0x0074cd85      .byte 0x00
            0x0074cd86      .byte 0x00
            0x0074cd87      .byte 0x00
            0x0074cd88      .byte 0x3f
            0x0074cd89      .byte 0x80
            0x0074cd8a      .byte 0x00
            0x0074cd8b      .byte 0x00
            0x0074cd8c      .byte 0x3f
            0x0074cd8d      .byte 0x80
            0x0074cd8e      .byte 0x00
            0x0074cd8f      .byte 0x00
            0x0074cd90      .byte 0x00
            0x0074cd91      .byte 0x00
            0x0074cd92      .byte 0x00
            0x0074cd93      .byte 0x00
            0x0074cd94      .byte 0x00
            0x0074cd95      .byte 0x00
            0x0074cd96      .byte 0x00
            0x0074cd97      .byte 0x00
            0x0074cd98      .byte 0x02
            0x0074cd99      .byte 0x00
            0x0074cd9a      .byte 0x00
            0x0074cd9b      .byte 0x00
            0x0074cd9c      .byte 0x3f
            0x0074cd9d      .byte 0x80
            0x0074cd9e      .byte 0x00
            0x0074cd9f      .byte 0x00
            0x0074cda0      .byte 0x3f
            0x0074cda1      .byte 0x80
            0x0074cda2      .byte 0x00
            0x0074cda3      .byte 0x00
            0x0074cda4      .byte 0x00
            0x0074cda5      .byte 0x00
            0x0074cda6      .byte 0x00
            0x0074cda7      .byte 0x00
            0x0074cda8      .byte 0x00
            0x0074cda9      .byte 0x00
            0x0074cdaa      .byte 0x00
            0x0074cdab      .byte 0x00
            0x0074cdac      .byte 0x00
            0x0074cdad      .byte 0x2a
            0x0074cdae      .byte 0x01
            0x0074cdaf      .byte 0x00
            0x0074cdb0      .byte 0x00
            0x0074cdb1      .byte 0x36
            0x0074cdb2      .byte 0x01
            0x0074cdb3      .byte 0x00
            0x0074cdb4      .byte 0x00
            0x0074cdb5      .byte 0x1d
            0x0074cdb6      .byte 0x02
            0x0074cdb7      .byte 0x00
            0x0074cdb8      .byte 0x01
            0x0074cdb9      .byte 0x00
            0x0074cdba      .byte 0x00
            0x0074cdbb      .byte 0x40
            0x0074cdbc      .byte 0x00
            0x0074cdbd      .byte 0x00
            0x0074cdbe      .byte 0x00
            0x0074cdbf      .byte 0x00
            0x0074cdc0      .byte 0x00
            0x0074cdc1      .byte 0x00
            0x0074cdc2      .byte 0x00
            0x0074cdc3      .byte 0x00
            0x0074cdc4      .byte 0x00
            0x0074cdc5      .byte 0x00
            0x0074cdc6      .byte 0x00
            0x0074cdc7      .byte 0x00
            0x0074cdc8      .byte 0x00
            0x0074cdc9      .byte 0x00
            0x0074cdca      .byte 0x00
            0x0074cdcb      .byte 0x00
            0x0074cdcc      .byte 0x00
            0x0074cdcd      .byte 0x00
            0x0074cdce      .byte 0x00
            0x0074cdcf      .byte 0x00
            0x0074cdd0      .byte 0x00
            0x0074cdd1      .byte 0x00
            0x0074cdd2      .byte 0x00
            0x0074cdd3      .byte 0x00
            0x0074cdd4      .byte 0x00
            0x0074cdd5      .byte 0x00
            0x0074cdd6      .byte 0x00
            0x0074cdd7      .byte 0x00
            0x0074cdd8      .byte 0x0a
            0x0074cdd9     .string "> control " ; len=10
            0x0074cde3      .byte 0x18
            0x0074cde4     .string "setup_disks_boxes. read " ; len=24
            0x0074cdfc      .byte 0x0b
            0x0074cdfd     .string "Got a node " ; len=11
            0x0074ce08      .byte 0x08
            0x0074ce09     .string ", place " ; len=8
            0x0074ce11      .byte 0x0d
            0x0074ce12     .string ", drive name " ; len=13
            0x0074ce1f      .byte 0x08
            0x0074ce20     .string ", level " ; len=8
            0x0074ce28      .byte 0x01
            0x0074ce29      .byte 0x24
            0x0074ce2a     .string "Set_retitle_disks_boxes meaningless." ; len=36
            0x0074ce4e      .byte 0x0a
            0x0074ce4f     .string "> control " ; len=10
            0x0074ce59      .byte 0x06
            0x0074ce5a     .string "shared" ; len=6
            0x0074ce60      .byte 0x0b
            0x0074ce61     .string "<<sha<r<e<d" ; len=11
            0x0074ce6c      .byte 0x1d
            0x0074ce6d     .string "setup_disk_group_boxes. read " ; len=29
            0x0074ce8a      .byte 0x0b
            0x0074ce8b     .string "Got a node " ; len=11
            0x0074ce96      .byte 0x08
            0x0074ce97     .string "supervol" ; len=8
            0x0074ce9f      .byte 0x03
            0x0074cea0      .byte 0x76
            0x0074cea1      .byte 0x6f
            0x0074cea2      .byte 0x6c
            0x0074cea3      .byte 0x06
            0x0074cea4     .string "subvol" ; len=6
            0x0074ceaa      .byte 0x0d
            0x0074ceab     .string ", drive name " ; len=13
            0x0074ceb8      .byte 0x08
            0x0074ceb9     .string ", level " ; len=8
            0x0074cec1      .byte 0x00
            0x0074cec2      .byte 0x01
            0x0074cec3      .byte 0x1e
            0x0074cec4     .string "Set_skls_disk_boxes undefined." ; len=30
            0x0074cee2      .byte 0x2c
            0x0074cee3     .string "Set_retitle_disk_boxes seriously unexpected." ; len=44
            0x0074cf0f      .byte 0x00
            0x0074cf10      .byte 0x10
            0x0074cf11      .byte 0x00
            0x0074cf12      .byte 0x00
            0x0074cf13      .byte 0x00
            0x0074cf14      .byte 0x00
            0x0074cf15      .byte 0x00
            0x0074cf16      .byte 0x00
            0x0074cf17      .byte 0x00
            0x0074cf18      .byte 0x00
            0x0074cf19      .byte 0x00
            0x0074cf1a      .byte 0x00
            0x0074cf1b      .byte 0x00
            0x0074cf1c      .byte 0x00
            0x0074cf1d      .byte 0x00
            0x0074cf1e      .byte 0x00
            0x0074cf1f      .byte 0x00
            0x0074cf20      .byte 0x00
            0x0074cf21      .byte 0x00
            0x0074cf22      .byte 0x00
            0x0074cf23      .byte 0x00
            0x0074cf24      .byte 0x00
            0x0074cf25      .byte 0x00
            0x0074cf26      .byte 0x00
            0x0074cf27      .byte 0x00
            0x0074cf28      .byte 0x00
            0x0074cf29      .byte 0x00
            0x0074cf2a      .byte 0x00
            0x0074cf2b      .byte 0x00
            0x0074cf2c      .byte 0x00
            0x0074cf2d      .byte 0x00
            0x0074cf2e      .byte 0x00
            0x0074cf2f      .byte 0x00
            0x0074cf30      .byte 0x00
            0x0074cf31      .byte 0x00
            0x0074cf32      .byte 0x00
            0x0074cf33      .byte 0x00
            0x0074cf34      .byte 0x00
            0x0074cf35      .byte 0x00
            0x0074cf36      .byte 0x00
            0x0074cf37      .byte 0x00
            0x0074cf38      .byte 0x02
            0x0074cf39      .byte 0x00
            0x0074cf3a      .byte 0x00
            0x0074cf3b      .byte 0x00
            0x0074cf3c      .byte 0x00
            0x0074cf3d      .byte 0x00
            0x0074cf3e      .byte 0x00
            0x0074cf3f      .byte 0x00
            0x0074cf40      .byte 0x00
            0x0074cf41      .byte 0x00
            0x0074cf42      .byte 0x00
            0x0074cf43      .byte 0x00
            0x0074cf44      .byte 0x30
            0x0074cf45      .byte 0x00
            0x0074cf46      .byte 0x00
            0x0074cf47      .byte 0x00
            0x0074cf48      .byte 0x60
            0x0074cf49      .byte 0x00
            0x0074cf4a      .byte 0x00
            0x0074cf4b      .byte 0x00
            0x0074cf4c      .byte 0x00
            0x0074cf4d      .byte 0x00
            0x0074cf4e      .byte 0x00
            0x0074cf4f      .byte 0x00
            0x0074cf50      .byte 0x03
            0x0074cf51      .byte 0x00
            0x0074cf52      .byte 0x00
            0x0074cf53      .byte 0x40
            0x0074cf54      .byte 0x00
            0x0074cf55      .byte 0x00
            0x0074cf56      .byte 0x00
            0x0074cf57      .byte 0x00
            0x0074cf58      .byte 0x00
            0x0074cf59      .byte 0x00
            0x0074cf5a      .byte 0x00
            0x0074cf5b      .byte 0x00
            0x0074cf5c      .byte 0x00
            0x0074cf5d      .byte 0x00
            0x0074cf5e      .byte 0x00
            0x0074cf5f      .byte 0x00
            0x0074cf60      .byte 0x00
            0x0074cf61      .byte 0x00
            0x0074cf62      .byte 0x00
            0x0074cf63      .byte 0x00
            0x0074cf64      .byte 0x00
            0x0074cf65      .byte 0x00
            0x0074cf66      .byte 0x00
            0x0074cf67      .byte 0x00
            0x0074cf68      .byte 0x00
            0x0074cf69      .byte 0x00
            0x0074cf6a      .byte 0x00
            0x0074cf6b      .byte 0x00
            0x0074cf6c      .byte 0x00
            0x0074cf6d      .byte 0x00
            0x0074cf6e      .byte 0x00
            0x0074cf6f      .byte 0x00
            0x0074cf70      .byte 0x0e
            0x0074cf71      .byte 0x03
            0x0074cf72      .byte 0x61
            0x0074cf73      .byte 0x6c
            0x0074cf74      .byte 0x6c
            0x0074cf75      .byte 0x03
            0x0074cf76      .byte 0x61
            0x0074cf77      .byte 0x6e
            0x0074cf78      .byte 0x79
            0x0074cf79      .byte 0x05
            0x0074cf7a     .string "group" ; len=5
            0x0074cf7f      .byte 0x00
            0x0074cf80      .byte 0x03
            0x0074cf81      .byte 0x00
            0x0074cf82      .byte 0x00
            0x0074cf83      .byte 0x40
            0x0074cf84      .byte 0x00
            0x0074cf85      .byte 0x00
            0x0074cf86      .byte 0x00
            0x0074cf87      .byte 0x00
            0x0074cf88      .byte 0x00
            0x0074cf89      .byte 0x00
            0x0074cf8a      .byte 0x00
            0x0074cf8b      .byte 0x00
            0x0074cf8c      .byte 0x00
            0x0074cf8d      .byte 0x00
            0x0074cf8e      .byte 0x00
            0x0074cf8f      .byte 0x00
            0x0074cf90      .byte 0x00
            0x0074cf91      .byte 0x00
            0x0074cf92      .byte 0x00
            0x0074cf93      .byte 0x00
            0x0074cf94      .byte 0x00
            0x0074cf95      .byte 0x00
            0x0074cf96      .byte 0x00
            0x0074cf97      .byte 0x00
            0x0074cf98      .byte 0x00
            0x0074cf99      .byte 0x00
            0x0074cf9a      .byte 0x00
            0x0074cf9b      .byte 0x00
            0x0074cf9c      .byte 0x00
            0x0074cf9d      .byte 0x00
            0x0074cf9e      .byte 0x00
            0x0074cf9f      .byte 0x00
            0x0074cfa0      .byte 0x03
            0x0074cfa1      .byte 0x61
            0x0074cfa2      .byte 0x6e
            0x0074cfa3      .byte 0x79
            0x0074cfa4      .byte 0x05
            0x0074cfa5     .string "group" ; len=5
            0x0074cfaa      .byte 0x03
            0x0074cfab      .byte 0x00
            0x0074cfac      .byte 0x00
            0x0074cfad      .byte 0x00
            0x0074cfae      .byte 0x00
            0x0074cfaf      .byte 0x00
            0x0074cfb0      .byte 0x00
            0x0074cfb1      .byte 0x00
            0x0074cfb2      .byte 0x00
            0x0074cfb3      .byte 0x00
            0x0074cfb4      .byte 0x00
            0x0074cfb5      .byte 0x00
            0x0074cfb6      .byte 0x00
            0x0074cfb7      .byte 0x00
            0x0074cfb8      .byte 0x00
            0x0074cfb9      .byte 0x00
            0x0074cfba      .byte 0x00
            0x0074cfbb      .byte 0x00
            0x0074cfbc      .byte 0x00
            0x0074cfbd      .byte 0x00
            0x0074cfbe      .byte 0x00
            0x0074cfbf      .byte 0x00
            0x0074cfc0      .byte 0x00
            0x0074cfc1      .byte 0x00
            0x0074cfc2      .byte 0x00
            0x0074cfc3      .byte 0x00
            0x0074cfc4      .byte 0x00
            0x0074cfc5      .byte 0x00
            0x0074cfc6      .byte 0x00
            0x0074cfc7      .byte 0x00
            0x0074cfc8      .byte 0x00
            0x0074cfc9      .byte 0x00
            0x0074cfca      .byte 0x04
            0x0074cfcb      .byte 0x00
            0x0074cfcc      .byte 0x00
            0x0074cfcd      .byte 0x00
            0x0074cfce      .byte 0x00
            0x0074cfcf      .byte 0x00
            0x0074cfd0      .byte 0x00
            0x0074cfd1      .byte 0x00
            0x0074cfd2      .byte 0x00
            0x0074cfd3      .byte 0x00
            0x0074cfd4      .byte 0x00
            0x0074cfd5      .byte 0x00
            0x0074cfd6      .byte 0x00
            0x0074cfd7      .byte 0x00
            0x0074cfd8      .byte 0x00
            0x0074cfd9      .byte 0x00
            0x0074cfda      .byte 0x00
            0x0074cfdb      .byte 0x00
            0x0074cfdc      .byte 0x00
            0x0074cfdd      .byte 0x00
            0x0074cfde      .byte 0x00
            0x0074cfdf      .byte 0x00
            0x0074cfe0      .byte 0x00
            0x0074cfe1      .byte 0x00
            0x0074cfe2      .byte 0x00
            0x0074cfe3      .byte 0x00
            0x0074cfe4      .byte 0x00
            0x0074cfe5      .byte 0x00
            0x0074cfe6      .byte 0x00
            0x0074cfe7      .byte 0x00
            0x0074cfe8      .byte 0x00
            0x0074cfe9      .byte 0x00
            0x0074cfea      .byte 0x07
            0x0074cfeb      .byte 0x00
            0x0074cfec      .byte 0x00
            0x0074cfed      .byte 0x00
            0x0074cfee      .byte 0x00
            0x0074cfef      .byte 0x00
            0x0074cff0      .byte 0x00
            0x0074cff1      .byte 0x00
            0x0074cff2      .byte 0x00
            0x0074cff3      .byte 0x00
            0x0074cff4      .byte 0x00
            0x0074cff5      .byte 0x00
            0x0074cff6      .byte 0x00
            0x0074cff7      .byte 0x00
            0x0074cff8      .byte 0x00
            0x0074cff9      .byte 0x00
            0x0074cffa      .byte 0x00
            0x0074cffb      .byte 0x00
            0x0074cffc      .byte 0x00
            0x0074cffd      .byte 0x00
            0x0074cffe      .byte 0x00
            0x0074cfff      .byte 0x00
            0x0074d000      .byte 0x00
            0x0074d001      .byte 0x00
            0x0074d002      .byte 0x00
            0x0074d003      .byte 0x00
            0x0074d004      .byte 0x00
            0x0074d005      .byte 0x00
            0x0074d006      .byte 0x00
            0x0074d007      .byte 0x00
            0x0074d008      .byte 0x00
            0x0074d009      .byte 0x00
            0x0074d00a      .byte 0x03
            0x0074d00b      .byte 0x00
            0x0074d00c      .byte 0x00
            0x0074d00d      .byte 0x40
            0x0074d00e      .byte 0x00
            0x0074d00f      .byte 0x00
            0x0074d010      .byte 0x00
            0x0074d011      .byte 0x00
            0x0074d012      .byte 0x00
            0x0074d013      .byte 0x00
            0x0074d014      .byte 0x00
            0x0074d015      .byte 0x00
            0x0074d016      .byte 0x00
            0x0074d017      .byte 0x00
            0x0074d018      .byte 0x00
            0x0074d019      .byte 0x00
            0x0074d01a      .byte 0x00
            0x0074d01b      .byte 0x00
            0x0074d01c      .byte 0x00
            0x0074d01d      .byte 0x00
            0x0074d01e      .byte 0x00
            0x0074d01f      .byte 0x00
            0x0074d020      .byte 0x00
            0x0074d021      .byte 0x00
            0x0074d022      .byte 0x00
            0x0074d023      .byte 0x00
            0x0074d024      .byte 0x00
            0x0074d025      .byte 0x00
            0x0074d026      .byte 0x00
            0x0074d027      .byte 0x00
            0x0074d028      .byte 0x00
            0x0074d029      .byte 0x00
            0x0074d02a      .byte 0x0c
            0x0074d02b      .byte 0x00
            0x0074d02c      .byte 0x0c
            0x0074d02d      .byte 0x00
            0x0074d02e      .byte 0x11
            0x0074d02f      .byte 0x00
            0x0074d030      .byte 0x00
            0x0074d031      .byte 0x40
            0x0074d032      .byte 0x00
            0x0074d033      .byte 0x00
            0x0074d034      .byte 0x00
            0x0074d035      .byte 0x00
            0x0074d036      .byte 0x00
            0x0074d037      .byte 0x00
            0x0074d038      .byte 0x00
            0x0074d039      .byte 0x00
            0x0074d03a      .byte 0x00
            0x0074d03b      .byte 0x00
            0x0074d03c      .byte 0x00
            0x0074d03d      .byte 0x00
            0x0074d03e      .byte 0x00
            0x0074d03f      .byte 0x00
            0x0074d040      .byte 0x00
            0x0074d041      .byte 0x00
            0x0074d042      .byte 0x00
            0x0074d043      .byte 0x00
            0x0074d044      .byte 0x00
            0x0074d045      .byte 0x00
            0x0074d046      .byte 0x00
            0x0074d047      .byte 0x00
            0x0074d048      .byte 0x00
            0x0074d049      .byte 0x00
            0x0074d04a      .byte 0x00
            0x0074d04b      .byte 0x00
            0x0074d04c      .byte 0x00
            0x0074d04d      .byte 0x00
            0x0074d04e      .byte 0x12
            0x0074d04f      .byte 0x00
            0x0074d050      .byte 0x00
            0x0074d051      .byte 0x00
            0x0074d052      .byte 0x00
            0x0074d053      .byte 0x00
            0x0074d054      .byte 0x00
            0x0074d055      .byte 0x00
            0x0074d056      .byte 0x00
            0x0074d057      .byte 0x00
            0x0074d058      .byte 0x00
            0x0074d059      .byte 0x00
            0x0074d05a      .byte 0x00
            0x0074d05b      .byte 0x00
            0x0074d05c      .byte 0x00
            0x0074d05d      .byte 0x00
            0x0074d05e      .byte 0x00
            0x0074d05f      .byte 0x00
            0x0074d060      .byte 0x00
            0x0074d061      .byte 0x00
            0x0074d062      .byte 0x00
            0x0074d063      .byte 0x00
            0x0074d064      .byte 0x00
            0x0074d065      .byte 0x00
            0x0074d066      .byte 0x00
            0x0074d067      .byte 0x00
            0x0074d068      .byte 0x00
            0x0074d069      .byte 0x00
            0x0074d06a      .byte 0x00
            0x0074d06b      .byte 0x00
            0x0074d06c      .byte 0x00
            0x0074d06d      .byte 0x00
            0x0074d06e      .byte 0x12
            0x0074d06f      .byte 0x00
            0x0074d070      .byte 0x00
            0x0074d071      .byte 0x00
            0x0074d072      .byte 0x00
            0x0074d073      .byte 0x00
            0x0074d074      .byte 0x00
            0x0074d075      .byte 0x00
            0x0074d076      .byte 0x00
            0x0074d077      .byte 0x00
            0x0074d078      .byte 0x00
            0x0074d079      .byte 0x00
            0x0074d07a      .byte 0x00
            0x0074d07b      .byte 0x00
            0x0074d07c      .byte 0x00
            0x0074d07d      .byte 0x00
            0x0074d07e      .byte 0x00
            0x0074d07f      .byte 0x00
            0x0074d080      .byte 0x00
            0x0074d081      .byte 0x00
            0x0074d082      .byte 0x00
            0x0074d083      .byte 0x00
            0x0074d084      .byte 0x00
            0x0074d085      .byte 0x00
            0x0074d086      .byte 0x00
            0x0074d087      .byte 0x00
            0x0074d088      .byte 0x00
            0x0074d089      .byte 0x00
            0x0074d08a      .byte 0x00
            0x0074d08b      .byte 0x00
            0x0074d08c      .byte 0x00
            0x0074d08d      .byte 0x00
            0x0074d08e      .byte 0x12
            0x0074d08f      .byte 0x00
            0x0074d090      .byte 0x00
            0x0074d091      .byte 0x00
            0x0074d092      .byte 0x00
            0x0074d093      .byte 0x00
            0x0074d094      .byte 0x00
            0x0074d095      .byte 0x00
            0x0074d096      .byte 0x00
            0x0074d097      .byte 0x00
            0x0074d098      .byte 0x00
            0x0074d099      .byte 0x00
            0x0074d09a      .byte 0x00
            0x0074d09b      .byte 0x00
            0x0074d09c      .byte 0x00
            0x0074d09d      .byte 0x00
            0x0074d09e      .byte 0x00
            0x0074d09f      .byte 0x00
            0x0074d0a0      .byte 0x00
            0x0074d0a1      .byte 0x00
            0x0074d0a2      .byte 0x00
            0x0074d0a3      .byte 0x00
            0x0074d0a4      .byte 0x00
            0x0074d0a5      .byte 0x00
            0x0074d0a6      .byte 0x00
            0x0074d0a7      .byte 0x00
            0x0074d0a8      .byte 0x00
            0x0074d0a9      .byte 0x00
            0x0074d0aa      .byte 0x00
            0x0074d0ab      .byte 0x00
            0x0074d0ac      .byte 0x00
            0x0074d0ad      .byte 0x00
            0x0074d0ae      .byte 0x0c
            0x0074d0af      .byte 0x00
            0x0074d0b0      .byte 0x01
            0x0074d0b1      .byte 0x00
            0x0074d0b2      .byte 0x00
            0x0074d0b3      .byte 0x40
            0x0074d0b4      .byte 0x00
            0x0074d0b5      .byte 0x00
            0x0074d0b6      .byte 0x00
            0x0074d0b7      .byte 0x00
            0x0074d0b8      .byte 0x00
            0x0074d0b9      .byte 0x00
            0x0074d0ba      .byte 0x00
            0x0074d0bb      .byte 0x00
            0x0074d0bc      .byte 0x00
            0x0074d0bd      .byte 0x00
            0x0074d0be      .byte 0x00
            0x0074d0bf      .byte 0x00
            0x0074d0c0      .byte 0x00
            0x0074d0c1      .byte 0x00
            0x0074d0c2      .byte 0x00
            0x0074d0c3      .byte 0x00
            0x0074d0c4      .byte 0x00
            0x0074d0c5      .byte 0x00
            0x0074d0c6      .byte 0x00
            0x0074d0c7      .byte 0x00
            0x0074d0c8      .byte 0x00
            0x0074d0c9      .byte 0x00
            0x0074d0ca      .byte 0x00
            0x0074d0cb      .byte 0x00
            0x0074d0cc      .byte 0x00
            0x0074d0cd      .byte 0x00
            0x0074d0ce      .byte 0x00
            0x0074d0cf      .byte 0x00
            0x0074d0d0      .byte 0x01
            0x0074d0d1      .byte 0x00
            0x0074d0d2      .byte 0x00
            0x0074d0d3      .byte 0x40
            0x0074d0d4      .byte 0x00
            0x0074d0d5      .byte 0x00
            0x0074d0d6      .byte 0x00
            0x0074d0d7      .byte 0x00
            0x0074d0d8      .byte 0x00
            0x0074d0d9      .byte 0x00
            0x0074d0da      .byte 0x00
            0x0074d0db      .byte 0x00
            0x0074d0dc      .byte 0x00
            0x0074d0dd      .byte 0x00
            0x0074d0de      .byte 0x00
            0x0074d0df      .byte 0x00
            0x0074d0e0      .byte 0x00
            0x0074d0e1      .byte 0x00
            0x0074d0e2      .byte 0x00
            0x0074d0e3      .byte 0x00
            0x0074d0e4      .byte 0x00
            0x0074d0e5      .byte 0x00
            0x0074d0e6      .byte 0x00
            0x0074d0e7      .byte 0x00
            0x0074d0e8      .byte 0x00
            0x0074d0e9      .byte 0x00
            0x0074d0ea      .byte 0x00
            0x0074d0eb      .byte 0x00
            0x0074d0ec      .byte 0x00
            0x0074d0ed      .byte 0x00
            0x0074d0ee      .byte 0x00
            0x0074d0ef      .byte 0x00
            0x0074d0f0      .byte 0xff
            0x0074d0f1      .byte 0xf6
            0x0074d0f2      .byte 0x00
            0x0074d0f3      .byte 0x00
            0x0074d0f4      .byte 0x01
            0x0074d0f5      .byte 0x00
            0x0074d0f6      .byte 0x00
            0x0074d0f7      .byte 0x40
            0x0074d0f8      .byte 0x00
            0x0074d0f9      .byte 0x00
            0x0074d0fa      .byte 0x00
            0x0074d0fb      .byte 0x00
            0x0074d0fc      .byte 0x00
            0x0074d0fd      .byte 0x00
            0x0074d0fe      .byte 0x00
            0x0074d0ff      .byte 0x00
            0x0074d100      .byte 0x00
            0x0074d101      .byte 0x00
            0x0074d102      .byte 0x00
            0x0074d103      .byte 0x00
            0x0074d104      .byte 0x00
            0x0074d105      .byte 0x00
            0x0074d106      .byte 0x00
            0x0074d107      .byte 0x00
            0x0074d108      .byte 0x00
            0x0074d109      .byte 0x00
            0x0074d10a      .byte 0x00
            0x0074d10b      .byte 0x00
            0x0074d10c      .byte 0x00
            0x0074d10d      .byte 0x00
            0x0074d10e      .byte 0x00
            0x0074d10f      .byte 0x00
            0x0074d110      .byte 0x00
            0x0074d111      .byte 0x00
            0x0074d112      .byte 0x00
            0x0074d113      .byte 0x00
            0x0074d114      .byte 0x00
            0x0074d115      .byte 0x0a
            0x0074d116      .byte 0x00
            0x0074d117      .byte 0x00
            0x0074d118      .byte 0x0c
            0x0074d119      .byte 0x00
            0x0074d11a      .byte 0x03
            0x0074d11b      .byte 0x00
            0x0074d11c      .byte 0x01
            0x0074d11d      .byte 0x00
            0x0074d11e      .byte 0x02
            0x0074d11f      .byte 0x28
            0x0074d120     .string "Unreal box for skl field. Current field " ; len=40
            0x0074d148      .byte 0x0c
            0x0074d149      .byte 0x0e
            0x0074d14a     .string "Push real box." ; len=14
            0x0074d158      .byte 0x0e
            0x0074d159     .string "Current field " ; len=14
            0x0074d167      .byte 0x0b
            0x0074d168     .string ", unselect " ; len=11
            0x0074d173      .byte 0x00
            0x0074d174      .byte 0x00
            0x0074d175      .byte 0x79
            0x0074d176      .byte 0x00
            0x0074d177      .byte 0x00
            0x0074d178     .string ",Unreal box for retitle field. Current field " ; len=45
            0x0074d1a5      .byte 0x0b
            0x0074d1a6     .string ", unselect " ; len=11
            0x0074d1b1      .byte 0x0e
            0x0074d1b2     .string "Current field " ; len=14
            0x0074d1c0      .byte 0x1e
            0x0074d1c1      .byte 0x1e
            0x0074d1c2      .byte 0x00
            0x0074d1c3      .byte 0x00
            0x0074d1c4      .byte 0x01
            0x0074d1c5      .byte 0x00
            0x0074d1c6      .byte 0x00
            0x0074d1c7      .byte 0x01
            0x0074d1c8      .byte 0x00
            0x0074d1c9      .byte 0x00
            0x0074d1ca      .byte 0x0e
            0x0074d1cb      .byte 0x00
            0x0074d1cc      .byte 0x00
            0x0074d1cd      .byte 0x01
            0x0074d1ce      .byte 0x00
            0x0074d1cf      .byte 0x00
            0x0074d1d0      .byte 0x0e
            0x0074d1d1      .byte 0x00
            0x0074d1d2      .byte 0xa0
            0x0074d1d3      .byte 0x00
            0x0074d1d4      .byte 0x00
            0x0074d1d5      .byte 0x00
            0x0074d1d6      .byte 0x03
            0x0074d1d7      .byte 0x00
            0x0074d1d8      .byte 0x40
            0x0074d1d9      .byte 0x00
            0x0074d1da      .byte 0x00
            0x0074d1db      .byte 0x00
            0x0074d1dc      .byte 0x0e
            0x0074d1dd      .byte 0x79
            0x0074d1de      .byte 0x00
            0x0074d1df      .byte 0x00
            0x0074d1e0      .byte 0x07
            0x0074d1e1     .string "$search" ; len=7
            0x0074d1e8      .byte 0x05
            0x0074d1e9     .string "$keep" ; len=5
            0x0074d1ee      .byte 0x05
            0x0074d1ef     .string "$lose" ; len=5
            0x0074d1f4      .byte 0x07
            0x0074d1f5     .string "$recall" ; len=7
            0x0074d1fc      .byte 0x08
            0x0074d1fd     .string "do_sklr " ; len=8
            0x0074d205      .byte 0x0c
            0x0074d206     .string "end do_sklr " ; len=12
            0x0074d212      .byte 0x0a
            0x0074d213     .string "Save time " ; len=10
            0x0074d21d      .byte 0x02
            0x0074d21e      .byte 0x4f
            0x0074d21f      .byte 0x4b
            0x0074d220      .byte 0x02
            0x0074d221      .byte 0x4f
            0x0074d222      .byte 0x4b
            0x0074d223      .byte 0x00
            0x0074d224      .byte 0x0c
            0x0074d225      .byte 0x04
            0x0074d226      .byte 0x67
            0x0074d227      .byte 0x72
            0x0074d228      .byte 0x69
            0x0074d229      .byte 0x64
            0x0074d22a      .byte 0x09
            0x0074d22b     .string "%>>magn, " ; len=9
            0x0074d234      .byte 0x03
            0x0074d235      .byte 0x20
            0x0074d236      .byte 0x78
            0x0074d237      .byte 0x20
            0x0074d238      .byte 0x07
            0x0074d239     .string ">>>>pix" ; len=7
            0x0074d240      .byte 0x08
            0x0074d241     .string "<<<whole" ; len=8
            0x0074d249      .byte 0x00
            0x0074d24a      .byte 0x24
            0x0074d24b      .byte 0x00
            0x0074d24c      .byte 0x00
            0x0074d24d      .byte 0x00
            0x0074d24e      .byte 0x00
            0x0074d24f      .byte 0x00
            0x0074d250      .byte 0x00
            0x0074d251      .byte 0x00
            0x0074d252      .byte 0x00
            0x0074d253      .byte 0x00
            0x0074d254      .byte 0x00
            0x0074d255      .byte 0x00
            0x0074d256      .byte 0x00
            0x0074d257      .byte 0x00
            0x0074d258      .byte 0x00
            0x0074d259      .byte 0x00
            0x0074d25a      .byte 0x00
            0x0074d25b      .byte 0x00
            0x0074d25c      .byte 0x00
            0x0074d25d      .byte 0x00
            0x0074d25e      .byte 0x00
            0x0074d25f      .byte 0x00
            0x0074d260      .byte 0x00
            0x0074d261      .byte 0x00
            0x0074d262      .byte 0x00
            0x0074d263      .byte 0x00
            0x0074d264      .byte 0x00
            0x0074d265      .byte 0x00
            0x0074d266      .byte 0x00
            0x0074d267      .byte 0x00
            0x0074d268      .byte 0x00
            0x0074d269      .byte 0x00
            0x0074d26a      .byte 0x0f
            0x0074d26b     .string "lib_hit_skl op " ; len=15
            0x0074d27a      .byte 0x08
            0x0074d27b     .string ", field " ; len=8
            0x0074d283      .byte 0x00
            0x0074d284      .byte 0x10
            0x0074d285      .byte 0x00
            0x0074d286      .byte 0x00
            0x0074d287      .byte 0x00
            0x0074d288      .byte 0x30
            0x0074d289      .byte 0x00
            0x0074d28a      .byte 0x00
            0x0074d28b      .byte 0x00
            0x0074d28c      .byte 0x06
            0x0074d28d      .byte 0x0f
            0x0074d28e     .string "No action done." ; len=15
            0x0074d29d      .byte 0x09
            0x0074d29e     .string "retitling" ; len=9
            0x0074d2a7      .byte 0x00
            0x0074d2a8      .byte 0x00
            0x0074d2a9      .byte 0x40
            0x0074d2aa      .byte 0x1c
            0x0074d2ab      .byte 0x20
            0x0074d2ac      .byte 0x04
            0x0074d2ad      .byte 0x00
            0x0074d2ae      .byte 0x00
            0x0074d2af      .byte 0x00
            0x0074d2b0      .byte 0x00
            0x0074d2b1      .byte 0x00
            0x0074d2b2      .byte 0x00
            0x0074d2b3      .byte 0x00
            0x0074d2b4      .byte 0x00
            0x0074d2b5      .byte 0x00
            0x0074d2b6      .byte 0x00
            0x0074d2b7      .byte 0x00
            0x0074d2b8      .byte 0x00
            0x0074d2b9      .byte 0x00
            0x0074d2ba      .byte 0x00
            0x0074d2bb      .byte 0x00
            0x0074d2bc      .byte 0x00
            0x0074d2bd      .byte 0x00
            0x0074d2be      .byte 0x00
            0x0074d2bf      .byte 0x00
            0x0074d2c0      .byte 0x00
            0x0074d2c1      .byte 0x00
            0x0074d2c2      .byte 0x00
            0x0074d2c3      .byte 0x00
            0x0074d2c4      .byte 0x00
            0x0074d2c5      .byte 0x00
            0x0074d2c6      .byte 0x00
            0x0074d2c7      .byte 0x00
            0x0074d2c8      .byte 0x0c
            0x0074d2c9     .string "hit_library " ; len=12
            0x0074d2d5      .byte 0x02
            0x0074d2d6      .byte 0x2c
            0x0074d2d7      .byte 0x20
            0x0074d2d8      .byte 0x06
            0x0074d2d9     .string ", pos " ; len=6
            0x0074d2df      .byte 0x00
            0x0074d2e0      .byte 0x03
            0x0074d2e1      .byte 0x00
            0x0074d2e2      .byte 0x00
            0x0074d2e3      .byte 0x40
            0x0074d2e4      .byte 0x00
            0x0074d2e5      .byte 0x00
            0x0074d2e6      .byte 0x00
            0x0074d2e7      .byte 0x00
            0x0074d2e8      .byte 0x00
            0x0074d2e9      .byte 0x00
            0x0074d2ea      .byte 0x00
            0x0074d2eb      .byte 0x00
            0x0074d2ec      .byte 0x00
            0x0074d2ed      .byte 0x00
            0x0074d2ee      .byte 0x00
            0x0074d2ef      .byte 0x00
            0x0074d2f0      .byte 0x00
            0x0074d2f1      .byte 0x00
            0x0074d2f2      .byte 0x00
            0x0074d2f3      .byte 0x00
            0x0074d2f4      .byte 0x00
            0x0074d2f5      .byte 0x00
            0x0074d2f6      .byte 0x00
            0x0074d2f7      .byte 0x00
            0x0074d2f8      .byte 0x00
            0x0074d2f9      .byte 0x00
            0x0074d2fa      .byte 0x00
            0x0074d2fb      .byte 0x00
            0x0074d2fc      .byte 0x00
            0x0074d2fd      .byte 0x00
            0x0074d2fe      .byte 0x00
            0x0074d2ff      .byte 0x00
            0x0074d300     .string " param_update and keyboard_ascii." ; len=33
            0x0074d321      .byte 0x00
            0x0074d322      .byte 0x18
            0x0074d323      .byte 0x00
            0x0074d324      .byte 0x18
            0x0074d325      .byte 0x0c
            0x0074d326     .string "lib key hit " ; len=12
            0x0074d332      .byte 0x12
            0x0074d333     .string "compose return hit" ; len=18
            0x0074d345      .byte 0x1d
            0x0074d346     .string "!! Not library and active. !!" ; len=29
            0x0074d363      .byte 0x17
            0x0074d364     .string "non-compose return hit." ; len=23
            0x0074d37b      .byte 0x1b
            0x0074d37c     .string "compose non-return key hit." ; len=27
            0x0074d397      .byte 0x1f
            0x0074d398     .string "non-compose non-return key hit." ; len=31
            0x0074d3b7      .byte 0x00
            0x0074d3b8      .byte 0x00
            0x0074d3b9      .byte 0x00
            0x0074d3ba      .byte 0x00
            0x0074d3bb      .byte 0x00
            0x0074d3bc      .byte 0x00
            0x0074d3bd      .byte 0x00
            0x0074d3be      .byte 0x00
            0x0074d3bf      .byte 0x00
            0x0074d3c0      .byte 0x00
            0x0074d3c1      .byte 0x00
            0x0074d3c2      .byte 0x00
            0x0074d3c3      .byte 0x00
            0x0074d3c4      .byte 0x01
            0x0074d3c5      .byte 0x01
            0x0074d3c6      .byte 0x01
            0x0074d3c7      .byte 0x00
            0x0074d3c8      .byte 0x00
            0x0074d3c9      .byte 0x01
            0x0074d3ca      .byte 0x01
            0x0074d3cb      .byte 0x01
            0x0074d3cc      .byte 0x01
            0x0074d3cd      .byte 0x01
            0x0074d3ce      .byte 0x01
            0x0074d3cf      .byte 0x01
            0x0074d3d0      .byte 0x01
            0x0074d3d1      .byte 0x01
            0x0074d3d2      .byte 0x01
            0x0074d3d3      .byte 0x01
            0x0074d3d4      .byte 0x01
            0x0074d3d5      .byte 0x01
            0x0074d3d6      .byte 0x01
            0x0074d3d7      .byte 0x01
            0x0074d3d8      .byte 0x01
            0x0074d3d9      .byte 0x01
            0x0074d3da      .byte 0x00
            0x0074d3db      .byte 0x00
            0x0074d3dc      .byte 0x00
            0x0074d3dd      .byte 0x00
            0x0074d3de      .byte 0x00
            0x0074d3df      .byte 0x00
            0x0074d3e0      .byte 0x00
            0x0074d3e1      .byte 0x00
            0x0074d3e2      .byte 0x00
            0x0074d3e3      .byte 0x00
            0x0074d3e4      .byte 0x00
            0x0074d3e5      .byte 0x00
            0x0074d3e6      .byte 0x00
            0x0074d3e7      .byte 0x01
            0x0074d3e8      .byte 0x01
            0x0074d3e9      .byte 0x01
            0x0074d3ea      .byte 0x01
            0x0074d3eb      .byte 0x00
            0x0074d3ec      .byte 0x01
            0x0074d3ed      .byte 0x00
            0x0074d3ee      .byte 0x01
            0x0074d3ef      .byte 0x01
            0x0074d3f0      .byte 0x01
            0x0074d3f1      .byte 0x01
            0x0074d3f2      .byte 0x01
            0x0074d3f3      .byte 0x01
            0x0074d3f4      .byte 0x00
            0x0074d3f5      .byte 0x01
            0x0074d3f6      .byte 0x01
            0x0074d3f7      .byte 0x01
            0x0074d3f8      .byte 0x01
            0x0074d3f9      .byte 0x01
            0x0074d3fa      .byte 0x01
            0x0074d3fb      .byte 0x00
            0x0074d3fc      .byte 0x01
            0x0074d3fd      .byte 0x01
            0x0074d3fe      .byte 0x01
            0x0074d3ff      .byte 0x01
            0x0074d400      .byte 0x01
            0x0074d401      .byte 0x01
            0x0074d402      .byte 0x01
            0x0074d403      .byte 0x01
            0x0074d404      .byte 0x01
            0x0074d405      .byte 0x01
            0x0074d406      .byte 0x01
            0x0074d407      .byte 0x01
            0x0074d408      .byte 0x01
            0x0074d409      .byte 0x01
            0x0074d40a      .byte 0x01
            0x0074d40b      .byte 0x01
            0x0074d40c      .byte 0x01
            0x0074d40d      .byte 0x01
            0x0074d40e      .byte 0x01
            0x0074d40f      .byte 0x00
            0x0074d410      .byte 0x00
            0x0074d411      .byte 0x0e
            0x0074d412      .byte 0x00
            0x0074d413      .byte 0x01
            0x0074d414      .byte 0x00
            0x0074d415      .byte 0x0e
            0x0074d416      .byte 0x00
            0x0074d417      .byte 0x02
            0x0074d418      .byte 0x00
            0x0074d419      .byte 0x0e
            0x0074d41a      .byte 0x00
            0x0074d41b      .byte 0x03
            0x0074d41c      .byte 0x00
            0x0074d41d      .byte 0x0e
            0x0074d41e      .byte 0x00
            0x0074d41f      .byte 0x04
            0x0074d420      .byte 0x00
            0x0074d421      .byte 0x0e
            0x0074d422      .byte 0x00
            0x0074d423      .byte 0x05
            0x0074d424      .byte 0x00
            0x0074d425      .byte 0x13
            0x0074d426      .byte 0x00
            0x0074d427      .byte 0x01
            0x0074d428      .byte 0x00
            0x0074d429      .byte 0x13
            0x0074d42a      .byte 0x00
            0x0074d42b      .byte 0x02
            0x0074d42c      .byte 0x00
            0x0074d42d      .byte 0x13
            0x0074d42e      .byte 0x00
            0x0074d42f      .byte 0x03
            0x0074d430      .byte 0x00
            0x0074d431      .byte 0x13
            0x0074d432      .byte 0x00
            0x0074d433      .byte 0x04
            0x0074d434      .byte 0x00
            0x0074d435      .byte 0x18
            0x0074d436      .byte 0x00
            0x0074d437      .byte 0x01
            0x0074d438      .byte 0x00
            0x0074d439      .byte 0x18
            0x0074d43a      .byte 0x00
            0x0074d43b      .byte 0x02
            0x0074d43c      .byte 0x00
            0x0074d43d      .byte 0x18
            0x0074d43e      .byte 0x00
            0x0074d43f      .byte 0x03
            0x0074d440      .byte 0x00
            0x0074d441      .byte 0x18
            0x0074d442      .byte 0x00
            0x0074d443      .byte 0x04
            0x0074d444      .byte 0x00
            0x0074d445      .byte 0x18
            0x0074d446      .byte 0x00
            0x0074d447      .byte 0x02
            0x0074d448      .byte 0x00
            0x0074d449      .byte 0x18
            0x0074d44a      .byte 0x00
            0x0074d44b      .byte 0x03
            0x0074d44c      .byte 0x00
            0x0074d44d      .byte 0x1d
            0x0074d44e      .byte 0x00
            0x0074d44f      .byte 0x02
            0x0074d450      .byte 0x00
            0x0074d451      .byte 0x1d
            0x0074d452      .byte 0x00
            0x0074d453      .byte 0x03
            0x0074d454      .byte 0x00
            0x0074d455      .byte 0x1d
            0x0074d456      .byte 0x00
            0x0074d457      .byte 0x01
            0x0074d458      .byte 0x00
            0x0074d459      .byte 0x1d
            0x0074d45a      .byte 0x00
            0x0074d45b      .byte 0x02
            0x0074d45c      .byte 0x00
            0x0074d45d      .byte 0x1d
            0x0074d45e      .byte 0x00
            0x0074d45f      .byte 0x03
            0x0074d460      .byte 0x00
            0x0074d461      .byte 0x1d
            0x0074d462      .byte 0x00
            0x0074d463      .byte 0x04
            0x0074d464      .byte 0x00
            0x0074d465      .byte 0x1d
            0x0074d466      .byte 0x00
            0x0074d467      .byte 0x05
            0x0074d468      .byte 0x00
            0x0074d469      .byte 0x00
            0x0074d46a      .byte 0x00
            0x0074d46b      .byte 0x00
            0x0074d46c      .byte 0x00
            0x0074d46d      .byte 0x0e
            0x0074d46e      .byte 0x00
            0x0074d46f      .byte 0x01
            0x0074d470      .byte 0x00
            0x0074d471      .byte 0x0e
            0x0074d472      .byte 0x00
            0x0074d473      .byte 0x02
            0x0074d474      .byte 0x00
            0x0074d475      .byte 0x0e
            0x0074d476      .byte 0x00
            0x0074d477      .byte 0x03
            0x0074d478      .byte 0x00
            0x0074d479      .byte 0x0e
            0x0074d47a      .byte 0x00
            0x0074d47b      .byte 0x04
            0x0074d47c      .byte 0x00
            0x0074d47d      .byte 0x13
            0x0074d47e      .byte 0x00
            0x0074d47f      .byte 0x01
            0x0074d480      .byte 0x00
            0x0074d481      .byte 0x00
            0x0074d482      .byte 0x00
            0x0074d483      .byte 0x00
            0x0074d484      .byte 0x00
            0x0074d485      .byte 0x00
            0x0074d486      .byte 0x00
            0x0074d487      .byte 0x00
            0x0074d488      .byte 0x02
            0x0074d489      .byte 0x20
            0x0074d48a      .byte 0x20
            0x0074d48b      .byte 0x0b
            0x0074d48c     .string "type report" ; len=11
            0x0074d497      .byte 0x07
            0x0074d498     .string "on line" ; len=7
            0x0074d49f      .byte 0x08
            0x0074d4a0     .string "clip man" ; len=8
            0x0074d4a8      .byte 0x04
            0x0074d4a9      .byte 0x61
            0x0074d4aa      .byte 0x72
            0x0074d4ab      .byte 0x63
            0x0074d4ac      .byte 0x68
            0x0074d4ad      .byte 0x04
            0x0074d4ae      .byte 0x68
            0x0074d4af      .byte 0x69
            0x0074d4b0      .byte 0x73
            0x0074d4b1      .byte 0x74
            0x0074d4b2      .byte 0x00
            0x0074d4b3      .byte 0x40
            0x0074d4b4      .byte 0x60
            0x0074d4b5      .byte 0x00
            0x0074d4b6      .byte 0x00
            0x0074d4b7      .byte 0x00
            0x0074d4b8      .byte 0x02
            0x0074d4b9      .byte 0x3c
            0x0074d4ba      .byte 0x3e
            0x0074d4bb      .byte 0x02
            0x0074d4bc      .byte 0x20
            0x0074d4bd      .byte 0x20
            0x0074d4be      .byte 0x03
            0x0074d4bf      .byte 0x00
            0x0074d4c0      .byte 0x00
            0x0074d4c1      .byte 0x40
            0x0074d4c2      .byte 0x00
            0x0074d4c3      .byte 0x00
            0x0074d4c4      .byte 0x00
            0x0074d4c5      .byte 0x00
            0x0074d4c6      .byte 0x00
            0x0074d4c7      .byte 0x00
            0x0074d4c8      .byte 0x00
            0x0074d4c9      .byte 0x00
            0x0074d4ca      .byte 0x00
            0x0074d4cb      .byte 0x00
            0x0074d4cc      .byte 0x00
            0x0074d4cd      .byte 0x00
            0x0074d4ce      .byte 0x00
            0x0074d4cf      .byte 0x00
            0x0074d4d0      .byte 0x00
            0x0074d4d1      .byte 0x00
            0x0074d4d2      .byte 0x00
            0x0074d4d3      .byte 0x00
            0x0074d4d4      .byte 0x00
            0x0074d4d5      .byte 0x00
            0x0074d4d6      .byte 0x00
            0x0074d4d7      .byte 0x00
            0x0074d4d8      .byte 0x00
            0x0074d4d9      .byte 0x00
            0x0074d4da      .byte 0x00
            0x0074d4db      .byte 0x00
            0x0074d4dc      .byte 0x00
            0x0074d4dd      .byte 0x00
            0x0074d4de      .byte 0x07
            0x0074d4df     .string "<gr<oup" ; len=7
            0x0074d4e6      .byte 0x05
            0x0074d4e7     .string "<<any" ; len=5
            0x0074d4ec      .byte 0x05
            0x0074d4ed     .string "group" ; len=5
            0x0074d4f2      .byte 0x07
            0x0074d4f3     .string "on line" ; len=7
            0x0074d4fa      .byte 0x08
            0x0074d4fb     .string "clip man" ; len=8
            0x0074d503      .byte 0x04
            0x0074d504      .byte 0x61
            0x0074d505      .byte 0x72
            0x0074d506      .byte 0x63
            0x0074d507      .byte 0x68
            0x0074d508      .byte 0x04
            0x0074d509      .byte 0x68
            0x0074d50a      .byte 0x69
            0x0074d50b      .byte 0x73
            0x0074d50c      .byte 0x74
            0x0074d50d      .byte 0x05
            0x0074d50e     .string "fresh" ; len=5
            0x0074d513      .byte 0x0a
            0x0074d514     .string "save fresh" ; len=10
            0x0074d51e      .byte 0x07
            0x0074d51f     .string "<gr<oup" ; len=7
            0x0074d526      .byte 0x05
            0x0074d527     .string "<<any" ; len=5
            0x0074d52c      .byte 0x08
            0x0074d52d     .string "no disk " ; len=8
            0x0074d535      .byte 0x01
            0x0074d536      .byte 0x20
            0x0074d537      .byte 0x07
            0x0074d538     .string "*group " ; len=7
            0x0074d53f      .byte 0x04
            0x0074d540      .byte 0x6f
            0x0074d541      .byte 0x6e
            0x0074d542      .byte 0x6c
            0x0074d543      .byte 0x79
            0x0074d544      .byte 0x05
            0x0074d545     .string "*pair" ; len=5
            0x0074d54a      .byte 0x04
            0x0074d54b      .byte 0x66
            0x0074d54c      .byte 0x72
            0x0074d54d      .byte 0x6f
            0x0074d54e      .byte 0x6d
            0x0074d54f      .byte 0x02
            0x0074d550      .byte 0x74
            0x0074d551      .byte 0x6f
            0x0074d552      .byte 0x0f
            0x0074d553     .string "*from not clear" ; len=15
            0x0074d562      .byte 0x05
            0x0074d563     .string "clear" ; len=5
            0x0074d568      .byte 0x0a
            0x0074d569     .string "clear from" ; len=10
            0x0074d573      .byte 0x0d
            0x0074d574     .string "*to not clear" ; len=13
            0x0074d581      .byte 0x05
            0x0074d582     .string "clear" ; len=5
            0x0074d587      .byte 0x08
            0x0074d588     .string "clear to" ; len=8
            0x0074d590      .byte 0x02
            0x0074d591      .byte 0x3c
            0x0074d592      .byte 0x3e
            0x0074d593      .byte 0x08
            0x0074d594     .string "num from" ; len=8
            0x0074d59c      .byte 0x02
            0x0074d59d      .byte 0x3c
            0x0074d59e      .byte 0x3e
            0x0074d59f      .byte 0x09
            0x0074d5a0     .string "number to" ; len=9
            0x0074d5a9      .byte 0x05
            0x0074d5aa     .string "start" ; len=5
            0x0074d5af      .byte 0x03
            0x0074d5b0      .byte 0x65
            0x0074d5b1      .byte 0x6e
            0x0074d5b2      .byte 0x64
            0x0074d5b3      .byte 0x09
            0x0074d5b4     .string "all files" ; len=9
            0x0074d5bd      .byte 0x0d
            0x0074d5be     .string "all number<ed" ; len=13
            0x0074d5cb      .byte 0x03
            0x0074d5cc      .byte 0x6e
            0x0074d5cd      .byte 0x75
            0x0074d5ce      .byte 0x6d
            0x0074d5cf      .byte 0x0c
            0x0074d5d0     .string "*n not clear" ; len=12
            0x0074d5dc      .byte 0x05
            0x0074d5dd     .string "clear" ; len=5
            0x0074d5e2      .byte 0x02
            0x0074d5e3      .byte 0x3c
            0x0074d5e4      .byte 0x3e
            0x0074d5e5      .byte 0x0d
            0x0074d5e6     .string "single number" ; len=13
            0x0074d5f3      .byte 0x04
            0x0074d5f4      .byte 0x6e
            0x0074d5f5      .byte 0x6f
            0x0074d5f6      .byte 0x6e
            0x0074d5f7      .byte 0x65
            0x0074d5f8      .byte 0x0c
            0x0074d5f9     .string "*n not clear" ; len=12
            0x0074d605      .byte 0x05
            0x0074d606     .string "clear" ; len=5
            0x0074d60b      .byte 0x02
            0x0074d60c      .byte 0x3c
            0x0074d60d      .byte 0x3e
            0x0074d60e      .byte 0x06
            0x0074d60f     .string "number" ; len=6
            0x0074d615      .byte 0x04
            0x0074d616      .byte 0x6e
            0x0074d617      .byte 0x6f
            0x0074d618      .byte 0x6e
            0x0074d619      .byte 0x65
            0x0074d61a      .byte 0x04
            0x0074d61b      .byte 0x6f
            0x0074d61c      .byte 0x6e
            0x0074d61d      .byte 0x6c
            0x0074d61e      .byte 0x79
            0x0074d61f      .byte 0x05
            0x0074d620     .string "*pair" ; len=5
            0x0074d625      .byte 0x05
            0x0074d626     .string "from " ; len=5
            0x0074d62b      .byte 0x06
            0x0074d62c     .string "to    " ; len=6
            0x0074d632      .byte 0x06
            0x0074d633     .string "before" ; len=6
            0x0074d639      .byte 0x05
            0x0074d63a     .string "after" ; len=5
            0x0074d63f      .byte 0x07
            0x0074d640     .string "<<today" ; len=7
            0x0074d647      .byte 0x03
            0x0074d648      .byte 0x61
            0x0074d649      .byte 0x6c
            0x0074d64a      .byte 0x6c
            0x0074d64b      .byte 0x05
            0x0074d64c     .string "date " ; len=5
            0x0074d651      .byte 0x07
            0x0074d652     .string "<<today" ; len=7
            0x0074d659      .byte 0x05
            0x0074d65a     .string "clear" ; len=5
            0x0074d65f      .byte 0x06
            0x0074d660     .string "date  " ; len=6
            0x0074d666      .byte 0x07
            0x0074d667     .string "<<today" ; len=7
            0x0074d66e      .byte 0x05
            0x0074d66f     .string "clear" ; len=5
            0x0074d674      .byte 0x04
            0x0074d675      .byte 0x2a
            0x0074d676      .byte 0x74
            0x0074d677      .byte 0x61
            0x0074d678      .byte 0x62
            0x0074d679      .byte 0x08
            0x0074d67a     .string "*backtab" ; len=8
            0x0074d682      .byte 0x04
            0x0074d683      .byte 0x6e
            0x0074d684      .byte 0x61
            0x0074d685      .byte 0x6d
            0x0074d686      .byte 0x65
            0x0074d687      .byte 0x00
            0x0074d688      .byte 0x03
            0x0074d689      .byte 0x05
            0x0074d68a     .string "owner" ; len=5
            0x0074d68f      .byte 0x04
            0x0074d690      .byte 0x63
            0x0074d691      .byte 0x61
            0x0074d692      .byte 0x74
            0x0074d693      .byte 0x73
            0x0074d694      .byte 0x04
            0x0074d695      .byte 0x2a
            0x0074d696      .byte 0x74
            0x0074d697      .byte 0x61
            0x0074d698      .byte 0x62
            0x0074d699      .byte 0x08
            0x0074d69a     .string "*backtab" ; len=8
            0x0074d6a2      .byte 0x0a
            0x0074d6a3     .string "*type none" ; len=10
            0x0074d6ad      .byte 0x06
            0x0074d6ae     .string "*types" ; len=6
            0x0074d6b4      .byte 0x08
            0x0074d6b5     .string "*volumes" ; len=8
            0x0074d6bd      .byte 0x05
            0x0074d6be     .string "write" ; len=5
            0x0074d6c3      .byte 0x04
            0x0074d6c4      .byte 0x72
            0x0074d6c5      .byte 0x65
            0x0074d6c6      .byte 0x61
            0x0074d6c7      .byte 0x64
            0x0074d6c8      .byte 0x07
            0x0074d6c9     .string "*groups" ; len=7
            0x0074d6d0      .byte 0x05
            0x0074d6d1     .string "*date" ; len=5
            0x0074d6d6      .byte 0x05
            0x0074d6d7     .string "*date" ; len=5
            0x0074d6dc      .byte 0x07
            0x0074d6dd     .string "*string" ; len=7
            0x0074d6e4      .byte 0x06
            0x0074d6e5     .string "*block" ; len=6
            0x0074d6eb      .byte 0x07
            0x0074d6ec     .string "*number" ; len=7
            0x0074d6f3      .byte 0x08
            0x0074d6f4     .string "*numbers" ; len=8
            0x0074d6fc      .byte 0x08
            0x0074d6fd     .string "<<<whole" ; len=8
            0x0074d705      .byte 0x02
            0x0074d706      .byte 0x20
            0x0074d707      .byte 0x20
            0x0074d708      .byte 0x0c
            0x0074d709     .string "gridded text" ; len=12
            0x0074d715      .byte 0x0c
            0x0074d716     .string "<<<x<<<<<<<<" ; len=12
            0x0074d722      .byte 0x0c
            0x0074d723     .string "<<<y<<<<<<<<" ; len=12
            0x0074d72f      .byte 0x00
            0x0074d730      .byte 0x0c
            0x0074d731      .byte 0x09
            0x0074d732     .string "*lib none" ; len=9
            0x0074d73b      .byte 0x05
            0x0074d73c     .string "types" ; len=5
            0x0074d741      .byte 0x05
            0x0074d742     .string "*date" ; len=5
            0x0074d747      .byte 0x04
            0x0074d748      .byte 0x64
            0x0074d749      .byte 0x61
            0x0074d74a      .byte 0x74
            0x0074d74b      .byte 0x65
            0x0074d74c      .byte 0x0b
            0x0074d74d     .string "*name types" ; len=11
            0x0074d758      .byte 0x0a
            0x0074d759     .string "*info none" ; len=10
            0x0074d763      .byte 0x04
            0x0074d764      .byte 0x6e
            0x0074d765      .byte 0x61
            0x0074d766      .byte 0x6d
            0x0074d767      .byte 0x65
            0x0074d768      .byte 0x08
            0x0074d769     .string "<<o<wner" ; len=8
            0x0074d771      .byte 0x04
            0x0074d772      .byte 0x63
            0x0074d773      .byte 0x61
            0x0074d774      .byte 0x74
            0x0074d775      .byte 0x73
            0x0074d776      .byte 0x05
            0x0074d777     .string "*none" ; len=5
            0x0074d77c      .byte 0x07
            0x0074d77d     .string "*string" ; len=7
            0x0074d784      .byte 0x06
            0x0074d785     .string "*block" ; len=6
            0x0074d78b      .byte 0x07
            0x0074d78c     .string "*number" ; len=7
            0x0074d793      .byte 0x08
            0x0074d794     .string "*numbers" ; len=8
            0x0074d79c      .byte 0x05
            0x0074d79d     .string "*date" ; len=5
            0x0074d7a2      .byte 0x05
            0x0074d7a3     .string "*date" ; len=5
            0x0074d7a8      .byte 0x08
            0x0074d7a9     .string "*volumes" ; len=8
            0x0074d7b1      .byte 0x06
            0x0074d7b2     .string "*types" ; len=6
            0x0074d7b8      .byte 0x07
            0x0074d7b9     .string "Library" ; len=7
            0x0074d7c0      .byte 0x05
            0x0074d7c1     .string "Clips" ; len=5
            0x0074d7c6      .byte 0x03
            0x0074d7c7      .byte 0x3c
            0x0074d7c8      .byte 0x3e
            0x0074d7c9      .byte 0x4c
            0x0074d7ca      .byte 0x05
            0x0074d7cb     .string "Panel" ; len=5
            0x0074d7d0      .byte 0x33
            0x0074d7d1     .string "Library machine calling menulibcom! - please report" ; len=51
            0x0074d804      .byte 0x02
            0x0074d805      .byte 0x50
            0x0074d806      .byte 0x20
            0x0074d807      .byte 0x04
            0x0074d808      .byte 0x66
            0x0074d809      .byte 0x69
            0x0074d80a      .byte 0x6e
            0x0074d80b      .byte 0x64
            0x0074d80c      .byte 0x04
            0x0074d80d      .byte 0x73
            0x0074d80e      .byte 0x61
            0x0074d80f      .byte 0x76
            0x0074d810      .byte 0x65
            0x0074d811      .byte 0x06
            0x0074d812     .string "recall" ; len=6
            0x0074d818      .byte 0x04
            0x0074d819      .byte 0x6b
            0x0074d81a      .byte 0x65
            0x0074d81b      .byte 0x65
            0x0074d81c      .byte 0x70
            0x0074d81d      .byte 0x04
            0x0074d81e      .byte 0x6c
            0x0074d81f      .byte 0x6f
            0x0074d820      .byte 0x73
            0x0074d821      .byte 0x65
            0x0074d822      .byte 0x06
            0x0074d823     .string "*found" ; len=6
            0x0074d829      .byte 0x06
            0x0074d82a     .string "ignore" ; len=6
            0x0074d830      .byte 0x02
            0x0074d831      .byte 0x4f
            0x0074d832      .byte 0x4b
            0x0074d833      .byte 0x00
            0x0074d834      .byte 0x00
            0x0074d835      .byte 0x08
            0x0074d836      .byte 0x00
            0x0074d837      .byte 0x00
            0x0074d838      .byte 0x03
            0x0074d839      .byte 0x65
            0x0074d83a      .byte 0x6e
            0x0074d83b      .byte 0x64
            0x0074d83c      .byte 0x00
            0x0074d83d      .byte 0x40
            0x0074d83e      .byte 0x00
            0x0074d83f      .byte 0x00
            0x0074d840      .byte 0x00
            0x0074d841      .byte 0x00
            0x0074d842      .byte 0x00
            0x0074d843      .byte 0x00
            0x0074d844      .byte 0x00
            0x0074d845      .byte 0x01
            0x0074d846      .byte 0x00
            0x0074d847      .byte 0x00
            0x0074d848      .byte 0x00
            0x0074d849      .byte 0x00
            0x0074d84a      .byte 0x00
            0x0074d84b      .byte 0x00
            0x0074d84c      .byte 0x04
            0x0074d84d      .byte 0x00
            0x0074d84e      .byte 0x00
            0x0074d84f      .byte 0x40
            0x0074d850      .byte 0x60
            0x0074d851      .byte 0x00
            0x0074d852      .byte 0x00
            0x0074d853      .byte 0x00
            0x0074d854      .byte 0x00
            0x0074d855      .byte 0x00
            0x0074d856      .byte 0x00
            0x0074d857      .byte 0x0b
            0x0074d858      .byte 0x00
            0x0074d859      .byte 0x00
            0x0074d85a      .byte 0x00
            0x0074d85b      .byte 0x00
            0x0074d85c      .byte 0x00
            0x0074d85d      .byte 0x00
            0x0074d85e      .byte 0x1c
            0x0074d85f      .byte 0x00
            0x0074d860      .byte 0x00
            0x0074d861      .byte 0x00
            0x0074d862      .byte 0x80
            0x0074d863      .byte 0x00
            0x0074d864      .byte 0x00
            0x0074d865      .byte 0x00
            0x0074d866      .byte 0x00
            0x0074d867      .byte 0x40
            0x0074d868      .byte 0x80
            0x0074d869      .byte 0x01
            0x0074d86a      .byte 0x04
            0x0074d86b      .byte 0x00
            0x0074d86c      .byte 0x00
            0x0074d86d      .byte 0x00
            0x0074d86e      .byte 0x20
            0x0074d86f      .byte 0x02
            0x0074d870      .byte 0x08
            0x0074d871      .byte 0x00
            0x0074d872      .byte 0x00
            0x0074d873      .byte 0x00
            0x0074d874      .byte 0x40
            0x0074d875      .byte 0x08
            0x0074d876      .byte 0x10
            0x0074d877      .byte 0x00
            0x0074d878      .byte 0x00
            0x0074d879      .byte 0x00
            0x0074d87a      .byte 0x00
            0x0074d87b      .byte 0xe0
            0x0074d87c      .byte 0x03
            0x0074d87d      .byte 0x00
            0x0074d87e      .byte 0x00
            0x0074d87f      .byte 0x00
            0x0074d880      .byte 0x00
            0x0074d881      .byte 0x60
            0x0074d882      .byte 0x02
            0x0074d883      .byte 0x00
            0x0074d884      .byte 0x00
            0x0074d885      .byte 0x08
            0x0074d886      .byte 0x00
            0x0074d887      .byte 0x00
            0x0074d888      .byte 0x00
            0x0074d889      .byte 0x00
            0x0074d88a      .byte 0x00
            0x0074d88b      .byte 0x00
            0x0074d88c      .byte 0x80
            0x0074d88d      .byte 0x00
            0x0074d88e      .byte 0x00
            0x0074d88f      .byte 0x00
            0x0074d890      .byte 0x00
            0x0074d891      .byte 0x00
            0x0074d892      .byte 0x80
            0x0074d893      .byte 0x00
            ; CALL XREF from MENULIBCOM.hit_skl @ 0x75101e
            ; CALL XREFS from MENULIBCOM.do_retitle @ 0x4454, 0x751d92
 190: MENULIBCOM.abort_retitle ();
           0x0074d894      4e56ffd4       link.w a6, 0xffd4
           0x0074d898      bfd5           cmpa.l (a5), a7
       < 0x0074d89a      6206           bhi.b 0x74d8a2
          0x0074d89c      44fc0002       move.w 0x2, ccr
          0x0074d8a0      4e76           trapv
       > 0x0074d8a2      defc002c       adda.w 0x2c, a7
           0x0074d8a6      48e7e0e0       movem.l d0-d2/a0-a2, -(a7)
           0x0074d8aa      45f900480fc2   lea.l MENUCOM.get_boxon, a2
           0x0074d8b0      7401           moveq 0x1, d2
           0x0074d8b2      10390086d27e   move.b 0x86d27e, d0
           0x0074d8b8      4880           ext.w d0
           0x0074d8ba      41bc0002       chk.w 0x2, d0
           0x0074d8be      c1fc05d4       muls.w 0x5d4, d0
           0x0074d8c2      41f90086d27a   lea.l 0x86d27a, a0
           0x0074d8c8      554f           subq.w 0x2, a7
           0x0074d8ca      43f00046       lea.l 0x46(a0, d0.w), a1
           0x0074d8ce      3f2905c8       move.w 0x5c8(a1), -(a7)
           0x0074d8d2      4e92           jsr (a2)                    ; fcn.00000009+0x2
           0x0074d8d4      544f           addq.w 0x2, a7
           0x0074d8d6      4a1f           tst.b (a7)+
       < 0x0074d8d8      6770           beq.b 0x74d94a
          0x0074d8da      4eb90064a32a   jsr K9_LIBRARY.k9_ign_retitle
          0x0074d8e0      2182004a       move.l d2, 0x4a(a0, d0.w)
          0x0074d8e4      43f00046       lea.l 0x46(a0, d0.w), a1
          0x0074d8e8      554f           subq.w 0x2, a7
          0x0074d8ea      3f2900f4       move.w 0xf4(a1), -(a7)
          0x0074d8ee      4e92           jsr (a2)                    ; fcn.00000009+0x2
          0x0074d8f0      544f           addq.w 0x2, a7
          0x0074d8f2      4a1f           tst.b (a7)+
      < 0x0074d8f4      660c           bne.b 0x74d902
         0x0074d8f6      3f2900f4       move.w 0xf4(a1), -(a7)
         0x0074d8fa      4eb9004836a4   jsr MENUCOM.push_box
         0x0074d900      544f           addq.w 0x2, a7
      > 0x0074d902      4a2e0008       tst.b 0x8(a6)
      < 0x0074d906      6742           beq.b 0x74d94a
         0x0074d908      4227           clr.b -(a7)
         0x0074d90a      554f           subq.w 0x2, a7
         0x0074d90c      3f3c00bf       move.w 0xbf, -(a7)
         0x0074d910      4e92           jsr (a2)                    ; fcn.00000009+0x2
         0x0074d912      544f           addq.w 0x2, a7
         0x0074d914      1217           move.b (a7), d1
         0x0074d916      4881           ext.w d1
         0x0074d918      4382           chk.w d2, d1
         0x0074d91a      1e81           move.b d1, (a7)
         0x0074d91c      4eb90064b994   jsr K9_LIBRARY.k9_show_display
         0x0074d922      584f           addq.w 0x4, a7
         0x0074d924      4eb900758534   jsr MENULIBFNDCOM.push_fetch
         0x0074d92a      554f           subq.w 0x2, a7
         0x0074d92c      3f29000a       move.w 0xa(a1), -(a7)
         0x0074d930      4e92           jsr (a2)                    ; fcn.00000009+0x2
         0x0074d932      544f           addq.w 0x2, a7
         0x0074d934      4a1f           tst.b (a7)+
     < 0x0074d936      660c           bne.b 0x74d944
        0x0074d938      3f29000a       move.w 0xa(a1), -(a7)
        0x0074d93c      4eb9004836a4   jsr MENUCOM.push_box
        0x0074d942      544f           addq.w 0x2, a7
     > 0x0074d944      4eb900644cd8   jsr K9_LIBRARY.k9_redisplay
      > 0x0074d94a      4cdf0707       movem.l (a7)+, d0-d2/a0-a2
           0x0074d94e      4e5e           unlk a6
           0x0074d950      4e75           rts
 200: MENULIBCOM.hit_ignore_reti ();
           0x0074d952      4e56ffd0       link.w a6, 0xffd0
           0x0074d956      bfd5           cmpa.l (a5), a7
       < 0x0074d958      6206           bhi.b 0x74d960
          0x0074d95a      44fc0002       move.w 0x2, ccr
          0x0074d95e      4e76           trapv
       > 0x0074d960      defc0030       adda.w 0x30, a7
           0x0074d964      48e7e0f0       movem.l d0-d2/a0-a3, -(a7)
           0x0074d968      45f900480fc2   lea.l MENUCOM.get_boxon, a2
           0x0074d96e      47f9004836a4   lea.l MENUCOM.push_box, a3
           0x0074d974      7401           moveq 0x1, d2
           0x0074d976      302e0008       move.w 0x8(a6), d0
           0x0074d97a      b042           cmp.w d2, d0
       < 0x0074d97c      66000094       bne.w 0x74da12
          0x0074d980      10390086d27e   move.b 0x86d27e, d0
          0x0074d986      4880           ext.w d0
          0x0074d988      41bc0002       chk.w 0x2, d0
          0x0074d98c      c1fc05d4       muls.w 0x5d4, d0
          0x0074d990      41f90086d27a   lea.l 0x86d27a, a0
          0x0074d996      554f           subq.w 0x2, a7
          0x0074d998      43f00046       lea.l 0x46(a0, d0.w), a1
          0x0074d99c      3f2905c8       move.w 0x5c8(a1), -(a7)
          0x0074d9a0      4e92           jsr (a2)                    ; fcn.00000009+0x2
          0x0074d9a2      544f           addq.w 0x2, a7
          0x0074d9a4      4a1f           tst.b (a7)+
      < 0x0074d9a6      676a           beq.b 0x74da12
         0x0074d9a8      4eb90064a32a   jsr K9_LIBRARY.k9_ign_retitle
         0x0074d9ae      2182004a       move.l d2, 0x4a(a0, d0.w)
         0x0074d9b2      554f           subq.w 0x2, a7
         0x0074d9b4      3f300054       move.w 0x54(a0, d0.w), -(a7)
         0x0074d9b8      4e92           jsr (a2)                    ; fcn.00000009+0x2
         0x0074d9ba      544f           addq.w 0x2, a7
         0x0074d9bc      4a1f           tst.b (a7)+
     < 0x0074d9be      6608           bne.b 0x74d9c8
        0x0074d9c0      3f300054       move.w 0x54(a0, d0.w), -(a7)
        0x0074d9c4      4e93           jsr (a3)                    ; fcn.0000000c
        0x0074d9c6      544f           addq.w 0x2, a7
     > 0x0074d9c8      43f00046       lea.l 0x46(a0, d0.w), a1
         0x0074d9cc      554f           subq.w 0x2, a7
         0x0074d9ce      3f2900f4       move.w 0xf4(a1), -(a7)
         0x0074d9d2      4e92           jsr (a2)                    ; fcn.00000009+0x2
         0x0074d9d4      544f           addq.w 0x2, a7
         0x0074d9d6      4a1f           tst.b (a7)+
     < 0x0074d9d8      6608           bne.b 0x74d9e2
        0x0074d9da      3f2900f4       move.w 0xf4(a1), -(a7)
        0x0074d9de      4e93           jsr (a3)                    ; fcn.0000000c
        0x0074d9e0      544f           addq.w 0x2, a7
     > 0x0074d9e2      4227           clr.b -(a7)
         0x0074d9e4      554f           subq.w 0x2, a7
         0x0074d9e6      3f3c00bf       move.w 0xbf, -(a7)
         0x0074d9ea      4e92           jsr (a2)                    ; fcn.00000009+0x2
         0x0074d9ec      544f           addq.w 0x2, a7
         0x0074d9ee      1217           move.b (a7), d1
         0x0074d9f0      4881           ext.w d1
         0x0074d9f2      4382           chk.w d2, d1
         0x0074d9f4      1e81           move.b d1, (a7)
         0x0074d9f6      4eb90064b994   jsr K9_LIBRARY.k9_show_display
         0x0074d9fc      584f           addq.w 0x4, a7
         0x0074d9fe      4eb900758534   jsr MENULIBFNDCOM.push_fetch
         0x0074da04      3f29000a       move.w 0xa(a1), -(a7)
         0x0074da08      4e93           jsr (a3)                    ; fcn.0000000c
         0x0074da0a      544f           addq.w 0x2, a7
         0x0074da0c      4eb900644cd8   jsr K9_LIBRARY.k9_redisplay
      > 0x0074da12      4cdf0f07       movem.l (a7)+, d0-d2/a0-a3
           0x0074da16      4e5e           unlk a6
           0x0074da18      4e75           rts
 296: MENULIBCOM.hit_found ();
           0x0074da1a      4e56ffc6       link.w a6, 0xffc6
           0x0074da1e      bfd5           cmpa.l (a5), a7
       < 0x0074da20      6206           bhi.b 0x74da28
          0x0074da22      44fc0002       move.w 0x2, ccr
          0x0074da26      4e76           trapv
       > 0x0074da28      defc003a       adda.w 0x3a, a7
           0x0074da2c      48e7f0f8       movem.l d0-d3/a0-a4, -(a7)
           0x0074da30      45f900483776   lea.l MENUCOM.swtch_box, a2
           0x0074da36      47f900480fc2   lea.l MENUCOM.get_boxon, a3
           0x0074da3c      49f90086d27f   lea.l 0x86d27f, a4
           0x0074da42      7601           moveq 0x1, d3
           0x0074da44      10390086d27e   move.b 0x86d27e, d0
           0x0074da4a      4880           ext.w d0
           0x0074da4c      41bc0002       chk.w 0x2, d0
           0x0074da50      c1fc05d4       muls.w 0x5d4, d0
           0x0074da54      41f90086d27a   lea.l 0x86d27a, a0
           0x0074da5a      322e0008       move.w 0x8(a6), d1
           0x0074da5e      b243           cmp.w d3, d1
       < 0x0074da60      660000a8       bne.w 0x74db0a
          0x0074da64      4eb9004558c8   jsr CURSORCOM.grid_off
          0x0074da6a      1f3c0005       move.b 0x5, -(a7)
          0x0074da6e      4eb90048f2e6   jsr MENURIGHTCOM.change_right
          0x0074da74      4217           clr.b (a7)
          0x0074da76      554f           subq.w 0x2, a7
          0x0074da78      3f3c00bf       move.w 0xbf, -(a7)
          0x0074da7c      4e93           jsr (a3)                    ; fcn.0000000c
          0x0074da7e      544f           addq.w 0x2, a7
          0x0074da80      1417           move.b (a7), d2
          0x0074da82      4882           ext.w d2
          0x0074da84      4583           chk.w d3, d2
          0x0074da86      1e82           move.b d2, (a7)
          0x0074da88      4eb90064b994   jsr K9_LIBRARY.k9_show_display
          0x0074da8e      584f           addq.w 0x4, a7
          0x0074da90      4eb900644cd8   jsr K9_LIBRARY.k9_redisplay
          0x0074da96      43f00046       lea.l 0x46(a0, d0.w), a1
          0x0074da9a      3f2900ac       move.w 0xac(a1), -(a7)
          0x0074da9e      1f03           move.b d3, -(a7)
          0x0074daa0      4e92           jsr (a2)                    ; fcn.00000009+0x2
          0x0074daa2      584f           addq.w 0x4, a7
          0x0074daa4      43f00046       lea.l 0x46(a0, d0.w), a1
          0x0074daa8      3f2900c4       move.w 0xc4(a1), -(a7)
          0x0074daac      1f03           move.b d3, -(a7)
          0x0074daae      4e92           jsr (a2)                    ; fcn.00000009+0x2
          0x0074dab0      584f           addq.w 0x4, a7
          0x0074dab2      43f00046       lea.l 0x46(a0, d0.w), a1
          0x0074dab6      3f2900dc       move.w 0xdc(a1), -(a7)
          0x0074daba      1f03           move.b d3, -(a7)
          0x0074dabc      4e92           jsr (a2)                    ; fcn.00000009+0x2
          0x0074dabe      584f           addq.w 0x4, a7
          0x0074dac0      43f00046       lea.l 0x46(a0, d0.w), a1
          0x0074dac4      3f290094       move.w 0x94(a1), -(a7)
          0x0074dac8      1f03           move.b d3, -(a7)
          0x0074daca      4e92           jsr (a2)                    ; fcn.00000009+0x2
          0x0074dacc      584f           addq.w 0x4, a7
          0x0074dace      4a14           tst.b (a4)
      < 0x0074dad0      6768           beq.b 0x74db3a
         0x0074dad2      43f00046       lea.l 0x46(a0, d0.w), a1
         0x0074dad6      554f           subq.w 0x2, a7
         0x0074dad8      3f29028e       move.w 0x28e(a1), -(a7)
         0x0074dadc      4e93           jsr (a3)                    ; fcn.0000000c
         0x0074dade      544f           addq.w 0x2, a7
         0x0074dae0      1417           move.b (a7), d2
         0x0074dae2      4882           ext.w d2
         0x0074dae4      4583           chk.w d3, d2
         0x0074dae6      1e82           move.b d2, (a7)
         0x0074dae8      554f           subq.w 0x2, a7
         0x0074daea      3f290292       move.w 0x292(a1), -(a7)
         0x0074daee      4e93           jsr (a3)                    ; fcn.0000000c
         0x0074daf0      544f           addq.w 0x2, a7
         0x0074daf2      1417           move.b (a7), d2
         0x0074daf4      4882           ext.w d2
         0x0074daf6      4583           chk.w d3, d2
         0x0074daf8      1e82           move.b d2, (a7)
         0x0074dafa      3f390086d2be   move.w 0x86d2be, -(a7)
         0x0074db00      4eb9007587b2   jsr MENULIBFNDCOM.set_henry_boxes
         0x0074db06      5c4f           addq.w 0x6, a7
     < 0x0074db08      6030           bra.b 0x74db3a
     > 0x0074db0a      43faf2ac       lea.l 0x74cdb8(pc), a1
         0x0074db0e      3401           move.w d1, d2
         0x0074db10      e64a           lsr.w 0x3, d2
         0x0074db12      0c420020       cmpi.w 0x20, d2
     < 0x0074db16      6d04           blt.b 0x74db1c
        0x0074db18      7400           moveq 0x0, d2
    < 0x0074db1a      6004           bra.b 0x74db20
    > 0x0074db1c      03312000       btst.l d1, (a1, d2.w)
    < 0x0074db20      6718           beq.b 0x74db3a
        0x0074db22      4227           clr.b -(a7)
        0x0074db24      4eb90048f2e6   jsr MENURIGHTCOM.change_right
        0x0074db2a      544f           addq.w 0x2, a7
        0x0074db2c      4a41           tst.w d1
    < 0x0074db2e      660a           bne.b 0x74db3a
       0x0074db30      4a14           tst.b (a4)
   < 0x0074db32      6706           beq.b 0x74db3a
      0x0074db34      4eb90075866e   jsr MENULIBFNDCOM.disable_fresh_a
   > 0x0074db3a      4cdf1f0f       movem.l (a7)+, d0-d3/a0-a4
           0x0074db3e      4e5e           unlk a6
           0x0074db40      4e75           rts
            ; CALL XREF from MENULIBCOM.setup_disks_box @ 0x74dd7c
 170: MENULIBCOM.set_select_boxe ();
           0x0074db42      4e56fed2       link.w a6, 0xfed2
           0x0074db46      bfd5           cmpa.l (a5), a7
       < 0x0074db48      6206           bhi.b 0x74db50
          0x0074db4a      44fc0002       move.w 0x2, ccr
          0x0074db4e      4e76           trapv
       > 0x0074db50      defc012e       adda.w 0x12e, a7
           0x0074db54      48e7e0e0       movem.l d0-d2/a0-a2, -(a7)
           0x0074db58      7407           moveq 0x7, d2
           0x0074db5a      202c0004       move.l 0x4(a4), d0
           0x0074db5e      5380           subq.l 0x1, d0
           0x0074db60      0c8000000005   cmpi.l 0x5, d0
       < 0x0074db66      6302           bls.b 0x74db6a
          0x0074db68      4e4f           trap 0xf
       > 0x0074db6a      e780           asl.l 0x3, d0
           0x0074db6c      206c0642       movea.l 0x642(a4), a0
           0x0074db70      9efc0100       suba.w 0x100, a7
           0x0074db74      224f           movea.l a7, a1
           0x0074db76      45ee0008       lea.l 0x8(a6), a2
           0x0074db7a      723f           moveq 0x3f, d1
       > 0x0074db7c      22da           move.l (a2)+, (a1)+
       < 0x0074db7e      51c9fffc       dbra d1, 0x74db7c
           0x0074db82      3f300806       move.w 0x6(a0, d0.l), -(a7)
           0x0074db86      486f0002       pea.l 0x2(a7)
           0x0074db8a      4267           clr.w -(a7)
           0x0074db8c      3f3c00ff       move.w 0xff, -(a7)
           0x0074db90      4eb900483da2   jsr MENUCOM.set_boxtext
           0x0074db96      defc0108       adda.w 0x108, a7
           0x0074db9a      3eb00806       move.w 0x6(a0, d0.l), (a7)
           0x0074db9e      4227           clr.b -(a7)
           0x0074dba0      4a2e0108       tst.b 0x108(a6)
       < 0x0074dba4      6702           beq.b 0x74dba8
          0x0074dba6      5217           addq.b 0x1, (a7)
       > 0x0074dba8      4eb900483972   jsr MENUCOM.set_enable_box
           0x0074dbae      584f           addq.w 0x4, a7
           0x0074dbb0      122e0108       move.b 0x108(a6), d1
           0x0074dbb4      b202           cmp.b d2, d1
       < 0x0074dbb6      660e           bne.b 0x74dbc6
          0x0074dbb8      3f300806       move.w 0x6(a0, d0.l), -(a7)
          0x0074dbbc      2f3af11a       move.l 0x74ccd8(pc), -(a7)
          0x0074dbc0      3f3af114       move.w 0x74ccd6(pc), -(a7)
      < 0x0074dbc4      600c           bra.b 0x74dbd2
      > 0x0074dbc6      3f300806       move.w 0x6(a0, d0.l), -(a7)
          0x0074dbca      2f3af106       move.l 0x74ccd2(pc), -(a7)
          0x0074dbce      3f3af100       move.w 0x74ccd0(pc), -(a7)
      > 0x0074dbd2      4eb900484148   jsr MENUCOM.set_boxcol
           0x0074dbd8      504f           addq.w 0x8, a7
           0x0074dbda      4881           ext.w d1
           0x0074dbdc      b242           cmp.w d2, d1
       < 0x0074dbde      6302           bls.b 0x74dbe2
          0x0074dbe0      4e4e           trap 0xe
       > 0x0074dbe2      d241           add.w d1, d1
           0x0074dbe4      323b1006       move.w 0x74dbec(pc, d1.w), d1
           0x0074dbe8      4efb1002       jmp 0x74dbec(pc, d1.w)
            0x0074dbec      00100012       ori.b 0x12, (a0)
            0x0074dbf0      00120012       ori.b 0x12, (a2)
            0x0074dbf4      00120022       ori.b 0x22, (a2)
            0x0074dbf8      00220012       ori.b 0x12, -(a2)
        < 0x0074dbfc      601a           bra.b 0x74dc18
           0x0074dbfe      3f300806       move.w 0x6(a0, d0.l), -(a7)
           0x0074dc02      4227           clr.b -(a7)
       > 0x0074dc04      4eb900483776   jsr MENUCOM.swtch_box
          0x0074dc0a      584f           addq.w 0x4, a7
      < 0x0074dc0c      600a           bra.b 0x74dc18
         0x0074dc0e      3f300806       move.w 0x6(a0, d0.l), -(a7)
         0x0074dc12      1f3c0001       move.b 0x1, -(a7)
      < 0x0074dc16      60ec           bra.b 0x74dc04
      > 0x0074dc18      4cdf0707       movem.l (a7)+, d0-d2/a0-a2
            0x0074dc1c      4e5e           unlk a6
            0x0074dc1e      4e75           rts
            ; CALL XREF from MENULIBCOM.set_skls_disks_ @ 0x74de06
 372: MENULIBCOM.setup_disks_box ();
           0x0074dc20      4e56f87a       link.w a6, 0xf87a
           0x0074dc24      bfd5           cmpa.l (a5), a7
       < 0x0074dc26      6206           bhi.b 0x74dc2e
          0x0074dc28      44fc0002       move.w 0x2, ccr
          0x0074dc2c      4e76           trapv
       > 0x0074dc2e      defc014e       adda.w 0x14e, a7
           0x0074dc32      48e7fff8       movem.l d0-d7/a0-a4, -(a7)
           0x0074dc36      47eef9c8       lea.l -0x638(a6), a3
           0x0074dc3a      343c00ff       move.w 0xff, d2
           0x0074dc3e      7605           moveq 0x5, d3
           0x0074dc40      78ff           moveq 0xff, d4
           0x0074dc42      7a06           moveq 0x6, d5
           0x0074dc44      7c01           moveq 0x1, d6
           0x0074dc46      7e07           moveq 0x7, d7
           0x0074dc48      206e000a       movea.l 0xa(a6), a0
           0x0074dc4c      7001           moveq 0x1, d0
       > 0x0074dc4e      2d40f9cc       move.l d0, -0x634(a6)
          0x0074dc52      2200           move.l d0, d1
          0x0074dc54      5381           subq.l 0x1, d1
          0x0074dc56      b283           cmp.l d3, d1
      < 0x0074dc58      6302           bls.b 0x74dc5c
         0x0074dc5a      4e4f           trap 0xf
      > 0x0074dc5c      e781           asl.l 0x3, d1
          0x0074dc5e      21841800       move.l d4, (a0, d1.l)
          0x0074dc62      3f301804       move.w 0x4(a0, d1.l), -(a7)
          0x0074dc66      4227           clr.b -(a7)
          0x0074dc68      4eb900483972   jsr MENUCOM.set_enable_box
          0x0074dc6e      544f           addq.w 0x2, a7
          0x0074dc70      3eb01806       move.w 0x6(a0, d1.l), (a7)
          0x0074dc74      4227           clr.b -(a7)
          0x0074dc76      4eb900483972   jsr MENUCOM.set_enable_box
          0x0074dc7c      544f           addq.w 0x2, a7
          0x0074dc7e      3eb01806       move.w 0x6(a0, d1.l), (a7)
          0x0074dc82      4eb900481e2c   jsr MENUCOM.swtch_off_box
          0x0074dc88      544f           addq.w 0x2, a7
          0x0074dc8a      5280           addq.l 0x1, d0
          0x0074dc8c      b085           cmp.l d5, d0
       < 0x0074dc8e      6fbe           ble.b 0x74dc4e
           0x0074dc90      2d46f9cc       move.l d6, -0x634(a6)
           0x0074dc94      2684           move.l d4, (a3)
           0x0074dc96      206e000a       movea.l 0xa(a6), a0
       > 0x0074dc9a      554f           subq.w 0x2, a7
          0x0074dc9c      4853           pea.l (a3)
          0x0074dc9e      4227           clr.b -(a7)
          0x0074dca0      4227           clr.b -(a7)
          0x0074dca2      4eb90059838a   jsr K0_DISKMGR.k_get_node
          0x0074dca8      504f           addq.w 0x8, a7
          0x0074dcaa      4a1f           tst.b (a7)+
      < 0x0074dcac      670000de       beq.w 0x74dd8c
         0x0074dcb0      202ef9cc       move.l -0x634(a6), d0
         0x0074dcb4      b085           cmp.l d5, d0
     < 0x0074dcb6      6e0000d4       bgt.w 0x74dd8c
        0x0074dcba      2f13           move.l (a3), -(a7)
        0x0074dcbc      4227           clr.b -(a7)
        0x0074dcbe      4227           clr.b -(a7)
        0x0074dcc0      486ef9d0       pea.l -0x630(a6)
        0x0074dcc4      4eb9005983cc   jsr K0_DISKMGR.k_node_data
        0x0074dcca      defc000c       adda.w 0xc, a7
        0x0074dcce      102ef9d0       move.b -0x630(a6), d0
        0x0074dcd2      4880           ext.w d0
        0x0074dcd4      013af152       btst.l d0, 0x74ce28(pc)
    < 0x0074dcd8      670000ae       beq.w 0x74dd88
       0x0074dcdc      4aaef9d6       tst.l -0x62a(a6)
   < 0x0074dce0      660000a6       bne.w 0x74dd88
      0x0074dce4      202ef9cc       move.l -0x634(a6), d0
      0x0074dce8      5380           subq.l 0x1, d0
      0x0074dcea      b083           cmp.l d3, d0
  < 0x0074dcec      6302           bls.b 0x74dcf0
     0x0074dcee      4e4f           trap 0xf
  > 0x0074dcf0      e780           asl.l 0x3, d0
      0x0074dcf2      21930800       move.l (a3), (a0, d0.l)
      0x0074dcf6      2f13           move.l (a3), -(a7)
      0x0074dcf8      4227           clr.b -(a7)
      0x0074dcfa      486efaee       pea.l -0x512(a6)
      0x0074dcfe      4eb900598490   jsr K0_DISKMGR.k_node_status
      0x0074dd04      9efc00f6       suba.w 0xf6, a7
      0x0074dd08      224f           movea.l a7, a1
      0x0074dd0a      45eefdf3       lea.l -0x20d(a6), a2
      0x0074dd0e      3202           move.w d2, d1
  > 0x0074dd10      12da           move.b (a2)+, (a1)+
  < 0x0074dd12      51c9fffc       dbra d1, 0x74dd10
      0x0074dd16      3f300804       move.w 0x4(a0, d0.l), -(a7)
      0x0074dd1a      486f0002       pea.l 0x2(a7)
      0x0074dd1e      4267           clr.w -(a7)
      0x0074dd20      3f02           move.w d2, -(a7)
      0x0074dd22      4eb900481c8e   jsr MENUCOM.add_text_all
      0x0074dd28      defc0108       adda.w 0x108, a7
      0x0074dd2c      3eb00804       move.w 0x4(a0, d0.l), (a7)
      0x0074dd30      1f06           move.b d6, -(a7)
      0x0074dd32      4eb900483972   jsr MENUCOM.set_enable_box
      0x0074dd38      584f           addq.w 0x4, a7
      0x0074dd3a      4a2e0008       tst.b 0x8(a6)
  < 0x0074dd3e      671e           beq.b 0x74dd5e
     0x0074dd40      102efaef       move.b -0x511(a6), d0
     0x0074dd44      4880           ext.w d0
     0x0074dd46      4187           chk.w d7, d0
     0x0074dd48      1f00           move.b d0, -(a7)
     0x0074dd4a      9efc0100       suba.w 0x100, a7
     0x0074dd4e      224f           movea.l a7, a1
     0x0074dd50      45eefaf3       lea.l -0x50d(a6), a2
     0x0074dd54      3002           move.w d2, d0
 > 0x0074dd56      12da           move.b (a2)+, (a1)+
 < 0x0074dd58      51c8fffc       dbra d0, 0x74dd56
 < 0x0074dd5c      601c           bra.b 0x74dd7a
 > 0x0074dd5e      102efaf0       move.b -0x510(a6), d0
     0x0074dd62      4880           ext.w d0
     0x0074dd64      4187           chk.w d7, d0
     0x0074dd66      1f00           move.b d0, -(a7)
     0x0074dd68      9efc0100       suba.w 0x100, a7
     0x0074dd6c      224f           movea.l a7, a1
     0x0074dd6e      45eefbf3       lea.l -0x40d(a6), a2
     0x0074dd72      3002           move.w d2, d0
 > 0x0074dd74      12da           move.b (a2)+, (a1)+
 < 0x0074dd76      51c8fffc       dbra d0, 0x74dd74
 > 0x0074dd7a      284b           movea.l a3, a4
      0x0074dd7c      4ebafdc4       jsr MENULIBCOM.set_select_boxe(pc)
      0x0074dd80      defc0102       adda.w 0x102, a7
      0x0074dd84      52aef9cc       addq.l 0x1, -0x634(a6)
   < 0x0074dd88      6000ff10       bra.w 0x74dc9a
     > 0x0074dd8c      4cdf1fff       movem.l (a7)+, d0-d7/a0-a4
           0x0074dd90      4e5e           unlk a6
           0x0074dd92      4e75           rts
            ; CALL XREF from MENULIBCOM.do_drive_select @ 0x7501ca
            ; CALL XREF from MENULIBCOM.volume_list_cha @ 0x7527da
 128: MENULIBCOM.set_skls_disks_ ();
           0x0074dd94      4e56ffd2       link.w a6, 0xffd2
           0x0074dd98      bfd5           cmpa.l (a5), a7
       < 0x0074dd9a      6206           bhi.b 0x74dda2
          0x0074dd9c      44fc0002       move.w 0x2, ccr
          0x0074dda0      4e76           trapv
       > 0x0074dda2      defc002e       adda.w 0x2e, a7
           0x0074dda6      48e7f0f0       movem.l d0-d3/a0-a3, -(a7)
           0x0074ddaa      43ee000a       lea.l 0xa(a6), a1
           0x0074ddae      45f90086d27e   lea.l 0x86d27e, a2
           0x0074ddb4      47f90086d27a   lea.l 0x86d27a, a3
           0x0074ddba      7402           moveq 0x2, d2
           0x0074ddbc      7630           moveq 0x30, d3
           0x0074ddbe      4a11           tst.b (a1)
       < 0x0074ddc0      6622           bne.b 0x74dde4
          0x0074ddc2      1012           move.b (a2), d0
          0x0074ddc4      4880           ext.w d0
          0x0074ddc6      4182           chk.w d2, d0
          0x0074ddc8      c1fc05d4       muls.w 0x5d4, d0
          0x0074ddcc      1211           move.b (a1), d1
          0x0074ddce      4881           ext.w d1
          0x0074ddd0      c3c3           muls.w d3, d1
          0x0074ddd2      204b           movea.l a3, a0
          0x0074ddd4      41f00000       lea.l (a0, d0.w), a0
          0x0074ddd8      41f01000       lea.l (a0, d1.w), a0
          0x0074dddc      48680356       pea.l 0x356(a0)
          0x0074dde0      4227           clr.b -(a7)
      < 0x0074dde2      6022           bra.b 0x74de06
      > 0x0074dde4      1012           move.b (a2), d0
          0x0074dde6      4880           ext.w d0
          0x0074dde8      4182           chk.w d2, d0
          0x0074ddea      c1fc05d4       muls.w 0x5d4, d0
          0x0074ddee      1211           move.b (a1), d1
          0x0074ddf0      4881           ext.w d1
          0x0074ddf2      c3c3           muls.w d3, d1
          0x0074ddf4      204b           movea.l a3, a0
          0x0074ddf6      41f00000       lea.l (a0, d0.w), a0
          0x0074ddfa      41f01000       lea.l (a0, d1.w), a0
          0x0074ddfe      48680356       pea.l 0x356(a0)
          0x0074de02      1f3c0001       move.b 0x1, -(a7)
      > 0x0074de06      4ebafe18       jsr MENULIBCOM.setup_disks_box(pc)
           0x0074de0a      5c4f           addq.w 0x6, a7
           0x0074de0c      4cdf0f0f       movem.l (a7)+, d0-d3/a0-a3
           0x0074de10      4e5e           unlk a6
           0x0074de12      4e75           rts
 58: MENULIBCOM.set_retitle_dis ();
           0x0074de14      4e56fff0       link.w a6, 0xfff0
           0x0074de18      bfd5           cmpa.l (a5), a7
       < 0x0074de1a      6206           bhi.b 0x74de22
          0x0074de1c      44fc0002       move.w 0x2, ccr
          0x0074de20      4e76           trapv
       > 0x0074de22      defc0010       adda.w 0x10, a7
           0x0074de26      487af002       pea.l 0x74ce2a(pc)
           0x0074de2a      48780024       pea.l 0x24
           0x0074de2e      2f17           move.l (a7), -(a7)
           0x0074de30      4eb9004047ea   jsr p_wts_o
           0x0074de36      defc000c       adda.w 0xc, a7
           0x0074de3a      4eb900404946   jsr p_wtln_o
           0x0074de40      4227           clr.b -(a7)
           0x0074de42      4eb90040452a   jsr p_Assert
           0x0074de48      544f           addq.w 0x2, a7
           0x0074de4a      4e5e           unlk a6
           0x0074de4c      4e75           rts
            ; CALL XREF from MENULIBCOM.setup_disk_grou @ 0x74e094
 234: fcn.0074de4e ();
           ; var int32_t var_1034h @ a6-0x1034
           ; var int32_t var_1032h @ a6-0x1032
           0x0074de4e      4e56fec6       link.w a6, 0xfec6
           0x0074de52      bfd5           cmpa.l (a5), a7
       < 0x0074de54      6206           bhi.b 0x74de5c
          0x0074de56      44fc0002       move.w 0x2, ccr
          0x0074de5a      4e76           trapv
       > 0x0074de5c      defc013a       adda.w 0x13a, a7
           0x0074de60      48e7f8f0       movem.l d0-d4/a0-a3, -(a7)
           0x0074de64      47ee0008       lea.l 0x8(a6), a3
           0x0074de68      7206           moveq 0x6, d1
           0x0074de6a      7407           moveq 0x7, d2
           0x0074de6c      4240           clr.w d0
           0x0074de6e      1013           move.b (a3), d0
           0x0074de70      b001           cmp.b d1, d0
       < 0x0074de72      6302           bls.b 0x74de76
          0x0074de74      7006           moveq 0x6, d0
       > 0x0074de76      5300           subq.b 0x1, d0
       < 0x0074de78      6510           bcs.b 0x74de8a
          0x0074de7a      41ee0009       lea.l 0x9(a6), a0
          0x0074de7e      43faefda       lea.l 0x74ce5a(pc), a1
      > 0x0074de82      b109           cmpm.b (a1)+, (a0)+
      < 0x0074de84      56c8fffc       dbne d0, 0x74de82
      < 0x0074de88      6604           bne.b 0x74de8e
      > 0x0074de8a      1013           move.b (a3), d0
          0x0074de8c      b001           cmp.b d1, d0
      < 0x0074de8e      6610           bne.b 0x74dea0
          0x0074de90      26baefce       move.l 0x74ce60(pc), (a3)
          0x0074de94      2d7aefce000c   move.l 0x74ce64(pc), 0xc(a6)
          0x0074de9a      2d7aefcc0010   move.l 0x74ce68(pc), 0x10(a6)
       > 0x0074dea0      202c0004       move.l 0x4(a4), d0
           0x0074dea4      5380           subq.l 0x1, d0
           0x0074dea6      0c8000000004   cmpi.l 0x4, d0
       < 0x0074deac      6302           bls.b 0x74deb0
          0x0074deae      4e4f           trap 0xf
       > 0x0074deb0      2800           move.l d0, d4
           0x0074deb2      7606           moveq 0x6, d3
           0x0074deb4      4eb900406a74   jsr fcn.00406a74
           0x0074deba      206c0642       movea.l 0x642(a4), a0
           0x0074debe      9efc0100       suba.w 0x100, a7
           0x0074dec2      224f           movea.l a7, a1
           0x0074dec4      244b           movea.l a3, a2
           0x0074dec6      703f           moveq 0x3f, d0
       > 0x0074dec8      22da           move.l (a2)+, (a1)+
       < 0x0074deca      51c8fffc       dbra d0, 0x74dec8
           0x0074dece      3f304804       move.w 0x4(a0, d4.l), -(a7)
           0x0074ded2      486f0002       pea.l 0x2(a7)
           0x0074ded6      4267           clr.w -(a7)
           0x0074ded8      3f3c00ff       move.w 0xff, -(a7)
           0x0074dedc      4eb900483da2   jsr MENUCOM.set_boxtext
           0x0074dee2      defc0108       adda.w 0x108, a7
           0x0074dee6      3eb04804       move.w 0x4(a0, d4.l), (a7)
           0x0074deea      4227           clr.b -(a7)
           0x0074deec      4a2e0108       tst.b 0x108(a6)
       < 0x0074def0      6702           beq.b 0x74def4
          0x0074def2      5217           addq.b 0x1, (a7)
       > 0x0074def4      4eb900483972   jsr MENUCOM.set_enable_box
           0x0074defa      584f           addq.w 0x4, a7
           0x0074defc      102e0108       move.b 0x108(a6), d0
           0x0074df00      b002           cmp.b d2, d0
       < 0x0074df02      660e           bne.b 0x74df12
          0x0074df04      3f304804       move.w 0x4(a0, d4.l), -(a7)
          0x0074df08      2f3aedce       move.l 0x74ccd8(pc), -(a7)
          0x0074df0c      3f3aedc8       move.w 0x74ccd6(pc), -(a7)
      < 0x0074df10      600c           bra.b 0x74df1e
      > 0x0074df12      3f304804       move.w 0x4(a0, d4.l), -(a7)
          0x0074df16      2f3aedba       move.l 0x74ccd2(pc), -(a7)
          0x0074df1a      3f3aedb4       move.w 0x74ccd0(pc), -(a7)
      > 0x0074df1e      4eb900484148   jsr MENUCOM.set_boxcol
           0x0074df24      504f           addq.w 0x8, a7
           0x0074df26      4880           ext.w d0
           0x0074df28      b042           cmp.w d2, d0
       < 0x0074df2a      6302           bls.b 0x74df2e
          0x0074df2c      4e4e           trap 0xe
       > 0x0074df2e      d040           add.w d0, d0
           0x0074df30      303b0006       move.w 0x74df38(pc, d0.w), d0
           0x0074df34      4efb0002       jmp 0x74df38(pc, d0.w)
            0x0074df38      00100012       ori.b 0x12, (a0)
            0x0074df3c      00120012       ori.b 0x12, (a2)
            0x0074df40      00120022       ori.b 0x22, (a2)
            0x0074df44      00220012       ori.b 0x12, -(a2)
        < 0x0074df48      601a           bra.b 0x74df64
           0x0074df4a      3f304804       move.w 0x4(a0, d4.l), -(a7)
           0x0074df4e      4227           clr.b -(a7)
       > 0x0074df50      4eb900483776   jsr MENUCOM.swtch_box
          0x0074df56      584f           addq.w 0x4, a7
      < 0x0074df58      600a           bra.b 0x74df64
         0x0074df5a      3f304804       move.w 0x4(a0, d4.l), -(a7)
         0x0074df5e      1f3c0001       move.b 0x1, -(a7)
      < 0x0074df62      60ec           bra.b 0x74df50
      > 0x0074df64      4cdf0f1f       movem.l (a7)+, d0-d4/a0-a3
            0x0074df68      4e5e           unlk a6
            0x0074df6a      4e75           rts
            ; CALL XREF from MENULIBCOM.set_skls_disk_g @ 0x74e11e
 320: MENULIBCOM.setup_disk_grou ();
           0x0074df6c      4e56f88a       link.w a6, 0xf88a
           0x0074df70      bfd5           cmpa.l (a5), a7
       < 0x0074df72      6206           bhi.b 0x74df7a
          0x0074df74      44fc0002       move.w 0x2, ccr
          0x0074df78      4e76           trapv
       > 0x0074df7a      defc013e       adda.w 0x13e, a7
           0x0074df7e      48e7fff8       movem.l d0-d7/a0-a4, -(a7)
           0x0074df82      47eef9c8       lea.l -0x638(a6), a3
           0x0074df86      7404           moveq 0x4, d2
           0x0074df88      7aff           moveq 0xff, d5
           0x0074df8a      7c05           moveq 0x5, d6
           0x0074df8c      7e07           moveq 0x7, d7
           0x0074df8e      206e000a       movea.l 0xa(a6), a0
           0x0074df92      7001           moveq 0x1, d0
       > 0x0074df94      2d40f9cc       move.l d0, -0x634(a6)
          0x0074df98      2200           move.l d0, d1
          0x0074df9a      5381           subq.l 0x1, d1
          0x0074df9c      b282           cmp.l d2, d1
      < 0x0074df9e      6302           bls.b 0x74dfa2
         0x0074dfa0      4e4f           trap 0xf
      > 0x0074dfa2      2801           move.l d1, d4
          0x0074dfa4      7606           moveq 0x6, d3
          0x0074dfa6      4eb900406a74   jsr fcn.00406a74
          0x0074dfac      21854800       move.l d5, (a0, d4.l)
          0x0074dfb0      3f304804       move.w 0x4(a0, d4.l), -(a7)
          0x0074dfb4      4227           clr.b -(a7)
          0x0074dfb6      4eb900483972   jsr MENUCOM.set_enable_box
          0x0074dfbc      544f           addq.w 0x2, a7
          0x0074dfbe      3eb04804       move.w 0x4(a0, d4.l), (a7)
          0x0074dfc2      4eb900481e2c   jsr MENUCOM.swtch_off_box
          0x0074dfc8      544f           addq.w 0x2, a7
          0x0074dfca      5280           addq.l 0x1, d0
          0x0074dfcc      b086           cmp.l d6, d0
       < 0x0074dfce      6fc4           ble.b 0x74df94
           0x0074dfd0      2d7c00000001.  move.l 0x1, -0x634(a6)
           0x0074dfd8      2685           move.l d5, (a3)
           0x0074dfda      206e000a       movea.l 0xa(a6), a0
       > 0x0074dfde      554f           subq.w 0x2, a7
          0x0074dfe0      4853           pea.l (a3)
          0x0074dfe2      4227           clr.b -(a7)
          0x0074dfe4      4227           clr.b -(a7)
          0x0074dfe6      4eb90059838a   jsr K0_DISKMGR.k_get_node
          0x0074dfec      504f           addq.w 0x8, a7
          0x0074dfee      4a1f           tst.b (a7)+
      < 0x0074dff0      670000b2       beq.w 0x74e0a4
         0x0074dff4      202ef9cc       move.l -0x634(a6), d0
         0x0074dff8      b086           cmp.l d6, d0
     < 0x0074dffa      6e0000a8       bgt.w 0x74e0a4
        0x0074dffe      2f13           move.l (a3), -(a7)
        0x0074e000      4227           clr.b -(a7)
        0x0074e002      4227           clr.b -(a7)
        0x0074e004      486ef9d0       pea.l -0x630(a6)
        0x0074e008      4eb9005983cc   jsr K0_DISKMGR.k_node_data
        0x0074e00e      defc000c       adda.w 0xc, a7
        0x0074e012      102ef9d0       move.b -0x630(a6), d0
        0x0074e016      4880           ext.w d0
        0x0074e018      013aeea8       btst.l d0, 0x74cec2(pc)
    < 0x0074e01c      67000082       beq.w 0x74e0a0
       0x0074e020      4aaef9d6       tst.l -0x62a(a6)
   < 0x0074e024      667a           bne.b 0x74e0a0
      0x0074e026      202ef9cc       move.l -0x634(a6), d0
      0x0074e02a      5380           subq.l 0x1, d0
      0x0074e02c      b082           cmp.l d2, d0
  < 0x0074e02e      6302           bls.b 0x74e032
     0x0074e030      4e4f           trap 0xf
  > 0x0074e032      2800           move.l d0, d4
      0x0074e034      7606           moveq 0x6, d3
      0x0074e036      4eb900406a74   jsr fcn.00406a74
      0x0074e03c      21934800       move.l (a3), (a0, d4.l)
      0x0074e040      2f13           move.l (a3), -(a7)
      0x0074e042      4227           clr.b -(a7)
      0x0074e044      486efaee       pea.l -0x512(a6)
      0x0074e048      4eb900598490   jsr K0_DISKMGR.k_node_status
      0x0074e04e      defc000a       adda.w 0xa, a7
      0x0074e052      4a2e0008       tst.b 0x8(a6)
  < 0x0074e056      671e           beq.b 0x74e076
     0x0074e058      102efaef       move.b -0x511(a6), d0
     0x0074e05c      4880           ext.w d0
     0x0074e05e      4187           chk.w d7, d0
     0x0074e060      1f00           move.b d0, -(a7)
     0x0074e062      9efc0100       suba.w 0x100, a7
     0x0074e066      224f           movea.l a7, a1
     0x0074e068      45eef9e2       lea.l -0x61e(a6), a2
     0x0074e06c      703f           moveq 0x3f, d0
 > 0x0074e06e      22da           move.l (a2)+, (a1)+
 < 0x0074e070      51c8fffc       dbra d0, 0x74e06e
 < 0x0074e074      601c           bra.b 0x74e092
 > 0x0074e076      102efaf0       move.b -0x510(a6), d0
     0x0074e07a      4880           ext.w d0
     0x0074e07c      4187           chk.w d7, d0
     0x0074e07e      1f00           move.b d0, -(a7)
     0x0074e080      9efc0100       suba.w 0x100, a7
     0x0074e084      224f           movea.l a7, a1
     0x0074e086      45eef9e2       lea.l -0x61e(a6), a2
     0x0074e08a      703f           moveq 0x3f, d0
 > 0x0074e08c      22da           move.l (a2)+, (a1)+
 < 0x0074e08e      51c8fffc       dbra d0, 0x74e08c
 > 0x0074e092      284b           movea.l a3, a4
      0x0074e094      4ebafdb8       jsr fcn.0074de4e(pc)
      0x0074e098      defc0102       adda.w 0x102, a7
      0x0074e09c      52aef9cc       addq.l 0x1, -0x634(a6)
   < 0x0074e0a0      6000ff3c       bra.w 0x74dfde
     > 0x0074e0a4      4cdf1fff       movem.l (a7)+, d0-d7/a0-a4
           0x0074e0a8      4e5e           unlk a6
           0x0074e0aa      4e75           rts
            ; CALL XREF from MENULIBCOM.do_drive_select @ 0x7501d4
            ; CALL XREF from MENULIBCOM.set_save_disk_g @ 0x75239c
            ; CALL XREF from MENULIBCOM.volume_list_cha @ 0x7527e4
 128: MENULIBCOM.set_skls_disk_g ();
           0x0074e0ac      4e56ffd2       link.w a6, 0xffd2
           0x0074e0b0      bfd5           cmpa.l (a5), a7
       < 0x0074e0b2      6206           bhi.b 0x74e0ba
          0x0074e0b4      44fc0002       move.w 0x2, ccr
          0x0074e0b8      4e76           trapv
       > 0x0074e0ba      defc002e       adda.w 0x2e, a7
           0x0074e0be      48e7f0f0       movem.l d0-d3/a0-a3, -(a7)
           0x0074e0c2      43ee000a       lea.l 0xa(a6), a1
           0x0074e0c6      45f90086d27e   lea.l 0x86d27e, a2
           0x0074e0cc      47f90086d27a   lea.l 0x86d27a, a3
           0x0074e0d2      7402           moveq 0x2, d2
           0x0074e0d4      761e           moveq 0x1e, d3
           0x0074e0d6      4a11           tst.b (a1)
       < 0x0074e0d8      6622           bne.b 0x74e0fc
          0x0074e0da      1012           move.b (a2), d0
          0x0074e0dc      4880           ext.w d0
          0x0074e0de      4182           chk.w d2, d0
          0x0074e0e0      c1fc05d4       muls.w 0x5d4, d0
          0x0074e0e4      1211           move.b (a1), d1
          0x0074e0e6      4881           ext.w d1
          0x0074e0e8      c3c3           muls.w d3, d1
          0x0074e0ea      204b           movea.l a3, a0
          0x0074e0ec      41f00000       lea.l (a0, d0.w), a0
          0x0074e0f0      41f01000       lea.l (a0, d1.w), a0
          0x0074e0f4      4868044e       pea.l 0x44e(a0)
          0x0074e0f8      4227           clr.b -(a7)
      < 0x0074e0fa      6022           bra.b 0x74e11e
      > 0x0074e0fc      1012           move.b (a2), d0
          0x0074e0fe      4880           ext.w d0
          0x0074e100      4182           chk.w d2, d0
          0x0074e102      c1fc05d4       muls.w 0x5d4, d0
          0x0074e106      1211           move.b (a1), d1
          0x0074e108      4881           ext.w d1
          0x0074e10a      c3c3           muls.w d3, d1
          0x0074e10c      204b           movea.l a3, a0
          0x0074e10e      41f00000       lea.l (a0, d0.w), a0
          0x0074e112      41f01000       lea.l (a0, d1.w), a0
          0x0074e116      4868044e       pea.l 0x44e(a0)
          0x0074e11a      1f3c0001       move.b 0x1, -(a7)
      > 0x0074e11e      4ebafe4c       jsr MENULIBCOM.setup_disk_grou(pc)
           0x0074e122      5c4f           addq.w 0x6, a7
           0x0074e124      4cdf0f0f       movem.l (a7)+, d0-d3/a0-a3
           0x0074e128      4e5e           unlk a6
           0x0074e12a      4e75           rts
 58: MENULIBCOM.set_skls_disk_b ();
           0x0074e12c      4e56fff0       link.w a6, 0xfff0
           0x0074e130      bfd5           cmpa.l (a5), a7
       < 0x0074e132      6206           bhi.b 0x74e13a
          0x0074e134      44fc0002       move.w 0x2, ccr
          0x0074e138      4e76           trapv
       > 0x0074e13a      defc0010       adda.w 0x10, a7
           0x0074e13e      487aed84       pea.l 0x74cec4(pc)
           0x0074e142      4878001e       pea.l 0x1e
           0x0074e146      2f17           move.l (a7), -(a7)
           0x0074e148      4eb9004047ea   jsr p_wts_o
           0x0074e14e      defc000c       adda.w 0xc, a7
           0x0074e152      4eb900404946   jsr p_wtln_o
           0x0074e158      4227           clr.b -(a7)
           0x0074e15a      4eb90040452a   jsr p_Assert
           0x0074e160      544f           addq.w 0x2, a7
           0x0074e162      4e5e           unlk a6
           0x0074e164      4e75           rts
            0x0074e166      4e56ffe0       link.w a6, 0xffe0
            0x0074e16a      bfd5           cmpa.l (a5), a7
        < 0x0074e16c      6206           bhi.b 0x74e174
           0x0074e16e      44fc0002       move.w 0x2, ccr
           0x0074e172      4e76           trapv
        > 0x0074e174      defc001c       adda.w 0x1c, a7
            0x0074e178      48e78080       movem.l d0/a0, -(a7)
            0x0074e17c      487aed65       pea.l 0x74cee3(pc)
            0x0074e180      4878002c       pea.l 0x2c
            0x0074e184      2f17           move.l (a7), -(a7)
            0x0074e186      4eb9004047ea   jsr p_wts_o
            0x0074e18c      defc000c       adda.w 0xc, a7
            0x0074e190      4eb900404946   jsr p_wtln_o
            0x0074e196      10390086d27e   move.b 0x86d27e, d0
            0x0074e19c      4880           ext.w d0
            0x0074e19e      41bc0002       chk.w 0x2, d0
            0x0074e1a2      c1fc05d4       muls.w 0x5d4, d0
            0x0074e1a6      41f90086d27a   lea.l 0x86d27a, a0
            0x0074e1ac      2f30004a       move.l 0x4a(a0, d0.w), -(a7)
            0x0074e1b0      1f2e0008       move.b 0x8(a6), -(a7)
            0x0074e1b4      486efffc       pea.l -0x4(a6)
            0x0074e1b8      4eb900649384   jsr K9_LIBRARY.k9_read_volume
            0x0074e1be      defc000a       adda.w 0xa, a7
            0x0074e1c2      4cdf0101       movem.l (a7)+, d0/a0
            0x0074e1c6      4e5e           unlk a6
            0x0074e1c8      4e75           rts
            ; XREFS: CALL 0x007552e2  CALL 0x00755ae4  CALL 0x00756ad0  
            ; XREFS: CALL 0x00756b36  CALL 0x00756bea  CALL 0x00756c38  
 50: MENULIBCOM.mask ();
           0x0074e1ca      4e56fff4       link.w a6, 0xfff4
           0x0074e1ce      bfd5           cmpa.l (a5), a7
       < 0x0074e1d0      6206           bhi.b 0x74e1d8
          0x0074e1d2      44fc0002       move.w 0x2, ccr
          0x0074e1d6      4e76           trapv
       > 0x0074e1d8      defc000c       adda.w 0xc, a7
           0x0074e1dc      48e78080       movem.l d0/a0, -(a7)
           0x0074e1e0      41ee000a       lea.l 0xa(a6), a0
           0x0074e1e4      102e0008       move.b 0x8(a6), d0
           0x0074e1e8      4880           ext.w d0
           0x0074e1ea      0c400003       cmpi.w 0x3, d0
       < 0x0074e1ee      6302           bls.b 0x74e1f2
          0x0074e1f0      4e4e           trap 0xe
       > 0x0074e1f2      d040           add.w d0, d0
           0x0074e1f4      303b0006       move.w 0x74e1fc(pc, d0.w), d0
           0x0074e1f8      4efb0002       jmp 0x74e1fc(pc, d0.w)
            0x0074e1fc      00200008       ori.b 0x8, -(a0)
            0x0074e200      00100018       ori.b 0x18, (a0)
            0x0074e204      20bc01000000   move.l 0x1000000, (a0)
        < 0x0074e20a      6016           bra.b 0x74e222
           0x0074e20c      20bc02000000   move.l 0x2000000, (a0)
       < 0x0074e212      600e           bra.b 0x74e222
          0x0074e214      20bc03000000   move.l 0x3000000, (a0)
      < 0x0074e21a      6006           bra.b 0x74e222
         0x0074e21c      20bc04000000   move.l 0x4000000, (a0)
      > 0x0074e222      4cdf0101       movem.l (a7)+, d0/a0
            0x0074e226      4e5e           unlk a6
            0x0074e228      4e75           rts
            ; XREFS: CALL 0x0074e394  CALL 0x0074eeee  CALL 0x0074f174  
            ; XREFS: CALL 0x0074f30c  CALL 0x0074f64c  CALL 0x0074f740  
            ; XREFS: CALL 0x0074fb7a  CALL 0x0075007a  CALL 0x00750d00  
            ; XREFS: CALL 0x00750eac  CALL 0x00750fda  CALL 0x00751176  
            ; XREFS: CALL 0x007512ee  CALL 0x00751922  
 62: MENULIBCOM.get_op ();
           0x0074e22a      4e56ffe8       link.w a6, 0xffe8
           0x0074e22e      bfd5           cmpa.l (a5), a7
       < 0x0074e230      6206           bhi.b 0x74e238
          0x0074e232      44fc0002       move.w 0x2, ccr
          0x0074e236      4e76           trapv
       > 0x0074e238      defc0018       adda.w 0x18, a7
           0x0074e23c      48e79880       movem.l d0/d3-d4/a0, -(a7)
           0x0074e240      41ee000c       lea.l 0xc(a6), a0
           0x0074e244      7003           moveq 0x3, d0
           0x0074e246      282e0008       move.l 0x8(a6), d4
           0x0074e24a      263c01000000   move.l 0x1000000, d3
           0x0074e250      4eb900406b50   jsr fcn.00406b50
           0x0074e256      5384           subq.l 0x1, d4
           0x0074e258      b880           cmp.l d0, d4
       < 0x0074e25a      6302           bls.b 0x74e25e
          0x0074e25c      4e4e           trap 0xe
       > 0x0074e25e      d844           add.w d4, d4
           0x0074e260      383b4006       move.w 0x74e268(pc, d4.w), d4
           0x0074e264      4efb4002       jmp 0x74e268(pc, d4.w)
            0x0074e268      0008000e       
            0x0074e269      08000e00       
            0x0074e26a      000e0014       
            0x0074e26b      0e001400       
            0x0074e26c      00140018       ori.b 0x18, (a4)
            0x0074e270      10bc0001       move.b 0x1, (a0)
        < 0x0074e274      600c           bra.b 0x74e282
           0x0074e276      10bc0002       move.b 0x2, (a0)
       < 0x0074e27a      6006           bra.b 0x74e282
          0x0074e27c      1080           move.b d0, (a0)
      < 0x0074e27e      6002           bra.b 0x74e282
         0x0074e280      4210           clr.b (a0)
      > 0x0074e282      4cdf0119       movem.l (a7)+, d0/d3-d4/a0
            0x0074e286      4e5e           unlk a6
            0x0074e288      4e75           rts
            ; XREFS: CALL 0x0074e84e  CALL 0x007501dc  CALL 0x0075125a  
            ; XREFS: CALL 0x00751e32  CALL 0x007527d2  CALL 0x00756e4c  
            ; XREFS: CALL 0x00756e54  CALL 0x00756ebe  CALL 0x00756ec6  
 78: MENULIBCOM.upd_vol ();
           ; var int32_t var_139eh @ a6-0x139e
           ; var int32_t var_139ch @ a6-0x139c
           0x0074e28a      4e56ffbc       link.w a6, 0xffbc
           0x0074e28e      bfd5           cmpa.l (a5), a7
       < 0x0074e290      6206           bhi.b 0x74e298
          0x0074e292      44fc0002       move.w 0x2, ccr
          0x0074e296      4e76           trapv
       > 0x0074e298      defc0032       adda.w 0x32, a7
           0x0074e29c      48e7e0c0       movem.l d0-d2/a0-a1, -(a7)
           0x0074e2a0      41eefff0       lea.l -0x10(a6), a0
           0x0074e2a4      43eefff4       lea.l -0xc(a6), a1
           0x0074e2a8      7406           moveq 0x6, d2
           0x0074e2aa      20baec64       move.l 0x74cf10(pc), (a0)
           0x0074e2ae      22baec64       move.l 0x74cf14(pc), (a1)
           0x0074e2b2      2d7aec64fff8   move.l 0x74cf18(pc), -0x8(a6)
           0x0074e2b8      2d7aec62fffc   move.l 0x74cf1c(pc), -0x4(a6)
           0x0074e2be      102e0008       move.b 0x8(a6), d0
           0x0074e2c2      4880           ext.w d0
           0x0074e2c4      3200           move.w d0, d1
           0x0074e2c6      0c410003       cmpi.w 0x3, d1
       < 0x0074e2ca      6302           bls.b 0x74e2ce
          0x0074e2cc      4e4e           trap 0xe
       > 0x0074e2ce      d241           add.w d1, d1
           0x0074e2d0      323b1006       move.w 0x74e2d8(pc, d1.w), d1
           0x0074e2d4      4efb1002       jmp 0x74e2d8(pc, d1.w)
            0x0074e2d8      00160008       ori.b 0x8, (a6)
            0x0074e2dc      00080008       
            0x0074e2dd      08000822       
            0x0074e2de      0008223a       
            0x0074e2df      08223aec       
            0x0074e2e0      223aec56       move.l 0x74cf38(pc), d1
            0x0074e2e4      8390           or.l d1, (a0)
            0x0074e2e6      223aec54       move.l 0x74cf3c(pc), d1
        > 0x0074e2ea      8391           or.l d1, (a1)
       < 0x0074e2ec      600c           bra.b 0x74e2fa
          0x0074e2ee      223aec50       move.l 0x74cf40(pc), d1
          0x0074e2f2      8390           or.l d1, (a0)
          0x0074e2f4      223aec4e       move.l 0x74cf44(pc), d1
       < 0x0074e2f8      60f0           bra.b 0x74e2ea
       > 0x0074e2fa      4a390086d27f   tst.b 0x86d27f
        < 0x0074e300      6724           beq.b 0x74e326
           0x0074e302      4a40           tst.w d0
       < 0x0074e304      6620           bne.b 0x74e326
          0x0074e306      554f           subq.w 0x2, a7
          0x0074e308      3f390086d2b6   move.w 0x86d2b6, -(a7)
          0x0074e30e      4eb900480fc2   jsr MENUCOM.get_boxon
          0x0074e314      544f           addq.w 0x2, a7
          0x0074e316      4a1f           tst.b (a7)+
      < 0x0074e318      670c           beq.b 0x74e326
         0x0074e31a      223aec2c       move.l 0x74cf48(pc), d1
         0x0074e31e      8390           or.l d1, (a0)
         0x0074e320      223aec2a       move.l 0x74cf4c(pc), d1
         0x0074e324      8391           or.l d1, (a1)
      > 0x0074e326      1f00           move.b d0, -(a7)
            0x0074e328      1f02           move.b d2, -(a7)
            0x0074e32a      2f11           move.l (a1), -(a7)
            0x0074e32c      2f10           move.l (a0), -(a7)
            0x0074e32e      2f2efffc       move.l -0x4(a6), -(a7)
            0x0074e332      2f2efff8       move.l -0x8(a6), -(a7)
            0x0074e336      486effee       pea.l -0x12(a6)
            0x0074e33a      4eb90066233a   jsr K95_CARDS.k9_upd_vol
            0x0074e340      defc0018       adda.w 0x18, a7
            0x0074e344      4a2effee       tst.b -0x12(a6)
        < 0x0074e348      670c           beq.b 0x74e356
           0x0074e34a      1f00           move.b d0, -(a7)
           0x0074e34c      1f02           move.b d2, -(a7)
           0x0074e34e      4eb900662f7e   jsr K95_CARDS.k9_field_change
           0x0074e354      584f           addq.w 0x4, a7
        > 0x0074e356      4cdf0307       movem.l (a7)+, d0-d2/a0-a1
            0x0074e35a      4e5e           unlk a6
            0x0074e35c      4e75           rts
 1508: MENULIBCOM.hit_skls_type_s ();
           0x0074e35e      4e56fda0       link.w a6, 0xfda0
           0x0074e362      bfd5           cmpa.l (a5), a7
       < 0x0074e364      6206           bhi.b 0x74e36c
          0x0074e366      44fc0002       move.w 0x2, ccr
          0x0074e36a      4e76           trapv
       > 0x0074e36c      defc0248       adda.w 0x248, a7
           0x0074e370      48e7fff8       movem.l d0-d7/a0-a4, -(a7)
           0x0074e374      47eefff0       lea.l -0x10(a6), a3
           0x0074e378      49eefff4       lea.l -0xc(a6), a4
           0x0074e37c      762d           moveq 0x2d, d3
           0x0074e37e      7801           moveq 0x1, d4
           0x0074e380      594f           subq.w 0x4, a7
           0x0074e382      3f2e000a       move.w 0xa(a6), -(a7)
           0x0074e386      4eb90048406e   jsr MENUCOM.get_b_id
           0x0074e38c      544f           addq.w 0x2, a7
           0x0074e38e      2e17           move.l (a7), d7
           0x0074e390      544f           addq.w 0x2, a7
           0x0074e392      2f07           move.l d7, -(a7)
           0x0074e394      4ebafe94       jsr MENULIBCOM.get_op(pc)
           0x0074e398      584f           addq.w 0x4, a7
           0x0074e39a      101f           move.b (a7)+, d0
           0x0074e39c      4880           ext.w d0
           0x0074e39e      41bc0003       chk.w 0x3, d0
           0x0074e3a2      1c00           move.b d0, d6
           0x0074e3a4      028700ffffff   andi.l 0xffffff, d7
           0x0074e3aa      1f07           move.b d7, -(a7)
           0x0074e3ac      101f           move.b (a7)+, d0
           0x0074e3ae      4880           ext.w d0
           0x0074e3b0      4183           chk.w d3, d0
           0x0074e3b2      1d40ffef       move.b d0, -0x11(a6)
           0x0074e3b6      10390086d27e   move.b 0x86d27e, d0
           0x0074e3bc      4880           ext.w d0
           0x0074e3be      41bc0002       chk.w 0x2, d0
           0x0074e3c2      c1fc05d4       muls.w 0x5d4, d0
           0x0074e3c6      41f90086d27a   lea.l 0x86d27a, a0
           0x0074e3cc      322e0008       move.w 0x8(a6), d1
           0x0074e3d0      b244           cmp.w d4, d1
       < 0x0074e3d2      660000ac       bne.w 0x74e480
          0x0074e3d6      4a390086d27f   tst.b 0x86d27f
      < 0x0074e3dc      660000a2       bne.w 0x74e480
         0x0074e3e0      43f00046       lea.l 0x46(a0, d0.w), a1
         0x0074e3e4      322e000a       move.w 0xa(a6), d1
         0x0074e3e8      b269028c       cmp.w 0x28c(a1), d1
     < 0x0074e3ec      6630           bne.b 0x74e41e
        0x0074e3ee      bc04           cmp.b d4, d6
    < 0x0074e3f0      662c           bne.b 0x74e41e
       0x0074e3f2      4886           ext.w d6
       0x0074e3f4      725c           moveq 0x5c, d1
       0x0074e3f6      c3c6           muls.w d6, d1
       0x0074e3f8      7e02           moveq 0x2, d7
   > 0x0074e3fa      4887           ext.w d7
      0x0074e3fc      3407           move.w d7, d2
      0x0074e3fe      e342           asl.w 0x1, d2
      0x0074e400      45f11000       lea.l (a1, d1.w), a2
      0x0074e404      45f22000       lea.l (a2, d2.w), a2
      0x0074e408      3f2a010c       move.w 0x10c(a2), -(a7)
      0x0074e40c      4227           clr.b -(a7)
      0x0074e40e      4eb900483776   jsr MENUCOM.swtch_box
      0x0074e414      584f           addq.w 0x4, a7
      0x0074e416      5207           addq.b 0x1, d7
      0x0074e418      be03           cmp.b d3, d7
   < 0x0074e41a      6fde           ble.b 0x74e3fa
   < 0x0074e41c      6062           bra.b 0x74e480
   > 0x0074e41e      4886           ext.w d6
        0x0074e420      720e           moveq 0xe, d1
        0x0074e422      c3c6           muls.w d6, d1
        0x0074e424      554f           subq.w 0x2, a7
        0x0074e426      3406           move.w d6, d2
        0x0074e428      e342           asl.w 0x1, d2
        0x0074e42a      45f12000       lea.l (a1, d2.w), a2
        0x0074e42e      3f2a0284       move.w 0x284(a2), -(a7)
        0x0074e432      4eb900480fc2   jsr MENUCOM.get_boxon
        0x0074e438      544f           addq.w 0x2, a7
        0x0074e43a      4a1f           tst.b (a7)+
    < 0x0074e43c      6712           beq.b 0x74e450
       0x0074e43e      554f           subq.w 0x2, a7
       0x0074e440      3f311016       move.w 0x16(a1, d1.w), -(a7)
       0x0074e444      4eb900480fc2   jsr MENUCOM.get_boxon
       0x0074e44a      544f           addq.w 0x2, a7
       0x0074e44c      4a1f           tst.b (a7)+
   < 0x0074e44e      6730           beq.b 0x74e480
   > 0x0074e450      4886           ext.w d6
       0x0074e452      725c           moveq 0x5c, d1
       0x0074e454      c3c6           muls.w d6, d1
       0x0074e456      7e02           moveq 0x2, d7
   > 0x0074e458      be2effef       cmp.b -0x11(a6), d7
  < 0x0074e45c      671c           beq.b 0x74e47a
     0x0074e45e      4887           ext.w d7
     0x0074e460      3407           move.w d7, d2
     0x0074e462      e342           asl.w 0x1, d2
     0x0074e464      45f11000       lea.l (a1, d1.w), a2
     0x0074e468      45f22000       lea.l (a2, d2.w), a2
     0x0074e46c      3f2a010c       move.w 0x10c(a2), -(a7)
     0x0074e470      4227           clr.b -(a7)
     0x0074e472      4eb900483776   jsr MENUCOM.swtch_box
     0x0074e478      584f           addq.w 0x4, a7
  > 0x0074e47a      5207           addq.b 0x1, d7
      0x0074e47c      be03           cmp.b d3, d7
   < 0x0074e47e      6fd8           ble.b 0x74e458
   > 0x0074e480      322e0008       move.w 0x8(a6), d1
           0x0074e484      43faeaca       lea.l 0x74cf50(pc), a1
           0x0074e488      3401           move.w d1, d2
           0x0074e48a      e64a           lsr.w 0x3, d2
           0x0074e48c      0c420020       cmpi.w 0x20, d2
       < 0x0074e490      6d04           blt.b 0x74e496
          0x0074e492      7400           moveq 0x0, d2
      < 0x0074e494      6004           bra.b 0x74e49a
      > 0x0074e496      03312000       btst.l d1, (a1, d2.w)
      < 0x0074e49a      6700049e       beq.w 0x74e93a
          0x0074e49e      26baea78       move.l 0x74cf18(pc), (a3)
          0x0074e4a2      38baea78       move.w 0x74cf1c(pc), (a4)
          0x0074e4a6      7a00           moveq 0x0, d5
          0x0074e4a8      4a06           tst.b d6
      < 0x0074e4aa      66000106       bne.w 0x74e5b2
         0x0074e4ae      4a390086d27f   tst.b 0x86d27f
     < 0x0074e4b4      670000fc       beq.w 0x74e5b2
        0x0074e4b8      5d4f           subq.w 0x6, a7
        0x0074e4ba      4eb9005b7a8e   jsr HENRY_DUMMY.dougal_clip_typ
        0x0074e4c0      269f           move.l (a7)+, (a3)
        0x0074e4c2      3897           move.w (a7), (a4)
        0x0074e4c4      3f390086d2b6   move.w 0x86d2b6, -(a7)
        0x0074e4ca      4eb900480fc2   jsr MENUCOM.get_boxon
        0x0074e4d0      544f           addq.w 0x2, a7
        0x0074e4d2      4a1f           tst.b (a7)+
    < 0x0074e4d4      6740           beq.b 0x74e516
       0x0074e4d6      22390086d288   move.l 0x86d288, d1
       0x0074e4dc      4681           not.l d1
       0x0074e4de      c393           and.l d1, (a3)
       0x0074e4e0      32390086d28c   move.w 0x86d28c, d1
   > 0x0074e4e6      4641           not.w d1
      0x0074e4e8      c354           and.w d1, (a4)
      0x0074e4ea      22390086d294   move.l 0x86d294, d1
      0x0074e4f0      4681           not.l d1
      0x0074e4f2      c393           and.l d1, (a3)
      0x0074e4f4      32390086d298   move.w 0x86d298, d1
  > 0x0074e4fa      4641           not.w d1
     0x0074e4fc      c354           and.w d1, (a4)
     0x0074e4fe      22390086d28e   move.l 0x86d28e, d1
     0x0074e504      4681           not.l d1
     0x0074e506      c393           and.l d1, (a3)
     0x0074e508      32390086d292   move.w 0x86d292, d1
 > 0x0074e50e      4641           not.w d1
    0x0074e510      c354           and.w d1, (a4)
 < 0x0074e512      600000f0       bra.w 0x74e604
 > 0x0074e516      554f           subq.w 0x2, a7
     0x0074e518      3f390086d2b8   move.w 0x86d2b8, -(a7)
     0x0074e51e      4eb900480fc2   jsr MENUCOM.get_boxon
     0x0074e524      544f           addq.w 0x2, a7
     0x0074e526      4a1f           tst.b (a7)+
 < 0x0074e528      6712           beq.b 0x74e53c
    0x0074e52a      22390086d282   move.l 0x86d282, d1
    0x0074e530      4681           not.l d1
    0x0074e532      c393           and.l d1, (a3)
    0x0074e534      32390086d286   move.w 0x86d286, d1
 < 0x0074e53a      60aa           bra.b 0x74e4e6
  > 0x0074e53c      554f           subq.w 0x2, a7
      0x0074e53e      3f390086d2ba   move.w 0x86d2ba, -(a7)
      0x0074e544      4eb900480fc2   jsr MENUCOM.get_boxon
      0x0074e54a      544f           addq.w 0x2, a7
      0x0074e54c      4a1f           tst.b (a7)+
  < 0x0074e54e      6726           beq.b 0x74e576
     0x0074e550      22390086d282   move.l 0x86d282, d1
     0x0074e556      4681           not.l d1
     0x0074e558      c393           and.l d1, (a3)
     0x0074e55a      32390086d286   move.w 0x86d286, d1
     0x0074e560      4641           not.w d1
     0x0074e562      c354           and.w d1, (a4)
     0x0074e564      22390086d288   move.l 0x86d288, d1
     0x0074e56a      4681           not.l d1
     0x0074e56c      c393           and.l d1, (a3)
     0x0074e56e      32390086d28c   move.w 0x86d28c, d1
 < 0x0074e574      6084           bra.b 0x74e4fa
   > 0x0074e576      22390086d282   move.l 0x86d282, d1
       0x0074e57c      4681           not.l d1
       0x0074e57e      c393           and.l d1, (a3)
       0x0074e580      32390086d286   move.w 0x86d286, d1
       0x0074e586      4641           not.w d1
       0x0074e588      c354           and.w d1, (a4)
       0x0074e58a      22390086d288   move.l 0x86d288, d1
       0x0074e590      4681           not.l d1
       0x0074e592      c393           and.l d1, (a3)
       0x0074e594      32390086d28c   move.w 0x86d28c, d1
       0x0074e59a      4641           not.w d1
       0x0074e59c      c354           and.w d1, (a4)
       0x0074e59e      22390086d294   move.l 0x86d294, d1
       0x0074e5a4      4681           not.l d1
       0x0074e5a6      c393           and.l d1, (a3)
       0x0074e5a8      32390086d298   move.w 0x86d298, d1
 < 0x0074e5ae      6000ff5e       bra.w 0x74e50e
     > 0x0074e5b2      4886           ext.w d6
          0x0074e5b4      725c           moveq 0x5c, d1
          0x0074e5b6      c3c6           muls.w d6, d1
          0x0074e5b8      43f00046       lea.l 0x46(a0, d0.w), a1
          0x0074e5bc      7e02           moveq 0x2, d7
      > 0x0074e5be      554f           subq.w 0x2, a7
         0x0074e5c0      4887           ext.w d7
         0x0074e5c2      3407           move.w d7, d2
         0x0074e5c4      e342           asl.w 0x1, d2
         0x0074e5c6      45f11000       lea.l (a1, d1.w), a2
         0x0074e5ca      45f22000       lea.l (a2, d2.w), a2
         0x0074e5ce      3f2a010c       move.w 0x10c(a2), -(a7)
         0x0074e5d2      4eb900480fc2   jsr MENUCOM.get_boxon
         0x0074e5d8      544f           addq.w 0x2, a7
         0x0074e5da      4a1f           tst.b (a7)+
     < 0x0074e5dc      6720           beq.b 0x74e5fe
        0x0074e5de      5285           addq.l 0x1, d5
        0x0074e5e0      1d47ffef       move.b d7, -0x11(a6)
        0x0074e5e4      2f3ae934       move.l 0x74cf1a(pc), -(a7)
        0x0074e5e8      3f3ae92e       move.w 0x74cf18(pc), -(a7)
        0x0074e5ec      4887           ext.w d7
        0x0074e5ee      3407           move.w d7, d2
        0x0074e5f0      e64a           lsr.w 0x3, d2
        0x0074e5f2      0ff72000       bset.b d7, (a7, d2.w)
        0x0074e5f6      241f           move.l (a7)+, d2
        0x0074e5f8      8593           or.l d2, (a3)
        0x0074e5fa      341f           move.w (a7)+, d2
        0x0074e5fc      8554           or.w d2, (a4)
     > 0x0074e5fe      5207           addq.b 0x1, d7
         0x0074e600      be03           cmp.b d3, d7
      < 0x0074e602      6fba           ble.b 0x74e5be
 > 0x0074e604      4a390086d280   tst.b 0x86d280
      < 0x0074e60a      671c           beq.b 0x74e628
         0x0074e60c      4a85           tst.l d5
     < 0x0074e60e      660e           bne.b 0x74e61e
        0x0074e610      26b90086d2a0   move.l 0x86d2a0, (a3)
        0x0074e616      38b90086d2a4   move.w 0x86d2a4, (a4)
    < 0x0074e61c      600a           bra.b 0x74e628
    > 0x0074e61e      0c8500000005   cmpi.l 0x5, d5
    < 0x0074e624      6602           bne.b 0x74e628
       0x0074e626      7a00           moveq 0x0, d5
    > 0x0074e628      4a390086d27f   tst.b 0x86d27f
      < 0x0074e62e      670001e6       beq.w 0x74e816
         0x0074e632      4886           ext.w d6
         0x0074e634      0d3ae93a       btst.l d6, 0x74cf70(pc)
     < 0x0074e638      670001dc       beq.w 0x74e816
        0x0074e63c      4886           ext.w d6
        0x0074e63e      3206           move.w d6, d1
        0x0074e640      5341           subq.w 0x1, d1
        0x0074e642      43bc0002       chk.w 0x2, d1
        0x0074e646      e741           asl.w 0x3, d1
        0x0074e648      43f00046       lea.l 0x46(a0, d0.w), a1
        0x0074e64c      43f11000       lea.l (a1, d1.w), a1
        0x0074e650      082e000efff1   btst.b 0xe, -0xf(a6)
    < 0x0074e656      6710           beq.b 0x74e668
       0x0074e658      22390086d29a   move.l 0x86d29a, d1
       0x0074e65e      8393           or.l d1, (a3)
       0x0074e660      32390086d29e   move.w 0x86d29e, d1
       0x0074e666      8354           or.w d1, (a4)
    > 0x0074e668      082e0015fff2   btst.b 0x15, -0xe(a6)
    < 0x0074e66e      6710           beq.b 0x74e680
       0x0074e670      22390086d2a6   move.l 0x86d2a6, d1
       0x0074e676      8393           or.l d1, (a3)
       0x0074e678      32390086d2aa   move.w 0x86d2aa, d1
       0x0074e67e      8354           or.w d1, (a4)
    > 0x0074e680      082e0016fff2   btst.b 0x16, -0xe(a6)
    < 0x0074e686      6710           beq.b 0x74e698
       0x0074e688      22390086d2ac   move.l 0x86d2ac, d1
       0x0074e68e      8393           or.l d1, (a3)
       0x0074e690      32390086d2b0   move.w 0x86d2b0, d1
       0x0074e696      8354           or.w d1, (a4)
    > 0x0074e698      554f           subq.w 0x2, a7
        0x0074e69a      3f29028e       move.w 0x28e(a1), -(a7)
        0x0074e69e      4eb900480fc2   jsr MENUCOM.get_boxon
        0x0074e6a4      544f           addq.w 0x2, a7
        0x0074e6a6      4a1f           tst.b (a7)+
    < 0x0074e6a8      6714           beq.b 0x74e6be
       0x0074e6aa      22390086d28e   move.l 0x86d28e, d1
       0x0074e6b0      4681           not.l d1
       0x0074e6b2      c393           and.l d1, (a3)
       0x0074e6b4      32390086d292   move.w 0x86d292, d1
   < 0x0074e6ba      60000096       bra.w 0x74e752
   > 0x0074e6be      554f           subq.w 0x2, a7
       0x0074e6c0      3f290290       move.w 0x290(a1), -(a7)
       0x0074e6c4      4eb900480fc2   jsr MENUCOM.get_boxon
       0x0074e6ca      544f           addq.w 0x2, a7
       0x0074e6cc      4a1f           tst.b (a7)+
   < 0x0074e6ce      6726           beq.b 0x74e6f6
      0x0074e6d0      22390086d282   move.l 0x86d282, d1
      0x0074e6d6      4681           not.l d1
      0x0074e6d8      c393           and.l d1, (a3)
      0x0074e6da      32390086d286   move.w 0x86d286, d1
      0x0074e6e0      4641           not.w d1
      0x0074e6e2      c354           and.w d1, (a4)
      0x0074e6e4      22390086d28e   move.l 0x86d28e, d1
      0x0074e6ea      4681           not.l d1
      0x0074e6ec      c393           and.l d1, (a3)
      0x0074e6ee      32390086d292   move.w 0x86d292, d1
  < 0x0074e6f4      6070           bra.b 0x74e766
  > 0x0074e6f6      554f           subq.w 0x2, a7
      0x0074e6f8      3f290292       move.w 0x292(a1), -(a7)
      0x0074e6fc      4eb900480fc2   jsr MENUCOM.get_boxon
      0x0074e702      544f           addq.w 0x2, a7
      0x0074e704      4a1f           tst.b (a7)+
  < 0x0074e706      673a           beq.b 0x74e742
     0x0074e708      22390086d282   move.l 0x86d282, d1
     0x0074e70e      4681           not.l d1
     0x0074e710      c393           and.l d1, (a3)
     0x0074e712      32390086d286   move.w 0x86d286, d1
     0x0074e718      4641           not.w d1
     0x0074e71a      c354           and.w d1, (a4)
     0x0074e71c      22390086d288   move.l 0x86d288, d1
     0x0074e722      4681           not.l d1
     0x0074e724      c393           and.l d1, (a3)
     0x0074e726      32390086d28c   move.w 0x86d28c, d1
     0x0074e72c      4641           not.w d1
     0x0074e72e      c354           and.w d1, (a4)
     0x0074e730      22390086d28e   move.l 0x86d28e, d1
     0x0074e736      4681           not.l d1
     0x0074e738      c393           and.l d1, (a3)
     0x0074e73a      32390086d292   move.w 0x86d292, d1
 < 0x0074e740      6038           bra.b 0x74e77a
 > 0x0074e742      22390086d282   move.l 0x86d282, d1
     0x0074e748      4681           not.l d1
     0x0074e74a      c393           and.l d1, (a3)
     0x0074e74c      32390086d286   move.w 0x86d286, d1
 > 0x0074e752      4641           not.w d1
      0x0074e754      c354           and.w d1, (a4)
      0x0074e756      22390086d288   move.l 0x86d288, d1
      0x0074e75c      4681           not.l d1
      0x0074e75e      c393           and.l d1, (a3)
      0x0074e760      32390086d28c   move.w 0x86d28c, d1
 > 0x0074e766      4641           not.w d1
       0x0074e768      c354           and.w d1, (a4)
       0x0074e76a      22390086d294   move.l 0x86d294, d1
       0x0074e770      4681           not.l d1
       0x0074e772      c393           and.l d1, (a3)
       0x0074e774      32390086d298   move.w 0x86d298, d1
 > 0x0074e77a      4641           not.w d1
        0x0074e77c      c354           and.w d1, (a4)
        0x0074e77e      2213           move.l (a3), d1
        0x0074e780      b2bae796       cmp.l 0x74cf18(pc), d1
    < 0x0074e784      6606           bne.b 0x74e78c
       0x0074e786      3214           move.w (a4), d1
       0x0074e788      b27ae792       cmp.w 0x74cf1c(pc), d1
   > 0x0074e78c      666c           bne.b 0x74e7fa
       0x0074e78e      554f           subq.w 0x2, a7
       0x0074e790      3f29028e       move.w 0x28e(a1), -(a7)
       0x0074e794      4eb900480fc2   jsr MENUCOM.get_boxon
       0x0074e79a      544f           addq.w 0x2, a7
       0x0074e79c      4a1f           tst.b (a7)+
   < 0x0074e79e      670e           beq.b 0x74e7ae
      0x0074e7a0      26b90086d282   move.l 0x86d282, (a3)
      0x0074e7a6      38b90086d286   move.w 0x86d286, (a4)
  < 0x0074e7ac      604c           bra.b 0x74e7fa
  > 0x0074e7ae      554f           subq.w 0x2, a7
      0x0074e7b0      3f290290       move.w 0x290(a1), -(a7)
      0x0074e7b4      4eb900480fc2   jsr MENUCOM.get_boxon
      0x0074e7ba      544f           addq.w 0x2, a7
      0x0074e7bc      4a1f           tst.b (a7)+
  < 0x0074e7be      670e           beq.b 0x74e7ce
     0x0074e7c0      26b90086d288   move.l 0x86d288, (a3)
     0x0074e7c6      38b90086d28c   move.w 0x86d28c, (a4)
 < 0x0074e7cc      602c           bra.b 0x74e7fa
 > 0x0074e7ce      554f           subq.w 0x2, a7
     0x0074e7d0      3f290292       move.w 0x292(a1), -(a7)
     0x0074e7d4      4eb900480fc2   jsr MENUCOM.get_boxon
     0x0074e7da      544f           addq.w 0x2, a7
     0x0074e7dc      4a1f           tst.b (a7)+
 < 0x0074e7de      670e           beq.b 0x74e7ee
    0x0074e7e0      26b90086d294   move.l 0x86d294, (a3)
    0x0074e7e6      38b90086d298   move.w 0x86d298, (a4)
 < 0x0074e7ec      600c           bra.b 0x74e7fa
 > 0x0074e7ee      26b90086d28e   move.l 0x86d28e, (a3)
     0x0074e7f4      38b90086d292   move.w 0x86d292, (a4)
 > 0x0074e7fa      7a00           moveq 0x0, d5
        0x0074e7fc      7e02           moveq 0x2, d7
    > 0x0074e7fe      4887           ext.w d7
       0x0074e800      3207           move.w d7, d1
       0x0074e802      e649           lsr.w 0x3, d1
       0x0074e804      0f3610f0       btst.l d7, -0x10(a6, d1.w)
   < 0x0074e808      6706           beq.b 0x74e810
      0x0074e80a      1d47ffef       move.b d7, -0x11(a6)
      0x0074e80e      5285           addq.l 0x1, d5
   > 0x0074e810      5207           addq.b 0x1, d7
       0x0074e812      be03           cmp.b d3, d7
    < 0x0074e814      6fe8           ble.b 0x74e7fe
     > 0x0074e816      1f06           move.b d6, -(a7)
          0x0074e818      1f3c0004       move.b 0x4, -(a7)
          0x0074e81c      2f2efff2       move.l -0xe(a6), -(a7)
          0x0074e820      3f13           move.w (a3), -(a7)
          0x0074e822      486efffe       pea.l -0x2(a6)
          0x0074e826      4eb900660f92   jsr K95_CARDS.k9_upd_type_set
          0x0074e82c      defc000e       adda.w 0xe, a7
          0x0074e830      4a2efffe       tst.b -0x2(a6)
      < 0x0074e834      670e           beq.b 0x74e844
         0x0074e836      1f06           move.b d6, -(a7)
         0x0074e838      1f3c0004       move.b 0x4, -(a7)
         0x0074e83c      4eb900662f7e   jsr K95_CARDS.k9_field_change
         0x0074e842      584f           addq.w 0x4, a7
      > 0x0074e844      4a390086d27f   tst.b 0x86d27f
      < 0x0074e84a      6708           beq.b 0x74e854
         0x0074e84c      1f06           move.b d6, -(a7)
         0x0074e84e      4ebafa3a       jsr MENULIBCOM.upd_vol(pc)
         0x0074e852      544f           addq.w 0x2, a7
      > 0x0074e854      4a390086d27f   tst.b 0x86d27f
      < 0x0074e85a      660000de       bne.w 0x74e93a
         0x0074e85e      4a85           tst.l d5
     < 0x0074e860      6648           bne.b 0x74e8aa
        0x0074e862      4a06           tst.b d6
    < 0x0074e864      6636           bne.b 0x74e89c
       0x0074e866      554f           subq.w 0x2, a7
       0x0074e868      3f3ae708       move.w 0x74cf72(pc), -(a7)
       0x0074e86c      1f7ae7060002   move.b 0x74cf74(pc), 0x2(a7)
   > 0x0074e872      4886           ext.w d6
      0x0074e874      3206           move.w d6, d1
      0x0074e876      e341           asl.w 0x1, d1
      0x0074e878      43f00046       lea.l 0x46(a0, d0.w), a1
      0x0074e87c      43f11000       lea.l (a1, d1.w), a1
      0x0074e880      3f29027c       move.w 0x27c(a1), -(a7)
      0x0074e884      486f0002       pea.l 0x2(a7)
      0x0074e888      3f04           move.w d4, -(a7)
      0x0074e88a      3f3c0003       move.w 0x3, -(a7)
      0x0074e88e      4eb900483da2   jsr MENUCOM.set_boxtext
      0x0074e894      defc000e       adda.w 0xe, a7
  < 0x0074e898      600000a0       bra.w 0x74e93a
  > 0x0074e89c      554f           subq.w 0x2, a7
      0x0074e89e      3f3ae6d6       move.w 0x74cf76(pc), -(a7)
      0x0074e8a2      1f7ae6d40002   move.b 0x74cf78(pc), 0x2(a7)
  < 0x0074e8a8      60c8           bra.b 0x74e872
    > 0x0074e8aa      ba84           cmp.l d4, d5
    < 0x0074e8ac      6f34           ble.b 0x74e8e2
       0x0074e8ae      554f           subq.w 0x2, a7
       0x0074e8b0      2f3ae6c8       move.l 0x74cf7a(pc), -(a7)
       0x0074e8b4      1f7ae6c80004   move.b 0x74cf7e(pc), 0x4(a7)
       0x0074e8ba      4886           ext.w d6
       0x0074e8bc      3206           move.w d6, d1
       0x0074e8be      e341           asl.w 0x1, d1
       0x0074e8c0      43f00046       lea.l 0x46(a0, d0.w), a1
       0x0074e8c4      43f11000       lea.l (a1, d1.w), a1
       0x0074e8c8      3f29027c       move.w 0x27c(a1), -(a7)
       0x0074e8cc      486f0002       pea.l 0x2(a7)
       0x0074e8d0      3f04           move.w d4, -(a7)
       0x0074e8d2      3f3c0005       move.w 0x5, -(a7)
       0x0074e8d6      4eb900483da2   jsr MENUCOM.set_boxtext
       0x0074e8dc      defc0010       adda.w 0x10, a7
   < 0x0074e8e0      6058           bra.b 0x74e93a
   > 0x0074e8e2      9efc0102       suba.w 0x102, a7
       0x0074e8e6      1f2effef       move.b -0x11(a6), -(a7)
       0x0074e8ea      4eb9005af700   jsr K2_TYPES.k2_get_ktype
       0x0074e8f0      544f           addq.w 0x2, a7
       0x0074e8f2      1217           move.b (a7), d1
       0x0074e8f4      4881           ext.w d1
       0x0074e8f6      43bc0056       chk.w 0x56, d1
       0x0074e8fa      1e81           move.b d1, (a7)
       0x0074e8fc      4eb9005af840   jsr K2_TYPES.k2_get_type_str
       0x0074e902      9efc00fe       suba.w 0xfe, a7
       0x0074e906      224f           movea.l a7, a1
       0x0074e908      45ef0100       lea.l 0x100(a7), a2
       0x0074e90c      723f           moveq 0x3f, d1
   > 0x0074e90e      22da           move.l (a2)+, (a1)+
   < 0x0074e910      51c9fffc       dbra d1, 0x74e90e
       0x0074e914      4886           ext.w d6
       0x0074e916      3206           move.w d6, d1
       0x0074e918      e341           asl.w 0x1, d1
       0x0074e91a      43f00046       lea.l 0x46(a0, d0.w), a1
       0x0074e91e      43f11000       lea.l (a1, d1.w), a1
       0x0074e922      3f29027c       move.w 0x27c(a1), -(a7)
       0x0074e926      486f0002       pea.l 0x2(a7)
       0x0074e92a      4267           clr.w -(a7)
       0x0074e92c      3f3c00ff       move.w 0xff, -(a7)
       0x0074e930      4eb900483da2   jsr MENUCOM.set_boxtext
       0x0074e936      defc020a       adda.w 0x20a, a7
  > 0x0074e93a      4cdf1fff       movem.l (a7)+, d0-d7/a0-a4
           0x0074e93e      4e5e           unlk a6
           0x0074e940      4e75           rts
 548: MENULIBCOM.hit_retitle_typ ();
           ; var int32_t var_1b16h @ a6-0x1b16
           0x0074e942      4e56fda4       link.w a6, 0xfda4
           0x0074e946      bfd5           cmpa.l (a5), a7
       < 0x0074e948      6206           bhi.b 0x74e950
          0x0074e94a      44fc0002       move.w 0x2, ccr
          0x0074e94e      4e76           trapv
       > 0x0074e950      defc0248       adda.w 0x248, a7
           0x0074e954      48e7fff8       movem.l d0-d7/a0-a4, -(a7)
           0x0074e958      47f90086d27f   lea.l 0x86d27f, a3
           0x0074e95e      49eefff2       lea.l -0xe(a6), a4
           0x0074e962      762d           moveq 0x2d, d3
           0x0074e964      7801           moveq 0x1, d4
           0x0074e966      594f           subq.w 0x4, a7
           0x0074e968      3f2e000a       move.w 0xa(a6), -(a7)
           0x0074e96c      4eb90048406e   jsr MENUCOM.get_b_id
           0x0074e972      544f           addq.w 0x2, a7
           0x0074e974      2e1f           move.l (a7)+, d7
           0x0074e976      028700ffffff   andi.l 0xffffff, d7
           0x0074e97c      1f07           move.b d7, -(a7)
           0x0074e97e      101f           move.b (a7)+, d0
           0x0074e980      4880           ext.w d0
           0x0074e982      4183           chk.w d3, d0
           0x0074e984      1a00           move.b d0, d5
           0x0074e986      10390086d27e   move.b 0x86d27e, d0
           0x0074e98c      4880           ext.w d0
           0x0074e98e      41bc0002       chk.w 0x2, d0
           0x0074e992      c1fc05d4       muls.w 0x5d4, d0
           0x0074e996      41f90086d27a   lea.l 0x86d27a, a0
           0x0074e99c      322e0008       move.w 0x8(a6), d1
           0x0074e9a0      b244           cmp.w d4, d1
       < 0x0074e9a2      666a           bne.b 0x74ea0e
          0x0074e9a4      4a13           tst.b (a3)
      < 0x0074e9a6      6666           bne.b 0x74ea0e
         0x0074e9a8      43f00046       lea.l 0x46(a0, d0.w), a1
         0x0074e9ac      322e000a       move.w 0xa(a6), d1
         0x0074e9b0      b2690306       cmp.w 0x306(a1), d1
     < 0x0074e9b4      6622           bne.b 0x74e9d8
        0x0074e9b6      7e02           moveq 0x2, d7
    > 0x0074e9b8      4887           ext.w d7
       0x0074e9ba      3207           move.w d7, d1
       0x0074e9bc      e341           asl.w 0x1, d1
       0x0074e9be      45f11000       lea.l (a1, d1.w), a2
       0x0074e9c2      3f2a02a6       move.w 0x2a6(a2), -(a7)
       0x0074e9c6      4227           clr.b -(a7)
       0x0074e9c8      4eb900483776   jsr MENUCOM.swtch_box
       0x0074e9ce      584f           addq.w 0x4, a7
       0x0074e9d0      5207           addq.b 0x1, d7
       0x0074e9d2      be03           cmp.b d3, d7
    < 0x0074e9d4      6fe2           ble.b 0x74e9b8
    < 0x0074e9d6      6036           bra.b 0x74ea0e
    > 0x0074e9d8      554f           subq.w 0x2, a7
        0x0074e9da      3f290304       move.w 0x304(a1), -(a7)
        0x0074e9de      4eb900480fc2   jsr MENUCOM.get_boxon
        0x0074e9e4      544f           addq.w 0x2, a7
        0x0074e9e6      4a1f           tst.b (a7)+
    < 0x0074e9e8      6624           bne.b 0x74ea0e
       0x0074e9ea      7e02           moveq 0x2, d7
   > 0x0074e9ec      be05           cmp.b d5, d7
  < 0x0074e9ee      6718           beq.b 0x74ea08
     0x0074e9f0      4887           ext.w d7
     0x0074e9f2      3207           move.w d7, d1
     0x0074e9f4      e341           asl.w 0x1, d1
     0x0074e9f6      45f11000       lea.l (a1, d1.w), a2
     0x0074e9fa      3f2a02a6       move.w 0x2a6(a2), -(a7)
     0x0074e9fe      4227           clr.b -(a7)
     0x0074ea00      4eb900483776   jsr MENUCOM.swtch_box
     0x0074ea06      584f           addq.w 0x4, a7
  > 0x0074ea08      5207           addq.b 0x1, d7
      0x0074ea0a      be03           cmp.b d3, d7
   < 0x0074ea0c      6fde           ble.b 0x74e9ec
    > 0x0074ea0e      322e0008       move.w 0x8(a6), d1
           0x0074ea12      43fae56c       lea.l 0x74cf80(pc), a1
           0x0074ea16      3401           move.w d1, d2
           0x0074ea18      e64a           lsr.w 0x3, d2
           0x0074ea1a      0c420020       cmpi.w 0x20, d2
       < 0x0074ea1e      6d04           blt.b 0x74ea24
          0x0074ea20      7400           moveq 0x0, d2
      < 0x0074ea22      6004           bra.b 0x74ea28
      > 0x0074ea24      03312000       btst.l d1, (a1, d2.w)
      < 0x0074ea28      67000134       beq.w 0x74eb5e
          0x0074ea2c      28bae4ea       move.l 0x74cf18(pc), (a4)
          0x0074ea30      3d7ae4eafff6   move.w 0x74cf1c(pc), -0xa(a6)
          0x0074ea36      7c00           moveq 0x0, d6
          0x0074ea38      7e02           moveq 0x2, d7
      > 0x0074ea3a      554f           subq.w 0x2, a7
         0x0074ea3c      4887           ext.w d7
         0x0074ea3e      3207           move.w d7, d1
         0x0074ea40      e341           asl.w 0x1, d1
         0x0074ea42      43f00046       lea.l 0x46(a0, d0.w), a1
         0x0074ea46      43f11000       lea.l (a1, d1.w), a1
         0x0074ea4a      3f2902a6       move.w 0x2a6(a1), -(a7)
         0x0074ea4e      4eb900480fc2   jsr MENUCOM.get_boxon
         0x0074ea54      544f           addq.w 0x2, a7
         0x0074ea56      4a1f           tst.b (a7)+
     < 0x0074ea58      6720           beq.b 0x74ea7a
        0x0074ea5a      5286           addq.l 0x1, d6
        0x0074ea5c      1a07           move.b d7, d5
        0x0074ea5e      2f3ae4ba       move.l 0x74cf1a(pc), -(a7)
        0x0074ea62      3f3ae4b4       move.w 0x74cf18(pc), -(a7)
        0x0074ea66      4887           ext.w d7
        0x0074ea68      3207           move.w d7, d1
        0x0074ea6a      e649           lsr.w 0x3, d1
        0x0074ea6c      0ff71000       bset.b d7, (a7, d1.w)
        0x0074ea70      221f           move.l (a7)+, d1
        0x0074ea72      8394           or.l d1, (a4)
        0x0074ea74      321f           move.w (a7)+, d1
        0x0074ea76      836efff6       or.w d1, -0xa(a6)
     > 0x0074ea7a      5207           addq.b 0x1, d7
         0x0074ea7c      be03           cmp.b d3, d7
      < 0x0074ea7e      6fba           ble.b 0x74ea3a
          0x0074ea80      2f30004a       move.l 0x4a(a0, d0.w), -(a7)
          0x0074ea84      554f           subq.w 0x2, a7
          0x0074ea86      4eb90064b63e   jsr K9_LIBRARY.k9_ret_spec
          0x0074ea8c      1217           move.b (a7), d1
          0x0074ea8e      4881           ext.w d1
          0x0074ea90      43bc0019       chk.w 0x19, d1
          0x0074ea94      1e81           move.b d1, (a7)
          0x0074ea96      2f2efff4       move.l -0xc(a6), -(a7)
          0x0074ea9a      3f14           move.w (a4), -(a7)
          0x0074ea9c      4eb900648f8c   jsr K9_LIBRARY.k9_set_type
          0x0074eaa2      defc000c       adda.w 0xc, a7
          0x0074eaa6      4a13           tst.b (a3)
      < 0x0074eaa8      660000b4       bne.w 0x74eb5e
         0x0074eaac      4a86           tst.l d6
     < 0x0074eaae      6630           bne.b 0x74eae0
        0x0074eab0      594f           subq.w 0x4, a7
        0x0074eab2      1ebae4ed       move.b 0x74cfa1(pc), (a7)
        0x0074eab6      1f7ae4ea0001   move.b 0x74cfa2(pc), 0x1(a7)
        0x0074eabc      1f7ae4e50002   move.b 0x74cfa3(pc), 0x2(a7)
        0x0074eac2      43f00046       lea.l 0x46(a0, d0.w), a1
        0x0074eac6      3f290302       move.w 0x302(a1), -(a7)
        0x0074eaca      486f0002       pea.l 0x2(a7)
        0x0074eace      3f04           move.w d4, -(a7)
        0x0074ead0      3f3c0003       move.w 0x3, -(a7)
        0x0074ead4      4eb900483da2   jsr MENUCOM.set_boxtext
        0x0074eada      defc000e       adda.w 0xe, a7
    < 0x0074eade      607e           bra.b 0x74eb5e
    > 0x0074eae0      bc84           cmp.l d4, d6
    < 0x0074eae2      6f2e           ble.b 0x74eb12
       0x0074eae4      5d4f           subq.w 0x6, a7
       0x0074eae6      224f           movea.l a7, a1
       0x0074eae8      45fae4bb       lea.l 0x74cfa5(pc), a2
       0x0074eaec      7204           moveq 0x4, d1
   > 0x0074eaee      12da           move.b (a2)+, (a1)+
   < 0x0074eaf0      51c9fffc       dbra d1, 0x74eaee
       0x0074eaf4      43f00046       lea.l 0x46(a0, d0.w), a1
       0x0074eaf8      3f290302       move.w 0x302(a1), -(a7)
       0x0074eafc      486f0002       pea.l 0x2(a7)
       0x0074eb00      3f04           move.w d4, -(a7)
       0x0074eb02      3f3c0005       move.w 0x5, -(a7)
       0x0074eb06      4eb900483da2   jsr MENUCOM.set_boxtext
       0x0074eb0c      defc0010       adda.w 0x10, a7
   < 0x0074eb10      604c           bra.b 0x74eb5e
   > 0x0074eb12      9efc0102       suba.w 0x102, a7
       0x0074eb16      1f05           move.b d5, -(a7)
       0x0074eb18      4eb9005af700   jsr K2_TYPES.k2_get_ktype
       0x0074eb1e      544f           addq.w 0x2, a7
       0x0074eb20      1217           move.b (a7), d1
       0x0074eb22      4881           ext.w d1
       0x0074eb24      43bc0056       chk.w 0x56, d1
       0x0074eb28      1e81           move.b d1, (a7)
       0x0074eb2a      4eb9005af840   jsr K2_TYPES.k2_get_type_str
       0x0074eb30      9efc00fe       suba.w 0xfe, a7
       0x0074eb34      224f           movea.l a7, a1
       0x0074eb36      45ef0100       lea.l 0x100(a7), a2
       0x0074eb3a      723f           moveq 0x3f, d1
   > 0x0074eb3c      22da           move.l (a2)+, (a1)+
   < 0x0074eb3e      51c9fffc       dbra d1, 0x74eb3c
       0x0074eb42      43f00046       lea.l 0x46(a0, d0.w), a1
       0x0074eb46      3f290302       move.w 0x302(a1), -(a7)
       0x0074eb4a      486f0002       pea.l 0x2(a7)
       0x0074eb4e      4267           clr.w -(a7)
       0x0074eb50      3f3c00ff       move.w 0xff, -(a7)
       0x0074eb54      4eb900483da2   jsr MENUCOM.set_boxtext
       0x0074eb5a      defc020a       adda.w 0x20a, a7
   > 0x0074eb5e      4cdf1fff       movem.l (a7)+, d0-d7/a0-a4
           0x0074eb62      4e5e           unlk a6
           0x0074eb64      4e75           rts
            ; CALL XREF from MENULIBCOM.hit_save @ 0x7511d8
 398: MENULIBCOM.setup_henry_sav ();
           0x0074eb66      4e56ffc8       link.w a6, 0xffc8
           0x0074eb6a      bfd5           cmpa.l (a5), a7
       < 0x0074eb6c      6206           bhi.b 0x74eb74
          0x0074eb6e      44fc0002       move.w 0x2, ccr
          0x0074eb72      4e76           trapv
       > 0x0074eb74      defc0030       adda.w 0x30, a7
           0x0074eb78      48e7c0f8       movem.l d0-d1/a0-a4, -(a7)
           0x0074eb7c      43eefff8       lea.l -0x8(a6), a1
           0x0074eb80      45eefffc       lea.l -0x4(a6), a2
           0x0074eb84      47f90086d288   lea.l 0x86d288, a3
           0x0074eb8a      49f90086d28c   lea.l 0x86d28c, a4
           0x0074eb90      10390086d27e   move.b 0x86d27e, d0
           0x0074eb96      4880           ext.w d0
           0x0074eb98      41bc0002       chk.w 0x2, d0
           0x0074eb9c      c1fc05d4       muls.w 0x5d4, d0
           0x0074eba0      41f90086d27a   lea.l 0x86d27a, a0
           0x0074eba6      302e0008       move.w 0x8(a6), d0
           0x0074ebaa      0c400001       cmpi.w 0x1, d0
       < 0x0074ebae      66000102       bne.w 0x74ecb2
          0x0074ebb2      22bae364       move.l 0x74cf18(pc), (a1)
          0x0074ebb6      34bae364       move.w 0x74cf1c(pc), (a2)
          0x0074ebba      5d4f           subq.w 0x6, a7
          0x0074ebbc      4eb9005b7a8e   jsr HENRY_DUMMY.dougal_clip_typ
          0x0074ebc2      229f           move.l (a7)+, (a1)
          0x0074ebc4      3497           move.w (a7), (a2)
          0x0074ebc6      3f390086d2b6   move.w 0x86d2b6, -(a7)
          0x0074ebcc      4eb900480fc2   jsr MENUCOM.get_boxon
          0x0074ebd2      544f           addq.w 0x2, a7
          0x0074ebd4      4a1f           tst.b (a7)+
      < 0x0074ebd6      6720           beq.b 0x74ebf8
         0x0074ebd8      2213           move.l (a3), d1
         0x0074ebda      4681           not.l d1
         0x0074ebdc      c391           and.l d1, (a1)
         0x0074ebde      3214           move.w (a4), d1
     > 0x0074ebe0      4641           not.w d1
        0x0074ebe2      c352           and.w d1, (a2)
        0x0074ebe4      22390086d28e   move.l 0x86d28e, d1
        0x0074ebea      4681           not.l d1
        0x0074ebec      c391           and.l d1, (a1)
        0x0074ebee      32390086d292   move.w 0x86d292, d1
    < 0x0074ebf4      6000008a       bra.w 0x74ec80
    > 0x0074ebf8      554f           subq.w 0x2, a7
        0x0074ebfa      3f390086d2b8   move.w 0x86d2b8, -(a7)
        0x0074ec00      4eb900480fc2   jsr MENUCOM.get_boxon
        0x0074ec06      544f           addq.w 0x2, a7
        0x0074ec08      4a1f           tst.b (a7)+
    < 0x0074ec0a      6712           beq.b 0x74ec1e
       0x0074ec0c      22390086d282   move.l 0x86d282, d1
       0x0074ec12      4681           not.l d1
       0x0074ec14      c391           and.l d1, (a1)
       0x0074ec16      32390086d286   move.w 0x86d286, d1
    < 0x0074ec1c      60c2           bra.b 0x74ebe0
     > 0x0074ec1e      554f           subq.w 0x2, a7
         0x0074ec20      3f390086d2ba   move.w 0x86d2ba, -(a7)
         0x0074ec26      4eb900480fc2   jsr MENUCOM.get_boxon
         0x0074ec2c      544f           addq.w 0x2, a7
         0x0074ec2e      4a1f           tst.b (a7)+
     < 0x0074ec30      6732           beq.b 0x74ec64
        0x0074ec32      22390086d282   move.l 0x86d282, d1
        0x0074ec38      4681           not.l d1
        0x0074ec3a      c391           and.l d1, (a1)
        0x0074ec3c      32390086d286   move.w 0x86d286, d1
        0x0074ec42      4641           not.w d1
        0x0074ec44      c352           and.w d1, (a2)
        0x0074ec46      2213           move.l (a3), d1
        0x0074ec48      4681           not.l d1
        0x0074ec4a      c391           and.l d1, (a1)
        0x0074ec4c      3214           move.w (a4), d1
        0x0074ec4e      4641           not.w d1
        0x0074ec50      c352           and.w d1, (a2)
        0x0074ec52      22390086d28e   move.l 0x86d28e, d1
        0x0074ec58      4681           not.l d1
        0x0074ec5a      c391           and.l d1, (a1)
        0x0074ec5c      32390086d292   move.w 0x86d292, d1
    < 0x0074ec62      6030           bra.b 0x74ec94
    > 0x0074ec64      22390086d282   move.l 0x86d282, d1
        0x0074ec6a      4681           not.l d1
        0x0074ec6c      c391           and.l d1, (a1)
        0x0074ec6e      32390086d286   move.w 0x86d286, d1
        0x0074ec74      4641           not.w d1
        0x0074ec76      c352           and.w d1, (a2)
        0x0074ec78      2213           move.l (a3), d1
        0x0074ec7a      4681           not.l d1
        0x0074ec7c      c391           and.l d1, (a1)
        0x0074ec7e      3214           move.w (a4), d1
    > 0x0074ec80      4641           not.w d1
         0x0074ec82      c352           and.w d1, (a2)
         0x0074ec84      22390086d294   move.l 0x86d294, d1
         0x0074ec8a      4681           not.l d1
         0x0074ec8c      c391           and.l d1, (a1)
         0x0074ec8e      32390086d298   move.w 0x86d298, d1
     > 0x0074ec94      4641           not.w d1
          0x0074ec96      c352           and.w d1, (a2)
          0x0074ec98      4227           clr.b -(a7)
          0x0074ec9a      1f3c0004       move.b 0x4, -(a7)
          0x0074ec9e      2f2efffa       move.l -0x6(a6), -(a7)
          0x0074eca2      3f11           move.w (a1), -(a7)
          0x0074eca4      486efffe       pea.l -0x2(a6)
          0x0074eca8      4eb900660f92   jsr K95_CARDS.k9_upd_type_set
          0x0074ecae      defc000e       adda.w 0xe, a7
       > 0x0074ecb2      41fae2f6       lea.l 0x74cfaa(pc), a0
           0x0074ecb6      3200           move.w d0, d1
           0x0074ecb8      e649           lsr.w 0x3, d1
           0x0074ecba      0c410020       cmpi.w 0x20, d1
       < 0x0074ecbe      6d04           blt.b 0x74ecc4
          0x0074ecc0      7200           moveq 0x0, d1
      < 0x0074ecc2      6004           bra.b 0x74ecc8
      > 0x0074ecc4      01301000       btst.l d0, (a0, d1.w)
      < 0x0074ecc8      6722           beq.b 0x74ecec
          0x0074ecca      554f           subq.w 0x2, a7
          0x0074eccc      3f390086d2be   move.w 0x86d2be, -(a7)
          0x0074ecd2      4eb900480fc2   jsr MENUCOM.get_boxon
          0x0074ecd8      544f           addq.w 0x2, a7
          0x0074ecda      4a1f           tst.b (a7)+
      < 0x0074ecdc      670e           beq.b 0x74ecec
         0x0074ecde      3f390086d2be   move.w 0x86d2be, -(a7)
         0x0074ece4      4eb9004836a4   jsr MENUCOM.push_box
         0x0074ecea      544f           addq.w 0x2, a7
      > 0x0074ecec      4cdf1f03       movem.l (a7)+, d0-d1/a0-a4
           0x0074ecf0      4e5e           unlk a6
           0x0074ecf2      4e75           rts
            ; XREFS: CALL 0x0074ede4  CALL 0x0074ee06  CALL 0x0074ee4a  
            ; XREFS: CALL 0x0074f1b8  CALL 0x0074f6a8  CALL 0x0074f798  
 98: MENULIBCOM.get_time_value ();
           ; var int32_t var_ch @ a6-0xc
           ; var int32_t var_8h @ a6-0x8
           0x0074ecf4      4e56ffd4       link.w a6, 0xffd4
           0x0074ecf8      bfd5           cmpa.l (a5), a7
       < 0x0074ecfa      6206           bhi.b 0x74ed02
          0x0074ecfc      44fc0002       move.w 0x2, ccr
          0x0074ed00      4e76           trapv
       > 0x0074ed02      defc0020       adda.w 0x20, a7
           0x0074ed06      48e71980       movem.l d3-d4/d7/a0, -(a7)
           0x0074ed0a      594f           subq.w 0x4, a7
           0x0074ed0c      3f2e000c       move.w 0xc(a6), -(a7)
           0x0074ed10      4eb90048b320   jsr MENU2COM.get_date_value
           0x0074ed16      544f           addq.w 0x2, a7
           0x0074ed18      2e17           move.l (a7), d7
           0x0074ed1a      594f           subq.w 0x4, a7
           0x0074ed1c      2f07           move.l d7, -(a7)
           0x0074ed1e      4eb9006aa158   jsr DATE_UTILS.date_stamp
           0x0074ed24      584f           addq.w 0x4, a7
           0x0074ed26      2d5ffff4       move.l (a7)+, -0xc(a6)
           0x0074ed2a      2d5ffff8       move.l (a7)+, -0x8(a6)
           0x0074ed2e      2d6efff4000e   move.l -0xc(a6), 0xe(a6)
           0x0074ed34      2d6efff80012   move.l -0x8(a6), 0x12(a6)
           0x0074ed3a      206e0008       movea.l 0x8(a6), a0
           0x0074ed3e      4210           clr.b (a0)
           0x0074ed40      2807           move.l d7, d4
           0x0074ed42      7600           moveq 0x0, d3
           0x0074ed44      4eb900407dd4   jsr fcn.00407dd4
       < 0x0074ed4a      6602           bne.b 0x74ed4e
          0x0074ed4c      5210           addq.b 0x1, (a0)
       > 0x0074ed4e      4cdf0198       movem.l (a7)+, d3-d4/d7/a0
           0x0074ed52      4e5e           unlk a6
           0x0074ed54      4e75           rts
            ; CALL XREFS from MENULIBCOM.get_times_value @ 0x74ee2c, 0x74ee80, 0x74ee9c
            ; CALL XREF from MENULIBCOM.set_retitle_dat @ 0x750484
            ; CALL XREF from MENULIBCOM.set_skls_date_b @ 0x7504f6
 82: MENULIBCOM.set_time_value (int32_t arg_ch, int32_t arg_10h);
           ; arg int32_t arg_ch @ a6+0xc
           ; arg int32_t arg_10h @ a6+0x10
           0x0074ed56      4e56ffe4       link.w a6, 0xffe4
           0x0074ed5a      bfd5           cmpa.l (a5), a7
       < 0x0074ed5c      6206           bhi.b 0x74ed64
          0x0074ed5e      44fc0002       move.w 0x2, ccr
          0x0074ed62      4e76           trapv
       > 0x0074ed64      defc0010       adda.w 0x10, a7
           0x0074ed68      2d6e000cfff4   move.l 0xc(a6), -0xc(a6)
           0x0074ed6e      2d6e0010fff8   move.l 0x10(a6), -0x8(a6)
           0x0074ed74      594f           subq.w 0x4, a7
           0x0074ed76      2f2efff8       move.l -0x8(a6), -(a7)
           0x0074ed7a      2f2efff4       move.l -0xc(a6), -(a7)
           0x0074ed7e      4eb9006aa110   jsr DATE_UTILS.real_date
           0x0074ed84      504f           addq.w 0x8, a7
           0x0074ed86      2d5ffffc       move.l (a7)+, -0x4(a6)
           0x0074ed8a      3f2e0014       move.w 0x14(a6), -(a7)
           0x0074ed8e      2f2efffc       move.l -0x4(a6), -(a7)
           0x0074ed92      1f2e000a       move.b 0xa(a6), -(a7)
           0x0074ed96      1f2e0008       move.b 0x8(a6), -(a7)
           0x0074ed9a      4eb90048b366   jsr MENU2COM.set_date_value
           0x0074eda0      defc000a       adda.w 0xa, a7
           0x0074eda4      4e5e           unlk a6
           0x0074eda6      4e75           rts
            ; CALL XREF from MENULIBCOM.hit_skls_dates @ 0x74ef50
            ; CALL XREF from MENULIBCOM.hit_retitle_dat @ 0x74f052
            ; CALL XREF from MENULIBCOM.hit_skls_instan @ 0x74f374
            ; CALL XREF from MENULIBCOM.hit_retitle_ins @ 0x74f48a
 272: MENULIBCOM.get_times_value ();
           0x0074eda8      4e56ffc4       link.w a6, 0xffc4
           0x0074edac      bfd5           cmpa.l (a5), a7
       < 0x0074edae      6206           bhi.b 0x74edb6
          0x0074edb0      44fc0002       move.w 0x2, ccr
          0x0074edb4      4e76           trapv
       > 0x0074edb6      defc003a       adda.w 0x3a, a7
           0x0074edba      48e7c0f8       movem.l d0-d1/a0-a4, -(a7)
           0x0074edbe      49eefffe       lea.l -0x2(a6), a4
           0x0074edc2      720e           moveq 0xe, d1
           0x0074edc4      206e0014       movea.l 0x14(a6), a0
           0x0074edc8      554f           subq.w 0x2, a7
           0x0074edca      3f28000c       move.w 0xc(a0), -(a7)
           0x0074edce      4eb900480fc2   jsr MENUCOM.get_boxon
           0x0074edd4      544f           addq.w 0x2, a7
           0x0074edd6      4a1f           tst.b (a7)+
       < 0x0074edd8      6664           bne.b 0x74ee3e
          0x0074edda      226e0010       movea.l 0x10(a6), a1
          0x0074edde      514f           subq.w 0x8, a7
          0x0074ede0      3f10           move.w (a0), -(a7)
          0x0074ede2      4854           pea.l (a4)
          0x0074ede4      4ebaff0e       jsr MENULIBCOM.get_time_value(pc)
          0x0074ede8      5c4f           addq.w 0x6, a7
          0x0074edea      2449           movea.l a1, a2
          0x0074edec      264f           movea.l a7, a3
          0x0074edee      7007           moveq 0x7, d0
      > 0x0074edf0      14db           move.b (a3)+, (a2)+
      < 0x0074edf2      51c8fffc       dbra d0, 0x74edf0
          0x0074edf6      504f           addq.w 0x8, a7
          0x0074edf8      246e000c       movea.l 0xc(a6), a2
          0x0074edfc      514f           subq.w 0x8, a7
          0x0074edfe      3f280002       move.w 0x2(a0), -(a7)
          0x0074ee02      486effff       pea.l -0x1(a6)
          0x0074ee06      4ebafeec       jsr MENULIBCOM.get_time_value(pc)
          0x0074ee0a      5c4f           addq.w 0x6, a7
          0x0074ee0c      264f           movea.l a7, a3
          0x0074ee0e      7007           moveq 0x7, d0
      > 0x0074ee10      14db           move.b (a3)+, (a2)+
      < 0x0074ee12      51c8fffc       dbra d0, 0x74ee10
          0x0074ee16      5c4f           addq.w 0x6, a7
          0x0074ee18      3ea8000e       move.w 0xe(a0), (a7)
          0x0074ee1c      514f           subq.w 0x8, a7
          0x0074ee1e      244f           movea.l a7, a2
          0x0074ee20      7007           moveq 0x7, d0
      > 0x0074ee22      14d9           move.b (a1)+, (a2)+
      < 0x0074ee24      51c8fffc       dbra d0, 0x74ee22
          0x0074ee28      4227           clr.b -(a7)
          0x0074ee2a      4227           clr.b -(a7)
          0x0074ee2c      4ebaff28       jsr MENULIBCOM.set_time_value(pc)
          0x0074ee30      dec1           adda.w d1, a7
          0x0074ee32      226e0008       movea.l 0x8(a6), a1
          0x0074ee36      1014           move.b (a4), d0
          0x0074ee38      c02effff       and.b -0x1(a6), d0
      < 0x0074ee3c      606a           bra.b 0x74eea8
      > 0x0074ee3e      226e0010       movea.l 0x10(a6), a1
          0x0074ee42      514f           subq.w 0x8, a7
          0x0074ee44      3f28000e       move.w 0xe(a0), -(a7)
          0x0074ee48      4854           pea.l (a4)
          0x0074ee4a      4ebafea8       jsr MENULIBCOM.get_time_value(pc)
          0x0074ee4e      5c4f           addq.w 0x6, a7
          0x0074ee50      2449           movea.l a1, a2
          0x0074ee52      264f           movea.l a7, a3
          0x0074ee54      7007           moveq 0x7, d0
      > 0x0074ee56      14db           move.b (a3)+, (a2)+
      < 0x0074ee58      51c8fffc       dbra d0, 0x74ee56
          0x0074ee5c      504f           addq.w 0x8, a7
          0x0074ee5e      246e000c       movea.l 0xc(a6), a2
          0x0074ee62      2649           movea.l a1, a3
          0x0074ee64      7007           moveq 0x7, d0
      > 0x0074ee66      14db           move.b (a3)+, (a2)+
      < 0x0074ee68      51c8fffc       dbra d0, 0x74ee66
          0x0074ee6c      3f10           move.w (a0), -(a7)
          0x0074ee6e      514f           subq.w 0x8, a7
          0x0074ee70      244f           movea.l a7, a2
          0x0074ee72      2649           movea.l a1, a3
          0x0074ee74      7007           moveq 0x7, d0
      > 0x0074ee76      14db           move.b (a3)+, (a2)+
      < 0x0074ee78      51c8fffc       dbra d0, 0x74ee76
          0x0074ee7c      4227           clr.b -(a7)
          0x0074ee7e      4227           clr.b -(a7)
          0x0074ee80      4ebafed4       jsr MENULIBCOM.set_time_value(pc)
          0x0074ee84      defc000c       adda.w 0xc, a7
          0x0074ee88      3ea80002       move.w 0x2(a0), (a7)
          0x0074ee8c      514f           subq.w 0x8, a7
          0x0074ee8e      244f           movea.l a7, a2
          0x0074ee90      7007           moveq 0x7, d0
      > 0x0074ee92      14d9           move.b (a1)+, (a2)+
      < 0x0074ee94      51c8fffc       dbra d0, 0x74ee92
          0x0074ee98      4227           clr.b -(a7)
          0x0074ee9a      4227           clr.b -(a7)
          0x0074ee9c      4ebafeb8       jsr MENULIBCOM.set_time_value(pc)
          0x0074eea0      dec1           adda.w d1, a7
          0x0074eea2      226e0008       movea.l 0x8(a6), a1
          0x0074eea6      1014           move.b (a4), d0
      > 0x0074eea8      4880           ext.w d0
           0x0074eeaa      41bc0001       chk.w 0x1, d0
           0x0074eeae      1280           move.b d0, (a1)
           0x0074eeb0      4cdf1f03       movem.l (a7)+, d0-d1/a0-a4
           0x0074eeb4      4e5e           unlk a6
           0x0074eeb6      4e75           rts
 318: MENULIBCOM.hit_skls_dates ();
           0x0074eeb8      4e56ffa6       link.w a6, 0xffa6
           0x0074eebc      bfd5           cmpa.l (a5), a7
       < 0x0074eebe      6206           bhi.b 0x74eec6
          0x0074eec0      44fc0002       move.w 0x2, ccr
          0x0074eec4      4e76           trapv
       > 0x0074eec6      defc0042       adda.w 0x42, a7
           0x0074eeca      48e7f1e0       movem.l d0-d3/d7/a0-a2, -(a7)
           0x0074eece      45f900662a4e   lea.l K95_CARDS.k9_skl_spec, a2
           0x0074eed4      7613           moveq 0x13, d3
           0x0074eed6      594f           subq.w 0x4, a7
           0x0074eed8      3f2e000a       move.w 0xa(a6), -(a7)
           0x0074eedc      4eb90048406e   jsr MENUCOM.get_b_id
           0x0074eee2      544f           addq.w 0x2, a7
           0x0074eee4      2d57fff8       move.l (a7), -0x8(a6)
           0x0074eee8      544f           addq.w 0x2, a7
           0x0074eeea      2f2efff8       move.l -0x8(a6), -(a7)
           0x0074eeee      4ebaf33a       jsr MENULIBCOM.get_op(pc)
           0x0074eef2      584f           addq.w 0x4, a7
           0x0074eef4      101f           move.b (a7)+, d0
           0x0074eef6      4880           ext.w d0
           0x0074eef8      41bc0003       chk.w 0x3, d0
           0x0074eefc      1e00           move.b d0, d7
           0x0074eefe      10390086d27e   move.b 0x86d27e, d0
           0x0074ef04      4880           ext.w d0
           0x0074ef06      41bc0002       chk.w 0x2, d0
           0x0074ef0a      c1fc05d4       muls.w 0x5d4, d0
           0x0074ef0e      41f90086d27a   lea.l 0x86d27a, a0
           0x0074ef14      322e0008       move.w 0x8(a6), d1
           0x0074ef18      43fae0b0       lea.l 0x74cfca(pc), a1
           0x0074ef1c      3401           move.w d1, d2
           0x0074ef1e      e64a           lsr.w 0x3, d2
           0x0074ef20      0c420020       cmpi.w 0x20, d2
       < 0x0074ef24      6d04           blt.b 0x74ef2a
          0x0074ef26      7400           moveq 0x0, d2
      < 0x0074ef28      6004           bra.b 0x74ef2e
      > 0x0074ef2a      03312000       btst.l d1, (a1, d2.w)
      < 0x0074ef2e      670000be       beq.w 0x74efee
          0x0074ef32      4887           ext.w d7
          0x0074ef34      7214           moveq 0x14, d1
          0x0074ef36      c3c7           muls.w d7, d1
          0x0074ef38      43f00046       lea.l 0x46(a0, d0.w), a1
          0x0074ef3c      43f11000       lea.l (a1, d1.w), a1
          0x0074ef40      48690534       pea.l 0x534(a1)
          0x0074ef44      486effe8       pea.l -0x18(a6)
          0x0074ef48      486efff0       pea.l -0x10(a6)
          0x0074ef4c      486efffc       pea.l -0x4(a6)
          0x0074ef50      4ebafe56       jsr MENULIBCOM.get_times_value(pc)
          0x0074ef54      defc000c       adda.w 0xc, a7
          0x0074ef58      1e87           move.b d7, (a7)
          0x0074ef5a      4e92           jsr (a2)                    ; fcn.00000009+0x2
          0x0074ef5c      544f           addq.w 0x2, a7
          0x0074ef5e      121f           move.b (a7)+, d1
          0x0074ef60      0c010005       cmpi.b 0x5, d1
      < 0x0074ef64      6638           bne.b 0x74ef9e
         0x0074ef66      4a2efffc       tst.b -0x4(a6)
     < 0x0074ef6a      6716           beq.b 0x74ef82
        0x0074ef6c      720e           moveq 0xe, d1
        0x0074ef6e      c3c7           muls.w d7, d1
        0x0074ef70      43f00046       lea.l 0x46(a0, d0.w), a1
        0x0074ef74      3f31101e       move.w 0x1e(a1, d1.w), -(a7)
        0x0074ef78      2f3add58       move.l 0x74ccd2(pc), -(a7)
        0x0074ef7c      3f3add52       move.w 0x74ccd0(pc), -(a7)
    < 0x0074ef80      6014           bra.b 0x74ef96
    > 0x0074ef82      720e           moveq 0xe, d1
        0x0074ef84      c3c7           muls.w d7, d1
        0x0074ef86      43f00046       lea.l 0x46(a0, d0.w), a1
        0x0074ef8a      3f31101e       move.w 0x1e(a1, d1.w), -(a7)
        0x0074ef8e      2f3add48       move.l 0x74ccd8(pc), -(a7)
        0x0074ef92      3f3add42       move.w 0x74ccd6(pc), -(a7)
    > 0x0074ef96      4eb900484148   jsr MENUCOM.set_boxcol
         0x0074ef9c      504f           addq.w 0x8, a7
      > 0x0074ef9e      1f07           move.b d7, -(a7)
          0x0074efa0      554f           subq.w 0x2, a7
          0x0074efa2      1f07           move.b d7, -(a7)
          0x0074efa4      4e92           jsr (a2)                    ; fcn.00000009+0x2
          0x0074efa6      544f           addq.w 0x2, a7
          0x0074efa8      1217           move.b (a7), d1
          0x0074efaa      4881           ext.w d1
          0x0074efac      4383           chk.w d3, d1
          0x0074efae      1e81           move.b d1, (a7)
          0x0074efb0      2f2effec       move.l -0x14(a6), -(a7)
          0x0074efb4      2f2effe8       move.l -0x18(a6), -(a7)
          0x0074efb8      2f2efff4       move.l -0xc(a6), -(a7)
          0x0074efbc      2f2efff0       move.l -0x10(a6), -(a7)
          0x0074efc0      486efffd       pea.l -0x3(a6)
          0x0074efc4      4eb9006619fe   jsr K95_CARDS.k9_upd_2times
          0x0074efca      defc0018       adda.w 0x18, a7
          0x0074efce      4a2efffd       tst.b -0x3(a6)
      < 0x0074efd2      671a           beq.b 0x74efee
         0x0074efd4      1f07           move.b d7, -(a7)
         0x0074efd6      554f           subq.w 0x2, a7
         0x0074efd8      1f07           move.b d7, -(a7)
         0x0074efda      4e92           jsr (a2)                    ; fcn.00000009+0x2
         0x0074efdc      544f           addq.w 0x2, a7
         0x0074efde      1217           move.b (a7), d1
         0x0074efe0      4881           ext.w d1
         0x0074efe2      4383           chk.w d3, d1
         0x0074efe4      1e81           move.b d1, (a7)
         0x0074efe6      4eb900662f7e   jsr K95_CARDS.k9_field_change
         0x0074efec      584f           addq.w 0x4, a7
      > 0x0074efee      4cdf078f       movem.l (a7)+, d0-d3/d7/a0-a2
           0x0074eff2      4e5e           unlk a6
           0x0074eff4      4e75           rts
 204: MENULIBCOM.hit_retitle_dat ();
           0x0074eff6      4e56ffba       link.w a6, 0xffba
           0x0074effa      bfd5           cmpa.l (a5), a7
       < 0x0074effc      6206           bhi.b 0x74f004
          0x0074effe      44fc0002       move.w 0x2, ccr
          0x0074f002      4e76           trapv
       > 0x0074f004      defc0034       adda.w 0x34, a7
           0x0074f008      48e7e0c0       movem.l d0-d2/a0-a1, -(a7)
           0x0074f00c      10390086d27e   move.b 0x86d27e, d0
           0x0074f012      4880           ext.w d0
           0x0074f014      41bc0002       chk.w 0x2, d0
           0x0074f018      c1fc05d4       muls.w 0x5d4, d0
           0x0074f01c      41f90086d27a   lea.l 0x86d27a, a0
           0x0074f022      322e0008       move.w 0x8(a6), d1
           0x0074f026      43fadfc2       lea.l 0x74cfea(pc), a1
           0x0074f02a      3401           move.w d1, d2
           0x0074f02c      e64a           lsr.w 0x3, d2
           0x0074f02e      0c420020       cmpi.w 0x20, d2
       < 0x0074f032      6d04           blt.b 0x74f038
          0x0074f034      7400           moveq 0x0, d2
      < 0x0074f036      6004           bra.b 0x74f03c
      > 0x0074f038      03312000       btst.l d1, (a1, d2.w)
      < 0x0074f03c      677c           beq.b 0x74f0ba
          0x0074f03e      43f00046       lea.l 0x46(a0, d0.w), a1
          0x0074f042      48690584       pea.l 0x584(a1)
          0x0074f046      486effee       pea.l -0x12(a6)
          0x0074f04a      486efff6       pea.l -0xa(a6)
          0x0074f04e      486efffe       pea.l -0x2(a6)
          0x0074f052      4ebafd54       jsr MENULIBCOM.get_times_value(pc)
          0x0074f056      defc0010       adda.w 0x10, a7
          0x0074f05a      4a2efffe       tst.b -0x2(a6)
      < 0x0074f05e      6712           beq.b 0x74f072
         0x0074f060      43f00046       lea.l 0x46(a0, d0.w), a1
         0x0074f064      3f290054       move.w 0x54(a1), -(a7)
         0x0074f068      2f3adc68       move.l 0x74ccd2(pc), -(a7)
         0x0074f06c      3f3adc62       move.w 0x74ccd0(pc), -(a7)
     < 0x0074f070      6010           bra.b 0x74f082
     > 0x0074f072      43f00046       lea.l 0x46(a0, d0.w), a1
         0x0074f076      3f290054       move.w 0x54(a1), -(a7)
         0x0074f07a      2f3adc5c       move.l 0x74ccd8(pc), -(a7)
         0x0074f07e      3f3adc56       move.w 0x74ccd6(pc), -(a7)
     > 0x0074f082      4eb900484148   jsr MENUCOM.set_boxcol
          0x0074f088      504f           addq.w 0x8, a7
          0x0074f08a      2f30004a       move.l 0x4a(a0, d0.w), -(a7)
          0x0074f08e      554f           subq.w 0x2, a7
          0x0074f090      4eb90064b63e   jsr K9_LIBRARY.k9_ret_spec
          0x0074f096      1217           move.b (a7), d1
          0x0074f098      4881           ext.w d1
          0x0074f09a      43bc0019       chk.w 0x19, d1
          0x0074f09e      1e81           move.b d1, (a7)
          0x0074f0a0      2f2efff2       move.l -0xe(a6), -(a7)
          0x0074f0a4      2f2effee       move.l -0x12(a6), -(a7)
          0x0074f0a8      2f2efffa       move.l -0x6(a6), -(a7)
          0x0074f0ac      2f2efff6       move.l -0xa(a6), -(a7)
          0x0074f0b0      4eb900648dca   jsr K9_LIBRARY.k9_set_2times
          0x0074f0b6      defc0016       adda.w 0x16, a7
       > 0x0074f0ba      4cdf0307       movem.l (a7)+, d0-d2/a0-a1
           0x0074f0be      4e5e           unlk a6
           0x0074f0c0      4e75           rts
            0x0074f0c2      4e56ffca       link.w a6, 0xffca
            0x0074f0c6      bfd5           cmpa.l (a5), a7
        < 0x0074f0c8      6206           bhi.b 0x74f0d0
           0x0074f0ca      44fc0002       move.w 0x2, ccr
           0x0074f0ce      4e76           trapv
        > 0x0074f0d0      defc002c       adda.w 0x2c, a7
            0x0074f0d4      48e7e0c0       movem.l d0-d2/a0-a1, -(a7)
            0x0074f0d8      7402           moveq 0x2, d2
            0x0074f0da      10390086d27e   move.b 0x86d27e, d0
            0x0074f0e0      4880           ext.w d0
            0x0074f0e2      4182           chk.w d2, d0
            0x0074f0e4      c1fc05d4       muls.w 0x5d4, d0
            0x0074f0e8      41f90086d27a   lea.l 0x86d27a, a0
            0x0074f0ee      322e0008       move.w 0x8(a6), d1
            0x0074f0f2      b242           cmp.w d2, d1
        < 0x0074f0f4      6644           bne.b 0x74f13a
           0x0074f0f6      514f           subq.w 0x8, a7
           0x0074f0f8      43f00046       lea.l 0x46(a0, d0.w), a1
           0x0074f0fc      3f290598       move.w 0x598(a1), -(a7)
           0x0074f100      486efffe       pea.l -0x2(a6)
           0x0074f104      4ebafbee       jsr MENULIBCOM.get_time_value(pc)
           0x0074f108      5c4f           addq.w 0x6, a7
           0x0074f10a      2d5ffff6       move.l (a7)+, -0xa(a6)
           0x0074f10e      2d5ffffa       move.l (a7)+, -0x6(a6)
           0x0074f112      2f30004a       move.l 0x4a(a0, d0.w), -(a7)
           0x0074f116      554f           subq.w 0x2, a7
           0x0074f118      4eb90064b63e   jsr K9_LIBRARY.k9_ret_spec
           0x0074f11e      1217           move.b (a7), d1
           0x0074f120      4881           ext.w d1
           0x0074f122      43bc0019       chk.w 0x19, d1
           0x0074f126      1e81           move.b d1, (a7)
           0x0074f128      2f2efffa       move.l -0x6(a6), -(a7)
           0x0074f12c      2f2efff6       move.l -0xa(a6), -(a7)
           0x0074f130      4eb900648c5c   jsr K9_LIBRARY.k9_set_time
           0x0074f136      defc000e       adda.w 0xe, a7
        > 0x0074f13a      4cdf0307       movem.l (a7)+, d0-d2/a0-a1
            0x0074f13e      4e5e           unlk a6
            0x0074f140      4e75           rts
 220: MENULIBCOM.hit_skls_date ();
           0x0074f142      4e56ffba       link.w a6, 0xffba
           0x0074f146      bfd5           cmpa.l (a5), a7
       < 0x0074f148      6206           bhi.b 0x74f150
          0x0074f14a      44fc0002       move.w 0x2, ccr
          0x0074f14e      4e76           trapv
       > 0x0074f150      defc0036       adda.w 0x36, a7
           0x0074f154      48e7f1c0       movem.l d0-d3/d7/a0-a1, -(a7)
           0x0074f158      7402           moveq 0x2, d2
           0x0074f15a      7613           moveq 0x13, d3
           0x0074f15c      594f           subq.w 0x4, a7
           0x0074f15e      3f2e000a       move.w 0xa(a6), -(a7)
           0x0074f162      4eb90048406e   jsr MENUCOM.get_b_id
           0x0074f168      544f           addq.w 0x2, a7
           0x0074f16a      2d57fff8       move.l (a7), -0x8(a6)
           0x0074f16e      544f           addq.w 0x2, a7
           0x0074f170      2f2efff8       move.l -0x8(a6), -(a7)
           0x0074f174      4ebaf0b4       jsr MENULIBCOM.get_op(pc)
           0x0074f178      584f           addq.w 0x4, a7
           0x0074f17a      101f           move.b (a7)+, d0
           0x0074f17c      4880           ext.w d0
           0x0074f17e      41bc0003       chk.w 0x3, d0
           0x0074f182      1e00           move.b d0, d7
           0x0074f184      10390086d27e   move.b 0x86d27e, d0
           0x0074f18a      4880           ext.w d0
           0x0074f18c      4182           chk.w d2, d0
           0x0074f18e      c1fc05d4       muls.w 0x5d4, d0
           0x0074f192      41f90086d27a   lea.l 0x86d27a, a0
           0x0074f198      322e0008       move.w 0x8(a6), d1
           0x0074f19c      b242           cmp.w d2, d1
       < 0x0074f19e      6676           bne.b 0x74f216
          0x0074f1a0      514f           subq.w 0x8, a7
          0x0074f1a2      4887           ext.w d7
          0x0074f1a4      3207           move.w d7, d1
          0x0074f1a6      e341           asl.w 0x1, d1
          0x0074f1a8      43f00046       lea.l 0x46(a0, d0.w), a1
          0x0074f1ac      43f11000       lea.l (a1, d1.w), a1
          0x0074f1b0      3f29059e       move.w 0x59e(a1), -(a7)
          0x0074f1b4      486efffe       pea.l -0x2(a6)
          0x0074f1b8      4ebafb3a       jsr MENULIBCOM.get_time_value(pc)
          0x0074f1bc      5c4f           addq.w 0x6, a7
          0x0074f1be      2d5ffff0       move.l (a7)+, -0x10(a6)
          0x0074f1c2      2d5ffff4       move.l (a7)+, -0xc(a6)
          0x0074f1c6      1f07           move.b d7, -(a7)
          0x0074f1c8      554f           subq.w 0x2, a7
          0x0074f1ca      1f07           move.b d7, -(a7)
          0x0074f1cc      4eb900662a4e   jsr K95_CARDS.k9_skl_spec
          0x0074f1d2      544f           addq.w 0x2, a7
          0x0074f1d4      1217           move.b (a7), d1
          0x0074f1d6      4881           ext.w d1
          0x0074f1d8      4383           chk.w d3, d1
          0x0074f1da      1e81           move.b d1, (a7)
          0x0074f1dc      2f2efff4       move.l -0xc(a6), -(a7)
          0x0074f1e0      2f2efff0       move.l -0x10(a6), -(a7)
          0x0074f1e4      486efffc       pea.l -0x4(a6)
          0x0074f1e8      4eb900661c70   jsr K95_CARDS.k9_upd_time
          0x0074f1ee      defc0010       adda.w 0x10, a7
          0x0074f1f2      4a2efffc       tst.b -0x4(a6)
      < 0x0074f1f6      671e           beq.b 0x74f216
         0x0074f1f8      1f07           move.b d7, -(a7)
         0x0074f1fa      554f           subq.w 0x2, a7
         0x0074f1fc      1f07           move.b d7, -(a7)
         0x0074f1fe      4eb900662a4e   jsr K95_CARDS.k9_skl_spec
         0x0074f204      544f           addq.w 0x2, a7
         0x0074f206      1217           move.b (a7), d1
         0x0074f208      4881           ext.w d1
         0x0074f20a      4383           chk.w d3, d1
         0x0074f20c      1e81           move.b d1, (a7)
         0x0074f20e      4eb900662f7e   jsr K95_CARDS.k9_field_change
         0x0074f214      584f           addq.w 0x4, a7
      > 0x0074f216      4cdf038f       movem.l (a7)+, d0-d3/d7/a0-a1
           0x0074f21a      4e5e           unlk a6
           0x0074f21c      4e75           rts
            ; CALL XREF from MENULIBCOM.hit_skls_instan @ 0x74f35e
            ; CALL XREF from MENULIBCOM.hit_retitle_ins @ 0x74f474
 68: MENULIBCOM.instant_date_ac ();
           0x0074f21e      4e56ffd2       link.w a6, 0xffd2
           0x0074f222      bfd5           cmpa.l (a5), a7
       < 0x0074f224      6206           bhi.b 0x74f22c
          0x0074f226      44fc0002       move.w 0x2, ccr
          0x0074f22a      4e76           trapv
       > 0x0074f22c      defc002e       adda.w 0x2e, a7
           0x0074f230      48e7c0f8       movem.l d0-d1/a0-a4, -(a7)
           0x0074f234      43f90048b366   lea.l MENU2COM.set_date_value, a1
           0x0074f23a      45ee000a       lea.l 0xa(a6), a2
           0x0074f23e      47f80000       lea.l 0x0, a3
           0x0074f242      49f9006aa3ec   lea.l DATE_UTILS.date_today, a4
           0x0074f248      7201           moveq 0x1, d1
           0x0074f24a      102e0008       move.b 0x8(a6), d0
           0x0074f24e      4880           ext.w d0
           0x0074f250      0c400003       cmpi.w 0x3, d0
       < 0x0074f254      6302           bls.b 0x74f258
          0x0074f256      4e4e           trap 0xe
       > 0x0074f258      d040           add.w d0, d0
           0x0074f25a      303b0006       move.w 0x74f262(pc, d0.w), d0
           0x0074f25e      4efb0002       jmp 0x74f262(pc, d0.w)
            0x0074f262      0008001a       
            0x0074f263      08001a00       
            0x0074f264      001a0022       ori.b 0x22, (a2)+
            0x0074f268      004c2052       
            0x0074f269      4c20523f       
            0x0074f26a      2052           movea.l (a2), a0
            0x0074f26c      3f10           move.w (a0), -(a7)
       > 0x0074f26e      4853           pea.l (a3)
      > 0x0074f270      4227           clr.b -(a7)
         0x0074f272      1f01           move.b d1, -(a7)
         0x0074f274      4e91           jsr (a1)                    ; fcn.0000000a
         0x0074f276      defc000a       adda.w 0xa, a7
     < 0x0074f27a      6054           bra.b 0x74f2d0
        0x0074f27c      2052           movea.l (a2), a0
        0x0074f27e      3f280002       move.w 0x2(a0), -(a7)
     < 0x0074f282      60ea           bra.b 0x74f26e
         0x0074f284      2052           movea.l (a2), a0
         0x0074f286      3f10           move.w (a0), -(a7)
         0x0074f288      594f           subq.w 0x4, a7
         0x0074f28a      4e94           jsr (a4)                    ; fcn.0000000d
         0x0074f28c      4227           clr.b -(a7)
         0x0074f28e      1f01           move.b d1, -(a7)
         0x0074f290      4e91           jsr (a1)                    ; fcn.0000000a
         0x0074f292      504f           addq.w 0x8, a7
         0x0074f294      3ea80002       move.w 0x2(a0), (a7)
         0x0074f298      594f           subq.w 0x4, a7
         0x0074f29a      4e94           jsr (a4)                    ; fcn.0000000d
         0x0074f29c      4227           clr.b -(a7)
         0x0074f29e      1f01           move.b d1, -(a7)
         0x0074f2a0      4e91           jsr (a1)                    ; fcn.0000000a
         0x0074f2a2      504f           addq.w 0x8, a7
         0x0074f2a4      3ea8000e       move.w 0xe(a0), (a7)
         0x0074f2a8      594f           subq.w 0x4, a7
         0x0074f2aa      4e94           jsr (a4)                    ; fcn.0000000d
     < 0x0074f2ac      60c2           bra.b 0x74f270
          0x0074f2ae      2052           movea.l (a2), a0
          0x0074f2b0      3f10           move.w (a0), -(a7)
          0x0074f2b2      4853           pea.l (a3)
          0x0074f2b4      4227           clr.b -(a7)
          0x0074f2b6      1f01           move.b d1, -(a7)
          0x0074f2b8      4e91           jsr (a1)                    ; fcn.0000000a
          0x0074f2ba      504f           addq.w 0x8, a7
          0x0074f2bc      3ea80002       move.w 0x2(a0), (a7)
          0x0074f2c0      4853           pea.l (a3)
          0x0074f2c2      4227           clr.b -(a7)
          0x0074f2c4      1f01           move.b d1, -(a7)
          0x0074f2c6      4e91           jsr (a1)                    ; fcn.0000000a
          0x0074f2c8      504f           addq.w 0x8, a7
          0x0074f2ca      3ea8000e       move.w 0xe(a0), (a7)
       < 0x0074f2ce      609e           bra.b 0x74f26e
     > 0x0074f2d0      4cdf1f03       movem.l (a7)+, d0-d1/a0-a4
            0x0074f2d4      4e5e           unlk a6
            0x0074f2d6      4e75           rts
 314: MENULIBCOM.hit_skls_instan ();
           0x0074f2d8      4e56ff9e       link.w a6, 0xff9e
           0x0074f2dc      bfd5           cmpa.l (a5), a7
       < 0x0074f2de      6206           bhi.b 0x74f2e6
          0x0074f2e0      44fc0002       move.w 0x2, ccr
          0x0074f2e4      4e76           trapv
       > 0x0074f2e6      defc004a       adda.w 0x4a, a7
           0x0074f2ea      48e7f3f0       movem.l d0-d3/d6-d7/a0-a3, -(a7)
           0x0074f2ee      47f900662a4e   lea.l K95_CARDS.k9_skl_spec, a3
           0x0074f2f4      7403           moveq 0x3, d2
           0x0074f2f6      7613           moveq 0x13, d3
           0x0074f2f8      594f           subq.w 0x4, a7
           0x0074f2fa      3f2e000a       move.w 0xa(a6), -(a7)
           0x0074f2fe      4eb90048406e   jsr MENUCOM.get_b_id
           0x0074f304      544f           addq.w 0x2, a7
           0x0074f306      2c17           move.l (a7), d6
           0x0074f308      544f           addq.w 0x2, a7
           0x0074f30a      2f06           move.l d6, -(a7)
           0x0074f30c      4ebaef1c       jsr MENULIBCOM.get_op(pc)
           0x0074f310      584f           addq.w 0x4, a7
           0x0074f312      101f           move.b (a7)+, d0
           0x0074f314      4880           ext.w d0
           0x0074f316      4182           chk.w d2, d0
           0x0074f318      1e00           move.b d0, d7
           0x0074f31a      028600ffffff   andi.l 0xffffff, d6
           0x0074f320      10390086d27e   move.b 0x86d27e, d0
           0x0074f326      4880           ext.w d0
           0x0074f328      41bc0002       chk.w 0x2, d0
           0x0074f32c      c1fc05d4       muls.w 0x5d4, d0
           0x0074f330      41f90086d27a   lea.l 0x86d27a, a0
           0x0074f336      322e0008       move.w 0x8(a6), d1
           0x0074f33a      0c410001       cmpi.w 0x1, d1
       < 0x0074f33e      660000ca       bne.w 0x74f40a
          0x0074f342      4887           ext.w d7
          0x0074f344      7214           moveq 0x14, d1
          0x0074f346      c3c7           muls.w d7, d1
          0x0074f348      43f00046       lea.l 0x46(a0, d0.w), a1
          0x0074f34c      45f11000       lea.l (a1, d1.w), a2
          0x0074f350      486a0534       pea.l 0x534(a2)
          0x0074f354      1f06           move.b d6, -(a7)
          0x0074f356      1217           move.b (a7), d1
          0x0074f358      4881           ext.w d1
          0x0074f35a      4382           chk.w d2, d1
          0x0074f35c      1e81           move.b d1, (a7)
          0x0074f35e      4ebafebe       jsr MENULIBCOM.instant_date_ac(pc)
          0x0074f362      5c4f           addq.w 0x6, a7
          0x0074f364      486a0534       pea.l 0x534(a2)
          0x0074f368      486effec       pea.l -0x14(a6)
          0x0074f36c      486efff4       pea.l -0xc(a6)
          0x0074f370      486efffe       pea.l -0x2(a6)
          0x0074f374      4ebafa32       jsr MENULIBCOM.get_times_value(pc)
          0x0074f378      defc000c       adda.w 0xc, a7
          0x0074f37c      1e87           move.b d7, (a7)
          0x0074f37e      4e93           jsr (a3)                    ; fcn.0000000c
          0x0074f380      544f           addq.w 0x2, a7
          0x0074f382      121f           move.b (a7)+, d1
          0x0074f384      0c010005       cmpi.b 0x5, d1
      < 0x0074f388      6630           bne.b 0x74f3ba
         0x0074f38a      4a2efffe       tst.b -0x2(a6)
     < 0x0074f38e      6712           beq.b 0x74f3a2
        0x0074f390      720e           moveq 0xe, d1
        0x0074f392      c3c7           muls.w d7, d1
        0x0074f394      3f31101e       move.w 0x1e(a1, d1.w), -(a7)
        0x0074f398      2f3ad938       move.l 0x74ccd2(pc), -(a7)
        0x0074f39c      3f3ad932       move.w 0x74ccd0(pc), -(a7)
    < 0x0074f3a0      6010           bra.b 0x74f3b2
    > 0x0074f3a2      720e           moveq 0xe, d1
        0x0074f3a4      c3c7           muls.w d7, d1
        0x0074f3a6      3f31101e       move.w 0x1e(a1, d1.w), -(a7)
        0x0074f3aa      2f3ad92c       move.l 0x74ccd8(pc), -(a7)
        0x0074f3ae      3f3ad926       move.w 0x74ccd6(pc), -(a7)
    > 0x0074f3b2      4eb900484148   jsr MENUCOM.set_boxcol
         0x0074f3b8      504f           addq.w 0x8, a7
      > 0x0074f3ba      1f07           move.b d7, -(a7)
          0x0074f3bc      554f           subq.w 0x2, a7
          0x0074f3be      1f07           move.b d7, -(a7)
          0x0074f3c0      4e93           jsr (a3)                    ; fcn.0000000c
          0x0074f3c2      544f           addq.w 0x2, a7
          0x0074f3c4      1217           move.b (a7), d1
          0x0074f3c6      4881           ext.w d1
          0x0074f3c8      4383           chk.w d3, d1
          0x0074f3ca      1e81           move.b d1, (a7)
          0x0074f3cc      2f2efff0       move.l -0x10(a6), -(a7)
          0x0074f3d0      2f2effec       move.l -0x14(a6), -(a7)
          0x0074f3d4      2f2efff8       move.l -0x8(a6), -(a7)
          0x0074f3d8      2f2efff4       move.l -0xc(a6), -(a7)
          0x0074f3dc      486efffc       pea.l -0x4(a6)
          0x0074f3e0      4eb9006619fe   jsr K95_CARDS.k9_upd_2times
          0x0074f3e6      defc0018       adda.w 0x18, a7
          0x0074f3ea      4a2efffc       tst.b -0x4(a6)
      < 0x0074f3ee      671a           beq.b 0x74f40a
         0x0074f3f0      1f07           move.b d7, -(a7)
         0x0074f3f2      554f           subq.w 0x2, a7
         0x0074f3f4      1f07           move.b d7, -(a7)
         0x0074f3f6      4e93           jsr (a3)                    ; fcn.0000000c
         0x0074f3f8      544f           addq.w 0x2, a7
         0x0074f3fa      1217           move.b (a7), d1
         0x0074f3fc      4881           ext.w d1
         0x0074f3fe      4383           chk.w d3, d1
         0x0074f400      1e81           move.b d1, (a7)
         0x0074f402      4eb900662f7e   jsr K95_CARDS.k9_field_change
         0x0074f408      584f           addq.w 0x4, a7
      > 0x0074f40a      4cdf0fcf       movem.l (a7)+, d0-d3/d6-d7/a0-a3
           0x0074f40e      4e5e           unlk a6
           0x0074f410      4e75           rts
 224: MENULIBCOM.hit_retitle_ins ();
           0x0074f412      4e56ffb2       link.w a6, 0xffb2
           0x0074f416      bfd5           cmpa.l (a5), a7
       < 0x0074f418      6206           bhi.b 0x74f420
          0x0074f41a      44fc0002       move.w 0x2, ccr
          0x0074f41e      4e76           trapv
       > 0x0074f420      defc0038       adda.w 0x38, a7
           0x0074f424      48e7c1c0       movem.l d0-d1/d7/a0-a1, -(a7)
           0x0074f428      594f           subq.w 0x4, a7
           0x0074f42a      3f2e000a       move.w 0xa(a6), -(a7)
           0x0074f42e      4eb90048406e   jsr MENUCOM.get_b_id
           0x0074f434      544f           addq.w 0x2, a7
           0x0074f436      2e1f           move.l (a7)+, d7
           0x0074f438      028700ffffff   andi.l 0xffffff, d7
           0x0074f43e      10390086d27e   move.b 0x86d27e, d0
           0x0074f444      4880           ext.w d0
           0x0074f446      41bc0002       chk.w 0x2, d0
           0x0074f44a      c1fc05d4       muls.w 0x5d4, d0
           0x0074f44e      41f90086d27a   lea.l 0x86d27a, a0
           0x0074f454      322e0008       move.w 0x8(a6), d1
           0x0074f458      0c410001       cmpi.w 0x1, d1
       < 0x0074f45c      6600008c       bne.w 0x74f4ea
          0x0074f460      43f00046       lea.l 0x46(a0, d0.w), a1
          0x0074f464      48690584       pea.l 0x584(a1)
          0x0074f468      1f07           move.b d7, -(a7)
          0x0074f46a      1217           move.b (a7), d1
          0x0074f46c      4881           ext.w d1
          0x0074f46e      43bc0003       chk.w 0x3, d1
          0x0074f472      1e81           move.b d1, (a7)
          0x0074f474      4ebafda8       jsr MENULIBCOM.instant_date_ac(pc)
          0x0074f478      5c4f           addq.w 0x6, a7
          0x0074f47a      48690584       pea.l 0x584(a1)
          0x0074f47e      486effee       pea.l -0x12(a6)
          0x0074f482      486efff6       pea.l -0xa(a6)
          0x0074f486      486efffe       pea.l -0x2(a6)
          0x0074f48a      4ebaf91c       jsr MENULIBCOM.get_times_value(pc)
          0x0074f48e      defc0010       adda.w 0x10, a7
          0x0074f492      4a2efffe       tst.b -0x2(a6)
      < 0x0074f496      670e           beq.b 0x74f4a6
         0x0074f498      3f290054       move.w 0x54(a1), -(a7)
         0x0074f49c      2f3ad834       move.l 0x74ccd2(pc), -(a7)
         0x0074f4a0      3f3ad82e       move.w 0x74ccd0(pc), -(a7)
     < 0x0074f4a4      600c           bra.b 0x74f4b2
     > 0x0074f4a6      3f290054       move.w 0x54(a1), -(a7)
         0x0074f4aa      2f3ad82c       move.l 0x74ccd8(pc), -(a7)
         0x0074f4ae      3f3ad826       move.w 0x74ccd6(pc), -(a7)
     > 0x0074f4b2      4eb900484148   jsr MENUCOM.set_boxcol
          0x0074f4b8      504f           addq.w 0x8, a7
          0x0074f4ba      2f290004       move.l 0x4(a1), -(a7)
          0x0074f4be      554f           subq.w 0x2, a7
          0x0074f4c0      4eb90064b63e   jsr K9_LIBRARY.k9_ret_spec
          0x0074f4c6      1217           move.b (a7), d1
          0x0074f4c8      4881           ext.w d1
          0x0074f4ca      43bc0019       chk.w 0x19, d1
          0x0074f4ce      1e81           move.b d1, (a7)
          0x0074f4d0      2f2efff2       move.l -0xe(a6), -(a7)
          0x0074f4d4      2f2effee       move.l -0x12(a6), -(a7)
          0x0074f4d8      2f2efffa       move.l -0x6(a6), -(a7)
          0x0074f4dc      2f2efff6       move.l -0xa(a6), -(a7)
          0x0074f4e0      4eb900648dca   jsr K9_LIBRARY.k9_set_2times
          0x0074f4e6      defc0016       adda.w 0x16, a7
       > 0x0074f4ea      4cdf0383       movem.l (a7)+, d0-d1/d7/a0-a1
           0x0074f4ee      4e5e           unlk a6
           0x0074f4f0      4e75           rts
            0x0074f4f2      4e56ffc6       link.w a6, 0xffc6
            0x0074f4f6      bfd5           cmpa.l (a5), a7
        < 0x0074f4f8      6206           bhi.b 0x74f500
           0x0074f4fa      44fc0002       move.w 0x2, ccr
           0x0074f4fe      4e76           trapv
        > 0x0074f500      defc0030       adda.w 0x30, a7
            0x0074f504      48e7e0c0       movem.l d0-d2/a0-a1, -(a7)
            0x0074f508      7401           moveq 0x1, d2
            0x0074f50a      10390086d27e   move.b 0x86d27e, d0
            0x0074f510      4880           ext.w d0
            0x0074f512      41bc0002       chk.w 0x2, d0
            0x0074f516      c1fc05d4       muls.w 0x5d4, d0
            0x0074f51a      41f90086d27a   lea.l 0x86d27a, a0
            0x0074f520      322e0008       move.w 0x8(a6), d1
            0x0074f524      b242           cmp.w d2, d1
        < 0x0074f526      6658           bne.b 0x74f580
           0x0074f528      43f00046       lea.l 0x46(a0, d0.w), a1
           0x0074f52c      3f290598       move.w 0x598(a1), -(a7)
           0x0074f530      594f           subq.w 0x4, a7
           0x0074f532      4eb9006aa3ec   jsr DATE_UTILS.date_today
           0x0074f538      4227           clr.b -(a7)
           0x0074f53a      1f02           move.b d2, -(a7)
           0x0074f53c      4eb90048b366   jsr MENU2COM.set_date_value
           0x0074f542      3ea90598       move.w 0x598(a1), (a7)
           0x0074f546      486efffe       pea.l -0x2(a6)
           0x0074f54a      4ebaf7a8       jsr MENULIBCOM.get_time_value(pc)
           0x0074f54e      5c4f           addq.w 0x6, a7
           0x0074f550      2d5ffff6       move.l (a7)+, -0xa(a6)
           0x0074f554      2d5ffffa       move.l (a7)+, -0x6(a6)
           0x0074f558      2f290004       move.l 0x4(a1), -(a7)
           0x0074f55c      554f           subq.w 0x2, a7
           0x0074f55e      4eb90064b63e   jsr K9_LIBRARY.k9_ret_spec
           0x0074f564      1217           move.b (a7), d1
           0x0074f566      4881           ext.w d1
           0x0074f568      43bc0019       chk.w 0x19, d1
           0x0074f56c      1e81           move.b d1, (a7)
           0x0074f56e      2f2efffa       move.l -0x6(a6), -(a7)
           0x0074f572      2f2efff6       move.l -0xa(a6), -(a7)
           0x0074f576      4eb900648c5c   jsr K9_LIBRARY.k9_set_time
           0x0074f57c      defc000e       adda.w 0xe, a7
        > 0x0074f580      4cdf0307       movem.l (a7)+, d0-d2/a0-a1
            0x0074f584      4e5e           unlk a6
            0x0074f586      4e75           rts
            0x0074f588      4e56ffc6       link.w a6, 0xffc6
            0x0074f58c      bfd5           cmpa.l (a5), a7
        < 0x0074f58e      6206           bhi.b 0x74f596
           0x0074f590      44fc0002       move.w 0x2, ccr
           0x0074f594      4e76           trapv
        > 0x0074f596      defc0030       adda.w 0x30, a7
            0x0074f59a      48e7e0c0       movem.l d0-d2/a0-a1, -(a7)
            0x0074f59e      7401           moveq 0x1, d2
            0x0074f5a0      10390086d27e   move.b 0x86d27e, d0
            0x0074f5a6      4880           ext.w d0
            0x0074f5a8      41bc0002       chk.w 0x2, d0
            0x0074f5ac      c1fc05d4       muls.w 0x5d4, d0
            0x0074f5b0      41f90086d27a   lea.l 0x86d27a, a0
            0x0074f5b6      322e0008       move.w 0x8(a6), d1
            0x0074f5ba      b242           cmp.w d2, d1
        < 0x0074f5bc      6654           bne.b 0x74f612
           0x0074f5be      43f00046       lea.l 0x46(a0, d0.w), a1
           0x0074f5c2      3f290598       move.w 0x598(a1), -(a7)
           0x0074f5c6      48780000       pea.l 0x0
           0x0074f5ca      4227           clr.b -(a7)
           0x0074f5cc      1f02           move.b d2, -(a7)
           0x0074f5ce      4eb90048b366   jsr MENU2COM.set_date_value
           0x0074f5d4      3ea90598       move.w 0x598(a1), (a7)
           0x0074f5d8      486efffe       pea.l -0x2(a6)
           0x0074f5dc      4ebaf716       jsr MENULIBCOM.get_time_value(pc)
           0x0074f5e0      5c4f           addq.w 0x6, a7
           0x0074f5e2      2d5ffff6       move.l (a7)+, -0xa(a6)
           0x0074f5e6      2d5ffffa       move.l (a7)+, -0x6(a6)
           0x0074f5ea      2f290004       move.l 0x4(a1), -(a7)
           0x0074f5ee      554f           subq.w 0x2, a7
           0x0074f5f0      4eb90064b63e   jsr K9_LIBRARY.k9_ret_spec
           0x0074f5f6      1217           move.b (a7), d1
           0x0074f5f8      4881           ext.w d1
           0x0074f5fa      43bc0019       chk.w 0x19, d1
           0x0074f5fe      1e81           move.b d1, (a7)
           0x0074f600      2f2efffa       move.l -0x6(a6), -(a7)
           0x0074f604      2f2efff6       move.l -0xa(a6), -(a7)
           0x0074f608      4eb900648c5c   jsr K9_LIBRARY.k9_set_time
           0x0074f60e      defc000e       adda.w 0xe, a7
        > 0x0074f612      4cdf0307       movem.l (a7)+, d0-d2/a0-a1
            0x0074f616      4e5e           unlk a6
            0x0074f618      4e75           rts
 244: MENULIBCOM.hit_skls_date_t ();
           0x0074f61a      4e56ffb8       link.w a6, 0xffb8
           0x0074f61e      bfd5           cmpa.l (a5), a7
       < 0x0074f620      6206           bhi.b 0x74f628
          0x0074f622      44fc0002       move.w 0x2, ccr
          0x0074f626      4e76           trapv
       > 0x0074f628      defc0038       adda.w 0x38, a7
           0x0074f62c      48e7f1c0       movem.l d0-d3/d7/a0-a1, -(a7)
           0x0074f630      7401           moveq 0x1, d2
           0x0074f632      7613           moveq 0x13, d3
           0x0074f634      594f           subq.w 0x4, a7
           0x0074f636      3f2e000a       move.w 0xa(a6), -(a7)
           0x0074f63a      4eb90048406e   jsr MENUCOM.get_b_id
           0x0074f640      544f           addq.w 0x2, a7
           0x0074f642      2d57fffa       move.l (a7), -0x6(a6)
           0x0074f646      544f           addq.w 0x2, a7
           0x0074f648      2f2efffa       move.l -0x6(a6), -(a7)
           0x0074f64c      4ebaebdc       jsr MENULIBCOM.get_op(pc)
           0x0074f650      584f           addq.w 0x4, a7
           0x0074f652      101f           move.b (a7)+, d0
           0x0074f654      4880           ext.w d0
           0x0074f656      41bc0003       chk.w 0x3, d0
           0x0074f65a      1e00           move.b d0, d7
           0x0074f65c      10390086d27e   move.b 0x86d27e, d0
           0x0074f662      4880           ext.w d0
           0x0074f664      41bc0002       chk.w 0x2, d0
           0x0074f668      c1fc05d4       muls.w 0x5d4, d0
           0x0074f66c      41f90086d27a   lea.l 0x86d27a, a0
           0x0074f672      322e0008       move.w 0x8(a6), d1
           0x0074f676      b242           cmp.w d2, d1
       < 0x0074f678      6600008c       bne.w 0x74f706
          0x0074f67c      4887           ext.w d7
          0x0074f67e      3207           move.w d7, d1
          0x0074f680      e341           asl.w 0x1, d1
          0x0074f682      43f00046       lea.l 0x46(a0, d0.w), a1
          0x0074f686      43f11000       lea.l (a1, d1.w), a1
          0x0074f68a      3f29059e       move.w 0x59e(a1), -(a7)
          0x0074f68e      594f           subq.w 0x4, a7
          0x0074f690      4eb9006aa3ec   jsr DATE_UTILS.date_today
          0x0074f696      4227           clr.b -(a7)
          0x0074f698      1f02           move.b d2, -(a7)
          0x0074f69a      4eb90048b366   jsr MENU2COM.set_date_value
          0x0074f6a0      3ea9059e       move.w 0x59e(a1), (a7)
          0x0074f6a4      486effff       pea.l -0x1(a6)
          0x0074f6a8      4ebaf64a       jsr MENULIBCOM.get_time_value(pc)
          0x0074f6ac      5c4f           addq.w 0x6, a7
          0x0074f6ae      2d5ffff0       move.l (a7)+, -0x10(a6)
          0x0074f6b2      2d5ffff4       move.l (a7)+, -0xc(a6)
          0x0074f6b6      1f07           move.b d7, -(a7)
          0x0074f6b8      554f           subq.w 0x2, a7
          0x0074f6ba      1f07           move.b d7, -(a7)
          0x0074f6bc      4eb900662a4e   jsr K95_CARDS.k9_skl_spec
          0x0074f6c2      544f           addq.w 0x2, a7
          0x0074f6c4      1217           move.b (a7), d1
          0x0074f6c6      4881           ext.w d1
          0x0074f6c8      4383           chk.w d3, d1
          0x0074f6ca      1e81           move.b d1, (a7)
          0x0074f6cc      2f2efff4       move.l -0xc(a6), -(a7)
          0x0074f6d0      2f2efff0       move.l -0x10(a6), -(a7)
          0x0074f6d4      486efffe       pea.l -0x2(a6)
          0x0074f6d8      4eb900661c70   jsr K95_CARDS.k9_upd_time
          0x0074f6de      defc0010       adda.w 0x10, a7
          0x0074f6e2      4a2efffe       tst.b -0x2(a6)
      < 0x0074f6e6      671e           beq.b 0x74f706
         0x0074f6e8      1f07           move.b d7, -(a7)
         0x0074f6ea      554f           subq.w 0x2, a7
         0x0074f6ec      1f07           move.b d7, -(a7)
         0x0074f6ee      4eb900662a4e   jsr K95_CARDS.k9_skl_spec
         0x0074f6f4      544f           addq.w 0x2, a7
         0x0074f6f6      1217           move.b (a7), d1
         0x0074f6f8      4881           ext.w d1
         0x0074f6fa      4383           chk.w d3, d1
         0x0074f6fc      1e81           move.b d1, (a7)
         0x0074f6fe      4eb900662f7e   jsr K95_CARDS.k9_field_change
         0x0074f704      584f           addq.w 0x4, a7
      > 0x0074f706      4cdf038f       movem.l (a7)+, d0-d3/d7/a0-a1
           0x0074f70a      4e5e           unlk a6
           0x0074f70c      4e75           rts
 240: MENULIBCOM.hit_skls_date_c ();
           0x0074f70e      4e56ffb8       link.w a6, 0xffb8
           0x0074f712      bfd5           cmpa.l (a5), a7
       < 0x0074f714      6206           bhi.b 0x74f71c
          0x0074f716      44fc0002       move.w 0x2, ccr
          0x0074f71a      4e76           trapv
       > 0x0074f71c      defc0038       adda.w 0x38, a7
           0x0074f720      48e7f1c0       movem.l d0-d3/d7/a0-a1, -(a7)
           0x0074f724      7401           moveq 0x1, d2
           0x0074f726      7613           moveq 0x13, d3
           0x0074f728      594f           subq.w 0x4, a7
           0x0074f72a      3f2e000a       move.w 0xa(a6), -(a7)
           0x0074f72e      4eb90048406e   jsr MENUCOM.get_b_id
           0x0074f734      544f           addq.w 0x2, a7
           0x0074f736      2d57fffa       move.l (a7), -0x6(a6)
           0x0074f73a      544f           addq.w 0x2, a7
           0x0074f73c      2f2efffa       move.l -0x6(a6), -(a7)
           0x0074f740      4ebaeae8       jsr MENULIBCOM.get_op(pc)
           0x0074f744      584f           addq.w 0x4, a7
           0x0074f746      101f           move.b (a7)+, d0
           0x0074f748      4880           ext.w d0
           0x0074f74a      41bc0003       chk.w 0x3, d0
           0x0074f74e      1e00           move.b d0, d7
           0x0074f750      10390086d27e   move.b 0x86d27e, d0
           0x0074f756      4880           ext.w d0
           0x0074f758      41bc0002       chk.w 0x2, d0
           0x0074f75c      c1fc05d4       muls.w 0x5d4, d0
           0x0074f760      41f90086d27a   lea.l 0x86d27a, a0
           0x0074f766      322e0008       move.w 0x8(a6), d1
           0x0074f76a      b242           cmp.w d2, d1
       < 0x0074f76c      66000088       bne.w 0x74f7f6
          0x0074f770      4887           ext.w d7
          0x0074f772      3207           move.w d7, d1
          0x0074f774      e341           asl.w 0x1, d1
          0x0074f776      43f00046       lea.l 0x46(a0, d0.w), a1
          0x0074f77a      43f11000       lea.l (a1, d1.w), a1
          0x0074f77e      3f29059e       move.w 0x59e(a1), -(a7)
          0x0074f782      48780000       pea.l 0x0
          0x0074f786      4227           clr.b -(a7)
          0x0074f788      1f02           move.b d2, -(a7)
          0x0074f78a      4eb90048b366   jsr MENU2COM.set_date_value
          0x0074f790      3ea9059e       move.w 0x59e(a1), (a7)
          0x0074f794      486effff       pea.l -0x1(a6)
          0x0074f798      4ebaf55a       jsr MENULIBCOM.get_time_value(pc)
          0x0074f79c      5c4f           addq.w 0x6, a7
          0x0074f79e      2d5ffff0       move.l (a7)+, -0x10(a6)
          0x0074f7a2      2d5ffff4       move.l (a7)+, -0xc(a6)
          0x0074f7a6      1f07           move.b d7, -(a7)
          0x0074f7a8      554f           subq.w 0x2, a7
          0x0074f7aa      1f07           move.b d7, -(a7)
          0x0074f7ac      4eb900662a4e   jsr K95_CARDS.k9_skl_spec
          0x0074f7b2      544f           addq.w 0x2, a7
          0x0074f7b4      1217           move.b (a7), d1
          0x0074f7b6      4881           ext.w d1
          0x0074f7b8      4383           chk.w d3, d1
          0x0074f7ba      1e81           move.b d1, (a7)
          0x0074f7bc      2f2efff4       move.l -0xc(a6), -(a7)
          0x0074f7c0      2f2efff0       move.l -0x10(a6), -(a7)
          0x0074f7c4      486efffe       pea.l -0x2(a6)
          0x0074f7c8      4eb900661c70   jsr K95_CARDS.k9_upd_time
          0x0074f7ce      defc0010       adda.w 0x10, a7
          0x0074f7d2      4a2efffe       tst.b -0x2(a6)
      < 0x0074f7d6      671e           beq.b 0x74f7f6
         0x0074f7d8      1f07           move.b d7, -(a7)
         0x0074f7da      554f           subq.w 0x2, a7
         0x0074f7dc      1f07           move.b d7, -(a7)
         0x0074f7de      4eb900662a4e   jsr K95_CARDS.k9_skl_spec
         0x0074f7e4      544f           addq.w 0x2, a7
         0x0074f7e6      1217           move.b (a7), d1
         0x0074f7e8      4881           ext.w d1
         0x0074f7ea      4383           chk.w d3, d1
         0x0074f7ec      1e81           move.b d1, (a7)
         0x0074f7ee      4eb900662f7e   jsr K95_CARDS.k9_field_change
         0x0074f7f4      584f           addq.w 0x4, a7
      > 0x0074f7f6      4cdf038f       movem.l (a7)+, d0-d3/d7/a0-a1
           0x0074f7fa      4e5e           unlk a6
           0x0074f7fc      4e75           rts
            ; CALL XREF from MENULIBCOM.update_number_s @ 0x74fada
 362: MENULIBCOM.get_numbers ();
           0x0074f7fe      4e56ffba       link.w a6, 0xffba
           0x0074f802      bfd5           cmpa.l (a5), a7
       < 0x0074f804      6206           bhi.b 0x74f80c
          0x0074f806      44fc0002       move.w 0x2, ccr
          0x0074f80a      4e76           trapv
       > 0x0074f80c      defc0046       adda.w 0x46, a7
           0x0074f810      48e7f8f8       movem.l d0-d4/a0-a4, -(a7)
           0x0074f814      47ee000c       lea.l 0xc(a6), a3
           0x0074f818      49f900480fc2   lea.l MENUCOM.get_boxon, a4
           0x0074f81e      243c7fffffff   move.l 0x7fffffff, d2
           0x0074f824      760a           moveq 0xa, d3
           0x0074f826      206e0010       movea.l 0x10(a6), a0
           0x0074f82a      554f           subq.w 0x2, a7
           0x0074f82c      3f28000c       move.w 0xc(a0), -(a7)
           0x0074f830      4e94           jsr (a4)                    ; fcn.0000000d
           0x0074f832      544f           addq.w 0x2, a7
           0x0074f834      4a1f           tst.b (a7)+
       < 0x0074f836      67000092       beq.w 0x74f8ca
          0x0074f83a      554f           subq.w 0x2, a7
          0x0074f83c      3f28000e       move.w 0xe(a0), -(a7)
          0x0074f840      4e94           jsr (a4)                    ; fcn.0000000d
          0x0074f842      544f           addq.w 0x2, a7
          0x0074f844      4a1f           tst.b (a7)+
      < 0x0074f846      6706           beq.b 0x74f84e
         0x0074f848      2253           movea.l (a3), a1
         0x0074f84a      2282           move.l d2, (a1)
     < 0x0074f84c      601a           bra.b 0x74f868
     > 0x0074f84e      2253           movea.l (a3), a1
         0x0074f850      594f           subq.w 0x4, a7
         0x0074f852      3f280010       move.w 0x10(a0), -(a7)
         0x0074f856      4eb90048d992   jsr MENU2COM.get_numeric_val
         0x0074f85c      544f           addq.w 0x2, a7
         0x0074f85e      281f           move.l (a7)+, d4
         0x0074f860      4eb90040832a   jsr fcn.0040832a
         0x0074f866      2284           move.l d4, (a1)
     > 0x0074f868      226e0008       movea.l 0x8(a6), a1
          0x0074f86c      2453           movea.l (a3), a2
          0x0074f86e      2012           move.l (a2), d0
          0x0074f870      2280           move.l d0, (a1)
          0x0074f872      3f280004       move.w 0x4(a0), -(a7)
          0x0074f876      4227           clr.b -(a7)
          0x0074f878      2212           move.l (a2), d1
          0x0074f87a      b282           cmp.l d2, d1
      < 0x0074f87c      6602           bne.b 0x74f880
         0x0074f87e      5217           addq.b 0x1, (a7)
      > 0x0074f880      4eb900483776   jsr MENUCOM.swtch_box
          0x0074f886      584f           addq.w 0x4, a7
          0x0074f888      2212           move.l (a2), d1
          0x0074f88a      b282           cmp.l d2, d1
      < 0x0074f88c      6718           beq.b 0x74f8a6
         0x0074f88e      3f10           move.w (a0), -(a7)
         0x0074f890      2812           move.l (a2), d4
         0x0074f892      4eb900408686   jsr fcn.00408686
         0x0074f898      2f04           move.l d4, -(a7)
         0x0074f89a      4227           clr.b -(a7)
         0x0074f89c      4227           clr.b -(a7)
         0x0074f89e      4eb90048da84   jsr MENU2COM.set_numeric_val
         0x0074f8a4      dec3           adda.w d3, a7
      > 0x0074f8a6      3f280006       move.w 0x6(a0), -(a7)
          0x0074f8aa      4227           clr.b -(a7)
          0x0074f8ac      b082           cmp.l d2, d0
      < 0x0074f8ae      6602           bne.b 0x74f8b2
         0x0074f8b0      5217           addq.b 0x1, (a7)
      > 0x0074f8b2      4eb900483776   jsr MENUCOM.swtch_box
          0x0074f8b8      584f           addq.w 0x4, a7
          0x0074f8ba      b082           cmp.l d2, d0
      < 0x0074f8bc      670000a2       beq.w 0x74f960
         0x0074f8c0      3f280002       move.w 0x2(a0), -(a7)
         0x0074f8c4      2800           move.l d0, d4
     < 0x0074f8c6      60000084       bra.w 0x74f94c
     > 0x0074f8ca      554f           subq.w 0x2, a7
         0x0074f8cc      3f280004       move.w 0x4(a0), -(a7)
         0x0074f8d0      4e94           jsr (a4)                    ; fcn.0000000d
         0x0074f8d2      544f           addq.w 0x2, a7
         0x0074f8d4      4a1f           tst.b (a7)+
     < 0x0074f8d6      6706           beq.b 0x74f8de
        0x0074f8d8      2253           movea.l (a3), a1
        0x0074f8da      2282           move.l d2, (a1)
    < 0x0074f8dc      6018           bra.b 0x74f8f6
    > 0x0074f8de      2253           movea.l (a3), a1
        0x0074f8e0      594f           subq.w 0x4, a7
        0x0074f8e2      3f10           move.w (a0), -(a7)
        0x0074f8e4      4eb90048d992   jsr MENU2COM.get_numeric_val
        0x0074f8ea      544f           addq.w 0x2, a7
        0x0074f8ec      281f           move.l (a7)+, d4
        0x0074f8ee      4eb90040832a   jsr fcn.0040832a
        0x0074f8f4      2284           move.l d4, (a1)
    > 0x0074f8f6      554f           subq.w 0x2, a7
         0x0074f8f8      3f280006       move.w 0x6(a0), -(a7)
         0x0074f8fc      4e94           jsr (a4)                    ; fcn.0000000d
         0x0074f8fe      544f           addq.w 0x2, a7
         0x0074f900      4a1f           tst.b (a7)+
     < 0x0074f902      6708           beq.b 0x74f90c
        0x0074f904      226e0008       movea.l 0x8(a6), a1
        0x0074f908      2282           move.l d2, (a1)
    < 0x0074f90a      601c           bra.b 0x74f928
    > 0x0074f90c      226e0008       movea.l 0x8(a6), a1
        0x0074f910      594f           subq.w 0x4, a7
        0x0074f912      3f280002       move.w 0x2(a0), -(a7)
        0x0074f916      4eb90048d992   jsr MENU2COM.get_numeric_val
        0x0074f91c      544f           addq.w 0x2, a7
        0x0074f91e      281f           move.l (a7)+, d4
        0x0074f920      4eb90040832a   jsr fcn.0040832a
        0x0074f926      2284           move.l d4, (a1)
    > 0x0074f928      2253           movea.l (a3), a1
         0x0074f92a      3f28000e       move.w 0xe(a0), -(a7)
         0x0074f92e      4227           clr.b -(a7)
         0x0074f930      2011           move.l (a1), d0
         0x0074f932      b082           cmp.l d2, d0
     < 0x0074f934      6602           bne.b 0x74f938
        0x0074f936      5217           addq.b 0x1, (a7)
     > 0x0074f938      4eb900483776   jsr MENUCOM.swtch_box
         0x0074f93e      584f           addq.w 0x4, a7
         0x0074f940      2011           move.l (a1), d0
         0x0074f942      b082           cmp.l d2, d0
     < 0x0074f944      671a           beq.b 0x74f960
        0x0074f946      3f280010       move.w 0x10(a0), -(a7)
        0x0074f94a      2811           move.l (a1), d4
     > 0x0074f94c      4eb900408686   jsr fcn.00408686
         0x0074f952      2f04           move.l d4, -(a7)
         0x0074f954      4227           clr.b -(a7)
         0x0074f956      4227           clr.b -(a7)
         0x0074f958      4eb90048da84   jsr MENU2COM.set_numeric_val
         0x0074f95e      dec3           adda.w d3, a7
      > 0x0074f960      4cdf1f1f       movem.l (a7)+, d0-d4/a0-a4
           0x0074f964      4e5e           unlk a6
           0x0074f966      4e75           rts
            ; CALL XREF from MENULIBCOM.hit_skls_number @ 0x74fc02
            ; CALL XREF from MENULIBCOM.hit_retitle_num @ 0x74fd18
 74: MENULIBCOM.instant_number_ ();
           0x0074f968      4e56ffce       link.w a6, 0xffce
           0x0074f96c      bfd5           cmpa.l (a5), a7
       < 0x0074f96e      6206           bhi.b 0x74f976
          0x0074f970      44fc0002       move.w 0x2, ccr
          0x0074f974      4e76           trapv
       > 0x0074f976      defc0032       adda.w 0x32, a7
           0x0074f97a      48e7c8f8       movem.l d0-d1/d4/a0-a4, -(a7)
           0x0074f97e      43ee0014       lea.l 0x14(a6), a1
           0x0074f982      45f900483776   lea.l MENUCOM.swtch_box, a2
           0x0074f988      47f9004836a4   lea.l MENUCOM.push_box, a3
           0x0074f98e      7201           moveq 0x1, d1
           0x0074f990      4a2e0008       tst.b 0x8(a6)
       < 0x0074f994      670000ba       beq.w 0x74fa50
          0x0074f998      102e0012       move.b 0x12(a6), d0
          0x0074f99c      4880           ext.w d0
          0x0074f99e      5540           subq.w 0x2, d0
          0x0074f9a0      0c400009       cmpi.w 0x9, d0
      < 0x0074f9a4      620000a8       bhi.w 0x74fa4e
         0x0074f9a8      d040           add.w d0, d0
         0x0074f9aa      303b0006       move.w 0x74f9b2(pc, d0.w), d0
         0x0074f9ae      4efb0002       jmp 0x74f9b2(pc, d0.w)
          0x0074f9b2      009a009a0014   ori.l 0x9a0014, (a2)+
          0x0074f9b8      003c009a       ori.b 0x9a, ccr
          0x0074f9bc      009a009c006e   ori.l 0x9c006e, (a2)+
          0x0074f9c2      007e008c       
          0x0074f9c3      7e00           moveq 0x0, d7
          0x0074f9c5      8c20           or.b -(a0), d6
          0x0074f9c7      513f2800       
          0x0074f9c8      3f280004       move.w 0x4(a0), -(a7)
          0x0074f9cc      1f01           move.b d1, -(a7)
          0x0074f9ce      4e92           jsr (a2)                    ; fcn.00000009+0x2
          0x0074f9d0      544f           addq.w 0x2, a7
          0x0074f9d2      3ea80006       move.w 0x6(a0), (a7)
          0x0074f9d6      1f01           move.b d1, -(a7)
          0x0074f9d8      4e92           jsr (a2)                    ; fcn.00000009+0x2
          0x0074f9da      584f           addq.w 0x4, a7
     > 0x0074f9dc      206e000a       movea.l 0xa(a6), a0
        0x0074f9e0      286e000e       movea.l 0xe(a6), a4
        0x0074f9e4      4e90           jsr (a0)                    ; fcn.00000009
        0x0074f9e6      286efffc       movea.l -0x4(a6), a4
    < 0x0074f9ea      60000096       bra.w 0x74fa82
       0x0074f9ee      2051           movea.l (a1), a0
       0x0074f9f0      3f280004       move.w 0x4(a0), -(a7)
       0x0074f9f4      4227           clr.b -(a7)
       0x0074f9f6      4e92           jsr (a2)                    ; fcn.00000009+0x2
       0x0074f9f8      544f           addq.w 0x2, a7
       0x0074f9fa      3ea80006       move.w 0x6(a0), (a7)
       0x0074f9fe      1f01           move.b d1, -(a7)
       0x0074fa00      4e92           jsr (a2)                    ; fcn.00000009+0x2
       0x0074fa02      544f           addq.w 0x2, a7
       0x0074fa04      3e90           move.w (a0), (a7)
       0x0074fa06      7800           moveq 0x0, d4
       0x0074fa08      4eb900408686   jsr fcn.00408686
       0x0074fa0e      2f04           move.l d4, -(a7)
       0x0074fa10      4227           clr.b -(a7)
       0x0074fa12      1f01           move.b d1, -(a7)
       0x0074fa14      4eb90048da84   jsr MENU2COM.set_numeric_val
       0x0074fa1a      defc000a       adda.w 0xa, a7
    < 0x0074fa1e      60bc           bra.b 0x74f9dc
        0x0074fa20      2051           movea.l (a1), a0
        0x0074fa22      3f280004       move.w 0x4(a0), -(a7)
        0x0074fa26      4e93           jsr (a3)                    ; fcn.0000000c
        0x0074fa28      3e90           move.w (a0), (a7)
   > 0x0074fa2a      4e93           jsr (a3)                    ; fcn.0000000c
      0x0074fa2c      544f           addq.w 0x2, a7
  < 0x0074fa2e      6052           bra.b 0x74fa82
     0x0074fa30      2051           movea.l (a1), a0
     0x0074fa32      3f280006       move.w 0x6(a0), -(a7)
     0x0074fa36      4e93           jsr (a3)                    ; fcn.0000000c
     0x0074fa38      3ea80002       move.w 0x2(a0), (a7)
  < 0x0074fa3c      60ec           bra.b 0x74fa2a
      0x0074fa3e      2051           movea.l (a1), a0
      0x0074fa40      3f28000e       move.w 0xe(a0), -(a7)
      0x0074fa44      4e93           jsr (a3)                    ; fcn.0000000c
      0x0074fa46      3ea80010       move.w 0x10(a0), (a7)
   < 0x0074fa4a      60de           bra.b 0x74fa2a
    < 0x0074fa4c      608e           bra.b 0x74f9dc
    > 0x0074fa4e      6032           bra.b 0x74fa82
     > 0x0074fa50      102e0012       move.b 0x12(a6), d0
         0x0074fa54      4880           ext.w d0
         0x0074fa56      0c400008       cmpi.w 0x8, d0
     < 0x0074fa5a      6226           bhi.b 0x74fa82
        0x0074fa5c      d040           add.w d0, d0
        0x0074fa5e      303b0006       move.w 0x74fa66(pc, d0.w), d0
        0x0074fa62      4efb0002       jmp 0x74fa66(pc, d0.w)
        0x0074fa66      00160016       ori.b 0x16, (a6)
        0x0074fa6a      00120012       ori.b 0x12, (a2)
        0x0074fa6e      001c001c       ori.b 0x1c, (a4)+
        0x0074fa72      00120012       ori.b 0x12, (a2)
        0x0074fa76      00166000       ori.b 0x0, (a6)
        0x0074fa7a      ff62           invalid
        0x0074fa7c      13c10086d2b2   move.b d1, 0x86d2b2
        ; CODE XREF from MENULIBCOM @ +0x2da2
  > 0x0074fa82      4cdf1f13       movem.l (a7)+, d0-d1/d4/a0-a4
            0x0074fa86      4e5e           unlk a6
            0x0074fa88      4e75           rts
 184: MENULIBCOM.update_number_s ();
           0x0074fa8a      4e56ffc6       link.w a6, 0xffc6
           0x0074fa8e      bfd5           cmpa.l (a5), a7
       < 0x0074fa90      6206           bhi.b 0x74fa98
          0x0074fa92      44fc0002       move.w 0x2, ccr
          0x0074fa96      4e76           trapv
       > 0x0074fa98      defc0030       adda.w 0x30, a7
           0x0074fa9c      48e7f0c0       movem.l d0-d3/a0-a1, -(a7)
           0x0074faa0      7403           moveq 0x3, d2
           0x0074faa2      7613           moveq 0x13, d3
           0x0074faa4      10390086d27e   move.b 0x86d27e, d0
           0x0074faaa      4880           ext.w d0
           0x0074faac      41bc0002       chk.w 0x2, d0
           0x0074fab0      c1fc05d4       muls.w 0x5d4, d0
           0x0074fab4      41f90086d27a   lea.l 0x86d27a, a0
           0x0074faba      122c0004       move.b 0x4(a4), d1
           0x0074fabe      4881           ext.w d1
           0x0074fac0      4382           chk.w d2, d1
           0x0074fac2      c3fc0018       muls.w 0x18, d1
           0x0074fac6      43f00046       lea.l 0x46(a0, d0.w), a1
           0x0074faca      43f11000       lea.l (a1, d1.w), a1
           0x0074face      486904a8       pea.l 0x4a8(a1)
           0x0074fad2      486efff6       pea.l -0xa(a6)
           0x0074fad6      486efffa       pea.l -0x6(a6)
           0x0074fada      4ebafd22       jsr MENULIBCOM.get_numbers(pc)
           0x0074fade      defc000c       adda.w 0xc, a7
           0x0074fae2      102c0004       move.b 0x4(a4), d0
           0x0074fae6      4880           ext.w d0
           0x0074fae8      4182           chk.w d2, d0
           0x0074faea      1f00           move.b d0, -(a7)
           0x0074faec      554f           subq.w 0x2, a7
           0x0074faee      1f00           move.b d0, -(a7)
           0x0074faf0      4eb900662a4e   jsr K95_CARDS.k9_skl_spec
           0x0074faf6      544f           addq.w 0x2, a7
           0x0074faf8      1217           move.b (a7), d1
           0x0074fafa      4881           ext.w d1
           0x0074fafc      4383           chk.w d3, d1
           0x0074fafe      1e81           move.b d1, (a7)
           0x0074fb00      2f2efff6       move.l -0xa(a6), -(a7)
           0x0074fb04      2f2efffa       move.l -0x6(a6), -(a7)
           0x0074fb08      486efffe       pea.l -0x2(a6)
           0x0074fb0c      4eb9006611f6   jsr K95_CARDS.k9_upd_2numbers
           0x0074fb12      defc0010       adda.w 0x10, a7
           0x0074fb16      4a2efffe       tst.b -0x2(a6)
       < 0x0074fb1a      671e           beq.b 0x74fb3a
          0x0074fb1c      1f00           move.b d0, -(a7)
          0x0074fb1e      554f           subq.w 0x2, a7
          0x0074fb20      1f00           move.b d0, -(a7)
          0x0074fb22      4eb900662a4e   jsr K95_CARDS.k9_skl_spec
          0x0074fb28      544f           addq.w 0x2, a7
          0x0074fb2a      1217           move.b (a7), d1
          0x0074fb2c      4881           ext.w d1
          0x0074fb2e      4383           chk.w d3, d1
          0x0074fb30      1e81           move.b d1, (a7)
          0x0074fb32      4eb900662f7e   jsr K95_CARDS.k9_field_change
          0x0074fb38      584f           addq.w 0x4, a7
       > 0x0074fb3a      4cdf030f       movem.l (a7)+, d0-d3/a0-a1
           0x0074fb3e      4e5e           unlk a6
           0x0074fb40      4e75           rts
 208: MENULIBCOM.hit_skls_number ();
           0x0074fb42      4e56ffa6       link.w a6, 0xffa6
           0x0074fb46      bfd5           cmpa.l (a5), a7
       < 0x0074fb48      6206           bhi.b 0x74fb50
          0x0074fb4a      44fc0002       move.w 0x2, ccr
          0x0074fb4e      4e76           trapv
       > 0x0074fb50      defc0054       adda.w 0x54, a7
           0x0074fb54      48e7fff8       movem.l d0-d7/a0-a4, -(a7)
           0x0074fb58      45eefffa       lea.l -0x6(a6), a2
           0x0074fb5c      47faff2c       lea.l MENULIBCOM.update_number_s(pc), a3
           0x0074fb60      7802           moveq 0x2, d4
           0x0074fb62      7a01           moveq 0x1, d5
           0x0074fb64      7c0b           moveq 0xb, d6
           0x0074fb66      594f           subq.w 0x4, a7
           0x0074fb68      3f2e000a       move.w 0xa(a6), -(a7)
           0x0074fb6c      4eb90048406e   jsr MENUCOM.get_b_id
           0x0074fb72      544f           addq.w 0x2, a7
           0x0074fb74      2e17           move.l (a7), d7
           0x0074fb76      544f           addq.w 0x2, a7
           0x0074fb78      2f07           move.l d7, -(a7)
           0x0074fb7a      4ebae6ae       jsr MENULIBCOM.get_op(pc)
           0x0074fb7e      584f           addq.w 0x4, a7
           0x0074fb80      101f           move.b (a7)+, d0
           0x0074fb82      4880           ext.w d0
           0x0074fb84      41bc0003       chk.w 0x3, d0
           0x0074fb88      1d40fffe       move.b d0, -0x2(a6)
           0x0074fb8c      028700ffffff   andi.l 0xffffff, d7
           0x0074fb92      12390086d27e   move.b 0x86d27e, d1
           0x0074fb98      4881           ext.w d1
           0x0074fb9a      4384           chk.w d4, d1
           0x0074fb9c      c3fc05d4       muls.w 0x5d4, d1
           0x0074fba0      41f90086d27a   lea.l 0x86d27a, a0
           0x0074fba6      342e0008       move.w 0x8(a6), d2
           0x0074fbaa      b444           cmp.w d4, d2
       < 0x0074fbac      6606           bne.b 0x74fbb4
          0x0074fbae      284a           movea.l a2, a4
          0x0074fbb0      4e93           jsr (a3)                    ; fcn.0000000c
      < 0x0074fbb2      6056           bra.b 0x74fc0a
      > 0x0074fbb4      b445           cmp.w d5, d2
      < 0x0074fbb6      6624           bne.b 0x74fbdc
         0x0074fbb8      4880           ext.w d0
         0x0074fbba      7618           moveq 0x18, d3
         0x0074fbbc      c7c0           muls.w d0, d3
         0x0074fbbe      43f01046       lea.l 0x46(a0, d1.w), a1
         0x0074fbc2      43f13000       lea.l (a1, d3.w), a1
         0x0074fbc6      486904a8       pea.l 0x4a8(a1)
         0x0074fbca      1f07           move.b d7, -(a7)
         0x0074fbcc      1617           move.b (a7), d3
         0x0074fbce      4883           ext.w d3
         0x0074fbd0      4786           chk.w d6, d3
         0x0074fbd2      1e83           move.b d3, (a7)
         0x0074fbd4      4852           pea.l (a2)
         0x0074fbd6      4853           pea.l (a3)
         0x0074fbd8      1f05           move.b d5, -(a7)
     < 0x0074fbda      6026           bra.b 0x74fc02
     > 0x0074fbdc      4a42           tst.w d2
     < 0x0074fbde      662a           bne.b 0x74fc0a
        0x0074fbe0      4880           ext.w d0
        0x0074fbe2      7618           moveq 0x18, d3
        0x0074fbe4      c7c0           muls.w d0, d3
        0x0074fbe6      43f01046       lea.l 0x46(a0, d1.w), a1
        0x0074fbea      43f13000       lea.l (a1, d3.w), a1
        0x0074fbee      486904a8       pea.l 0x4a8(a1)
        0x0074fbf2      1f07           move.b d7, -(a7)
        0x0074fbf4      1617           move.b (a7), d3
        0x0074fbf6      4883           ext.w d3
        0x0074fbf8      4786           chk.w d6, d3
        0x0074fbfa      1e83           move.b d3, (a7)
        0x0074fbfc      4852           pea.l (a2)
        0x0074fbfe      4853           pea.l (a3)
        0x0074fc00      4227           clr.b -(a7)
     > 0x0074fc02      4ebafd64       jsr MENULIBCOM.instant_number_(pc)
         0x0074fc06      defc0010       adda.w 0x10, a7
      > 0x0074fc0a      4cdf1fff       movem.l (a7)+, d0-d7/a0-a4
           0x0074fc0e      4e5e           unlk a6
           0x0074fc10      4e75           rts
            0x0074fc12      4e56ffd0       link.w a6, 0xffd0
            0x0074fc16      bfd5           cmpa.l (a5), a7
        < 0x0074fc18      6206           bhi.b 0x74fc20
           0x0074fc1a      44fc0002       move.w 0x2, ccr
           0x0074fc1e      4e76           trapv
        > 0x0074fc20      defc0028       adda.w 0x28, a7
            0x0074fc24      48e7c0c0       movem.l d0-d1/a0-a1, -(a7)
            0x0074fc28      10390086d27e   move.b 0x86d27e, d0
            0x0074fc2e      4880           ext.w d0
            0x0074fc30      41bc0002       chk.w 0x2, d0
            0x0074fc34      c1fc05d4       muls.w 0x5d4, d0
            0x0074fc38      41f90086d27a   lea.l 0x86d27a, a0
            0x0074fc3e      43f00046       lea.l 0x46(a0, d0.w), a1
            0x0074fc42      48690508       pea.l 0x508(a1)
            0x0074fc46      486efff8       pea.l -0x8(a6)
            0x0074fc4a      486efffc       pea.l -0x4(a6)
            0x0074fc4e      4ebafbae       jsr MENULIBCOM.get_numbers(pc)
            0x0074fc52      504f           addq.w 0x8, a7
            0x0074fc54      2eb0004a       move.l 0x4a(a0, d0.w), (a7)
            0x0074fc58      554f           subq.w 0x2, a7
            0x0074fc5a      4eb90064b63e   jsr K9_LIBRARY.k9_ret_spec
            0x0074fc60      1217           move.b (a7), d1
            0x0074fc62      4881           ext.w d1
            0x0074fc64      43bc0019       chk.w 0x19, d1
            0x0074fc68      1e81           move.b d1, (a7)
            0x0074fc6a      2f2efff8       move.l -0x8(a6), -(a7)
            0x0074fc6e      2f2efffc       move.l -0x4(a6), -(a7)
            0x0074fc72      4eb9006491de   jsr K9_LIBRARY.k9_set_2numbers
            0x0074fc78      defc000e       adda.w 0xe, a7
            0x0074fc7c      4cdf0303       movem.l (a7)+, d0-d1/a0-a1
            0x0074fc80      4e5e           unlk a6
            0x0074fc82      4e75           rts
 164: MENULIBCOM.hit_retitle_num ();
           0x0074fc84      4e56ffb8       link.w a6, 0xffb8
           0x0074fc88      bfd5           cmpa.l (a5), a7
       < 0x0074fc8a      6206           bhi.b 0x74fc92
          0x0074fc8c      44fc0002       move.w 0x2, ccr
          0x0074fc90      4e76           trapv
       > 0x0074fc92      defc0044       adda.w 0x44, a7
           0x0074fc96      48e7fde0       movem.l d0-d5/d7/a0-a2, -(a7)
           0x0074fc9a      45faff76       lea.l 0x74fc12(pc), a2
           0x0074fc9e      7602           moveq 0x2, d3
           0x0074fca0      7801           moveq 0x1, d4
           0x0074fca2      7a0b           moveq 0xb, d5
           0x0074fca4      594f           subq.w 0x4, a7
           0x0074fca6      3f2e000a       move.w 0xa(a6), -(a7)
           0x0074fcaa      4eb90048406e   jsr MENUCOM.get_b_id
           0x0074fcb0      544f           addq.w 0x2, a7
           0x0074fcb2      2e1f           move.l (a7)+, d7
           0x0074fcb4      028700ffffff   andi.l 0xffffff, d7
           0x0074fcba      10390086d27e   move.b 0x86d27e, d0
           0x0074fcc0      4880           ext.w d0
           0x0074fcc2      4183           chk.w d3, d0
           0x0074fcc4      c1fc05d4       muls.w 0x5d4, d0
           0x0074fcc8      41f90086d27a   lea.l 0x86d27a, a0
           0x0074fcce      322e0008       move.w 0x8(a6), d1
           0x0074fcd2      b243           cmp.w d3, d1
       < 0x0074fcd4      6604           bne.b 0x74fcda
          0x0074fcd6      4e92           jsr (a2)                    ; fcn.00000009+0x2
      < 0x0074fcd8      6046           bra.b 0x74fd20
      > 0x0074fcda      b244           cmp.w d4, d1
      < 0x0074fcdc      661c           bne.b 0x74fcfa
         0x0074fcde      43f00046       lea.l 0x46(a0, d0.w), a1
         0x0074fce2      48690508       pea.l 0x508(a1)
         0x0074fce6      1f07           move.b d7, -(a7)
         0x0074fce8      1417           move.b (a7), d2
         0x0074fcea      4882           ext.w d2
         0x0074fcec      4585           chk.w d5, d2
         0x0074fcee      1e82           move.b d2, (a7)
         0x0074fcf0      486efffc       pea.l -0x4(a6)
         0x0074fcf4      4852           pea.l (a2)
         0x0074fcf6      1f04           move.b d4, -(a7)
     < 0x0074fcf8      601e           bra.b 0x74fd18
     > 0x0074fcfa      4a41           tst.w d1
     < 0x0074fcfc      6622           bne.b 0x74fd20
        0x0074fcfe      43f00046       lea.l 0x46(a0, d0.w), a1
        0x0074fd02      48690508       pea.l 0x508(a1)
        0x0074fd06      1f07           move.b d7, -(a7)
        0x0074fd08      1417           move.b (a7), d2
        0x0074fd0a      4882           ext.w d2
        0x0074fd0c      4585           chk.w d5, d2
        0x0074fd0e      1e82           move.b d2, (a7)
        0x0074fd10      486efffc       pea.l -0x4(a6)
        0x0074fd14      4852           pea.l (a2)
        0x0074fd16      4227           clr.b -(a7)
     > 0x0074fd18      4ebafc4e       jsr MENULIBCOM.instant_number_(pc)
         0x0074fd1c      defc0010       adda.w 0x10, a7
      > 0x0074fd20      4cdf07bf       movem.l (a7)+, d0-d5/d7/a0-a2
           0x0074fd24      4e5e           unlk a6
           0x0074fd26      4e75           rts
 144: MENULIBCOM.update_number ();
           0x0074fd28      4e56ffd0       link.w a6, 0xffd0
           0x0074fd2c      bfd5           cmpa.l (a5), a7
       < 0x0074fd2e      6206           bhi.b 0x74fd36
          0x0074fd30      44fc0002       move.w 0x2, ccr
          0x0074fd34      4e76           trapv
       > 0x0074fd36      defc002c       adda.w 0x2c, a7
           0x0074fd3a      48e7c9c0       movem.l d0-d1/d4/d7/a0-a1, -(a7)
           0x0074fd3e      10390086d27e   move.b 0x86d27e, d0
           0x0074fd44      4880           ext.w d0
           0x0074fd46      41bc0002       chk.w 0x2, d0
           0x0074fd4a      c1fc05d4       muls.w 0x5d4, d0
           0x0074fd4e      41f90086d27a   lea.l 0x86d27a, a0
           0x0074fd54      554f           subq.w 0x2, a7
           0x0074fd56      43f00046       lea.l 0x46(a0, d0.w), a1
           0x0074fd5a      3f290520       move.w 0x520(a1), -(a7)
           0x0074fd5e      4eb900480fc2   jsr MENUCOM.get_boxon
           0x0074fd64      544f           addq.w 0x2, a7
           0x0074fd66      4a1f           tst.b (a7)+
       < 0x0074fd68      6708           beq.b 0x74fd72
          0x0074fd6a      2e3c7fffffff   move.l 0x7fffffff, d7
      < 0x0074fd70      601c           bra.b 0x74fd8e
      > 0x0074fd72      594f           subq.w 0x4, a7
          0x0074fd74      43f00046       lea.l 0x46(a0, d0.w), a1
          0x0074fd78      3f290522       move.w 0x522(a1), -(a7)
          0x0074fd7c      4eb90048d992   jsr MENU2COM.get_numeric_val
          0x0074fd82      544f           addq.w 0x2, a7
          0x0074fd84      281f           move.l (a7)+, d4
          0x0074fd86      4eb90040832a   jsr fcn.0040832a
          0x0074fd8c      2e04           move.l d4, d7
      > 0x0074fd8e      2f30004a       move.l 0x4a(a0, d0.w), -(a7)
           0x0074fd92      554f           subq.w 0x2, a7
           0x0074fd94      4eb90064b63e   jsr K9_LIBRARY.k9_ret_spec
           0x0074fd9a      1217           move.b (a7), d1
           0x0074fd9c      4881           ext.w d1
           0x0074fd9e      43bc0019       chk.w 0x19, d1
           0x0074fda2      1e81           move.b d1, (a7)
           0x0074fda4      2f07           move.l d7, -(a7)
           0x0074fda6      4eb900649052   jsr K9_LIBRARY.k9_set_number
           0x0074fdac      defc000a       adda.w 0xa, a7
           0x0074fdb0      4cdf0393       movem.l (a7)+, d0-d1/d4/d7/a0-a1
           0x0074fdb4      4e5e           unlk a6
           0x0074fdb6      4e75           rts
            0x0074fdb8      4e56fff2       link.w a6, 0xfff2
            0x0074fdbc      bfd5           cmpa.l (a5), a7
        < 0x0074fdbe      6206           bhi.b 0x74fdc6
           0x0074fdc0      44fc0002       move.w 0x2, ccr
           0x0074fdc4      4e76           trapv
        > 0x0074fdc6      defc000e       adda.w 0xe, a7
            0x0074fdca      48e7c000       movem.l d0-d1, -(a7)
            0x0074fdce      7201           moveq 0x1, d1
            0x0074fdd0      302e0008       move.w 0x8(a6), d0
            0x0074fdd4      0c400002       cmpi.w 0x2, d0
        < 0x0074fdd8      6606           bne.b 0x74fde0
       > 0x0074fdda      4ebaff4c       jsr MENULIBCOM.update_number(pc)
      < 0x0074fdde      6014           bra.b 0x74fdf4
      > 0x0074fde0      b041           cmp.w d1, d0
      < 0x0074fde2      6602           bne.b 0x74fde6
      < 0x0074fde4      60f4           bra.b 0x74fdda
       > 0x0074fde6      4a40           tst.w d0
       < 0x0074fde8      660a           bne.b 0x74fdf4
          0x0074fdea      4ebaff3c       jsr MENULIBCOM.update_number(pc)
          0x0074fdee      13c10086d2b2   move.b d1, 0x86d2b2
      > 0x0074fdf4      4cdf0003       movem.l (a7)+, d0-d1
            0x0074fdf8      4e5e           unlk a6
            0x0074fdfa      4e75           rts
            0x0074fdfc      4e56ffe8       link.w a6, 0xffe8
            0x0074fe00      bfd5           cmpa.l (a5), a7
        < 0x0074fe02      6206           bhi.b 0x74fe0a
           0x0074fe04      44fc0002       move.w 0x2, ccr
           0x0074fe08      4e76           trapv
        > 0x0074fe0a      defc0018       adda.w 0x18, a7
            0x0074fe0e      48e780c0       movem.l d0/a0-a1, -(a7)
            0x0074fe12      302e0008       move.w 0x8(a6), d0
            0x0074fe16      0c400001       cmpi.w 0x1, d0
        < 0x0074fe1a      6636           bne.b 0x74fe52
           0x0074fe1c      10390086d27e   move.b 0x86d27e, d0
           0x0074fe22      4880           ext.w d0
           0x0074fe24      41bc0002       chk.w 0x2, d0
           0x0074fe28      c1fc05d4       muls.w 0x5d4, d0
           0x0074fe2c      41f90086d27a   lea.l 0x86d27a, a0
           0x0074fe32      43f00046       lea.l 0x46(a0, d0.w), a1
           0x0074fe36      3f290520       move.w 0x520(a1), -(a7)
           0x0074fe3a      4eb9004836a4   jsr MENUCOM.push_box
           0x0074fe40      544f           addq.w 0x2, a7
           0x0074fe42      43f00046       lea.l 0x46(a0, d0.w), a1
           0x0074fe46      3f290522       move.w 0x522(a1), -(a7)
           0x0074fe4a      4eb9004836a4   jsr MENUCOM.push_box
           0x0074fe50      544f           addq.w 0x2, a7
        > 0x0074fe52      4cdf0301       movem.l (a7)+, d0/a0-a1
            0x0074fe56      4e5e           unlk a6
            0x0074fe58      4e75           rts
            0x0074fe5a      4e56ffc4       link.w a6, 0xffc4
            0x0074fe5e      bfd5           cmpa.l (a5), a7
        < 0x0074fe60      6206           bhi.b 0x74fe68
           0x0074fe62      44fc0002       move.w 0x2, ccr
           0x0074fe66      4e76           trapv
        > 0x0074fe68      defc0036       adda.w 0x36, a7
            0x0074fe6c      48e7f9c0       movem.l d0-d4/d7/a0-a1, -(a7)
            0x0074fe70      7403           moveq 0x3, d2
            0x0074fe72      7613           moveq 0x13, d3
            0x0074fe74      10390086d27e   move.b 0x86d27e, d0
            0x0074fe7a      4880           ext.w d0
            0x0074fe7c      41bc0002       chk.w 0x2, d0
            0x0074fe80      c1fc05d4       muls.w 0x5d4, d0
            0x0074fe84      41f90086d27a   lea.l 0x86d27a, a0
            0x0074fe8a      122c0004       move.b 0x4(a4), d1
            0x0074fe8e      4881           ext.w d1
            0x0074fe90      4382           chk.w d2, d1
            0x0074fe92      e341           asl.w 0x1, d1
            0x0074fe94      43f00046       lea.l 0x46(a0, d0.w), a1
            0x0074fe98      2f09           move.l a1, -(a7)
            0x0074fe9a      554f           subq.w 0x2, a7
            0x0074fe9c      43f11000       lea.l (a1, d1.w), a1
            0x0074fea0      3f290524       move.w 0x524(a1), -(a7)
            0x0074fea4      4eb900480fc2   jsr MENUCOM.get_boxon
            0x0074feaa      544f           addq.w 0x2, a7
            0x0074feac      4a1f           tst.b (a7)+
        < 0x0074feae      670a           beq.b 0x74feba
           0x0074feb0      2e3c7fffffff   move.l 0x7fffffff, d7
           0x0074feb6      584f           addq.w 0x4, a7
       < 0x0074feb8      6022           bra.b 0x74fedc
       > 0x0074feba      594f           subq.w 0x4, a7
           0x0074febc      226f0004       movea.l 0x4(a7), a1
           0x0074fec0      43f11000       lea.l (a1, d1.w), a1
           0x0074fec4      3f29052c       move.w 0x52c(a1), -(a7)
           0x0074fec8      4eb90048d992   jsr MENU2COM.get_numeric_val
           0x0074fece      544f           addq.w 0x2, a7
           0x0074fed0      281f           move.l (a7)+, d4
           0x0074fed2      4eb90040832a   jsr fcn.0040832a
           0x0074fed8      2e04           move.l d4, d7
           0x0074feda      584f           addq.w 0x4, a7
       > 0x0074fedc      102c0004       move.b 0x4(a4), d0
            0x0074fee0      4880           ext.w d0
            0x0074fee2      4182           chk.w d2, d0
            0x0074fee4      1f00           move.b d0, -(a7)
            0x0074fee6      554f           subq.w 0x2, a7
            0x0074fee8      1f00           move.b d0, -(a7)
            0x0074feea      4eb900662a4e   jsr K95_CARDS.k9_skl_spec
            0x0074fef0      544f           addq.w 0x2, a7
            0x0074fef2      1217           move.b (a7), d1
            0x0074fef4      4881           ext.w d1
            0x0074fef6      4383           chk.w d3, d1
            0x0074fef8      1e81           move.b d1, (a7)
            0x0074fefa      2f07           move.l d7, -(a7)
            0x0074fefc      486efffe       pea.l -0x2(a6)
            0x0074ff00      4eb900661444   jsr K95_CARDS.k9_upd_number
            0x0074ff06      defc000c       adda.w 0xc, a7
            0x0074ff0a      4a2efffe       tst.b -0x2(a6)
        < 0x0074ff0e      671e           beq.b 0x74ff2e
           0x0074ff10      1f00           move.b d0, -(a7)
           0x0074ff12      554f           subq.w 0x2, a7
           0x0074ff14      1f00           move.b d0, -(a7)
           0x0074ff16      4eb900662a4e   jsr K95_CARDS.k9_skl_spec
           0x0074ff1c      544f           addq.w 0x2, a7
           0x0074ff1e      1217           move.b (a7), d1
           0x0074ff20      4881           ext.w d1
           0x0074ff22      4383           chk.w d3, d1
           0x0074ff24      1e81           move.b d1, (a7)
           0x0074ff26      4eb900662f7e   jsr K95_CARDS.k9_field_change
           0x0074ff2c      584f           addq.w 0x4, a7
        > 0x0074ff2e      4cdf039f       movem.l (a7)+, d0-d4/d7/a0-a1
            0x0074ff32      4e5e           unlk a6
            0x0074ff34      4e75           rts
            0x0074ff36      4e56ffe0       link.w a6, 0xffe0
            0x0074ff3a      bfd5           cmpa.l (a5), a7
        < 0x0074ff3c      6206           bhi.b 0x74ff44
           0x0074ff3e      44fc0002       move.w 0x2, ccr
           0x0074ff42      4e76           trapv
        > 0x0074ff44      defc001a       adda.w 0x1a, a7
            0x0074ff48      48e7c108       movem.l d0-d1/d7/a4, -(a7)
            0x0074ff4c      7201           moveq 0x1, d1
            0x0074ff4e      594f           subq.w 0x4, a7
            0x0074ff50      3f2e000a       move.w 0xa(a6), -(a7)
            0x0074ff54      4eb90048406e   jsr MENUCOM.get_b_id
            0x0074ff5a      544f           addq.w 0x2, a7
            0x0074ff5c      2e17           move.l (a7), d7
            0x0074ff5e      544f           addq.w 0x2, a7
            0x0074ff60      2f07           move.l d7, -(a7)
            0x0074ff62      4ebae2c6       jsr MENULIBCOM.get_op(pc)
            0x0074ff66      584f           addq.w 0x4, a7
            0x0074ff68      101f           move.b (a7)+, d0
            0x0074ff6a      4880           ext.w d0
            0x0074ff6c      41bc0003       chk.w 0x3, d0
            0x0074ff70      1d40fffe       move.b d0, -0x2(a6)
            0x0074ff74      028700ffffff   andi.l 0xffffff, d7
            0x0074ff7a      302e0008       move.w 0x8(a6), d0
            0x0074ff7e      0c400002       cmpi.w 0x2, d0
        < 0x0074ff82      660a           bne.b 0x74ff8e
       > 0x0074ff84      49eefffa       lea.l -0x6(a6), a4
          0x0074ff88      4ebafed0       jsr 0x74fe5a(pc)
      < 0x0074ff8c      6018           bra.b 0x74ffa6
      > 0x0074ff8e      b041           cmp.w d1, d0
      < 0x0074ff90      6602           bne.b 0x74ff94
      < 0x0074ff92      60f0           bra.b 0x74ff84
       > 0x0074ff94      4a40           tst.w d0
       < 0x0074ff96      660e           bne.b 0x74ffa6
          0x0074ff98      49eefffa       lea.l -0x6(a6), a4
          0x0074ff9c      4ebafebc       jsr 0x74fe5a(pc)
          0x0074ffa0      13c10086d2b2   move.b d1, 0x86d2b2
      > 0x0074ffa6      4cdf1083       movem.l (a7)+, d0-d1/d7/a4
            0x0074ffaa      4e5e           unlk a6
            0x0074ffac      4e75           rts
            0x0074ffae      4e56ffd0       link.w a6, 0xffd0
            0x0074ffb2      bfd5           cmpa.l (a5), a7
        < 0x0074ffb4      6206           bhi.b 0x74ffbc
           0x0074ffb6      44fc0002       move.w 0x2, ccr
           0x0074ffba      4e76           trapv
        > 0x0074ffbc      defc002a       adda.w 0x2a, a7
            0x0074ffc0      48e7c3c0       movem.l d0-d1/d6-d7/a0-a1, -(a7)
            0x0074ffc4      594f           subq.w 0x4, a7
            0x0074ffc6      3f2e000a       move.w 0xa(a6), -(a7)
            0x0074ffca      4eb90048406e   jsr MENUCOM.get_b_id
            0x0074ffd0      544f           addq.w 0x2, a7
            0x0074ffd2      2e17           move.l (a7), d7
            0x0074ffd4      544f           addq.w 0x2, a7
            0x0074ffd6      2f07           move.l d7, -(a7)
            0x0074ffd8      4ebae250       jsr MENULIBCOM.get_op(pc)
            0x0074ffdc      584f           addq.w 0x4, a7
            0x0074ffde      101f           move.b (a7)+, d0
            0x0074ffe0      4880           ext.w d0
            0x0074ffe2      41bc0003       chk.w 0x3, d0
            0x0074ffe6      1c00           move.b d0, d6
            0x0074ffe8      028700ffffff   andi.l 0xffffff, d7
            0x0074ffee      302e0008       move.w 0x8(a6), d0
            0x0074fff2      0c400001       cmpi.w 0x1, d0
        < 0x0074fff6      6644           bne.b 0x75003c
           0x0074fff8      10390086d27e   move.b 0x86d27e, d0
           0x0074fffe      4880           ext.w d0
           0x00750000      41bc0002       chk.w 0x2, d0
           0x00750004      c1fc05d4       muls.w 0x5d4, d0
           0x00750008      41f90086d27a   lea.l 0x86d27a, a0
           0x0075000e      4886           ext.w d6
           0x00750010      3206           move.w d6, d1
           0x00750012      e341           asl.w 0x1, d1
           0x00750014      43f00046       lea.l 0x46(a0, d0.w), a1
           0x00750018      2f09           move.l a1, -(a7)
           0x0075001a      43f11000       lea.l (a1, d1.w), a1
           0x0075001e      3f290524       move.w 0x524(a1), -(a7)
           0x00750022      4eb9004836a4   jsr MENUCOM.push_box
           0x00750028      544f           addq.w 0x2, a7
           0x0075002a      2257           movea.l (a7), a1
           0x0075002c      43f11000       lea.l (a1, d1.w), a1
           0x00750030      3f29052c       move.w 0x52c(a1), -(a7)
           0x00750034      4eb9004836a4   jsr MENUCOM.push_box
           0x0075003a      5c4f           addq.w 0x6, a7
        > 0x0075003c      4cdf03c3       movem.l (a7)+, d0-d1/d6-d7/a0-a1
            0x00750040      4e5e           unlk a6
            0x00750042      4e75           rts
            ; CALL XREF from MENULIBCOM.hit_skls_drive_ @ 0x750208
            ; CALL XREF from MENULIBCOM.hit_skls_disk_g @ 0x75022e
 422: MENULIBCOM.do_drive_select ();
           0x00750044      4e56fda6       link.w a6, 0xfda6
           0x00750048      bfd5           cmpa.l (a5), a7
       < 0x0075004a      6206           bhi.b 0x750052
          0x0075004c      44fc0002       move.w 0x2, ccr
          0x00750050      4e76           trapv
       > 0x00750052      defc0246       adda.w 0x246, a7
           0x00750056      48e7fff8       movem.l d0-d7/a0-a4, -(a7)
           0x0075005a      45ee000c       lea.l 0xc(a6), a2
           0x0075005e      47eefffe       lea.l -0x2(a6), a3
           0x00750062      49f90086d27e   lea.l 0x86d27e, a4
           0x00750068      594f           subq.w 0x4, a7
           0x0075006a      3f12           move.w (a2), -(a7)
           0x0075006c      4eb90048406e   jsr MENUCOM.get_b_id
           0x00750072      544f           addq.w 0x2, a7
           0x00750074      2c17           move.l (a7), d6
           0x00750076      544f           addq.w 0x2, a7
           0x00750078      2f06           move.l d6, -(a7)
           0x0075007a      4ebae1ae       jsr MENULIBCOM.get_op(pc)
           0x0075007e      584f           addq.w 0x4, a7
           0x00750080      101f           move.b (a7)+, d0
           0x00750082      4880           ext.w d0
           0x00750084      41bc0003       chk.w 0x3, d0
           0x00750088      1e00           move.b d0, d7
           0x0075008a      594f           subq.w 0x4, a7
           0x0075008c      3f12           move.w (a2), -(a7)
           0x0075008e      4eb90048406e   jsr MENUCOM.get_b_id
           0x00750094      544f           addq.w 0x2, a7
           0x00750096      2c1f           move.l (a7)+, d6
           0x00750098      028600ffffff   andi.l 0xffffff, d6
           0x0075009e      4213           clr.b (a3)
           0x007500a0      4a07           tst.b d7
       < 0x007500a2      6702           beq.b 0x7500a6
          0x007500a4      5213           addq.b 0x1, (a3)
       > 0x007500a6      302e000a       move.w 0xa(a6), d0
           0x007500aa      41facf5e       lea.l 0x74d00a(pc), a0
           0x007500ae      3200           move.w d0, d1
           0x007500b0      e649           lsr.w 0x3, d1
           0x007500b2      0c410020       cmpi.w 0x20, d1
       < 0x007500b6      6d04           blt.b 0x7500bc
          0x007500b8      7200           moveq 0x0, d1
      < 0x007500ba      6004           bra.b 0x7500c0
      > 0x007500bc      01301000       btst.l d0, (a0, d1.w)
      < 0x007500c0      67000120       beq.w 0x7501e2
          0x007500c4      4a2e0008       tst.b 0x8(a6)
      < 0x007500c8      673a           beq.b 0x750104
         0x007500ca      2006           move.l d6, d0
         0x007500cc      5380           subq.l 0x1, d0
         0x007500ce      0c8000000005   cmpi.l 0x5, d0
     < 0x007500d4      6302           bls.b 0x7500d8
        0x007500d6      4e4f           trap 0xf
     > 0x007500d8      e780           asl.l 0x3, d0
         0x007500da      4887           ext.w d7
         0x007500dc      7230           moveq 0x30, d1
         0x007500de      c3c7           muls.w d7, d1
         0x007500e0      1414           move.b (a4), d2
         0x007500e2      4882           ext.w d2
         0x007500e4      45bc0002       chk.w 0x2, d2
         0x007500e8      c5fc05d4       muls.w 0x5d4, d2
         0x007500ec      41f90086d27a   lea.l 0x86d27a, a0
         0x007500f2      41f02000       lea.l (a0, d2.w), a0
         0x007500f6      41f01000       lea.l (a0, d1.w), a0
         0x007500fa      41f00800       lea.l (a0, d0.l), a0
         0x007500fe      2a280356       move.l 0x356(a0), d5
     < 0x00750102      6040           bra.b 0x750144
     > 0x00750104      2006           move.l d6, d0
         0x00750106      5380           subq.l 0x1, d0
         0x00750108      0c8000000004   cmpi.l 0x4, d0
     < 0x0075010e      6302           bls.b 0x750112
        0x00750110      4e4f           trap 0xf
     > 0x00750112      2800           move.l d0, d4
         0x00750114      7606           moveq 0x6, d3
         0x00750116      4eb900406a74   jsr fcn.00406a74
         0x0075011c      4887           ext.w d7
         0x0075011e      701e           moveq 0x1e, d0
         0x00750120      c1c7           muls.w d7, d0
         0x00750122      1214           move.b (a4), d1
         0x00750124      4881           ext.w d1
         0x00750126      43bc0002       chk.w 0x2, d1
         0x0075012a      c3fc05d4       muls.w 0x5d4, d1
         0x0075012e      41f90086d27a   lea.l 0x86d27a, a0
         0x00750134      41f01000       lea.l (a0, d1.w), a0
         0x00750138      41f00000       lea.l (a0, d0.w), a0
         0x0075013c      41f04800       lea.l (a0, d4.l), a0
         0x00750140      2a28044e       move.l 0x44e(a0), d5
     > 0x00750144      4a13           tst.b (a3)
      < 0x00750146      670a           beq.b 0x750152
         0x00750148      554f           subq.w 0x2, a7
         0x0075014a      2f05           move.l d5, -(a7)
         0x0075014c      4227           clr.b -(a7)
         0x0075014e      4227           clr.b -(a7)
     < 0x00750150      600a           bra.b 0x75015c
     > 0x00750152      554f           subq.w 0x2, a7
         0x00750154      2f05           move.l d5, -(a7)
         0x00750156      4227           clr.b -(a7)
         0x00750158      1f3c0001       move.b 0x1, -(a7)
     > 0x0075015c      4227           clr.b -(a7)
          0x0075015e      486efff2       pea.l -0xe(a6)
          0x00750162      4eb9005984c6   jsr K0_DISKMGR.k_select_node_h
          0x00750168      defc000e       adda.w 0xe, a7
          0x0075016c      101f           move.b (a7)+, d0
          0x0075016e      4880           ext.w d0
          0x00750170      41bc0001       chk.w 0x1, d0
          0x00750174      1c00           move.b d0, d6
          0x00750176      4a06           tst.b d6
      < 0x00750178      6646           bne.b 0x7501c0
         0x0075017a      9efc0100       suba.w 0x100, a7
         0x0075017e      4eb900408ec0   jsr p_err_string
         0x00750184      9efc0100       suba.w 0x100, a7
         0x00750188      204f           movea.l a7, a0
         0x0075018a      43ef0100       lea.l 0x100(a7), a1
         0x0075018e      703f           moveq 0x3f, d0
     > 0x00750190      20d9           move.l (a1)+, (a0)+
     < 0x00750192      51c8fffc       dbra d0, 0x750190
         0x00750196      3f12           move.w (a2), -(a7)
         0x00750198      486f0002       pea.l 0x2(a7)
         0x0075019c      48780000       pea.l 0x0
         0x007501a0      487800ff       pea.l 0xff
         0x007501a4      4eb900483af8   jsr MENUCOM.box_error
         0x007501aa      defc020e       adda.w 0x20e, a7
         0x007501ae      4eb900404188   jsr p_Unlink
         0x007501b4      3f12           move.w (a2), -(a7)
         0x007501b6      4227           clr.b -(a7)
         0x007501b8      4eb900483776   jsr MENUCOM.swtch_box
         0x007501be      584f           addq.w 0x4, a7
      > 0x007501c0      4a2e0008       tst.b 0x8(a6)
      < 0x007501c4      670a           beq.b 0x7501d0
         0x007501c6      1f07           move.b d7, -(a7)
         0x007501c8      4227           clr.b -(a7)
         0x007501ca      4ebadbc8       jsr MENULIBCOM.set_skls_disks_(pc)
     < 0x007501ce      6008           bra.b 0x7501d8
     > 0x007501d0      1f07           move.b d7, -(a7)
         0x007501d2      4227           clr.b -(a7)
         0x007501d4      4ebaded6       jsr MENULIBCOM.set_skls_disk_g(pc)
     > 0x007501d8      584f           addq.w 0x4, a7
          0x007501da      1f07           move.b d7, -(a7)
          0x007501dc      4ebae0ac       jsr MENULIBCOM.upd_vol(pc)
          0x007501e0      544f           addq.w 0x2, a7
       > 0x007501e2      4cdf1fff       movem.l (a7)+, d0-d7/a0-a4
           0x007501e6      4e5e           unlk a6
           0x007501e8      4e75           rts
 40: MENULIBCOM.hit_skls_drive_ ();
           0x007501ea      4e56fff6       link.w a6, 0xfff6
           0x007501ee      bfd5           cmpa.l (a5), a7
       < 0x007501f0      6206           bhi.b 0x7501f8
          0x007501f2      44fc0002       move.w 0x2, ccr
          0x007501f6      4e76           trapv
       > 0x007501f8      defc000a       adda.w 0xa, a7
           0x007501fc      3f2e000a       move.w 0xa(a6), -(a7)
           0x00750200      3f2e0008       move.w 0x8(a6), -(a7)
           0x00750204      1f3c0001       move.b 0x1, -(a7)
           0x00750208      4ebafe3a       jsr MENULIBCOM.do_drive_select(pc)
           0x0075020c      5c4f           addq.w 0x6, a7
           0x0075020e      4e5e           unlk a6
           0x00750210      4e75           rts
 38: MENULIBCOM.hit_skls_disk_g ();
           0x00750212      4e56fff6       link.w a6, 0xfff6
           0x00750216      bfd5           cmpa.l (a5), a7
       < 0x00750218      6206           bhi.b 0x750220
          0x0075021a      44fc0002       move.w 0x2, ccr
          0x0075021e      4e76           trapv
       > 0x00750220      defc000a       adda.w 0xa, a7
           0x00750224      3f2e000a       move.w 0xa(a6), -(a7)
           0x00750228      3f2e0008       move.w 0x8(a6), -(a7)
           0x0075022c      4227           clr.b -(a7)
           0x0075022e      4ebafe14       jsr MENULIBCOM.do_drive_select(pc)
           0x00750232      5c4f           addq.w 0x6, a7
           0x00750234      4e5e           unlk a6
           0x00750236      4e75           rts
            ; CALL XREF from MENUOWNERCOM.owner_setups_in @ 0x5068bc
            ; CALL XREFS from MENUOWNERCOM.owner_owner @ 0x506c34, 0x506d3c
            ; CALL XREF from MENUOWNERCOM.default_handler @ 0x5075dc
 184: MENULIBCOM.set_new_owner ();
           0x00750238      4e56ffd6       link.w a6, 0xffd6
           0x0075023c      bfd5           cmpa.l (a5), a7
       < 0x0075023e      6206           bhi.b 0x750246
          0x00750240      44fc0002       move.w 0x2, ccr
          0x00750244      4e76           trapv
       > 0x00750246      defc0028       adda.w 0x28, a7
           0x0075024a      48e7c0e0       movem.l d0-d1/a0-a2, -(a7)
           0x0075024e      43ee0008       lea.l 0x8(a6), a1
           0x00750252      45eefffe       lea.l -0x2(a6), a2
           0x00750256      720b           moveq 0xb, d1
           0x00750258      4227           clr.b -(a7)
           0x0075025a      1f3c0003       move.b 0x3, -(a7)
           0x0075025e      4851           pea.l (a1)
           0x00750260      4878ffff       pea.l 0xffff
           0x00750264      486effff       pea.l -0x1(a6)
           0x00750268      4eb900660a28   jsr K95_CARDS.k9_upd_string
           0x0075026e      defc0010       adda.w 0x10, a7
           0x00750272      4212           clr.b (a2)
           0x00750274      4a11           tst.b (a1)
       < 0x00750276      6702           beq.b 0x75027a
          0x00750278      5212           addq.b 0x1, (a2)
       > 0x0075027a      10390086d27e   move.b 0x86d27e, d0
           0x00750280      4880           ext.w d0
           0x00750282      41bc0002       chk.w 0x2, d0
           0x00750286      c1fc05d4       muls.w 0x5d4, d0
           0x0075028a      41f90086d27a   lea.l 0x86d27a, a0
           0x00750290      4a12           tst.b (a2)
       < 0x00750292      670e           beq.b 0x7502a2
          0x00750294      3f300060       move.w 0x60(a0, d0.w), -(a7)
          0x00750298      2f3aca3e       move.l 0x74ccd8(pc), -(a7)
          0x0075029c      3f3aca38       move.w 0x74ccd6(pc), -(a7)
      < 0x007502a0      600c           bra.b 0x7502ae
      > 0x007502a2      3f300060       move.w 0x60(a0, d0.w), -(a7)
          0x007502a6      2f3aca2a       move.l 0x74ccd2(pc), -(a7)
          0x007502aa      3f3aca24       move.w 0x74ccd0(pc), -(a7)
      > 0x007502ae      4eb900484148   jsr MENUCOM.set_boxcol
           0x007502b4      504f           addq.w 0x8, a7
           0x007502b6      4a2effff       tst.b -0x1(a6)
       < 0x007502ba      670a           beq.b 0x7502c6
          0x007502bc      4227           clr.b -(a7)
          0x007502be      4eb900662ff2   jsr K95_CARDS.k9_changed
          0x007502c4      544f           addq.w 0x2, a7
       > 0x007502c6      1f01           move.b d1, -(a7)
           0x007502c8      4851           pea.l (a1)
           0x007502ca      4eb9004a5b70   jsr MENUKEYBDCOM.set_title
           0x007502d0      584f           addq.w 0x4, a7
           0x007502d2      1e81           move.b d1, (a7)
           0x007502d4      48780000       pea.l 0x0
           0x007502d8      4280           clr.l d0
           0x007502da      1011           move.b (a1), d0
           0x007502dc      2f00           move.l d0, -(a7)
           0x007502de      4eb9004a5a2a   jsr MENUKEYBDCOM.set_cursor_pos
           0x007502e4      defc000a       adda.w 0xa, a7
           0x007502e8      4cdf0703       movem.l (a7)+, d0-d1/a0-a2
           0x007502ec      4e5e           unlk a6
           0x007502ee      4e75           rts
 148: MENULIBCOM.set_retitle_num ();
           0x007502f0      4e56ffc8       link.w a6, 0xffc8
           0x007502f4      bfd5           cmpa.l (a5), a7
       < 0x007502f6      6206           bhi.b 0x7502fe
          0x007502f8      44fc0002       move.w 0x2, ccr
          0x007502fc      4e76           trapv
       > 0x007502fe      defc0034       adda.w 0x34, a7
           0x00750302      48e7e8e0       movem.l d0-d2/d4/a0-a2, -(a7)
           0x00750306      45eefffc       lea.l -0x4(a6), a2
           0x0075030a      740a           moveq 0xa, d2
           0x0075030c      2f2e000a       move.l 0xa(a6), -(a7)
           0x00750310      1f2e0008       move.b 0x8(a6), -(a7)
           0x00750314      4852           pea.l (a2)
           0x00750316      4eb90064924e   jsr K9_LIBRARY.k9_read_number
           0x0075031c      dec2           adda.w d2, a7
           0x0075031e      10390086d27e   move.b 0x86d27e, d0
           0x00750324      4880           ext.w d0
           0x00750326      41bc0002       chk.w 0x2, d0
           0x0075032a      c1fc05d4       muls.w 0x5d4, d0
           0x0075032e      41f90086d27a   lea.l 0x86d27a, a0
           0x00750334      43f00046       lea.l 0x46(a0, d0.w), a1
           0x00750338      3f290520       move.w 0x520(a1), -(a7)
           0x0075033c      4227           clr.b -(a7)
           0x0075033e      2212           move.l (a2), d1
           0x00750340      0c817fffffff   cmpi.l 0x7fffffff, d1
       < 0x00750346      6602           bne.b 0x75034a
          0x00750348      5217           addq.b 0x1, (a7)
       > 0x0075034a      4eb900483776   jsr MENUCOM.swtch_box
           0x00750350      584f           addq.w 0x4, a7
           0x00750352      2212           move.l (a2), d1
           0x00750354      0c817fffffff   cmpi.l 0x7fffffff, d1
       < 0x0075035a      6720           beq.b 0x75037c
          0x0075035c      43f00046       lea.l 0x46(a0, d0.w), a1
          0x00750360      3f290522       move.w 0x522(a1), -(a7)
          0x00750364      2801           move.l d1, d4
          0x00750366      4eb900408686   jsr fcn.00408686
          0x0075036c      2f04           move.l d4, -(a7)
          0x0075036e      4227           clr.b -(a7)
          0x00750370      1f3c0001       move.b 0x1, -(a7)
          0x00750374      4eb90048da84   jsr MENU2COM.set_numeric_val
          0x0075037a      dec2           adda.w d2, a7
       > 0x0075037c      4cdf0717       movem.l (a7)+, d0-d2/d4/a0-a2
           0x00750380      4e5e           unlk a6
           0x00750382      4e75           rts
 168: MENULIBCOM.set_skls_number ();
           0x00750384      4e56ffc6       link.w a6, 0xffc6
           0x00750388      bfd5           cmpa.l (a5), a7
       < 0x0075038a      6206           bhi.b 0x750392
          0x0075038c      44fc0002       move.w 0x2, ccr
          0x00750390      4e76           trapv
       > 0x00750392      defc0036       adda.w 0x36, a7
           0x00750396      48e7e8e0       movem.l d0-d2/d4/a0-a2, -(a7)
           0x0075039a      45eefffc       lea.l -0x4(a6), a2
           0x0075039e      1f2e000a       move.b 0xa(a6), -(a7)
           0x007503a2      1f2e0008       move.b 0x8(a6), -(a7)
           0x007503a6      4852           pea.l (a2)
           0x007503a8      4eb900661772   jsr K95_CARDS.k9_get_number
           0x007503ae      504f           addq.w 0x8, a7
           0x007503b0      10390086d27e   move.b 0x86d27e, d0
           0x007503b6      4880           ext.w d0
           0x007503b8      41bc0002       chk.w 0x2, d0
           0x007503bc      c1fc05d4       muls.w 0x5d4, d0
           0x007503c0      41f90086d27a   lea.l 0x86d27a, a0
           0x007503c6      122e000a       move.b 0xa(a6), d1
           0x007503ca      4881           ext.w d1
           0x007503cc      e341           asl.w 0x1, d1
           0x007503ce      43f00046       lea.l 0x46(a0, d0.w), a1
           0x007503d2      2f09           move.l a1, -(a7)
           0x007503d4      43f11000       lea.l (a1, d1.w), a1
           0x007503d8      3f290524       move.w 0x524(a1), -(a7)
           0x007503dc      4227           clr.b -(a7)
           0x007503de      2412           move.l (a2), d2
           0x007503e0      0c827fffffff   cmpi.l 0x7fffffff, d2
       < 0x007503e6      6602           bne.b 0x7503ea
          0x007503e8      5217           addq.b 0x1, (a7)
       > 0x007503ea      4eb900483776   jsr MENUCOM.swtch_box
           0x007503f0      584f           addq.w 0x4, a7
           0x007503f2      2412           move.l (a2), d2
           0x007503f4      0c827fffffff   cmpi.l 0x7fffffff, d2
       < 0x007503fa      6604           bne.b 0x750400
          0x007503fc      584f           addq.w 0x4, a7
      < 0x007503fe      6024           bra.b 0x750424
      > 0x00750400      2257           movea.l (a7), a1
          0x00750402      43f11000       lea.l (a1, d1.w), a1
          0x00750406      3f29052c       move.w 0x52c(a1), -(a7)
          0x0075040a      2812           move.l (a2), d4
          0x0075040c      4eb900408686   jsr fcn.00408686
          0x00750412      2f04           move.l d4, -(a7)
          0x00750414      4227           clr.b -(a7)
          0x00750416      1f3c0001       move.b 0x1, -(a7)
          0x0075041a      4eb90048da84   jsr MENU2COM.set_numeric_val
          0x00750420      defc000e       adda.w 0xe, a7
      > 0x00750424      4cdf0717       movem.l (a7)+, d0-d2/d4/a0-a2
           0x00750428      4e5e           unlk a6
           0x0075042a      4e75           rts
 104: MENULIBCOM.set_retitle_dat ();
           0x0075042c      4e56ffd4       link.w a6, 0xffd4
           0x00750430      bfd5           cmpa.l (a5), a7
       < 0x00750432      6206           bhi.b 0x75043a
          0x00750434      44fc0002       move.w 0x2, ccr
          0x00750438      4e76           trapv
       > 0x0075043a      defc0024       adda.w 0x24, a7
           0x0075043e      48e780c0       movem.l d0/a0-a1, -(a7)
           0x00750442      2f2e000a       move.l 0xa(a6), -(a7)
           0x00750446      1f2e0008       move.b 0x8(a6), -(a7)
           0x0075044a      486efff8       pea.l -0x8(a6)
           0x0075044e      4eb900648e3a   jsr K9_LIBRARY.k9_read_time
           0x00750454      defc000a       adda.w 0xa, a7
           0x00750458      10390086d27e   move.b 0x86d27e, d0
           0x0075045e      4880           ext.w d0
           0x00750460      41bc0002       chk.w 0x2, d0
           0x00750464      c1fc05d4       muls.w 0x5d4, d0
           0x00750468      41f90086d27a   lea.l 0x86d27a, a0
           0x0075046e      43f00046       lea.l 0x46(a0, d0.w), a1
           0x00750472      3f290598       move.w 0x598(a1), -(a7)
           0x00750476      2f2efffc       move.l -0x4(a6), -(a7)
           0x0075047a      2f2efff8       move.l -0x8(a6), -(a7)
           0x0075047e      4227           clr.b -(a7)
           0x00750480      1f3c0001       move.b 0x1, -(a7)
           0x00750484      4ebae8d0       jsr MENULIBCOM.set_time_value(pc)
           0x00750488      defc000e       adda.w 0xe, a7
           0x0075048c      4cdf0301       movem.l (a7)+, d0/a0-a1
           0x00750490      4e5e           unlk a6
           0x00750492      4e75           rts
 114: MENULIBCOM.set_skls_date_b ();
           0x00750494      4e56ffd0       link.w a6, 0xffd0
           0x00750498      bfd5           cmpa.l (a5), a7
       < 0x0075049a      6206           bhi.b 0x7504a2
          0x0075049c      44fc0002       move.w 0x2, ccr
          0x007504a0      4e76           trapv
       > 0x007504a2      defc0028       adda.w 0x28, a7
           0x007504a6      48e7c0c0       movem.l d0-d1/a0-a1, -(a7)
           0x007504aa      1f2e000a       move.b 0xa(a6), -(a7)
           0x007504ae      1f2e0008       move.b 0x8(a6), -(a7)
           0x007504b2      486efff8       pea.l -0x8(a6)
           0x007504b6      4eb900661ede   jsr K95_CARDS.k9_get_time
           0x007504bc      504f           addq.w 0x8, a7
           0x007504be      10390086d27e   move.b 0x86d27e, d0
           0x007504c4      4880           ext.w d0
           0x007504c6      41bc0002       chk.w 0x2, d0
           0x007504ca      c1fc05d4       muls.w 0x5d4, d0
           0x007504ce      41f90086d27a   lea.l 0x86d27a, a0
           0x007504d4      122e000a       move.b 0xa(a6), d1
           0x007504d8      4881           ext.w d1
           0x007504da      e341           asl.w 0x1, d1
           0x007504dc      43f00046       lea.l 0x46(a0, d0.w), a1
           0x007504e0      43f11000       lea.l (a1, d1.w), a1
           0x007504e4      3f29059e       move.w 0x59e(a1), -(a7)
           0x007504e8      2f2efffc       move.l -0x4(a6), -(a7)
           0x007504ec      2f2efff8       move.l -0x8(a6), -(a7)
           0x007504f0      4227           clr.b -(a7)
           0x007504f2      1f3c0001       move.b 0x1, -(a7)
           0x007504f6      4ebae85e       jsr MENULIBCOM.set_time_value(pc)
           0x007504fa      defc000e       adda.w 0xe, a7
           0x007504fe      4cdf0303       movem.l (a7)+, d0-d1/a0-a1
           0x00750502      4e5e           unlk a6
           0x00750504      4e75           rts
 146: MENULIBCOM.set_skls_types_ ();
           0x00750506      4e56ffc0       link.w a6, 0xffc0
           0x0075050a      bfd5           cmpa.l (a5), a7
       < 0x0075050c      6206           bhi.b 0x750514
          0x0075050e      44fc0002       move.w 0x2, ccr
          0x00750512      4e76           trapv
       > 0x00750514      defc0038       adda.w 0x38, a7
           0x00750518      48e7e1e0       movem.l d0-d2/d7/a0-a2, -(a7)
           0x0075051c      4a390086d27f   tst.b 0x86d27f
       < 0x00750522      666c           bne.b 0x750590
          0x00750524      1f2e000a       move.b 0xa(a6), -(a7)
          0x00750528      1f2e0008       move.b 0x8(a6), -(a7)
          0x0075052c      486efff8       pea.l -0x8(a6)
          0x00750530      4eb900661016   jsr K95_CARDS.k9_get_type_set
          0x00750536      504f           addq.w 0x8, a7
          0x00750538      10390086d27e   move.b 0x86d27e, d0
          0x0075053e      4880           ext.w d0
          0x00750540      41bc0002       chk.w 0x2, d0
          0x00750544      c1fc05d4       muls.w 0x5d4, d0
          0x00750548      41f90086d27a   lea.l 0x86d27a, a0
          0x0075054e      122e000a       move.b 0xa(a6), d1
          0x00750552      4881           ext.w d1
          0x00750554      c3fc005c       muls.w 0x5c, d1
          0x00750558      43f00046       lea.l 0x46(a0, d0.w), a1
          0x0075055c      7e02           moveq 0x2, d7
      > 0x0075055e      4887           ext.w d7
         0x00750560      3407           move.w d7, d2
         0x00750562      e342           asl.w 0x1, d2
         0x00750564      45f11000       lea.l (a1, d1.w), a2
         0x00750568      45f22000       lea.l (a2, d2.w), a2
         0x0075056c      3f2a010c       move.w 0x10c(a2), -(a7)
         0x00750570      4227           clr.b -(a7)
         0x00750572      4887           ext.w d7
         0x00750574      3407           move.w d7, d2
         0x00750576      e64a           lsr.w 0x3, d2
         0x00750578      0f3620f8       btst.l d7, -0x8(a6, d2.w)
     < 0x0075057c      6702           beq.b 0x750580
        0x0075057e      5217           addq.b 0x1, (a7)
     > 0x00750580      4eb900483776   jsr MENUCOM.swtch_box
         0x00750586      584f           addq.w 0x4, a7
         0x00750588      5207           addq.b 0x1, d7
         0x0075058a      0c07002d       cmpi.b 0x2d, d7
      < 0x0075058e      6fce           ble.b 0x75055e
       > 0x00750590      4cdf0787       movem.l (a7)+, d0-d2/d7/a0-a2
           0x00750594      4e5e           unlk a6
           0x00750596      4e75           rts
 126: MENULIBCOM.set_retitle_typ ();
           0x00750598      4e56ffd6       link.w a6, 0xffd6
           0x0075059c      bfd5           cmpa.l (a5), a7
       < 0x0075059e      6206           bhi.b 0x7505a6
          0x007505a0      44fc0002       move.w 0x2, ccr
          0x007505a4      4e76           trapv
       > 0x007505a6      defc0022       adda.w 0x22, a7
           0x007505aa      48e7c1c0       movem.l d0-d1/d7/a0-a1, -(a7)
           0x007505ae      2f2e000a       move.l 0xa(a6), -(a7)
           0x007505b2      1f2e0008       move.b 0x8(a6), -(a7)
           0x007505b6      486efff8       pea.l -0x8(a6)
           0x007505ba      4eb90064900c   jsr K9_LIBRARY.k9_read_type
           0x007505c0      defc000a       adda.w 0xa, a7
           0x007505c4      10390086d27e   move.b 0x86d27e, d0
           0x007505ca      4880           ext.w d0
           0x007505cc      41bc0002       chk.w 0x2, d0
           0x007505d0      c1fc05d4       muls.w 0x5d4, d0
           0x007505d4      41f90086d27a   lea.l 0x86d27a, a0
           0x007505da      7e02           moveq 0x2, d7
       > 0x007505dc      4887           ext.w d7
          0x007505de      3207           move.w d7, d1
          0x007505e0      e341           asl.w 0x1, d1
          0x007505e2      43f00046       lea.l 0x46(a0, d0.w), a1
          0x007505e6      43f11000       lea.l (a1, d1.w), a1
          0x007505ea      3f2902a6       move.w 0x2a6(a1), -(a7)
          0x007505ee      4227           clr.b -(a7)
          0x007505f0      4887           ext.w d7
          0x007505f2      3207           move.w d7, d1
          0x007505f4      e649           lsr.w 0x3, d1
          0x007505f6      0f3610f8       btst.l d7, -0x8(a6, d1.w)
      < 0x007505fa      6702           beq.b 0x7505fe
         0x007505fc      5217           addq.b 0x1, (a7)
      > 0x007505fe      4eb900483776   jsr MENUCOM.swtch_box
          0x00750604      584f           addq.w 0x4, a7
          0x00750606      5207           addq.b 0x1, d7
          0x00750608      0c07002d       cmpi.b 0x2d, d7
       < 0x0075060c      6fce           ble.b 0x7505dc
           0x0075060e      4cdf0383       movem.l (a7)+, d0-d1/d7/a0-a1
           0x00750612      4e5e           unlk a6
           0x00750614      4e75           rts
            0x00750616      4e56ffae       link.w a6, 0xffae
            0x0075061a      bfd5           cmpa.l (a5), a7
        < 0x0075061c      6206           bhi.b 0x750624
           0x0075061e      44fc0002       move.w 0x2, ccr
           0x00750622      4e76           trapv
        > 0x00750624      defc004a       adda.w 0x4a, a7
            0x00750628      48e7fef8       movem.l d0-d6/a0-a4, -(a7)
            0x0075062c      45eefff8       lea.l -0x8(a6), a2
            0x00750630      47eefffc       lea.l -0x4(a6), a3
            0x00750634      49f900483776   lea.l MENUCOM.swtch_box, a4
            0x0075063a      263c7fffffff   move.l 0x7fffffff, d3
            0x00750640      7a01           moveq 0x1, d5
            0x00750642      7c0a           moveq 0xa, d6
            0x00750644      1f2e000a       move.b 0xa(a6), -(a7)
            0x00750648      1f2e0008       move.b 0x8(a6), -(a7)
            0x0075064c      4852           pea.l (a2)
            0x0075064e      4853           pea.l (a3)
            0x00750650      4eb900661660   jsr K95_CARDS.k9_get_2numbers
            0x00750656      defc000c       adda.w 0xc, a7
            0x0075065a      10390086d27e   move.b 0x86d27e, d0
            0x00750660      4880           ext.w d0
            0x00750662      41bc0002       chk.w 0x2, d0
            0x00750666      c1fc05d4       muls.w 0x5d4, d0
            0x0075066a      41f90086d27a   lea.l 0x86d27a, a0
            0x00750670      122e000a       move.b 0xa(a6), d1
            0x00750674      4881           ext.w d1
            0x00750676      c3fc0018       muls.w 0x18, d1
            0x0075067a      43f00046       lea.l 0x46(a0, d0.w), a1
            0x0075067e      2f09           move.l a1, -(a7)
            0x00750680      43f11000       lea.l (a1, d1.w), a1
            0x00750684      3f2904ac       move.w 0x4ac(a1), -(a7)
            0x00750688      4227           clr.b -(a7)
            0x0075068a      2412           move.l (a2), d2
            0x0075068c      b483           cmp.l d3, d2
        < 0x0075068e      6602           bne.b 0x750692
           0x00750690      5217           addq.b 0x1, (a7)
        > 0x00750692      4e94           jsr (a4)                    ; fcn.0000000d
            0x00750694      584f           addq.w 0x4, a7
            0x00750696      2412           move.l (a2), d2
            0x00750698      b483           cmp.l d3, d2
        < 0x0075069a      6720           beq.b 0x7506bc
           0x0075069c      2257           movea.l (a7), a1
           0x0075069e      43f11000       lea.l (a1, d1.w), a1
           0x007506a2      3f2904a8       move.w 0x4a8(a1), -(a7)
           0x007506a6      2812           move.l (a2), d4
           0x007506a8      4eb900408686   jsr fcn.00408686
           0x007506ae      2f04           move.l d4, -(a7)
           0x007506b0      4227           clr.b -(a7)
           0x007506b2      1f05           move.b d5, -(a7)
           0x007506b4      4eb90048da84   jsr MENU2COM.set_numeric_val
           0x007506ba      dec6           adda.w d6, a7
        > 0x007506bc      2257           movea.l (a7), a1
            0x007506be      43f11000       lea.l (a1, d1.w), a1
            0x007506c2      3f2904ae       move.w 0x4ae(a1), -(a7)
            0x007506c6      4227           clr.b -(a7)
            0x007506c8      2413           move.l (a3), d2
            0x007506ca      b483           cmp.l d3, d2
        < 0x007506cc      6602           bne.b 0x7506d0
           0x007506ce      5217           addq.b 0x1, (a7)
        > 0x007506d0      4e94           jsr (a4)                    ; fcn.0000000d
            0x007506d2      584f           addq.w 0x4, a7
            0x007506d4      2413           move.l (a3), d2
            0x007506d6      b483           cmp.l d3, d2
        < 0x007506d8      6720           beq.b 0x7506fa
           0x007506da      2257           movea.l (a7), a1
           0x007506dc      43f11000       lea.l (a1, d1.w), a1
           0x007506e0      3f2904aa       move.w 0x4aa(a1), -(a7)
           0x007506e4      2813           move.l (a3), d4
           0x007506e6      4eb900408686   jsr fcn.00408686
           0x007506ec      2f04           move.l d4, -(a7)
           0x007506ee      4227           clr.b -(a7)
           0x007506f0      1f05           move.b d5, -(a7)
           0x007506f2      4eb90048da84   jsr MENU2COM.set_numeric_val
           0x007506f8      dec6           adda.w d6, a7
        > 0x007506fa      2257           movea.l (a7), a1
            0x007506fc      43f11000       lea.l (a1, d1.w), a1
            0x00750700      3f2904b6       move.w 0x4b6(a1), -(a7)
            0x00750704      4227           clr.b -(a7)
            0x00750706      2412           move.l (a2), d2
            0x00750708      b483           cmp.l d3, d2
        < 0x0075070a      6602           bne.b 0x75070e
           0x0075070c      5217           addq.b 0x1, (a7)
        > 0x0075070e      4e94           jsr (a4)                    ; fcn.0000000d
            0x00750710      584f           addq.w 0x4, a7
            0x00750712      2412           move.l (a2), d2
            0x00750714      b483           cmp.l d3, d2
        < 0x00750716      6604           bne.b 0x75071c
           0x00750718      584f           addq.w 0x4, a7
       < 0x0075071a      6022           bra.b 0x75073e
       > 0x0075071c      2257           movea.l (a7), a1
           0x0075071e      43f11000       lea.l (a1, d1.w), a1
           0x00750722      3f2904b8       move.w 0x4b8(a1), -(a7)
           0x00750726      2812           move.l (a2), d4
           0x00750728      4eb900408686   jsr fcn.00408686
           0x0075072e      2f04           move.l d4, -(a7)
           0x00750730      4227           clr.b -(a7)
           0x00750732      1f05           move.b d5, -(a7)
           0x00750734      4eb90048da84   jsr MENU2COM.set_numeric_val
           0x0075073a      defc000e       adda.w 0xe, a7
       > 0x0075073e      4cdf1f7f       movem.l (a7)+, d0-d6/a0-a4
            0x00750742      4e5e           unlk a6
            0x00750744      4e75           rts
            0x00750746      4e56ffb0       link.w a6, 0xffb0
            0x0075074a      bfd5           cmpa.l (a5), a7
        < 0x0075074c      6206           bhi.b 0x750754
           0x0075074e      44fc0002       move.w 0x2, ccr
           0x00750752      4e76           trapv
        > 0x00750754      defc0048       adda.w 0x48, a7
            0x00750758      48e7fef8       movem.l d0-d6/a0-a4, -(a7)
            0x0075075c      45eefffc       lea.l -0x4(a6), a2
            0x00750760      47eefff8       lea.l -0x8(a6), a3
            0x00750764      49f900483776   lea.l MENUCOM.swtch_box, a4
            0x0075076a      263c7fffffff   move.l 0x7fffffff, d3
            0x00750770      7a01           moveq 0x1, d5
            0x00750772      7c0a           moveq 0xa, d6
            0x00750774      2f2e000a       move.l 0xa(a6), -(a7)
            0x00750778      1f2e0008       move.b 0x8(a6), -(a7)
            0x0075077c      4853           pea.l (a3)
            0x0075077e      4852           pea.l (a2)
            0x00750780      4eb900649338   jsr K9_LIBRARY.k9_read_2number
            0x00750786      defc000e       adda.w 0xe, a7
            0x0075078a      10390086d27e   move.b 0x86d27e, d0
            0x00750790      4880           ext.w d0
            0x00750792      41bc0002       chk.w 0x2, d0
            0x00750796      c1fc05d4       muls.w 0x5d4, d0
            0x0075079a      41f90086d27a   lea.l 0x86d27a, a0
            0x007507a0      43f00046       lea.l 0x46(a0, d0.w), a1
            0x007507a4      3f29050c       move.w 0x50c(a1), -(a7)
            0x007507a8      4227           clr.b -(a7)
            0x007507aa      2213           move.l (a3), d1
            0x007507ac      b283           cmp.l d3, d1
        < 0x007507ae      6602           bne.b 0x7507b2
           0x007507b0      5217           addq.b 0x1, (a7)
        > 0x007507b2      4e94           jsr (a4)                    ; fcn.0000000d
            0x007507b4      584f           addq.w 0x4, a7
            0x007507b6      2213           move.l (a3), d1
            0x007507b8      b283           cmp.l d3, d1
        < 0x007507ba      671e           beq.b 0x7507da
           0x007507bc      43f00046       lea.l 0x46(a0, d0.w), a1
           0x007507c0      3f290508       move.w 0x508(a1), -(a7)
           0x007507c4      2801           move.l d1, d4
           0x007507c6      4eb900408686   jsr fcn.00408686
           0x007507cc      2f04           move.l d4, -(a7)
           0x007507ce      4227           clr.b -(a7)
           0x007507d0      1f05           move.b d5, -(a7)
           0x007507d2      4eb90048da84   jsr MENU2COM.set_numeric_val
           0x007507d8      dec6           adda.w d6, a7
        > 0x007507da      43f00046       lea.l 0x46(a0, d0.w), a1
            0x007507de      3f29050e       move.w 0x50e(a1), -(a7)
            0x007507e2      4227           clr.b -(a7)
            0x007507e4      2412           move.l (a2), d2
            0x007507e6      b483           cmp.l d3, d2
        < 0x007507e8      6602           bne.b 0x7507ec
           0x007507ea      5217           addq.b 0x1, (a7)
        > 0x007507ec      4e94           jsr (a4)                    ; fcn.0000000d
            0x007507ee      584f           addq.w 0x4, a7
            0x007507f0      2412           move.l (a2), d2
            0x007507f2      b483           cmp.l d3, d2
        < 0x007507f4      671e           beq.b 0x750814
           0x007507f6      43f00046       lea.l 0x46(a0, d0.w), a1
           0x007507fa      3f29050a       move.w 0x50a(a1), -(a7)
           0x007507fe      2812           move.l (a2), d4
           0x00750800      4eb900408686   jsr fcn.00408686
           0x00750806      2f04           move.l d4, -(a7)
           0x00750808      4227           clr.b -(a7)
           0x0075080a      1f05           move.b d5, -(a7)
           0x0075080c      4eb90048da84   jsr MENU2COM.set_numeric_val
           0x00750812      dec6           adda.w d6, a7
        > 0x00750814      43f00046       lea.l 0x46(a0, d0.w), a1
            0x00750818      3f290516       move.w 0x516(a1), -(a7)
            0x0075081c      4227           clr.b -(a7)
            0x0075081e      b283           cmp.l d3, d1
        < 0x00750820      6602           bne.b 0x750824
           0x00750822      5217           addq.b 0x1, (a7)
        > 0x00750824      4e94           jsr (a4)                    ; fcn.0000000d
            0x00750826      584f           addq.w 0x4, a7
            0x00750828      b283           cmp.l d3, d1
        < 0x0075082a      671e           beq.b 0x75084a
           0x0075082c      43f00046       lea.l 0x46(a0, d0.w), a1
           0x00750830      3f290518       move.w 0x518(a1), -(a7)
           0x00750834      2801           move.l d1, d4
           0x00750836      4eb900408686   jsr fcn.00408686
           0x0075083c      2f04           move.l d4, -(a7)
           0x0075083e      4227           clr.b -(a7)
           0x00750840      1f05           move.b d5, -(a7)
           0x00750842      4eb90048da84   jsr MENU2COM.set_numeric_val
           0x00750848      dec6           adda.w d6, a7
        > 0x0075084a      4cdf1f7f       movem.l (a7)+, d0-d6/a0-a4
            0x0075084e      4e5e           unlk a6
            0x00750850      4e75           rts
 178: MENULIBCOM.set_skls_dates_ ();
           0x00750852      4e56ffb2       link.w a6, 0xffb2
           0x00750856      bfd5           cmpa.l (a5), a7
       < 0x00750858      6206           bhi.b 0x750860
          0x0075085a      44fc0002       move.w 0x2, ccr
          0x0075085e      4e76           trapv
       > 0x00750860      defc003e       adda.w 0x3e, a7
           0x00750864      48e7f0f0       movem.l d0-d3/a0-a3, -(a7)
           0x00750868      45eefff0       lea.l -0x10(a6), a2
           0x0075086c      47fae4e8       lea.l MENULIBCOM.set_time_value(pc), a3
           0x00750870      7401           moveq 0x1, d2
           0x00750872      760e           moveq 0xe, d3
           0x00750874      1f2e000a       move.b 0xa(a6), -(a7)
           0x00750878      1f2e0008       move.b 0x8(a6), -(a7)
           0x0075087c      4852           pea.l (a2)
           0x0075087e      486efff8       pea.l -0x8(a6)
           0x00750882      4eb900661dde   jsr K95_CARDS.k9_get_2times
           0x00750888      defc000c       adda.w 0xc, a7
           0x0075088c      10390086d27e   move.b 0x86d27e, d0
           0x00750892      4880           ext.w d0
           0x00750894      41bc0002       chk.w 0x2, d0
           0x00750898      c1fc05d4       muls.w 0x5d4, d0
           0x0075089c      41f90086d27a   lea.l 0x86d27a, a0
           0x007508a2      122e000a       move.b 0xa(a6), d1
           0x007508a6      4881           ext.w d1
           0x007508a8      c3fc0014       muls.w 0x14, d1
           0x007508ac      43f00046       lea.l 0x46(a0, d0.w), a1
           0x007508b0      2f09           move.l a1, -(a7)
           0x007508b2      43f11000       lea.l (a1, d1.w), a1
           0x007508b6      3f290534       move.w 0x534(a1), -(a7)
           0x007508ba      2f2efff4       move.l -0xc(a6), -(a7)
           0x007508be      2f12           move.l (a2), -(a7)
           0x007508c0      4227           clr.b -(a7)
           0x007508c2      1f02           move.b d2, -(a7)
           0x007508c4      4e93           jsr (a3)                    ; fcn.0000000c
           0x007508c6      dec3           adda.w d3, a7
           0x007508c8      2257           movea.l (a7), a1
           0x007508ca      43f11000       lea.l (a1, d1.w), a1
           0x007508ce      3f290536       move.w 0x536(a1), -(a7)
           0x007508d2      2f2efffc       move.l -0x4(a6), -(a7)
           0x007508d6      2f2efff8       move.l -0x8(a6), -(a7)
           0x007508da      4227           clr.b -(a7)
           0x007508dc      1f02           move.b d2, -(a7)
           0x007508de      4e93           jsr (a3)                    ; fcn.0000000c
           0x007508e0      dec3           adda.w d3, a7
           0x007508e2      2257           movea.l (a7), a1
           0x007508e4      43f11000       lea.l (a1, d1.w), a1
           0x007508e8      3f290542       move.w 0x542(a1), -(a7)
           0x007508ec      2f2efff4       move.l -0xc(a6), -(a7)
           0x007508f0      2f12           move.l (a2), -(a7)
           0x007508f2      4227           clr.b -(a7)
           0x007508f4      1f02           move.b d2, -(a7)
           0x007508f6      4e93           jsr (a3)                    ; fcn.0000000c
           0x007508f8      defc0012       adda.w 0x12, a7
           0x007508fc      4cdf0f0f       movem.l (a7)+, d0-d3/a0-a3
           0x00750900      4e5e           unlk a6
           0x00750902      4e75           rts
            0x00750904      4e56ffbc       link.w a6, 0xffbc
            0x00750908      bfd5           cmpa.l (a5), a7
        < 0x0075090a      6206           bhi.b 0x750912
           0x0075090c      44fc0002       move.w 0x2, ccr
           0x00750910      4e76           trapv
        > 0x00750912      defc0034       adda.w 0x34, a7
            0x00750916      48e7e0f0       movem.l d0-d2/a0-a3, -(a7)
            0x0075091a      45eefff0       lea.l -0x10(a6), a2
            0x0075091e      47fae436       lea.l MENULIBCOM.set_time_value(pc), a3
            0x00750922      720e           moveq 0xe, d1
            0x00750924      7401           moveq 0x1, d2
            0x00750926      2f2e000a       move.l 0xa(a6), -(a7)
            0x0075092a      1f2e0008       move.b 0x8(a6), -(a7)
            0x0075092e      4852           pea.l (a2)
            0x00750930      486efff8       pea.l -0x8(a6)
            0x00750934      4eb900648f34   jsr K9_LIBRARY.k9_read_2times
            0x0075093a      dec1           adda.w d1, a7
            0x0075093c      10390086d27e   move.b 0x86d27e, d0
            0x00750942      4880           ext.w d0
            0x00750944      41bc0002       chk.w 0x2, d0
            0x00750948      c1fc05d4       muls.w 0x5d4, d0
            0x0075094c      41f90086d27a   lea.l 0x86d27a, a0
            0x00750952      43f00046       lea.l 0x46(a0, d0.w), a1
            0x00750956      3f290584       move.w 0x584(a1), -(a7)
            0x0075095a      2f2efff4       move.l -0xc(a6), -(a7)
            0x0075095e      2f12           move.l (a2), -(a7)
            0x00750960      4227           clr.b -(a7)
            0x00750962      1f02           move.b d2, -(a7)
            0x00750964      4e93           jsr (a3)                    ; fcn.0000000c
            0x00750966      dec1           adda.w d1, a7
            0x00750968      43f00046       lea.l 0x46(a0, d0.w), a1
            0x0075096c      3f290586       move.w 0x586(a1), -(a7)
            0x00750970      2f2efffc       move.l -0x4(a6), -(a7)
            0x00750974      2f2efff8       move.l -0x8(a6), -(a7)
            0x00750978      4227           clr.b -(a7)
            0x0075097a      1f02           move.b d2, -(a7)
            0x0075097c      4e93           jsr (a3)                    ; fcn.0000000c
            0x0075097e      dec1           adda.w d1, a7
            0x00750980      43f00046       lea.l 0x46(a0, d0.w), a1
            0x00750984      3f290592       move.w 0x592(a1), -(a7)
            0x00750988      2f2efff4       move.l -0xc(a6), -(a7)
            0x0075098c      2f12           move.l (a2), -(a7)
            0x0075098e      4227           clr.b -(a7)
            0x00750990      1f02           move.b d2, -(a7)
            0x00750992      4e93           jsr (a3)                    ; fcn.0000000c
            0x00750994      dec1           adda.w d1, a7
            0x00750996      4cdf0f07       movem.l (a7)+, d0-d2/a0-a3
            0x0075099a      4e5e           unlk a6
            0x0075099c      4e75           rts
            ; CALL XREF from MENULIBCOM.handle_skls_sel @ 0x750c4c
            ; CALL XREF from MENULIBCOM.hit_save_select @ 0x750f10
            ; CALL XREF from MENULIBCOM @ +0x49d6
 78: MENULIBCOM.select_skls_fie ();
           0x0075099e      4e56ffc8       link.w a6, 0xffc8
           0x007509a2      bfd5           cmpa.l (a5), a7
       < 0x007509a4      6206           bhi.b 0x7509ac
          0x007509a6      44fc0002       move.w 0x2, ccr
          0x007509aa      4e76           trapv
       > 0x007509ac      defc0036       adda.w 0x36, a7
           0x007509b0      48e7f9f0       movem.l d0-d4/d7/a0-a3, -(a7)
           0x007509b4      45ee000a       lea.l 0xa(a6), a2
           0x007509b8      47ee0008       lea.l 0x8(a6), a3
           0x007509bc      7601           moveq 0x1, d3
           0x007509be      780b           moveq 0xb, d4
           0x007509c0      554f           subq.w 0x2, a7
           0x007509c2      1f12           move.b (a2), -(a7)
           0x007509c4      1f03           move.b d3, -(a7)
           0x007509c6      1f13           move.b (a3), -(a7)
           0x007509c8      4eb900663be6   jsr K95_CARDS.k9_spec_type_fi
           0x007509ce      5c4f           addq.w 0x6, a7
           0x007509d0      101f           move.b (a7)+, d0
           0x007509d2      4880           ext.w d0
           0x007509d4      4184           chk.w d4, d0
           0x007509d6      1e00           move.b d0, d7
           0x007509d8      4887           ext.w d7
           0x007509da      3007           move.w d7, d0
           0x007509dc      b044           cmp.w d4, d0
       < 0x007509de      6302           bls.b 0x7509e2
          0x007509e0      4e4e           trap 0xe
       > 0x007509e2      d040           add.w d0, d0
           0x007509e4      303b0006       move.w 0x7509ec(pc, d0.w), d0
           0x007509e8      4efb0002       jmp 0x7509ec(pc, d0.w)
            0x007509ec      0018fff4       ori.b 0xf4, (a0)+
            0x007509f0      001a001c       ori.b 0x1c, (a2)+
            0x007509f4      fff4           invalid
            0x007509f6      001efff4       ori.b 0xf4, (a6)+
            0x007509fa      002a0034003e   ori.b 0x34, 0x3e(a2)
            0x00750a00      00480052       
            0x00750a01      4800           nbcd.b d0
            0x00750a03      5260           addq.w 0x1, -(a0)
            0x00750a05      4260           clr.w -(a0)
            0x00750a07      4060           negx.w -(a0)
            0x00750a09      3e1f           move.w (a7)+, d7
            0x00750a0b      121f           move.b (a7)+, d1
            0x00750a0d      134ebafa       
            0x00750a0e      4ebafaf6       jsr MENULIBCOM.set_skls_types_(pc)
    > 0x00750a12      584f           addq.w 0x4, a7
   < 0x00750a14      6032           bra.b 0x750a48
      0x00750a16      1f12           move.b (a2), -(a7)
      0x00750a18      1f13           move.b (a3), -(a7)
      0x00750a1a      4ebad378       jsr MENULIBCOM.set_skls_disks_(pc)
   < 0x00750a1e      60f2           bra.b 0x750a12
       0x00750a20      1f12           move.b (a2), -(a7)
       0x00750a22      1f13           move.b (a3), -(a7)
       0x00750a24      4ebaf95e       jsr MENULIBCOM.set_skls_number(pc)
    < 0x00750a28      60e8           bra.b 0x750a12
        0x00750a2a      1f12           move.b (a2), -(a7)
        0x00750a2c      1f13           move.b (a3), -(a7)
        0x00750a2e      4ebafbe6       jsr 0x750616(pc)
     < 0x00750a32      60de           bra.b 0x750a12
         0x00750a34      1f12           move.b (a2), -(a7)
         0x00750a36      1f13           move.b (a3), -(a7)
         0x00750a38      4ebafa5a       jsr MENULIBCOM.set_skls_date_b(pc)
      < 0x00750a3c      60d4           bra.b 0x750a12
          0x00750a3e      1f12           move.b (a2), -(a7)
          0x00750a40      1f13           move.b (a3), -(a7)
          0x00750a42      4ebafe0e       jsr MENULIBCOM.set_skls_dates_(pc)
       < 0x00750a46      60ca           bra.b 0x750a12
   > 0x00750a48      1013           move.b (a3), d0
            0x00750a4a      b003           cmp.b d3, d0
        < 0x00750a4c      660a           bne.b 0x750a58
           0x00750a4e      1f12           move.b (a2), -(a7)
           0x00750a50      1f00           move.b d0, -(a7)
           0x00750a52      4ebad658       jsr MENULIBCOM.set_skls_disk_g(pc)
           0x00750a56      584f           addq.w 0x4, a7
        > 0x00750a58      48780000       pea.l 0x0
            0x00750a5c      1f12           move.b (a2), -(a7)
            0x00750a5e      1f00           move.b d0, -(a7)
            0x00750a60      4eb900662936   jsr K95_CARDS.k9_ch
            0x00750a66      504f           addq.w 0x8, a7
            0x00750a68      10390086d27e   move.b 0x86d27e, d0
            0x00750a6e      4880           ext.w d0
            0x00750a70      41bc0002       chk.w 0x2, d0
            0x00750a74      c1fc05d4       muls.w 0x5d4, d0
            0x00750a78      41f90086d27a   lea.l 0x86d27a, a0
            0x00750a7e      1212           move.b (a2), d1
            0x00750a80      4881           ext.w d1
            0x00750a82      c3fc0018       muls.w 0x18, d1
            0x00750a86      3407           move.w d7, d2
            0x00750a88      e342           asl.w 0x1, d2
            0x00750a8a      43f00046       lea.l 0x46(a0, d0.w), a1
            0x00750a8e      43f11000       lea.l (a1, d1.w), a1
            0x00750a92      43f12000       lea.l (a1, d2.w), a1
            0x00750a96      3f290094       move.w 0x94(a1), -(a7)
            0x00750a9a      4eb9004836a4   jsr MENUCOM.push_box
            0x00750aa0      544f           addq.w 0x2, a7
            0x00750aa2      4cdf0f9f       movem.l (a7)+, d0-d4/d7/a0-a3
            0x00750aa6      4e5e           unlk a6
            0x00750aa8      4e75           rts
            ; CALL XREF from MENULIBCOM.handle_retitle_ @ 0x750cbe
            ; CALL XREF from MENULIBCOM.hit_retitle_sel @ 0x750f8a
            ; CALL XREF from MENULIBCOM @ +0x4b7e
 114: MENULIBCOM.select_retitle_ ();
           0x00750aaa      4e56ffc2       link.w a6, 0xffc2
           0x00750aae      bfd5           cmpa.l (a5), a7
       < 0x00750ab0      6206           bhi.b 0x750ab8
          0x00750ab2      44fc0002       move.w 0x2, ccr
          0x00750ab6      4e76           trapv
       > 0x00750ab8      defc003c       adda.w 0x3c, a7
           0x00750abc      48e7f9f8       movem.l d0-d4/d7/a0-a4, -(a7)
           0x00750ac0      45ee0008       lea.l 0x8(a6), a2
           0x00750ac4      47f90086d27e   lea.l 0x86d27e, a3
           0x00750aca      49f90086d27a   lea.l 0x86d27a, a4
           0x00750ad0      7402           moveq 0x2, d2
           0x00750ad2      363c05d4       move.w 0x5d4, d3
           0x00750ad6      780b           moveq 0xb, d4
           0x00750ad8      1013           move.b (a3), d0
           0x00750ada      4880           ext.w d0
           0x00750adc      4182           chk.w d2, d0
           0x00750ade      c1c3           muls.w d3, d0
           0x00750ae0      554f           subq.w 0x2, a7
           0x00750ae2      204c           movea.l a4, a0
           0x00750ae4      2f30004a       move.l 0x4a(a0, d0.w), -(a7)
           0x00750ae8      1f3c0001       move.b 0x1, -(a7)
           0x00750aec      1f12           move.b (a2), -(a7)
           0x00750aee      4eb90064c324   jsr K9_LIBRARY.k9_info_type_fi
           0x00750af4      504f           addq.w 0x8, a7
           0x00750af6      101f           move.b (a7)+, d0
           0x00750af8      4880           ext.w d0
           0x00750afa      4184           chk.w d4, d0
           0x00750afc      1e00           move.b d0, d7
           0x00750afe      1013           move.b (a3), d0
           0x00750b00      4880           ext.w d0
           0x00750b02      4182           chk.w d2, d0
           0x00750b04      c1c3           muls.w d3, d0
           0x00750b06      204c           movea.l a4, a0
           0x00750b08      4887           ext.w d7
           0x00750b0a      3207           move.w d7, d1
           0x00750b0c      b244           cmp.w d4, d1
       < 0x00750b0e      6302           bls.b 0x750b12
          0x00750b10      4e4e           trap 0xe
       > 0x00750b12      d241           add.w d1, d1
           0x00750b14      323b1006       move.w 0x750b1c(pc, d1.w), d1
           0x00750b18      4efb1002       jmp 0x750b1c(pc, d1.w)
            0x00750b1c      0018fff4       ori.b 0xf4, (a0)+
            0x00750b20      001a001c       ori.b 0x1c, (a2)+
            0x00750b24      fff4           invalid
            0x00750b26      001efff4       ori.b 0xf4, (a6)+
            0x00750b2a      fff4           invalid
            0x00750b2c      002c00380044   ori.b 0x38, 0x44(a4)
            0x00750b32      00506042       ori.w 0x6042, (a0)
        < 0x00750b36      6040           bra.b 0x750b78
       < 0x00750b38      603e           bra.b 0x750b78
          0x00750b3a      2f30004a       move.l 0x4a(a0, d0.w), -(a7)
          0x00750b3e      1f12           move.b (a2), -(a7)
          0x00750b40      4ebafa56       jsr MENULIBCOM.set_retitle_typ(pc)
   > 0x00750b44      5c4f           addq.w 0x6, a7
  < 0x00750b46      6030           bra.b 0x750b78
     0x00750b48      2f30004a       move.l 0x4a(a0, d0.w), -(a7)
     0x00750b4c      1f12           move.b (a2), -(a7)
     0x00750b4e      4ebaf7a0       jsr MENULIBCOM.set_retitle_num(pc)
  < 0x00750b52      60f0           bra.b 0x750b44
      0x00750b54      2f30004a       move.l 0x4a(a0, d0.w), -(a7)
      0x00750b58      1f12           move.b (a2), -(a7)
      0x00750b5a      4ebafbea       jsr 0x750746(pc)
   < 0x00750b5e      60e4           bra.b 0x750b44
       0x00750b60      2f30004a       move.l 0x4a(a0, d0.w), -(a7)
       0x00750b64      1f12           move.b (a2), -(a7)
       0x00750b66      4ebaf8c4       jsr MENULIBCOM.set_retitle_dat(pc)
    < 0x00750b6a      60d8           bra.b 0x750b44
        0x00750b6c      2f30004a       move.l 0x4a(a0, d0.w), -(a7)
        0x00750b70      1f12           move.b (a2), -(a7)
        0x00750b72      4ebafd90       jsr 0x750904(pc)
     < 0x00750b76      60cc           bra.b 0x750b44
  > 0x00750b78      48780000       pea.l 0x0
            0x00750b7c      1f12           move.b (a2), -(a7)
            0x00750b7e      4eb90064b5d8   jsr K9_LIBRARY.k9_ch_retitle
            0x00750b84      5c4f           addq.w 0x6, a7
            0x00750b86      1013           move.b (a3), d0
            0x00750b88      4880           ext.w d0
            0x00750b8a      4182           chk.w d2, d0
            0x00750b8c      c1c3           muls.w d3, d0
            0x00750b8e      204c           movea.l a4, a0
            0x00750b90      4887           ext.w d7
            0x00750b92      3207           move.w d7, d1
            0x00750b94      e341           asl.w 0x1, d1
            0x00750b96      43f00046       lea.l 0x46(a0, d0.w), a1
            0x00750b9a      43f11000       lea.l (a1, d1.w), a1
            0x00750b9e      3f2900f4       move.w 0xf4(a1), -(a7)
            0x00750ba2      4eb9004836a4   jsr MENUCOM.push_box
            0x00750ba8      544f           addq.w 0x2, a7
            0x00750baa      4cdf1f9f       movem.l (a7)+, d0-d4/d7/a0-a4
            0x00750bae      4e5e           unlk a6
            0x00750bb0      4e75           rts
            ; CALL XREF from MENULIBCOM.hit_save_select @ 0x750f1a
 168: MENULIBCOM.handle_skls_sel ();
           0x00750bb2      4e56ffce       link.w a6, 0xffce
           0x00750bb6      bfd5           cmpa.l (a5), a7
       < 0x00750bb8      6206           bhi.b 0x750bc0
          0x00750bba      44fc0002       move.w 0x2, ccr
          0x00750bbe      4e76           trapv
       > 0x00750bc0      defc0032       adda.w 0x32, a7
           0x00750bc4      48e7f0e0       movem.l d0-d3/a0-a2, -(a7)
           0x00750bc8      45f900480fc2   lea.l MENUCOM.get_boxon, a2
           0x00750bce      7602           moveq 0x2, d3
           0x00750bd0      10390086d27e   move.b 0x86d27e, d0
           0x00750bd6      4880           ext.w d0
           0x00750bd8      4183           chk.w d3, d0
           0x00750bda      c1fc05d4       muls.w 0x5d4, d0
           0x00750bde      41f90086d27a   lea.l 0x86d27a, a0
           0x00750be4      122e0008       move.b 0x8(a6), d1
           0x00750be8      4881           ext.w d1
           0x00750bea      740e           moveq 0xe, d2
           0x00750bec      c5c1           muls.w d1, d2
           0x00750bee      43f00046       lea.l 0x46(a0, d0.w), a1
           0x00750bf2      554f           subq.w 0x2, a7
           0x00750bf4      3f31201c       move.w 0x1c(a1, d2.w), -(a7)
           0x00750bf8      4e92           jsr (a2)                    ; fcn.00000009+0x2
           0x00750bfa      544f           addq.w 0x2, a7
           0x00750bfc      4a1f           tst.b (a7)+
       < 0x00750bfe      6708           beq.b 0x750c08
          0x00750c00      1f01           move.b d1, -(a7)
          0x00750c02      1f3c0004       move.b 0x4, -(a7)
      < 0x00750c06      6044           bra.b 0x750c4c
      > 0x00750c08      554f           subq.w 0x2, a7
          0x00750c0a      3f312018       move.w 0x18(a1, d2.w), -(a7)
          0x00750c0e      4e92           jsr (a2)                    ; fcn.00000009+0x2
          0x00750c10      544f           addq.w 0x2, a7
          0x00750c12      4a1f           tst.b (a7)+
      < 0x00750c14      6706           beq.b 0x750c1c
         0x00750c16      1f01           move.b d1, -(a7)
         0x00750c18      1f03           move.b d3, -(a7)
     < 0x00750c1a      6030           bra.b 0x750c4c
     > 0x00750c1c      554f           subq.w 0x2, a7
         0x00750c1e      3f31201a       move.w 0x1a(a1, d2.w), -(a7)
         0x00750c22      4e92           jsr (a2)                    ; fcn.00000009+0x2
         0x00750c24      544f           addq.w 0x2, a7
         0x00750c26      4a1f           tst.b (a7)+
     < 0x00750c28      6708           beq.b 0x750c32
        0x00750c2a      1f01           move.b d1, -(a7)
        0x00750c2c      1f3c0003       move.b 0x3, -(a7)
    < 0x00750c30      601a           bra.b 0x750c4c
    > 0x00750c32      554f           subq.w 0x2, a7
        0x00750c34      3f31201e       move.w 0x1e(a1, d2.w), -(a7)
        0x00750c38      4e92           jsr (a2)                    ; fcn.00000009+0x2
        0x00750c3a      544f           addq.w 0x2, a7
        0x00750c3c      4a1f           tst.b (a7)+
    < 0x00750c3e      6708           beq.b 0x750c48
       0x00750c40      1f01           move.b d1, -(a7)
       0x00750c42      1f3c0005       move.b 0x5, -(a7)
   < 0x00750c46      6004           bra.b 0x750c4c
   > 0x00750c48      1f01           move.b d1, -(a7)
       0x00750c4a      4227           clr.b -(a7)
   > 0x00750c4c      4ebafd50       jsr MENULIBCOM.select_skls_fie(pc)
           0x00750c50      584f           addq.w 0x4, a7
           0x00750c52      4cdf070f       movem.l (a7)+, d0-d3/a0-a2
           0x00750c56      4e5e           unlk a6
           0x00750c58      4e75           rts
            ; CALL XREF from MENULIBCOM.hit_retitle_sel @ 0x750f92
 114: MENULIBCOM.handle_retitle_ ();
           0x00750c5a      4e56ffe2       link.w a6, 0xffe2
           0x00750c5e      bfd5           cmpa.l (a5), a7
       < 0x00750c60      6206           bhi.b 0x750c68
          0x00750c62      44fc0002       move.w 0x2, ccr
          0x00750c66      4e76           trapv
       > 0x00750c68      defc001e       adda.w 0x1e, a7
           0x00750c6c      48e7c0c0       movem.l d0-d1/a0-a1, -(a7)
           0x00750c70      7202           moveq 0x2, d1
           0x00750c72      10390086d27e   move.b 0x86d27e, d0
           0x00750c78      4880           ext.w d0
           0x00750c7a      4181           chk.w d1, d0
           0x00750c7c      c1fc05d4       muls.w 0x5d4, d0
           0x00750c80      41f90086d27a   lea.l 0x86d27a, a0
           0x00750c86      554f           subq.w 0x2, a7
           0x00750c88      43f00046       lea.l 0x46(a0, d0.w), a1
           0x00750c8c      3f290052       move.w 0x52(a1), -(a7)
           0x00750c90      4eb900480fc2   jsr MENUCOM.get_boxon
           0x00750c96      544f           addq.w 0x2, a7
           0x00750c98      4a1f           tst.b (a7)+
       < 0x00750c9a      6706           beq.b 0x750ca2
          0x00750c9c      1f3c0003       move.b 0x3, -(a7)
      < 0x00750ca0      601c           bra.b 0x750cbe
      > 0x00750ca2      554f           subq.w 0x2, a7
          0x00750ca4      43f00046       lea.l 0x46(a0, d0.w), a1
          0x00750ca8      3f290050       move.w 0x50(a1), -(a7)
          0x00750cac      4eb900480fc2   jsr MENUCOM.get_boxon
          0x00750cb2      544f           addq.w 0x2, a7
          0x00750cb4      4a1f           tst.b (a7)+
      < 0x00750cb6      6704           beq.b 0x750cbc
         0x00750cb8      1f01           move.b d1, -(a7)
     < 0x00750cba      6002           bra.b 0x750cbe
     > 0x00750cbc      4227           clr.b -(a7)
     > 0x00750cbe      4ebafdea       jsr MENULIBCOM.select_retitle_(pc)
           0x00750cc2      544f           addq.w 0x2, a7
           0x00750cc4      4cdf0303       movem.l (a7)+, d0-d1/a0-a1
           0x00750cc8      4e5e           unlk a6
           0x00750cca      4e75           rts
 92: MENULIBCOM.hit_skl_selecti ();
           0x00750ccc      4e56ffb2       link.w a6, 0xffb2
           0x00750cd0      bfd5           cmpa.l (a5), a7
       < 0x00750cd2      6206           bhi.b 0x750cda
          0x00750cd4      44fc0002       move.w 0x2, ccr
          0x00750cd8      4e76           trapv
       > 0x00750cda      defc0048       adda.w 0x48, a7
           0x00750cde      48e7fff0       movem.l d0-d7/a0-a3, -(a7)
           0x00750ce2      47f900480fc2   lea.l MENUCOM.get_boxon, a3
           0x00750ce8      7801           moveq 0x1, d4
           0x00750cea      7a02           moveq 0x2, d5
           0x00750cec      594f           subq.w 0x4, a7
           0x00750cee      3f2e000a       move.w 0xa(a6), -(a7)
           0x00750cf2      4eb90048406e   jsr MENUCOM.get_b_id
           0x00750cf8      544f           addq.w 0x2, a7
           0x00750cfa      2c17           move.l (a7), d6
           0x00750cfc      544f           addq.w 0x2, a7
           0x00750cfe      2f06           move.l d6, -(a7)
           0x00750d00      4ebad528       jsr MENULIBCOM.get_op(pc)
           0x00750d04      584f           addq.w 0x4, a7
           0x00750d06      101f           move.b (a7)+, d0
           0x00750d08      4880           ext.w d0
           0x00750d0a      5340           subq.w 0x1, d0
           0x00750d0c      4185           chk.w d5, d0
           0x00750d0e      5240           addq.w 0x1, d0
           0x00750d10      1e00           move.b d0, d7
           0x00750d12      4887           ext.w d7
           0x00750d14      3007           move.w d7, d0
           0x00750d16      5340           subq.w 0x1, d0
           0x00750d18      b045           cmp.w d5, d0
       < 0x00750d1a      6302           bls.b 0x750d1e
          0x00750d1c      4e4e           trap 0xe
       > 0x00750d1e      d040           add.w d0, d0
           0x00750d20      303b0006       move.w 0x750d28(pc, d0.w), d0
           0x00750d24      4efb0002       jmp 0x750d28(pc, d0.w)
            0x00750d28      0006000a       ori.b 0xa, d6
            0x00750d2c      000e7c02       
            0x00750d2d      0e7c0260       
            0x00750d2e      7c02           moveq 0x2, d6
        < 0x00750d30      6006           bra.b 0x750d38
           0x00750d32      7c04           moveq 0x4, d6
       < 0x00750d34      6002           bra.b 0x750d38
          0x00750d36      7c05           moveq 0x5, d6
       > 0x00750d38      10390086d27e   move.b 0x86d27e, d0
            0x00750d3e      4880           ext.w d0
            0x00750d40      4185           chk.w d5, d0
            0x00750d42      c1fc05d4       muls.w 0x5d4, d0
            0x00750d46      41f90086d27a   lea.l 0x86d27a, a0
            0x00750d4c      322e0008       move.w 0x8(a6), d1
            0x00750d50      b244           cmp.w d4, d1
        < 0x00750d52      670e           beq.b 0x750d62
           0x00750d54      be04           cmp.b d4, d7
       < 0x00750d56      6600008e       bne.w 0x750de6
          0x00750d5a      0c410004       cmpi.w 0x4, d1
      < 0x00750d5e      66000086       bne.w 0x750de6
      > 0x00750d62      4227           clr.b -(a7)
          0x00750d64      4ebacb2e       jsr MENULIBCOM.abort_retitle(pc)
          0x00750d68      544f           addq.w 0x2, a7
          0x00750d6a      0c410004       cmpi.w 0x4, d1
      < 0x00750d6e      6634           bne.b 0x750da4
         0x00750d70      554f           subq.w 0x2, a7
         0x00750d72      4eb90064b742   jsr K9_LIBRARY.k9_screen_state
         0x00750d78      bc1f           cmp.b (a7)+, d6
     < 0x00750d7a      6728           beq.b 0x750da4
        0x00750d7c      4eb9004558c8   jsr CURSORCOM.grid_off
        0x00750d82      4886           ext.w d6
        0x00750d84      4dbc0006       chk.w 0x6, d6
        0x00750d88      1f06           move.b d6, -(a7)
        0x00750d8a      554f           subq.w 0x2, a7
        0x00750d8c      3f3c00bf       move.w 0xbf, -(a7)
        0x00750d90      4e93           jsr (a3)                    ; fcn.0000000c
        0x00750d92      544f           addq.w 0x2, a7
        0x00750d94      1417           move.b (a7), d2
        0x00750d96      4882           ext.w d2
        0x00750d98      4584           chk.w d4, d2
        0x00750d9a      1e82           move.b d2, (a7)
        0x00750d9c      4eb90064b994   jsr K9_LIBRARY.k9_show_display
        0x00750da2      584f           addq.w 0x4, a7
     > 0x00750da4      740e           moveq 0xe, d2
          0x00750da6      c5c7           muls.w d7, d2
          0x00750da8      554f           subq.w 0x2, a7
          0x00750daa      43f00046       lea.l 0x46(a0, d0.w), a1
          0x00750dae      3f312016       move.w 0x16(a1, d2.w), -(a7)
          0x00750db2      4e93           jsr (a3)                    ; fcn.0000000c
          0x00750db4      544f           addq.w 0x2, a7
          0x00750db6      4a1f           tst.b (a7)+
      < 0x00750db8      6722           beq.b 0x750ddc
         0x00750dba      0f3ac26e       btst.l d7, 0x74d02a(pc)
     < 0x00750dbe      660e           bne.b 0x750dce
        0x00750dc0      554f           subq.w 0x2, a7
        0x00750dc2      3f300054       move.w 0x54(a0, d0.w), -(a7)
        0x00750dc6      4e93           jsr (a3)                    ; fcn.0000000c
        0x00750dc8      544f           addq.w 0x2, a7
        0x00750dca      4a1f           tst.b (a7)+
    < 0x00750dcc      670e           beq.b 0x750ddc
    > 0x00750dce      1f07           move.b d7, -(a7)
        0x00750dd0      1f04           move.b d4, -(a7)
        0x00750dd2      4ebafbca       jsr MENULIBCOM.select_skls_fie(pc)
        0x00750dd6      584f           addq.w 0x4, a7
    < 0x00750dd8      6000009c       bra.w 0x750e76
    > 0x00750ddc      1f07           move.b d7, -(a7)
         0x00750dde      4ebafdd2       jsr MENULIBCOM.handle_skls_sel(pc)
     < 0x00750de2      60000090       bra.w 0x750e74
     > 0x00750de6      0f3ac244       btst.l d7, 0x74d02c(pc)
      < 0x00750dea      6700008a       beq.w 0x750e76
         0x00750dee      43fac23e       lea.l 0x74d02e(pc), a1
         0x00750df2      3401           move.w d1, d2
         0x00750df4      e64a           lsr.w 0x3, d2
         0x00750df6      0c420020       cmpi.w 0x20, d2
     < 0x00750dfa      6d04           blt.b 0x750e00
        0x00750dfc      7400           moveq 0x0, d2
    < 0x00750dfe      6004           bra.b 0x750e04
    > 0x00750e00      03312000       btst.l d1, (a1, d2.w)
    < 0x00750e04      6770           beq.b 0x750e76
        0x00750e06      3407           move.w d7, d2
        0x00750e08      e342           asl.w 0x1, d2
        0x00750e0a      43f00046       lea.l 0x46(a0, d0.w), a1
        0x00750e0e      362e000a       move.w 0xa(a6), d3
        0x00750e12      b671200c       cmp.w 0xc(a1, d2.w), d3
    < 0x00750e16      675e           beq.b 0x750e76
       0x00750e18      0c410004       cmpi.w 0x4, d1
   < 0x00750e1c      6634           bne.b 0x750e52
      0x00750e1e      554f           subq.w 0x2, a7
      0x00750e20      4eb90064b742   jsr K9_LIBRARY.k9_screen_state
      0x00750e26      bc1f           cmp.b (a7)+, d6
  < 0x00750e28      6728           beq.b 0x750e52
     0x00750e2a      4eb9004558c8   jsr CURSORCOM.grid_off
     0x00750e30      4886           ext.w d6
     0x00750e32      4dbc0006       chk.w 0x6, d6
     0x00750e36      1f06           move.b d6, -(a7)
     0x00750e38      554f           subq.w 0x2, a7
     0x00750e3a      3f3c00bf       move.w 0xbf, -(a7)
     0x00750e3e      4e93           jsr (a3)                    ; fcn.0000000c
     0x00750e40      544f           addq.w 0x2, a7
     0x00750e42      1417           move.b (a7), d2
     0x00750e44      4882           ext.w d2
     0x00750e46      4584           chk.w d4, d2
     0x00750e48      1e82           move.b d2, (a7)
     0x00750e4a      4eb90064b994   jsr K9_LIBRARY.k9_show_display
     0x00750e50      584f           addq.w 0x4, a7
  > 0x00750e52      48780000       pea.l 0x0
       0x00750e56      1f07           move.b d7, -(a7)
       0x00750e58      4227           clr.b -(a7)
       0x00750e5a      4eb900662936   jsr K95_CARDS.k9_ch
       0x00750e60      504f           addq.w 0x8, a7
       0x00750e62      7418           moveq 0x18, d2
       0x00750e64      c5c7           muls.w d7, d2
       0x00750e66      45f12000       lea.l (a1, d2.w), a2
       0x00750e6a      3f2a0094       move.w 0x94(a2), -(a7)
       0x00750e6e      4eb9004836a4   jsr MENUCOM.push_box
    > 0x00750e74      544f           addq.w 0x2, a7
    > 0x00750e76      4cdf0fff       movem.l (a7)+, d0-d7/a0-a3
            0x00750e7a      4e5e           unlk a6
            0x00750e7c      4e75           rts
            ; CALL XREF from MENULIBCOM.hit_save @ 0x7511e2
 170: MENULIBCOM.hit_save_select ();
           0x00750e7e      4e56ffd2       link.w a6, 0xffd2
           0x00750e82      bfd5           cmpa.l (a5), a7
       < 0x00750e84      6206           bhi.b 0x750e8c
          0x00750e86      44fc0002       move.w 0x2, ccr
          0x00750e8a      4e76           trapv
       > 0x00750e8c      defc0028       adda.w 0x28, a7
           0x00750e90      48e7e1c0       movem.l d0-d2/d7/a0-a1, -(a7)
           0x00750e94      594f           subq.w 0x4, a7
           0x00750e96      3f2e000a       move.w 0xa(a6), -(a7)
           0x00750e9a      4eb90048406e   jsr MENUCOM.get_b_id
           0x00750ea0      544f           addq.w 0x2, a7
           0x00750ea2      2d57fffa       move.l (a7), -0x6(a6)
           0x00750ea6      544f           addq.w 0x2, a7
           0x00750ea8      2f2efffa       move.l -0x6(a6), -(a7)
           0x00750eac      4ebad37c       jsr MENULIBCOM.get_op(pc)
           0x00750eb0      584f           addq.w 0x4, a7
           0x00750eb2      101f           move.b (a7)+, d0
           0x00750eb4      4880           ext.w d0
           0x00750eb6      41bc0003       chk.w 0x3, d0
           0x00750eba      1e00           move.b d0, d7
           0x00750ebc      10390086d27e   move.b 0x86d27e, d0
           0x00750ec2      4880           ext.w d0
           0x00750ec4      41bc0002       chk.w 0x2, d0
           0x00750ec8      c1fc05d4       muls.w 0x5d4, d0
           0x00750ecc      41f90086d27a   lea.l 0x86d27a, a0
           0x00750ed2      322e0008       move.w 0x8(a6), d1
           0x00750ed6      43fac176       lea.l 0x74d04e(pc), a1
           0x00750eda      3401           move.w d1, d2
           0x00750edc      e64a           lsr.w 0x3, d2
           0x00750ede      0c420020       cmpi.w 0x20, d2
       < 0x00750ee2      6d04           blt.b 0x750ee8
          0x00750ee4      7400           moveq 0x0, d2
      < 0x00750ee6      6004           bra.b 0x750eec
      > 0x00750ee8      03312000       btst.l d1, (a1, d2.w)
      < 0x00750eec      6732           beq.b 0x750f20
          0x00750eee      4887           ext.w d7
          0x00750ef0      720e           moveq 0xe, d1
          0x00750ef2      c3c7           muls.w d7, d1
          0x00750ef4      554f           subq.w 0x2, a7
          0x00750ef6      43f00046       lea.l 0x46(a0, d0.w), a1
          0x00750efa      3f311016       move.w 0x16(a1, d1.w), -(a7)
          0x00750efe      4eb900480fc2   jsr MENUCOM.get_boxon
          0x00750f04      544f           addq.w 0x2, a7
          0x00750f06      4a1f           tst.b (a7)+
      < 0x00750f08      670e           beq.b 0x750f18
         0x00750f0a      1f07           move.b d7, -(a7)
         0x00750f0c      1f3c0001       move.b 0x1, -(a7)
         0x00750f10      4ebafa8c       jsr MENULIBCOM.select_skls_fie(pc)
         0x00750f14      584f           addq.w 0x4, a7
     < 0x00750f16      6008           bra.b 0x750f20
     > 0x00750f18      1f07           move.b d7, -(a7)
         0x00750f1a      4ebafc96       jsr MENULIBCOM.handle_skls_sel(pc)
         0x00750f1e      544f           addq.w 0x2, a7
     > 0x00750f20      4cdf0387       movem.l (a7)+, d0-d2/d7/a0-a1
           0x00750f24      4e5e           unlk a6
           0x00750f26      4e75           rts
 118: MENULIBCOM.hit_retitle_sel ();
           0x00750f28      4e56ffde       link.w a6, 0xffde
           0x00750f2c      bfd5           cmpa.l (a5), a7
       < 0x00750f2e      6206           bhi.b 0x750f36
          0x00750f30      44fc0002       move.w 0x2, ccr
          0x00750f34      4e76           trapv
       > 0x00750f36      defc0022       adda.w 0x22, a7
           0x00750f3a      48e7e0c0       movem.l d0-d2/a0-a1, -(a7)
           0x00750f3e      10390086d27e   move.b 0x86d27e, d0
           0x00750f44      4880           ext.w d0
           0x00750f46      41bc0002       chk.w 0x2, d0
           0x00750f4a      c1fc05d4       muls.w 0x5d4, d0
           0x00750f4e      41f90086d27a   lea.l 0x86d27a, a0
           0x00750f54      322e0008       move.w 0x8(a6), d1
           0x00750f58      43fac114       lea.l 0x74d06e(pc), a1
           0x00750f5c      3401           move.w d1, d2
           0x00750f5e      e64a           lsr.w 0x3, d2
           0x00750f60      0c420020       cmpi.w 0x20, d2
       < 0x00750f64      6d04           blt.b 0x750f6a
          0x00750f66      7400           moveq 0x0, d2
      < 0x00750f68      6004           bra.b 0x750f6e
      > 0x00750f6a      03312000       btst.l d1, (a1, d2.w)
      < 0x00750f6e      6726           beq.b 0x750f96
          0x00750f70      554f           subq.w 0x2, a7
          0x00750f72      43f00046       lea.l 0x46(a0, d0.w), a1
          0x00750f76      3f29004e       move.w 0x4e(a1), -(a7)
          0x00750f7a      4eb900480fc2   jsr MENUCOM.get_boxon
          0x00750f80      544f           addq.w 0x2, a7
          0x00750f82      4a1f           tst.b (a7)+
      < 0x00750f84      670c           beq.b 0x750f92
         0x00750f86      1f3c0001       move.b 0x1, -(a7)
         0x00750f8a      4ebafb1e       jsr MENULIBCOM.select_retitle_(pc)
         0x00750f8e      544f           addq.w 0x2, a7
     < 0x00750f90      6004           bra.b 0x750f96
     > 0x00750f92      4ebafcc6       jsr MENULIBCOM.handle_retitle_(pc)
     > 0x00750f96      4cdf0307       movem.l (a7)+, d0-d2/a0-a1
           0x00750f9a      4e5e           unlk a6
           0x00750f9c      4e75           rts
 214: MENULIBCOM.hit_skl ();
           0x00750f9e      4e56ffba       link.w a6, 0xffba
           0x00750fa2      bfd5           cmpa.l (a5), a7
       < 0x00750fa4      6206           bhi.b 0x750fac
          0x00750fa6      44fc0002       move.w 0x2, ccr
          0x00750faa      4e76           trapv
       > 0x00750fac      defc0040       adda.w 0x40, a7
           0x00750fb0      48e7ffe0       movem.l d0-d7/a0-a2, -(a7)
           0x00750fb4      45f900480fc2   lea.l MENUCOM.get_boxon, a2
           0x00750fba      7602           moveq 0x2, d3
           0x00750fbc      7801           moveq 0x1, d4
           0x00750fbe      7a20           moveq 0x20, d5
           0x00750fc0      7c04           moveq 0x4, d6
           0x00750fc2      594f           subq.w 0x4, a7
           0x00750fc4      3f2e000a       move.w 0xa(a6), -(a7)
           0x00750fc8      4eb90048406e   jsr MENUCOM.get_b_id
           0x00750fce      544f           addq.w 0x2, a7
           0x00750fd0      2d57fffa       move.l (a7), -0x6(a6)
           0x00750fd4      544f           addq.w 0x2, a7
           0x00750fd6      2f2efffa       move.l -0x6(a6), -(a7)
           0x00750fda      4ebad24e       jsr MENULIBCOM.get_op(pc)
           0x00750fde      584f           addq.w 0x4, a7
           0x00750fe0      101f           move.b (a7)+, d0
           0x00750fe2      4880           ext.w d0
           0x00750fe4      5340           subq.w 0x1, d0
           0x00750fe6      4183           chk.w d3, d0
           0x00750fe8      5240           addq.w 0x1, d0
           0x00750fea      1e00           move.b d0, d7
           0x00750fec      10390086d27e   move.b 0x86d27e, d0
           0x00750ff2      4880           ext.w d0
           0x00750ff4      4183           chk.w d3, d0
           0x00750ff6      c1fc05d4       muls.w 0x5d4, d0
           0x00750ffa      41f90086d27a   lea.l 0x86d27a, a0
           0x00751000      322e0008       move.w 0x8(a6), d1
           0x00751004      43fac088       lea.l 0x74d08e(pc), a1
           0x00751008      3401           move.w d1, d2
           0x0075100a      e64a           lsr.w 0x3, d2
           0x0075100c      b445           cmp.w d5, d2
       < 0x0075100e      6d04           blt.b 0x751014
          0x00751010      7400           moveq 0x0, d2
      < 0x00751012      6004           bra.b 0x751018
      > 0x00751014      03312000       btst.l d1, (a1, d2.w)
      < 0x00751018      670000ce       beq.w 0x7510e8
          0x0075101c      4227           clr.b -(a7)
          0x0075101e      4ebac874       jsr MENULIBCOM.abort_retitle(pc)
          0x00751022      544f           addq.w 0x2, a7
          0x00751024      be04           cmp.b d4, d7
      < 0x00751026      6622           bne.b 0x75104a
         0x00751028      554f           subq.w 0x2, a7
         0x0075102a      3f300050       move.w 0x50(a0, d0.w), -(a7)
         0x0075102e      4e92           jsr (a2)                    ; fcn.00000009+0x2
         0x00751030      544f           addq.w 0x2, a7
         0x00751032      4a1f           tst.b (a7)+
     < 0x00751034      670c           beq.b 0x751042
        0x00751036      3f30006a       move.w 0x6a(a0, d0.w), -(a7)
        0x0075103a      4eb9004836a4   jsr MENUCOM.push_box
        0x00751040      544f           addq.w 0x2, a7
     > 0x00751042      4eb900758574   jsr MENULIBFNDCOM.force_fetch_on
     < 0x00751048      6014           bra.b 0x75105e
     > 0x0075104a      b246           cmp.w d6, d1
     < 0x0075104c      6710           beq.b 0x75105e
        0x0075104e      48780000       pea.l 0x0
        0x00751052      1f07           move.b d7, -(a7)
        0x00751054      4227           clr.b -(a7)
        0x00751056      4eb900662936   jsr K95_CARDS.k9_ch
        0x0075105c      504f           addq.w 0x8, a7
     > 0x0075105e      4887           ext.w d7
          0x00751060      3407           move.w d7, d2
          0x00751062      5342           subq.w 0x1, d2
          0x00751064      b443           cmp.w d3, d2
      < 0x00751066      6302           bls.b 0x75106a
         0x00751068      4e4e           trap 0xe
      > 0x0075106a      d442           add.w d2, d2
          0x0075106c      343b2006       move.w 0x751074(pc, d2.w), d2
          0x00751070      4efb2002       jmp 0x751074(pc, d2.w)
           0x00751074      00060024       ori.b 0x24, d6
           0x00751078      00281f03554f   ori.b 0x3, 0x554f(a0)
         0x0075107e      3f3c00bf       move.w 0xbf, -(a7)
         0x00751082      4e92           jsr (a2)                    ; fcn.00000009+0x2
         0x00751084      544f           addq.w 0x2, a7
         0x00751086      1417           move.b (a7), d2
         0x00751088      4882           ext.w d2
         0x0075108a      4584           chk.w d4, d2
         0x0075108c      1e82           move.b d2, (a7)
         0x0075108e      4eb90064b994   jsr K9_LIBRARY.k9_show_display
         0x00751094      584f           addq.w 0x4, a7
     < 0x00751096      600a           bra.b 0x7510a2
        0x00751098      1f06           move.b d6, -(a7)
     < 0x0075109a      60e0           bra.b 0x75107c
         0x0075109c      1f3c0005       move.b 0x5, -(a7)
      < 0x007510a0      60da           bra.b 0x75107c
     > 0x007510a2      1f07           move.b d7, -(a7)
           0x007510a4      4ebad1e4       jsr MENULIBCOM.upd_vol(pc)
           0x007510a8      544f           addq.w 0x2, a7
           0x007510aa      740e           moveq 0xe, d2
           0x007510ac      c5c7           muls.w d7, d2
           0x007510ae      554f           subq.w 0x2, a7
           0x007510b0      43f00046       lea.l 0x46(a0, d0.w), a1
           0x007510b4      3f312016       move.w 0x16(a1, d2.w), -(a7)
           0x007510b8      4e92           jsr (a2)                    ; fcn.00000009+0x2
           0x007510ba      544f           addq.w 0x2, a7
           0x007510bc      4a1f           tst.b (a7)+
       < 0x007510be      6720           beq.b 0x7510e0
          0x007510c0      0f3abfec       btst.l d7, 0x74d0ae(pc)
      < 0x007510c4      660e           bne.b 0x7510d4
         0x007510c6      554f           subq.w 0x2, a7
         0x007510c8      3f300054       move.w 0x54(a0, d0.w), -(a7)
         0x007510cc      4e92           jsr (a2)                    ; fcn.00000009+0x2
         0x007510ce      544f           addq.w 0x2, a7
         0x007510d0      4a1f           tst.b (a7)+
     < 0x007510d2      670c           beq.b 0x7510e0
     > 0x007510d4      1f07           move.b d7, -(a7)
         0x007510d6      1f04           move.b d4, -(a7)
         0x007510d8      4ebaf8c4       jsr MENULIBCOM.select_skls_fie(pc)
         0x007510dc      584f           addq.w 0x4, a7
     < 0x007510de      6054           bra.b 0x751134
     > 0x007510e0      1f07           move.b d7, -(a7)
          0x007510e2      4ebaface       jsr MENULIBCOM.handle_skls_sel(pc)
      < 0x007510e6      604a           bra.b 0x751132
      > 0x007510e8      43fabfc6       lea.l 0x74d0b0(pc), a1
          0x007510ec      3401           move.w d1, d2
          0x007510ee      e64a           lsr.w 0x3, d2
          0x007510f0      b445           cmp.w d5, d2
      < 0x007510f2      6d04           blt.b 0x7510f8
         0x007510f4      7400           moveq 0x0, d2
     < 0x007510f6      6004           bra.b 0x7510fc
     > 0x007510f8      03312000       btst.l d1, (a1, d2.w)
         ; CODE XREF from MENULIBCOM @ +0x444a
     < 0x007510fc      6736           beq.b 0x751134
         0x007510fe      4227           clr.b -(a7)
         0x00751100      4ebac792       jsr MENULIBCOM.abort_retitle(pc)
         0x00751104      544f           addq.w 0x2, a7
         0x00751106      be04           cmp.b d4, d7
     < 0x00751108      6710           beq.b 0x75111a
        0x0075110a      48780000       pea.l 0x0
        0x0075110e      1f07           move.b d7, -(a7)
        0x00751110      4227           clr.b -(a7)
        0x00751112      4eb900662936   jsr K95_CARDS.k9_ch
        0x00751118      504f           addq.w 0x8, a7
     > 0x0075111a      4887           ext.w d7
         0x0075111c      7418           moveq 0x18, d2
         0x0075111e      c5c7           muls.w d7, d2
         0x00751120      43f00046       lea.l 0x46(a0, d0.w), a1
         0x00751124      43f12000       lea.l (a1, d2.w), a1
         0x00751128      3f290094       move.w 0x94(a1), -(a7)
         0x0075112c      4eb9004836a4   jsr MENUCOM.push_box
      > 0x00751132      544f           addq.w 0x2, a7
      > 0x00751134      4cdf07ff       movem.l (a7)+, d0-d7/a0-a2
            0x00751138      4e5e           unlk a6
            0x0075113a      4e75           rts
 386: MENULIBCOM.hit_save ();
           0x0075113c      4e56ffc0       link.w a6, 0xffc0
           0x00751140      bfd5           cmpa.l (a5), a7
       < 0x00751142      6206           bhi.b 0x75114a
          0x00751144      44fc0002       move.w 0x2, ccr
          0x00751148      4e76           trapv
       > 0x0075114a      defc003a       adda.w 0x3a, a7
           0x0075114e      48e7f9f0       movem.l d0-d4/d7/a0-a3, -(a7)
           0x00751152      45ee000a       lea.l 0xa(a6), a2
           0x00751156      47f90086d27f   lea.l 0x86d27f, a3
           0x0075115c      7601           moveq 0x1, d3
           0x0075115e      7803           moveq 0x3, d4
           0x00751160      594f           subq.w 0x4, a7
           0x00751162      3f12           move.w (a2), -(a7)
           0x00751164      4eb90048406e   jsr MENUCOM.get_b_id
           0x0075116a      544f           addq.w 0x2, a7
           0x0075116c      2d57fffa       move.l (a7), -0x6(a6)
           0x00751170      544f           addq.w 0x2, a7
           0x00751172      2f2efffa       move.l -0x6(a6), -(a7)
           0x00751176      4ebad0b2       jsr MENULIBCOM.get_op(pc)
           0x0075117a      584f           addq.w 0x4, a7
           0x0075117c      101f           move.b (a7)+, d0
           0x0075117e      4880           ext.w d0
           0x00751180      4184           chk.w d4, d0
           0x00751182      1e00           move.b d0, d7
           0x00751184      10390086d27e   move.b 0x86d27e, d0
           0x0075118a      4880           ext.w d0
           0x0075118c      41bc0002       chk.w 0x2, d0
           0x00751190      c1fc05d4       muls.w 0x5d4, d0
           0x00751194      41f90086d27a   lea.l 0x86d27a, a0
           0x0075119a      322e0008       move.w 0x8(a6), d1
           0x0075119e      b243           cmp.w d3, d1
       < 0x007511a0      6708           beq.b 0x7511aa
          0x007511a2      0c410004       cmpi.w 0x4, d1
      < 0x007511a6      660000d4       bne.w 0x75127c
      > 0x007511aa      43f00046       lea.l 0x46(a0, d0.w), a1
          0x007511ae      3f2905c4       move.w 0x5c4(a1), -(a7)
          0x007511b2      4eb900481d90   jsr MENUCOM.swtch_on_box
          0x007511b8      544f           addq.w 0x2, a7
          0x007511ba      4887           ext.w d7
          0x007511bc      740e           moveq 0xe, d2
          0x007511be      c5c7           muls.w d7, d2
          0x007511c0      43f00046       lea.l 0x46(a0, d0.w), a1
          0x007511c4      3f312016       move.w 0x16(a1, d2.w), -(a7)
          0x007511c8      4eb9004836a4   jsr MENUCOM.push_box
          0x007511ce      544f           addq.w 0x2, a7
          0x007511d0      4a13           tst.b (a3)
      < 0x007511d2      670a           beq.b 0x7511de
         0x007511d4      4267           clr.w -(a7)
         0x007511d6      3f03           move.w d3, -(a7)
         0x007511d8      4ebad98c       jsr MENULIBCOM.setup_henry_sav(pc)
         0x007511dc      584f           addq.w 0x4, a7
      > 0x007511de      3f12           move.w (a2), -(a7)
          0x007511e0      3f01           move.w d1, -(a7)
          0x007511e2      4ebafc9a       jsr MENULIBCOM.hit_save_select(pc)
          0x007511e6      584f           addq.w 0x4, a7
          0x007511e8      4a13           tst.b (a3)
      < 0x007511ea      664c           bne.b 0x751238
         0x007511ec      594f           subq.w 0x4, a7
         0x007511ee      3f12           move.w (a2), -(a7)
         0x007511f0      4eb90048406e   jsr MENUCOM.get_b_id
         0x007511f6      544f           addq.w 0x2, a7
         0x007511f8      241f           move.l (a7)+, d2
         0x007511fa      028200ffffff   andi.l 0xffffff, d2
     < 0x00751200      6636           bne.b 0x751238
        0x00751202      1f03           move.b d3, -(a7)
        0x00751204      554f           subq.w 0x2, a7
        0x00751206      3f3c00bf       move.w 0xbf, -(a7)
        0x0075120a      4eb900480fc2   jsr MENUCOM.get_boxon
        0x00751210      544f           addq.w 0x2, a7
        0x00751212      1417           move.b (a7), d2
        0x00751214      4882           ext.w d2
        0x00751216      4583           chk.w d3, d2
        0x00751218      1e82           move.b d2, (a7)
        0x0075121a      4eb90064b994   jsr K9_LIBRARY.k9_show_display
        0x00751220      584f           addq.w 0x4, a7
        0x00751222      3407           move.w d7, d2
        0x00751224      e342           asl.w 0x1, d2
        0x00751226      43f00046       lea.l 0x46(a0, d0.w), a1
        0x0075122a      3f31200c       move.w 0xc(a1, d2.w), -(a7)
        0x0075122e      1f03           move.b d3, -(a7)
        0x00751230      4eb900483776   jsr MENUCOM.swtch_box
    < 0x00751236      601e           bra.b 0x751256
    > 0x00751238      1f04           move.b d4, -(a7)
         0x0075123a      554f           subq.w 0x2, a7
         0x0075123c      3f3c00bf       move.w 0xbf, -(a7)
         0x00751240      4eb900480fc2   jsr MENUCOM.get_boxon
         0x00751246      544f           addq.w 0x2, a7
         0x00751248      1417           move.b (a7), d2
         0x0075124a      4882           ext.w d2
         0x0075124c      4583           chk.w d3, d2
         0x0075124e      1e82           move.b d2, (a7)
         0x00751250      4eb90064b994   jsr K9_LIBRARY.k9_show_display
    > 0x00751256      584f           addq.w 0x4, a7
          0x00751258      1f07           move.b d7, -(a7)
          0x0075125a      4ebad02e       jsr MENULIBCOM.upd_vol(pc)
          0x0075125e      4217           clr.b (a7)
          0x00751260      4eb9007522fc   jsr MENULIBCOM.set_save_disk_g
          0x00751266      1f07           move.b d7, -(a7)
          0x00751268      4eb900662c52   jsr K95_CARDS.k9_key
          0x0075126e      544f           addq.w 0x2, a7
          0x00751270      141f           move.b (a7)+, d2
          0x00751272      4882           ext.w d2
          0x00751274      4584           chk.w d4, d2
          0x00751276      1d42fffe       move.b d2, -0x2(a6)
      < 0x0075127a      603a           bra.b 0x7512b6
      > 0x0075127c      43fabe52       lea.l 0x74d0d0(pc), a1
          0x00751280      3401           move.w d1, d2
          0x00751282      e64a           lsr.w 0x3, d2
          0x00751284      0c420020       cmpi.w 0x20, d2
      < 0x00751288      6d04           blt.b 0x75128e
         0x0075128a      7400           moveq 0x0, d2
     < 0x0075128c      6004           bra.b 0x751292
     > 0x0075128e      03312000       btst.l d1, (a1, d2.w)
     < 0x00751292      6722           beq.b 0x7512b6
         0x00751294      4887           ext.w d7
         0x00751296      7418           moveq 0x18, d2
         0x00751298      c5c7           muls.w d7, d2
         0x0075129a      43f00046       lea.l 0x46(a0, d0.w), a1
         0x0075129e      43f12000       lea.l (a1, d2.w), a1
         0x007512a2      3f290094       move.w 0x94(a1), -(a7)
         0x007512a6      4eb9004836a4   jsr MENUCOM.push_box
         0x007512ac      1e83           move.b d3, (a7)
         0x007512ae      4eb9007522fc   jsr MENULIBCOM.set_save_disk_g
         0x007512b4      544f           addq.w 0x2, a7
      > 0x007512b6      4cdf0f9f       movem.l (a7)+, d0-d4/d7/a0-a3
           0x007512ba      4e5e           unlk a6
           0x007512bc      4e75           rts
 122: MENULIBCOM.hit_skls_return ();
           0x007512be      4e56ffe6       link.w a6, 0xffe6
           0x007512c2      bfd5           cmpa.l (a5), a7
       < 0x007512c4      6206           bhi.b 0x7512cc
          0x007512c6      44fc0002       move.w 0x2, ccr
          0x007512ca      4e76           trapv
       > 0x007512cc      defc0012       adda.w 0x12, a7
           0x007512d0      48e7c000       movem.l d0-d1, -(a7)
           0x007512d4      720d           moveq 0xd, d1
           0x007512d6      594f           subq.w 0x4, a7
           0x007512d8      3f2e000a       move.w 0xa(a6), -(a7)
           0x007512dc      4eb90048406e   jsr MENUCOM.get_b_id
           0x007512e2      544f           addq.w 0x2, a7
           0x007512e4      2d57fffa       move.l (a7), -0x6(a6)
           0x007512e8      544f           addq.w 0x2, a7
           0x007512ea      2f2efffa       move.l -0x6(a6), -(a7)
           0x007512ee      4ebacf3a       jsr MENULIBCOM.get_op(pc)
           0x007512f2      584f           addq.w 0x4, a7
           0x007512f4      101f           move.b (a7)+, d0
           0x007512f6      4880           ext.w d0
           0x007512f8      41bc0003       chk.w 0x3, d0
           0x007512fc      1d40fffe       move.b d0, -0x2(a6)
           0x00751300      302e0008       move.w 0x8(a6), d0
           0x00751304      0c400001       cmpi.w 0x1, d0
       < 0x00751308      6626           bne.b 0x751330
          0x0075130a      3d41fff8       move.w d1, -0x8(a6)
          0x0075130e      3f01           move.w d1, -(a7)
          0x00751310      02570fff       andi.w 0xfff, (a7)
          0x00751314      4eb9004a531e   jsr MENUKEYBDCOM.title_action
          0x0075131a      4eb90047dcdc   jsr CNTLCOM.get_control_box
          0x00751320      3f3cfff7       move.w 0xfff7, -(a7)
          0x00751324      3f3c0002       move.w 0x2, -(a7)
          0x00751328      4eb90048128c   jsr MENUCOM.box_action
          0x0075132e      5c4f           addq.w 0x6, a7
       > 0x00751330      4cdf0003       movem.l (a7)+, d0-d1
           0x00751334      4e5e           unlk a6
           0x00751336      4e75           rts
 80: MENULIBCOM.hit_retitle_ret ();
           0x00751338      4e56ffec       link.w a6, 0xffec
           0x0075133c      bfd5           cmpa.l (a5), a7
       < 0x0075133e      6206           bhi.b 0x751346
          0x00751340      44fc0002       move.w 0x2, ccr
          0x00751344      4e76           trapv
       > 0x00751346      defc0012       adda.w 0x12, a7
           0x0075134a      48e7c000       movem.l d0-d1, -(a7)
           0x0075134e      720d           moveq 0xd, d1
           0x00751350      302e0008       move.w 0x8(a6), d0
           0x00751354      0c400001       cmpi.w 0x1, d0
       < 0x00751358      6626           bne.b 0x751380
          0x0075135a      3d41fffe       move.w d1, -0x2(a6)
          0x0075135e      3f01           move.w d1, -(a7)
          0x00751360      02570fff       andi.w 0xfff, (a7)
          0x00751364      4eb9004a531e   jsr MENUKEYBDCOM.title_action
          0x0075136a      4eb90047dcdc   jsr CNTLCOM.get_control_box
          0x00751370      3f3cfff7       move.w 0xfff7, -(a7)
          0x00751374      3f3c0002       move.w 0x2, -(a7)
          0x00751378      4eb90048128c   jsr MENUCOM.box_action
          0x0075137e      5c4f           addq.w 0x6, a7
       > 0x00751380      4cdf0003       movem.l (a7)+, d0-d1
           0x00751384      4e5e           unlk a6
           0x00751386      4e75           rts
 84: MENULIBCOM.hit_num_field ();
           0x00751388      4e56ffe8       link.w a6, 0xffe8
           0x0075138c      bfd5           cmpa.l (a5), a7
       < 0x0075138e      6206           bhi.b 0x751396
          0x00751390      44fc0002       move.w 0x2, ccr
          0x00751394      4e76           trapv
       > 0x00751396      defc0018       adda.w 0x18, a7
           0x0075139a      48e7c080       movem.l d0-d1/a0, -(a7)
           0x0075139e      302e0008       move.w 0x8(a6), d0
           0x007513a2      0c400001       cmpi.w 0x1, d0
       < 0x007513a6      6606           bne.b 0x7513ae
          0x007513a8      2f3abd46       move.l 0x74d0f0(pc), -(a7)
      < 0x007513ac      601c           bra.b 0x7513ca
      > 0x007513ae      41fabd44       lea.l 0x74d0f4(pc), a0
          0x007513b2      3200           move.w d0, d1
          0x007513b4      e649           lsr.w 0x3, d1
          0x007513b6      0c410020       cmpi.w 0x20, d1
      < 0x007513ba      6d04           blt.b 0x7513c0
         0x007513bc      7200           moveq 0x0, d1
     < 0x007513be      6004           bra.b 0x7513c4
     > 0x007513c0      01301000       btst.l d0, (a0, d1.w)
     < 0x007513c4      670e           beq.b 0x7513d4
         0x007513c6      2f3abd4c       move.l 0x74d114(pc), -(a7)
      > 0x007513ca      4227           clr.b -(a7)
          0x007513cc      4eb90049bec0   jsr MENUNUMPADCOM.move_numpad
          0x007513d2      5c4f           addq.w 0x6, a7
       > 0x007513d4      4cdf0103       movem.l (a7)+, d0-d1/a0
           0x007513d8      4e5e           unlk a6
           0x007513da      4e75           rts
            ; CALL XREF from MENULIBCOM @ +0x4994
 182: MENULIBCOM.make_boxes_appe ();
           0x007513dc      4e56ffd6       link.w a6, 0xffd6
           0x007513e0      bfd5           cmpa.l (a5), a7
       < 0x007513e2      6206           bhi.b 0x7513ea
          0x007513e4      44fc0002       move.w 0x2, ccr
          0x007513e8      4e76           trapv
       > 0x007513ea      defc002a       adda.w 0x2a, a7
           0x007513ee      48e7c0e0       movem.l d0-d1/a0-a2, -(a7)
           0x007513f2      45f900480fc2   lea.l MENUCOM.get_boxon, a2
           0x007513f8      10390086d27e   move.b 0x86d27e, d0
           0x007513fe      4880           ext.w d0
           0x00751400      41bc0002       chk.w 0x2, d0
           0x00751404      c1fc05d4       muls.w 0x5d4, d0
           0x00751408      41f90086d27a   lea.l 0x86d27a, a0
           0x0075140e      122c000c       move.b 0xc(a4), d1
           0x00751412      4881           ext.w d1
           0x00751414      43bc0003       chk.w 0x3, d1
           0x00751418      c3fc000e       muls.w 0xe, d1
           0x0075141c      43f00046       lea.l 0x46(a0, d0.w), a1
           0x00751420      554f           subq.w 0x2, a7
           0x00751422      3f311016       move.w 0x16(a1, d1.w), -(a7)
           0x00751426      4e92           jsr (a2)                    ; fcn.00000009+0x2
           0x00751428      544f           addq.w 0x2, a7
           0x0075142a      4a1f           tst.b (a7)+
       < 0x0075142c      6706           beq.b 0x751434
          0x0075142e      3f311016       move.w 0x16(a1, d1.w), -(a7)
      < 0x00751432      604e           bra.b 0x751482
      > 0x00751434      554f           subq.w 0x2, a7
          0x00751436      3f31101c       move.w 0x1c(a1, d1.w), -(a7)
          0x0075143a      4e92           jsr (a2)                    ; fcn.00000009+0x2
          0x0075143c      544f           addq.w 0x2, a7
          0x0075143e      4a1f           tst.b (a7)+
      < 0x00751440      6706           beq.b 0x751448
         0x00751442      3f31101c       move.w 0x1c(a1, d1.w), -(a7)
     < 0x00751446      603a           bra.b 0x751482
     > 0x00751448      554f           subq.w 0x2, a7
         0x0075144a      3f31101a       move.w 0x1a(a1, d1.w), -(a7)
         0x0075144e      4e92           jsr (a2)                    ; fcn.00000009+0x2
         0x00751450      544f           addq.w 0x2, a7
         0x00751452      4a1f           tst.b (a7)+
     < 0x00751454      6706           beq.b 0x75145c
        0x00751456      3f31101a       move.w 0x1a(a1, d1.w), -(a7)
    < 0x0075145a      6026           bra.b 0x751482
    > 0x0075145c      554f           subq.w 0x2, a7
        0x0075145e      3f31101e       move.w 0x1e(a1, d1.w), -(a7)
        0x00751462      4e92           jsr (a2)                    ; fcn.00000009+0x2
        0x00751464      544f           addq.w 0x2, a7
        0x00751466      4a1f           tst.b (a7)+
    < 0x00751468      6706           beq.b 0x751470
       0x0075146a      3f31101e       move.w 0x1e(a1, d1.w), -(a7)
   < 0x0075146e      6012           bra.b 0x751482
   > 0x00751470      554f           subq.w 0x2, a7
       0x00751472      3f311014       move.w 0x14(a1, d1.w), -(a7)
       0x00751476      4e92           jsr (a2)                    ; fcn.00000009+0x2
       0x00751478      544f           addq.w 0x2, a7
       0x0075147a      4a1f           tst.b (a7)+
   < 0x0075147c      670c           beq.b 0x75148a
      0x0075147e      3f311014       move.w 0x14(a1, d1.w), -(a7)
   > 0x00751482      4eb9004836a4   jsr MENUCOM.push_box
          0x00751488      544f           addq.w 0x2, a7
       > 0x0075148a      4cdf0703       movem.l (a7)+, d0-d1/a0-a2
           0x0075148e      4e5e           unlk a6
           0x00751490      4e75           rts
            ; CALL XREF from MENULIBCOM.tab_skls @ 0x7518e4
            ; CALL XREF from MENULIBCOM.lib_hit_skl @ 0x7522ee
 58: MENULIBCOM.non_box_select_ ();
           0x00751492      4e56ffb4       link.w a6, 0xffb4
           0x00751496      bfd5           cmpa.l (a5), a7
       < 0x00751498      6206           bhi.b 0x7514a0
          0x0075149a      44fc0002       move.w 0x2, ccr
          0x0075149e      4e76           trapv
       > 0x007514a0      defc004a       adda.w 0x4a, a7
           0x007514a4      48e7fff8       movem.l d0-d7/a0-a4, -(a7)
           0x007514a8      45ee000a       lea.l 0xa(a6), a2
           0x007514ac      47ee0008       lea.l 0x8(a6), a3
           0x007514b0      7a03           moveq 0x3, d5
           0x007514b2      7c01           moveq 0x1, d6
           0x007514b4      1013           move.b (a3), d0
           0x007514b6      4880           ext.w d0
           0x007514b8      3200           move.w d0, d1
           0x007514ba      0c410005       cmpi.w 0x5, d1
       < 0x007514be      620000a4       bhi.w 0x751564
          0x007514c2      d241           add.w d1, d1
          0x007514c4      323b1006       move.w 0x7514cc(pc, d1.w), d1
          0x007514c8      4efb1002       jmp 0x7514cc(pc, d1.w)
           0x007514cc      000c0010       
           0x007514cd      0c001000       cmpi.b 0x0, d0
           0x007514d1      9800           sub.b d0, d4
           0x007514d3      1000           move.b d0, d0
           0x007514d5      1000           move.b d0, d0
           0x007514d7      10600001       
       < 0x007514d8      600001ae       bra.w 0x751688
          0x007514dc      0c000005       cmpi.b 0x5, d0
      < 0x007514e0      6610           bne.b 0x7514f2
         0x007514e2      4227           clr.b -(a7)
         0x007514e4      4a12           tst.b (a2)
     < 0x007514e6      6702           beq.b 0x7514ea
        0x007514e8      5217           addq.b 0x1, (a7)
     > 0x007514ea      4eb90040452a   jsr p_Assert
         0x007514f0      544f           addq.w 0x2, a7
      > 0x007514f2      7e00           moveq 0x0, d7
          0x007514f4      554f           subq.w 0x2, a7
          0x007514f6      1212           move.b (a2), d1
          0x007514f8      4881           ext.w d1
          0x007514fa      4385           chk.w d5, d1
          0x007514fc      1f01           move.b d1, -(a7)
          0x007514fe      4eb900662a4e   jsr K95_CARDS.k9_skl_spec
          0x00751504      544f           addq.w 0x2, a7
          0x00751506      b01f           cmp.b (a7)+, d0
      < 0x00751508      6602           bne.b 0x75150c
         0x0075150a      5207           addq.b 0x1, d7
      > 0x0075150c      1212           move.b (a2), d1
          0x0075150e      4881           ext.w d1
          0x00751510      033abc06       btst.l d1, 0x74d118(pc)
      < 0x00751514      670c           beq.b 0x751522
         0x00751516      4a07           tst.b d7
     < 0x00751518      6608           bne.b 0x751522
        0x0075151a      49eefffe       lea.l -0x2(a6), a4
        0x0075151e      4ebafebc       jsr MENULIBCOM.make_boxes_appe(pc)
     > 0x00751522      12390086d27e   move.b 0x86d27e, d1
          0x00751528      4881           ext.w d1
          0x0075152a      43bc0002       chk.w 0x2, d1
          0x0075152e      c3fc05d4       muls.w 0x5d4, d1
          0x00751532      41f90086d27a   lea.l 0x86d27a, a0
          0x00751538      1412           move.b (a2), d2
          0x0075153a      4882           ext.w d2
          0x0075153c      4585           chk.w d5, d2
          0x0075153e      c5fc000e       muls.w 0xe, d2
          0x00751542      1613           move.b (a3), d3
          0x00751544      4883           ext.w d3
          0x00751546      47bc0006       chk.w 0x6, d3
          0x0075154a      e343           asl.w 0x1, d3
          0x0075154c      43f01046       lea.l 0x46(a0, d1.w), a1
          0x00751550      43f12000       lea.l (a1, d2.w), a1
          0x00751554      3f313014       move.w 0x14(a1, d3.w), -(a7)
          0x00751558      4eb9004836a4   jsr MENUCOM.push_box
          0x0075155e      544f           addq.w 0x2, a7
      < 0x00751560      60000126       bra.w 0x751688
      > 0x00751564      3200           move.w d0, d1
          0x00751566      5d41           subq.w 0x6, d1
          0x00751568      0c41000a       cmpi.w 0xa, d1
      < 0x0075156c      626c           bhi.b 0x7515da
         0x0075156e      d241           add.w d1, d1
         0x00751570      323b1006       move.w 0x751578(pc, d1.w), d1
         0x00751574      4efb1002       jmp 0x751578(pc, d1.w)
         0x00751578      00160062       ori.b 0x62, (a6)
         0x0075157c      00260062       ori.b 0x62, -(a6)
         0x00751580      00620062       ori.w 0x62, -(a2)
         0x00751584      00620062       ori.w 0x62, -(a2)
         0x00751588      004e005e       
         0x00751589      4e005e00       
         0x0075158a      005e005e       ori.w 0x5e, (a6)+
         0x0075158e      7e00           moveq 0x0, d7
         0x00751590      1212           move.b (a2), d1
         0x00751592      4881           ext.w d1
         0x00751594      033abb84       btst.l d1, 0x74d11a(pc)
     < 0x00751598      6702           beq.b 0x75159c
        0x0075159a      5207           addq.b 0x1, d7
    > 0x0075159c      603e           bra.b 0x7515dc
        0x0075159e      7200           moveq 0x0, d1
        0x007515a0      554f           subq.w 0x2, a7
        0x007515a2      4878002d       pea.l 0x2d
        0x007515a6      4eb900474af8   jsr CONFIG.cfg_option
        0x007515ac      584f           addq.w 0x4, a7
        0x007515ae      4a1f           tst.b (a7)+
    < 0x007515b0      660a           bne.b 0x7515bc
       0x007515b2      1412           move.b (a2), d2
       0x007515b4      4882           ext.w d2
       0x007515b6      053abb64       btst.l d2, 0x74d11c(pc)
   < 0x007515ba      6702           beq.b 0x7515be
   > 0x007515bc      5201           addq.b 0x1, d1
   > 0x007515be      4881           ext.w d1
        0x007515c0      4386           chk.w d6, d1
        0x007515c2      1e01           move.b d1, d7
    < 0x007515c4      6016           bra.b 0x7515dc
       0x007515c6      7e00           moveq 0x0, d7
       0x007515c8      1212           move.b (a2), d1
       0x007515ca      4881           ext.w d1
       0x007515cc      033abb50       btst.l d1, 0x74d11e(pc)
   < 0x007515d0      6702           beq.b 0x7515d4
      0x007515d2      5207           addq.b 0x1, d7
  > 0x007515d4      6006           bra.b 0x7515dc
      0x007515d6      7e00           moveq 0x0, d7
  < 0x007515d8      6002           bra.b 0x7515dc
  > 0x007515da      7e01           moveq 0x1, d7
  > 0x007515dc      4a07           tst.b d7
      < 0x007515de      670000a8       beq.w 0x751688
         0x007515e2      12390086d27e   move.b 0x86d27e, d1
         0x007515e8      4881           ext.w d1
         0x007515ea      43bc0002       chk.w 0x2, d1
         0x007515ee      c3fc05d4       muls.w 0x5d4, d1
         0x007515f2      41f90086d27a   lea.l 0x86d27a, a0
         0x007515f8      7e00           moveq 0x0, d7
         0x007515fa      1412           move.b (a2), d2
         0x007515fc      4882           ext.w d2
         0x007515fe      4585           chk.w d5, d2
         0x00751600      554f           subq.w 0x2, a7
         0x00751602      1f02           move.b d2, -(a7)
         0x00751604      4eb900662a4e   jsr K95_CARDS.k9_skl_spec
         0x0075160a      544f           addq.w 0x2, a7
         0x0075160c      161f           move.b (a7)+, d3
         0x0075160e      b613           cmp.b (a3), d3
     < 0x00751610      6602           bne.b 0x751614
        0x00751612      5207           addq.b 0x1, d7
     > 0x00751614      053abb32       btst.l d2, 0x74d148(pc)
     < 0x00751618      674c           beq.b 0x751666
        0x0075161a      4a07           tst.b d7
    < 0x0075161c      671e           beq.b 0x75163c
       0x0075161e      4585           chk.w d5, d2
       0x00751620      760e           moveq 0xe, d3
       0x00751622      c7c2           muls.w d2, d3
       0x00751624      43f01046       lea.l 0x46(a0, d1.w), a1
       0x00751628      3f313014       move.w 0x14(a1, d3.w), -(a7)
       0x0075162c      4227           clr.b -(a7)
       0x0075162e      4eb900483776   jsr MENUCOM.swtch_box
       0x00751634      544f           addq.w 0x2, a7
       0x00751636      1e82           move.b d2, (a7)
       0x00751638      4227           clr.b -(a7)
   < 0x0075163a      6046           bra.b 0x751682
   > 0x0075163c      49eefffe       lea.l -0x2(a6), a4
       0x00751640      4ebafd9a       jsr MENULIBCOM.make_boxes_appe(pc)
       0x00751644      1612           move.b (a2), d3
       0x00751646      4883           ext.w d3
       0x00751648      4785           chk.w d5, d3
       0x0075164a      780e           moveq 0xe, d4
       0x0075164c      c9c3           muls.w d3, d4
       0x0075164e      43f01046       lea.l 0x46(a0, d1.w), a1
       0x00751652      3f314014       move.w 0x14(a1, d4.w), -(a7)
       0x00751656      1f06           move.b d6, -(a7)
       0x00751658      4eb900483776   jsr MENUCOM.swtch_box
       0x0075165e      584f           addq.w 0x4, a7
       0x00751660      4785           chk.w d5, d3
       0x00751662      1f03           move.b d3, -(a7)
   < 0x00751664      601a           bra.b 0x751680
   > 0x00751666      4585           chk.w d5, d2
       0x00751668      760e           moveq 0xe, d3
       0x0075166a      c7c2           muls.w d2, d3
       0x0075166c      43f01046       lea.l 0x46(a0, d1.w), a1
       0x00751670      3f313014       move.w 0x14(a1, d3.w), -(a7)
       0x00751674      1f06           move.b d6, -(a7)
       0x00751676      4eb900483776   jsr MENUCOM.swtch_box
       0x0075167c      544f           addq.w 0x2, a7
       0x0075167e      1e82           move.b d2, (a7)
       ; CODE XREF from MENULIBCOM @ +0x49b8
   > 0x00751680      1f13           move.b (a3), -(a7)
        ; CODE XREF from MENULIBCOM @ +0x498e
   > 0x00751682      4ebaf31a       jsr MENULIBCOM.select_skls_fie(pc)
         0x00751686      584f           addq.w 0x4, a7
      > 0x00751688      4cdf1fff       movem.l (a7)+, d0-d7/a0-a4
            0x0075168c      4e5e           unlk a6
            0x0075168e      4e75           rts
            ; CALL XREF from MENULIBCOM.tab_retitle @ 0x7519b8
            ; CALL XREF from MENULIBCOM.hit_retitle @ 0x75228a
            ; CALL XREF from MENULIBFNDCOM.hit_item @ 0x7599fe
 70: fcn.00751690 ();
           0x00751690      4e56ffc0       link.w a6, 0xffc0
           0x00751694      bfd5           cmpa.l (a5), a7
       < 0x00751696      6206           bhi.b 0x75169e
          0x00751698      44fc0002       move.w 0x2, ccr
          0x0075169c      4e76           trapv
       > 0x0075169e      defc003e       adda.w 0x3e, a7
           0x007516a2      48e7f9f8       movem.l d0-d4/d7/a0-a4, -(a7)
           0x007516a6      45f9004047ea   lea.l p_wts_o, a2
           0x007516ac      47f90064b63e   lea.l K9_LIBRARY.k9_ret_spec, a3
           0x007516b2      49f900404946   lea.l p_wtln_o, a4
           0x007516b8      760a           moveq 0xa, d3
           0x007516ba      7802           moveq 0x2, d4
           0x007516bc      102e0008       move.b 0x8(a6), d0
           0x007516c0      4880           ext.w d0
           0x007516c2      3200           move.w d0, d1
           0x007516c4      0c410003       cmpi.w 0x3, d1
       < 0x007516c8      620000a4       bhi.w 0x75176e
          0x007516cc      d241           add.w d1, d1
          0x007516ce      323b1006       move.w 0x7516d6(pc, d1.w), d1
          0x007516d2      4efb1002       jmp 0x7516d6(pc, d1.w)
           0x007516d6      0008000c       
           0x007516d7      08000c00       
           0x007516d8      000c000c       
           0x007516d9      0c000c00       cmpi.b 0x0, d0
           0x007516dd      0c600001       cmpi.w 0x1, -(a0)
           0x007516e1      5048           addq.w 0x8, a0
           0x007516e3      7aba           moveq 0xba, d5
       < 0x007516e5      6648           bne.b 0x75172f
          0x007516e7      7800           moveq 0x0, d4
          0x007516e9      0e2f174e       
          0x007516ea      2f17           move.l (a7), -(a7)
          0x007516ec      4e92           jsr (a2)                    ; fcn.00000009+0x2
          0x007516ee      defc000c       adda.w 0xc, a7
          0x007516f2      4e94           jsr (a4)                    ; fcn.0000000d
          0x007516f4      7e00           moveq 0x0, d7
          0x007516f6      554f           subq.w 0x2, a7
          0x007516f8      4e93           jsr (a3)                    ; fcn.0000000c
          0x007516fa      b01f           cmp.b (a7)+, d0
      < 0x007516fc      6602           bne.b 0x751700
         0x007516fe      5207           addq.b 0x1, d7
      > 0x00751700      487aba57       pea.l 0x74d159(pc)
          0x00751704      4878000e       pea.l 0xe
          0x00751708      2f17           move.l (a7), -(a7)
          0x0075170a      4e92           jsr (a2)                    ; fcn.00000009+0x2
          0x0075170c      5c4f           addq.w 0x6, a7
          0x0075170e      4e93           jsr (a3)                    ; fcn.0000000c
          0x00751710      121f           move.b (a7)+, d1
          0x00751712      4881           ext.w d1
          0x00751714      48c1           ext.l d1
          0x00751716      2e81           move.l d1, (a7)
          0x00751718      48780000       pea.l 0x0
          0x0075171c      4eb9004070e4   jsr p_wti_o
          0x00751722      504f           addq.w 0x8, a7
          0x00751724      487aba42       pea.l 0x74d168(pc)
          0x00751728      4878000b       pea.l 0xb
          0x0075172c      2f17           move.l (a7), -(a7)
          0x0075172e      4e92           jsr (a2)                    ; fcn.00000009+0x2
           0x00751730      dec3           adda.w d3, a7
           0x00751732      1e87           move.b d7, (a7)
           0x00751734      48780005       pea.l 0x5
           0x00751738      4eb90040718c   jsr p_wtb_o
           0x0075173e      5c4f           addq.w 0x6, a7
           0x00751740      4e94           jsr (a4)                    ; fcn.0000000d
           0x00751742      12390086d27e   move.b 0x86d27e, d1
           0x00751748      4881           ext.w d1
           0x0075174a      4384           chk.w d4, d1
           0x0075174c      c3fc05d4       muls.w 0x5d4, d1
           0x00751750      41f90086d27a   lea.l 0x86d27a, a0
           0x00751756      3400           move.w d0, d2
           0x00751758      e342           asl.w 0x1, d2
           0x0075175a      43f01046       lea.l 0x46(a0, d1.w), a1
           0x0075175e      3f31204c       move.w 0x4c(a1, d2.w), -(a7)
           0x00751762      4eb9004836a4   jsr MENUCOM.push_box
           0x00751768      544f           addq.w 0x2, a7
       < 0x0075176a      600000c4       bra.w 0x751830
       > 0x0075176e      422efffe       clr.b -0x2(a6)
           0x00751772      41faba00       lea.l 0x74d174(pc), a0
           0x00751776      3200           move.w d0, d1
           0x00751778      e649           lsr.w 0x3, d1
           0x0075177a      01301000       btst.l d0, (a0, d1.w)
       < 0x0075177e      6704           beq.b 0x751784
          0x00751780      522efffe       addq.b 0x1, -0x2(a6)
       > 0x00751784      4a2efffe       tst.b -0x2(a6)
       < 0x00751788      670000a6       beq.w 0x751830
          0x0075178c      7e00           moveq 0x0, d7
          0x0075178e      554f           subq.w 0x2, a7
          0x00751790      4e93           jsr (a3)                    ; fcn.0000000c
          0x00751792      b01f           cmp.b (a7)+, d0
      < 0x00751794      6602           bne.b 0x751798
         0x00751796      5207           addq.b 0x1, d7
      > 0x00751798      487ab9df       pea.l 0x74d179(pc)
          0x0075179c      4878002c       pea.l 0x2c
          0x007517a0      2f17           move.l (a7), -(a7)
          0x007517a2      4e92           jsr (a2)                    ; fcn.00000009+0x2
          0x007517a4      5c4f           addq.w 0x6, a7
          0x007517a6      4e93           jsr (a3)                    ; fcn.0000000c
          0x007517a8      121f           move.b (a7)+, d1
          0x007517aa      4881           ext.w d1
          0x007517ac      48c1           ext.l d1
          0x007517ae      2e81           move.l d1, (a7)
          0x007517b0      48780000       pea.l 0x0
          0x007517b4      4eb9004070e4   jsr p_wti_o
          0x007517ba      504f           addq.w 0x8, a7
          0x007517bc      487ab9e8       pea.l 0x74d1a6(pc)
          0x007517c0      4878000b       pea.l 0xb
          0x007517c4      2f17           move.l (a7), -(a7)
          0x007517c6      4e92           jsr (a2)                    ; fcn.00000009+0x2
          0x007517c8      dec3           adda.w d3, a7
          0x007517ca      1e87           move.b d7, (a7)
          0x007517cc      48780005       pea.l 0x5
          0x007517d0      4eb90040718c   jsr p_wtb_o
          0x007517d6      5c4f           addq.w 0x6, a7
          0x007517d8      4e94           jsr (a4)                    ; fcn.0000000d
          0x007517da      12390086d27e   move.b 0x86d27e, d1
          0x007517e0      4881           ext.w d1
          0x007517e2      4384           chk.w d4, d1
          0x007517e4      c3fc05d4       muls.w 0x5d4, d1
          0x007517e8      41f90086d27a   lea.l 0x86d27a, a0
          0x007517ee      43f01046       lea.l 0x46(a0, d1.w), a1
          0x007517f2      3f29004c       move.w 0x4c(a1), -(a7)
          0x007517f6      1f3c0001       move.b 0x1, -(a7)
          0x007517fa      4eb900483776   jsr MENUCOM.swtch_box
          0x00751800      584f           addq.w 0x4, a7
          0x00751802      487ab9ae       pea.l 0x74d1b2(pc)
          0x00751806      4878000e       pea.l 0xe
          0x0075180a      2f17           move.l (a7), -(a7)
          0x0075180c      4e92           jsr (a2)                    ; fcn.00000009+0x2
          0x0075180e      5c4f           addq.w 0x6, a7
          0x00751810      4e93           jsr (a3)                    ; fcn.0000000c
          0x00751812      121f           move.b (a7)+, d1
          0x00751814      4881           ext.w d1
          0x00751816      48c1           ext.l d1
          0x00751818      2e81           move.l d1, (a7)
          0x0075181a      48780000       pea.l 0x0
          0x0075181e      4eb9004070e4   jsr p_wti_o
          0x00751824      504f           addq.w 0x8, a7
          0x00751826      4e94           jsr (a4)                    ; fcn.0000000d
          0x00751828      1f00           move.b d0, -(a7)
          0x0075182a      4ebaf27e       jsr MENULIBCOM.select_retitle_(pc)
          0x0075182e      544f           addq.w 0x2, a7
       > 0x00751830      4cdf1f9f       movem.l (a7)+, d0-d4/d7/a0-a4
            0x00751834      4e5e           unlk a6
            0x00751836      4e75           rts
            ; CALL XREF from MENULIBCOM.hit_skls_tab @ 0x751952
 186: MENULIBCOM.tab_skls ();
           0x00751838      4e56ffde       link.w a6, 0xffde
           0x0075183c      bfd5           cmpa.l (a5), a7
       < 0x0075183e      6206           bhi.b 0x751846
          0x00751840      44fc0002       move.w 0x2, ccr
          0x00751844      4e76           trapv
       > 0x00751846      defc001c       adda.w 0x1c, a7
           0x0075184a      48e7c180       movem.l d0-d1/d7/a0, -(a7)
           0x0075184e      41eefffc       lea.l -0x4(a6), a0
           0x00751852      7213           moveq 0x13, d1
           0x00751854      20bab96a       move.l 0x74d1c0(pc), (a0)
           0x00751858      102e000a       move.b 0xa(a6), d0
           0x0075185c      4880           ext.w d0
           0x0075185e      013ab964       btst.l d0, 0x74d1c4(pc)
       < 0x00751862      6706           beq.b 0x75186a
          0x00751864      009000010000   ori.l 0x10000, (a0)
       > 0x0075186a      013ab95e       btst.l d0, 0x74d1ca(pc)
       < 0x0075186e      6718           beq.b 0x751888
          0x00751870      554f           subq.w 0x2, a7
          0x00751872      4878002d       pea.l 0x2d
          0x00751876      4eb900474af8   jsr CONFIG.cfg_option
          0x0075187c      584f           addq.w 0x4, a7
          0x0075187e      4a1f           tst.b (a7)+
      < 0x00751880      6706           beq.b 0x751888
         0x00751882      009000010000   ori.l 0x10000, (a0)
      > 0x00751888      013ab946       btst.l d0, 0x74d1d0(pc)
       < 0x0075188c      6706           beq.b 0x751894
          0x0075188e      0090a0000000   ori.l 0xa0000000, (a0)
       > 0x00751894      013ab940       btst.l d0, 0x74d1d6(pc)
       < 0x00751898      6706           beq.b 0x7518a0
          0x0075189a      009040000000   ori.l 0x40000000, (a0)
       > 0x007518a0      554f           subq.w 0x2, a7
           0x007518a2      1f00           move.b d0, -(a7)
           0x007518a4      4eb900662a4e   jsr K95_CARDS.k9_skl_spec
           0x007518aa      544f           addq.w 0x2, a7
           0x007518ac      101f           move.b (a7)+, d0
           0x007518ae      4880           ext.w d0
           0x007518b0      4181           chk.w d1, d0
           0x007518b2      1e00           move.b d0, d7
       < 0x007518b4      6604           bne.b 0x7518ba
          0x007518b6      7e01           moveq 0x1, d7
      < 0x007518b8      6024           bra.b 0x7518de
     > 0x007518ba      554f           subq.w 0x2, a7
         0x007518bc      1f07           move.b d7, -(a7)
         0x007518be      1f2e0008       move.b 0x8(a6), -(a7)
         0x007518c2      4eb9006629be   jsr K95_CARDS.k9_spec_step_fi
         0x007518c8      584f           addq.w 0x4, a7
         0x007518ca      101f           move.b (a7)+, d0
         0x007518cc      4880           ext.w d0
         0x007518ce      4181           chk.w d1, d0
         0x007518d0      1e00           move.b d0, d7
         0x007518d2      4887           ext.w d7
         0x007518d4      3007           move.w d7, d0
         0x007518d6      e648           lsr.w 0x3, d0
         0x007518d8      0f3600fc       btst.l d7, -0x4(a6, d0.w)
     < 0x007518dc      67dc           beq.b 0x7518ba
      > 0x007518de      1f2e000a       move.b 0xa(a6), -(a7)
           0x007518e2      1f07           move.b d7, -(a7)
           0x007518e4      4ebafbac       jsr MENULIBCOM.non_box_select_(pc)
           0x007518e8      584f           addq.w 0x4, a7
           0x007518ea      4cdf0183       movem.l (a7)+, d0-d1/d7/a0
           0x007518ee      4e5e           unlk a6
           0x007518f0      4e75           rts
 110: MENULIBCOM.hit_skls_tab ();
           0x007518f2      4e56ffdc       link.w a6, 0xffdc
           0x007518f6      bfd5           cmpa.l (a5), a7
       < 0x007518f8      6206           bhi.b 0x751900
          0x007518fa      44fc0002       move.w 0x2, ccr
          0x007518fe      4e76           trapv
       > 0x00751900      defc001e       adda.w 0x1e, a7
           0x00751904      48e7e180       movem.l d0-d2/d7/a0, -(a7)
           0x00751908      41eefffe       lea.l -0x2(a6), a0
           0x0075190c      7401           moveq 0x1, d2
           0x0075190e      594f           subq.w 0x4, a7
           0x00751910      3f2e000a       move.w 0xa(a6), -(a7)
           0x00751914      4eb90048406e   jsr MENUCOM.get_b_id
           0x0075191a      544f           addq.w 0x2, a7
           0x0075191c      2e17           move.l (a7), d7
           0x0075191e      544f           addq.w 0x2, a7
           0x00751920      2f07           move.l d7, -(a7)
           0x00751922      4ebac906       jsr MENULIBCOM.get_op(pc)
           0x00751926      584f           addq.w 0x4, a7
           0x00751928      101f           move.b (a7)+, d0
           0x0075192a      4880           ext.w d0
           0x0075192c      41bc0003       chk.w 0x3, d0
           0x00751930      1d40ffff       move.b d0, -0x1(a6)
           0x00751934      322e0008       move.w 0x8(a6), d1
           0x00751938      b242           cmp.w d2, d1
       < 0x0075193a      661c           bne.b 0x751958
          0x0075193c      4210           clr.b (a0)
          0x0075193e      2207           move.l d7, d1
          0x00751940      c282           and.l d2, d1
          0x00751942      b282           cmp.l d2, d1
      < 0x00751944      6602           bne.b 0x751948
         0x00751946      5210           addq.b 0x1, (a0)
      > 0x00751948      1f00           move.b d0, -(a7)
          0x0075194a      1210           move.b (a0), d1
          0x0075194c      4881           ext.w d1
          0x0075194e      4382           chk.w d2, d1
          0x00751950      1f01           move.b d1, -(a7)
          0x00751952      4ebafee4       jsr MENULIBCOM.tab_skls(pc)
          0x00751956      584f           addq.w 0x4, a7
       > 0x00751958      4cdf0187       movem.l (a7)+, d0-d2/d7/a0
           0x0075195c      4e5e           unlk a6
           0x0075195e      4e75           rts
            ; CALL XREF from MENULIBCOM.hit_retitle_tab @ 0x751a12
            ; CALL XREF from MENULIBCOM.do_key_action @ 0x75261a
 102: MENULIBCOM.tab_retitle ();
           0x00751960      4e56ffe4       link.w a6, 0xffe4
           0x00751964      bfd5           cmpa.l (a5), a7
       < 0x00751966      6206           bhi.b 0x75196e
          0x00751968      44fc0002       move.w 0x2, ccr
          0x0075196c      4e76           trapv
       > 0x0075196e      defc001a       adda.w 0x1a, a7
           0x00751972      48e7c180       movem.l d0-d1/d7/a0, -(a7)
           0x00751976      7219           moveq 0x19, d1
           0x00751978      554f           subq.w 0x2, a7
           0x0075197a      4eb90064b63e   jsr K9_LIBRARY.k9_ret_spec
           0x00751980      101f           move.b (a7)+, d0
           0x00751982      4880           ext.w d0
           0x00751984      4181           chk.w d1, d0
           0x00751986      1e00           move.b d0, d7
       < 0x00751988      6604           bne.b 0x75198e
          0x0075198a      7e01           moveq 0x1, d7
      < 0x0075198c      6028           bra.b 0x7519b6
     > 0x0075198e      554f           subq.w 0x2, a7
         0x00751990      1f07           move.b d7, -(a7)
         0x00751992      1f2e0008       move.b 0x8(a6), -(a7)
         0x00751996      4eb90064b674   jsr K9_LIBRARY.k9_info_step_fi
         0x0075199c      584f           addq.w 0x4, a7
         0x0075199e      101f           move.b (a7)+, d0
         0x007519a0      4880           ext.w d0
         0x007519a2      4181           chk.w d1, d0
         0x007519a4      1e00           move.b d0, d7
         0x007519a6      4887           ext.w d7
         0x007519a8      41fab832       lea.l 0x74d1dc(pc), a0
         0x007519ac      3007           move.w d7, d0
         0x007519ae      e648           lsr.w 0x3, d0
         0x007519b0      0f300000       btst.l d7, (a0, d0.w)
     < 0x007519b4      67d8           beq.b 0x75198e
      > 0x007519b6      1f07           move.b d7, -(a7)
           0x007519b8      4ebafcd6       jsr fcn.00751690(pc)
           0x007519bc      544f           addq.w 0x2, a7
           0x007519be      4cdf0183       movem.l (a7)+, d0-d1/d7/a0
           0x007519c2      4e5e           unlk a6
           0x007519c4      4e75           rts
 90: MENULIBCOM.hit_retitle_tab ();
           0x007519c6      4e56ffe4       link.w a6, 0xffe4
           0x007519ca      bfd5           cmpa.l (a5), a7
       < 0x007519cc      6206           bhi.b 0x7519d4
          0x007519ce      44fc0002       move.w 0x2, ccr
          0x007519d2      4e76           trapv
       > 0x007519d4      defc0016       adda.w 0x16, a7
           0x007519d8      48e7c080       movem.l d0-d1/a0, -(a7)
           0x007519dc      41eefffe       lea.l -0x2(a6), a0
           0x007519e0      7201           moveq 0x1, d1
           0x007519e2      594f           subq.w 0x4, a7
           0x007519e4      3f2e000a       move.w 0xa(a6), -(a7)
           0x007519e8      4eb90048406e   jsr MENUCOM.get_b_id
           0x007519ee      544f           addq.w 0x2, a7
           0x007519f0      2d5ffffa       move.l (a7)+, -0x6(a6)
           0x007519f4      302e0008       move.w 0x8(a6), d0
           0x007519f8      b041           cmp.w d1, d0
       < 0x007519fa      661c           bne.b 0x751a18
          0x007519fc      4210           clr.b (a0)
          0x007519fe      202efffa       move.l -0x6(a6), d0
          0x00751a02      c081           and.l d1, d0
          0x00751a04      b081           cmp.l d1, d0
      < 0x00751a06      6602           bne.b 0x751a0a
         0x00751a08      5210           addq.b 0x1, (a0)
      > 0x00751a0a      1010           move.b (a0), d0
          0x00751a0c      4880           ext.w d0
          0x00751a0e      4181           chk.w d1, d0
          0x00751a10      1f00           move.b d0, -(a7)
          0x00751a12      4ebaff4c       jsr MENULIBCOM.tab_retitle(pc)
          0x00751a16      544f           addq.w 0x2, a7
       > 0x00751a18      4cdf0103       movem.l (a7)+, d0-d1/a0
           0x00751a1c      4e5e           unlk a6
           0x00751a1e      4e75           rts
 48: MENULIBCOM.write_sklr ();
           0x00751a20      4e56ffec       link.w a6, 0xffec
           0x00751a24      bfd5           cmpa.l (a5), a7
       < 0x00751a26      6206           bhi.b 0x751a2e
          0x00751a28      44fc0002       move.w 0x2, ccr
          0x00751a2c      4e76           trapv
       > 0x00751a2e      defc0014       adda.w 0x14, a7
           0x00751a32      48e78000       movem.l d0, -(a7)
           0x00751a36      102e0008       move.b 0x8(a6), d0
           0x00751a3a      4880           ext.w d0
           0x00751a3c      5340           subq.w 0x1, d0
           0x00751a3e      0c400003       cmpi.w 0x3, d0
       < 0x00751a42      6302           bls.b 0x751a46
          0x00751a44      4e4e           trap 0xe
       > 0x00751a46      d040           add.w d0, d0
           0x00751a48      303b0006       move.w 0x751a50(pc, d0.w), d0
           0x00751a4c      4efb0002       jmp 0x751a50(pc, d0.w)
            0x00751a50      00080024       
            0x00751a51      08002400       
            0x00751a52      0024002e       ori.b 0x2e, -(a4)
            0x00751a56      0034487ab787.  ori.b 0x7a, ([], a3.w * 8, 0x48780007)
       > 0x00751a60      2f17           move.l (a7), -(a7)
          0x00751a62      4eb9004047ea   jsr p_wts_o
          0x00751a68      defc000c       adda.w 0xc, a7
          0x00751a6c      4eb900404946   jsr p_wtln_o
      < 0x00751a72      6016           bra.b 0x751a8a
         0x00751a74      487ab773       pea.l 0x74d1e9(pc)
     > 0x00751a78      48780005       pea.l 0x5
     < 0x00751a7c      60e2           bra.b 0x751a60
         0x00751a7e      487ab76f       pea.l 0x74d1ef(pc)
     < 0x00751a82      60f4           bra.b 0x751a78
          0x00751a84      487ab76f       pea.l 0x74d1f5(pc)
       < 0x00751a88      60d2           bra.b 0x751a5c
      > 0x00751a8a      4cdf0001       movem.l (a7)+, d0
            0x00751a8e      4e5e           unlk a6
            0x00751a90      4e75           rts
            ; CALL XREF from MENULIBCOM.hit_recall @ 0x751bfa
 172: MENULIBCOM.do_sklr ();
           0x00751a92      4e56ffc4       link.w a6, 0xffc4
           0x00751a96      bfd5           cmpa.l (a5), a7
       < 0x00751a98      6206           bhi.b 0x751aa0
          0x00751a9a      44fc0002       move.w 0x2, ccr
          0x00751a9e      4e76           trapv
       > 0x00751aa0      defc003a       adda.w 0x3a, a7
           0x00751aa4      48e7f8f8       movem.l d0-d4/a0-a4, -(a7)
           0x00751aa8      45f9004836a4   lea.l MENUCOM.push_box, a2
           0x00751aae      47eefffe       lea.l -0x2(a6), a3
           0x00751ab2      49f900480fc2   lea.l MENUCOM.get_boxon, a4
           0x00751ab8      7601           moveq 0x1, d3
           0x00751aba      7803           moveq 0x3, d4
           0x00751abc      10390086d27e   move.b 0x86d27e, d0
           0x00751ac2      4880           ext.w d0
           0x00751ac4      41bc0002       chk.w 0x2, d0
           0x00751ac8      c1fc05d4       muls.w 0x5d4, d0
           0x00751acc      41f90086d27a   lea.l 0x86d27a, a0
           0x00751ad2      1f03           move.b d3, -(a7)
           0x00751ad4      4eb900649cd4   jsr K9_LIBRARY.k9_clear_found
           0x00751ada      4217           clr.b (a7)
           0x00751adc      554f           subq.w 0x2, a7
           0x00751ade      3f3c00bf       move.w 0xbf, -(a7)
           0x00751ae2      4e94           jsr (a4)                    ; fcn.0000000d
           0x00751ae4      544f           addq.w 0x2, a7
           0x00751ae6      1217           move.b (a7), d1
           0x00751ae8      4881           ext.w d1
           0x00751aea      4383           chk.w d3, d1
           0x00751aec      1e81           move.b d1, (a7)
           0x00751aee      4eb90064bace   jsr K9_LIBRARY.k9_set_display_
           0x00751af4      584f           addq.w 0x4, a7
           0x00751af6      4eb9007585c6   jsr MENULIBFNDCOM.swtch_on_titles
           0x00751afc      4227           clr.b -(a7)
           0x00751afe      1f03           move.b d3, -(a7)
           0x00751b00      4eb90064b7b4   jsr K9_LIBRARY.k9_clear_screen
           0x00751b06      544f           addq.w 0x2, a7
           0x00751b08      4217           clr.b (a7)
           0x00751b0a      554f           subq.w 0x2, a7
           0x00751b0c      3f3c00bf       move.w 0xbf, -(a7)
           0x00751b10      4e94           jsr (a4)                    ; fcn.0000000d
           0x00751b12      544f           addq.w 0x2, a7
           0x00751b14      1217           move.b (a7), d1
           0x00751b16      4881           ext.w d1
           0x00751b18      4383           chk.w d3, d1
           0x00751b1a      1e81           move.b d1, (a7)
           0x00751b1c      4eb90064b994   jsr K9_LIBRARY.k9_show_display
           0x00751b22      584f           addq.w 0x4, a7
           0x00751b24      122e0008       move.b 0x8(a6), d1
           0x00751b28      4881           ext.w d1
           0x00751b2a      3401           move.w d1, d2
           0x00751b2c      5342           subq.w 0x1, d2
           0x00751b2e      b444           cmp.w d4, d2
       < 0x00751b30      6302           bls.b 0x751b34
          0x00751b32      4e4e           trap 0xe
       > 0x00751b34      d442           add.w d2, d2
           0x00751b36      343b2006       move.w 0x751b3e(pc, d2.w), d2
           0x00751b3a      4efb2002       jmp 0x751b3e(pc, d2.w)
            0x00751b3e      00140014       ori.b 0x14, (a4)
            0x00751b42      00140008       ori.b 0x8, (a4)
            0x00751b46      4853           pea.l (a3)
            0x00751b48      4eb90064a1ac   jsr K9_LIBRARY.k9_recall
            0x00751b4e      584f           addq.w 0x4, a7
        < 0x00751b50      600e           bra.b 0x751b60
           0x00751b52      4384           chk.w d4, d1
           0x00751b54      1f01           move.b d1, -(a7)
           0x00751b56      4853           pea.l (a3)
           0x00751b58      4eb90064a166   jsr K9_LIBRARY.k9_skl
           0x00751b5e      5c4f           addq.w 0x6, a7
        > 0x00751b60      4853           pea.l (a3)
            0x00751b62      4eb90075860a   jsr 0x75860a
            0x00751b68      584f           addq.w 0x4, a7
            0x00751b6a      4a13           tst.b (a3)
        < 0x00751b6c      675c           beq.b 0x751bca
           0x00751b6e      0c010004       cmpi.b 0x4, d1
       < 0x00751b72      6710           beq.b 0x751b84
          0x00751b74      4384           chk.w d4, d1
          0x00751b76      7418           moveq 0x18, d2
          0x00751b78      c5c1           muls.w d1, d2
          0x00751b7a      43f00046       lea.l 0x46(a0, d0.w), a1
          0x00751b7e      43f12000       lea.l (a1, d2.w), a1
      < 0x00751b82      6028           bra.b 0x751bac
      > 0x00751b84      43f00046       lea.l 0x46(a0, d0.w), a1
          0x00751b88      3f2900ac       move.w 0xac(a1), -(a7)
          0x00751b8c      4e92           jsr (a2)                    ; fcn.00000009+0x2
          0x00751b8e      544f           addq.w 0x2, a7
          0x00751b90      43f00046       lea.l 0x46(a0, d0.w), a1
          0x00751b94      3f2900c4       move.w 0xc4(a1), -(a7)
          0x00751b98      4e92           jsr (a2)                    ; fcn.00000009+0x2
          0x00751b9a      544f           addq.w 0x2, a7
          0x00751b9c      43f00046       lea.l 0x46(a0, d0.w), a1
          0x00751ba0      3f2900dc       move.w 0xdc(a1), -(a7)
          0x00751ba4      4e92           jsr (a2)                    ; fcn.00000009+0x2
          0x00751ba6      544f           addq.w 0x2, a7
          0x00751ba8      43f00046       lea.l 0x46(a0, d0.w), a1
      > 0x00751bac      3f290094       move.w 0x94(a1), -(a7)
           0x00751bb0      4e92           jsr (a2)                    ; fcn.00000009+0x2
           0x00751bb2      544f           addq.w 0x2, a7
           0x00751bb4      554f           subq.w 0x2, a7
           0x00751bb6      3f300050       move.w 0x50(a0, d0.w), -(a7)
           0x00751bba      4e94           jsr (a4)                    ; fcn.0000000d
           0x00751bbc      544f           addq.w 0x2, a7
           0x00751bbe      4a1f           tst.b (a7)+
       < 0x00751bc0      6608           bne.b 0x751bca
          0x00751bc2      3f300050       move.w 0x50(a0, d0.w), -(a7)
          0x00751bc6      4e92           jsr (a2)                    ; fcn.00000009+0x2
          0x00751bc8      544f           addq.w 0x2, a7
       > 0x00751bca      4cdf1f1f       movem.l (a7)+, d0-d4/a0-a4
            0x00751bce      4e5e           unlk a6
            0x00751bd0      4e75           rts
 54: MENULIBCOM.hit_recall ();
           0x00751bd2      4e56fff0       link.w a6, 0xfff0
           0x00751bd6      bfd5           cmpa.l (a5), a7
       < 0x00751bd8      6206           bhi.b 0x751be0
          0x00751bda      44fc0002       move.w 0x2, ccr
          0x00751bde      4e76           trapv
       > 0x00751be0      defc0010       adda.w 0x10, a7
           0x00751be4      48e7c000       movem.l d0-d1, -(a7)
           0x00751be8      7204           moveq 0x4, d1
           0x00751bea      302e0008       move.w 0x8(a6), d0
           0x00751bee      0c400001       cmpi.w 0x1, d0
       < 0x00751bf2      6704           beq.b 0x751bf8
          0x00751bf4      b041           cmp.w d1, d0
      < 0x00751bf6      6608           bne.b 0x751c00
      > 0x00751bf8      1f01           move.b d1, -(a7)
          0x00751bfa      4ebafe96       jsr MENULIBCOM.do_sklr(pc)
          0x00751bfe      544f           addq.w 0x2, a7
      > 0x00751c00      4cdf0003       movem.l (a7)+, d0-d1
           0x00751c04      4e5e           unlk a6
           0x00751c06      4e75           rts
            ; CALL XREF from MENULIBCOM.do_save @ 0x751ce6
 52: MENULIBCOM.fps ();
           0x00751c08      4e56fffa       link.w a6, 0xfffa
           0x00751c0c      bfd5           cmpa.l (a5), a7
       < 0x00751c0e      6206           bhi.b 0x751c16
          0x00751c10      44fc0002       move.w 0x2, ccr
          0x00751c14      4e76           trapv
       > 0x00751c16      defc0006       adda.w 0x6, a7
           0x00751c1a      554f           subq.w 0x2, a7
           0x00751c1c      4eb900478a3a   jsr CONFIGCOM.tvsys
           0x00751c22      4a1f           tst.b (a7)+
       < 0x00751c24      660a           bne.b 0x751c30
          0x00751c26      2d7c00000032.  move.l 0x32, 0x8(a6)
      < 0x00751c2e      6008           bra.b 0x751c38
      > 0x00751c30      2d7c0000003c.  move.l 0x3c, 0x8(a6)
      > 0x00751c38      4e5e           unlk a6
           0x00751c3a      4e75           rts
            ; CALL XREF from MENULIBCOM.end_action @ 0x752882
 276: MENULIBCOM.do_save ();
           0x00751c3c      4e56fec4       link.w a6, 0xfec4
           0x00751c40      bfd5           cmpa.l (a5), a7
       < 0x00751c42      6206           bhi.b 0x751c4a
          0x00751c44      44fc0002       move.w 0x2, ccr
          0x00751c48      4e76           trapv
       > 0x00751c4a      defc0136       adda.w 0x136, a7
           0x00751c4e      48e7f8f8       movem.l d0-d4/a0-a4, -(a7)
           0x00751c52      45f90086d27e   lea.l 0x86d27e, a2
           0x00751c58      47f90086d27a   lea.l 0x86d27a, a3
           0x00751c5e      49eefffa       lea.l -0x6(a6), a4
           0x00751c62      7402           moveq 0x2, d2
           0x00751c64      594f           subq.w 0x4, a7
           0x00751c66      4eb900402e30   jsr p_Cur_Ticks
           0x00751c6c      2d5ffffc       move.l (a7)+, -0x4(a6)
           0x00751c70      48780000       pea.l 0x0
           0x00751c74      4227           clr.b -(a7)
           0x00751c76      4227           clr.b -(a7)
           0x00751c78      4eb900662936   jsr K95_CARDS.k9_ch
           0x00751c7e      504f           addq.w 0x8, a7
           0x00751c80      1012           move.b (a2), d0
           0x00751c82      4880           ext.w d0
           0x00751c84      4182           chk.w d2, d0
           0x00751c86      c1fc05d4       muls.w 0x5d4, d0
           0x00751c8a      204b           movea.l a3, a0
           0x00751c8c      594f           subq.w 0x4, a7
           0x00751c8e      43f00046       lea.l 0x46(a0, d0.w), a1
           0x00751c92      3f2905ca       move.w 0x5ca(a1), -(a7)
           0x00751c96      4eb900480fc2   jsr MENUCOM.get_boxon
           0x00751c9c      544f           addq.w 0x2, a7
           0x00751c9e      1217           move.b (a7), d1
           0x00751ca0      4881           ext.w d1
           0x00751ca2      43bc0001       chk.w 0x1, d1
           0x00751ca6      1e81           move.b d1, (a7)
           0x00751ca8      4eb900663506   jsr K95_CARDS.k9_save
           0x00751cae      544f           addq.w 0x2, a7
           0x00751cb0      3897           move.w (a7), (a4)
           0x00751cb2      4eb90047a12a   jsr CONFIGCOM.cfg_timing
           0x00751cb8      4a1f           tst.b (a7)+
       < 0x00751cba      675c           beq.b 0x751d18
          0x00751cbc      487ab555       pea.l 0x74d213(pc)
          0x00751cc0      4878000a       pea.l 0xa
          0x00751cc4      2f17           move.l (a7), -(a7)
          0x00751cc6      4eb9004047ea   jsr p_wts_o
          0x00751ccc      504f           addq.w 0x8, a7
          0x00751cce      4eb900402e30   jsr p_Cur_Ticks
          0x00751cd4      2017           move.l (a7), d0
          0x00751cd6      90aefffc       sub.l -0x4(a6), d0
          0x00751cda      2800           move.l d0, d4
          0x00751cdc      4eb900408650   jsr fcn.00408650
          0x00751ce2      2f04           move.l d4, -(a7)
          0x00751ce4      594f           subq.w 0x4, a7
          0x00751ce6      4ebaff20       jsr MENULIBCOM.fps(pc)
          0x00751cea      281f           move.l (a7)+, d4
          0x00751cec      4eb900408686   jsr fcn.00408686
          0x00751cf2      2604           move.l d4, d3
          0x00751cf4      2817           move.l (a7), d4
          0x00751cf6      4eb900407ff8   jsr fcn.00407ff8
          0x00751cfc      584f           addq.w 0x4, a7
          0x00751cfe      2e84           move.l d4, (a7)
          0x00751d00      48780006       pea.l 0x6
          0x00751d04      48780002       pea.l 0x2
          0x00751d08      4eb900439f72   jsr P17_FRDWRT.p_wtf2_o
          0x00751d0e      defc000c       adda.w 0xc, a7
          0x00751d12      4eb900404946   jsr p_wtln_o
       > 0x00751d18      1012           move.b (a2), d0
           0x00751d1a      4880           ext.w d0
           0x00751d1c      4182           chk.w d2, d0
           0x00751d1e      c1fc05d4       muls.w 0x5d4, d0
           0x00751d22      204b           movea.l a3, a0
           0x00751d24      3214           move.w (a4), d1
           0x00751d26      b27ab4f6       cmp.w 0x74d21e(pc), d1
       < 0x00751d2a      671c           beq.b 0x751d48
          0x00751d2c      3f300052       move.w 0x52(a0, d0.w), -(a7)
          0x00751d30      9efc0100       suba.w 0x100, a7
          0x00751d34      3f14           move.w (a4), -(a7)
          0x00751d36      4eb9005b071e   jsr K3_UTILS.k3_full_string
          0x00751d3c      544f           addq.w 0x2, a7
          0x00751d3e      4eb900757cb6   jsr MENULIBFNDCOM.big_box_error
          0x00751d44      defc0102       adda.w 0x102, a7
       > 0x00751d48      4cdf1f1f       movem.l (a7)+, d0-d4/a0-a4
           0x00751d4c      4e5e           unlk a6
           0x00751d4e      4e75           rts
            ; CALL XREF from MENULIBCOM.end_action @ 0x752854
 156: MENULIBCOM.do_retitle ();
           0x00751d50      4e56fdda       link.w a6, 0xfdda
           0x00751d54      bfd5           cmpa.l (a5), a7
       < 0x00751d56      6206           bhi.b 0x751d5e
          0x00751d58      44fc0002       move.w 0x2, ccr
          0x00751d5c      4e76           trapv
       > 0x00751d5e      defc0124       adda.w 0x124, a7
           0x00751d62      48e7c0f0       movem.l d0-d1/a0-a3, -(a7)
           0x00751d66      47eefefe       lea.l -0x102(a6), a3
           0x00751d6a      554f           subq.w 0x2, a7
           0x00751d6c      4eb90064aaf0   jsr K9_LIBRARY.k9_retitle
           0x00751d72      3697           move.w (a7), (a3)
           0x00751d74      9efc00fe       suba.w 0xfe, a7
           0x00751d78      3f13           move.w (a3), -(a7)
           0x00751d7a      4eb9005b071e   jsr K3_UTILS.k3_full_string
           0x00751d80      544f           addq.w 0x2, a7
           0x00751d82      41eeff00       lea.l -0x100(a6), a0
           0x00751d86      703f           moveq 0x3f, d0
       > 0x00751d88      20df           move.l (a7)+, (a0)+
       < 0x00751d8a      51c8fffc       dbra d0, 0x751d88
           0x00751d8e      1f3c0001       move.b 0x1, -(a7)
           0x00751d92      4ebabb00       jsr MENULIBCOM.abort_retitle(pc)
           0x00751d96      544f           addq.w 0x2, a7
           0x00751d98      10390086d27e   move.b 0x86d27e, d0
           0x00751d9e      4880           ext.w d0
           0x00751da0      41bc0002       chk.w 0x2, d0
           0x00751da4      c1fc05d4       muls.w 0x5d4, d0
           0x00751da8      41f90086d27a   lea.l 0x86d27a, a0
           0x00751dae      1213           move.b (a3), d1
           0x00751db0      b23ab46f       cmp.b 0x74d221(pc), d1
       < 0x00751db4      6608           bne.b 0x751dbe
          0x00751db6      122efeff       move.b -0x101(a6), d1
          0x00751dba      b23ab466       cmp.b 0x74d222(pc), d1
      > 0x00751dbe      6724           beq.b 0x751de4
          0x00751dc0      43f00046       lea.l 0x46(a0, d0.w), a1
          0x00751dc4      3f2905c8       move.w 0x5c8(a1), -(a7)
          0x00751dc8      9efc0100       suba.w 0x100, a7
          0x00751dcc      224f           movea.l a7, a1
          0x00751dce      45eeff00       lea.l -0x100(a6), a2
          0x00751dd2      723f           moveq 0x3f, d1
      > 0x00751dd4      22da           move.l (a2)+, (a1)+
      < 0x00751dd6      51c9fffc       dbra d1, 0x751dd4
          0x00751dda      4eb900757cb6   jsr MENULIBFNDCOM.big_box_error
          0x00751de0      defc0102       adda.w 0x102, a7
      > 0x00751de4      4cdf0f03       movem.l (a7)+, d0-d1/a0-a3
           0x00751de8      4e5e           unlk a6
           0x00751dea      4e75           rts
            ; CALL XREF from MENULIBCOM.end_action @ 0x7528a6
 100: MENULIBCOM.clear_spec ();
           0x00751dec      4e56ffe8       link.w a6, 0xffe8
           0x00751df0      bfd5           cmpa.l (a5), a7
       < 0x00751df2      6206           bhi.b 0x751dfa
          0x00751df4      44fc0002       move.w 0x2, ccr
          0x00751df8      4e76           trapv
       > 0x00751dfa      defc0018       adda.w 0x18, a7
           0x00751dfe      48e780c0       movem.l d0/a0-a1, -(a7)
           0x00751e02      43ee0008       lea.l 0x8(a6), a1
           0x00751e06      10390086d27e   move.b 0x86d27e, d0
           0x00751e0c      4880           ext.w d0
           0x00751e0e      41bc0002       chk.w 0x2, d0
           0x00751e12      c1fc05d4       muls.w 0x5d4, d0
           0x00751e16      41f90086d27a   lea.l 0x86d27a, a0
           0x00751e1c      4227           clr.b -(a7)
           0x00751e1e      1011           move.b (a1), d0
           0x00751e20      4880           ext.w d0
           0x00751e22      013ab400       btst.l d0, 0x74d224(pc)
       < 0x00751e26      6702           beq.b 0x751e2a
          0x00751e28      5217           addq.b 0x1, (a7)
       > 0x00751e2a      4eb90040452a   jsr p_Assert
           0x00751e30      1e91           move.b (a1), (a7)
           0x00751e32      4ebac456       jsr MENULIBCOM.upd_vol(pc)
           0x00751e36      544f           addq.w 0x2, a7
           0x00751e38      48780000       pea.l 0x0
           0x00751e3c      1f11           move.b (a1), -(a7)
           0x00751e3e      4227           clr.b -(a7)
           0x00751e40      4eb900662936   jsr K95_CARDS.k9_ch
           0x00751e46      504f           addq.w 0x8, a7
           0x00751e48      4cdf0301       movem.l (a7)+, d0/a0-a1
           0x00751e4c      4e5e           unlk a6
           0x00751e4e      4e75           rts
 30: MENULIBCOM.force_drive_upd ();
           0x00751e50      4e56fffc       link.w a6, 0xfffc
           0x00751e54      bfd5           cmpa.l (a5), a7
       < 0x00751e56      6206           bhi.b 0x751e5e
          0x00751e58      44fc0002       move.w 0x2, ccr
          0x00751e5c      4e76           trapv
       > 0x00751e5e      defc0004       adda.w 0x4, a7
           0x00751e62      13fc00010086.  move.b 0x1, 0x86d281.l
           0x00751e6a      4e5e           unlk a6
           0x00751e6c      4e75           rts
 132: MENULIBCOM.hit_panel ();
           0x00751e6e      4e56ffe6       link.w a6, 0xffe6
           0x00751e72      bfd5           cmpa.l (a5), a7
       < 0x00751e74      6206           bhi.b 0x751e7c
          0x00751e76      44fc0002       move.w 0x2, ccr
          0x00751e7a      4e76           trapv
       > 0x00751e7c      defc0018       adda.w 0x18, a7
           0x00751e80      48e7e000       movem.l d0-d2, -(a7)
           0x00751e84      7401           moveq 0x1, d2
           0x00751e86      554f           subq.w 0x2, a7
           0x00751e88      4eb90064b742   jsr K9_LIBRARY.k9_screen_state
           0x00751e8e      101f           move.b (a7)+, d0
           0x00751e90      4880           ext.w d0
           0x00751e92      41bc0006       chk.w 0x6, d0
           0x00751e96      1d40fffe       move.b d0, -0x2(a6)
           0x00751e9a      1f02           move.b d2, -(a7)
           0x00751e9c      554f           subq.w 0x2, a7
           0x00751e9e      3f3c00bf       move.w 0xbf, -(a7)
           0x00751ea2      4eb900480fc2   jsr MENUCOM.get_boxon
           0x00751ea8      544f           addq.w 0x2, a7
           0x00751eaa      1217           move.b (a7), d1
           0x00751eac      4881           ext.w d1
           0x00751eae      4382           chk.w d2, d1
           0x00751eb0      1e81           move.b d1, (a7)
           0x00751eb2      4eb90064b994   jsr K9_LIBRARY.k9_show_display
           0x00751eb8      544f           addq.w 0x2, a7
           0x00751eba      3eae000a       move.w 0xa(a6), (a7)
           0x00751ebe      3f2e0008       move.w 0x8(a6), -(a7)
           0x00751ec2      4eb900728d9c   jsr MENUPANELCOM.hit_presentatio
           0x00751ec8      544f           addq.w 0x2, a7
           0x00751eca      1e80           move.b d0, (a7)
           0x00751ecc      554f           subq.w 0x2, a7
           0x00751ece      3f3c00bf       move.w 0xbf, -(a7)
           0x00751ed2      4eb900480fc2   jsr MENUCOM.get_boxon
           0x00751ed8      544f           addq.w 0x2, a7
           0x00751eda      1017           move.b (a7), d0
           0x00751edc      4880           ext.w d0
           0x00751ede      4182           chk.w d2, d0
           0x00751ee0      1e80           move.b d0, (a7)
           0x00751ee2      4eb90064b994   jsr K9_LIBRARY.k9_show_display
           0x00751ee8      584f           addq.w 0x4, a7
           0x00751eea      4cdf0007       movem.l (a7)+, d0-d2
           0x00751eee      4e5e           unlk a6
           0x00751ef0      4e75           rts
            ; CALL XREF from MENULIBCOM.hit_library @ 0x752b12
            ; CALL XREFS from MENULIBCOM.init_boxes @ 0x756820, 0x7573b2
 94: MENULIBCOM.select_library ();
           0x00751ef2      4e56ffe6       link.w a6, 0xffe6
           0x00751ef6      bfd5           cmpa.l (a5), a7
       < 0x00751ef8      6206           bhi.b 0x751f00
          0x00751efa      44fc0002       move.w 0x2, ccr
          0x00751efe      4e76           trapv
       > 0x00751f00      defc001a       adda.w 0x1a, a7
           0x00751f04      48e780f0       movem.l d0/a0-a3, -(a7)
           0x00751f08      41ee0008       lea.l 0x8(a6), a0
           0x00751f0c      43f90086d27e   lea.l 0x86d27e, a1
           0x00751f12      45f90086d27f   lea.l 0x86d27f, a2
           0x00751f18      47f90086d280   lea.l 0x86d280, a3
           0x00751f1e      1290           move.b (a0), (a1)
           0x00751f20      1f10           move.b (a0), -(a7)
           0x00751f22      4eb900643102   jsr K9_LIBRARY.k9_select_libra
           0x00751f28      1e90           move.b (a0), (a7)
           0x00751f2a      4eb900758624   jsr MENULIBFNDCOM.select_fnd_libr
           0x00751f30      544f           addq.w 0x2, a7
           0x00751f32      4212           clr.b (a2)
           0x00751f34      1011           move.b (a1), d0
           0x00751f36      0c000001       cmpi.b 0x1, d0
       < 0x00751f3a      6602           bne.b 0x751f3e
          0x00751f3c      5212           addq.b 0x1, (a2)
       > 0x00751f3e      4213           clr.b (a3)
           0x00751f40      0c000002       cmpi.b 0x2, d0
       < 0x00751f44      6602           bne.b 0x751f48
          0x00751f46      5213           addq.b 0x1, (a3)
       > 0x00751f48      4cdf0f01       movem.l (a7)+, d0/a0-a3
           0x00751f4c      4e5e           unlk a6
           0x00751f4e      4e75           rts
 604: MENULIBCOM.hit_save_gridde ();
           0x00751f50      4e56ff98       link.w a6, 0xff98
           0x00751f54      bfd5           cmpa.l (a5), a7
       < 0x00751f56      6206           bhi.b 0x751f5e
          0x00751f58      44fc0002       move.w 0x2, ccr
          0x00751f5c      4e76           trapv
       > 0x00751f5e      defc0058       adda.w 0x58, a7
           0x00751f62      48e7fff8       movem.l d0-d7/a0-a4, -(a7)
           0x00751f66      49f900407e92   lea.l fcn.00407e92, a4
           0x00751f6c      7a01           moveq 0x1, d5
           0x00751f6e      7c10           moveq 0x10, d6
           0x00751f70      10390086d27e   move.b 0x86d27e, d0
           0x00751f76      4880           ext.w d0
           0x00751f78      c1fc05d4       muls.w 0x5d4, d0
           0x00751f7c      41f90086d27a   lea.l 0x86d27a, a0
           0x00751f82      322e0008       move.w 0x8(a6), d1
           0x00751f86      b245           cmp.w d5, d1
       < 0x00751f88      660001de       bne.w 0x752168
          0x00751f8c      514f           subq.w 0x8, a7
          0x00751f8e      4eb90050050a   jsr MENUGRIDCOM.crnt_grid_area
          0x00751f94      2d5ffff0       move.l (a7)+, -0x10(a6)
          0x00751f98      2d5ffff4       move.l (a7)+, -0xc(a6)
          0x00751f9c      2f3ab288       move.l 0x74d226(pc), -(a7)
          0x00751fa0      43f00046       lea.l 0x46(a0, d0.w), a1
          0x00751fa4      3f2905ca       move.w 0x5ca(a1), -(a7)
          0x00751fa8      486f0002       pea.l 0x2(a7)
          0x00751fac      3f05           move.w d5, -(a7)
          0x00751fae      3f3c0004       move.w 0x4, -(a7)
          0x00751fb2      4eb900481c8e   jsr MENUCOM.add_text_all
          0x00751fb8      defc000e       adda.w 0xe, a7
          0x00751fbc      43f00046       lea.l 0x46(a0, d0.w), a1
          0x00751fc0      3f2905cc       move.w 0x5cc(a1), -(a7)
          0x00751fc4      4eb90048247c   jsr MENUCOM.clear_box
          0x00751fca      3ea905cc       move.w 0x5cc(a1), (a7)
          0x00751fce      594f           subq.w 0x4, a7
          0x00751fd0      3f3c0057       move.w 0x57, -(a7)
          0x00751fd4      4eb90048d992   jsr MENU2COM.get_numeric_val
          0x00751fda      4257           clr.w (a7)
          0x00751fdc      4267           clr.w -(a7)
          0x00751fde      4eb900482648   jsr MENUCOM.add_numeric
          0x00751fe4      244f           movea.l a7, a2
          0x00751fe6      47fab243       lea.l 0x74d22b(pc), a3
          0x00751fea      7408           moveq 0x8, d2
      > 0x00751fec      14db           move.b (a3)+, (a2)+
      < 0x00751fee      51cafffc       dbra d2, 0x751fec
          0x00751ff2      3f2905cc       move.w 0x5cc(a1), -(a7)
          0x00751ff6      486f0002       pea.l 0x2(a7)
          0x00751ffa      3f05           move.w d5, -(a7)
          0x00751ffc      3f3c0009       move.w 0x9, -(a7)
          0x00752000      4eb900482560   jsr MENUCOM.add_text
          0x00752006      dec6           adda.w d6, a7
          0x00752008      4eb900633bb2   jsr HANDCOM.get_pixel_aspec
          0x0075200e      2d57fffc       move.l (a7), -0x4(a6)
          0x00752012      3f3c0057       move.w 0x57, -(a7)
          0x00752016      4eb90048d992   jsr MENU2COM.get_numeric_val
          0x0075201c      544f           addq.w 0x2, a7
          0x0075201e      281f           move.l (a7)+, d4
          0x00752020      263c3c23d70a   move.l 0x3c23d70a, d3
          0x00752026      4e94           jsr (a4)                    ; fcn.0000000d
          0x00752028      2e04           move.l d4, d7
          0x0075202a      342efffe       move.w -0x2(a6), d2
          0x0075202e      c5eefff4       muls.w -0xc(a6), d2
          0x00752032      2802           move.l d2, d4
          0x00752034      4eb900408686   jsr fcn.00408686
          0x0075203a      2607           move.l d7, d3
          0x0075203c      4e94           jsr (a4)                    ; fcn.0000000d
          0x0075203e      594f           subq.w 0x4, a7
          0x00752040      3f2905ce       move.w 0x5ce(a1), -(a7)
          0x00752044      4eb90048d992   jsr MENU2COM.get_numeric_val
          0x0075204a      544f           addq.w 0x2, a7
          0x0075204c      261f           move.l (a7)+, d3
          0x0075204e      4e94           jsr (a4)                    ; fcn.0000000d
          0x00752050      2f04           move.l d4, -(a7)
          0x00752052      382efffc       move.w -0x4(a6), d4
          0x00752056      48c4           ext.l d4
          0x00752058      4eb900408686   jsr fcn.00408686
          0x0075205e      2604           move.l d4, d3
          0x00752060      2817           move.l (a7), d4
          0x00752062      4eb900407ff8   jsr fcn.00407ff8
          0x00752068      584f           addq.w 0x4, a7
          0x0075206a      4eb900408224   jsr fcn.00408224
          0x00752070      0484ffff8000   subi.l 0xffff8000, d4
          0x00752076      0c840000ffff   cmpi.l 0xffff, d4
      < 0x0075207c      6302           bls.b 0x752080
         0x0075207e      4e4f           trap 0xf
      > 0x00752080      0684ffff8000   addi.l 0xffff8000, d4
          0x00752086      3d44fff4       move.w d4, -0xc(a6)
          0x0075208a      382efff6       move.w -0xa(a6), d4
          0x0075208e      48c4           ext.l d4
          0x00752090      4eb900408686   jsr fcn.00408686
          0x00752096      2607           move.l d7, d3
          0x00752098      4e94           jsr (a4)                    ; fcn.0000000d
          0x0075209a      594f           subq.w 0x4, a7
          0x0075209c      3f2905d0       move.w 0x5d0(a1), -(a7)
          0x007520a0      4eb90048d992   jsr MENU2COM.get_numeric_val
          0x007520a6      544f           addq.w 0x2, a7
          0x007520a8      261f           move.l (a7)+, d3
          0x007520aa      4e94           jsr (a4)                    ; fcn.0000000d
          0x007520ac      4eb900408224   jsr fcn.00408224
          0x007520b2      0484ffff8000   subi.l 0xffff8000, d4
          0x007520b8      0c840000ffff   cmpi.l 0xffff, d4
      < 0x007520be      6302           bls.b 0x7520c2
         0x007520c0      4e4f           trap 0xf
      > 0x007520c2      0684ffff8000   addi.l 0xffff8000, d4
          0x007520c8      3d44fff6       move.w d4, -0xa(a6)
          0x007520cc      3f04           move.w d4, -(a7)
          0x007520ce      3f2905cc       move.w 0x5cc(a1), -(a7)
          0x007520d2      382efff4       move.w -0xc(a6), d4
          0x007520d6      48c4           ext.l d4
          0x007520d8      4eb900408686   jsr fcn.00408686
          0x007520de      2f04           move.l d4, -(a7)
          0x007520e0      4267           clr.w -(a7)
          0x007520e2      4267           clr.w -(a7)
          0x007520e4      4eb900482648   jsr MENUCOM.add_numeric
          0x007520ea      5c4f           addq.w 0x6, a7
          0x007520ec      1ebab147       move.b 0x74d235(pc), (a7)
          0x007520f0      1f7ab1440001   move.b 0x74d236(pc), 0x1(a7)
          0x007520f6      1f7ab13f0002   move.b 0x74d237(pc), 0x2(a7)
          0x007520fc      3f2905cc       move.w 0x5cc(a1), -(a7)
          0x00752100      486f0002       pea.l 0x2(a7)
          0x00752104      3f05           move.w d5, -(a7)
          0x00752106      3f3c0003       move.w 0x3, -(a7)
          0x0075210a      4eb900482560   jsr MENUCOM.add_text
          0x00752110      defc000c       adda.w 0xc, a7
          0x00752114      3ea905cc       move.w 0x5cc(a1), (a7)
          0x00752118      382f0002       move.w 0x2(a7), d4
          0x0075211c      48c4           ext.l d4
          0x0075211e      4eb900408686   jsr fcn.00408686
          0x00752124      2f04           move.l d4, -(a7)
          0x00752126      4267           clr.w -(a7)
          0x00752128      4267           clr.w -(a7)
          0x0075212a      4eb900482648   jsr MENUCOM.add_numeric
          0x00752130      584f           addq.w 0x4, a7
          0x00752132      244f           movea.l a7, a2
          0x00752134      47fab103       lea.l 0x74d239(pc), a3
          0x00752138      7406           moveq 0x6, d2
      > 0x0075213a      14db           move.b (a3)+, (a2)+
      < 0x0075213c      51cafffc       dbra d2, 0x75213a
          0x00752140      3f2905cc       move.w 0x5cc(a1), -(a7)
          0x00752144      486f0002       pea.l 0x2(a7)
          0x00752148      3f05           move.w d5, -(a7)
          0x0075214a      3f3c0007       move.w 0x7, -(a7)
          0x0075214e      4eb900482560   jsr MENUCOM.add_text
          0x00752154      dec6           adda.w d6, a7
          0x00752156      3ea905cc       move.w 0x5cc(a1), (a7)
          0x0075215a      4eb900481472   jsr MENUCOM.draw_box
          0x00752160      1ebc0015       move.b 0x15, (a7)
          0x00752164      3f05           move.w d5, -(a7)
      < 0x00752166      6034           bra.b 0x75219c
      > 0x00752168      4a41           tst.w d1
      < 0x0075216a      6638           bne.b 0x7521a4
         0x0075216c      514f           subq.w 0x8, a7
         0x0075216e      224f           movea.l a7, a1
         0x00752170      45fab0cf       lea.l 0x74d241(pc), a2
         0x00752174      7407           moveq 0x7, d2
     > 0x00752176      12da           move.b (a2)+, (a1)+
     < 0x00752178      51cafffc       dbra d2, 0x752176
         0x0075217c      43f00046       lea.l 0x46(a0, d0.w), a1
         0x00752180      3f2905ca       move.w 0x5ca(a1), -(a7)
         0x00752184      486f0002       pea.l 0x2(a7)
         0x00752188      3f05           move.w d5, -(a7)
         0x0075218a      3f3c0008       move.w 0x8, -(a7)
         0x0075218e      4eb900481c8e   jsr MENUCOM.add_text_all
         0x00752194      dec6           adda.w d6, a7
         0x00752196      1ebc0015       move.b 0x15, (a7)
         0x0075219a      4267           clr.w -(a7)
      > 0x0075219c      4eb900475054   jsr CONFIG.put_menu_config
          0x007521a2      584f           addq.w 0x4, a7
       > 0x007521a4      4cdf1fff       movem.l (a7)+, d0-d7/a0-a4
           0x007521a8      4e5e           unlk a6
           0x007521aa      4e75           rts
            0x007521ac      4e56ffdc       link.w a6, 0xffdc
            0x007521b0      bfd5           cmpa.l (a5), a7
        < 0x007521b2      6206           bhi.b 0x7521ba
           0x007521b4      44fc0002       move.w 0x2, ccr
           0x007521b8      4e76           trapv
        > 0x007521ba      defc0024       adda.w 0x24, a7
            0x007521be      48e7c0c0       movem.l d0-d1/a0-a1, -(a7)
            0x007521c2      302e0008       move.w 0x8(a6), d0
            0x007521c6      41fab082       lea.l 0x74d24a(pc), a0
            0x007521ca      3200           move.w d0, d1
            0x007521cc      e649           lsr.w 0x3, d1
            0x007521ce      0c410020       cmpi.w 0x20, d1
        < 0x007521d2      6d04           blt.b 0x7521d8
           0x007521d4      7200           moveq 0x0, d1
       < 0x007521d6      6004           bra.b 0x7521dc
       > 0x007521d8      01301000       btst.l d0, (a0, d1.w)
       < 0x007521dc      675e           beq.b 0x75223c
           0x007521de      10390086d27e   move.b 0x86d27e, d0
           0x007521e4      4880           ext.w d0
           0x007521e6      c1fc05d4       muls.w 0x5d4, d0
           0x007521ea      41f90086d27a   lea.l 0x86d27a, a0
           0x007521f0      594f           subq.w 0x4, a7
           0x007521f2      43f00046       lea.l 0x46(a0, d0.w), a1
           0x007521f6      3f2905ce       move.w 0x5ce(a1), -(a7)
           0x007521fa      4eb90048d992   jsr MENU2COM.get_numeric_val
           0x00752200      554f           subq.w 0x2, a7
           0x00752202      43f00046       lea.l 0x46(a0, d0.w), a1
           0x00752206      3f2905d0       move.w 0x5d0(a1), -(a7)
           0x0075220a      4eb90048d992   jsr MENU2COM.get_numeric_val
           0x00752210      544f           addq.w 0x2, a7
           0x00752212      4eb90064bf98   jsr K9_LIBRARY.k9_set_export_m
           0x00752218      5c4f           addq.w 0x6, a7
           0x0075221a      43f00046       lea.l 0x46(a0, d0.w), a1
           0x0075221e      3f2905ca       move.w 0x5ca(a1), -(a7)
           0x00752222      4eb900480fc2   jsr MENUCOM.get_boxon
           0x00752228      544f           addq.w 0x2, a7
           0x0075222a      4a1f           tst.b (a7)+
       < 0x0075222c      670e           beq.b 0x75223c
          0x0075222e      3f2e000a       move.w 0xa(a6), -(a7)
          0x00752232      3f3c0001       move.w 0x1, -(a7)
          0x00752236      4ebafd18       jsr MENULIBCOM.hit_save_gridde(pc)
          0x0075223a      584f           addq.w 0x4, a7
       > 0x0075223c      4cdf0303       movem.l (a7)+, d0-d1/a0-a1
            0x00752240      4e5e           unlk a6
            0x00752242      4e75           rts
            ; CALL XREF from MENULIBFNDCOM.hit_item @ 0x759a0c
 84: MENULIBCOM.hit_retitle ();
           0x00752244      4e56ffe6       link.w a6, 0xffe6
           0x00752248      bfd5           cmpa.l (a5), a7
       < 0x0075224a      6206           bhi.b 0x752252
          0x0075224c      44fc0002       move.w 0x2, ccr
          0x00752250      4e76           trapv
       > 0x00752252      defc0014       adda.w 0x14, a7
           0x00752256      48e70100       movem.l d7, -(a7)
           0x0075225a      554f           subq.w 0x2, a7
           0x0075225c      3f3c00bf       move.w 0xbf, -(a7)
           0x00752260      4eb900480fc2   jsr MENUCOM.get_boxon
           0x00752266      544f           addq.w 0x2, a7
           0x00752268      4a1f           tst.b (a7)+
       < 0x0075226a      6704           beq.b 0x752270
          0x0075226c      7e00           moveq 0x0, d7
      < 0x0075226e      6002           bra.b 0x752272
      > 0x00752270      7e80           moveq 0x80, d7
      > 0x00752272      2f2e0008       move.l 0x8(a6), -(a7)
           0x00752276      2f07           move.l d7, -(a7)
           0x00752278      486efffa       pea.l -0x6(a6)
           0x0075227c      4eb90064a268   jsr K9_LIBRARY.k9_hit_retitle
           0x00752282      defc000a       adda.w 0xa, a7
           0x00752286      1eaefffa       move.b -0x6(a6), (a7)
           0x0075228a      4ebaf404       jsr fcn.00751690(pc)
           0x0075228e      544f           addq.w 0x2, a7
           0x00752290      4cdf0080       movem.l (a7)+, d7
           0x00752294      4e5e           unlk a6
           0x00752296      4e75           rts
 100: MENULIBCOM.lib_hit_skl ();
           0x00752298      4e56ffe0       link.w a6, 0xffe0
           0x0075229c      bfd5           cmpa.l (a5), a7
       < 0x0075229e      6206           bhi.b 0x7522a6
          0x007522a0      44fc0002       move.w 0x2, ccr
          0x007522a4      4e76           trapv
       > 0x007522a6      defc001a       adda.w 0x1a, a7
           0x007522aa      48e78100       movem.l d0/d7, -(a7)
           0x007522ae      554f           subq.w 0x2, a7
           0x007522b0      3f3c00bf       move.w 0xbf, -(a7)
           0x007522b4      4eb900480fc2   jsr MENUCOM.get_boxon
           0x007522ba      544f           addq.w 0x2, a7
           0x007522bc      4a1f           tst.b (a7)+
       < 0x007522be      6704           beq.b 0x7522c4
          0x007522c0      7e00           moveq 0x0, d7
      < 0x007522c2      6002           bra.b 0x7522c6
      > 0x007522c4      7e80           moveq 0x80, d7
      > 0x007522c6      102e000c       move.b 0xc(a6), d0
           0x007522ca      4880           ext.w d0
           0x007522cc      41bc0003       chk.w 0x3, d0
           0x007522d0      1f00           move.b d0, -(a7)
           0x007522d2      2f2e0008       move.l 0x8(a6), -(a7)
           0x007522d6      2f07           move.l d7, -(a7)
           0x007522d8      486efffa       pea.l -0x6(a6)
           0x007522dc      4eb900662a96   jsr K95_CARDS.k9_hit
           0x007522e2      defc000c       adda.w 0xc, a7
           0x007522e6      1eae000c       move.b 0xc(a6), (a7)
           0x007522ea      1f2efffa       move.b -0x6(a6), -(a7)
           0x007522ee      4ebaf1a2       jsr MENULIBCOM.non_box_select_(pc)
           0x007522f2      584f           addq.w 0x4, a7
           0x007522f4      4cdf0081       movem.l (a7)+, d0/d7
           0x007522f8      4e5e           unlk a6
           0x007522fa      4e75           rts
            ; CALL XREFS from MENULIBCOM.hit_save @ 0x751260, 0x7512ae
            ; CALL XREF from MENULIBFNDCOM.hit_action_sele @ 0x758d18
 174: MENULIBCOM.set_save_disk_g ();
           0x007522fc      4e56ffb2       link.w a6, 0xffb2
           0x00752300      bfd5           cmpa.l (a5), a7
       < 0x00752302      6206           bhi.b 0x75230a
          0x00752304      44fc0002       move.w 0x2, ccr
          0x00752308      4e76           trapv
       > 0x0075230a      defc003c       adda.w 0x3c, a7
           0x0075230e      48e7db80       movem.l d0-d1/d3-d4/d6-d7/a0, -(a7)
           0x00752312      4a2e0008       tst.b 0x8(a6)
       < 0x00752316      6704           beq.b 0x75231c
          0x00752318      7c1b           moveq 0x1b, d6
      < 0x0075231a      6002           bra.b 0x75231e
      > 0x0075231c      7c14           moveq 0x14, d6
      > 0x0075231e      7e01           moveq 0x1, d7
       > 0x00752320      514f           subq.w 0x8, a7
          0x00752322      2f06           move.l d6, -(a7)
          0x00752324      2f07           move.l d7, -(a7)
          0x00752326      48780003       pea.l 0x3
          0x0075232a      48780001       pea.l 0x1
          0x0075232e      486efffe       pea.l -0x2(a6)
          0x00752332      4eb900485c68   jsr MENUCOM.calc_boxarea
          0x00752338      defc0014       adda.w 0x14, a7
          0x0075233c      2d5ffff6       move.l (a7)+, -0xa(a6)
          0x00752340      2d5ffffa       move.l (a7)+, -0x6(a6)
          0x00752344      10390086d27e   move.b 0x86d27e, d0
          0x0075234a      4880           ext.w d0
          0x0075234c      c1fc05d4       muls.w 0x5d4, d0
          0x00752350      2207           move.l d7, d1
          0x00752352      5381           subq.l 0x1, d1
          0x00752354      0c8100000004   cmpi.l 0x4, d1
      < 0x0075235a      6302           bls.b 0x75235e
         0x0075235c      4e4f           trap 0xf
      > 0x0075235e      2801           move.l d1, d4
          0x00752360      7606           moveq 0x6, d3
          0x00752362      4eb900406a74   jsr fcn.00406a74
          0x00752368      41f90086d27a   lea.l 0x86d27a, a0
          0x0075236e      41f00000       lea.l (a0, d0.w), a0
          0x00752372      41f04800       lea.l (a0, d4.l), a0
          0x00752376      3f280452       move.w 0x452(a0), -(a7)
          0x0075237a      2f2efffa       move.l -0x6(a6), -(a7)
          0x0075237e      2f2efff6       move.l -0xa(a6), -(a7)
          0x00752382      4eb9004841ca   jsr MENUCOM.set_box_area
          0x00752388      defc000a       adda.w 0xa, a7
          0x0075238c      5287           addq.l 0x1, d7
          0x0075238e      0c8700000005   cmpi.l 0x5, d7
       < 0x00752394      6f8a           ble.b 0x752320
           0x00752396      4227           clr.b -(a7)
           0x00752398      1f3c0006       move.b 0x6, -(a7)
           0x0075239c      4ebabd0e       jsr MENULIBCOM.set_skls_disk_g(pc)
           0x007523a0      584f           addq.w 0x4, a7
           0x007523a2      4cdf01db       movem.l (a7)+, d0-d1/d3-d4/d6-d7/a0
           0x007523a6      4e5e           unlk a6
           0x007523a8      4e75           rts
            ; CALL XREF from MENULIBFNDCOM.hit_action_sele @ 0x758c72
 88: MENULIBCOM.enable_on_line_ ();
           0x007523aa      4e56ffdc       link.w a6, 0xffdc
           0x007523ae      bfd5           cmpa.l (a5), a7
       < 0x007523b0      6206           bhi.b 0x7523b8
          0x007523b2      44fc0002       move.w 0x2, ccr
          0x007523b6      4e76           trapv
       > 0x007523b8      defc0024       adda.w 0x24, a7
           0x007523bc      48e7c0c0       movem.l d0-d1/a0-a1, -(a7)
           0x007523c0      10390086d27e   move.b 0x86d27e, d0
           0x007523c6      4880           ext.w d0
           0x007523c8      c1fc05d4       muls.w 0x5d4, d0
           0x007523cc      41f90086d27a   lea.l 0x86d27a, a0
           0x007523d2      43f00046       lea.l 0x46(a0, d0.w), a1
           0x007523d6      3f2e0008       move.w 0x8(a6), -(a7)
           0x007523da      554f           subq.w 0x2, a7
           0x007523dc      3f29028e       move.w 0x28e(a1), -(a7)
           0x007523e0      4eb900480fc2   jsr MENUCOM.get_boxon
           0x007523e6      544f           addq.w 0x2, a7
           0x007523e8      1217           move.b (a7), d1
           0x007523ea      4881           ext.w d1
           0x007523ec      43bc0001       chk.w 0x1, d1
           0x007523f0      1e81           move.b d1, (a7)
           0x007523f2      4eb900483972   jsr MENUCOM.set_enable_box
           0x007523f8      584f           addq.w 0x4, a7
           0x007523fa      4cdf0303       movem.l (a7)+, d0-d1/a0-a1
           0x007523fe      4e5e           unlk a6
           0x00752400      4e75           rts
            ; CALL XREF from MENULIBFNDCOM.hit_item @ 0x7599e0
 70: MENULIBCOM.reset_retitle_f ();
           0x00752402      4e56ffe8       link.w a6, 0xffe8
           0x00752406      bfd5           cmpa.l (a5), a7
       < 0x00752408      6206           bhi.b 0x752410
          0x0075240a      44fc0002       move.w 0x2, ccr
          0x0075240e      4e76           trapv
       > 0x00752410      defc0018       adda.w 0x18, a7
           0x00752414      48e780c0       movem.l d0/a0-a1, -(a7)
           0x00752418      10390086d27e   move.b 0x86d27e, d0
           0x0075241e      4880           ext.w d0
           0x00752420      c1fc05d4       muls.w 0x5d4, d0
           0x00752424      41f90086d27a   lea.l 0x86d27a, a0
           0x0075242a      21ae0008004a   move.l 0x8(a6), 0x4a(a0, d0.w)
           0x00752430      43f00046       lea.l 0x46(a0, d0.w), a1
           0x00752434      3f2900f4       move.w 0xf4(a1), -(a7)
           0x00752438      4eb9004836a4   jsr MENUCOM.push_box
           0x0075243e      544f           addq.w 0x2, a7
           0x00752440      4cdf0301       movem.l (a7)+, d0/a0-a1
           0x00752444      4e5e           unlk a6
           0x00752446      4e75           rts
            ; CALL XREF from MENULIBFNDCOM.pb_show_message @ 0x757e26
 30: MENULIBCOM.lib_menu_corrup ();
           0x00752448      4e56fffc       link.w a6, 0xfffc
           0x0075244c      bfd5           cmpa.l (a5), a7
       < 0x0075244e      6206           bhi.b 0x752456
          0x00752450      44fc0002       move.w 0x2, ccr
          0x00752454      4e76           trapv
       > 0x00752456      defc0004       adda.w 0x4, a7
           0x0075245a      13fc00010086.  move.b 0x1, 0x86d2b2.l
           0x00752462      4e5e           unlk a6
           0x00752464      4e75           rts
            ; CALL XREF from MENUPASTECOM.hit_auto_save @ 0x4b2f8a
 104: MENULIBCOM.dest_disk_str ();
           0x00752466      4e56fece       link.w a6, 0xfece
           0x0075246a      bfd5           cmpa.l (a5), a7
       < 0x0075246c      6206           bhi.b 0x752474
          0x0075246e      44fc0002       move.w 0x2, ccr
          0x00752472      4e76           trapv
       > 0x00752474      defc002c       adda.w 0x2c, a7
           0x00752478      48e7c0c0       movem.l d0-d1/a0-a1, -(a7)
           0x0075247c      7206           moveq 0x6, d1
           0x0075247e      4227           clr.b -(a7)
           0x00752480      1f01           move.b d1, -(a7)
           0x00752482      2f3aae04       move.l 0x74d288(pc), -(a7)
           0x00752486      2f3aadfc       move.l 0x74d284(pc), -(a7)
           0x0075248a      2f3aaa90       move.l 0x74cf1c(pc), -(a7)
           0x0075248e      2f3aaa88       move.l 0x74cf18(pc), -(a7)
           0x00752492      486efffe       pea.l -0x2(a6)
           0x00752496      4eb90066233a   jsr K95_CARDS.k9_upd_vol
           0x0075249c      defc0016       adda.w 0x16, a7
           0x007524a0      4217           clr.b (a7)
           0x007524a2      1f01           move.b d1, -(a7)
           0x007524a4      486efefa       pea.l -0x106(a6)
           0x007524a8      486efffa       pea.l -0x6(a6)
           0x007524ac      4eb900660be6   jsr K95_CARDS.k9_get_string
           0x007524b2      defc000c       adda.w 0xc, a7
           0x007524b6      41ee0008       lea.l 0x8(a6), a0
           0x007524ba      43eefefa       lea.l -0x106(a6), a1
           0x007524be      703f           moveq 0x3f, d0
       > 0x007524c0      20d9           move.l (a1)+, (a0)+
       < 0x007524c2      51c8fffc       dbra d0, 0x7524c0
           0x007524c6      4cdf0303       movem.l (a7)+, d0-d1/a0-a1
           0x007524ca      4e5e           unlk a6
           0x007524cc      4e75           rts
 40: MENULIBCOM.keep_menulibcom ();
           0x007524ce      4e56fffc       link.w a6, 0xfffc
           0x007524d2      bfd5           cmpa.l (a5), a7
       < 0x007524d4      6206           bhi.b 0x7524dc
          0x007524d6      44fc0002       move.w 0x2, ccr
          0x007524da      4e76           trapv
       > 0x007524dc      defc0004       adda.w 0x4, a7
           0x007524e0      42390086d27e   clr.b 0x86d27e
           0x007524e6      42390086d27f   clr.b 0x86d27f
           0x007524ec      42390086d280   clr.b 0x86d280
           0x007524f2      4e5e           unlk a6
           0x007524f4      4e75           rts
 64: MENULIBCOM.hit_lib_end ();
           0x007524f6      4e56fff2       link.w a6, 0xfff2
           0x007524fa      bfd5           cmpa.l (a5), a7
       < 0x007524fc      6206           bhi.b 0x752504
          0x007524fe      44fc0002       move.w 0x2, ccr
          0x00752502      4e76           trapv
       > 0x00752504      defc000e       adda.w 0xe, a7
           0x00752508      48e78000       movem.l d0, -(a7)
           0x0075250c      302e0008       move.w 0x8(a6), d0
           0x00752510      0c400001       cmpi.w 0x1, d0
       < 0x00752514      6618           bne.b 0x75252e
          0x00752516      554f           subq.w 0x2, a7
          0x00752518      4eb90047dcdc   jsr CNTLCOM.get_control_box
          0x0075251e      3f2e000a       move.w 0xa(a6), -(a7)
          0x00752522      3f3c1412       move.w 0x1412, -(a7)
          0x00752526      4eb90048128c   jsr MENUCOM.box_action
          0x0075252c      5c4f           addq.w 0x6, a7
       > 0x0075252e      4cdf0001       movem.l (a7)+, d0
           0x00752532      4e5e           unlk a6
           0x00752534      4e75           rts
 44: MENULIBCOM.before_sell ();
           0x00752536      4e56fffa       link.w a6, 0xfffa
           0x0075253a      bfd5           cmpa.l (a5), a7
       < 0x0075253c      6206           bhi.b 0x752544
          0x0075253e      44fc0002       move.w 0x2, ccr
          0x00752542      4e76           trapv
       > 0x00752544      defc0006       adda.w 0x6, a7
           0x00752548      4eb9004558e4   jsr CURSORCOM.cursor_off
           0x0075254e      4eb9004558c8   jsr CURSORCOM.grid_off
           0x00752554      4227           clr.b -(a7)
           0x00752556      4eb90047bc6c   jsr CNTLCOM.show_menu
           0x0075255c      544f           addq.w 0x2, a7
           0x0075255e      4e5e           unlk a6
           0x00752560      4e75           rts
 34: MENULIBCOM.after_sell ();
           0x00752562      4e56fffa       link.w a6, 0xfffa
           0x00752566      bfd5           cmpa.l (a5), a7
       < 0x00752568      6206           bhi.b 0x752570
          0x0075256a      44fc0002       move.w 0x2, ccr
          0x0075256e      4e76           trapv
       > 0x00752570      defc0006       adda.w 0x6, a7
           0x00752574      1f3c0001       move.b 0x1, -(a7)
           0x00752578      4eb90047bc6c   jsr CNTLCOM.show_menu
           0x0075257e      544f           addq.w 0x2, a7
           0x00752580      4e5e           unlk a6
           0x00752582      4e75           rts
            ; CALL XREF from MENULIBCOM.kbd_hit @ 0x7527a8
            ; CALL XREF from MENULIBCOM @ +0x63e8
 348: MENULIBCOM.do_key_action ();
           0x00752584      4e56ffcc       link.w a6, 0xffcc
           0x00752588      bfd5           cmpa.l (a5), a7
       < 0x0075258a      6206           bhi.b 0x752592
          0x0075258c      44fc0002       move.w 0x2, ccr
          0x00752590      4e76           trapv
       > 0x00752592      defc0034       adda.w 0x34, a7
           0x00752596      48e7f0f8       movem.l d0-d3/a0-a4, -(a7)
           0x0075259a      45f900480fc2   lea.l MENUCOM.get_boxon, a2
           0x007525a0      47f90086d27e   lea.l 0x86d27e, a3
           0x007525a6      49f90086d27a   lea.l 0x86d27a, a4
           0x007525ac      7601           moveq 0x1, d3
           0x007525ae      1013           move.b (a3), d0
           0x007525b0      4880           ext.w d0
           0x007525b2      c1fc05d4       muls.w 0x5d4, d0
           0x007525b6      204c           movea.l a4, a0
           0x007525b8      122e0008       move.b 0x8(a6), d1
           0x007525bc      4881           ext.w d1
           0x007525be      033aaccc       btst.l d1, 0x74d28c(pc)
       < 0x007525c2      670000e2       beq.w 0x7526a6
          0x007525c6      554f           subq.w 0x2, a7
          0x007525c8      3f300052       move.w 0x52(a0, d0.w), -(a7)
          0x007525cc      4e92           jsr (a2)                    ; fcn.00000009+0x2
          0x007525ce      544f           addq.w 0x2, a7
          0x007525d0      4a1f           tst.b (a7)+
      < 0x007525d2      671e           beq.b 0x7525f2
         0x007525d4      4227           clr.b -(a7)
         0x007525d6      b203           cmp.b d3, d1
     < 0x007525d8      6602           bne.b 0x7525dc
        0x007525da      5217           addq.b 0x1, (a7)
     > 0x007525dc      1417           move.b (a7), d2
         0x007525de      4882           ext.w d2
         0x007525e0      e342           asl.w 0x1, d2
         0x007525e2      43f00046       lea.l 0x46(a0, d0.w), a1
         0x007525e6      43f12000       lea.l (a1, d2.w), a1
         0x007525ea      3ea90080       move.w 0x80(a1), (a7)
     < 0x007525ee      600000ae       bra.w 0x75269e
     > 0x007525f2      554f           subq.w 0x2, a7
         0x007525f4      43f00046       lea.l 0x46(a0, d0.w), a1
         0x007525f8      3f2905c8       move.w 0x5c8(a1), -(a7)
         0x007525fc      4e92           jsr (a2)                    ; fcn.00000009+0x2
         0x007525fe      544f           addq.w 0x2, a7
         0x00752600      4a1f           tst.b (a7)+
     < 0x00752602      671e           beq.b 0x752622
        0x00752604      554f           subq.w 0x2, a7
        0x00752606      3f300046       move.w 0x46(a0, d0.w), -(a7)
        0x0075260a      4e92           jsr (a2)                    ; fcn.00000009+0x2
        0x0075260c      544f           addq.w 0x2, a7
        0x0075260e      4a1f           tst.b (a7)+
    < 0x00752610      6710           beq.b 0x752622
       0x00752612      4227           clr.b -(a7)
       0x00752614      b203           cmp.b d3, d1
   < 0x00752616      6602           bne.b 0x75261a
      0x00752618      5217           addq.b 0x1, (a7)
   > 0x0075261a      4ebaf344       jsr MENULIBCOM.tab_retitle(pc)
   < 0x0075261e      60000084       bra.w 0x7526a4
   > 0x00752622      554f           subq.w 0x2, a7
        0x00752624      3f300054       move.w 0x54(a0, d0.w), -(a7)
        0x00752628      4e92           jsr (a2)                    ; fcn.00000009+0x2
        0x0075262a      544f           addq.w 0x2, a7
        0x0075262c      4a1f           tst.b (a7)+
    < 0x0075262e      671c           beq.b 0x75264c
       0x00752630      4227           clr.b -(a7)
       0x00752632      b203           cmp.b d3, d1
   < 0x00752634      6602           bne.b 0x752638
      0x00752636      5217           addq.b 0x1, (a7)
   > 0x00752638      1417           move.b (a7), d2
       0x0075263a      4882           ext.w d2
       0x0075263c      e342           asl.w 0x1, d2
       0x0075263e      43f00046       lea.l 0x46(a0, d0.w), a1
       0x00752642      43f12000       lea.l (a1, d2.w), a1
       0x00752646      3ea90084       move.w 0x84(a1), (a7)
   < 0x0075264a      6052           bra.b 0x75269e
   > 0x0075264c      554f           subq.w 0x2, a7
       0x0075264e      3f300056       move.w 0x56(a0, d0.w), -(a7)
       0x00752652      4e92           jsr (a2)                    ; fcn.00000009+0x2
       0x00752654      544f           addq.w 0x2, a7
       0x00752656      4a1f           tst.b (a7)+
   < 0x00752658      671c           beq.b 0x752676
      0x0075265a      4227           clr.b -(a7)
      0x0075265c      b203           cmp.b d3, d1
  < 0x0075265e      6602           bne.b 0x752662
     0x00752660      5217           addq.b 0x1, (a7)
  > 0x00752662      1417           move.b (a7), d2
      0x00752664      4882           ext.w d2
      0x00752666      e342           asl.w 0x1, d2
      0x00752668      43f00046       lea.l 0x46(a0, d0.w), a1
      0x0075266c      43f12000       lea.l (a1, d2.w), a1
      0x00752670      3ea90088       move.w 0x88(a1), (a7)
  < 0x00752674      6028           bra.b 0x75269e
  > 0x00752676      554f           subq.w 0x2, a7
      0x00752678      3f300058       move.w 0x58(a0, d0.w), -(a7)
      0x0075267c      4e92           jsr (a2)                    ; fcn.00000009+0x2
      0x0075267e      544f           addq.w 0x2, a7
      0x00752680      4a1f           tst.b (a7)+
  < 0x00752682      6722           beq.b 0x7526a6
     0x00752684      4227           clr.b -(a7)
     0x00752686      b203           cmp.b d3, d1
 < 0x00752688      6602           bne.b 0x75268c
    0x0075268a      5217           addq.b 0x1, (a7)
 > 0x0075268c      1417           move.b (a7), d2
     0x0075268e      4882           ext.w d2
     0x00752690      e342           asl.w 0x1, d2
     0x00752692      43f00046       lea.l 0x46(a0, d0.w), a1
     0x00752696      43f12000       lea.l (a1, d2.w), a1
     0x0075269a      3ea9008c       move.w 0x8c(a1), (a7)
  > 0x0075269e      4eb9004836a4   jsr MENUCOM.push_box
   > 0x007526a4      544f           addq.w 0x2, a7
      > 0x007526a6      1013           move.b (a3), d0
           0x007526a8      4880           ext.w d0
           0x007526aa      c1fc05d4       muls.w 0x5d4, d0
           0x007526ae      204c           movea.l a4, a0
           0x007526b0      122e0008       move.b 0x8(a6), d1
           0x007526b4      0c010003       cmpi.b 0x3, d1
       < 0x007526b8      661e           bne.b 0x7526d8
          0x007526ba      554f           subq.w 0x2, a7
          0x007526bc      43f00046       lea.l 0x46(a0, d0.w), a1
          0x007526c0      3f2905c8       move.w 0x5c8(a1), -(a7)
          0x007526c4      4e92           jsr (a2)                    ; fcn.00000009+0x2
          0x007526c6      544f           addq.w 0x2, a7
          0x007526c8      4a1f           tst.b (a7)+
      < 0x007526ca      670c           beq.b 0x7526d8
         0x007526cc      3f300048       move.w 0x48(a0, d0.w), -(a7)
         0x007526d0      4eb9004836a4   jsr MENUCOM.push_box
         0x007526d6      544f           addq.w 0x2, a7
      > 0x007526d8      4cdf1f0f       movem.l (a7)+, d0-d3/a0-a4
           0x007526dc      4e5e           unlk a6
           0x007526de      4e75           rts
 214: MENULIBCOM.kbd_hit ();
           0x007526e0      4e56ffda       link.w a6, 0xffda
           0x007526e4      bfd5           cmpa.l (a5), a7
       < 0x007526e6      6206           bhi.b 0x7526ee
          0x007526e8      44fc0002       move.w 0x2, ccr
          0x007526ec      4e76           trapv
       > 0x007526ee      defc0026       adda.w 0x26, a7
           0x007526f2      48e7e0e0       movem.l d0-d2/a0-a2, -(a7)
           0x007526f6      45f900480fc2   lea.l MENUCOM.get_boxon, a2
           0x007526fc      7403           moveq 0x3, d2
           0x007526fe      10390086d27e   move.b 0x86d27e, d0
           0x00752704      4880           ext.w d0
           0x00752706      c1fc05d4       muls.w 0x5d4, d0
           0x0075270a      41f90086d27a   lea.l 0x86d27a, a0
           0x00752710      554f           subq.w 0x2, a7
           0x00752712      3f300052       move.w 0x52(a0, d0.w), -(a7)
           0x00752716      4e92           jsr (a2)                    ; fcn.00000009+0x2
           0x00752718      544f           addq.w 0x2, a7
           0x0075271a      4a1f           tst.b (a7)+
       < 0x0075271c      6716           beq.b 0x752734
          0x0075271e      554f           subq.w 0x2, a7
          0x00752720      4227           clr.b -(a7)
    > 0x00752722      4eb900662c52   jsr K95_CARDS.k9_key
       0x00752728      544f           addq.w 0x2, a7
   > 0x0075272a      121f           move.b (a7)+, d1
      0x0075272c      4881           ext.w d1
      0x0075272e      4382           chk.w d2, d1
      0x00752730      1881           move.b d1, (a4)
  < 0x00752732      606c           bra.b 0x7527a0
  > 0x00752734      554f           subq.w 0x2, a7
      0x00752736      43f00046       lea.l 0x46(a0, d0.w), a1
      0x0075273a      3f2905c8       move.w 0x5c8(a1), -(a7)
      0x0075273e      4e92           jsr (a2)                    ; fcn.00000009+0x2
      0x00752740      544f           addq.w 0x2, a7
      0x00752742      4a1f           tst.b (a7)+
  < 0x00752744      6718           beq.b 0x75275e
     0x00752746      554f           subq.w 0x2, a7
     0x00752748      3f300046       move.w 0x46(a0, d0.w), -(a7)
     0x0075274c      4e92           jsr (a2)                    ; fcn.00000009+0x2
     0x0075274e      544f           addq.w 0x2, a7
     0x00752750      4a1f           tst.b (a7)+
 < 0x00752752      670a           beq.b 0x75275e
    0x00752754      554f           subq.w 0x2, a7
    0x00752756      4eb90064a5a4   jsr K9_LIBRARY.k9_key_retitle
 < 0x0075275c      60cc           bra.b 0x75272a
 > 0x0075275e      554f           subq.w 0x2, a7
       0x00752760      3f300054       move.w 0x54(a0, d0.w), -(a7)
       0x00752764      4e92           jsr (a2)                    ; fcn.00000009+0x2
       0x00752766      544f           addq.w 0x2, a7
       0x00752768      4a1f           tst.b (a7)+
   < 0x0075276a      6708           beq.b 0x752774
      0x0075276c      554f           subq.w 0x2, a7
      0x0075276e      1f3c0001       move.b 0x1, -(a7)
   < 0x00752772      60ae           bra.b 0x752722
    > 0x00752774      554f           subq.w 0x2, a7
        0x00752776      3f300056       move.w 0x56(a0, d0.w), -(a7)
        0x0075277a      4e92           jsr (a2)                    ; fcn.00000009+0x2
        0x0075277c      544f           addq.w 0x2, a7
        0x0075277e      4a1f           tst.b (a7)+
    < 0x00752780      6708           beq.b 0x75278a
       0x00752782      554f           subq.w 0x2, a7
       0x00752784      1f3c0002       move.b 0x2, -(a7)
    < 0x00752788      6098           bra.b 0x752722
     > 0x0075278a      554f           subq.w 0x2, a7
         0x0075278c      3f300058       move.w 0x58(a0, d0.w), -(a7)
         0x00752790      4e92           jsr (a2)                    ; fcn.00000009+0x2
         0x00752792      544f           addq.w 0x2, a7
         0x00752794      4a1f           tst.b (a7)+
     < 0x00752796      6706           beq.b 0x75279e
        0x00752798      554f           subq.w 0x2, a7
        0x0075279a      1f02           move.b d2, -(a7)
     < 0x0075279c      6084           bra.b 0x752722
      > 0x0075279e      4214           clr.b (a4)
  > 0x007527a0      1014           move.b (a4), d0
           0x007527a2      4880           ext.w d0
           0x007527a4      4182           chk.w d2, d0
           0x007527a6      1f00           move.b d0, -(a7)
           0x007527a8      4ebafdda       jsr MENULIBCOM.do_key_action(pc)
           0x007527ac      544f           addq.w 0x2, a7
           0x007527ae      4cdf0707       movem.l (a7)+, d0-d2/a0-a2
           0x007527b2      4e5e           unlk a6
           0x007527b4      4e75           rts
            ; CALL XREF from MENULIBCOM.hit_library @ 0x752ae6
 68: MENULIBCOM.volume_list_cha ();
           0x007527b6      4e56ffee       link.w a6, 0xffee
           0x007527ba      bfd5           cmpa.l (a5), a7
       < 0x007527bc      6206           bhi.b 0x7527c4
          0x007527be      44fc0002       move.w 0x2, ccr
          0x007527c2      4e76           trapv
       > 0x007527c4      defc0010       adda.w 0x10, a7
           0x007527c8      48e78100       movem.l d0/d7, -(a7)
           0x007527cc      7006           moveq 0x6, d0
           0x007527ce      7e00           moveq 0x0, d7
       > 0x007527d0      1f07           move.b d7, -(a7)
          0x007527d2      4ebabab6       jsr MENULIBCOM.upd_vol(pc)
          0x007527d6      1e87           move.b d7, (a7)
          0x007527d8      1f00           move.b d0, -(a7)
          0x007527da      4ebab5b8       jsr MENULIBCOM.set_skls_disks_(pc)
          0x007527de      544f           addq.w 0x2, a7
          0x007527e0      1e87           move.b d7, (a7)
          0x007527e2      1f00           move.b d0, -(a7)
          0x007527e4      4ebab8c6       jsr MENULIBCOM.set_skls_disk_g(pc)
          0x007527e8      584f           addq.w 0x4, a7
          0x007527ea      5207           addq.b 0x1, d7
          0x007527ec      0c070003       cmpi.b 0x3, d7
       < 0x007527f0      6fde           ble.b 0x7527d0
           0x007527f2      4cdf0081       movem.l (a7)+, d0/d7
           0x007527f6      4e5e           unlk a6
           0x007527f8      4e75           rts
            ; CALL XREF from MENULIBCOM @ +0x6364
 240: MENULIBCOM.end_action ();
           0x007527fa      4e56ffce       link.w a6, 0xffce
           0x007527fe      bfd5           cmpa.l (a5), a7
       < 0x00752800      6206           bhi.b 0x752808
          0x00752802      44fc0002       move.w 0x2, ccr
          0x00752806      4e76           trapv
       > 0x00752808      defc0032       adda.w 0x32, a7
           0x0075280c      48e7e0f0       movem.l d0-d2/a0-a3, -(a7)
           0x00752810      45f900480f72   lea.l MENUCOM.active_box, a2
           0x00752816      47faf27a       lea.l MENULIBCOM.do_sklr(pc), a3
           0x0075281a      7202           moveq 0x2, d1
           0x0075281c      7403           moveq 0x3, d2
           0x0075281e      10390086d27e   move.b 0x86d27e, d0
           0x00752824      4880           ext.w d0
           0x00752826      c1fc05d4       muls.w 0x5d4, d0
           0x0075282a      41f90086d27a   lea.l 0x86d27a, a0
           0x00752830      554f           subq.w 0x2, a7
           0x00752832      43f00046       lea.l 0x46(a0, d0.w), a1
           0x00752836      3f2905c8       move.w 0x5c8(a1), -(a7)
           0x0075283a      4eb900480fc2   jsr MENUCOM.get_boxon
           0x00752840      544f           addq.w 0x2, a7
           0x00752842      4a1f           tst.b (a7)+
       < 0x00752844      6716           beq.b 0x75285c
          0x00752846      554f           subq.w 0x2, a7
          0x00752848      3f300054       move.w 0x54(a0, d0.w), -(a7)
          0x0075284c      4e92           jsr (a2)                    ; fcn.00000009+0x2
          0x0075284e      544f           addq.w 0x2, a7
          0x00752850      4a1f           tst.b (a7)+
      < 0x00752852      6608           bne.b 0x75285c
         0x00752854      4ebaf4fa       jsr MENULIBCOM.do_retitle(pc)
     < 0x00752858      60000082       bra.w 0x7528dc
     > 0x0075285c      554f           subq.w 0x2, a7
          0x0075285e      3f300054       move.w 0x54(a0, d0.w), -(a7)
          0x00752862      4e92           jsr (a2)                    ; fcn.00000009+0x2
          0x00752864      544f           addq.w 0x2, a7
          0x00752866      4a1f           tst.b (a7)+
      < 0x00752868      670a           beq.b 0x752874
         0x0075286a      1f3c0001       move.b 0x1, -(a7)
         0x0075286e      4e93           jsr (a3)                    ; fcn.0000000c
    > 0x00752870      544f           addq.w 0x2, a7
   < 0x00752872      6068           bra.b 0x7528dc
   > 0x00752874      554f           subq.w 0x2, a7
       0x00752876      3f300052       move.w 0x52(a0, d0.w), -(a7)
       0x0075287a      4e92           jsr (a2)                    ; fcn.00000009+0x2
       0x0075287c      544f           addq.w 0x2, a7
       0x0075287e      4a1f           tst.b (a7)+
   < 0x00752880      6710           beq.b 0x752892
      0x00752882      4ebaf3b8       jsr MENULIBCOM.do_save(pc)
      0x00752886      3f30005a       move.w 0x5a(a0, d0.w), -(a7)
      0x0075288a      4eb9004836a4   jsr MENUCOM.push_box
   < 0x00752890      60de           bra.b 0x752870
    > 0x00752892      554f           subq.w 0x2, a7
        0x00752894      3f300056       move.w 0x56(a0, d0.w), -(a7)
        0x00752898      4e92           jsr (a2)                    ; fcn.00000009+0x2
        0x0075289a      544f           addq.w 0x2, a7
        0x0075289c      4a1f           tst.b (a7)+
    < 0x0075289e      670c           beq.b 0x7528ac
       0x007528a0      1f01           move.b d1, -(a7)
       0x007528a2      4e93           jsr (a3)                    ; fcn.0000000c
       0x007528a4      1e81           move.b d1, (a7)
   > 0x007528a6      4ebaf544       jsr MENULIBCOM.clear_spec(pc)
   < 0x007528aa      60c4           bra.b 0x752870
    > 0x007528ac      554f           subq.w 0x2, a7
        0x007528ae      3f300058       move.w 0x58(a0, d0.w), -(a7)
        0x007528b2      4e92           jsr (a2)                    ; fcn.00000009+0x2
        0x007528b4      544f           addq.w 0x2, a7
        0x007528b6      4a1f           tst.b (a7)+
    < 0x007528b8      6708           beq.b 0x7528c2
       0x007528ba      1f02           move.b d2, -(a7)
       0x007528bc      4e93           jsr (a3)                    ; fcn.0000000c
       0x007528be      1e82           move.b d2, (a7)
   < 0x007528c0      60e4           bra.b 0x7528a6
     > 0x007528c2      487aa9ca       pea.l 0x74d28e(pc)
         0x007528c6      4878000f       pea.l 0xf
         0x007528ca      2f17           move.l (a7), -(a7)
         0x007528cc      4eb9004047ea   jsr p_wts_o
         0x007528d2      defc000c       adda.w 0xc, a7
         0x007528d6      4eb900404946   jsr p_wtln_o
   > 0x007528dc      4eb900758694   jsr MENULIBFNDCOM.in_grid_disable
           0x007528e2      4cdf0f07       movem.l (a7)+, d0-d2/a0-a3
           0x007528e6      4e5e           unlk a6
           0x007528e8      4e75           rts
 138: MENULIBCOM.screen_select ();
           0x007528ea      4e56ffd0       link.w a6, 0xffd0
           0x007528ee      bfd5           cmpa.l (a5), a7
       < 0x007528f0      6206           bhi.b 0x7528f8
          0x007528f2      44fc0002       move.w 0x2, ccr
          0x007528f6      4e76           trapv
       > 0x007528f8      defc0028       adda.w 0x28, a7
           0x007528fc      48e7c1f0       movem.l d0-d1/d7/a0-a3, -(a7)
           0x00752900      43eefff8       lea.l -0x8(a6), a1
           0x00752904      45f90086d27a   lea.l 0x86d27a, a2
           0x0075290a      47f90086d27f   lea.l 0x86d27f, a3
           0x00752910      7208           moveq 0x8, d1
           0x00752912      2052           movea.l (a2), a0
           0x00752914      b1e8fffc       cmpa.l -0x4(a0), a0
       < 0x00752918      6702           beq.b 0x75291c
          0x0075291a      4e4d           trap 0xd
       > 0x0075291c      3010           move.w (a0), d0
           0x0075291e      48c0           ext.l d0
           0x00752920      81c1           divs.w d1, d0
           0x00752922      3280           move.w d0, (a1)
           0x00752924      30280002       move.w 0x2(a0), d0
           0x00752928      48c0           ext.l d0
           0x0075292a      81c1           divs.w d1, d0
           0x0075292c      3d40fffa       move.w d0, -0x6(a6)
           0x00752930      4a13           tst.b (a3)
       < 0x00752932      660a           bne.b 0x75293e
          0x00752934      2f11           move.l (a1), -(a7)
          0x00752936      4eb9004553a4   jsr CURSORCOM.cross_cursor
          0x0075293c      584f           addq.w 0x4, a7
       > 0x0075293e      554f           subq.w 0x2, a7
           0x00752940      3f3c00bf       move.w 0xbf, -(a7)
           0x00752944      4eb900480fc2   jsr MENUCOM.get_boxon
           0x0075294a      544f           addq.w 0x2, a7
           0x0075294c      4a1f           tst.b (a7)+
       < 0x0075294e      6704           beq.b 0x752954
          0x00752950      7e00           moveq 0x0, d7
      < 0x00752952      6002           bra.b 0x752956
      > 0x00752954      7e80           moveq 0x80, d7
      > 0x00752956      554f           subq.w 0x2, a7
           0x00752958      4eb90064b742   jsr K9_LIBRARY.k9_screen_state
           0x0075295e      101f           move.b (a7)+, d0
           0x00752960      4880           ext.w d0
           0x00752962      0c400006       cmpi.w 0x6, d0
       < 0x00752966      6302           bls.b 0x75296a
          0x00752968      4e4e           trap 0xe
       > 0x0075296a      d040           add.w d0, d0
           0x0075296c      303b0006       move.w 0x752974(pc, d0.w), d0
           0x00752970      4efb0002       jmp 0x752974(pc, d0.w)
            0x00752974      000e000e       
            0x00752975      0e000e00       
            0x00752976      000e0036       
            0x00752977      0e003600       
            0x00752978      0036002a003c   ori.b 0x2a, 0x3c(a6, d0.w)
            0x0075297e      00420048       ori.w 0x48, d2
            0x00752982      10390086d27e   move.b 0x86d27e, d0
            0x00752988      4880           ext.w d0
            0x0075298a      c1fc05d4       muls.w 0x5d4, d0
            0x0075298e      204a           movea.l a2, a0
            0x00752990      2f11           move.l (a1), -(a7)
            0x00752992      2f07           move.l d7, -(a7)
            0x00752994      4eb900759dbc   jsr MENULIBFNDCOM.found_display_p
            0x0075299a      504f           addq.w 0x8, a7
        < 0x0075299c      6026           bra.b 0x7529c4
           0x0075299e      4227           clr.b -(a7)
     > 0x007529a0      2f11           move.l (a1), -(a7)
        0x007529a2      4ebaf8f4       jsr MENULIBCOM.lib_hit_skl(pc)
        0x007529a6      5c4f           addq.w 0x6, a7
    < 0x007529a8      601a           bra.b 0x7529c4
       0x007529aa      1f3c0001       move.b 0x1, -(a7)
    < 0x007529ae      60f0           bra.b 0x7529a0
        0x007529b0      1f3c0002       move.b 0x2, -(a7)
     < 0x007529b4      60ea           bra.b 0x7529a0
         0x007529b6      1f3c0003       move.b 0x3, -(a7)
      < 0x007529ba      60e4           bra.b 0x7529a0
          0x007529bc      2f11           move.l (a1), -(a7)
          0x007529be      4ebaf884       jsr MENULIBCOM.hit_retitle(pc)
          0x007529c2      584f           addq.w 0x4, a7
    > 0x007529c4      4a13           tst.b (a3)
        < 0x007529c6      670a           beq.b 0x7529d2
           0x007529c8      2f11           move.l (a1), -(a7)
           0x007529ca      4eb9004553a4   jsr CURSORCOM.cross_cursor
           0x007529d0      584f           addq.w 0x4, a7
        > 0x007529d2      4cdf0f83       movem.l (a7)+, d0-d1/d7/a0-a3
            0x007529d6      4e5e           unlk a6
            0x007529d8      4e75           rts
            ; CALL XREF from MENULIBCOM @ +0x62fa
 190: MENULIBCOM.desc_field_acti ();
           0x007529da      4e56ffc8       link.w a6, 0xffc8
           0x007529de      bfd5           cmpa.l (a5), a7
       < 0x007529e0      6206           bhi.b 0x7529e8
          0x007529e2      44fc0002       move.w 0x2, ccr
          0x007529e6      4e76           trapv
       > 0x007529e8      defc0036       adda.w 0x36, a7
           0x007529ec      48e7f1f0       movem.l d0-d3/d7/a0-a3, -(a7)
           0x007529f0      43ee0008       lea.l 0x8(a6), a1
           0x007529f4      45f90086d27e   lea.l 0x86d27e, a2
           0x007529fa      47f90086d27a   lea.l 0x86d27a, a3
           0x00752a00      7408           moveq 0x8, d2
           0x00752a02      7601           moveq 0x1, d3
           0x00752a04      4211           clr.b (a1)
           0x00752a06      1012           move.b (a2), d0
           0x00752a08      4880           ext.w d0
           0x00752a0a      c1fc05d4       muls.w 0x5d4, d0
           0x00752a0e      554f           subq.w 0x2, a7
           0x00752a10      204b           movea.l a3, a0
           0x00752a12      3f300046       move.w 0x46(a0, d0.w), -(a7)
           0x00752a16      4eb900480fc2   jsr MENUCOM.get_boxon
           0x00752a1c      544f           addq.w 0x2, a7
           0x00752a1e      4a1f           tst.b (a7)+
       < 0x00752a20      672c           beq.b 0x752a4e
          0x00752a22      487aa87a       pea.l 0x74d29e(pc)
          0x00752a26      48780009       pea.l 0x9
          0x00752a2a      2f17           move.l (a7), -(a7)
          0x00752a2c      4eb9004047ea   jsr p_wts_o
          0x00752a32      defc000c       adda.w 0xc, a7
          0x00752a36      4eb900404946   jsr p_wtln_o
          0x00752a3c      554f           subq.w 0x2, a7
          0x00752a3e      4eb90064b63e   jsr K9_LIBRARY.k9_ret_spec
          0x00752a44      101f           move.b (a7)+, d0
          0x00752a46      b002           cmp.b d2, d0
      < 0x00752a48      6646           bne.b 0x752a90
         0x00752a4a      1283           move.b d3, (a1)
     < 0x00752a4c      6042           bra.b 0x752a90
     > 0x00752a4e      7e00           moveq 0x0, d7
     > 0x00752a50      1012           move.b (a2), d0
        0x00752a52      4880           ext.w d0
        0x00752a54      c1fc05d4       muls.w 0x5d4, d0
        0x00752a58      554f           subq.w 0x2, a7
        0x00752a5a      4887           ext.w d7
        0x00752a5c      3207           move.w d7, d1
        0x00752a5e      e341           asl.w 0x1, d1
        0x00752a60      204b           movea.l a3, a0
        0x00752a62      41f00000       lea.l (a0, d0.w), a0
        0x00752a66      3f301052       move.w 0x52(a0, d1.w), -(a7)
        0x00752a6a      4eb900480fc2   jsr MENUCOM.get_boxon
        0x00752a70      544f           addq.w 0x2, a7
        0x00752a72      4a1f           tst.b (a7)+
    < 0x00752a74      6714           beq.b 0x752a8a
       0x00752a76      554f           subq.w 0x2, a7
       0x00752a78      1f07           move.b d7, -(a7)
       0x00752a7a      4eb900662a4e   jsr K95_CARDS.k9_skl_spec
       0x00752a80      544f           addq.w 0x2, a7
       0x00752a82      101f           move.b (a7)+, d0
       0x00752a84      b002           cmp.b d2, d0
   < 0x00752a86      6602           bne.b 0x752a8a
      0x00752a88      1283           move.b d3, (a1)
   > 0x00752a8a      5207           addq.b 0x1, d7
        0x00752a8c      4a07           tst.b d7
     < 0x00752a8e      6fc0           ble.b 0x752a50
     > 0x00752a90      4cdf0f8f       movem.l (a7)+, d0-d3/d7/a0-a3
           0x00752a94      4e5e           unlk a6
           0x00752a96      4e75           rts
 166: MENULIBCOM.hit_library ();
           0x00752a98      4e56ffb0       link.w a6, 0xffb0
           0x00752a9c      bfd5           cmpa.l (a5), a7
       < 0x00752a9e      6206           bhi.b 0x752aa6
          0x00752aa0      44fc0002       move.w 0x2, ccr
          0x00752aa4      4e76           trapv
       > 0x00752aa6      defc004e       adda.w 0x4e, a7
           0x00752aaa      48e7fff8       movem.l d0-d7/a0-a4, -(a7)
           0x00752aae      45f90086d27f   lea.l 0x86d27f, a2
           0x00752ab4      47f900480fc2   lea.l MENUCOM.get_boxon, a3
           0x00752aba      7801           moveq 0x1, d4
           0x00752abc      7a02           moveq 0x2, d5
           0x00752abe      7c03           moveq 0x3, d6
           0x00752ac0      7e04           moveq 0x4, d7
           0x00752ac2      4a390086d281   tst.b 0x86d281
       < 0x00752ac8      6726           beq.b 0x752af0
          0x00752aca      302e0008       move.w 0x8(a6), d0
          0x00752ace      41faa810       lea.l 0x74d2e0(pc), a0
          0x00752ad2      3200           move.w d0, d1
          0x00752ad4      e649           lsr.w 0x3, d1
          0x00752ad6      0c410020       cmpi.w 0x20, d1
      < 0x00752ada      6d04           blt.b 0x752ae0
         0x00752adc      7200           moveq 0x0, d1
     < 0x00752ade      6004           bra.b 0x752ae4
     > 0x00752ae0      01301000       btst.l d0, (a0, d1.w)
     < 0x00752ae4      660a           bne.b 0x752af0
         0x00752ae6      4ebafcce       jsr MENULIBCOM.volume_list_cha(pc)
         0x00752aea      42390086d281   clr.b 0x86d281
      > 0x00752af0      302e0008       move.w 0x8(a6), d0
           0x00752af4      b044           cmp.w d4, d0
       < 0x00752af6      6620           bne.b 0x752b18
          0x00752af8      5d4f           subq.w 0x6, a7
          0x00752afa      3f2e000a       move.w 0xa(a6), -(a7)
          0x00752afe      4eb90048406e   jsr MENUCOM.get_b_id
          0x00752b04      544f           addq.w 0x2, a7
          0x00752b06      122f0003       move.b 0x3(a7), d1
          0x00752b0a      4881           ext.w d1
          0x00752b0c      4385           chk.w d5, d1
          0x00752b0e      584f           addq.w 0x4, a7
          0x00752b10      1e81           move.b d1, (a7)
          0x00752b12      4ebaf3de       jsr MENULIBCOM.select_library(pc)
          0x00752b16      544f           addq.w 0x2, a7
       > 0x00752b18      12390086d27e   move.b 0x86d27e, d1
           0x00752b1e      4881           ext.w d1
           0x00752b20      c3fc05d4       muls.w 0x5d4, d1
           0x00752b24      41f90086d27a   lea.l 0x86d27a, a0
           0x00752b2a      3400           move.w d0, d2
           0x00752b2c      0c420020       cmpi.w 0x20, d2
       < 0x00752b30      6200043e       bhi.w 0x752f70
          0x00752b34      d442           add.w d2, d2
          0x00752b36      343b2006       move.w 0x752b3e(pc, d2.w), d2
          0x00752b3a      4efb2002       jmp 0x752b3e(pc, d2.w)
           0x00752b3e      02100042       andi.b 0x42, (a0)
           0x00752b42      02b804320432.  andi.l 0x4320432, 0x432.w
           0x00752b4a      0432043202ec   subi.b 0x32, -0x14(a2, d0.w)
           0x00752b50      02ec0308       
           0x00752b51      ec03           asr.b 0x6, d3
           0x00752b53      08031803       
           0x00752b54      0318           btst.l d1, (a0)+
           0x00752b56      034a0432       movep.l 0x432(a2), d1
           0x00752b5a      0360           bchg.b d1, -(a0)
           0x00752b5c      0360           bchg.b d1, -(a0)
           0x00752b5e      0360           bchg.b d1, -(a0)
           0x00752b60      0360           bchg.b d1, -(a0)
           0x00752b62      036a0360       bchg.b d1, 0x360(a2)
           0x00752b66      036a0432       bchg.b d1, 0x432(a2)
           0x00752b6a      037403da03de   bchg.b d1, ([], 0x3de)
           0x00752b70      043204320432   subi.b 0x32, 0x32(a2, d0.w)
           0x00752b76      0340           bchg.b d1, d0
           0x00752b78      043202100432   subi.b 0x10, 0x32(a2, d0.w)
           0x00752b7e      040c1f04       
           0x00752b7f      0c1f044e       cmpi.b 0x4e, (a7)+
           0x00752b83      b900           eor.b d4, d0
           0x00752b85      5a31ec54       addq.b 0x5, 0x54(a1, a6.l)
           0x00752b89      4f4eb900       
           0x00752b8a      4eb90064ba94   jsr K9_LIBRARY.k9_store_corrup
           0x00752b90      4a12           tst.b (a2)
       < 0x00752b92      6608           bne.b 0x752b9c
          0x00752b94      4a390086d280   tst.b 0x86d280
      < 0x00752b9a      670a           beq.b 0x752ba6
      > 0x00752b9c      1f05           move.b d5, -(a7)
          0x00752b9e      4eb90047d40c   jsr CNTLCOM.swipes_allowed
          0x00752ba4      544f           addq.w 0x2, a7
      > 0x00752ba6      554f           subq.w 0x2, a7
           0x00752ba8      43f01046       lea.l 0x46(a0, d1.w), a1
           0x00752bac      3f2905ca       move.w 0x5ca(a1), -(a7)
           0x00752bb0      4e93           jsr (a3)                    ; fcn.0000000c
           0x00752bb2      544f           addq.w 0x2, a7
           0x00752bb4      4a1f           tst.b (a7)+
       < 0x00752bb6      670c           beq.b 0x752bc4
          0x00752bb8      3f2e000a       move.w 0xa(a6), -(a7)
          0x00752bbc      3f00           move.w d0, -(a7)
          0x00752bbe      4ebaf390       jsr MENULIBCOM.hit_save_gridde(pc)
          0x00752bc2      584f           addq.w 0x4, a7
       > 0x00752bc4      594f           subq.w 0x4, a7
           0x00752bc6      43f01046       lea.l 0x46(a0, d1.w), a1
           0x00752bca      3f2905ce       move.w 0x5ce(a1), -(a7)
           0x00752bce      4eb90048d992   jsr MENU2COM.get_numeric_val
           0x00752bd4      554f           subq.w 0x2, a7
           0x00752bd6      43f01046       lea.l 0x46(a0, d1.w), a1
           0x00752bda      3f2905d0       move.w 0x5d0(a1), -(a7)
           0x00752bde      4eb90048d992   jsr MENU2COM.get_numeric_val
           0x00752be4      544f           addq.w 0x2, a7
           0x00752be6      4eb90064bf98   jsr K9_LIBRARY.k9_set_export_m
           0x00752bec      5c4f           addq.w 0x6, a7
           0x00752bee      4217           clr.b (a7)
           0x00752bf0      4eb900707a04   jsr keyed_gordon
           0x00752bf6      3eae000a       move.w 0xa(a6), (a7)
           0x00752bfa      4eb90047dcbe   jsr CNTLCOM.set_control_box
           0x00752c00      544f           addq.w 0x2, a7
           0x00752c02      4eb9004558c8   jsr CURSORCOM.grid_off
           0x00752c08      4a12           tst.b (a2)
       < 0x00752c0a      660e           bne.b 0x752c1a
          0x00752c0c      4a390086d280   tst.b 0x86d280
      < 0x00752c12      6606           bne.b 0x752c1a
         0x00752c14      4eb900518f96   jsr OUTCOM.normal_set_out
      > 0x00752c1a      554f           subq.w 0x2, a7
           0x00752c1c      3f301050       move.w 0x50(a0, d1.w), -(a7)
           0x00752c20      4e93           jsr (a3)                    ; fcn.0000000c
           0x00752c22      544f           addq.w 0x2, a7
           0x00752c24      4a1f           tst.b (a7)+
       < 0x00752c26      6706           beq.b 0x752c2e
          0x00752c28      1f3c0005       move.b 0x5, -(a7)
      < 0x00752c2c      6002           bra.b 0x752c30
      > 0x00752c2e      4227           clr.b -(a7)
      > 0x00752c30      4eb90048f2e6   jsr MENURIGHTCOM.change_right
           0x00752c36      544f           addq.w 0x2, a7
           0x00752c38      1f04           move.b d4, -(a7)
           0x00752c3a      4ebab64e       jsr MENULIBCOM.upd_vol(pc)
           0x00752c3e      544f           addq.w 0x2, a7
           0x00752c40      48780000       pea.l 0x0
           0x00752c44      1f04           move.b d4, -(a7)
           0x00752c46      4227           clr.b -(a7)
           0x00752c48      4eb900662936   jsr K95_CARDS.k9_ch
           0x00752c4e      5c4f           addq.w 0x6, a7
           0x00752c50      1e85           move.b d5, (a7)
           0x00752c52      4ebab636       jsr MENULIBCOM.upd_vol(pc)
           0x00752c56      544f           addq.w 0x2, a7
           0x00752c58      48780000       pea.l 0x0
           0x00752c5c      1f05           move.b d5, -(a7)
           0x00752c5e      4227           clr.b -(a7)
           0x00752c60      4eb900662936   jsr K95_CARDS.k9_ch
           0x00752c66      5c4f           addq.w 0x6, a7
           0x00752c68      1e86           move.b d6, (a7)
           0x00752c6a      4ebab61e       jsr MENULIBCOM.upd_vol(pc)
           0x00752c6e      544f           addq.w 0x2, a7
           0x00752c70      48780000       pea.l 0x0
           0x00752c74      1f06           move.b d6, -(a7)
           0x00752c76      4227           clr.b -(a7)
           0x00752c78      4eb900662936   jsr K95_CARDS.k9_ch
           0x00752c7e      5c4f           addq.w 0x6, a7
           0x00752c80      4217           clr.b (a7)
           0x00752c82      4ebab606       jsr MENULIBCOM.upd_vol(pc)
           0x00752c86      544f           addq.w 0x2, a7
           0x00752c88      48780000       pea.l 0x0
           0x00752c8c      4227           clr.b -(a7)
           0x00752c8e      4227           clr.b -(a7)
           0x00752c90      4eb900662936   jsr K95_CARDS.k9_ch
           0x00752c96      584f           addq.w 0x4, a7
           0x00752c98      3eb01052       move.w 0x52(a0, d1.w), (a7)
           0x00752c9c      4e93           jsr (a3)                    ; fcn.0000000c
           0x00752c9e      544f           addq.w 0x2, a7
           0x00752ca0      4a1f           tst.b (a7)+
       < 0x00752ca2      670c           beq.b 0x752cb0
          0x00752ca4      3f301052       move.w 0x52(a0, d1.w), -(a7)
          0x00752ca8      3f00           move.w d0, -(a7)
          0x00752caa      4ebae1d2       jsr MENULIBCOM.hit_save_select(pc)
      < 0x00752cae      6018           bra.b 0x752cc8
      > 0x00752cb0      554f           subq.w 0x2, a7
          0x00752cb2      3f301054       move.w 0x54(a0, d1.w), -(a7)
          0x00752cb6      4e93           jsr (a3)                    ; fcn.0000000c
          0x00752cb8      544f           addq.w 0x2, a7
          0x00752cba      4a1f           tst.b (a7)+
      < 0x00752cbc      670c           beq.b 0x752cca
         0x00752cbe      3f301054       move.w 0x54(a0, d1.w), -(a7)
         0x00752cc2      3f00           move.w d0, -(a7)
         0x00752cc4      4ebae006       jsr MENULIBCOM.hit_skl_selecti(pc)
      > 0x00752cc8      584f           addq.w 0x4, a7
       > 0x00752cca      4a12           tst.b (a2)
       < 0x00752ccc      6608           bne.b 0x752cd6
          0x00752cce      4a390086d280   tst.b 0x86d280
      < 0x00752cd4      6758           beq.b 0x752d2e
      > 0x00752cd6      554f           subq.w 0x2, a7
          0x00752cd8      3f301052       move.w 0x52(a0, d1.w), -(a7)
          0x00752cdc      4e93           jsr (a3)                    ; fcn.0000000c
          0x00752cde      544f           addq.w 0x2, a7
          0x00752ce0      4a1f           tst.b (a7)+
      < 0x00752ce2      671a           beq.b 0x752cfe
         0x00752ce4      4a12           tst.b (a2)
     < 0x00752ce6      670a           beq.b 0x752cf2
        0x00752ce8      4267           clr.w -(a7)
        0x00752cea      3f04           move.w d4, -(a7)
        0x00752cec      4ebabe78       jsr MENULIBCOM.setup_henry_sav(pc)
        0x00752cf0      584f           addq.w 0x4, a7
     > 0x00752cf2      3f301052       move.w 0x52(a0, d1.w), -(a7)
         0x00752cf6      3f07           move.w d7, -(a7)
         0x00752cf8      4ebae442       jsr MENULIBCOM.hit_save(pc)
     < 0x00752cfc      602e           bra.b 0x752d2c
     > 0x00752cfe      554f           subq.w 0x2, a7
         0x00752d00      3f301050       move.w 0x50(a0, d1.w), -(a7)
         0x00752d04      4e93           jsr (a3)                    ; fcn.0000000c
         0x00752d06      544f           addq.w 0x2, a7
         0x00752d08      4a1f           tst.b (a7)+
     < 0x00752d0a      6708           beq.b 0x752d14
        0x00752d0c      4eb900759f62   jsr MENULIBFNDCOM.rehit_titles
    < 0x00752d12      601a           bra.b 0x752d2e
    > 0x00752d14      554f           subq.w 0x2, a7
        0x00752d16      3f301054       move.w 0x54(a0, d1.w), -(a7)
        0x00752d1a      4e93           jsr (a3)                    ; fcn.0000000c
        0x00752d1c      544f           addq.w 0x2, a7
        0x00752d1e      4a1f           tst.b (a7)+
    < 0x00752d20      670c           beq.b 0x752d2e
       0x00752d22      3f301054       move.w 0x54(a0, d1.w), -(a7)
       0x00752d26      3f07           move.w d7, -(a7)
       0x00752d28      4ebae274       jsr MENULIBCOM.hit_skl(pc)
    > 0x00752d2c      584f           addq.w 0x4, a7
    > 0x00752d2e      3f30104e       move.w 0x4e(a0, d1.w), -(a7)
           0x00752d32      554f           subq.w 0x2, a7
           0x00752d34      4eb9004d286a   jsr MENUMACROCOM.mac_enabled
           0x00752d3a      1417           move.b (a7), d2
           0x00752d3c      4882           ext.w d2
           0x00752d3e      4584           chk.w d4, d2
           0x00752d40      1e82           move.b d2, (a7)
           0x00752d42      4eb900483776   jsr MENUCOM.swtch_box
       > 0x00752d48      584f           addq.w 0x4, a7
      < 0x00752d4a      6000034e       bra.w 0x75309a
         0x00752d4e      1f04           move.b d4, -(a7)
         0x00752d50      4ebaab42       jsr MENULIBCOM.abort_retitle(pc)
         0x00752d54      544f           addq.w 0x2, a7
         0x00752d56      4a12           tst.b (a2)
     < 0x00752d58      6608           bne.b 0x752d62
        0x00752d5a      4a390086d280   tst.b 0x86d280
    < 0x00752d60      6712           beq.b 0x752d74
    > 0x00752d62      4227           clr.b -(a7)
        0x00752d64      4eb90047d40c   jsr CNTLCOM.swipes_allowed
        0x00752d6a      544f           addq.w 0x2, a7
        0x00752d6c      4eb9007585c6   jsr MENULIBFNDCOM.swtch_on_titles
    < 0x00752d72      6022           bra.b 0x752d96
    > 0x00752d74      1f04           move.b d4, -(a7)
        0x00752d76      554f           subq.w 0x2, a7
        0x00752d78      3f3c00bf       move.w 0xbf, -(a7)
        0x00752d7c      4e93           jsr (a3)                    ; fcn.0000000c
        0x00752d7e      544f           addq.w 0x2, a7
        0x00752d80      1417           move.b (a7), d2
        0x00752d82      4882           ext.w d2
        0x00752d84      4584           chk.w d4, d2
        0x00752d86      1e82           move.b d2, (a7)
        0x00752d88      4eb90064b994   jsr K9_LIBRARY.k9_show_display
        0x00752d8e      584f           addq.w 0x4, a7
        0x00752d90      4eb90067796c   jsr PASTECOM.exit_layer_cuto
     > 0x00752d96      43f01046       lea.l 0x46(a0, d1.w), a1
         0x00752d9a      3f2900ac       move.w 0xac(a1), -(a7)
         0x00752d9e      4eb9004836a4   jsr MENUCOM.push_box
         0x00752da4      544f           addq.w 0x2, a7
         0x00752da6      43f01046       lea.l 0x46(a0, d1.w), a1
         0x00752daa      3f2900c4       move.w 0xc4(a1), -(a7)
         0x00752dae      4eb9004836a4   jsr MENUCOM.push_box
         0x00752db4      544f           addq.w 0x2, a7
         0x00752db6      43f01046       lea.l 0x46(a0, d1.w), a1
         0x00752dba      3f2900dc       move.w 0xdc(a1), -(a7)
         0x00752dbe      4eb9004836a4   jsr MENUCOM.push_box
         0x00752dc4      544f           addq.w 0x2, a7
         0x00752dc6      43f01046       lea.l 0x46(a0, d1.w), a1
         0x00752dca      3f290094       move.w 0x94(a1), -(a7)
         0x00752dce      4eb9004836a4   jsr MENUCOM.push_box
         0x00752dd4      4217           clr.b (a7)
         0x00752dd6      4ebaf11a       jsr MENULIBCOM.select_library(pc)
         0x00752dda      544f           addq.w 0x2, a7
         0x00752ddc      4eb900758694   jsr MENULIBFNDCOM.in_grid_disable
         0x00752de2      4eb90047e0c4   jsr CNTLCOM.report_p_errors
         0x00752de8      4227           clr.b -(a7)
         0x00752dea      4eb9005a31ec   jsr K04_FILEROPS.k_set_search_ta
         0x00752df0      544f           addq.w 0x2, a7
     < 0x00752df2      600002a6       bra.w 0x75309a
        0x00752df6      342e000a       move.w 0xa(a6), d2
        0x00752dfa      0c42fff7       cmpi.w 0xfff7, d2
    < 0x00752dfe      660a           bne.b 0x752e0a
       0x00752e00      49eefffe       lea.l -0x2(a6), a4
       0x00752e04      4ebaf8da       jsr MENULIBCOM.kbd_hit(pc)
   < 0x00752e08      601c           bra.b 0x752e26
   > 0x00752e0a      1f04           move.b d4, -(a7)
   > 0x00752e0c      554f           subq.w 0x2, a7
      0x00752e0e      3f3c00bf       move.w 0xbf, -(a7)
      0x00752e12      4e93           jsr (a3)                    ; fcn.0000000c
      0x00752e14      544f           addq.w 0x2, a7
      0x00752e16      1417           move.b (a7), d2
      0x00752e18      4882           ext.w d2
      0x00752e1a      4584           chk.w d4, d2
      0x00752e1c      1e82           move.b d2, (a7)
      0x00752e1e      4eb90064b994   jsr K9_LIBRARY.k9_show_display
      0x00752e24      584f           addq.w 0x4, a7
  > 0x00752e26      60000272       bra.w 0x75309a
      0x00752e2a      3f2e000a       move.w 0xa(a6), -(a7)
      0x00752e2e      3f00           move.w d0, -(a7)
      0x00752e30      486efffe       pea.l -0x2(a6)
      0x00752e34      487afab4       pea.l MENULIBCOM.screen_select(pc)
      0x00752e38      4eb900759e8e   jsr MENULIBFNDCOM.found_pressed_m
      0x00752e3e      defc000c       adda.w 0xc, a7
  < 0x00752e42      60000256       bra.w 0x75309a
     0x00752e46      3f2e000a       move.w 0xa(a6), -(a7)
     0x00752e4a      3f00           move.w d0, -(a7)
     0x00752e4c      4eb900759f04   jsr MENULIBFNDCOM.found_released
  < 0x00752e52      6000fef4       bra.w 0x752d48
      0x00752e56      4eb900518f36   jsr OUTCOM.save_out
      0x00752e5c      43f01046       lea.l 0x46(a0, d1.w), a1
      0x00752e60      554f           subq.w 0x2, a7
      0x00752e62      4eb900518f78   jsr OUTCOM.get_out
      0x00752e68      141f           move.b (a7)+, d2
      0x00752e6a      4882           ext.w d2
      0x00752e6c      45bc0031       chk.w 0x31, d2
      0x00752e70      134205c0       move.b d2, 0x5c0(a1)
      0x00752e74      4eb900518f96   jsr OUTCOM.normal_set_out
  < 0x00752e7a      6000021e       bra.w 0x75309a
     0x00752e7e      4eb900518f56   jsr OUTCOM.restore_out
  < 0x00752e84      60000214       bra.w 0x75309a
     0x00752e88      554f           subq.w 0x2, a7
     0x00752e8a      4eb90064b742   jsr K9_LIBRARY.k9_screen_state
     0x00752e90      1417           move.b (a7), d2
     0x00752e92      4882           ext.w d2
     0x00752e94      45bc0006       chk.w 0x6, d2
     0x00752e98      1e82           move.b d2, (a7)
  < 0x00752e9a      6000ff70       bra.w 0x752e0c
      0x00752e9e      4eb90047b9c8   jsr CNTLCOM.update_cursor
  < 0x00752ea4      600001f4       bra.w 0x75309a
     0x00752ea8      4eb9004558e4   jsr CURSORCOM.cursor_off
  < 0x00752eae      600001ea       bra.w 0x75309a
     0x00752eb2      4a12           tst.b (a2)
  < 0x00752eb4      665e           bne.b 0x752f14
     0x00752eb6      342e000a       move.w 0xa(a6), d2
     0x00752eba      0c42fff5       cmpi.w 0xfff5, d2
  < 0x00752ebe      660e           bne.b 0x752ece
     0x00752ec0      4ebaf674       jsr MENULIBCOM.before_sell(pc)
     0x00752ec4      1f05           move.b d5, -(a7)
  > 0x00752ec6      4eb9004bda9a   jsr MENUANIMCOM.do_anim_op
  < 0x00752ecc      6044           bra.b 0x752f12
  > 0x00752ece      0c42fff4       cmpi.w 0xfff4, d2
  < 0x00752ed2      6604           bne.b 0x752ed8
     0x00752ed4      1f04           move.b d4, -(a7)
  < 0x00752ed6      60ee           bra.b 0x752ec6
  > 0x00752ed8      0c42fff3       cmpi.w 0xfff3, d2
  < 0x00752edc      6604           bne.b 0x752ee2
     0x00752ede      1f06           move.b d6, -(a7)
  < 0x00752ee0      60e4           bra.b 0x752ec6
  > 0x00752ee2      0c42fff2       cmpi.w 0xfff2, d2
  < 0x00752ee6      6608           bne.b 0x752ef0
     0x00752ee8      4ebaf64c       jsr MENULIBCOM.before_sell(pc)
     0x00752eec      4227           clr.b -(a7)
  < 0x00752eee      60d6           bra.b 0x752ec6
  > 0x00752ef0      0c42fff1       cmpi.w 0xfff1, d2
  < 0x00752ef4      661e           bne.b 0x752f14
     0x00752ef6      554f           subq.w 0x2, a7
     0x00752ef8      4eb90047d586   jsr CNTLCOM.get_swipe_state
     0x00752efe      161f           move.b (a7)+, d3
     0x00752f00      4883           ext.w d3
     0x00752f02      073aa41e       btst.l d3, 0x74d322(pc)
  < 0x00752f06      670c           beq.b 0x752f14
     0x00752f08      3f3c001b       move.w 0x1b, -(a7)
     0x00752f0c      4eb9004836a4   jsr MENUCOM.push_box
  > 0x00752f12      544f           addq.w 0x2, a7
  > 0x00752f14      60000184       bra.w 0x75309a
  < 0x00752f18      60000180       bra.w 0x75309a
     0x00752f1c      4a12           tst.b (a2)
  < 0x00752f1e      6626           bne.b 0x752f46
     0x00752f20      342e000a       move.w 0xa(a6), d2
     0x00752f24      0c42fff5       cmpi.w 0xfff5, d2
  < 0x00752f28      6706           beq.b 0x752f30
     0x00752f2a      0c42fff2       cmpi.w 0xfff2, d2
  < 0x00752f2e      6606           bne.b 0x752f36
  > 0x00752f30      4ebaf630       jsr MENULIBCOM.after_sell(pc)
  < 0x00752f34      6010           bra.b 0x752f46
  > 0x00752f36      0c42fff3       cmpi.w 0xfff3, d2
  < 0x00752f3a      660a           bne.b 0x752f46
     0x00752f3c      1f07           move.b d7, -(a7)
     0x00752f3e      4eb9004bda9a   jsr MENUANIMCOM.do_anim_op
     0x00752f44      544f           addq.w 0x2, a7
  > 0x00752f46      60000152       bra.w 0x75309a
     0x00752f4a      4a390086d2b2   tst.b 0x86d2b2
  < 0x00752f50      671a           beq.b 0x752f6c
     0x00752f52      4a12           tst.b (a2)
  < 0x00752f54      6706           beq.b 0x752f5c
     0x00752f56      3f3c00e6       move.w 0xe6, -(a7)
  < 0x00752f5a      6002           bra.b 0x752f5e
  > 0x00752f5c      3f04           move.w d4, -(a7)
  > 0x00752f5e      4eb9004818ac   jsr MENUCOM.post_box
     0x00752f64      544f           addq.w 0x2, a7
     0x00752f66      42390086d2b2   clr.b 0x86d2b2
  > 0x00752f6c      6000012c       bra.w 0x75309a
  > 0x00752f70      3400           move.w d0, d2
      0x00752f72      02421000       andi.w 0x1000, d2
  < 0x00752f76      67000122       beq.w 0x75309a
     0x00752f7a      554f           subq.w 0x2, a7
     0x00752f7c      4eb90047d586   jsr CNTLCOM.get_swipe_state
     0x00752f82      141f           move.b (a7)+, d2
     0x00752f84      4882           ext.w d2
     0x00752f86      053aa39c       btst.l d2, 0x74d324(pc)
  < 0x00752f8a      6700010e       beq.w 0x75309a
     0x00752f8e      342e0008       move.w 0x8(a6), d2
     0x00752f92      02420fff       andi.w 0xfff, d2
     0x00752f96      0c420412       cmpi.w 0x412, d2
  < 0x00752f9a      6714           beq.b 0x752fb0
     0x00752f9c      0c42000d       cmpi.w 0xd, d2
  < 0x00752fa0      660000a8       bne.w 0x75304a
     0x00752fa4      554f           subq.w 0x2, a7
     0x00752fa6      4ebafa32       jsr MENULIBCOM.desc_field_acti(pc)
     0x00752faa      4a1f           tst.b (a7)+
  < 0x00752fac      6600009c       bne.w 0x75304a
  > 0x00752fb0      554f           subq.w 0x2, a7
     0x00752fb2      4eb90048f0ee   jsr MENURIGHTCOM.get_rh_mode
     0x00752fb8      161f           move.b (a7)+, d3
     0x00752fba      b605           cmp.b d5, d3
  < 0x00752fbc      6676           bne.b 0x753034
     0x00752fbe      4a390086d27e   tst.b 0x86d27e
  < 0x00752fc4      6612           bne.b 0x752fd8
     0x00752fc6      554f           subq.w 0x2, a7
     0x00752fc8      3f3c0007       move.w 0x7, -(a7)
     0x00752fcc      4eb900480f72   jsr MENUCOM.active_box
     0x00752fd2      544f           addq.w 0x2, a7
     0x00752fd4      4a1f           tst.b (a7)+
  < 0x00752fd6      6638           bne.b 0x753010
  > 0x00752fd8      16390086d27e   move.b 0x86d27e, d3
     0x00752fde      b604           cmp.b d4, d3
  < 0x00752fe0      6612           bne.b 0x752ff4
     0x00752fe2      554f           subq.w 0x2, a7
     0x00752fe4      3f3c00ea       move.w 0xea, -(a7)
     0x00752fe8      4eb900480f72   jsr MENUCOM.active_box
     0x00752fee      544f           addq.w 0x2, a7
     0x00752ff0      4a1f           tst.b (a7)+
  < 0x00752ff2      661c           bne.b 0x753010
  > 0x00752ff4      16390086d27e   move.b 0x86d27e, d3
     0x00752ffa      b605           cmp.b d5, d3
  < 0x00752ffc      661a           bne.b 0x753018
     0x00752ffe      554f           subq.w 0x2, a7
     0x00753000      3f3c00f3       move.w 0xf3, -(a7)
     0x00753004      4eb900480f72   jsr MENUCOM.active_box
     0x0075300a      544f           addq.w 0x2, a7
     0x0075300c      4a1f           tst.b (a7)+
  < 0x0075300e      6708           beq.b 0x753018
     ; CODE XREF from MENULIBCOM @ +0x639c
  > 0x00753010      4ebaf7e8       jsr MENULIBCOM.end_action(pc)
  < 0x00753014      60000084       bra.w 0x75309a
  > 0x00753018      487aa32c       pea.l 0x74d346(pc)
     0x0075301c      4878001d       pea.l 0x1d
     0x00753020      2f17           move.l (a7), -(a7)
     0x00753022      4eb9004047ea   jsr p_wts_o
     0x00753028      defc000c       adda.w 0xc, a7
     0x0075302c      4eb900404946   jsr p_wtln_o
  < 0x00753032      6066           bra.b 0x75309a
  > 0x00753034      554f           subq.w 0x2, a7
     0x00753036      3f390086d2b4   move.w 0x86d2b4, -(a7)
     0x0075303c      4eb900481052   jsr MENUCOM.box_on_view
     0x00753042      544f           addq.w 0x2, a7
     0x00753044      4a1f           tst.b (a7)+
  < 0x00753046      6752           beq.b 0x75309a
  < 0x00753048      60c6           bra.b 0x753010
  > 0x0075304a      554f           subq.w 0x2, a7
     0x0075304c      4eb90048f0ee   jsr MENURIGHTCOM.get_rh_mode
     0x00753052      161f           move.b (a7)+, d3
     0x00753054      b605           cmp.b d5, d3
  < 0x00753056      661e           bne.b 0x753076
     0x00753058      3f02           move.w d2, -(a7)
     0x0075305a      4eb9004a531e   jsr MENUKEYBDCOM.title_action
     0x00753060      4eb90047dcdc   jsr CNTLCOM.get_control_box
     0x00753066      3f3cfff7       move.w 0xfff7, -(a7)
     0x0075306a      3f05           move.w d5, -(a7)
     0x0075306c      4eb90048128c   jsr MENUCOM.box_action
     0x00753072      5c4f           addq.w 0x6, a7
  < 0x00753074      6024           bra.b 0x75309a
  > 0x00753076      554f           subq.w 0x2, a7
     0x00753078      48c2           ext.l d2
     0x0075307a      2f02           move.l d2, -(a7)
     0x0075307c      4eb90064a4c8   jsr K9_LIBRARY.k9_key_cvt
     0x00753082      584f           addq.w 0x4, a7
     0x00753084      161f           move.b (a7)+, d3
     0x00753086      4883           ext.w d3
     0x00753088      4786           chk.w d6, d3
     0x0075308a      1d43fffe       move.b d3, -0x2(a6)
     0x0075308e      4883           ext.w d3
     0x00753090      4786           chk.w d6, d3
     0x00753092      1f03           move.b d3, -(a7)
     0x00753094      4ebaf4ee       jsr MENULIBCOM.do_key_action(pc)
     0x00753098      544f           addq.w 0x2, a7
     ; CODE XREFS from MENULIBCOM @ +0x6368, +0x6386, +0x63c8
  > 0x0075309a      4cdf1fff       movem.l (a7)+, d0-d7/a0-a4
            0x0075309e      4e5e           unlk a6
            0x007530a0      4e75           rts
 60: MENULIBCOM.get_std_box_org ();
           0x007530a2      4e56ffd4       link.w a6, 0xffd4
           0x007530a6      bfd5           cmpa.l (a5), a7
       < 0x007530a8      6206           bhi.b 0x7530b0
          0x007530aa      44fc0002       move.w 0x2, ccr
          0x007530ae      4e76           trapv
       > 0x007530b0      defc0028       adda.w 0x28, a7
           0x007530b4      48e7e8c0       movem.l d0-d2/d4/a0-a1, -(a7)
           0x007530b8      43ee000a       lea.l 0xa(a6), a1
           0x007530bc      7425           moveq 0x25, d2
           0x007530be      102e0008       move.b 0x8(a6), d0
           0x007530c2      b002           cmp.b d2, d0
       < 0x007530c4      6d2a           blt.b 0x7530f0
          0x007530c6      4880           ext.w d0
          0x007530c8      3200           move.w d0, d1
          0x007530ca      9242           sub.w d2, d1
          0x007530cc      0c410008       cmpi.w 0x8, d1
      < 0x007530d0      6200012a       bhi.w 0x7531fc
         0x007530d4      d241           add.w d1, d1
         0x007530d6      323b1006       move.w 0x7530de(pc, d1.w), d1
         0x007530da      4efb1002       jmp 0x7530de(pc, d1.w)
          0x007530de      00d600dc       
          0x007530df      d600           add.b d0, d3
          0x007530e1      dc00           add.b d0, d6
          0x007530e3      7400           moveq 0x0, d2
          0x007530e5      ae01           invalid
          0x007530e7      00010601       ori.b 0x1, d1
          0x007530eb      0c011201       cmpi.b 0x1, d1
          0x007530ef      18488055       
       > 0x007530f0      4880           ext.w d0
           0x007530f2      5540           subq.w 0x2, d0
           0x007530f4      0c400011       cmpi.w 0x11, d0
       < 0x007530f8      62000102       bhi.w 0x7531fc
          0x007530fc      d040           add.w d0, d0
          0x007530fe      303b0006       move.w 0x753106(pc, d0.w), d0
          0x00753102      4efb0002       jmp 0x753106(pc, d0.w)
          0x00753106      0024002c       ori.b 0x2c, -(a4)
          0x0075310a      003400900096   ori.b 0x90, -0x6a(a4, d0.w)
          0x00753110      00cc00d2       
          0x00753111      cc00           and.b d0, d6
          0x00753113      d200           add.b d0, d1
          0x00753115      9c00           sub.b d0, d6
          0x00753117      c600           and.b d0, d3
          0x00753119      a200           invalid
          0x0075311b      3c00           move.w d0, d6
          0x0075311d      ba00           cmp.b d0, d5
          0x0075311f      4400           neg.b d0
          0x00753121      f600f600f600   move16 (a0)+, 0xf600f600
          0x00753127      a800           invalid
          0x00753129      c022           and.b -(a2), d0
          0x0075312b      baa2           cmp.l -(a2), d5
          0x0075312d      e460           asr.w d2, d0
          0x0075312f      0000d022       ori.b 0x22, d0
          0x00753133      baa2           cmp.l -(a2), d5
          0x00753135      e060           asr.w d0, d0
          0x00753137      0000c822       ori.b 0x22, d0
          0x0075313b      baa2           cmp.l -(a2), d5
          0x0075313d      dc60           add.w -(a0), d6
          0x0075313f      0000c022       ori.b 0x22, d0
          0x00753143      baa2           cmp.l -(a2), d5
          0x00753145      d860           add.w -(a0), d4
          0x00753147      0000b822       ori.b 0x22, d0
          0x0075314b      baa2           cmp.l -(a2), d5
          0x0075314d      d460           add.w -(a0), d2
          0x0075314f      0000b055       ori.b 0x55, d0
          0x00753153      4f780e4e       
          0x00753154      780e           moveq 0xe, d4
          0x00753156      4eb900408686   jsr fcn.00408686
          0x0075315c      2f04           move.l d4, -(a7)
      > 0x0075315e      4eb900486b8c   jsr MENUCOM.grid_xpos
         0x00753164      584f           addq.w 0x4, a7
         0x00753166      3d5ffffc       move.w (a7)+, -0x4(a6)
         0x0075316a      3d7c0005fffe   move.w 0x5, -0x2(a6)
         0x00753170      206c000c       movea.l 0xc(a4), a0
         0x00753174      554f           subq.w 0x2, a7
         0x00753176      2f3c40200000   move.l 0x40200000, -(a7)
         0x0075317c      4eb900486c44   jsr MENUCOM.grid_xlen
         0x00753182      584f           addq.w 0x4, a7
         0x00753184      309f           move.w (a7)+, (a0)
         0x00753186      22aefffc       move.l -0x4(a6), (a1)
     < 0x0075318a      6074           bra.b 0x753200
        0x0075318c      554f           subq.w 0x2, a7
        0x0075318e      2f3c41840000   move.l 0x41840000, -(a7)
     < 0x00753194      60c8           bra.b 0x75315e
         0x00753196      22baa28c       move.l 0x74d424(pc), (a1)
     < 0x0075319a      6064           bra.b 0x753200
        0x0075319c      22baa28a       move.l 0x74d428(pc), (a1)
    < 0x007531a0      605e           bra.b 0x753200
       0x007531a2      22baa288       move.l 0x74d42c(pc), (a1)
   < 0x007531a6      6058           bra.b 0x753200
      0x007531a8      22baa286       move.l 0x74d430(pc), (a1)
  < 0x007531ac      6052           bra.b 0x753200
     0x007531ae      22baa284       move.l 0x74d434(pc), (a1)
  < 0x007531b2      604c           bra.b 0x753200
     0x007531b4      22baa282       move.l 0x74d438(pc), (a1)
  < 0x007531b8      6046           bra.b 0x753200
     0x007531ba      22baa280       move.l 0x74d43c(pc), (a1)
  < 0x007531be      6040           bra.b 0x753200
     0x007531c0      22baa27e       move.l 0x74d440(pc), (a1)
  < 0x007531c4      603a           bra.b 0x753200
     0x007531c6      22baa27c       move.l 0x74d444(pc), (a1)
  < 0x007531ca      6034           bra.b 0x753200
     0x007531cc      22baa27a       move.l 0x74d448(pc), (a1)
  < 0x007531d0      602e           bra.b 0x753200
     0x007531d2      22baa278       move.l 0x74d44c(pc), (a1)
  < 0x007531d6      6028           bra.b 0x753200
     0x007531d8      22baa276       move.l 0x74d450(pc), (a1)
  < 0x007531dc      6022           bra.b 0x753200
     0x007531de      22baa274       move.l 0x74d454(pc), (a1)
  < 0x007531e2      601c           bra.b 0x753200
     0x007531e4      22baa272       move.l 0x74d458(pc), (a1)
  < 0x007531e8      6016           bra.b 0x753200
     0x007531ea      22baa270       move.l 0x74d45c(pc), (a1)
  < 0x007531ee      6010           bra.b 0x753200
     0x007531f0      22baa26e       move.l 0x74d460(pc), (a1)
  < 0x007531f4      600a           bra.b 0x753200
     0x007531f6      22baa26c       move.l 0x74d464(pc), (a1)
  < 0x007531fa      6004           bra.b 0x753200
  > 0x007531fc      22baa26a       move.l 0x74d468(pc), (a1)
  > 0x00753200      4cdf0317       movem.l (a7)+, d0-d2/d4/a0-a1
            0x00753204      4e5e           unlk a6
            0x00753206      4e75           rts
 52: MENULIBCOM.get_blender_box ();
           0x00753208      4e56fff4       link.w a6, 0xfff4
           0x0075320c      bfd5           cmpa.l (a5), a7
       < 0x0075320e      6206           bhi.b 0x753216
          0x00753210      44fc0002       move.w 0x2, ccr
          0x00753214      4e76           trapv
       > 0x00753216      defc000c       adda.w 0xc, a7
           0x0075321a      48e78080       movem.l d0/a0, -(a7)
           0x0075321e      41ee000a       lea.l 0xa(a6), a0
           0x00753222      102e0008       move.b 0x8(a6), d0
           0x00753226      4880           ext.w d0
           0x00753228      0440001d       subi.w 0x1d, d0
           0x0075322c      0c400004       cmpi.w 0x4, d0
       < 0x00753230      6232           bhi.b 0x753264
          0x00753232      d040           add.w d0, d0
          0x00753234      303b0006       move.w 0x75323c(pc, d0.w), d0
          0x00753238      4efb0002       jmp 0x75323c(pc, d0.w)
           0x0075323c      0022000a       ori.b 0xa, -(a2)
           0x00753240      00100016       ori.b 0x16, (a0)
           0x00753244      001c20ba       ori.b 0xba, (a4)+
           0x00753248      a224           invalid
       < 0x0075324a      601c           bra.b 0x753268
          0x0075324c      20baa222       move.l 0x74d470(pc), (a0)
      < 0x00753250      6016           bra.b 0x753268
         0x00753252      20baa220       move.l 0x74d474(pc), (a0)
     < 0x00753256      6010           bra.b 0x753268
        0x00753258      20baa21e       move.l 0x74d478(pc), (a0)
    < 0x0075325c      600a           bra.b 0x753268
       0x0075325e      20baa21c       move.l 0x74d47c(pc), (a0)
   < 0x00753262      6004           bra.b 0x753268
   > 0x00753264      20baa21a       move.l 0x74d480(pc), (a0)
   > 0x00753268      4cdf0101       movem.l (a7)+, d0/a0
            0x0075326c      4e5e           unlk a6
            0x0075326e      4e75           rts
            ; CALL XREF from MENULIBCOM.add_type_boxes @ 0x75340a
            ; CALL XREF from MENULIBCOM.add_henry_blend @ 0x75395e
 54: MENULIBCOM.get_box_org ();
           0x00753270      4e56ffea       link.w a6, 0xffea
           0x00753274      bfd5           cmpa.l (a5), a7
       < 0x00753276      6206           bhi.b 0x75327e
          0x00753278      44fc0002       move.w 0x2, ccr
          0x0075327c      4e76           trapv
       > 0x0075327e      defc0016       adda.w 0x16, a7
           0x00753282      48e78088       movem.l d0/a0/a4, -(a7)
           0x00753286      206e0008       movea.l 0x8(a6), a0
           0x0075328a      30bc0005       move.w 0x5, (a0)
           0x0075328e      102e000e       move.b 0xe(a6), d0
           0x00753292      4880           ext.w d0
           0x00753294      0c400002       cmpi.w 0x2, d0
       < 0x00753298      6302           bls.b 0x75329c
          0x0075329a      4e4e           trap 0xe
       > 0x0075329c      d040           add.w d0, d0
           0x0075329e      303b0006       move.w 0x7532a6(pc, d0.w), d0
           0x007532a2      4efb0002       jmp 0x7532a6(pc, d0.w)
            0x007532a6      0006002e       ori.b 0x2e, d6
            0x007532aa      0020594f       ori.b 0x4f, -(a0)
            0x007532ae      1f2e000c       move.b 0xc(a6), -(a7)
            0x007532b2      49eefffc       lea.l -0x4(a6), a4
            0x007532b6      4ebafdea       jsr MENULIBCOM.get_std_box_org(pc)
            0x007532ba      544f           addq.w 0x2, a7
            0x007532bc      286efffc       movea.l -0x4(a6), a4
        > 0x007532c0      2d5f0010       move.l (a7)+, 0x10(a6)
       < 0x007532c4      6014           bra.b 0x7532da
          0x007532c6      594f           subq.w 0x4, a7
          0x007532c8      1f2e000c       move.b 0xc(a6), -(a7)
          0x007532cc      4ebaff3a       jsr MENULIBCOM.get_blender_box(pc)
          0x007532d0      544f           addq.w 0x2, a7
       < 0x007532d2      60ec           bra.b 0x7532c0
           0x007532d4      2d7aa1ae0010   move.l 0x74d484(pc), 0x10(a6)
       > 0x007532da      4cdf1101       movem.l (a7)+, d0/a0/a4
            0x007532de      4e5e           unlk a6
            0x007532e0      4e75           rts
            ; XREFS(70)
 246: MENULIBCOM.new_box_id ();
           0x007532e2      4e56ff00       link.w a6, 0xff00
           0x007532e6      bfd5           cmpa.l (a5), a7
       < 0x007532e8      6206           bhi.b 0x7532f0
          0x007532ea      44fc0002       move.w 0x2, ccr
          0x007532ee      4e76           trapv
       > 0x007532f0      defc00aa       adda.w 0xaa, a7
           0x007532f4      48e7c3f8       movem.l d0-d1/d6-d7/a0-a4, -(a7)
           0x007532f8      47ee0018       lea.l 0x18(a6), a3
           0x007532fc      49ee0014       lea.l 0x14(a6), a4
           0x00753300      4a93           tst.l (a3)
       < 0x00753302      661a           bne.b 0x75331e
          0x00753304      7000           moveq 0x0, d0
          0x00753306      b094           cmp.l (a4), d0
      < 0x00753308      6e04           bgt.b 0x75330e
         0x0075330a      9093           sub.l (a3), d0
     < 0x0075330c      6c02           bge.b 0x753310
     > 0x0075330e      4e4f           trap 0xf
     > 0x00753310      206e001c       movea.l 0x1c(a6), a0
          0x00753314      4281           clr.l d1
          0x00753316      12300800       move.b (a0, d0.l), d1
          0x0075331a      3c01           move.w d1, d6
      < 0x0075331c      601a           bra.b 0x753338
      > 0x0075331e      2014           move.l (a4), d0
          0x00753320      0480ffff8000   subi.l 0xffff8000, d0
          0x00753326      0c800000ffff   cmpi.l 0xffff, d0
      < 0x0075332c      6302           bls.b 0x753330
         0x0075332e      4e4f           trap 0xf
      > 0x00753330      0680ffff8000   addi.l 0xffff8000, d0
          0x00753336      3c00           move.w d0, d6
      > 0x00753338      206e001c       movea.l 0x1c(a6), a0
           0x0075333c      7e01           moveq 0x1, d7
       > 0x0075333e      be46           cmp.w d6, d7
      < 0x00753340      6e1c           bgt.b 0x75335e
         0x00753342      4fbc0050       chk.w 0x50, d7
         0x00753346      48c7           ext.l d7
         0x00753348      2007           move.l d7, d0
         0x0075334a      b094           cmp.l (a4), d0
     < 0x0075334c      6e04           bgt.b 0x753352
        0x0075334e      9093           sub.l (a3), d0
    < 0x00753350      6c02           bge.b 0x753354
    > 0x00753352      4e4f           trap 0xf
    > 0x00753354      1db0080070ae   move.b (a0, d0.l), -0x52(a6, d7.w)
         0x0075335a      5247           addq.w 0x1, d7
      < 0x0075335c      68e0           bvc.b 0x75333e
      > 0x0075335e      4dbc00ff       chk.w 0xff, d6
           0x00753362      1d46ffae       move.b d6, -0x52(a6)
           0x00753366      206e0034       movea.l 0x34(a6), a0
           0x0075336a      9efc0052       suba.w 0x52, a7
           0x0075336e      224f           movea.l a7, a1
           0x00753370      45eeffae       lea.l -0x52(a6), a2
           0x00753374      7013           moveq 0x13, d0
       > 0x00753376      22da           move.l (a2)+, (a1)+
       < 0x00753378      51c8fffc       dbra d0, 0x753376
           0x0075337c      12da           move.b (a2)+, (a1)+
           0x0075337e      4850           pea.l (a0)
           0x00753380      3f2e0032       move.w 0x32(a6), -(a7)
           0x00753384      3f2e0030       move.w 0x30(a6), -(a7)
           0x00753388      3f2e002e       move.w 0x2e(a6), -(a7)
           0x0075338c      3f2e002c       move.w 0x2c(a6), -(a7)
           0x00753390      1f2e002a       move.b 0x2a(a6), -(a7)
           0x00753394      1f2e0028       move.b 0x28(a6), -(a7)
           0x00753398      3f2e0026       move.w 0x26(a6), -(a7)
           0x0075339c      3f2e0024       move.w 0x24(a6), -(a7)
           0x007533a0      2f2e0020       move.l 0x20(a6), -(a7)
           0x007533a4      486f0018       pea.l 0x18(a7)
           0x007533a8      48780000       pea.l 0x0
           0x007533ac      48780050       pea.l 0x50
           0x007533b0      2f2e0010       move.l 0x10(a6), -(a7)
           0x007533b4      2f2e000c       move.l 0xc(a6), -(a7)
           0x007533b8      4eb900487aa6   jsr MENUCOM.new_box
           0x007533be      defc007c       adda.w 0x7c, a7
           0x007533c2      3e90           move.w (a0), (a7)
           0x007533c4      2f2e0008       move.l 0x8(a6), -(a7)
           0x007533c8      4eb90048402c   jsr MENUCOM.set_b_id
           0x007533ce      5c4f           addq.w 0x6, a7
           0x007533d0      4cdf1fc3       movem.l (a7)+, d0-d1/d6-d7/a0-a4
           0x007533d4      4e5e           unlk a6
           0x007533d6      4e75           rts
            ; CALL XREF from MENULIBCOM.define_skls_typ @ 0x753ee2
            ; CALL XREF from MENULIBCOM.define_retitle_ @ 0x754048
 322: MENULIBCOM.add_type_boxes ();
           0x007533d8      4e56fd9c       link.w a6, 0xfd9c
           0x007533dc      bfd5           cmpa.l (a5), a7
       < 0x007533de      6206           bhi.b 0x7533e6
          0x007533e0      44fc0002       move.w 0x2, ccr
          0x007533e4      4e76           trapv
       > 0x007533e6      defc025c       adda.w 0x25c, a7
           0x007533ea      48e7e1f0       movem.l d0-d2/d7/a0-a3, -(a7)
           0x007533ee      7201           moveq 0x1, d1
           0x007533f0      343c0102       move.w 0x102, d2
           0x007533f4      206e0018       movea.l 0x18(a6), a0
           0x007533f8      226e0018       movea.l 0x18(a6), a1
           0x007533fc      7e02           moveq 0x2, d7
       > 0x007533fe      594f           subq.w 0x4, a7
          0x00753400      1f2e001e       move.b 0x1e(a6), -(a7)
          0x00753404      1f07           move.b d7, -(a7)
          0x00753406      486efffe       pea.l -0x2(a6)
          0x0075340a      4ebafe64       jsr MENULIBCOM.get_box_org(pc)
          0x0075340e      504f           addq.w 0x8, a7
          0x00753410      2d5ffffa       move.l (a7)+, -0x6(a6)
      < 0x00753414      660c           bne.b 0x753422
         0x00753416      4887           ext.w d7
         0x00753418      3007           move.w d7, d0
         0x0075341a      e340           asl.w 0x1, d0
         0x0075341c      42710000       clr.w (a1, d0.w)
     < 0x00753420      607c           bra.b 0x75349e
     > 0x00753422      9ec2           suba.w d2, a7
         0x00753424      1f07           move.b d7, -(a7)
         0x00753426      4eb9005af700   jsr K2_TYPES.k2_get_ktype
         0x0075342c      544f           addq.w 0x2, a7
         0x0075342e      1017           move.b (a7), d0
         0x00753430      4880           ext.w d0
         0x00753432      41bc0056       chk.w 0x56, d0
         0x00753436      1e80           move.b d0, (a7)
         0x00753438      4eb9005af840   jsr K2_TYPES.k2_get_type_str
         0x0075343e      9efc00fe       suba.w 0xfe, a7
         0x00753442      244f           movea.l a7, a2
         0x00753444      47ef0100       lea.l 0x100(a7), a3
         0x00753448      703f           moveq 0x3f, d0
     > 0x0075344a      24db           move.l (a3)+, (a2)+
     < 0x0075344c      51c8fffc       dbra d0, 0x75344a
         0x00753450      4887           ext.w d7
         0x00753452      3007           move.w d7, d0
         0x00753454      e340           asl.w 0x1, d0
         0x00753456      48700000       pea.l (a0, d0.w)
         0x0075345a      3f2efffa       move.w -0x6(a6), -(a7)
         0x0075345e      3f2efffc       move.w -0x4(a6), -(a7)
         0x00753462      3f2efffe       move.w -0x2(a6), -(a7)
         0x00753466      3f01           move.w d1, -(a7)
         0x00753468      1f02           move.b d2, -(a7)
         0x0075346a      4227           clr.b -(a7)
         0x0075346c      3f2e001c       move.w 0x1c(a6), -(a7)
         0x00753470      4267           clr.w -(a7)
         0x00753472      2f3a9aa4       move.l 0x74cf18(pc), -(a7)
         0x00753476      486f0018       pea.l 0x18(a7)
         0x0075347a      48780000       pea.l 0x0
         0x0075347e      487800ff       pea.l 0xff
         0x00753482      2f2e0010       move.l 0x10(a6), -(a7)
         0x00753486      2f2e000c       move.l 0xc(a6), -(a7)
         0x0075348a      4887           ext.w d7
         0x0075348c      48c7           ext.l d7
         0x0075348e      2007           move.l d7, d0
         0x00753490      d0ae0008       add.l 0x8(a6), d0
         0x00753494      2f00           move.l d0, -(a7)
         0x00753496      4ebafe4a       jsr MENULIBCOM.new_box_id(pc)
         0x0075349a      defc0230       adda.w 0x230, a7
     > 0x0075349e      5207           addq.b 0x1, d7
          0x007534a0      0c07002d       cmpi.b 0x2d, d7
       < 0x007534a4      6f00ff58       ble.w 0x7533fe
           0x007534a8      206e0014       movea.l 0x14(a6), a0
           0x007534ac      554f           subq.w 0x2, a7
           0x007534ae      1eba9fd9       move.b 0x74d489(pc), (a7)
           0x007534b2      1f7a9fd60001   move.b 0x74d48a(pc), 0x1(a7)
           0x007534b8      4850           pea.l (a0)
           0x007534ba      3f3c000a       move.w 0xa, -(a7)
           0x007534be      3f3c0006       move.w 0x6, -(a7)
           0x007534c2      3f3c0004       move.w 0x4, -(a7)
           0x007534c6      3f01           move.w d1, -(a7)
           0x007534c8      4227           clr.b -(a7)
           0x007534ca      1f01           move.b d1, -(a7)
           0x007534cc      3f2e001c       move.w 0x1c(a6), -(a7)
           0x007534d0      4267           clr.w -(a7)
           0x007534d2      2f3a9a44       move.l 0x74cf18(pc), -(a7)
           0x007534d6      486f0018       pea.l 0x18(a7)
           0x007534da      48780001       pea.l 0x1
           0x007534de      48780002       pea.l 0x2
           0x007534e2      486d0010       pea.l 0x10(a5)
           0x007534e6      487900481fee   pea.l MENUCOM.hit_nothing
           0x007534ec      4eb900487aa6   jsr MENUCOM.new_box
           0x007534f2      defc002c       adda.w 0x2c, a7
           0x007534f6      3e90           move.w (a0), (a7)
           0x007534f8      9efc0100       suba.w 0x100, a7
           0x007534fc      204f           movea.l a7, a0
           0x007534fe      43fa9f8b       lea.l 0x74d48b(pc), a1
           0x00753502      700b           moveq 0xb, d0
       > 0x00753504      10d9           move.b (a1)+, (a0)+
       < 0x00753506      51c8fffc       dbra d0, 0x753504
           0x0075350a      4eb90048442e   jsr MENUCOM.set_box_macro_n
           0x00753510      dec2           adda.w d2, a7
           0x00753512      4cdf0f87       movem.l (a7)+, d0-d2/d7/a0-a3
           0x00753516      4e5e           unlk a6
           0x00753518      4e75           rts
            ; CALL XREF from MENULIBCOM.define_skls_typ @ 0x753e62
            ; CALL XREF from MENULIBCOM.define_retitle_ @ 0x753fec
 1026: MENULIBCOM.add_henry_clips ();
           0x0075351a      4e56fd8a       link.w a6, 0xfd8a
           0x0075351e      bfd5           cmpa.l (a5), a7
       < 0x00753520      6206           bhi.b 0x753528
          0x00753522      44fc0002       move.w 0x2, ccr
          0x00753526      4e76           trapv
       > 0x00753528      defc0274       adda.w 0x274, a7
           0x0075352c      48e7fff8       movem.l d0-d7/a0-a4, -(a7)
           0x00753530      49fa99e6       lea.l 0x74cf18(pc), a4
           0x00753534      7201           moveq 0x1, d1
           0x00753536      343c0102       move.w 0x102, d2
           0x0075353a      760e           moveq 0xe, d3
           0x0075353c      7a05           moveq 0x5, d5
           0x0075353e      7c56           moveq 0x56, d6
           0x00753540      206e001c       movea.l 0x1c(a6), a0
           0x00753544      594f           subq.w 0x4, a7
           0x00753546      2f3a9f50       move.l 0x74d498(pc), -(a7)
           0x0075354a      3f7a9f500004   move.w 0x74d49c(pc), 0x4(a7)
           0x00753550      1f7a9f4c0006   move.b 0x74d49e(pc), 0x6(a7)
           0x00753556      4850           pea.l (a0)
           0x00753558      3f03           move.w d3, -(a7)
           0x0075355a      3f01           move.w d1, -(a7)
           0x0075355c      3f05           move.w d5, -(a7)
           0x0075355e      3f01           move.w d1, -(a7)
           0x00753560      1f01           move.b d1, -(a7)
           0x00753562      4227           clr.b -(a7)
           0x00753564      3f2e0020       move.w 0x20(a6), -(a7)
           0x00753568      4267           clr.w -(a7)
           0x0075356a      2f14           move.l (a4), -(a7)
           0x0075356c      486f0018       pea.l 0x18(a7)
           0x00753570      48780001       pea.l 0x1
           0x00753574      48780007       pea.l 0x7
           0x00753578      2f2e0010       move.l 0x10(a6), -(a7)
           0x0075357c      2f2e000c       move.l 0xc(a6), -(a7)
           0x00753580      2f2e0008       move.l 0x8(a6), -(a7)
           0x00753584      4ebafd5c       jsr MENULIBCOM.new_box_id(pc)
           0x00753588      defc0036       adda.w 0x36, a7
           0x0075358c      3e90           move.w (a0), (a7)
           0x0075358e      4eb900481d90   jsr MENUCOM.swtch_on_box
           0x00753594      544f           addq.w 0x2, a7
           0x00753596      226e0018       movea.l 0x18(a6), a1
           0x0075359a      780e           moveq 0xe, d4
           0x0075359c      4eb900408686   jsr fcn.00408686
           0x007535a2      9ec2           suba.w d2, a7
           0x007535a4      1f03           move.b d3, -(a7)
           0x007535a6      4eb9005af700   jsr K2_TYPES.k2_get_ktype
           0x007535ac      544f           addq.w 0x2, a7
           0x007535ae      1017           move.b (a7), d0
           0x007535b0      4880           ext.w d0
           0x007535b2      4186           chk.w d6, d0
           0x007535b4      1e80           move.b d0, (a7)
           0x007535b6      4eb9005af840   jsr K2_TYPES.k2_get_type_str
           0x007535bc      9efc00fe       suba.w 0xfe, a7
           0x007535c0      244f           movea.l a7, a2
           0x007535c2      47ef0100       lea.l 0x100(a7), a3
           0x007535c6      703f           moveq 0x3f, d0
       > 0x007535c8      24db           move.l (a3)+, (a2)+
       < 0x007535ca      51c8fffc       dbra d0, 0x7535c8
           0x007535ce      4869001c       pea.l 0x1c(a1)
           0x007535d2      554f           subq.w 0x2, a7
           0x007535d4      2f04           move.l d4, -(a7)
           0x007535d6      4eb900486b8c   jsr MENUCOM.grid_xpos
           0x007535dc      544f           addq.w 0x2, a7
           0x007535de      3ebc0004       move.w 0x4, (a7)
           0x007535e2      554f           subq.w 0x2, a7
           0x007535e4      2f3c40200000   move.l 0x40200000, -(a7)
           0x007535ea      4eb900486c44   jsr MENUCOM.grid_xlen
           0x007535f0      544f           addq.w 0x2, a7
           0x007535f2      3e81           move.w d1, (a7)
           0x007535f4      1f02           move.b d2, -(a7)
           0x007535f6      4227           clr.b -(a7)
           0x007535f8      3f10           move.w (a0), -(a7)
           0x007535fa      4267           clr.w -(a7)
           0x007535fc      2f14           move.l (a4), -(a7)
           0x007535fe      486f0018       pea.l 0x18(a7)
           0x00753602      48780000       pea.l 0x0
           0x00753606      487800ff       pea.l 0xff
           0x0075360a      2f2e0010       move.l 0x10(a6), -(a7)
           0x0075360e      2f2e000c       move.l 0xc(a6), -(a7)
           0x00753612      700e           moveq 0xe, d0
           0x00753614      d0ae0008       add.l 0x8(a6), d0
           0x00753618      2f00           move.l d0, -(a7)
           0x0075361a      4ebafcc6       jsr MENULIBCOM.new_box_id(pc)
           0x0075361e      defc022c       adda.w 0x22c, a7
           0x00753622      4eb9004789c0   jsr CONFIGCOM.cfg_layers
           0x00753628      201f           move.l (a7)+, d0
           0x0075362a      b081           cmp.l d1, d0
       < 0x0075362c      660c           bne.b 0x75363a
          0x0075362e      3f29001c       move.w 0x1c(a1), -(a7)
          0x00753632      4eb900482304   jsr MENUCOM.hide_box
          0x00753638      544f           addq.w 0x2, a7
       > 0x0075363a      9ec2           suba.w d2, a7
           0x0075363c      1f3c0015       move.b 0x15, -(a7)
           0x00753640      4eb9005af700   jsr K2_TYPES.k2_get_ktype
           0x00753646      544f           addq.w 0x2, a7
           0x00753648      1017           move.b (a7), d0
           0x0075364a      4880           ext.w d0
           0x0075364c      4186           chk.w d6, d0
           0x0075364e      1e80           move.b d0, (a7)
           0x00753650      4eb9005af840   jsr K2_TYPES.k2_get_type_str
           0x00753656      9efc00fe       suba.w 0xfe, a7
           0x0075365a      244f           movea.l a7, a2
           0x0075365c      47ef0100       lea.l 0x100(a7), a3
           0x00753660      703f           moveq 0x3f, d0
       > 0x00753662      24db           move.l (a3)+, (a2)+
       < 0x00753664      51c8fffc       dbra d0, 0x753662
           0x00753668      4869002a       pea.l 0x2a(a1)
           0x0075366c      554f           subq.w 0x2, a7
           0x0075366e      2f3c41840000   move.l 0x41840000, -(a7)
           0x00753674      4eb900486b8c   jsr MENUCOM.grid_xpos
           0x0075367a      544f           addq.w 0x2, a7
           0x0075367c      3ebc0004       move.w 0x4, (a7)
           0x00753680      554f           subq.w 0x2, a7
           0x00753682      2f3c40200000   move.l 0x40200000, -(a7)
           0x00753688      4eb900486c44   jsr MENUCOM.grid_xlen
           0x0075368e      544f           addq.w 0x2, a7
           0x00753690      3e81           move.w d1, (a7)
           0x00753692      1f02           move.b d2, -(a7)
           0x00753694      4227           clr.b -(a7)
           0x00753696      3f10           move.w (a0), -(a7)
           0x00753698      4267           clr.w -(a7)
           0x0075369a      2f14           move.l (a4), -(a7)
           0x0075369c      486f0018       pea.l 0x18(a7)
           0x007536a0      48780000       pea.l 0x0
           0x007536a4      487800ff       pea.l 0xff
           0x007536a8      2f2e0010       move.l 0x10(a6), -(a7)
           0x007536ac      2f2e000c       move.l 0xc(a6), -(a7)
           0x007536b0      7015           moveq 0x15, d0
           0x007536b2      d0ae0008       add.l 0x8(a6), d0
           0x007536b6      2f00           move.l d0, -(a7)
           0x007536b8      4ebafc28       jsr MENULIBCOM.new_box_id(pc)
           0x007536bc      defc022c       adda.w 0x22c, a7
           0x007536c0      4eb9004789c0   jsr CONFIGCOM.cfg_layers
           0x007536c6      201f           move.l (a7)+, d0
           0x007536c8      b081           cmp.l d1, d0
       < 0x007536ca      660c           bne.b 0x7536d8
          0x007536cc      3f29002a       move.w 0x2a(a1), -(a7)
          0x007536d0      4eb900482304   jsr MENUCOM.hide_box
          0x007536d6      544f           addq.w 0x2, a7
       > 0x007536d8      9ec2           suba.w d2, a7
           0x007536da      1f3c0016       move.b 0x16, -(a7)
           0x007536de      4eb9005af700   jsr K2_TYPES.k2_get_ktype
           0x007536e4      544f           addq.w 0x2, a7
           0x007536e6      1017           move.b (a7), d0
           0x007536e8      4880           ext.w d0
           0x007536ea      4186           chk.w d6, d0
           0x007536ec      1e80           move.b d0, (a7)
           0x007536ee      4eb9005af840   jsr K2_TYPES.k2_get_type_str
           0x007536f4      9efc00fe       suba.w 0xfe, a7
           0x007536f8      244f           movea.l a7, a2
           0x007536fa      47ef0100       lea.l 0x100(a7), a3
           0x007536fe      703f           moveq 0x3f, d0
       > 0x00753700      24db           move.l (a3)+, (a2)+
       < 0x00753702      51c8fffc       dbra d0, 0x753700
           0x00753706      4869002c       pea.l 0x2c(a1)
           0x0075370a      3f03           move.w d3, -(a7)
           0x0075370c      3f05           move.w d5, -(a7)
           0x0075370e      3f05           move.w d5, -(a7)
           0x00753710      3f01           move.w d1, -(a7)
           0x00753712      1f02           move.b d2, -(a7)
           0x00753714      4227           clr.b -(a7)
           0x00753716      3f10           move.w (a0), -(a7)
           0x00753718      4267           clr.w -(a7)
           0x0075371a      2f14           move.l (a4), -(a7)
           0x0075371c      486f0018       pea.l 0x18(a7)
           0x00753720      48780000       pea.l 0x0
           0x00753724      487800ff       pea.l 0xff
           0x00753728      2f2e0010       move.l 0x10(a6), -(a7)
           0x0075372c      2f2e000c       move.l 0xc(a6), -(a7)
           0x00753730      7016           moveq 0x16, d0
           0x00753732      d0ae0008       add.l 0x8(a6), d0
           0x00753736      2f00           move.l d0, -(a7)
           0x00753738      4ebafba8       jsr MENULIBCOM.new_box_id(pc)
           0x0075373c      defc022c       adda.w 0x22c, a7
           0x00753740      4eb9004789c0   jsr CONFIGCOM.cfg_layers
           0x00753746      201f           move.l (a7)+, d0
           0x00753748      b081           cmp.l d1, d0
       < 0x0075374a      660c           bne.b 0x753758
          0x0075374c      3f29002c       move.w 0x2c(a1), -(a7)
          0x00753750      4eb900482304   jsr MENUCOM.hide_box
          0x00753756      544f           addq.w 0x2, a7
       > 0x00753758      2f3a9d4a       move.l 0x74d4a4(pc), -(a7)
           0x0075375c      2f3a9d42       move.l 0x74d4a0(pc), -(a7)
           0x00753760      48680002       pea.l 0x2(a0)
           0x00753764      3f03           move.w d3, -(a7)
           0x00753766      3f3c0002       move.w 0x2, -(a7)
           0x0075376a      3f05           move.w d5, -(a7)
           0x0075376c      3f01           move.w d1, -(a7)
           0x0075376e      1f01           move.b d1, -(a7)
           0x00753770      4227           clr.b -(a7)
           0x00753772      3f2e0020       move.w 0x20(a6), -(a7)
           0x00753776      3f10           move.w (a0), -(a7)
           0x00753778      2f14           move.l (a4), -(a7)
           0x0075377a      486f0018       pea.l 0x18(a7)
           0x0075377e      48780001       pea.l 0x1
           0x00753782      48780008       pea.l 0x8
           0x00753786      2f2e0010       move.l 0x10(a6), -(a7)
           0x0075378a      2f2e000c       move.l 0xc(a6), -(a7)
           0x0075378e      2f2e0008       move.l 0x8(a6), -(a7)
           0x00753792      4ebafb4e       jsr MENULIBCOM.new_box_id(pc)
           0x00753796      defc0036       adda.w 0x36, a7
           0x0075379a      4eb9004755c2   jsr CONFIG.cfg_gender
           0x007537a0      101f           move.b (a7)+, d0
           0x007537a2      0c000016       cmpi.b 0x16, d0
       < 0x007537a6      660e           bne.b 0x7537b6
          0x007537a8      3f280002       move.w 0x2(a0), -(a7)
          0x007537ac      4eb900482304   jsr MENUCOM.hide_box
          0x007537b2      544f           addq.w 0x2, a7
      < 0x007537b4      6010           bra.b 0x7537c6
      > 0x007537b6      3f280002       move.w 0x2(a0), -(a7)
          0x007537ba      3f29001c       move.w 0x1c(a1), -(a7)
          0x007537be      4eb900486f94   jsr MENUCOM.add_slave
          0x007537c4      584f           addq.w 0x4, a7
      > 0x007537c6      594f           subq.w 0x4, a7
           0x007537c8      1eba9cdf       move.b 0x74d4a9(pc), (a7)
           0x007537cc      1f7a9cdc0001   move.b 0x74d4aa(pc), 0x1(a7)
           0x007537d2      1f7a9cd70002   move.b 0x74d4ab(pc), 0x2(a7)
           0x007537d8      1f7a9cd20003   move.b 0x74d4ac(pc), 0x3(a7)
           0x007537de      48680004       pea.l 0x4(a0)
           0x007537e2      554f           subq.w 0x2, a7
           0x007537e4      2f04           move.l d4, -(a7)
           0x007537e6      4eb900486b8c   jsr MENUCOM.grid_xpos
           0x007537ec      544f           addq.w 0x2, a7
           0x007537ee      3ebc0003       move.w 0x3, (a7)
           0x007537f2      554f           subq.w 0x2, a7
           0x007537f4      2f3c40200000   move.l 0x40200000, -(a7)
           0x007537fa      4eb900486c44   jsr MENUCOM.grid_xlen
           0x00753800      544f           addq.w 0x2, a7
           0x00753802      3e81           move.w d1, (a7)
           0x00753804      1f01           move.b d1, -(a7)
           0x00753806      4227           clr.b -(a7)
           0x00753808      3f2e0020       move.w 0x20(a6), -(a7)
           0x0075380c      3f280002       move.w 0x2(a0), -(a7)
           0x00753810      2f14           move.l (a4), -(a7)
           0x00753812      486f0018       pea.l 0x18(a7)
           0x00753816      48780001       pea.l 0x1
           0x0075381a      48780004       pea.l 0x4
           0x0075381e      2f2e0010       move.l 0x10(a6), -(a7)
           0x00753822      2f2e000c       move.l 0xc(a6), -(a7)
           0x00753826      2f2e0008       move.l 0x8(a6), -(a7)
           0x0075382a      4ebafab6       jsr MENULIBCOM.new_box_id(pc)
           0x0075382e      defc0032       adda.w 0x32, a7
           0x00753832      3ea80004       move.w 0x4(a0), (a7)
           0x00753836      3f29001c       move.w 0x1c(a1), -(a7)
           0x0075383a      4eb900486f94   jsr MENUCOM.add_slave
           0x00753840      544f           addq.w 0x2, a7
           0x00753842      3ea80004       move.w 0x4(a0), (a7)
           0x00753846      3f29002a       move.w 0x2a(a1), -(a7)
           0x0075384a      4eb900486f94   jsr MENUCOM.add_slave
           0x00753850      544f           addq.w 0x2, a7
           0x00753852      3ea80004       move.w 0x4(a0), (a7)
           0x00753856      3f29002c       move.w 0x2c(a1), -(a7)
           0x0075385a      4eb900486f94   jsr MENUCOM.add_slave
           0x00753860      2eba9c4c       move.l 0x74d4ae(pc), (a7)
           0x00753864      48680006       pea.l 0x6(a0)
           0x00753868      554f           subq.w 0x2, a7
           0x0075386a      2f3c41840000   move.l 0x41840000, -(a7)
           0x00753870      4eb900486b8c   jsr MENUCOM.grid_xpos
           0x00753876      544f           addq.w 0x2, a7
           0x00753878      3ebc0003       move.w 0x3, (a7)
           0x0075387c      554f           subq.w 0x2, a7
           0x0075387e      2f3c40200000   move.l 0x40200000, -(a7)
           0x00753884      4eb900486c44   jsr MENUCOM.grid_xlen
           0x0075388a      544f           addq.w 0x2, a7
           0x0075388c      3e81           move.w d1, (a7)
           0x0075388e      1f01           move.b d1, -(a7)
           0x00753890      4227           clr.b -(a7)
           0x00753892      3f2e0020       move.w 0x20(a6), -(a7)
           0x00753896      3f280004       move.w 0x4(a0), -(a7)
           0x0075389a      2f14           move.l (a4), -(a7)
           0x0075389c      486f0018       pea.l 0x18(a7)
           0x007538a0      48780001       pea.l 0x1
           0x007538a4      48780004       pea.l 0x4
           0x007538a8      2f2e0010       move.l 0x10(a6), -(a7)
           0x007538ac      2f2e000c       move.l 0xc(a6), -(a7)
           0x007538b0      2f2e0008       move.l 0x8(a6), -(a7)
           0x007538b4      4ebafa2c       jsr MENULIBCOM.new_box_id(pc)
           0x007538b8      defc0032       adda.w 0x32, a7
           0x007538bc      3ea80006       move.w 0x6(a0), (a7)
           0x007538c0      3f29001c       move.w 0x1c(a1), -(a7)
           0x007538c4      4eb900486f94   jsr MENUCOM.add_slave
           0x007538ca      544f           addq.w 0x2, a7
           0x007538cc      3ea80006       move.w 0x6(a0), (a7)
           0x007538d0      3f29002a       move.w 0x2a(a1), -(a7)
           0x007538d4      4eb900486f94   jsr MENUCOM.add_slave
           0x007538da      544f           addq.w 0x2, a7
           0x007538dc      3ea80006       move.w 0x6(a0), (a7)
           0x007538e0      3f29002c       move.w 0x2c(a1), -(a7)
           0x007538e4      4eb900486f94   jsr MENUCOM.add_slave
           0x007538ea      584f           addq.w 0x4, a7
           0x007538ec      206e0018       movea.l 0x18(a6), a0
           0x007538f0      7e02           moveq 0x2, d7
       > 0x007538f2      4887           ext.w d7
          0x007538f4      43fa9bbc       lea.l 0x74d4b2(pc), a1
          0x007538f8      3007           move.w d7, d0
          0x007538fa      e648           lsr.w 0x3, d0
          0x007538fc      0f310000       btst.l d7, (a1, d0.w)
      < 0x00753900      660a           bne.b 0x75390c
         0x00753902      4887           ext.w d7
         0x00753904      3007           move.w d7, d0
         0x00753906      e340           asl.w 0x1, d0
         0x00753908      42700000       clr.w (a0, d0.w)
      > 0x0075390c      5207           addq.b 0x1, d7
          0x0075390e      0c07002d       cmpi.b 0x2d, d7
       < 0x00753912      6fde           ble.b 0x7538f2
           0x00753914      4cdf1fff       movem.l (a7)+, d0-d7/a0-a4
           0x00753918      4e5e           unlk a6
           0x0075391a      4e75           rts
            ; CALL XREF from MENULIBCOM.define_skls_typ @ 0x753ea8
            ; CALL XREF from MENULIBCOM.define_retitle_ @ 0x754020
 304: MENULIBCOM.add_henry_blend ();
           0x0075391c      4e56fda0       link.w a6, 0xfda0
           0x00753920      bfd5           cmpa.l (a5), a7
       < 0x00753922      6206           bhi.b 0x75392a
          0x00753924      44fc0002       move.w 0x2, ccr
          0x00753928      4e76           trapv
       > 0x0075392a      defc0258       adda.w 0x258, a7
           0x0075392e      48e7c1f0       movem.l d0-d1/d7/a0-a3, -(a7)
           0x00753932      7201           moveq 0x1, d1
           0x00753934      206e0018       movea.l 0x18(a6), a0
           0x00753938      226e0018       movea.l 0x18(a6), a1
           0x0075393c      7e02           moveq 0x2, d7
       > 0x0075393e      4887           ext.w d7
          0x00753940      45f90086d2a0   lea.l 0x86d2a0, a2
          0x00753946      3007           move.w d7, d0
          0x00753948      e648           lsr.w 0x3, d0
          0x0075394a      0f320000       btst.l d7, (a2, d0.w)
      < 0x0075394e      6700009a       beq.w 0x7539ea
         0x00753952      594f           subq.w 0x4, a7
         0x00753954      1f2e001e       move.b 0x1e(a6), -(a7)
         0x00753958      1f07           move.b d7, -(a7)
         0x0075395a      486efffe       pea.l -0x2(a6)
         0x0075395e      4ebaf910       jsr MENULIBCOM.get_box_org(pc)
         0x00753962      504f           addq.w 0x8, a7
         0x00753964      2d57fffa       move.l (a7), -0x6(a6)
         0x00753968      9efc00fe       suba.w 0xfe, a7
         0x0075396c      1f07           move.b d7, -(a7)
         0x0075396e      4eb9005af700   jsr K2_TYPES.k2_get_ktype
         0x00753974      544f           addq.w 0x2, a7
         0x00753976      1017           move.b (a7), d0
         0x00753978      4880           ext.w d0
         0x0075397a      41bc0056       chk.w 0x56, d0
         0x0075397e      1e80           move.b d0, (a7)
         0x00753980      4eb9005af840   jsr K2_TYPES.k2_get_type_str
         0x00753986      9efc00fe       suba.w 0xfe, a7
         0x0075398a      244f           movea.l a7, a2
         0x0075398c      47ef0100       lea.l 0x100(a7), a3
         0x00753990      703f           moveq 0x3f, d0
     > 0x00753992      24db           move.l (a3)+, (a2)+
     < 0x00753994      51c8fffc       dbra d0, 0x753992
         0x00753998      4887           ext.w d7
         0x0075399a      3007           move.w d7, d0
         0x0075399c      e340           asl.w 0x1, d0
         0x0075399e      48710000       pea.l (a1, d0.w)
         0x007539a2      3f2efffa       move.w -0x6(a6), -(a7)
         0x007539a6      3f2efffc       move.w -0x4(a6), -(a7)
         0x007539aa      3f2efffe       move.w -0x2(a6), -(a7)
         0x007539ae      3f01           move.w d1, -(a7)
         0x007539b0      1f3c0002       move.b 0x2, -(a7)
         0x007539b4      4227           clr.b -(a7)
         0x007539b6      3f2e001c       move.w 0x1c(a6), -(a7)
         0x007539ba      4267           clr.w -(a7)
         0x007539bc      2f3a955a       move.l 0x74cf18(pc), -(a7)
         0x007539c0      486f0018       pea.l 0x18(a7)
         0x007539c4      48780000       pea.l 0x0
         0x007539c8      487800ff       pea.l 0xff
         0x007539cc      2f2e0010       move.l 0x10(a6), -(a7)
         0x007539d0      2f2e000c       move.l 0xc(a6), -(a7)
         0x007539d4      4887           ext.w d7
         0x007539d6      48c7           ext.l d7
         0x007539d8      2007           move.l d7, d0
         0x007539da      d0ae0008       add.l 0x8(a6), d0
         0x007539de      2f00           move.l d0, -(a7)
         0x007539e0      4ebaf900       jsr MENULIBCOM.new_box_id(pc)
         0x007539e4      defc0230       adda.w 0x230, a7
     < 0x007539e8      600a           bra.b 0x7539f4
     > 0x007539ea      4887           ext.w d7
         0x007539ec      3007           move.w d7, d0
         0x007539ee      e340           asl.w 0x1, d0
         0x007539f0      42700000       clr.w (a0, d0.w)
     > 0x007539f4      5207           addq.b 0x1, d7
          0x007539f6      0c07002d       cmpi.b 0x2d, d7
       < 0x007539fa      6f00ff42       ble.w 0x75393e
           0x007539fe      3f3a9abc       move.w 0x74d4bc(pc), -(a7)
           0x00753a02      206e0014       movea.l 0x14(a6), a0
           0x00753a06      4850           pea.l (a0)
           0x00753a08      3f3c000a       move.w 0xa, -(a7)
           0x00753a0c      3f3c0006       move.w 0x6, -(a7)
           0x00753a10      3f3c0004       move.w 0x4, -(a7)
           0x00753a14      3f01           move.w d1, -(a7)
           0x00753a16      4227           clr.b -(a7)
           0x00753a18      1f01           move.b d1, -(a7)
           0x00753a1a      3f2e001c       move.w 0x1c(a6), -(a7)
           0x00753a1e      4267           clr.w -(a7)
           0x00753a20      2f3a94f6       move.l 0x74cf18(pc), -(a7)
           0x00753a24      486f0018       pea.l 0x18(a7)
           0x00753a28      48780001       pea.l 0x1
           0x00753a2c      48780002       pea.l 0x2
           0x00753a30      486d0010       pea.l 0x10(a5)
           0x00753a34      487900481fee   pea.l MENUCOM.hit_nothing
           0x00753a3a      4eb900487aa6   jsr MENUCOM.new_box
           0x00753a40      defc002e       adda.w 0x2e, a7
           0x00753a44      4cdf0f83       movem.l (a7)+, d0-d1/d7/a0-a3
           0x00753a48      4e5e           unlk a6
           0x00753a4a      4e75           rts
 72: MENULIBCOM.send_to_henry ();
           0x00753a4c      4e56ffea       link.w a6, 0xffea
           0x00753a50      bfd5           cmpa.l (a5), a7
       < 0x00753a52      6206           bhi.b 0x753a5a
          0x00753a54      44fc0002       move.w 0x2, ccr
          0x00753a58      4e76           trapv
       > 0x00753a5a      defc0016       adda.w 0x16, a7
           0x00753a5e      48e7c080       movem.l d0-d1/a0, -(a7)
           0x00753a62      302e0008       move.w 0x8(a6), d0
           0x00753a66      41fa9a56       lea.l 0x74d4be(pc), a0
           0x00753a6a      3200           move.w d0, d1
           0x00753a6c      e649           lsr.w 0x3, d1
           0x00753a6e      0c410020       cmpi.w 0x20, d1
       < 0x00753a72      6d04           blt.b 0x753a78
          0x00753a74      7200           moveq 0x0, d1
      < 0x00753a76      6004           bra.b 0x753a7c
      > 0x00753a78      01301000       btst.l d0, (a0, d1.w)
      < 0x00753a7c      670e           beq.b 0x753a8c
          0x00753a7e      3f2e000a       move.w 0xa(a6), -(a7)
          0x00753a82      3f00           move.w d0, -(a7)
          0x00753a84      4eb9005b7a40   jsr HENRY_DUMMY.send_pen_status
          0x00753a8a      584f           addq.w 0x4, a7
       > 0x00753a8c      4cdf0103       movem.l (a7)+, d0-d1/a0
           0x00753a90      4e5e           unlk a6
           0x00753a92      4e75           rts
            ; CALL XREF from MENULIBCOM.define_skls_inp @ 0x7553c6
 1118: MENULIBCOM.define_skls_typ ();
           0x00753a94      4e56febe       link.w a6, 0xfebe
           0x00753a98      bfd5           cmpa.l (a5), a7
       < 0x00753a9a      6206           bhi.b 0x753aa2
          0x00753a9c      44fc0002       move.w 0x2, ccr
          0x00753aa0      4e76           trapv
       > 0x00753aa2      defc013e       adda.w 0x13e, a7
           0x00753aa6      48e7fff0       movem.l d0-d7/a0-a3, -(a7)
           0x00753aaa      47ee0008       lea.l 0x8(a6), a3
           0x00753aae      7a01           moveq 0x1, d5
           0x00753ab0      7c02           moveq 0x2, d6
           0x00753ab2      102e0012       move.b 0x12(a6), d0
           0x00753ab6      4880           ext.w d0
           0x00753ab8      c1fc05d4       muls.w 0x5d4, d0
           0x00753abc      41f90086d27a   lea.l 0x86d27a, a0
           0x00753ac2      122e0010       move.b 0x10(a6), d1
           0x00753ac6      b205           cmp.b d5, d1
       < 0x00753ac8      660000b0       bne.w 0x753b7a
          0x00753acc      514f           subq.w 0x8, a7
          0x00753ace      224f           movea.l a7, a1
          0x00753ad0      45fa9a0d       lea.l 0x74d4df(pc), a2
          0x00753ad4      7406           moveq 0x6, d2
      > 0x00753ad6      12da           move.b (a2)+, (a1)+
      < 0x00753ad8      51cafffc       dbra d2, 0x753ad6
          0x00753adc      4881           ext.w d1
          0x00753ade      3401           move.w d1, d2
          0x00753ae0      e342           asl.w 0x1, d2
          0x00753ae2      43f00046       lea.l 0x46(a0, d0.w), a1
          0x00753ae6      43f12000       lea.l (a1, d2.w), a1
          0x00753aea      48690284       pea.l 0x284(a1)
          0x00753aee      3f3c000e       move.w 0xe, -(a7)
          0x00753af2      3f3c0006       move.w 0x6, -(a7)
          0x00753af6      3f3c0003       move.w 0x3, -(a7)
          0x00753afa      3f05           move.w d5, -(a7)
          0x00753afc      1f06           move.b d6, -(a7)
          0x00753afe      4227           clr.b -(a7)
          0x00753b00      3f13           move.w (a3), -(a7)
          0x00753b02      4267           clr.w -(a7)
          0x00753b04      2f3a9412       move.l 0x74cf18(pc), -(a7)
          0x00753b08      486f0018       pea.l 0x18(a7)
          0x00753b0c      48780001       pea.l 0x1
          0x00753b10      48780007       pea.l 0x7
          0x00753b14      486d0010       pea.l 0x10(a5)
          0x00753b18      487900481fee   pea.l MENUCOM.hit_nothing
          0x00753b1e      4eb900487aa6   jsr MENUCOM.new_box
          0x00753b24      defc002e       adda.w 0x2e, a7
          0x00753b28      224f           movea.l a7, a1
          0x00753b2a      45fa99bb       lea.l 0x74d4e7(pc), a2
          0x00753b2e      7404           moveq 0x4, d2
      > 0x00753b30      12da           move.b (a2)+, (a1)+
      < 0x00753b32      51cafffc       dbra d2, 0x753b30
          0x00753b36      43f00046       lea.l 0x46(a0, d0.w), a1
          0x00753b3a      4869028c       pea.l 0x28c(a1)
          0x00753b3e      3f3c0011       move.w 0x11, -(a7)
          0x00753b42      3f3c0006       move.w 0x6, -(a7)
          0x00753b46      3f06           move.w d6, -(a7)
          0x00753b48      3f05           move.w d5, -(a7)
          0x00753b4a      1f3c0005       move.b 0x5, -(a7)
          0x00753b4e      4227           clr.b -(a7)
          0x00753b50      3f13           move.w (a3), -(a7)
          0x00753b52      4267           clr.w -(a7)
          0x00753b54      2f3a93c2       move.l 0x74cf18(pc), -(a7)
          0x00753b58      486f0018       pea.l 0x18(a7)
          0x00753b5c      48780001       pea.l 0x1
          0x00753b60      48780005       pea.l 0x5
          0x00753b64      486d0010       pea.l 0x10(a5)
          0x00753b68      487aa7f4       pea.l MENULIBCOM.hit_skls_type_s(pc)
          0x00753b6c      2f2e000c       move.l 0xc(a6), -(a7)
          0x00753b70      4ebaf770       jsr MENULIBCOM.new_box_id(pc)
          0x00753b74      defc0030       adda.w 0x30, a7
      < 0x00753b78      605c           bra.b 0x753bd6
      > 0x00753b7a      5d4f           subq.w 0x6, a7
          0x00753b7c      224f           movea.l a7, a1
          0x00753b7e      45fa996d       lea.l 0x74d4ed(pc), a2
          0x00753b82      7404           moveq 0x4, d2
      > 0x00753b84      12da           move.b (a2)+, (a1)+
      < 0x00753b86      51cafffc       dbra d2, 0x753b84
          0x00753b8a      4881           ext.w d1
          0x00753b8c      3401           move.w d1, d2
          0x00753b8e      e342           asl.w 0x1, d2
          0x00753b90      43f00046       lea.l 0x46(a0, d0.w), a1
          0x00753b94      43f12000       lea.l (a1, d2.w), a1
          0x00753b98      48690284       pea.l 0x284(a1)
          0x00753b9c      3f3c000e       move.w 0xe, -(a7)
          0x00753ba0      3f3c0006       move.w 0x6, -(a7)
          0x00753ba4      3f3c0005       move.w 0x5, -(a7)
          0x00753ba8      3f05           move.w d5, -(a7)
          0x00753baa      1f06           move.b d6, -(a7)
          0x00753bac      4227           clr.b -(a7)
          0x00753bae      3f13           move.w (a3), -(a7)
          0x00753bb0      4267           clr.w -(a7)
          0x00753bb2      2f3a9364       move.l 0x74cf18(pc), -(a7)
          0x00753bb6      486f0018       pea.l 0x18(a7)
          0x00753bba      48780001       pea.l 0x1
          0x00753bbe      48780005       pea.l 0x5
          0x00753bc2      486d0010       pea.l 0x10(a5)
          0x00753bc6      487900481fee   pea.l MENUCOM.hit_nothing
          0x00753bcc      4eb900487aa6   jsr MENUCOM.new_box
          0x00753bd2      defc002c       adda.w 0x2c, a7
      > 0x00753bd6      5c4f           addq.w 0x6, a7
           0x00753bd8      4a390086d27f   tst.b 0x86d27f
       < 0x00753bde      6700028c       beq.w 0x753e6c
          0x00753be2      4a01           tst.b d1
      < 0x00753be4      66000238       bne.w 0x753e1e
         0x00753be8      514f           subq.w 0x8, a7
         0x00753bea      224f           movea.l a7, a1
         0x00753bec      45fa9905       lea.l 0x74d4f3(pc), a2
         0x00753bf0      7406           moveq 0x6, d2
     > 0x00753bf2      12da           move.b (a2)+, (a1)+
     < 0x00753bf4      51cafffc       dbra d2, 0x753bf2
         0x00753bf8      48790086d2b6   pea.l 0x86d2b6
         0x00753bfe      3f3c000e       move.w 0xe, -(a7)
         0x00753c02      3f05           move.w d5, -(a7)
         0x00753c04      3f3c0005       move.w 0x5, -(a7)
         0x00753c08      3f05           move.w d5, -(a7)
         0x00753c0a      1f05           move.b d5, -(a7)
         0x00753c0c      4227           clr.b -(a7)
         0x00753c0e      3f13           move.w (a3), -(a7)
         0x00753c10      4267           clr.w -(a7)
         0x00753c12      2f3a9304       move.l 0x74cf18(pc), -(a7)
         0x00753c16      486f0018       pea.l 0x18(a7)
         0x00753c1a      48780001       pea.l 0x1
         0x00753c1e      48780007       pea.l 0x7
         0x00753c22      486d0010       pea.l 0x10(a5)
         0x00753c26      487aaf3e       pea.l MENULIBCOM.setup_henry_sav(pc)
         0x00753c2a      4eb900487aa6   jsr MENUCOM.new_box
         0x00753c30      defc0032       adda.w 0x32, a7
         0x00753c34      3eb90086d2b6   move.w 0x86d2b6, (a7)
         0x00753c3a      4eb900481d90   jsr MENUCOM.swtch_on_box
         0x00753c40      5d4f           subq.w 0x6, a7
         0x00753c42      224f           movea.l a7, a1
         0x00753c44      45fa98b5       lea.l 0x74d4fb(pc), a2
         0x00753c48      7407           moveq 0x7, d2
     > 0x00753c4a      12da           move.b (a2)+, (a1)+
     < 0x00753c4c      51cafffc       dbra d2, 0x753c4a
         0x00753c50      48790086d2b8   pea.l 0x86d2b8
         0x00753c56      3f3c000e       move.w 0xe, -(a7)
         0x00753c5a      3f06           move.w d6, -(a7)
         0x00753c5c      3f3c0005       move.w 0x5, -(a7)
         0x00753c60      3f05           move.w d5, -(a7)
         0x00753c62      1f05           move.b d5, -(a7)
         0x00753c64      4227           clr.b -(a7)
         0x00753c66      3f13           move.w (a3), -(a7)
         0x00753c68      3f390086d2b6   move.w 0x86d2b6, -(a7)
         0x00753c6e      2f3a92a8       move.l 0x74cf18(pc), -(a7)
         0x00753c72      486f0018       pea.l 0x18(a7)
         0x00753c76      48780001       pea.l 0x1
         0x00753c7a      48780008       pea.l 0x8
         0x00753c7e      486d0010       pea.l 0x10(a5)
         0x00753c82      487aaee2       pea.l MENULIBCOM.setup_henry_sav(pc)
         0x00753c86      4eb900487aa6   jsr MENUCOM.new_box
         0x00753c8c      defc0032       adda.w 0x32, a7
         0x00753c90      4eb9004755c2   jsr CONFIG.cfg_gender
         0x00753c96      141f           move.b (a7)+, d2
         0x00753c98      0c020016       cmpi.b 0x16, d2
     < 0x00753c9c      660e           bne.b 0x753cac
        0x00753c9e      3f390086d2b8   move.w 0x86d2b8, -(a7)
        0x00753ca4      4eb900482304   jsr MENUCOM.hide_box
        0x00753caa      544f           addq.w 0x2, a7
     > 0x00753cac      2f3a9856       move.l 0x74d504(pc), -(a7)
         0x00753cb0      48790086d2ba   pea.l 0x86d2ba
         0x00753cb6      554f           subq.w 0x2, a7
         0x00753cb8      780e           moveq 0xe, d4
         0x00753cba      4eb900408686   jsr fcn.00408686
         0x00753cc0      2f04           move.l d4, -(a7)
         0x00753cc2      4eb900486b8c   jsr MENUCOM.grid_xpos
         0x00753cc8      544f           addq.w 0x2, a7
         0x00753cca      3ebc0003       move.w 0x3, (a7)
         0x00753cce      554f           subq.w 0x2, a7
         0x00753cd0      2f3c40200000   move.l 0x40200000, -(a7)
         0x00753cd6      4eb900486c44   jsr MENUCOM.grid_xlen
         0x00753cdc      544f           addq.w 0x2, a7
         0x00753cde      3e85           move.w d5, (a7)
         0x00753ce0      1f05           move.b d5, -(a7)
         0x00753ce2      4227           clr.b -(a7)
         0x00753ce4      3f13           move.w (a3), -(a7)
         0x00753ce6      3f390086d2b8   move.w 0x86d2b8, -(a7)
         0x00753cec      2f3a922a       move.l 0x74cf18(pc), -(a7)
         0x00753cf0      486f0018       pea.l 0x18(a7)
         0x00753cf4      48780001       pea.l 0x1
         0x00753cf8      48780004       pea.l 0x4
         0x00753cfc      486d0010       pea.l 0x10(a5)
         0x00753d00      487aae64       pea.l MENULIBCOM.setup_henry_sav(pc)
         0x00753d04      4eb900487aa6   jsr MENUCOM.new_box
         0x00753d0a      defc002c       adda.w 0x2c, a7
         0x00753d0e      1eba97f9       move.b 0x74d509(pc), (a7)
         0x00753d12      1f7a97f60001   move.b 0x74d50a(pc), 0x1(a7)
         0x00753d18      1f7a97f10002   move.b 0x74d50b(pc), 0x2(a7)
         0x00753d1e      1f7a97ec0003   move.b 0x74d50c(pc), 0x3(a7)
         0x00753d24      48790086d2bc   pea.l 0x86d2bc
         0x00753d2a      554f           subq.w 0x2, a7
         0x00753d2c      2f3c41840000   move.l 0x41840000, -(a7)
         0x00753d32      4eb900486b8c   jsr MENUCOM.grid_xpos
         0x00753d38      544f           addq.w 0x2, a7
         0x00753d3a      3ebc0003       move.w 0x3, (a7)
         0x00753d3e      554f           subq.w 0x2, a7
         0x00753d40      2f3c40200000   move.l 0x40200000, -(a7)
         0x00753d46      4eb900486c44   jsr MENUCOM.grid_xlen
         0x00753d4c      544f           addq.w 0x2, a7
         0x00753d4e      3e85           move.w d5, (a7)
         0x00753d50      1f05           move.b d5, -(a7)
         0x00753d52      4227           clr.b -(a7)
         0x00753d54      3f13           move.w (a3), -(a7)
         0x00753d56      3f390086d2ba   move.w 0x86d2ba, -(a7)
         0x00753d5c      2f3a91ba       move.l 0x74cf18(pc), -(a7)
         0x00753d60      486f0018       pea.l 0x18(a7)
         0x00753d64      48780001       pea.l 0x1
         0x00753d68      48780004       pea.l 0x4
         0x00753d6c      486d0010       pea.l 0x10(a5)
         0x00753d70      487aadf4       pea.l MENULIBCOM.setup_henry_sav(pc)
         0x00753d74      4eb900487aa6   jsr MENUCOM.new_box
         0x00753d7a      defc002a       adda.w 0x2a, a7
         0x00753d7e      2eba978e       move.l 0x74d50e(pc), (a7)
         0x00753d82      1f7a978e0004   move.b 0x74d512(pc), 0x4(a7)
         0x00753d88      48790086d2be   pea.l 0x86d2be
         0x00753d8e      3f3c000e       move.w 0xe, -(a7)
         0x00753d92      3f3c0004       move.w 0x4, -(a7)
         0x00753d96      3f3c0005       move.w 0x5, -(a7)
         0x00753d9a      3f05           move.w d5, -(a7)
         0x00753d9c      1f06           move.b d6, -(a7)
         0x00753d9e      4227           clr.b -(a7)
         0x00753da0      3f390086d2ba   move.w 0x86d2ba, -(a7)
         0x00753da6      4267           clr.w -(a7)
         0x00753da8      2f3a916e       move.l 0x74cf18(pc), -(a7)
         0x00753dac      486f0018       pea.l 0x18(a7)
         0x00753db0      48780001       pea.l 0x1
         0x00753db4      48780005       pea.l 0x5
         0x00753db8      4854           pea.l (a4)
         0x00753dba      487afc90       pea.l MENULIBCOM.send_to_henry(pc)
         0x00753dbe      4eb900487aa6   jsr MENUCOM.new_box
         0x00753dc4      defc0030       adda.w 0x30, a7
         0x00753dc8      3eb90086d2bc   move.w 0x86d2bc, (a7)
         0x00753dce      3f390086d2be   move.w 0x86d2be, -(a7)
         0x00753dd4      4eb900486f94   jsr MENUCOM.add_slave
         0x00753dda      544f           addq.w 0x2, a7
         0x00753ddc      3eb90086d2be   move.w 0x86d2be, (a7)
         0x00753de2      9efc0100       suba.w 0x100, a7
         0x00753de6      224f           movea.l a7, a1
         0x00753de8      45fa9729       lea.l 0x74d513(pc), a2
         0x00753dec      740a           moveq 0xa, d2
     > 0x00753dee      12da           move.b (a2)+, (a1)+
     < 0x00753df0      51cafffc       dbra d2, 0x753dee
         0x00753df4      4eb9005b7a14   jsr HENRY_DUMMY.setup_dougal_ac
         0x00753dfa      defc0102       adda.w 0x102, a7
         0x00753dfe      7e02           moveq 0x2, d7
     > 0x00753e00      4887           ext.w d7
        0x00753e02      3407           move.w d7, d2
        0x00753e04      e342           asl.w 0x1, d2
        0x00753e06      43f00046       lea.l 0x46(a0, d0.w), a1
        0x00753e0a      43f12000       lea.l (a1, d2.w), a1
        0x00753e0e      4269010c       clr.w 0x10c(a1)
        0x00753e12      5207           addq.b 0x1, d7
        0x00753e14      0c07002d       cmpi.b 0x2d, d7
     < 0x00753e18      6fe6           ble.b 0x753e00
     < 0x00753e1a      600000ce       bra.w 0x753eea
     > 0x00753e1e      4881           ext.w d1
         0x00753e20      745c           moveq 0x5c, d2
         0x00753e22      c5c1           muls.w d1, d2
         0x00753e24      3f13           move.w (a3), -(a7)
         0x00753e26      3601           move.w d1, d3
         0x00753e28      5343           subq.w 0x1, d3
         0x00753e2a      4786           chk.w d6, d3
         0x00753e2c      e743           asl.w 0x3, d3
         0x00753e2e      43f00046       lea.l 0x46(a0, d0.w), a1
         0x00753e32      43f13000       lea.l (a1, d3.w), a1
         0x00753e36      4869028e       pea.l 0x28e(a1)
         0x00753e3a      43f00046       lea.l 0x46(a0, d0.w), a1
         0x00753e3e      43f12000       lea.l (a1, d2.w), a1
         0x00753e42      4869010c       pea.l 0x10c(a1)
         0x00753e46      3401           move.w d1, d2
         0x00753e48      e342           asl.w 0x1, d2
         0x00753e4a      43f00046       lea.l 0x46(a0, d0.w), a1
         0x00753e4e      43f12000       lea.l (a1, d2.w), a1
         0x00753e52      4869027c       pea.l 0x27c(a1)
         0x00753e56      486d0010       pea.l 0x10(a5)
         0x00753e5a      487aa502       pea.l MENULIBCOM.hit_skls_type_s(pc)
         0x00753e5e      2f2e000c       move.l 0xc(a6), -(a7)
         0x00753e62      4ebaf6b6       jsr MENULIBCOM.add_henry_clips(pc)
         0x00753e66      defc001a       adda.w 0x1a, a7
     < 0x00753e6a      607e           bra.b 0x753eea
     > 0x00753e6c      4a390086d280   tst.b 0x86d280
     < 0x00753e72      673a           beq.b 0x753eae
        0x00753e74      4881           ext.w d1
        0x00753e76      745c           moveq 0x5c, d2
        0x00753e78      c5c1           muls.w d1, d2
        0x00753e7a      1f2e000a       move.b 0xa(a6), -(a7)
        0x00753e7e      3f13           move.w (a3), -(a7)
        0x00753e80      43f00046       lea.l 0x46(a0, d0.w), a1
        0x00753e84      43f12000       lea.l (a1, d2.w), a1
        0x00753e88      4869010c       pea.l 0x10c(a1)
        0x00753e8c      3401           move.w d1, d2
        0x00753e8e      e342           asl.w 0x1, d2
        0x00753e90      43f00046       lea.l 0x46(a0, d0.w), a1
        0x00753e94      43f12000       lea.l (a1, d2.w), a1
        0x00753e98      4869027c       pea.l 0x27c(a1)
        0x00753e9c      486d0010       pea.l 0x10(a5)
        0x00753ea0      487aa4bc       pea.l MENULIBCOM.hit_skls_type_s(pc)
        0x00753ea4      2f2e000c       move.l 0xc(a6), -(a7)
        0x00753ea8      4ebafa72       jsr MENULIBCOM.add_henry_blend(pc)
    < 0x00753eac      6038           bra.b 0x753ee6
    > 0x00753eae      4881           ext.w d1
        0x00753eb0      745c           moveq 0x5c, d2
        0x00753eb2      c5c1           muls.w d1, d2
        0x00753eb4      1f2e000a       move.b 0xa(a6), -(a7)
        0x00753eb8      3f13           move.w (a3), -(a7)
        0x00753eba      43f00046       lea.l 0x46(a0, d0.w), a1
        0x00753ebe      43f12000       lea.l (a1, d2.w), a1
        0x00753ec2      4869010c       pea.l 0x10c(a1)
        0x00753ec6      3401           move.w d1, d2
        0x00753ec8      e342           asl.w 0x1, d2
        0x00753eca      43f00046       lea.l 0x46(a0, d0.w), a1
        0x00753ece      43f12000       lea.l (a1, d2.w), a1
        0x00753ed2      4869027c       pea.l 0x27c(a1)
        0x00753ed6      486d0010       pea.l 0x10(a5)
        0x00753eda      487aa482       pea.l MENULIBCOM.hit_skls_type_s(pc)
        0x00753ede      2f2e000c       move.l 0xc(a6), -(a7)
        0x00753ee2      4ebaf4f4       jsr MENULIBCOM.add_type_boxes(pc)
    > 0x00753ee6      defc0018       adda.w 0x18, a7
     > 0x00753eea      4cdf0fff       movem.l (a7)+, d0-d7/a0-a3
           0x00753eee      4e5e           unlk a6
           0x00753ef0      4e75           rts
            ; CALL XREF from fcn.0075624c @ 0x75665a
 358: MENULIBCOM.define_retitle_ ();
           0x00753ef2      4e56ffa2       link.w a6, 0xffa2
           0x00753ef6      bfd5           cmpa.l (a5), a7
       < 0x00753ef8      6206           bhi.b 0x753f00
          0x00753efa      44fc0002       move.w 0x2, ccr
          0x00753efe      4e76           trapv
       > 0x00753f00      defc005e       adda.w 0x5e, a7
           0x00753f04      48e7f0f0       movem.l d0-d3/a0-a3, -(a7)
           0x00753f08      47ee0008       lea.l 0x8(a6), a3
           0x00753f0c      7401           moveq 0x1, d2
           0x00753f0e      7602           moveq 0x2, d3
           0x00753f10      102e000c       move.b 0xc(a6), d0
           0x00753f14      4880           ext.w d0
           0x00753f16      c1fc05d4       muls.w 0x5d4, d0
           0x00753f1a      41f90086d27a   lea.l 0x86d27a, a0
           0x00753f20      514f           subq.w 0x8, a7
           0x00753f22      224f           movea.l a7, a1
           0x00753f24      45fa95f9       lea.l 0x74d51f(pc), a2
           0x00753f28      7206           moveq 0x6, d1
       > 0x00753f2a      12da           move.b (a2)+, (a1)+
       < 0x00753f2c      51c9fffc       dbra d1, 0x753f2a
           0x00753f30      43f00046       lea.l 0x46(a0, d0.w), a1
           0x00753f34      48690304       pea.l 0x304(a1)
           0x00753f38      3f3c000e       move.w 0xe, -(a7)
           0x00753f3c      3f3c0006       move.w 0x6, -(a7)
           0x00753f40      3f3c0003       move.w 0x3, -(a7)
           0x00753f44      3f02           move.w d2, -(a7)
           0x00753f46      1f03           move.b d3, -(a7)
           0x00753f48      4227           clr.b -(a7)
           0x00753f4a      3f13           move.w (a3), -(a7)
           0x00753f4c      4267           clr.w -(a7)
           0x00753f4e      2f3a8fc8       move.l 0x74cf18(pc), -(a7)
           0x00753f52      486f0018       pea.l 0x18(a7)
           0x00753f56      48780001       pea.l 0x1
           0x00753f5a      48780007       pea.l 0x7
           0x00753f5e      486d0010       pea.l 0x10(a5)
           0x00753f62      487900481fee   pea.l MENUCOM.hit_nothing
           0x00753f68      4eb900487aa6   jsr MENUCOM.new_box
           0x00753f6e      defc002e       adda.w 0x2e, a7
           0x00753f72      224f           movea.l a7, a1
           0x00753f74      45fa95b1       lea.l 0x74d527(pc), a2
           0x00753f78      7204           moveq 0x4, d1
       > 0x00753f7a      12da           move.b (a2)+, (a1)+
       < 0x00753f7c      51c9fffc       dbra d1, 0x753f7a
           0x00753f80      43f00046       lea.l 0x46(a0, d0.w), a1
           0x00753f84      48690306       pea.l 0x306(a1)
           0x00753f88      3f3c0011       move.w 0x11, -(a7)
           0x00753f8c      3f02           move.w d2, -(a7)
           0x00753f8e      3f03           move.w d3, -(a7)
           0x00753f90      3f02           move.w d2, -(a7)
           0x00753f92      1f3c0005       move.b 0x5, -(a7)
           0x00753f96      4227           clr.b -(a7)
           0x00753f98      3f13           move.w (a3), -(a7)
           0x00753f9a      4267           clr.w -(a7)
           0x00753f9c      2f3a8f7a       move.l 0x74cf18(pc), -(a7)
           0x00753fa0      486f0018       pea.l 0x18(a7)
           0x00753fa4      48780001       pea.l 0x1
           0x00753fa8      48780005       pea.l 0x5
           0x00753fac      486d0010       pea.l 0x10(a5)
           0x00753fb0      487aa990       pea.l MENULIBCOM.hit_retitle_typ(pc)
           0x00753fb4      4eb900487aa6   jsr MENUCOM.new_box
           0x00753fba      defc0032       adda.w 0x32, a7
           0x00753fbe      4a390086d27f   tst.b 0x86d27f
       < 0x00753fc4      6730           beq.b 0x753ff6
          0x00753fc6      3f13           move.w (a3), -(a7)
          0x00753fc8      43f00046       lea.l 0x46(a0, d0.w), a1
          0x00753fcc      48690308       pea.l 0x308(a1)
          0x00753fd0      43f00046       lea.l 0x46(a0, d0.w), a1
          0x00753fd4      486902a6       pea.l 0x2a6(a1)
          0x00753fd8      43f00046       lea.l 0x46(a0, d0.w), a1
          0x00753fdc      48690302       pea.l 0x302(a1)
          0x00753fe0      486d0010       pea.l 0x10(a5)
          0x00753fe4      487aa95c       pea.l MENULIBCOM.hit_retitle_typ(pc)
          0x00753fe8      48780000       pea.l 0x0
          0x00753fec      4ebaf52c       jsr MENULIBCOM.add_henry_clips(pc)
          0x00753ff0      defc001a       adda.w 0x1a, a7
      < 0x00753ff4      605a           bra.b 0x754050
      > 0x00753ff6      4a390086d280   tst.b 0x86d280
      < 0x00753ffc      6728           beq.b 0x754026
         0x00753ffe      1f2e000a       move.b 0xa(a6), -(a7)
         0x00754002      3f13           move.w (a3), -(a7)
         0x00754004      43f00046       lea.l 0x46(a0, d0.w), a1
         0x00754008      486902a6       pea.l 0x2a6(a1)
         0x0075400c      43f00046       lea.l 0x46(a0, d0.w), a1
         0x00754010      48690302       pea.l 0x302(a1)
         0x00754014      486d0010       pea.l 0x10(a5)
         0x00754018      487aa928       pea.l MENULIBCOM.hit_retitle_typ(pc)
         0x0075401c      48780000       pea.l 0x0
         0x00754020      4ebaf8fa       jsr MENULIBCOM.add_henry_blend(pc)
     < 0x00754024      6026           bra.b 0x75404c
     > 0x00754026      1f2e000a       move.b 0xa(a6), -(a7)
         0x0075402a      3f13           move.w (a3), -(a7)
         0x0075402c      43f00046       lea.l 0x46(a0, d0.w), a1
         0x00754030      486902a6       pea.l 0x2a6(a1)
         0x00754034      43f00046       lea.l 0x46(a0, d0.w), a1
         0x00754038      48690302       pea.l 0x302(a1)
         0x0075403c      486d0010       pea.l 0x10(a5)
         0x00754040      487aa900       pea.l MENULIBCOM.hit_retitle_typ(pc)
         0x00754044      48780000       pea.l 0x0
         0x00754048      4ebaf38e       jsr MENULIBCOM.add_type_boxes(pc)
     > 0x0075404c      defc0018       adda.w 0x18, a7
      > 0x00754050      4cdf0f0f       movem.l (a7)+, d0-d3/a0-a3
           0x00754054      4e5e           unlk a6
           0x00754056      4e75           rts
            ; CALL XREF from MENULIBCOM.define_skls_inp @ 0x755486
 466: MENULIBCOM.define_volume_s ();
           0x00754058      4e56fa82       link.w a6, 0xfa82
           0x0075405c      bfd5           cmpa.l (a5), a7
       < 0x0075405e      6206           bhi.b 0x754066
          0x00754060      44fc0002       move.w 0x2, ccr
          0x00754064      4e76           trapv
       > 0x00754066      defc047c       adda.w 0x47c, a7
           0x0075406a      48e7fff8       movem.l d0-d7/a0-a4, -(a7)
           0x0075406e      47eeff00       lea.l -0x100(a6), a3
           0x00754072      49f80000       lea.l 0x0, a4
           0x00754076      363c0100       move.w 0x100, d3
           0x0075407a      383c00ff       move.w 0xff, d4
           0x0075407e      7a01           moveq 0x1, d5
           0x00754080      7c0e           moveq 0xe, d6
           0x00754082      206e0018       movea.l 0x18(a6), a0
           0x00754086      9ec3           suba.w d3, a7
           0x00754088      4240           clr.w d0
           0x0075408a      102e001e       move.b 0x1e(a6), d0
           0x0075408e      3200           move.w d0, d1
           0x00754090      43ef0001       lea.l 0x1(a7), a1
           0x00754094      5301           subq.b 0x1, d1
       < 0x00754096      650a           bcs.b 0x7540a2
          0x00754098      45ee001f       lea.l 0x1f(a6), a2
      > 0x0075409c      12da           move.b (a2)+, (a1)+
      < 0x0075409e      51c9fffc       dbra d1, 0x75409c
       > 0x007540a2      7201           moveq 0x1, d1
           0x007540a4      3404           move.w d4, d2
           0x007540a6      9440           sub.w d0, d2
           0x007540a8      b242           cmp.w d2, d1
       < 0x007540aa      6302           bls.b 0x7540ae
          0x007540ac      3202           move.w d2, d1
       > 0x007540ae      1e80           move.b d0, (a7)
           0x007540b0      d317           add.b d1, (a7)
           0x007540b2      45fa9482       lea.l 0x74d536(pc), a2
       > 0x007540b6      12da           move.b (a2)+, (a1)+
       < 0x007540b8      51c9fffc       dbra d1, 0x7540b6
           0x007540bc      7e01           moveq 0x1, d7
       > 0x007540be      48c7           ext.l d7
          0x007540c0      2f07           move.l d7, -(a7)
          0x007540c2      4854           pea.l (a4)
          0x007540c4      4853           pea.l (a3)
          0x007540c6      3f04           move.w d4, -(a7)
          0x007540c8      4eb900406e56   jsr p_strI1
          0x007540ce      dec6           adda.w d6, a7
          0x007540d0      48c7           ext.l d7
          0x007540d2      2007           move.l d7, d0
          0x007540d4      5380           subq.l 0x1, d0
          0x007540d6      0c8000000005   cmpi.l 0x5, d0
      < 0x007540dc      6302           bls.b 0x7540e0
         0x007540de      4e4f           trap 0xf
      > 0x007540e0      e780           asl.l 0x3, d0
          0x007540e2      9ec3           suba.w d3, a7
          0x007540e4      7207           moveq 0x7, d1
          0x007540e6      43ef0001       lea.l 0x1(a7), a1
          0x007540ea      45fa9441       lea.l 0x74d52d(pc), a2
      > 0x007540ee      12da           move.b (a2)+, (a1)+
      < 0x007540f0      51c9fffc       dbra d1, 0x7540ee
          0x007540f4      4241           clr.w d1
          0x007540f6      1213           move.b (a3), d1
          0x007540f8      5001           addq.b 0x8, d1
      < 0x007540fa      6406           bcc.b 0x754102
         0x007540fc      4eb900406c8a   jsr p_strovr
      > 0x00754102      4241           clr.w d1
          0x00754104      1213           move.b (a3), d1
          0x00754106      3404           move.w d4, d2
          0x00754108      5142           subq.w 0x8, d2
          0x0075410a      b242           cmp.w d2, d1
      < 0x0075410c      6302           bls.b 0x754110
         0x0075410e      3202           move.w d2, d1
      > 0x00754110      1ebc0008       move.b 0x8, (a7)
          0x00754114      d317           add.b d1, (a7)
          0x00754116      5301           subq.b 0x1, d1
      < 0x00754118      650a           bcs.b 0x754124
         0x0075411a      45eeff01       lea.l -0xff(a6), a2
     > 0x0075411e      12da           move.b (a2)+, (a1)+
     < 0x00754120      51c9fffc       dbra d1, 0x75411e
      > 0x00754124      9ec3           suba.w d3, a7
          0x00754126      224f           movea.l a7, a1
          0x00754128      45ef0100       lea.l 0x100(a7), a2
          0x0075412c      723f           moveq 0x3f, d1
      > 0x0075412e      22da           move.l (a2)+, (a1)+
      < 0x00754130      51c9fffc       dbra d1, 0x75412e
          0x00754134      48c7           ext.l d7
          0x00754136      2207           move.l d7, d1
          0x00754138      d2ae011e       add.l 0x11e(a6), d1
          0x0075413c      48700804       pea.l 0x4(a0, d0.l)
          0x00754140      3f06           move.w d6, -(a7)
          0x00754142      3f07           move.w d7, -(a7)
          0x00754144      3f3c000c       move.w 0xc, -(a7)
          0x00754148      3f05           move.w d5, -(a7)
          0x0075414a      4227           clr.b -(a7)
          0x0075414c      1f05           move.b d5, -(a7)
          0x0075414e      3f2e001c       move.w 0x1c(a6), -(a7)
          0x00754152      4267           clr.w -(a7)
          0x00754154      2f3a8dc2       move.l 0x74cf18(pc), -(a7)
          0x00754158      486f0018       pea.l 0x18(a7)
          0x0075415c      4854           pea.l (a4)
          0x0075415e      48780100       pea.l 0x100
          0x00754162      2f2e000c       move.l 0xc(a6), -(a7)
          0x00754166      2f2e0008       move.l 0x8(a6), -(a7)
          0x0075416a      2f01           move.l d1, -(a7)
          0x0075416c      4ebaf174       jsr MENULIBCOM.new_box_id(pc)
          0x00754170      9efc00d0       suba.w 0xd0, a7
          0x00754174      224f           movea.l a7, a1
          0x00754176      45ee001e       lea.l 0x1e(a6), a2
          0x0075417a      743f           moveq 0x3f, d2
      > 0x0075417c      22da           move.l (a2)+, (a1)+
      < 0x0075417e      51cafffc       dbra d2, 0x75417c
          0x00754182      48700806       pea.l 0x6(a0, d0.l)
          0x00754186      3f3c001a       move.w 0x1a, -(a7)
          0x0075418a      3f07           move.w d7, -(a7)
          0x0075418c      3f3c0005       move.w 0x5, -(a7)
          0x00754190      3f05           move.w d5, -(a7)
          0x00754192      1f3c0002       move.b 0x2, -(a7)
          0x00754196      4227           clr.b -(a7)
          0x00754198      3f2e001c       move.w 0x1c(a6), -(a7)
          0x0075419c      4267           clr.w -(a7)
          0x0075419e      2f3a8d78       move.l 0x74cf18(pc), -(a7)
          0x007541a2      486f0018       pea.l 0x18(a7)
          0x007541a6      4854           pea.l (a4)
          0x007541a8      487800ff       pea.l 0xff
          0x007541ac      2f2e0014       move.l 0x14(a6), -(a7)
          0x007541b0      2f2e0010       move.l 0x10(a6), -(a7)
          0x007541b4      2f01           move.l d1, -(a7)
          0x007541b6      4ebaf12a       jsr MENULIBCOM.new_box_id(pc)
          0x007541ba      defc012e       adda.w 0x12e, a7
          0x007541be      3eb00806       move.w 0x6(a0, d0.l), (a7)
          0x007541c2      9ec3           suba.w d3, a7
          0x007541c4      4240           clr.w d0
          0x007541c6      102f0302       move.b 0x302(a7), d0
          0x007541ca      3200           move.w d0, d1
          0x007541cc      43ef0001       lea.l 0x1(a7), a1
          0x007541d0      5301           subq.b 0x1, d1
      < 0x007541d2      650a           bcs.b 0x7541de
         0x007541d4      45ef0303       lea.l 0x303(a7), a2
     > 0x007541d8      12da           move.b (a2)+, (a1)+
     < 0x007541da      51c9fffc       dbra d1, 0x7541d8
      > 0x007541de      4241           clr.w d1
          0x007541e0      1213           move.b (a3), d1
          0x007541e2      d200           add.b d0, d1
      < 0x007541e4      6406           bcc.b 0x7541ec
         0x007541e6      4eb900406c8a   jsr p_strovr
      > 0x007541ec      4241           clr.w d1
          0x007541ee      1213           move.b (a3), d1
          0x007541f0      3404           move.w d4, d2
          0x007541f2      9440           sub.w d0, d2
          0x007541f4      b242           cmp.w d2, d1
      < 0x007541f6      6302           bls.b 0x7541fa
         0x007541f8      3202           move.w d2, d1
      > 0x007541fa      1e80           move.b d0, (a7)
          0x007541fc      d317           add.b d1, (a7)
          0x007541fe      5301           subq.b 0x1, d1
      < 0x00754200      650a           bcs.b 0x75420c
         0x00754202      45eeff01       lea.l -0xff(a6), a2
     > 0x00754206      12da           move.b (a2)+, (a1)+
     < 0x00754208      51c9fffc       dbra d1, 0x754206
      > 0x0075420c      4eb90048442e   jsr MENUCOM.set_box_macro_n
          0x00754212      defc0302       adda.w 0x302, a7
          0x00754216      5247           addq.w 0x1, d7
          0x00754218      0c470006       cmpi.w 0x6, d7
       < 0x0075421c      6f00fea0       ble.w 0x7540be
           0x00754220      dec3           adda.w d3, a7
           0x00754222      4cdf1fff       movem.l (a7)+, d0-d7/a0-a4
           0x00754226      4e5e           unlk a6
           0x00754228      4e75           rts
            ; CALL XREF from MENULIBCOM.define_skls_inp @ 0x755512
 258: MENULIBCOM.define_disk_gro ();
           0x0075422a      4e56fc9e       link.w a6, 0xfc9e
           0x0075422e      bfd5           cmpa.l (a5), a7
       < 0x00754230      6206           bhi.b 0x754238
          0x00754232      44fc0002       move.w 0x2, ccr
          0x00754236      4e76           trapv
       > 0x00754238      defc0260       adda.w 0x260, a7
           0x0075423c      48e7d9f0       movem.l d0-d1/d3-d4/d7/a0-a3, -(a7)
           0x00754240      47eeff00       lea.l -0x100(a6), a3
           0x00754244      206e0010       movea.l 0x10(a6), a0
           0x00754248      7e01           moveq 0x1, d7
       > 0x0075424a      48c7           ext.l d7
          0x0075424c      2f07           move.l d7, -(a7)
          0x0075424e      48780000       pea.l 0x0
          0x00754252      4853           pea.l (a3)
          0x00754254      3f3c00ff       move.w 0xff, -(a7)
          0x00754258      4eb900406e56   jsr p_strI1
          0x0075425e      defc000e       adda.w 0xe, a7
          0x00754262      48c7           ext.l d7
          0x00754264      2007           move.l d7, d0
          0x00754266      5380           subq.l 0x1, d0
          0x00754268      0c8000000004   cmpi.l 0x4, d0
      < 0x0075426e      6302           bls.b 0x754272
         0x00754270      4e4f           trap 0xf
      > 0x00754272      2800           move.l d0, d4
          0x00754274      7606           moveq 0x6, d3
          0x00754276      4eb900406a74   jsr fcn.00406a74
          0x0075427c      9efc0100       suba.w 0x100, a7
          0x00754280      7006           moveq 0x6, d0
          0x00754282      43ef0001       lea.l 0x1(a7), a1
          0x00754286      45fa92b0       lea.l 0x74d538(pc), a2
      > 0x0075428a      12da           move.b (a2)+, (a1)+
      < 0x0075428c      51c8fffc       dbra d0, 0x75428a
          0x00754290      4240           clr.w d0
          0x00754292      1013           move.b (a3), d0
          0x00754294      5e00           addq.b 0x7, d0
      < 0x00754296      6406           bcc.b 0x75429e
         0x00754298      4eb900406c8a   jsr p_strovr
      > 0x0075429e      4240           clr.w d0
          0x007542a0      1013           move.b (a3), d0
          0x007542a2      323c00ff       move.w 0xff, d1
          0x007542a6      5f41           subq.w 0x7, d1
          0x007542a8      b041           cmp.w d1, d0
      < 0x007542aa      6302           bls.b 0x7542ae
         0x007542ac      3001           move.w d1, d0
      > 0x007542ae      1ebc0007       move.b 0x7, (a7)
          0x007542b2      d117           add.b d0, (a7)
          0x007542b4      5300           subq.b 0x1, d0
      < 0x007542b6      650a           bcs.b 0x7542c2
         0x007542b8      45eeff01       lea.l -0xff(a6), a2
     > 0x007542bc      12da           move.b (a2)+, (a1)+
     < 0x007542be      51c8fffc       dbra d0, 0x7542bc
      > 0x007542c2      9efc0100       suba.w 0x100, a7
          0x007542c6      224f           movea.l a7, a1
          0x007542c8      45ef0100       lea.l 0x100(a7), a2
          0x007542cc      703f           moveq 0x3f, d0
      > 0x007542ce      22da           move.l (a2)+, (a1)+
      < 0x007542d0      51c8fffc       dbra d0, 0x7542ce
          0x007542d4      48704804       pea.l 0x4(a0, d4.l)
          0x007542d8      3f3c0014       move.w 0x14, -(a7)
          0x007542dc      3f07           move.w d7, -(a7)
          0x007542de      3f3c0003       move.w 0x3, -(a7)
          0x007542e2      3f3c0001       move.w 0x1, -(a7)
          0x007542e6      1f3c0002       move.b 0x2, -(a7)
          0x007542ea      4227           clr.b -(a7)
          0x007542ec      3f2e0014       move.w 0x14(a6), -(a7)
          0x007542f0      4267           clr.w -(a7)
          0x007542f2      2f3a8c24       move.l 0x74cf18(pc), -(a7)
          0x007542f6      486f0018       pea.l 0x18(a7)
          0x007542fa      48780000       pea.l 0x0
          0x007542fe      48780100       pea.l 0x100
          0x00754302      2f2e000c       move.l 0xc(a6), -(a7)
          0x00754306      2f2e0008       move.l 0x8(a6), -(a7)
          0x0075430a      48c7           ext.l d7
          0x0075430c      2f2e0016       move.l 0x16(a6), -(a7)
          0x00754310      df97           add.l d7, (a7)
          0x00754312      4ebaefce       jsr MENULIBCOM.new_box_id(pc)
          0x00754316      defc0230       adda.w 0x230, a7
          0x0075431a      5247           addq.w 0x1, d7
          0x0075431c      0c470005       cmpi.w 0x5, d7
       < 0x00754320      6f00ff28       ble.w 0x75424a
           0x00754324      4cdf0f9b       movem.l (a7)+, d0-d1/d3-d4/d7/a0-a3
           0x00754328      4e5e           unlk a6
           0x0075432a      4e75           rts
            ; CALL XREF from MENULIBCOM.define_skls_inp @ 0x7557f0
            ; CALL XREF from fcn.0075624c @ 0x75647e
 1728: MENULIBCOM.define_numbers_ ();
           0x0075432c      4e56feb0       link.w a6, 0xfeb0
           0x00754330      bfd5           cmpa.l (a5), a7
       < 0x00754332      6206           bhi.b 0x75433a
          0x00754334      44fc0002       move.w 0x2, ccr
          0x00754338      4e76           trapv
       > 0x0075433a      defc0146       adda.w 0x146, a7
           0x0075433e      48e7fff8       movem.l d0-d7/a0-a4, -(a7)
           0x00754342      47fa8bd4       lea.l 0x74cf18(pc), a3
           0x00754346      49f80001       lea.l 0x1, a4
           0x0075434a      7201           moveq 0x1, d1
           0x0075434c      7403           moveq 0x3, d2
           0x0075434e      7602           moveq 0x2, d3
           0x00754350      7a04           moveq 0x4, d5
           0x00754352      3c3c0100       move.w 0x100, d6
           0x00754356      7e11           moveq 0x11, d7
           0x00754358      206e0010       movea.l 0x10(a6), a0
           0x0075435c      2f3a91e2       move.l 0x74d540(pc), -(a7)
           0x00754360      4868000c       pea.l 0xc(a0)
           0x00754364      3f3c0018       move.w 0x18, -(a7)
           0x00754368      3f01           move.w d1, -(a7)
           0x0075436a      3f02           move.w d2, -(a7)
           0x0075436c      3f01           move.w d1, -(a7)
           0x0075436e      1f03           move.b d3, -(a7)
           0x00754370      4227           clr.b -(a7)
           0x00754372      3f2e0014       move.w 0x14(a6), -(a7)
           0x00754376      4267           clr.w -(a7)
           0x00754378      2f13           move.l (a3), -(a7)
           0x0075437a      486f0018       pea.l 0x18(a7)
           0x0075437e      4854           pea.l (a4)
           0x00754380      48780004       pea.l 0x4
           0x00754384      2f2e000c       move.l 0xc(a6), -(a7)
           0x00754388      2f2e0008       move.l 0x8(a6), -(a7)
           0x0075438c      2f2e0016       move.l 0x16(a6), -(a7)
           0x00754390      5c97           addq.l 0x6, (a7)
           0x00754392      4ebaef4e       jsr MENULIBCOM.new_box_id(pc)
           0x00754396      defc002e       adda.w 0x2e, a7
           0x0075439a      224f           movea.l a7, a1
           0x0075439c      45fa91a7       lea.l 0x74d545(pc), a2
           0x007543a0      7004           moveq 0x4, d0
       > 0x007543a2      12da           move.b (a2)+, (a1)+
       < 0x007543a4      51c8fffc       dbra d0, 0x7543a2
           0x007543a8      486efffa       pea.l -0x6(a6)
           0x007543ac      4267           clr.w -(a7)
           0x007543ae      4267           clr.w -(a7)
           0x007543b0      4267           clr.w -(a7)
           0x007543b2      4267           clr.w -(a7)
           0x007543b4      1f3c000d       move.b 0xd, -(a7)
           0x007543b8      4227           clr.b -(a7)
           0x007543ba      3f2e0014       move.w 0x14(a6), -(a7)
           0x007543be      3f28000c       move.w 0xc(a0), -(a7)
           0x007543c2      2f13           move.l (a3), -(a7)
           0x007543c4      486f0018       pea.l 0x18(a7)
           0x007543c8      4854           pea.l (a4)
           0x007543ca      48780005       pea.l 0x5
           0x007543ce      486d0010       pea.l 0x10(a5)
           0x007543d2      487900481fee   pea.l MENUCOM.hit_nothing
           0x007543d8      4eb900487aa6   jsr MENUCOM.new_box
           0x007543de      defc0030       adda.w 0x30, a7
           0x007543e2      3eaefffa       move.w -0x6(a6), (a7)
           0x007543e6      4eb900481d90   jsr MENUCOM.swtch_on_box
           0x007543ec      554f           subq.w 0x2, a7
           0x007543ee      1eba915b       move.b 0x74d54b(pc), (a7)
           0x007543f2      1f7a91580001   move.b 0x74d54c(pc), 0x1(a7)
           0x007543f8      1f7a91530002   move.b 0x74d54d(pc), 0x2(a7)
           0x007543fe      1f7a914e0003   move.b 0x74d54e(pc), 0x3(a7)
           0x00754404      486efff6       pea.l -0xa(a6)
           0x00754408      3f3c000e       move.w 0xe, -(a7)
           0x0075440c      3f01           move.w d1, -(a7)
           0x0075440e      3f02           move.w d2, -(a7)
           0x00754410      3f01           move.w d1, -(a7)
           0x00754412      4227           clr.b -(a7)
           0x00754414      1f01           move.b d1, -(a7)
           0x00754416      3f2efffa       move.w -0x6(a6), -(a7)
           0x0075441a      4267           clr.w -(a7)
           0x0075441c      2f13           move.l (a3), -(a7)
           0x0075441e      486f0018       pea.l 0x18(a7)
           0x00754422      4854           pea.l (a4)
           0x00754424      48780004       pea.l 0x4
           0x00754428      486d0010       pea.l 0x10(a5)
           0x0075442c      487900481fee   pea.l MENUCOM.hit_nothing
           0x00754432      4eb900487aa6   jsr MENUCOM.new_box
           0x00754438      defc002e       adda.w 0x2e, a7
           0x0075443c      3eba9112       move.w 0x74d550(pc), (a7)
           0x00754440      486efff6       pea.l -0xa(a6)
           0x00754444      3f3c000e       move.w 0xe, -(a7)
           0x00754448      3f03           move.w d3, -(a7)
           0x0075444a      3f02           move.w d2, -(a7)
           0x0075444c      3f01           move.w d1, -(a7)
           0x0075444e      4227           clr.b -(a7)
           0x00754450      1f01           move.b d1, -(a7)
           0x00754452      3f2efffa       move.w -0x6(a6), -(a7)
           0x00754456      4267           clr.w -(a7)
           0x00754458      2f13           move.l (a3), -(a7)
           0x0075445a      486f0018       pea.l 0x18(a7)
           0x0075445e      4854           pea.l (a4)
           0x00754460      48780002       pea.l 0x2
           0x00754464      486d0010       pea.l 0x10(a5)
           0x00754468      487900481fee   pea.l MENUCOM.hit_nothing
           0x0075446e      4eb900487aa6   jsr MENUCOM.new_box
           0x00754474      defc001e       adda.w 0x1e, a7
           0x00754478      224f           movea.l a7, a1
           0x0075447a      45fa90d7       lea.l 0x74d553(pc), a2
           0x0075447e      700e           moveq 0xe, d0
       > 0x00754480      12da           move.b (a2)+, (a1)+
       < 0x00754482      51c8fffc       dbra d0, 0x754480
           0x00754486      486efff8       pea.l -0x8(a6)
           0x0075448a      4267           clr.w -(a7)
           0x0075448c      4267           clr.w -(a7)
           0x0075448e      4267           clr.w -(a7)
           0x00754490      4267           clr.w -(a7)
           0x00754492      1f3c000d       move.b 0xd, -(a7)
           0x00754496      4227           clr.b -(a7)
           0x00754498      3f2efffa       move.w -0x6(a6), -(a7)
           0x0075449c      4267           clr.w -(a7)
           0x0075449e      2f13           move.l (a3), -(a7)
           0x007544a0      486f0018       pea.l 0x18(a7)
           0x007544a4      4854           pea.l (a4)
           0x007544a6      4878000f       pea.l 0xf
           0x007544aa      486d0010       pea.l 0x10(a5)
           0x007544ae      487900481fee   pea.l MENUCOM.hit_nothing
           0x007544b4      4eb900487aa6   jsr MENUCOM.new_box
           0x007544ba      defc0036       adda.w 0x36, a7
           0x007544be      224f           movea.l a7, a1
           0x007544c0      45fa90a1       lea.l 0x74d563(pc), a2
           0x007544c4      7004           moveq 0x4, d0
       > 0x007544c6      12da           move.b (a2)+, (a1)+
       < 0x007544c8      51c8fffc       dbra d0, 0x7544c6
           0x007544cc      48680004       pea.l 0x4(a0)
           0x007544d0      3f3c0015       move.w 0x15, -(a7)
           0x007544d4      3f01           move.w d1, -(a7)
           0x007544d6      3f02           move.w d2, -(a7)
           0x007544d8      3f01           move.w d1, -(a7)
           0x007544da      1f03           move.b d3, -(a7)
           0x007544dc      4227           clr.b -(a7)
           0x007544de      3f2efffa       move.w -0x6(a6), -(a7)
           0x007544e2      3f2efff8       move.w -0x8(a6), -(a7)
           0x007544e6      2f13           move.l (a3), -(a7)
           0x007544e8      486f0018       pea.l 0x18(a7)
           0x007544ec      4854           pea.l (a4)
           0x007544ee      48780005       pea.l 0x5
           0x007544f2      2f2e000c       move.l 0xc(a6), -(a7)
           0x007544f6      2f2e0008       move.l 0x8(a6), -(a7)
           0x007544fa      2f2e0016       move.l 0x16(a6), -(a7)
           0x007544fe      5497           addq.l 0x2, (a7)
           0x00754500      4ebaede0       jsr MENULIBCOM.new_box_id(pc)
           0x00754504      defc0034       adda.w 0x34, a7
           0x00754508      3eaefff8       move.w -0x8(a6), (a7)
           0x0075450c      4eb900481d90   jsr MENUCOM.swtch_on_box
           0x00754512      3ea80004       move.w 0x4(a0), (a7)
           0x00754516      9efc00fc       suba.w 0xfc, a7
           0x0075451a      2f3a904c       move.l 0x74d568(pc), -(a7)
           0x0075451e      2f7a904c0004   move.l 0x74d56c(pc), 0x4(a7)
           0x00754524      3f7a904a0008   move.w 0x74d570(pc), 0x8(a7)
           0x0075452a      1f7a9046000a   move.b 0x74d572(pc), 0xa(a7)
           0x00754530      4eb90048442e   jsr MENUCOM.set_box_macro_n
           0x00754536      defc00f4       adda.w 0xf4, a7
           0x0075453a      2eba9038       move.l 0x74d574(pc), (a7)
           0x0075453e      2f7a90380004   move.l 0x74d578(pc), 0x4(a7)
           0x00754544      2f7a90360008   move.l 0x74d57c(pc), 0x8(a7)
           0x0075454a      1f7a9034000c   move.b 0x74d580(pc), 0xc(a7)
           0x00754550      486efffe       pea.l -0x2(a6)
           0x00754554      4267           clr.w -(a7)
           0x00754556      4267           clr.w -(a7)
           0x00754558      4267           clr.w -(a7)
           0x0075455a      4267           clr.w -(a7)
           0x0075455c      1f3c000d       move.b 0xd, -(a7)
           0x00754560      4227           clr.b -(a7)
           0x00754562      3f2efffa       move.w -0x6(a6), -(a7)
           0x00754566      4267           clr.w -(a7)
           0x00754568      2f13           move.l (a3), -(a7)
           0x0075456a      486f0018       pea.l 0x18(a7)
           0x0075456e      4854           pea.l (a4)
           0x00754570      4878000d       pea.l 0xd
           0x00754574      486d0010       pea.l 0x10(a5)
           0x00754578      487900481fee   pea.l MENUCOM.hit_nothing
           0x0075457e      4eb900487aa6   jsr MENUCOM.new_box
           0x00754584      defc0034       adda.w 0x34, a7
           0x00754588      2eba8ff8       move.l 0x74d582(pc), (a7)
           0x0075458c      1f7a8ff80004   move.b 0x74d586(pc), 0x4(a7)
           0x00754592      48680006       pea.l 0x6(a0)
           0x00754596      3f3c0015       move.w 0x15, -(a7)
           0x0075459a      3f03           move.w d3, -(a7)
           0x0075459c      3f02           move.w d2, -(a7)
           0x0075459e      3f01           move.w d1, -(a7)
           0x007545a0      1f03           move.b d3, -(a7)
           0x007545a2      4227           clr.b -(a7)
           0x007545a4      3f2efffa       move.w -0x6(a6), -(a7)
           0x007545a8      3f2efffe       move.w -0x2(a6), -(a7)
           0x007545ac      2f13           move.l (a3), -(a7)
           0x007545ae      486f0018       pea.l 0x18(a7)
           0x007545b2      4854           pea.l (a4)
           0x007545b4      48780005       pea.l 0x5
           0x007545b8      2f2e000c       move.l 0xc(a6), -(a7)
           0x007545bc      2f2e0008       move.l 0x8(a6), -(a7)
           0x007545c0      2f2e0016       move.l 0x16(a6), -(a7)
           0x007545c4      5697           addq.l 0x3, (a7)
           0x007545c6      4ebaed1a       jsr MENULIBCOM.new_box_id(pc)
           0x007545ca      defc0034       adda.w 0x34, a7
           0x007545ce      3eaefffe       move.w -0x2(a6), (a7)
           0x007545d2      4eb900481d90   jsr MENUCOM.swtch_on_box
           0x007545d8      3ea80006       move.w 0x6(a0), (a7)
           0x007545dc      9ec6           suba.w d6, a7
           0x007545de      224f           movea.l a7, a1
           0x007545e0      45fa8fa5       lea.l 0x74d587(pc), a2
           0x007545e4      7008           moveq 0x8, d0
       > 0x007545e6      12da           move.b (a2)+, (a1)+
       < 0x007545e8      51c8fffc       dbra d0, 0x7545e6
           0x007545ec      4eb90048442e   jsr MENUCOM.set_box_macro_n
           0x007545f2      dec6           adda.w d6, a7
           0x007545f4      1eba8f9b       move.b 0x74d591(pc), (a7)
           0x007545f8      1f7a8f980001   move.b 0x74d592(pc), 0x1(a7)
           0x007545fe      4850           pea.l (a0)
           0x00754600      3f07           move.w d7, -(a7)
           0x00754602      3f01           move.w d1, -(a7)
           0x00754604      3f05           move.w d5, -(a7)
           0x00754606      3f01           move.w d1, -(a7)
           0x00754608      1f3c0008       move.b 0x8, -(a7)
           0x0075460c      1f03           move.b d3, -(a7)
           0x0075460e      3f2efff8       move.w -0x8(a6), -(a7)
           0x00754612      4267           clr.w -(a7)
           0x00754614      2f13           move.l (a3), -(a7)
           0x00754616      486f0018       pea.l 0x18(a7)
           0x0075461a      4854           pea.l (a4)
           0x0075461c      48780002       pea.l 0x2
           0x00754620      2f2e000c       move.l 0xc(a6), -(a7)
           0x00754624      2f2e0008       move.l 0x8(a6), -(a7)
           0x00754628      2f2e0016       move.l 0x16(a6), -(a7)
           0x0075462c      4ebaecb4       jsr MENULIBCOM.new_box_id(pc)
           0x00754630      defc0030       adda.w 0x30, a7
           0x00754634      3e90           move.w (a0), (a7)
           0x00754636      9ec6           suba.w d6, a7
           0x00754638      224f           movea.l a7, a1
           0x0075463a      45fa8f57       lea.l 0x74d593(pc), a2
           0x0075463e      7008           moveq 0x8, d0
       > 0x00754640      12da           move.b (a2)+, (a1)+
       < 0x00754642      51c8fffc       dbra d0, 0x754640
           0x00754646      4eb90048442e   jsr MENUCOM.set_box_macro_n
           0x0075464c      defc0102       adda.w 0x102, a7
           0x00754650      7800           moveq 0x0, d4
           0x00754652      4eb900408686   jsr fcn.00408686
           0x00754658      2f04           move.l d4, -(a7)
           0x0075465a      283c05f5e100   move.l 0x5f5e100, d4
           0x00754660      4eb900408686   jsr fcn.00408686
           0x00754666      2f04           move.l d4, -(a7)
           0x00754668      3f10           move.w (a0), -(a7)
           0x0075466a      202f0006       move.l 0x6(a7), d0
           0x0075466e      2f00           move.l d0, -(a7)
           0x00754670      202f000a       move.l 0xa(a7), d0
           0x00754674      2f00           move.l d0, -(a7)
           0x00754676      2f04           move.l d4, -(a7)
           0x00754678      4267           clr.w -(a7)
           0x0075467a      4267           clr.w -(a7)
           0x0075467c      4eb90048d4ae   jsr MENU2COM.make_numeric_bo
           0x00754682      defc0010       adda.w 0x10, a7
           0x00754686      1eba8f15       move.b 0x74d59d(pc), (a7)
           0x0075468a      1f7a8f120001   move.b 0x74d59e(pc), 0x1(a7)
           0x00754690      48680002       pea.l 0x2(a0)
           0x00754694      3f07           move.w d7, -(a7)
           0x00754696      3f03           move.w d3, -(a7)
           0x00754698      3f05           move.w d5, -(a7)
           0x0075469a      3f01           move.w d1, -(a7)
           0x0075469c      1f3c0008       move.b 0x8, -(a7)
           0x007546a0      1f03           move.b d3, -(a7)
           0x007546a2      3f2efffe       move.w -0x2(a6), -(a7)
           0x007546a6      3f10           move.w (a0), -(a7)
           0x007546a8      2f13           move.l (a3), -(a7)
           0x007546aa      486f0018       pea.l 0x18(a7)
           0x007546ae      4854           pea.l (a4)
           0x007546b0      48780002       pea.l 0x2
           0x007546b4      2f2e000c       move.l 0xc(a6), -(a7)
           0x007546b8      2f2e0008       move.l 0x8(a6), -(a7)
           0x007546bc      2f2e0016       move.l 0x16(a6), -(a7)
           0x007546c0      5297           addq.l 0x1, (a7)
           0x007546c2      4ebaec1e       jsr MENULIBCOM.new_box_id(pc)
           0x007546c6      defc0030       adda.w 0x30, a7
           0x007546ca      3ea80002       move.w 0x2(a0), (a7)
           0x007546ce      9ec6           suba.w d6, a7
           0x007546d0      224f           movea.l a7, a1
           0x007546d2      45fa8ecb       lea.l 0x74d59f(pc), a2
           0x007546d6      7009           moveq 0x9, d0
       > 0x007546d8      12da           move.b (a2)+, (a1)+
       < 0x007546da      51c8fffc       dbra d0, 0x7546d8
           0x007546de      4eb90048442e   jsr MENUCOM.set_box_macro_n
           0x007546e4      dec6           adda.w d6, a7
           0x007546e6      3ea80002       move.w 0x2(a0), (a7)
           0x007546ea      283c000003e8   move.l 0x3e8, d4
           0x007546f0      4eb900408686   jsr fcn.00408686
           0x007546f6      2f04           move.l d4, -(a7)
           0x007546f8      202f000a       move.l 0xa(a7), d0
           0x007546fc      2f00           move.l d0, -(a7)
           0x007546fe      202f000a       move.l 0xa(a7), d0
           0x00754702      2f00           move.l d0, -(a7)
           0x00754704      4267           clr.w -(a7)
           0x00754706      4267           clr.w -(a7)
           0x00754708      4eb90048d4ae   jsr MENU2COM.make_numeric_bo
           0x0075470e      defc000c       adda.w 0xc, a7
           0x00754712      2eba8e96       move.l 0x74d5aa(pc), (a7)
           0x00754716      1f7a8e960004   move.b 0x74d5ae(pc), 0x4(a7)
           0x0075471c      48680012       pea.l 0x12(a0)
           0x00754720      3f07           move.w d7, -(a7)
           0x00754722      3f01           move.w d1, -(a7)
           0x00754724      3f05           move.w d5, -(a7)
           0x00754726      3f01           move.w d1, -(a7)
           0x00754728      1f3c0005       move.b 0x5, -(a7)
           0x0075472c      1f01           move.b d1, -(a7)
           0x0075472e      3f280004       move.w 0x4(a0), -(a7)
           0x00754732      4267           clr.w -(a7)
           0x00754734      2f13           move.l (a3), -(a7)
           0x00754736      486f0018       pea.l 0x18(a7)
           0x0075473a      4854           pea.l (a4)
           0x0075473c      48780005       pea.l 0x5
           0x00754740      2f2e000c       move.l 0xc(a6), -(a7)
           0x00754744      2f2e0008       move.l 0x8(a6), -(a7)
           0x00754748      2f2e0016       move.l 0x16(a6), -(a7)
           0x0075474c      069700000009   addi.l 0x9, (a7)
           0x00754752      4ebaeb8e       jsr MENULIBCOM.new_box_id(pc)
           0x00754756      defc0032       adda.w 0x32, a7
           0x0075475a      3eba8e54       move.w 0x74d5b0(pc), (a7)
           0x0075475e      1f7a8e520002   move.b 0x74d5b2(pc), 0x2(a7)
           0x00754764      48680014       pea.l 0x14(a0)
           0x00754768      3f07           move.w d7, -(a7)
           0x0075476a      3f03           move.w d3, -(a7)
           0x0075476c      3f05           move.w d5, -(a7)
           0x0075476e      3f01           move.w d1, -(a7)
           0x00754770      1f3c0005       move.b 0x5, -(a7)
           0x00754774      1f01           move.b d1, -(a7)
           0x00754776      3f280006       move.w 0x6(a0), -(a7)
           0x0075477a      4267           clr.w -(a7)
           0x0075477c      2f13           move.l (a3), -(a7)
           0x0075477e      486f0018       pea.l 0x18(a7)
           0x00754782      4854           pea.l (a4)
           0x00754784      48780003       pea.l 0x3
           0x00754788      2f2e000c       move.l 0xc(a6), -(a7)
           0x0075478c      2f2e0008       move.l 0x8(a6), -(a7)
           0x00754790      2f2e0016       move.l 0x16(a6), -(a7)
           0x00754794      06970000000a   addi.l 0xa, (a7)
           0x0075479a      4ebaeb46       jsr MENULIBCOM.new_box_id(pc)
           0x0075479e      defc002a       adda.w 0x2a, a7
           0x007547a2      2eba8e10       move.l 0x74d5b4(pc), (a7)
           0x007547a6      2f7a8e100004   move.l 0x74d5b8(pc), 0x4(a7)
           0x007547ac      1f7a8e0e0008   move.b 0x74d5bc(pc), 0x8(a7)
           0x007547b2      48680008       pea.l 0x8(a0)
           0x007547b6      3f3c000e       move.w 0xe, -(a7)
           0x007547ba      3f02           move.w d2, -(a7)
           0x007547bc      3f05           move.w d5, -(a7)
           0x007547be      3f01           move.w d1, -(a7)
           0x007547c0      1f3c0005       move.b 0x5, -(a7)
           0x007547c4      4227           clr.b -(a7)
           0x007547c6      3f2efffa       move.w -0x6(a6), -(a7)
           0x007547ca      4267           clr.w -(a7)
           0x007547cc      2f13           move.l (a3), -(a7)
           0x007547ce      486f0018       pea.l 0x18(a7)
           0x007547d2      4854           pea.l (a4)
           0x007547d4      48780009       pea.l 0x9
           0x007547d8      2f2e000c       move.l 0xc(a6), -(a7)
           0x007547dc      2f2e0008       move.l 0x8(a6), -(a7)
           0x007547e0      2f2e0016       move.l 0x16(a6), -(a7)
           0x007547e4      5897           addq.l 0x4, (a7)
           0x007547e6      4ebaeafa       jsr MENULIBCOM.new_box_id(pc)
           0x007547ea      defc002c       adda.w 0x2c, a7
           0x007547ee      2eba8dce       move.l 0x74d5be(pc), (a7)
           0x007547f2      2f7a8dce0004   move.l 0x74d5c2(pc), 0x4(a7)
           0x007547f8      2f7a8dcc0008   move.l 0x74d5c6(pc), 0x8(a7)
           0x007547fe      1f7a8dca000c   move.b 0x74d5ca(pc), 0xc(a7)
           0x00754804      4868000a       pea.l 0xa(a0)
           0x00754808      3f3c0012       move.w 0x12, -(a7)
           0x0075480c      3f02           move.w d2, -(a7)
           0x0075480e      3f3c0006       move.w 0x6, -(a7)
           0x00754812      3f01           move.w d1, -(a7)
           0x00754814      1f3c0005       move.b 0x5, -(a7)
           0x00754818      4227           clr.b -(a7)
           0x0075481a      3f2efffa       move.w -0x6(a6), -(a7)
           0x0075481e      4267           clr.w -(a7)
           0x00754820      2f13           move.l (a3), -(a7)
           0x00754822      486f0018       pea.l 0x18(a7)
           0x00754826      4854           pea.l (a4)
           0x00754828      4878000d       pea.l 0xd
           0x0075482c      2f2e000c       move.l 0xc(a6), -(a7)
           0x00754830      2f2e0008       move.l 0x8(a6), -(a7)
           0x00754834      2f2e0016       move.l 0x16(a6), -(a7)
           0x00754838      5a97           addq.l 0x5, (a7)
           0x0075483a      4ebaeaa6       jsr MENULIBCOM.new_box_id(pc)
           0x0075483e      defc003a       adda.w 0x3a, a7
           0x00754842      3eba8d88       move.w 0x74d5cc(pc), (a7)
           0x00754846      1f7a8d860002   move.b 0x74d5ce(pc), 0x2(a7)
           0x0075484c      486efff6       pea.l -0xa(a6)
           0x00754850      3f3c000e       move.w 0xe, -(a7)
           0x00754854      3f01           move.w d1, -(a7)
           0x00754856      3f02           move.w d2, -(a7)
           0x00754858      3f01           move.w d1, -(a7)
           0x0075485a      4227           clr.b -(a7)
           0x0075485c      1f01           move.b d1, -(a7)
           0x0075485e      3f28000c       move.w 0xc(a0), -(a7)
           0x00754862      4267           clr.w -(a7)
           0x00754864      2f13           move.l (a3), -(a7)
           0x00754866      486f0018       pea.l 0x18(a7)
           0x0075486a      4854           pea.l (a4)
           0x0075486c      48780003       pea.l 0x3
           0x00754870      486d0010       pea.l 0x10(a5)
           0x00754874      487900481fee   pea.l MENUCOM.hit_nothing
           0x0075487a      4eb900487aa6   jsr MENUCOM.new_box
           0x00754880      defc002c       adda.w 0x2c, a7
           0x00754884      2eba8d52       move.l 0x74d5d8(pc), (a7)
           0x00754888      2f3a8d4a       move.l 0x74d5d4(pc), -(a7)
           0x0075488c      2f3a8d42       move.l 0x74d5d0(pc), -(a7)
           0x00754890      486efffc       pea.l -0x4(a6)
           0x00754894      4267           clr.w -(a7)
           0x00754896      4267           clr.w -(a7)
           0x00754898      4267           clr.w -(a7)
           0x0075489a      4267           clr.w -(a7)
           0x0075489c      1f3c000d       move.b 0xd, -(a7)
           0x007548a0      4227           clr.b -(a7)
           0x007548a2      3f28000c       move.w 0xc(a0), -(a7)
           0x007548a6      4267           clr.w -(a7)
           0x007548a8      2f13           move.l (a3), -(a7)
           0x007548aa      486f0018       pea.l 0x18(a7)
           0x007548ae      4854           pea.l (a4)
           0x007548b0      4878000c       pea.l 0xc
           0x007548b4      486d0010       pea.l 0x10(a5)
           0x007548b8      487900481fee   pea.l MENUCOM.hit_nothing
           0x007548be      4eb900487aa6   jsr MENUCOM.new_box
           0x007548c4      defc0036       adda.w 0x36, a7
           0x007548c8      3eaefffc       move.w -0x4(a6), (a7)
           0x007548cc      4eb900481d90   jsr MENUCOM.swtch_on_box
           0x007548d2      594f           subq.w 0x4, a7
           0x007548d4      224f           movea.l a7, a1
           0x007548d6      45fa8d05       lea.l 0x74d5dd(pc), a2
           0x007548da      7004           moveq 0x4, d0
       > 0x007548dc      12da           move.b (a2)+, (a1)+
       < 0x007548de      51c8fffc       dbra d0, 0x7548dc
           0x007548e2      4868000e       pea.l 0xe(a0)
           0x007548e6      3f3c0015       move.w 0x15, -(a7)
           0x007548ea      3f01           move.w d1, -(a7)
           0x007548ec      3f02           move.w d2, -(a7)
           0x007548ee      3f01           move.w d1, -(a7)
           0x007548f0      1f03           move.b d3, -(a7)
           0x007548f2      4227           clr.b -(a7)
           0x007548f4      3f28000c       move.w 0xc(a0), -(a7)
           0x007548f8      3f2efffc       move.w -0x4(a6), -(a7)
           0x007548fc      2f13           move.l (a3), -(a7)
           0x007548fe      486f0018       pea.l 0x18(a7)
           0x00754902      4854           pea.l (a4)
           0x00754904      48780005       pea.l 0x5
           0x00754908      2f2e000c       move.l 0xc(a6), -(a7)
           0x0075490c      2f2e0008       move.l 0x8(a6), -(a7)
           0x00754910      2f2e0016       move.l 0x16(a6), -(a7)
           0x00754914      5e97           addq.l 0x7, (a7)
           0x00754916      4ebae9ca       jsr MENULIBCOM.new_box_id(pc)
           0x0075491a      defc0034       adda.w 0x34, a7
           0x0075491e      1eba8cc3       move.b 0x74d5e3(pc), (a7)
           0x00754922      1f7a8cc00001   move.b 0x74d5e4(pc), 0x1(a7)
           0x00754928      48680010       pea.l 0x10(a0)
           0x0075492c      3f07           move.w d7, -(a7)
           0x0075492e      3f01           move.w d1, -(a7)
           0x00754930      3f05           move.w d5, -(a7)
           0x00754932      3f01           move.w d1, -(a7)
           0x00754934      1f3c0008       move.b 0x8, -(a7)
           0x00754938      1f03           move.b d3, -(a7)
           0x0075493a      3f2efffc       move.w -0x4(a6), -(a7)
           0x0075493e      4267           clr.w -(a7)
           0x00754940      2f13           move.l (a3), -(a7)
           0x00754942      486f0018       pea.l 0x18(a7)
           0x00754946      4854           pea.l (a4)
           0x00754948      48780002       pea.l 0x2
           0x0075494c      2f2e000c       move.l 0xc(a6), -(a7)
           0x00754950      2f2e0008       move.l 0x8(a6), -(a7)
           0x00754954      2f2e0016       move.l 0x16(a6), -(a7)
           0x00754958      5097           addq.l 0x8, (a7)
           0x0075495a      4ebae986       jsr MENULIBCOM.new_box_id(pc)
           0x0075495e      defc0030       adda.w 0x30, a7
           0x00754962      3ea80010       move.w 0x10(a0), (a7)
           0x00754966      9ec6           suba.w d6, a7
           0x00754968      224f           movea.l a7, a1
           0x0075496a      45fa8c79       lea.l 0x74d5e5(pc), a2
           0x0075496e      700d           moveq 0xd, d0
       > 0x00754970      12da           move.b (a2)+, (a1)+
       < 0x00754972      51c8fffc       dbra d0, 0x754970
           0x00754976      4eb90048442e   jsr MENUCOM.set_box_macro_n
           0x0075497c      dec6           adda.w d6, a7
           0x0075497e      3ea80010       move.w 0x10(a0), (a7)
           0x00754982      202f0006       move.l 0x6(a7), d0
           0x00754986      2f00           move.l d0, -(a7)
           0x00754988      202f000a       move.l 0xa(a7), d0
           0x0075498c      2f00           move.l d0, -(a7)
           0x0075498e      202f000a       move.l 0xa(a7), d0
           0x00754992      2f00           move.l d0, -(a7)
           0x00754994      4267           clr.w -(a7)
           0x00754996      4267           clr.w -(a7)
           0x00754998      4eb90048d4ae   jsr MENU2COM.make_numeric_bo
           0x0075499e      defc0016       adda.w 0x16, a7
           0x007549a2      2eba8c50       move.l 0x74d5f4(pc), (a7)
           0x007549a6      48680016       pea.l 0x16(a0)
           0x007549aa      3f07           move.w d7, -(a7)
           0x007549ac      3f01           move.w d1, -(a7)
           0x007549ae      3f05           move.w d5, -(a7)
           0x007549b0      3f01           move.w d1, -(a7)
           0x007549b2      1f3c0005       move.b 0x5, -(a7)
           0x007549b6      1f01           move.b d1, -(a7)
           0x007549b8      3f28000e       move.w 0xe(a0), -(a7)
           0x007549bc      4267           clr.w -(a7)
           0x007549be      2f13           move.l (a3), -(a7)
           0x007549c0      486f0018       pea.l 0x18(a7)
           0x007549c4      4854           pea.l (a4)
           0x007549c6      48780004       pea.l 0x4
           0x007549ca      2f2e000c       move.l 0xc(a6), -(a7)
           0x007549ce      2f2e0008       move.l 0x8(a6), -(a7)
           0x007549d2      2f2e0016       move.l 0x16(a6), -(a7)
           0x007549d6      06970000000b   addi.l 0xb, (a7)
           0x007549dc      4ebae904       jsr MENULIBCOM.new_box_id(pc)
           0x007549e0      defc0034       adda.w 0x34, a7
           0x007549e4      4cdf1fff       movem.l (a7)+, d0-d7/a0-a4
           0x007549e8      4e5e           unlk a6
           0x007549ea      4e75           rts
            ; CALL XREF from MENULIBCOM.define_skls_inp @ 0x75577e
            ; CALL XREF from fcn.0075624c @ 0x756408
 392: MENULIBCOM.define_number_b ();
           0x007549ec      4e56febe       link.w a6, 0xfebe
           0x007549f0      bfd5           cmpa.l (a5), a7
       < 0x007549f2      6206           bhi.b 0x7549fa
          0x007549f4      44fc0002       move.w 0x2, ccr
          0x007549f8      4e76           trapv
       > 0x007549fa      defc013e       adda.w 0x13e, a7
           0x007549fe      48e7fef8       movem.l d0-d6/a0-a4, -(a7)
           0x00754a02      45eefffe       lea.l -0x2(a6), a2
           0x00754a06      47fa8510       lea.l 0x74cf18(pc), a3
           0x00754a0a      49f80001       lea.l 0x1, a4
           0x00754a0e      7201           moveq 0x1, d1
           0x00754a10      740e           moveq 0xe, d2
           0x00754a12      7636           moveq 0x36, d3
           0x00754a14      3a3c0102       move.w 0x102, d5
           0x00754a18      7c04           moveq 0x4, d6
           0x00754a1a      9efc000c       suba.w 0xc, a7
           0x00754a1e      204f           movea.l a7, a0
           0x00754a20      43fa8bd7       lea.l 0x74d5f9(pc), a1
           0x00754a24      700b           moveq 0xb, d0
       > 0x00754a26      10d9           move.b (a1)+, (a0)+
       < 0x00754a28      51c8fffc       dbra d0, 0x754a26
           0x00754a2c      4852           pea.l (a2)
           0x00754a2e      4267           clr.w -(a7)
           0x00754a30      4267           clr.w -(a7)
           0x00754a32      4267           clr.w -(a7)
           0x00754a34      4267           clr.w -(a7)
           0x00754a36      1f3c000d       move.b 0xd, -(a7)
           0x00754a3a      4227           clr.b -(a7)
           0x00754a3c      3f2e0020       move.w 0x20(a6), -(a7)
           0x00754a40      4267           clr.w -(a7)
           0x00754a42      2f13           move.l (a3), -(a7)
           0x00754a44      486f0018       pea.l 0x18(a7)
           0x00754a48      4854           pea.l (a4)
           0x00754a4a      4878000c       pea.l 0xc
           0x00754a4e      486d0010       pea.l 0x10(a5)
           0x00754a52      487900481fee   pea.l MENUCOM.hit_nothing
           0x00754a58      4eb900487aa6   jsr MENUCOM.new_box
           0x00754a5e      dec3           adda.w d3, a7
           0x00754a60      3e92           move.w (a2), (a7)
           0x00754a62      4eb900481d90   jsr MENUCOM.swtch_on_box
           0x00754a68      544f           addq.w 0x2, a7
           0x00754a6a      206e001c       movea.l 0x1c(a6), a0
           0x00754a6e      554f           subq.w 0x2, a7
           0x00754a70      2f3a8b94       move.l 0x74d606(pc), -(a7)
           0x00754a74      1f7a8b940004   move.b 0x74d60a(pc), 0x4(a7)
           0x00754a7a      4850           pea.l (a0)
           0x00754a7c      3f3c0012       move.w 0x12, -(a7)
           0x00754a80      3f01           move.w d1, -(a7)
           0x00754a82      3f3c0003       move.w 0x3, -(a7)
           0x00754a86      3f01           move.w d1, -(a7)
           0x00754a88      1f05           move.b d5, -(a7)
           0x00754a8a      4227           clr.b -(a7)
           0x00754a8c      3f2e0020       move.w 0x20(a6), -(a7)
           0x00754a90      3f12           move.w (a2), -(a7)
           0x00754a92      2f13           move.l (a3), -(a7)
           0x00754a94      486f0018       pea.l 0x18(a7)
           0x00754a98      4854           pea.l (a4)
           0x00754a9a      48780005       pea.l 0x5
           0x00754a9e      2f2e0014       move.l 0x14(a6), -(a7)
           0x00754aa2      2f2e0010       move.l 0x10(a6), -(a7)
           0x00754aa6      2f2e0022       move.l 0x22(a6), -(a7)
           0x00754aaa      4ebae836       jsr MENULIBCOM.new_box_id(pc)
           0x00754aae      dec3           adda.w d3, a7
           0x00754ab0      226e0018       movea.l 0x18(a6), a1
           0x00754ab4      3f3a8b56       move.w 0x74d60c(pc), -(a7)
           0x00754ab8      4851           pea.l (a1)
           0x00754aba      3f02           move.w d2, -(a7)
           0x00754abc      3f01           move.w d1, -(a7)
           0x00754abe      3f06           move.w d6, -(a7)
           0x00754ac0      3f01           move.w d1, -(a7)
           0x00754ac2      1f3c0008       move.b 0x8, -(a7)
           0x00754ac6      1f05           move.b d5, -(a7)
           0x00754ac8      3f12           move.w (a2), -(a7)
           0x00754aca      4267           clr.w -(a7)
           0x00754acc      2f13           move.l (a3), -(a7)
           0x00754ace      486f0018       pea.l 0x18(a7)
           0x00754ad2      4854           pea.l (a4)
           0x00754ad4      48780002       pea.l 0x2
           0x00754ad8      2f2e0014       move.l 0x14(a6), -(a7)
           0x00754adc      2f2e0010       move.l 0x10(a6), -(a7)
           0x00754ae0      2f2e0022       move.l 0x22(a6), -(a7)
           0x00754ae4      4ebae7fc       jsr MENULIBCOM.new_box_id(pc)
           0x00754ae8      defc0030       adda.w 0x30, a7
           0x00754aec      3e91           move.w (a1), (a7)
           0x00754aee      9efc00fc       suba.w 0xfc, a7
           0x00754af2      2f3a8b1a       move.l 0x74d60e(pc), -(a7)
           0x00754af6      3f7a8b1a0004   move.w 0x74d612(pc), 0x4(a7)
           0x00754afc      1f7a8b160006   move.b 0x74d614(pc), 0x6(a7)
           0x00754b02      4eb90048442e   jsr MENUCOM.set_box_macro_n
           0x00754b08      dec5           adda.w d5, a7
           0x00754b0a      7800           moveq 0x0, d4
           0x00754b0c      4eb900408686   jsr fcn.00408686
           0x00754b12      3f11           move.w (a1), -(a7)
           0x00754b14      2f04           move.l d4, -(a7)
           0x00754b16      2f04           move.l d4, -(a7)
           0x00754b18      283c05f5e100   move.l 0x5f5e100, d4
           0x00754b1e      4eb900408686   jsr fcn.00408686
           0x00754b24      2f04           move.l d4, -(a7)
           0x00754b26      4267           clr.w -(a7)
           0x00754b28      4267           clr.w -(a7)
           0x00754b2a      4eb90048d4ae   jsr MENU2COM.make_numeric_bo
           0x00754b30      dec2           adda.w d2, a7
           0x00754b32      2eba8ae2       move.l 0x74d616(pc), (a7)
           0x00754b36      486efffc       pea.l -0x4(a6)
           0x00754b3a      3f02           move.w d2, -(a7)
           0x00754b3c      3f01           move.w d1, -(a7)
           0x00754b3e      3f06           move.w d6, -(a7)
           0x00754b40      3f01           move.w d1, -(a7)
           0x00754b42      1f3c0005       move.b 0x5, -(a7)
           0x00754b46      1f01           move.b d1, -(a7)
           0x00754b48      3f10           move.w (a0), -(a7)
           0x00754b4a      4267           clr.w -(a7)
           0x00754b4c      2f13           move.l (a3), -(a7)
           0x00754b4e      486f0018       pea.l 0x18(a7)
           0x00754b52      4854           pea.l (a4)
           0x00754b54      48780004       pea.l 0x4
           0x00754b58      2f2e000c       move.l 0xc(a6), -(a7)
           0x00754b5c      2f2e0008       move.l 0x8(a6), -(a7)
           0x00754b60      2f2e0022       move.l 0x22(a6), -(a7)
           0x00754b64      4ebae77c       jsr MENULIBCOM.new_box_id(pc)
           0x00754b68      defc0034       adda.w 0x34, a7
           0x00754b6c      4cdf1f7f       movem.l (a7)+, d0-d6/a0-a4
           0x00754b70      4e5e           unlk a6
           0x00754b72      4e75           rts
            ; CALL XREF from MENULIBCOM.define_skls_inp @ 0x755634
            ; CALL XREF from fcn.0075624c @ 0x756592
 860: MENULIBCOM.define_dates_bo ();
           0x00754b74      4e56ff88       link.w a6, 0xff88
           0x00754b78      bfd5           cmpa.l (a5), a7
       < 0x00754b7a      6206           bhi.b 0x754b82
          0x00754b7c      44fc0002       move.w 0x2, ccr
          0x00754b80      4e76           trapv
       > 0x00754b82      defc0074       adda.w 0x74, a7
           0x00754b86      48e7fff8       movem.l d0-d7/a0-a4, -(a7)
           0x00754b8a      47fa838c       lea.l 0x74cf18(pc), a3
           0x00754b8e      49f80001       lea.l 0x1, a4
           0x00754b92      7201           moveq 0x1, d1
           0x00754b94      7403           moveq 0x3, d2
           0x00754b96      7602           moveq 0x2, d3
           0x00754b98      7805           moveq 0x5, d4
           0x00754b9a      7a0e           moveq 0xe, d5
           0x00754b9c      7c34           moveq 0x34, d6
           0x00754b9e      7e2e           moveq 0x2e, d7
           0x00754ba0      206e0018       movea.l 0x18(a6), a0
           0x00754ba4      594f           subq.w 0x4, a7
           0x00754ba6      1eba8a73       move.b 0x74d61b(pc), (a7)
           0x00754baa      1f7a8a700001   move.b 0x74d61c(pc), 0x1(a7)
           0x00754bb0      1f7a8a6b0002   move.b 0x74d61d(pc), 0x2(a7)
           0x00754bb6      1f7a8a660003   move.b 0x74d61e(pc), 0x3(a7)
           0x00754bbc      4868000c       pea.l 0xc(a0)
           0x00754bc0      3f3c001a       move.w 0x1a, -(a7)
           0x00754bc4      3f01           move.w d1, -(a7)
           0x00754bc6      3f02           move.w d2, -(a7)
           0x00754bc8      3f01           move.w d1, -(a7)
           0x00754bca      1f03           move.b d3, -(a7)
           0x00754bcc      4227           clr.b -(a7)
           0x00754bce      3f2e001c       move.w 0x1c(a6), -(a7)
           0x00754bd2      4267           clr.w -(a7)
           0x00754bd4      2f13           move.l (a3), -(a7)
           0x00754bd6      486f0018       pea.l 0x18(a7)
           0x00754bda      4854           pea.l (a4)
           0x00754bdc      48780004       pea.l 0x4
           0x00754be0      2f2e0014       move.l 0x14(a6), -(a7)
           0x00754be4      2f2e0010       move.l 0x10(a6), -(a7)
           0x00754be8      2f2e001e       move.l 0x1e(a6), -(a7)
           0x00754bec      4ebae6f4       jsr MENULIBCOM.new_box_id(pc)
           0x00754bf0      dec7           adda.w d7, a7
           0x00754bf2      2eba8a2c       move.l 0x74d620(pc), (a7)
           0x00754bf6      1f7a8a2c0004   move.b 0x74d624(pc), 0x4(a7)
           0x00754bfc      486efffe       pea.l -0x2(a6)
           0x00754c00      4267           clr.w -(a7)
           0x00754c02      4267           clr.w -(a7)
           0x00754c04      4267           clr.w -(a7)
           0x00754c06      4267           clr.w -(a7)
           0x00754c08      1f3c000d       move.b 0xd, -(a7)
           0x00754c0c      4227           clr.b -(a7)
           0x00754c0e      3f2e001c       move.w 0x1c(a6), -(a7)
           0x00754c12      3f28000c       move.w 0xc(a0), -(a7)
           0x00754c16      2f13           move.l (a3), -(a7)
           0x00754c18      486f0018       pea.l 0x18(a7)
           0x00754c1c      4854           pea.l (a4)
           0x00754c1e      48780005       pea.l 0x5
           0x00754c22      486d0010       pea.l 0x10(a5)
           0x00754c26      487900481fee   pea.l MENUCOM.hit_nothing
           0x00754c2c      4eb900487aa6   jsr MENUCOM.new_box
           0x00754c32      defc0030       adda.w 0x30, a7
           0x00754c36      3eaefffe       move.w -0x2(a6), (a7)
           0x00754c3a      4eb900481d90   jsr MENUCOM.swtch_on_box
           0x00754c40      2f3a89e4       move.l 0x74d626(pc), -(a7)
           0x00754c44      1f7a89e40004   move.b 0x74d62a(pc), 0x4(a7)
           0x00754c4a      4850           pea.l (a0)
           0x00754c4c      3f05           move.w d5, -(a7)
           0x00754c4e      3f01           move.w d1, -(a7)
           0x00754c50      3f3c000c       move.w 0xc, -(a7)
           0x00754c54      3f01           move.w d1, -(a7)
           0x00754c56      1f3c0011       move.b 0x11, -(a7)
           0x00754c5a      1f03           move.b d3, -(a7)
           0x00754c5c      3f2efffe       move.w -0x2(a6), -(a7)
           0x00754c60      4267           clr.w -(a7)
           0x00754c62      2f13           move.l (a3), -(a7)
           0x00754c64      486f0018       pea.l 0x18(a7)
           0x00754c68      4854           pea.l (a4)
           0x00754c6a      48780005       pea.l 0x5
           0x00754c6e      2f2e0014       move.l 0x14(a6), -(a7)
           0x00754c72      2f2e0010       move.l 0x10(a6), -(a7)
           0x00754c76      2f2e001e       move.l 0x1e(a6), -(a7)
           0x00754c7a      4ebae666       jsr MENULIBCOM.new_box_id(pc)
           0x00754c7e      dec6           adda.w d6, a7
           0x00754c80      3e90           move.w (a0), (a7)
           0x00754c82      4eb90048dc5a   jsr MENU2COM.make_date_box
           0x00754c88      544f           addq.w 0x2, a7
           0x00754c8a      2f3a89a2       move.l 0x74d62e(pc), -(a7)
           0x00754c8e      3f3a899c       move.w 0x74d62c(pc), -(a7)
           0x00754c92      48680002       pea.l 0x2(a0)
           0x00754c96      3f05           move.w d5, -(a7)
           0x00754c98      3f03           move.w d3, -(a7)
           0x00754c9a      3f3c000c       move.w 0xc, -(a7)
           0x00754c9e      3f01           move.w d1, -(a7)
           0x00754ca0      1f3c0011       move.b 0x11, -(a7)
           0x00754ca4      1f03           move.b d3, -(a7)
           0x00754ca6      3f2efffe       move.w -0x2(a6), -(a7)
           0x00754caa      3f10           move.w (a0), -(a7)
           0x00754cac      2f13           move.l (a3), -(a7)
           0x00754cae      486f0018       pea.l 0x18(a7)
           0x00754cb2      4854           pea.l (a4)
           0x00754cb4      48780006       pea.l 0x6
           0x00754cb8      2f2e0014       move.l 0x14(a6), -(a7)
           0x00754cbc      2f2e0010       move.l 0x10(a6), -(a7)
           0x00754cc0      2f2e001e       move.l 0x1e(a6), -(a7)
           0x00754cc4      4ebae61c       jsr MENULIBCOM.new_box_id(pc)
           0x00754cc8      dec6           adda.w d6, a7
           0x00754cca      3ea80002       move.w 0x2(a0), (a7)
           0x00754cce      4eb90048dc5a   jsr MENU2COM.make_date_box
           0x00754cd4      594f           subq.w 0x4, a7
           0x00754cd6      224f           movea.l a7, a1
           0x00754cd8      45fa8959       lea.l 0x74d633(pc), a2
           0x00754cdc      7005           moveq 0x5, d0
       > 0x00754cde      12da           move.b (a2)+, (a1)+
       < 0x00754ce0      51c8fffc       dbra d0, 0x754cde
           0x00754ce4      48680004       pea.l 0x4(a0)
           0x00754ce8      3f05           move.w d5, -(a7)
           0x00754cea      3f02           move.w d2, -(a7)
           0x00754cec      3f3c0004       move.w 0x4, -(a7)
           0x00754cf0      3f01           move.w d1, -(a7)
           0x00754cf2      1f04           move.b d4, -(a7)
           0x00754cf4      4227           clr.b -(a7)
           0x00754cf6      3f2efffe       move.w -0x2(a6), -(a7)
           0x00754cfa      4267           clr.w -(a7)
           0x00754cfc      2f13           move.l (a3), -(a7)
           0x00754cfe      486f0018       pea.l 0x18(a7)
           0x00754d02      4854           pea.l (a4)
           0x00754d04      48780006       pea.l 0x6
           0x00754d08      2f2e000c       move.l 0xc(a6), -(a7)
           0x00754d0c      2f2e0008       move.l 0x8(a6), -(a7)
           0x00754d10      2f2e001e       move.l 0x1e(a6), -(a7)
           0x00754d14      4ebae5cc       jsr MENULIBCOM.new_box_id(pc)
           0x00754d18      defc0030       adda.w 0x30, a7
           0x00754d1c      2eba891c       move.l 0x74d63a(pc), (a7)
           0x00754d20      1f7a891c0004   move.b 0x74d63e(pc), 0x4(a7)
           0x00754d26      48680006       pea.l 0x6(a0)
           0x00754d2a      3f3c0012       move.w 0x12, -(a7)
           0x00754d2e      3f02           move.w d2, -(a7)
           0x00754d30      3f02           move.w d2, -(a7)
           0x00754d32      3f01           move.w d1, -(a7)
           0x00754d34      1f04           move.b d4, -(a7)
           0x00754d36      4227           clr.b -(a7)
           0x00754d38      3f2efffe       move.w -0x2(a6), -(a7)
           0x00754d3c      4267           clr.w -(a7)
           0x00754d3e      2f13           move.l (a3), -(a7)
           0x00754d40      486f0018       pea.l 0x18(a7)
           0x00754d44      4854           pea.l (a4)
           0x00754d46      48780005       pea.l 0x5
           0x00754d4a      2f2e000c       move.l 0xc(a6), -(a7)
           0x00754d4e      2f2e0008       move.l 0x8(a6), -(a7)
           0x00754d52      2f2e001e       move.l 0x1e(a6), -(a7)
           0x00754d56      5297           addq.l 0x1, (a7)
           0x00754d58      4ebae588       jsr MENULIBCOM.new_box_id(pc)
           0x00754d5c      dec7           adda.w d7, a7
           0x00754d5e      2eba88e0       move.l 0x74d640(pc), (a7)
           0x00754d62      3f7a88e00004   move.w 0x74d644(pc), 0x4(a7)
           0x00754d68      1f7a88dc0006   move.b 0x74d646(pc), 0x6(a7)
           0x00754d6e      48680008       pea.l 0x8(a0)
           0x00754d72      3f3c0015       move.w 0x15, -(a7)
           0x00754d76      3f02           move.w d2, -(a7)
           0x00754d78      3f02           move.w d2, -(a7)
           0x00754d7a      3f01           move.w d1, -(a7)
           0x00754d7c      1f04           move.b d4, -(a7)
           0x00754d7e      4227           clr.b -(a7)
           0x00754d80      3f2efffe       move.w -0x2(a6), -(a7)
           0x00754d84      4267           clr.w -(a7)
           0x00754d86      2f13           move.l (a3), -(a7)
           0x00754d88      486f0018       pea.l 0x18(a7)
           0x00754d8c      4854           pea.l (a4)
           0x00754d8e      48780007       pea.l 0x7
           0x00754d92      2f2e000c       move.l 0xc(a6), -(a7)
           0x00754d96      2f2e0008       move.l 0x8(a6), -(a7)
           0x00754d9a      7002           moveq 0x2, d0
           0x00754d9c      d0ae001e       add.l 0x1e(a6), d0
           0x00754da0      2f00           move.l d0, -(a7)
           0x00754da2      4ebae53e       jsr MENULIBCOM.new_box_id(pc)
           0x00754da6      dec6           adda.w d6, a7
           0x00754da8      3eba889e       move.w 0x74d648(pc), (a7)
           0x00754dac      1f7a889c0002   move.b 0x74d64a(pc), 0x2(a7)
           0x00754db2      4868000a       pea.l 0xa(a0)
           0x00754db6      3f3c0018       move.w 0x18, -(a7)
           0x00754dba      3f02           move.w d2, -(a7)
           0x00754dbc      3f03           move.w d3, -(a7)
           0x00754dbe      3f01           move.w d1, -(a7)
           0x00754dc0      1f04           move.b d4, -(a7)
           0x00754dc2      4227           clr.b -(a7)
           0x00754dc4      3f2efffe       move.w -0x2(a6), -(a7)
           0x00754dc8      4267           clr.w -(a7)
           0x00754dca      2f13           move.l (a3), -(a7)
           0x00754dcc      486f0018       pea.l 0x18(a7)
           0x00754dd0      4854           pea.l (a4)
           0x00754dd2      48780003       pea.l 0x3
           0x00754dd6      2f2e000c       move.l 0xc(a6), -(a7)
           0x00754dda      2f2e0008       move.l 0x8(a6), -(a7)
           0x00754dde      7003           moveq 0x3, d0
           0x00754de0      d0ae001e       add.l 0x1e(a6), d0
           0x00754de4      2f00           move.l d0, -(a7)
           0x00754de6      4ebae4fa       jsr MENULIBCOM.new_box_id(pc)
           0x00754dea      dec7           adda.w d7, a7
           0x00754dec      2eba885e       move.l 0x74d64c(pc), (a7)
           0x00754df0      1f7a885e0004   move.b 0x74d650(pc), 0x4(a7)
           0x00754df6      4868000e       pea.l 0xe(a0)
           0x00754dfa      3f05           move.w d5, -(a7)
           0x00754dfc      3f01           move.w d1, -(a7)
           0x00754dfe      3f3c000c       move.w 0xc, -(a7)
           0x00754e02      3f01           move.w d1, -(a7)
           0x00754e04      1f3c0011       move.b 0x11, -(a7)
           0x00754e08      1f03           move.b d3, -(a7)
           0x00754e0a      3f28000c       move.w 0xc(a0), -(a7)
           0x00754e0e      4267           clr.w -(a7)
           0x00754e10      2f13           move.l (a3), -(a7)
           0x00754e12      486f0018       pea.l 0x18(a7)
           0x00754e16      4854           pea.l (a4)
           0x00754e18      48780005       pea.l 0x5
           0x00754e1c      2f2e0014       move.l 0x14(a6), -(a7)
           0x00754e20      2f2e0010       move.l 0x10(a6), -(a7)
           0x00754e24      2f2e001e       move.l 0x1e(a6), -(a7)
           0x00754e28      4ebae4b8       jsr MENULIBCOM.new_box_id(pc)
           0x00754e2c      dec6           adda.w d6, a7
           0x00754e2e      3ea8000e       move.w 0xe(a0), (a7)
           0x00754e32      4eb90048dc5a   jsr MENU2COM.make_date_box
           0x00754e38      554f           subq.w 0x2, a7
           0x00754e3a      2f3a8816       move.l 0x74d652(pc), -(a7)
           0x00754e3e      3f7a88160004   move.w 0x74d656(pc), 0x4(a7)
           0x00754e44      1f7a88120006   move.b 0x74d658(pc), 0x6(a7)
           0x00754e4a      48680012       pea.l 0x12(a0)
           0x00754e4e      3f3c0014       move.w 0x14, -(a7)
           0x00754e52      3f03           move.w d3, -(a7)
           0x00754e54      3f02           move.w d2, -(a7)
           0x00754e56      3f01           move.w d1, -(a7)
           0x00754e58      1f04           move.b d4, -(a7)
           0x00754e5a      4227           clr.b -(a7)
           0x00754e5c      3f28000c       move.w 0xc(a0), -(a7)
           0x00754e60      4267           clr.w -(a7)
           0x00754e62      2f13           move.l (a3), -(a7)
           0x00754e64      486f0018       pea.l 0x18(a7)
           0x00754e68      4854           pea.l (a4)
           0x00754e6a      48780007       pea.l 0x7
           0x00754e6e      2f2e000c       move.l 0xc(a6), -(a7)
           0x00754e72      2f2e0008       move.l 0x8(a6), -(a7)
           0x00754e76      2f2e001e       move.l 0x1e(a6), -(a7)
           0x00754e7a      5497           addq.l 0x2, (a7)
           0x00754e7c      4ebae464       jsr MENULIBCOM.new_box_id(pc)
           0x00754e80      defc0032       adda.w 0x32, a7
           0x00754e84      2eba87d4       move.l 0x74d65a(pc), (a7)
           0x00754e88      1f7a87d40004   move.b 0x74d65e(pc), 0x4(a7)
           0x00754e8e      48680010       pea.l 0x10(a0)
           0x00754e92      3f3c0017       move.w 0x17, -(a7)
           0x00754e96      3f03           move.w d3, -(a7)
           0x00754e98      3f02           move.w d2, -(a7)
           0x00754e9a      3f01           move.w d1, -(a7)
           0x00754e9c      1f04           move.b d4, -(a7)
           0x00754e9e      4227           clr.b -(a7)
           0x00754ea0      3f28000c       move.w 0xc(a0), -(a7)
           0x00754ea4      4267           clr.w -(a7)
           0x00754ea6      2f13           move.l (a3), -(a7)
           0x00754ea8      486f0018       pea.l 0x18(a7)
           0x00754eac      4854           pea.l (a4)
           0x00754eae      48780005       pea.l 0x5
           0x00754eb2      2f2e000c       move.l 0xc(a6), -(a7)
           0x00754eb6      2f2e0008       move.l 0x8(a6), -(a7)
           0x00754eba      2f2e001e       move.l 0x1e(a6), -(a7)
           0x00754ebe      5697           addq.l 0x3, (a7)
           0x00754ec0      4ebae420       jsr MENULIBCOM.new_box_id(pc)
           0x00754ec4      defc0036       adda.w 0x36, a7
           0x00754ec8      4cdf1fff       movem.l (a7)+, d0-d7/a0-a4
           0x00754ecc      4e5e           unlk a6
           0x00754ece      4e75           rts
            ; CALL XREF from MENULIBCOM.define_skls_inp @ 0x7555ac
            ; CALL XREF from fcn.0075624c @ 0x756510
 268: MENULIBCOM.define_date_box ();
           0x00754ed0      4e56ff94       link.w a6, 0xff94
           0x00754ed4      bfd5           cmpa.l (a5), a7
       < 0x00754ed6      6206           bhi.b 0x754ede
          0x00754ed8      44fc0002       move.w 0x2, ccr
          0x00754edc      4e76           trapv
       > 0x00754ede      defc006c       adda.w 0x6c, a7
           0x00754ee2      48e7f8f8       movem.l d0-d4/a0-a4, -(a7)
           0x00754ee6      47fa8030       lea.l 0x74cf18(pc), a3
           0x00754eea      49f80001       lea.l 0x1, a4
           0x00754eee      7201           moveq 0x1, d1
           0x00754ef0      7402           moveq 0x2, d2
           0x00754ef2      7603           moveq 0x3, d3
           0x00754ef4      7805           moveq 0x5, d4
           0x00754ef6      206e0028       movea.l 0x28(a6), a0
           0x00754efa      226e002c       movea.l 0x2c(a6), a1
           0x00754efe      2f3a8762       move.l 0x74d662(pc), -(a7)
           0x00754f02      3f3a875c       move.w 0x74d660(pc), -(a7)
           0x00754f06      4850           pea.l (a0)
           0x00754f08      3f3c000e       move.w 0xe, -(a7)
           0x00754f0c      3f01           move.w d1, -(a7)
           0x00754f0e      3f3c000c       move.w 0xc, -(a7)
           0x00754f12      3f01           move.w d1, -(a7)
           0x00754f14      1f3c0011       move.b 0x11, -(a7)
           0x00754f18      1f02           move.b d2, -(a7)
           0x00754f1a      3f11           move.w (a1), -(a7)
           0x00754f1c      4267           clr.w -(a7)
           0x00754f1e      2f13           move.l (a3), -(a7)
           0x00754f20      486f0018       pea.l 0x18(a7)
           0x00754f24      4854           pea.l (a4)
           0x00754f26      48780006       pea.l 0x6
           0x00754f2a      2f2e001c       move.l 0x1c(a6), -(a7)
           0x00754f2e      2f2e0018       move.l 0x18(a6), -(a7)
           0x00754f32      2f2e0030       move.l 0x30(a6), -(a7)
           0x00754f36      4ebae3aa       jsr MENULIBCOM.new_box_id(pc)
           0x00754f3a      defc0034       adda.w 0x34, a7
           0x00754f3e      3e90           move.w (a0), (a7)
           0x00754f40      4eb90048dc5a   jsr MENU2COM.make_date_box
           0x00754f46      5d4f           subq.w 0x6, a7
           0x00754f48      204f           movea.l a7, a0
           0x00754f4a      45fa871b       lea.l 0x74d667(pc), a2
           0x00754f4e      7006           moveq 0x6, d0
       > 0x00754f50      10da           move.b (a2)+, (a0)+
       < 0x00754f52      51c8fffc       dbra d0, 0x754f50
           0x00754f56      206e0024       movea.l 0x24(a6), a0
           0x00754f5a      4850           pea.l (a0)
           0x00754f5c      3f3c0014       move.w 0x14, -(a7)
           0x00754f60      3f02           move.w d2, -(a7)
           0x00754f62      3f03           move.w d3, -(a7)
           0x00754f64      3f01           move.w d1, -(a7)
           0x00754f66      1f04           move.b d4, -(a7)
           0x00754f68      4227           clr.b -(a7)
           0x00754f6a      3f11           move.w (a1), -(a7)
           0x00754f6c      4267           clr.w -(a7)
           0x00754f6e      2f13           move.l (a3), -(a7)
           0x00754f70      486f0018       pea.l 0x18(a7)
           0x00754f74      4854           pea.l (a4)
           0x00754f76      48780007       pea.l 0x7
           0x00754f7a      2f2e0014       move.l 0x14(a6), -(a7)
           0x00754f7e      2f2e0010       move.l 0x10(a6), -(a7)
           0x00754f82      2f2e0030       move.l 0x30(a6), -(a7)
           0x00754f86      4ebae35a       jsr MENULIBCOM.new_box_id(pc)
           0x00754f8a      defc0032       adda.w 0x32, a7
           0x00754f8e      204f           movea.l a7, a0
           0x00754f90      45fa86dd       lea.l 0x74d66f(pc), a2
           0x00754f94      7004           moveq 0x4, d0
       > 0x00754f96      10da           move.b (a2)+, (a0)+
       < 0x00754f98      51c8fffc       dbra d0, 0x754f96
           0x00754f9c      206e0020       movea.l 0x20(a6), a0
           0x00754fa0      4850           pea.l (a0)
           0x00754fa2      3f3c0017       move.w 0x17, -(a7)
           0x00754fa6      3f02           move.w d2, -(a7)
           0x00754fa8      3f03           move.w d3, -(a7)
           0x00754faa      3f01           move.w d1, -(a7)
           0x00754fac      1f04           move.b d4, -(a7)
           0x00754fae      4227           clr.b -(a7)
           0x00754fb0      3f11           move.w (a1), -(a7)
           0x00754fb2      4267           clr.w -(a7)
           0x00754fb4      2f13           move.l (a3), -(a7)
           0x00754fb6      486f0018       pea.l 0x18(a7)
           0x00754fba      4854           pea.l (a4)
           0x00754fbc      48780005       pea.l 0x5
           0x00754fc0      2f2e000c       move.l 0xc(a6), -(a7)
           0x00754fc4      2f2e0008       move.l 0x8(a6), -(a7)
           0x00754fc8      2f2e0030       move.l 0x30(a6), -(a7)
           0x00754fcc      4ebae314       jsr MENULIBCOM.new_box_id(pc)
           0x00754fd0      defc0036       adda.w 0x36, a7
           0x00754fd4      4cdf1f1f       movem.l (a7)+, d0-d4/a0-a4
           0x00754fd8      4e5e           unlk a6
           0x00754fda      4e75           rts
            ; CALL XREF from fcn.007560ee @ 0x75617a
 206: fcn.00754fdc ();
           0x00754fdc      4e56ffaa       link.w a6, 0xffaa
           0x00754fe0      bfd5           cmpa.l (a5), a7
       < 0x00754fe2      6206           bhi.b 0x754fea
          0x00754fe4      44fc0002       move.w 0x2, ccr
          0x00754fe8      4e76           trapv
       > 0x00754fea      defc0056       adda.w 0x56, a7
           0x00754fee      48e7c0e0       movem.l d0-d1/a0-a2, -(a7)
           0x00754ff2      45f80001       lea.l 0x1, a2
           0x00754ff6      7205           moveq 0x5, d1
           0x00754ff8      102e0008       move.b 0x8(a6), d0
           0x00754ffc      4880           ext.w d0
           0x00754ffe      c1fc05d4       muls.w 0x5d4, d0
           0x00755002      41f90086d27a   lea.l 0x86d27a, a0
           0x00755008      594f           subq.w 0x4, a7
           0x0075500a      1eba8669       move.b 0x74d675(pc), (a7)
           0x0075500e      1f7a86660001   move.b 0x74d676(pc), 0x1(a7)
           0x00755014      1f7a86610002   move.b 0x74d677(pc), 0x2(a7)
           0x0075501a      1f7a865c0003   move.b 0x74d678(pc), 0x3(a7)
           0x00755020      43f00046       lea.l 0x46(a0, d0.w), a1
           0x00755024      48690092       pea.l 0x92(a1)
           0x00755028      4267           clr.w -(a7)
           0x0075502a      4267           clr.w -(a7)
           0x0075502c      4267           clr.w -(a7)
           0x0075502e      4267           clr.w -(a7)
           0x00755030      1f01           move.b d1, -(a7)
           0x00755032      4227           clr.b -(a7)
           0x00755034      3f300046       move.w 0x46(a0, d0.w), -(a7)
           0x00755038      4267           clr.w -(a7)
           0x0075503a      2f390074cf18   move.l 0x74cf18, -(a7)
           0x00755040      486f0018       pea.l 0x18(a7)
           0x00755044      4852           pea.l (a2)
           0x00755046      48780004       pea.l 0x4
           0x0075504a      486d0010       pea.l 0x10(a5)
           0x0075504e      487ac976       pea.l MENULIBCOM.hit_retitle_tab(pc)
           0x00755052      4852           pea.l (a2)
           0x00755054      4ebae28c       jsr MENULIBCOM.new_box_id(pc)
           0x00755058      defc0030       adda.w 0x30, a7
           0x0075505c      2eba8620       move.l 0x74d67e(pc), (a7)
           0x00755060      2f3a8618       move.l 0x74d67a(pc), -(a7)
           0x00755064      43f00046       lea.l 0x46(a0, d0.w), a1
           0x00755068      48690090       pea.l 0x90(a1)
           0x0075506c      4267           clr.w -(a7)
           0x0075506e      4267           clr.w -(a7)
           0x00755070      4267           clr.w -(a7)
           0x00755072      4267           clr.w -(a7)
           0x00755074      1f01           move.b d1, -(a7)
           0x00755076      4227           clr.b -(a7)
           0x00755078      3f300046       move.w 0x46(a0, d0.w), -(a7)
           0x0075507c      4267           clr.w -(a7)
           0x0075507e      2f390074cf18   move.l 0x74cf18, -(a7)
           0x00755084      486f0018       pea.l 0x18(a7)
           0x00755088      4852           pea.l (a2)
           0x0075508a      48780008       pea.l 0x8
           0x0075508e      486d0010       pea.l 0x10(a5)
           0x00755092      487ac932       pea.l MENULIBCOM.hit_retitle_tab(pc)
           0x00755096      48780000       pea.l 0x0
           0x0075509a      4ebae246       jsr MENULIBCOM.new_box_id(pc)
           0x0075509e      defc0038       adda.w 0x38, a7
           0x007550a2      4cdf0703       movem.l (a7)+, d0-d1/a0-a2
           0x007550a6      4e5e           unlk a6
           0x007550a8      4e75           rts
            ; CALL XREF from MENULIBCOM.define_skls_box @ 0x755c90
 312: MENULIBCOM.define_skls_str ();
           0x007550aa      4e56ff82       link.w a6, 0xff82
           0x007550ae      bfd5           cmpa.l (a5), a7
       < 0x007550b0      6206           bhi.b 0x7550b8
          0x007550b2      44fc0002       move.w 0x2, ccr
          0x007550b6      4e76           trapv
       > 0x007550b8      defc007e       adda.w 0x7e, a7
           0x007550bc      48e7fff8       movem.l d0-d7/a0-a4, -(a7)
           0x007550c0      45ee0010       lea.l 0x10(a6), a2
           0x007550c4      47f90074cf18   lea.l 0x74cf18, a3
           0x007550ca      49f80001       lea.l 0x1, a4
           0x007550ce      7801           moveq 0x1, d4
           0x007550d0      7a0a           moveq 0xa, d5
           0x007550d2      7c04           moveq 0x4, d6
           0x007550d4      7e34           moveq 0x34, d7
           0x007550d6      102e001a       move.b 0x1a(a6), d0
           0x007550da      4880           ext.w d0
           0x007550dc      c1fc05d4       muls.w 0x5d4, d0
           0x007550e0      41f90086d27a   lea.l 0x86d27a, a0
           0x007550e6      122e0018       move.b 0x18(a6), d1
           0x007550ea      4881           ext.w d1
           0x007550ec      740e           moveq 0xe, d2
           0x007550ee      c5c1           muls.w d1, d2
           0x007550f0      43f00046       lea.l 0x46(a0, d0.w), a1
           0x007550f4      3601           move.w d1, d3
           0x007550f6      e343           asl.w 0x1, d3
           0x007550f8      594f           subq.w 0x4, a7
           0x007550fa      1eba8587       move.b 0x74d683(pc), (a7)
           0x007550fe      1f7a85840001   move.b 0x74d684(pc), 0x1(a7)
           0x00755104      1f7a857f0002   move.b 0x74d685(pc), 0x2(a7)
           0x0075510a      1f7a857a0003   move.b 0x74d686(pc), 0x3(a7)
           0x00755110      48712016       pea.l 0x16(a1, d2.w)
           0x00755114      3f05           move.w d5, -(a7)
           0x00755116      3f04           move.w d4, -(a7)
           0x00755118      3f06           move.w d6, -(a7)
           0x0075511a      3f04           move.w d4, -(a7)
           0x0075511c      1f12           move.b (a2), -(a7)
           0x0075511e      4227           clr.b -(a7)
           0x00755120      3f31300c       move.w 0xc(a1, d3.w), -(a7)
           0x00755124      3f2e0012       move.w 0x12(a6), -(a7)
           0x00755128      2f13           move.l (a3), -(a7)
           0x0075512a      486f0018       pea.l 0x18(a7)
           0x0075512e      4854           pea.l (a4)
           0x00755130      48780004       pea.l 0x4
           0x00755134      2f2e000c       move.l 0xc(a6), -(a7)
           0x00755138      2f2e0008       move.l 0x8(a6), -(a7)
           0x0075513c      2f2e0014       move.l 0x14(a6), -(a7)
           0x00755140      4ebae1a0       jsr MENULIBCOM.new_box_id(pc)
           0x00755144      dec7           adda.w d7, a7
           0x00755146      033a8540       btst.l d1, 0x74d688(pc)
       < 0x0075514a      670c           beq.b 0x755158
          0x0075514c      3f312016       move.w 0x16(a1, d2.w), -(a7)
          0x00755150      4eb900481d90   jsr MENUCOM.swtch_on_box
          0x00755156      544f           addq.w 0x2, a7
       > 0x00755158      554f           subq.w 0x2, a7
           0x0075515a      2f3a852e       move.l 0x74d68a(pc), -(a7)
           0x0075515e      1f7a852e0004   move.b 0x74d68e(pc), 0x4(a7)
           0x00755164      4871201a       pea.l 0x1a(a1, d2.w)
           0x00755168      3f05           move.w d5, -(a7)
           0x0075516a      3f3c0003       move.w 0x3, -(a7)
           0x0075516e      3f06           move.w d6, -(a7)
           0x00755170      3f04           move.w d4, -(a7)
           0x00755172      1f12           move.b (a2), -(a7)
           0x00755174      4227           clr.b -(a7)
           0x00755176      3f31300c       move.w 0xc(a1, d3.w), -(a7)
           0x0075517a      3f312016       move.w 0x16(a1, d2.w), -(a7)
           0x0075517e      2f13           move.l (a3), -(a7)
           0x00755180      486f0018       pea.l 0x18(a7)
           0x00755184      4854           pea.l (a4)
           0x00755186      48780005       pea.l 0x5
           0x0075518a      2f2e000c       move.l 0xc(a6), -(a7)
           0x0075518e      2f2e0008       move.l 0x8(a6), -(a7)
           0x00755192      2f2e0014       move.l 0x14(a6), -(a7)
           0x00755196      4ebae14a       jsr MENULIBCOM.new_box_id(pc)
           0x0075519a      defc0032       adda.w 0x32, a7
           0x0075519e      2eba84f0       move.l 0x74d690(pc), (a7)
           0x007551a2      48712018       pea.l 0x18(a1, d2.w)
           0x007551a6      3f05           move.w d5, -(a7)
           0x007551a8      3f3c0005       move.w 0x5, -(a7)
           0x007551ac      3f06           move.w d6, -(a7)
           0x007551ae      3f04           move.w d4, -(a7)
           0x007551b0      1f12           move.b (a2), -(a7)
           0x007551b2      4227           clr.b -(a7)
           0x007551b4      3f31300c       move.w 0xc(a1, d3.w), -(a7)
           0x007551b8      3f31201a       move.w 0x1a(a1, d2.w), -(a7)
           0x007551bc      2f13           move.l (a3), -(a7)
           0x007551be      486f0018       pea.l 0x18(a7)
           0x007551c2      4854           pea.l (a4)
           0x007551c4      48780004       pea.l 0x4
           0x007551c8      2f2e000c       move.l 0xc(a6), -(a7)
           0x007551cc      2f2e0008       move.l 0x8(a6), -(a7)
           0x007551d0      2f2e0014       move.l 0x14(a6), -(a7)
           0x007551d4      4ebae10c       jsr MENULIBCOM.new_box_id(pc)
           0x007551d8      dec7           adda.w d7, a7
           0x007551da      4cdf1fff       movem.l (a7)+, d0-d7/a0-a4
           0x007551de      4e5e           unlk a6
           0x007551e0      4e75           rts
            ; CALL XREF from MENULIBCOM.define_skls_box @ 0x755bce
 226: MENULIBCOM.define_skls_tab ();
           0x007551e2      4e56ff98       link.w a6, 0xff98
           0x007551e6      bfd5           cmpa.l (a5), a7
       < 0x007551e8      6206           bhi.b 0x7551f0
          0x007551ea      44fc0002       move.w 0x2, ccr
          0x007551ee      4e76           trapv
       > 0x007551f0      defc0068       adda.w 0x68, a7
           0x007551f4      48e7f0e0       movem.l d0-d3/a0-a2, -(a7)
           0x007551f8      7605           moveq 0x5, d3
           0x007551fa      102e000e       move.b 0xe(a6), d0
           0x007551fe      4880           ext.w d0
           0x00755200      c1fc05d4       muls.w 0x5d4, d0
           0x00755204      41f90086d27a   lea.l 0x86d27a, a0
           0x0075520a      122e000c       move.b 0xc(a6), d1
           0x0075520e      4881           ext.w d1
           0x00755210      3401           move.w d1, d2
           0x00755212      e542           asl.w 0x2, d2
           0x00755214      43f00046       lea.l 0x46(a0, d0.w), a1
           0x00755218      e341           asl.w 0x1, d1
           0x0075521a      594f           subq.w 0x4, a7
           0x0075521c      1eba8477       move.b 0x74d695(pc), (a7)
           0x00755220      1f7a84740001   move.b 0x74d696(pc), 0x1(a7)
           0x00755226      1f7a846f0002   move.b 0x74d697(pc), 0x2(a7)
           0x0075522c      1f7a846a0003   move.b 0x74d698(pc), 0x3(a7)
           0x00755232      45f12000       lea.l (a1, d2.w), a2
           0x00755236      486a0082       pea.l 0x82(a2)
           0x0075523a      4267           clr.w -(a7)
           0x0075523c      4267           clr.w -(a7)
           0x0075523e      4267           clr.w -(a7)
           0x00755240      4267           clr.w -(a7)
           0x00755242      1f03           move.b d3, -(a7)
           0x00755244      4227           clr.b -(a7)
           0x00755246      3f31100c       move.w 0xc(a1, d1.w), -(a7)
           0x0075524a      4267           clr.w -(a7)
           0x0075524c      2f390074cf18   move.l 0x74cf18, -(a7)
           0x00755252      486f0018       pea.l 0x18(a7)
           0x00755256      48780001       pea.l 0x1
           0x0075525a      48780004       pea.l 0x4
           0x0075525e      486d0010       pea.l 0x10(a5)
           0x00755262      487ac68e       pea.l MENULIBCOM.hit_skls_tab(pc)
           0x00755266      2f2e0008       move.l 0x8(a6), -(a7)
           0x0075526a      5297           addq.l 0x1, (a7)
           0x0075526c      4ebae074       jsr MENULIBCOM.new_box_id(pc)
           0x00755270      defc0030       adda.w 0x30, a7
           0x00755274      2eba8428       move.l 0x74d69e(pc), (a7)
           0x00755278      2f3a8420       move.l 0x74d69a(pc), -(a7)
           0x0075527c      45f12000       lea.l (a1, d2.w), a2
           0x00755280      486a0080       pea.l 0x80(a2)
           0x00755284      4267           clr.w -(a7)
           0x00755286      4267           clr.w -(a7)
           0x00755288      4267           clr.w -(a7)
           0x0075528a      4267           clr.w -(a7)
           0x0075528c      1f03           move.b d3, -(a7)
           0x0075528e      4227           clr.b -(a7)
           0x00755290      3f31100c       move.w 0xc(a1, d1.w), -(a7)
           0x00755294      4267           clr.w -(a7)
           0x00755296      2f390074cf18   move.l 0x74cf18, -(a7)
           0x0075529c      486f0018       pea.l 0x18(a7)
           0x007552a0      48780001       pea.l 0x1
           0x007552a4      48780008       pea.l 0x8
           0x007552a8      486d0010       pea.l 0x10(a5)
           0x007552ac      487ac644       pea.l MENULIBCOM.hit_skls_tab(pc)
           0x007552b0      2f2e0008       move.l 0x8(a6), -(a7)
           0x007552b4      4ebae02c       jsr MENULIBCOM.new_box_id(pc)
           0x007552b8      defc0038       adda.w 0x38, a7
           0x007552bc      4cdf070f       movem.l (a7)+, d0-d3/a0-a2
           0x007552c0      4e5e           unlk a6
           0x007552c2      4e75           rts
            ; CALL XREFS from MENULIBCOM.init_boxes @ 0x756c54, 0x756c74, 0x756c96, 0x756cb8
 1340: MENULIBCOM.define_skls_inp ();
           0x007552c4      4e56fd92       link.w a6, 0xfd92
           0x007552c8      bfd5           cmpa.l (a5), a7
       < 0x007552ca      6206           bhi.b 0x7552d2
          0x007552cc      44fc0002       move.w 0x2, ccr
          0x007552d0      4e76           trapv
       > 0x007552d2      defc016a       adda.w 0x16a, a7
           0x007552d6      48e7fff8       movem.l d0-d7/a0-a4, -(a7)
           0x007552da      7c01           moveq 0x1, d6
           0x007552dc      594f           subq.w 0x4, a7
           0x007552de      1f2e0008       move.b 0x8(a6), -(a7)
           0x007552e2      4eba8ee6       jsr MENULIBCOM.mask(pc)
           0x007552e6      544f           addq.w 0x2, a7
           0x007552e8      2e1f           move.l (a7)+, d7
           0x007552ea      102e000c       move.b 0xc(a6), d0
           0x007552ee      4880           ext.w d0
           0x007552f0      323c05d4       move.w 0x5d4, d1
           0x007552f4      c3c0           muls.w d0, d1
           0x007552f6      41f90086d27a   lea.l 0x86d27a, a0
           0x007552fc      142e0008       move.b 0x8(a6), d2
           0x00755300      4882           ext.w d2
           0x00755302      7618           moveq 0x18, d3
           0x00755304      c7c2           muls.w d2, d3
           0x00755306      43f01046       lea.l 0x46(a0, d1.w), a1
           0x0075530a      45f13000       lea.l (a1, d3.w), a2
           0x0075530e      3602           move.w d2, d3
           0x00755310      e343           asl.w 0x1, d3
           0x00755312      9efc000a       suba.w 0xa, a7
           0x00755316      264f           movea.l a7, a3
           0x00755318      41fa8389       lea.l 0x74d6a3(pc), a0
           0x0075531c      7809           moveq 0x9, d4
       > 0x0075531e      16d8           move.b (a0)+, (a3)+
       < 0x00755320      51ccfffc       dbra d4, 0x75531e
           0x00755324      486a0094       pea.l 0x94(a2)
           0x00755328      4267           clr.w -(a7)
           0x0075532a      4267           clr.w -(a7)
           0x0075532c      4267           clr.w -(a7)
           0x0075532e      4267           clr.w -(a7)
           0x00755330      1f06           move.b d6, -(a7)
           0x00755332      4227           clr.b -(a7)
           0x00755334      3f31300c       move.w 0xc(a1, d3.w), -(a7)
           0x00755338      4267           clr.w -(a7)
           0x0075533a      2f390074cf18   move.l 0x74cf18, -(a7)
           0x00755340      486f0018       pea.l 0x18(a7)
           0x00755344      48780001       pea.l 0x1
           0x00755348      4878000a       pea.l 0xa
           0x0075534c      486d0010       pea.l 0x10(a5)
           0x00755350      487900481fee   pea.l MENUCOM.hit_nothing
           0x00755356      2f07           move.l d7, -(a7)
           0x00755358      4ebadf88       jsr MENULIBCOM.new_box_id(pc)
           0x0075535c      defc0036       adda.w 0x36, a7
           0x00755360      2eba834e       move.l 0x74d6b0(pc), (a7)
           0x00755364      3f3a8348       move.w 0x74d6ae(pc), -(a7)
           0x00755368      486a009e       pea.l 0x9e(a2)
           0x0075536c      4267           clr.w -(a7)
           0x0075536e      4267           clr.w -(a7)
           0x00755370      4267           clr.w -(a7)
           0x00755372      4267           clr.w -(a7)
           0x00755374      1f06           move.b d6, -(a7)
           0x00755376      4227           clr.b -(a7)
           0x00755378      3f31300c       move.w 0xc(a1, d3.w), -(a7)
           0x0075537c      3f2a0094       move.w 0x94(a2), -(a7)
           0x00755380      2f390074cf18   move.l 0x74cf18, -(a7)
           0x00755386      486f0018       pea.l 0x18(a7)
           0x0075538a      48780001       pea.l 0x1
           0x0075538e      48780006       pea.l 0x6
           0x00755392      486d0010       pea.l 0x10(a5)
           0x00755396      487900481fee   pea.l MENUCOM.hit_nothing
           0x0075539c      2f07           move.l d7, -(a7)
           0x0075539e      4ebadf42       jsr MENULIBCOM.new_box_id(pc)
           0x007553a2      defc0034       adda.w 0x34, a7
           0x007553a6      3eaa009e       move.w 0x9e(a2), (a7)
           0x007553aa      3f390086d2b4   move.w 0x86d2b4, -(a7)
           0x007553b0      4eb900486f94   jsr MENUCOM.add_slave
           0x007553b6      544f           addq.w 0x2, a7
           0x007553b8      1e80           move.b d0, (a7)
           0x007553ba      1f02           move.b d2, -(a7)
           0x007553bc      2f07           move.l d7, -(a7)
           0x007553be      1f2e000a       move.b 0xa(a6), -(a7)
           0x007553c2      3f2a009e       move.w 0x9e(a2), -(a7)
           0x007553c6      4ebae6cc       jsr MENULIBCOM.define_skls_typ(pc)
           0x007553ca      584f           addq.w 0x4, a7
           0x007553cc      204f           movea.l a7, a0
           0x007553ce      47fa82e5       lea.l 0x74d6b5(pc), a3
           0x007553d2      7807           moveq 0x7, d4
       > 0x007553d4      10db           move.b (a3)+, (a0)+
       < 0x007553d6      51ccfffc       dbra d4, 0x7553d4
           0x007553da      486a00a2       pea.l 0xa2(a2)
           0x007553de      4267           clr.w -(a7)
           0x007553e0      4267           clr.w -(a7)
           0x007553e2      4267           clr.w -(a7)
           0x007553e4      4267           clr.w -(a7)
           0x007553e6      1f06           move.b d6, -(a7)
           0x007553e8      4227           clr.b -(a7)
           0x007553ea      3f31300c       move.w 0xc(a1, d3.w), -(a7)
           0x007553ee      3f2a0094       move.w 0x94(a2), -(a7)
           0x007553f2      2f390074cf18   move.l 0x74cf18, -(a7)
           0x007553f8      486f0018       pea.l 0x18(a7)
           0x007553fc      48780001       pea.l 0x1
           0x00755400      48780008       pea.l 0x8
           0x00755404      486d0010       pea.l 0x10(a5)
           0x00755408      487900481fee   pea.l MENUCOM.hit_nothing
           0x0075540e      2f07           move.l d7, -(a7)
           0x00755410      4ebaded0       jsr MENULIBCOM.new_box_id(pc)
           0x00755414      defc0036       adda.w 0x36, a7
           0x00755418      3eaa00a2       move.w 0xa2(a2), (a7)
           0x0075541c      3f390086d2b4   move.w 0x86d2b4, -(a7)
           0x00755422      4eb900486f94   jsr MENUCOM.add_slave
           0x00755428      584f           addq.w 0x4, a7
           0x0075542a      4a42           tst.w d2
       < 0x0075542c      6612           bne.b 0x755440
          0x0075542e      41eeff00       lea.l -0x100(a6), a0
          0x00755432      47fa8289       lea.l 0x74d6bd(pc), a3
          0x00755436      7805           moveq 0x5, d4
      > 0x00755438      10db           move.b (a3)+, (a0)+
      < 0x0075543a      51ccfffc       dbra d4, 0x755438
      < 0x0075543e      6010           bra.b 0x755450
      > 0x00755440      41eeff00       lea.l -0x100(a6), a0
          0x00755444      47fa827d       lea.l 0x74d6c3(pc), a3
          0x00755448      7804           moveq 0x4, d4
      > 0x0075544a      10db           move.b (a3)+, (a0)+
      < 0x0075544c      51ccfffc       dbra d4, 0x75544a
      > 0x00755450      7830           moveq 0x30, d4
           0x00755452      c9c2           muls.w d2, d4
           0x00755454      2f07           move.l d7, -(a7)
           0x00755456      9efc0100       suba.w 0x100, a7
           0x0075545a      204f           movea.l a7, a0
           0x0075545c      47eeff00       lea.l -0x100(a6), a3
           0x00755460      7a3f           moveq 0x3f, d5
       > 0x00755462      20db           move.l (a3)+, (a0)+
       < 0x00755464      51cdfffc       dbra d5, 0x755462
           0x00755468      3f2a00a2       move.w 0xa2(a2), -(a7)
           0x0075546c      41f14000       lea.l (a1, d4.w), a0
           0x00755470      48680310       pea.l 0x310(a0)
           0x00755474      486d0010       pea.l 0x10(a5)
           0x00755478      487aad70       pea.l MENULIBCOM.hit_skls_drive_(pc)
           0x0075547c      486d0010       pea.l 0x10(a5)
           0x00755480      487900481fee   pea.l MENUCOM.hit_nothing
           0x00755486      4ebaebd0       jsr MENULIBCOM.define_volume_s(pc)
           0x0075548a      defc011a       adda.w 0x11a, a7
           0x0075548e      41f13000       lea.l (a1, d3.w), a0
           0x00755492      2f08           move.l a0, -(a7)
           0x00755494      514f           subq.w 0x8, a7
           0x00755496      264f           movea.l a7, a3
           0x00755498      41fa822f       lea.l 0x74d6c9(pc), a0
           0x0075549c      7806           moveq 0x6, d4
       > 0x0075549e      16d8           move.b (a0)+, (a3)+
       < 0x007554a0      51ccfffc       dbra d4, 0x75549e
           0x007554a4      206f0008       movea.l 0x8(a7), a0
           0x007554a8      48680400       pea.l 0x400(a0)
           0x007554ac      4267           clr.w -(a7)
           0x007554ae      4267           clr.w -(a7)
           0x007554b0      4267           clr.w -(a7)
           0x007554b2      4267           clr.w -(a7)
           0x007554b4      1f3c0002       move.b 0x2, -(a7)
           0x007554b8      4227           clr.b -(a7)
           0x007554ba      4267           clr.w -(a7)
           0x007554bc      4267           clr.w -(a7)
           0x007554be      2f390074cf18   move.l 0x74cf18, -(a7)
           0x007554c4      486f0018       pea.l 0x18(a7)
           0x007554c8      48780001       pea.l 0x1
           0x007554cc      48780007       pea.l 0x7
           0x007554d0      486d0010       pea.l 0x10(a5)
           0x007554d4      487900481fee   pea.l MENUCOM.hit_nothing
           0x007554da      2f07           move.l d7, -(a7)
           0x007554dc      4ebade04       jsr MENULIBCOM.new_box_id(pc)
           0x007554e0      defc0038       adda.w 0x38, a7
           0x007554e4      2057           movea.l (a7), a0
           0x007554e6      3f280400       move.w 0x400(a0), -(a7)
           0x007554ea      1f06           move.b d6, -(a7)
           0x007554ec      4eb900483776   jsr MENUCOM.swtch_box
           0x007554f2      584f           addq.w 0x4, a7
           0x007554f4      781e           moveq 0x1e, d4
           0x007554f6      c9c2           muls.w d2, d4
           0x007554f8      2f07           move.l d7, -(a7)
           0x007554fa      206f0004       movea.l 0x4(a7), a0
           0x007554fe      3f280400       move.w 0x400(a0), -(a7)
           0x00755502      41f14000       lea.l (a1, d4.w), a0
           0x00755506      48680408       pea.l 0x408(a0)
           0x0075550a      486d0010       pea.l 0x10(a5)
           0x0075550e      487aad02       pea.l MENULIBCOM.hit_skls_disk_g(pc)
           0x00755512      4ebaed16       jsr MENULIBCOM.define_disk_gro(pc)
           0x00755516      defc000c       adda.w 0xc, a7
           0x0075551a      204f           movea.l a7, a0
           0x0075551c      47fa81b3       lea.l 0x74d6d1(pc), a3
           0x00755520      7804           moveq 0x4, d4
       > 0x00755522      10db           move.b (a3)+, (a0)+
       < 0x00755524      51ccfffc       dbra d4, 0x755522
           0x00755528      486a00a8       pea.l 0xa8(a2)
           0x0075552c      4267           clr.w -(a7)
           0x0075552e      4267           clr.w -(a7)
           0x00755530      4267           clr.w -(a7)
           0x00755532      4267           clr.w -(a7)
           0x00755534      1f06           move.b d6, -(a7)
           0x00755536      4227           clr.b -(a7)
           0x00755538      3f31300c       move.w 0xc(a1, d3.w), -(a7)
           0x0075553c      3f2a0094       move.w 0x94(a2), -(a7)
           0x00755540      2f390074cf18   move.l 0x74cf18, -(a7)
           0x00755546      486f0018       pea.l 0x18(a7)
           0x0075554a      48780001       pea.l 0x1
           0x0075554e      48780005       pea.l 0x5
           0x00755552      486d0010       pea.l 0x10(a5)
           0x00755556      487900481fee   pea.l MENUCOM.hit_nothing
           0x0075555c      2f07           move.l d7, -(a7)
           0x0075555e      4ebadd82       jsr MENULIBCOM.new_box_id(pc)
           0x00755562      defc0034       adda.w 0x34, a7
           0x00755566      3eaa00a8       move.w 0xa8(a2), (a7)
           0x0075556a      3f390086d2b4   move.w 0x86d2b4, -(a7)
           0x00755570      4eb900486f94   jsr MENUCOM.add_slave
           0x00755576      2e87           move.l d7, (a7)
           0x00755578      486a00a8       pea.l 0xa8(a2)
           0x0075557c      206f0008       movea.l 0x8(a7), a0
           0x00755580      4868059e       pea.l 0x59e(a0)
           0x00755584      206f000c       movea.l 0xc(a7), a0
           0x00755588      486805a6       pea.l 0x5a6(a0)
           0x0075558c      206f0010       movea.l 0x10(a7), a0
           0x00755590      486805ae       pea.l 0x5ae(a0)
           0x00755594      486d0010       pea.l 0x10(a5)
           0x00755598      487a9ba8       pea.l MENULIBCOM.hit_skls_date(pc)
           0x0075559c      486d0010       pea.l 0x10(a5)
           0x007555a0      487aa078       pea.l MENULIBCOM.hit_skls_date_t(pc)
           0x007555a4      486d0010       pea.l 0x10(a5)
           0x007555a8      487aa164       pea.l MENULIBCOM.hit_skls_date_c(pc)
           0x007555ac      4ebaf922       jsr MENULIBCOM.define_date_box(pc)
           0x007555b0      defc0026       adda.w 0x26, a7
           0x007555b4      204f           movea.l a7, a0
           0x007555b6      47fa811f       lea.l 0x74d6d7(pc), a3
           0x007555ba      7804           moveq 0x4, d4
       > 0x007555bc      10db           move.b (a3)+, (a0)+
       < 0x007555be      51ccfffc       dbra d4, 0x7555bc
           0x007555c2      486a00aa       pea.l 0xaa(a2)
           0x007555c6      4267           clr.w -(a7)
           0x007555c8      4267           clr.w -(a7)
           0x007555ca      4267           clr.w -(a7)
           0x007555cc      4267           clr.w -(a7)
           0x007555ce      1f06           move.b d6, -(a7)
           0x007555d0      4227           clr.b -(a7)
           0x007555d2      3f31300c       move.w 0xc(a1, d3.w), -(a7)
           0x007555d6      3f2a0094       move.w 0x94(a2), -(a7)
           0x007555da      2f390074cf18   move.l 0x74cf18, -(a7)
           0x007555e0      486f0018       pea.l 0x18(a7)
           0x007555e4      48780001       pea.l 0x1
           0x007555e8      48780005       pea.l 0x5
           0x007555ec      486d0010       pea.l 0x10(a5)
           0x007555f0      487900481fee   pea.l MENUCOM.hit_nothing
           0x007555f6      2f07           move.l d7, -(a7)
           0x007555f8      4ebadce8       jsr MENULIBCOM.new_box_id(pc)
           0x007555fc      defc0034       adda.w 0x34, a7
           0x00755600      3eaa00aa       move.w 0xaa(a2), (a7)
           0x00755604      3f390086d2b4   move.w 0x86d2b4, -(a7)
           0x0075560a      4eb900486f94   jsr MENUCOM.add_slave
           0x00755610      584f           addq.w 0x4, a7
           0x00755612      c5fc0014       muls.w 0x14, d2
           0x00755616      2f07           move.l d7, -(a7)
           0x00755618      3f2a00aa       move.w 0xaa(a2), -(a7)
           0x0075561c      41f12000       lea.l (a1, d2.w), a0
           0x00755620      48680534       pea.l 0x534(a0)
           0x00755624      486d0010       pea.l 0x10(a5)
           0x00755628      487a988e       pea.l MENULIBCOM.hit_skls_dates(pc)
           0x0075562c      486d0010       pea.l 0x10(a5)
           0x00755630      487a9ca6       pea.l MENULIBCOM.hit_skls_instan(pc)
           0x00755634      4ebaf53e       jsr MENULIBCOM.define_dates_bo(pc)
           0x00755638      defc0012       adda.w 0x12, a7
           0x0075563c      204f           movea.l a7, a0
           0x0075563e      47fa809d       lea.l 0x74d6dd(pc), a3
           0x00755642      7406           moveq 0x6, d2
       > 0x00755644      10db           move.b (a3)+, (a0)+
       < 0x00755646      51cafffc       dbra d2, 0x755644
           0x0075564a      486a0098       pea.l 0x98(a2)
           0x0075564e      4267           clr.w -(a7)
           0x00755650      4267           clr.w -(a7)
           0x00755652      4267           clr.w -(a7)
           0x00755654      4267           clr.w -(a7)
           0x00755656      1f06           move.b d6, -(a7)
           0x00755658      4227           clr.b -(a7)
           0x0075565a      3f31300c       move.w 0xc(a1, d3.w), -(a7)
           0x0075565e      3f2a0094       move.w 0x94(a2), -(a7)
           0x00755662      2f390074cf18   move.l 0x74cf18, -(a7)
           0x00755668      486f0018       pea.l 0x18(a7)
           0x0075566c      48780001       pea.l 0x1
           0x00755670      48780007       pea.l 0x7
           0x00755674      486d0010       pea.l 0x10(a5)
           0x00755678      487900481fee   pea.l MENUCOM.hit_nothing
           0x0075567e      2f07           move.l d7, -(a7)
           0x00755680      4ebadc60       jsr MENULIBCOM.new_box_id(pc)
           0x00755684      defc0036       adda.w 0x36, a7
           0x00755688      3eaa0098       move.w 0x98(a2), (a7)
           0x0075568c      1f3c0009       move.b 0x9, -(a7)
           0x00755690      1f06           move.b d6, -(a7)
           0x00755692      4eb900486936   jsr MENUCOM.set_menu_flag
           0x00755698      204f           movea.l a7, a0
           0x0075569a      47fa8049       lea.l 0x74d6e5(pc), a3
           0x0075569e      7405           moveq 0x5, d2
       > 0x007556a0      10db           move.b (a3)+, (a0)+
       < 0x007556a2      51cafffc       dbra d2, 0x7556a0
           0x007556a6      486a009a       pea.l 0x9a(a2)
           0x007556aa      4267           clr.w -(a7)
           0x007556ac      4267           clr.w -(a7)
           0x007556ae      4267           clr.w -(a7)
           0x007556b0      4267           clr.w -(a7)
           0x007556b2      1f06           move.b d6, -(a7)
           0x007556b4      4227           clr.b -(a7)
           0x007556b6      3f31300c       move.w 0xc(a1, d3.w), -(a7)
           0x007556ba      3f2a0094       move.w 0x94(a2), -(a7)
           0x007556be      2f390074cf18   move.l 0x74cf18, -(a7)
           0x007556c4      486f0018       pea.l 0x18(a7)
           0x007556c8      48780001       pea.l 0x1
           0x007556cc      48780006       pea.l 0x6
           0x007556d0      486d0010       pea.l 0x10(a5)
           0x007556d4      487900481fee   pea.l MENUCOM.hit_nothing
           0x007556da      2f07           move.l d7, -(a7)
           0x007556dc      4ebadc04       jsr MENULIBCOM.new_box_id(pc)
           0x007556e0      defc0034       adda.w 0x34, a7
           0x007556e4      3eaa009a       move.w 0x9a(a2), (a7)
           0x007556e8      1f3c0009       move.b 0x9, -(a7)
           0x007556ec      1f06           move.b d6, -(a7)
           0x007556ee      4eb900486936   jsr MENUCOM.set_menu_flag
           0x007556f4      554f           subq.w 0x2, a7
           0x007556f6      2eb90074d6ec   move.l 0x74d6ec, (a7)
           0x007556fc      3f790074d6f0.  move.w 0x74d6f0, 0x4(a7)
           0x00755704      1f790074d6f2.  move.b 0x74d6f2, 0x6(a7)
           0x0075570c      486a00a4       pea.l 0xa4(a2)
           0x00755710      4267           clr.w -(a7)
           0x00755712      4267           clr.w -(a7)
           0x00755714      4267           clr.w -(a7)
           0x00755716      4267           clr.w -(a7)
           0x00755718      1f06           move.b d6, -(a7)
           0x0075571a      4227           clr.b -(a7)
           0x0075571c      3f31300c       move.w 0xc(a1, d3.w), -(a7)
           0x00755720      3f2a0094       move.w 0x94(a2), -(a7)
           0x00755724      2f390074cf18   move.l 0x74cf18, -(a7)
           0x0075572a      486f0018       pea.l 0x18(a7)
           0x0075572e      48780001       pea.l 0x1
           0x00755732      48780007       pea.l 0x7
           0x00755736      486d0010       pea.l 0x10(a5)
           0x0075573a      487abc4c       pea.l MENULIBCOM.hit_num_field(pc)
           0x0075573e      2f07           move.l d7, -(a7)
           0x00755740      4ebadba0       jsr MENULIBCOM.new_box_id(pc)
           0x00755744      defc0036       adda.w 0x36, a7
           0x00755748      3eaa00a4       move.w 0xa4(a2), (a7)
           0x0075574c      3f390086d2b4   move.w 0x86d2b4, -(a7)
           0x00755752      4eb900486f94   jsr MENUCOM.add_slave
           0x00755758      2e87           move.l d7, (a7)
           0x0075575a      3f2a00a4       move.w 0xa4(a2), -(a7)
           0x0075575e      206f0006       movea.l 0x6(a7), a0
           0x00755762      48680524       pea.l 0x524(a0)
           0x00755766      206f000a       movea.l 0xa(a7), a0
           0x0075576a      4868052c       pea.l 0x52c(a0)
           0x0075576e      486d0010       pea.l 0x10(a5)
           0x00755772      487aa7c2       pea.l 0x74ff36(pc)
           0x00755776      486d0010       pea.l 0x10(a5)
           0x0075577a      487aa832       pea.l 0x74ffae(pc)
           0x0075577e      4ebaf26c       jsr MENULIBCOM.define_number_b(pc)
           0x00755782      defc001e       adda.w 0x1e, a7
           0x00755786      2eb90074d6f8   move.l 0x74d6f8, (a7)
           0x0075578c      2f390074d6f4   move.l 0x74d6f4, -(a7)
           0x00755792      486a00a6       pea.l 0xa6(a2)
           0x00755796      4267           clr.w -(a7)
           0x00755798      4267           clr.w -(a7)
           0x0075579a      4267           clr.w -(a7)
           0x0075579c      4267           clr.w -(a7)
           0x0075579e      1f06           move.b d6, -(a7)
           0x007557a0      4227           clr.b -(a7)
           0x007557a2      3f31300c       move.w 0xc(a1, d3.w), -(a7)
           0x007557a6      3f2a0094       move.w 0x94(a2), -(a7)
           0x007557aa      2f390074cf18   move.l 0x74cf18, -(a7)
           0x007557b0      486f0018       pea.l 0x18(a7)
           0x007557b4      48780001       pea.l 0x1
           0x007557b8      48780008       pea.l 0x8
           0x007557bc      486d0010       pea.l 0x10(a5)
           0x007557c0      487abbc6       pea.l MENULIBCOM.hit_num_field(pc)
           0x007557c4      2f07           move.l d7, -(a7)
           0x007557c6      4ebadb1a       jsr MENULIBCOM.new_box_id(pc)
           0x007557ca      defc0036       adda.w 0x36, a7
           0x007557ce      3eaa00a6       move.w 0xa6(a2), (a7)
           0x007557d2      3f390086d2b4   move.w 0x86d2b4, -(a7)
           0x007557d8      4eb900486f94   jsr MENUCOM.add_slave
           0x007557de      2e87           move.l d7, (a7)
           0x007557e0      3f2a00a6       move.w 0xa6(a2), -(a7)
           0x007557e4      486a04a8       pea.l 0x4a8(a2)
           0x007557e8      486d0010       pea.l 0x10(a5)
           0x007557ec      487aa354       pea.l MENULIBCOM.hit_skls_number(pc)
           0x007557f0      4ebaeb3a       jsr MENULIBCOM.define_numbers_(pc)
           0x007557f4      defc0012       adda.w 0x12, a7
           0x007557f8      4cdf1fff       movem.l (a7)+, d0-d7/a0-a4
           0x007557fc      4e5e           unlk a6
           0x007557fe      4e75           rts
            ; CALL XREF from MENULIBCOM.define_skls_box @ 0x755bdc
 558: MENULIBCOM.define_save_gri ();
           0x00755800      4e56feba       link.w a6, 0xfeba
           0x00755804      bfd5           cmpa.l (a5), a7
       < 0x00755806      6206           bhi.b 0x75580e
          0x00755808      44fc0002       move.w 0x2, ccr
          0x0075580c      4e76           trapv
       > 0x0075580e      defc0144       adda.w 0x144, a7
           0x00755812      48e7fff8       movem.l d0-d7/a0-a4, -(a7)
           0x00755816      49f90074cf18   lea.l 0x74cf18, a4
           0x0075581c      7401           moveq 0x1, d2
           0x0075581e      760a           moveq 0xa, d3
           0x00755820      7a02           moveq 0x2, d5
           0x00755822      7c06           moveq 0x6, d6
           0x00755824      7e04           moveq 0x4, d7
           0x00755826      102e000a       move.b 0xa(a6), d0
           0x0075582a      4880           ext.w d0
           0x0075582c      c1fc05d4       muls.w 0x5d4, d0
           0x00755830      41f90086d27a   lea.l 0x86d27a, a0
           0x00755836      43f00046       lea.l 0x46(a0, d0.w), a1
           0x0075583a      514f           subq.w 0x8, a7
           0x0075583c      244f           movea.l a7, a2
           0x0075583e      47f90074d6fd   lea.l 0x74d6fd, a3
           0x00755844      7207           moveq 0x7, d1
       > 0x00755846      14db           move.b (a3)+, (a2)+
       < 0x00755848      51c9fffc       dbra d1, 0x755846
           0x0075584c      486905ca       pea.l 0x5ca(a1)
           0x00755850      3f03           move.w d3, -(a7)
           0x00755852      3f07           move.w d7, -(a7)
           0x00755854      3f07           move.w d7, -(a7)
           0x00755856      3f02           move.w d2, -(a7)
           0x00755858      1f05           move.b d5, -(a7)
           0x0075585a      1f02           move.b d2, -(a7)
           0x0075585c      122e0008       move.b 0x8(a6), d1
           0x00755860      4881           ext.w d1
           0x00755862      e341           asl.w 0x1, d1
           0x00755864      3f31100c       move.w 0xc(a1, d1.w), -(a7)
           0x00755868      4267           clr.w -(a7)
           0x0075586a      2f14           move.l (a4), -(a7)
           0x0075586c      486f0018       pea.l 0x18(a7)
           0x00755870      48780001       pea.l 0x1
           0x00755874      48780008       pea.l 0x8
           0x00755878      486d0010       pea.l 0x10(a5)
           0x0075587c      487ac6d2       pea.l MENULIBCOM.hit_save_gridde(pc)
           0x00755880      4eb900487aa6   jsr MENUCOM.new_box
           0x00755886      defc0030       adda.w 0x30, a7
           0x0075588a      1ebc0015       move.b 0x15, (a7)
           0x0075588e      486efffe       pea.l -0x2(a6)
           0x00755892      4eb900474ff8   jsr CONFIG.get_menu_config
           0x00755898      5c4f           addq.w 0x6, a7
           0x0075589a      4a1f           tst.b (a7)+
       < 0x0075589c      6712           beq.b 0x7558b0
          0x0075589e      4a6efffe       tst.w -0x2(a6)
      < 0x007558a2      670c           beq.b 0x7558b0
         0x007558a4      3f2905ca       move.w 0x5ca(a1), -(a7)
         0x007558a8      4eb900481d90   jsr MENUCOM.swtch_on_box
         0x007558ae      544f           addq.w 0x2, a7
      > 0x007558b0      3f390074d706   move.w 0x74d706, -(a7)
           0x007558b6      486905cc       pea.l 0x5cc(a1)
           0x007558ba      3f03           move.w d3, -(a7)
           0x007558bc      3f06           move.w d6, -(a7)
           0x007558be      3f03           move.w d3, -(a7)
           0x007558c0      3f02           move.w d2, -(a7)
           0x007558c2      4227           clr.b -(a7)
           0x007558c4      1f02           move.b d2, -(a7)
           0x007558c6      3f2905ca       move.w 0x5ca(a1), -(a7)
           0x007558ca      4267           clr.w -(a7)
           0x007558cc      2f14           move.l (a4), -(a7)
           0x007558ce      486f0018       pea.l 0x18(a7)
           0x007558d2      48780001       pea.l 0x1
           0x007558d6      48780002       pea.l 0x2
           0x007558da      486d0010       pea.l 0x10(a5)
           0x007558de      487900481fee   pea.l MENUCOM.hit_nothing
           0x007558e4      4eb900487aa6   jsr MENUCOM.new_box
           0x007558ea      defc002c       adda.w 0x2c, a7
           0x007558ee      3ea905cc       move.w 0x5cc(a1), (a7)
           0x007558f2      9efc00fc       suba.w 0xfc, a7
           0x007558f6      2f390074d708   move.l 0x74d708, -(a7)
           0x007558fc      2f790074d70c.  move.l 0x74d70c, 0x4(a7)
           0x00755904      2f790074d710.  move.l 0x74d710, 0x8(a7)
           0x0075590c      1f790074d714.  move.b 0x74d714, 0xc(a7)
           0x00755914      4eb90048442e   jsr MENUCOM.set_box_macro_n
           0x0075591a      defc00fe       adda.w 0xfe, a7
           0x0075591e      2eb90074d71e   move.l 0x74d71e, (a7)
           0x00755924      2f390074d71a   move.l 0x74d71a, -(a7)
           0x0075592a      2f390074d716   move.l 0x74d716, -(a7)
           0x00755930      486905ce       pea.l 0x5ce(a1)
           0x00755934      3f3c0014       move.w 0x14, -(a7)
           0x00755938      3f06           move.w d6, -(a7)
           0x0075593a      3f3c0005       move.w 0x5, -(a7)
           0x0075593e      3f02           move.w d2, -(a7)
           0x00755940      1f3c0008       move.b 0x8, -(a7)
           0x00755944      1f05           move.b d5, -(a7)
           0x00755946      3f2905ca       move.w 0x5ca(a1), -(a7)
           0x0075594a      4267           clr.w -(a7)
           0x0075594c      2f14           move.l (a4), -(a7)
           0x0075594e      486f0018       pea.l 0x18(a7)
           0x00755952      48780001       pea.l 0x1
           0x00755956      4878000c       pea.l 0xc
           0x0075595a      486d0010       pea.l 0x10(a5)
           0x0075595e      487ac84c       pea.l 0x7521ac(pc)
           0x00755962      4eb900487aa6   jsr MENUCOM.new_box
           0x00755968      defc0038       adda.w 0x38, a7
           0x0075596c      7801           moveq 0x1, d4
           0x0075596e      4eb900408686   jsr fcn.00408686
           0x00755974      2f04           move.l d4, -(a7)
           0x00755976      7800           moveq 0x0, d4
           0x00755978      4eb900408686   jsr fcn.00408686
           0x0075597e      2f04           move.l d4, -(a7)
           0x00755980      7863           moveq 0x63, d4
           0x00755982      4eb900408686   jsr fcn.00408686
           0x00755988      3f2905ce       move.w 0x5ce(a1), -(a7)
           0x0075598c      222f0006       move.l 0x6(a7), d1
           0x00755990      2f01           move.l d1, -(a7)
           0x00755992      222f0006       move.l 0x6(a7), d1
           0x00755996      2f01           move.l d1, -(a7)
           0x00755998      2f04           move.l d4, -(a7)
           0x0075599a      3f3cfffe       move.w 0xfffe, -(a7)
           0x0075599e      3f3c0003       move.w 0x3, -(a7)
           0x007559a2      4eb90048d4ae   jsr MENU2COM.make_numeric_bo
           0x007559a8      5c4f           addq.w 0x6, a7
           0x007559aa      244f           movea.l a7, a2
           0x007559ac      47f90074d723   lea.l 0x74d723, a3
           0x007559b2      720b           moveq 0xb, d1
       > 0x007559b4      14db           move.b (a3)+, (a2)+
       < 0x007559b6      51c9fffc       dbra d1, 0x7559b4
           0x007559ba      486905d0       pea.l 0x5d0(a1)
           0x007559be      3f3c0019       move.w 0x19, -(a7)
           0x007559c2      3f06           move.w d6, -(a7)
           0x007559c4      3f3c0005       move.w 0x5, -(a7)
           0x007559c8      3f02           move.w d2, -(a7)
           0x007559ca      1f3c0008       move.b 0x8, -(a7)
           0x007559ce      1f05           move.b d5, -(a7)
           0x007559d0      3f2905ca       move.w 0x5ca(a1), -(a7)
           0x007559d4      4267           clr.w -(a7)
           0x007559d6      2f14           move.l (a4), -(a7)
           0x007559d8      486f0018       pea.l 0x18(a7)
           0x007559dc      48780001       pea.l 0x1
           0x007559e0      4878000c       pea.l 0xc
           0x007559e4      486d0010       pea.l 0x10(a5)
           0x007559e8      487ac7c2       pea.l 0x7521ac(pc)
           0x007559ec      4eb900487aa6   jsr MENUCOM.new_box
           0x007559f2      defc0036       adda.w 0x36, a7
           0x007559f6      3ea905d0       move.w 0x5d0(a1), (a7)
           0x007559fa      222f0006       move.l 0x6(a7), d1
           0x007559fe      2f01           move.l d1, -(a7)
           0x00755a00      222f0006       move.l 0x6(a7), d1
           0x00755a04      2f01           move.l d1, -(a7)
           0x00755a06      2f04           move.l d4, -(a7)
           0x00755a08      3f3cfffe       move.w 0xfffe, -(a7)
           0x00755a0c      3f3c0003       move.w 0x3, -(a7)
           0x00755a10      4eb90048d4ae   jsr MENU2COM.make_numeric_bo
           0x00755a16      defc0018       adda.w 0x18, a7
           0x00755a1a      3ea905ca       move.w 0x5ca(a1), (a7)
           0x00755a1e      4eb900482304   jsr MENUCOM.hide_box
           0x00755a24      544f           addq.w 0x2, a7
           0x00755a26      4cdf1fff       movem.l (a7)+, d0-d7/a0-a4
           0x00755a2a      4e5e           unlk a6
           0x00755a2c      4e75           rts
            ; XREFS: CALL 0x00755dd0  CALL 0x00755df0  CALL 0x00755e10  
            ; XREFS: CALL 0x00755e30  CALL 0x00755e50  CALL 0x00755e70  
 72: MENULIBCOM.check_add_1 ();
           0x00755a2e      4e56ffee       link.w a6, 0xffee
           0x00755a32      bfd5           cmpa.l (a5), a7
       < 0x00755a34      6206           bhi.b 0x755a3c
          0x00755a36      44fc0002       move.w 0x2, ccr
          0x00755a3a      4e76           trapv
       > 0x00755a3c      defc0012       adda.w 0x12, a7
           0x00755a40      48e78080       movem.l d0/a0, -(a7)
           0x00755a44      4a6e0008       tst.w 0x8(a6)
       < 0x00755a48      6724           beq.b 0x755a6e
          0x00755a4a      102c001e       move.b 0x1e(a4), d0
          0x00755a4e      4880           ext.w d0
          0x00755a50      c1fc05d4       muls.w 0x5d4, d0
          0x00755a54      41f90086d27a   lea.l 0x86d27a, a0
          0x00755a5a      41f00000       lea.l (a0, d0.w), a0
          0x00755a5e      3f28060a       move.w 0x60a(a0), -(a7)
          0x00755a62      3f2e0008       move.w 0x8(a6), -(a7)
          0x00755a66      4eb900486f94   jsr MENUCOM.add_slave
          0x00755a6c      584f           addq.w 0x4, a7
       > 0x00755a6e      4cdf0101       movem.l (a7)+, d0/a0
           0x00755a72      4e5e           unlk a6
           0x00755a74      4e75           rts
            ; XREFS: CALL 0x00755fdc  CALL 0x00755ffc  CALL 0x0075601c  
            ; XREFS: CALL 0x0075603c  CALL 0x0075605c  CALL 0x0075607c  
            ; XREFS: CALL 0x0075609c  
 82: MENULIBCOM.check_add_2 ();
           0x00755a76      4e56ffe8       link.w a6, 0xffe8
           0x00755a7a      bfd5           cmpa.l (a5), a7
       < 0x00755a7c      6206           bhi.b 0x755a84
          0x00755a7e      44fc0002       move.w 0x2, ccr
          0x00755a82      4e76           trapv
       > 0x00755a84      defc0018       adda.w 0x18, a7
           0x00755a88      48e7c080       movem.l d0-d1/a0, -(a7)
           0x00755a8c      4a6e0008       tst.w 0x8(a6)
       < 0x00755a90      672e           beq.b 0x755ac0
          0x00755a92      102c001e       move.b 0x1e(a4), d0
          0x00755a96      4880           ext.w d0
          0x00755a98      c1fc05d4       muls.w 0x5d4, d0
          0x00755a9c      122c001a       move.b 0x1a(a4), d1
          0x00755aa0      4881           ext.w d1
          0x00755aa2      c3fc000e       muls.w 0xe, d1
          0x00755aa6      41f90086d27a   lea.l 0x86d27a, a0
          0x00755aac      41f00000       lea.l (a0, d0.w), a0
          0x00755ab0      3f30105c       move.w 0x5c(a0, d1.w), -(a7)
          0x00755ab4      3f2e0008       move.w 0x8(a6), -(a7)
          0x00755ab8      4eb900486f94   jsr MENUCOM.add_slave
          0x00755abe      584f           addq.w 0x4, a7
       > 0x00755ac0      4cdf0103       movem.l (a7)+, d0-d1/a0
           0x00755ac4      4e5e           unlk a6
           0x00755ac6      4e75           rts
            ; CALL XREFS from MENULIBCOM.init_boxes @ 0x756c66, 0x756c86, 0x756caa, 0x756cca
 1574: MENULIBCOM.define_skls_box ();
           0x00755ac8      4e56ff76       link.w a6, 0xff76
           0x00755acc      bfd5           cmpa.l (a5), a7
       < 0x00755ace      6206           bhi.b 0x755ad6
          0x00755ad0      44fc0002       move.w 0x2, ccr
          0x00755ad4      4e76           trapv
       > 0x00755ad6      defc0084       adda.w 0x84, a7
           0x00755ada      48e7fff8       movem.l d0-d7/a0-a4, -(a7)
           0x00755ade      594f           subq.w 0x4, a7
           0x00755ae0      1f2e0010       move.b 0x10(a6), -(a7)
           0x00755ae4      4eba86e4       jsr MENULIBCOM.mask(pc)
           0x00755ae8      544f           addq.w 0x2, a7
           0x00755aea      2e1f           move.l (a7)+, d7
           0x00755aec      102e0010       move.b 0x10(a6), d0
           0x00755af0      4880           ext.w d0
           0x00755af2      01390074d730   btst.l d0, 0x74d730
       < 0x00755af8      6704           beq.b 0x755afe
          0x00755afa      7c12           moveq 0x12, d6
      < 0x00755afc      6002           bra.b 0x755b00
      > 0x00755afe      7c01           moveq 0x1, d6
      > 0x00755b00      122e0014       move.b 0x14(a6), d1
           0x00755b04      4881           ext.w d1
           0x00755b06      343c05d4       move.w 0x5d4, d2
           0x00755b0a      c5c1           muls.w d1, d2
           0x00755b0c      41f90086d27a   lea.l 0x86d27a, a0
           0x00755b12      760e           moveq 0xe, d3
           0x00755b14      c7c0           muls.w d0, d3
           0x00755b16      43f02046       lea.l 0x46(a0, d2.w), a1
           0x00755b1a      4886           ext.w d6
           0x00755b1c      4dbc0013       chk.w 0x13, d6
           0x00755b20      3800           move.w d0, d4
           0x00755b22      e344           asl.w 0x1, d4
           0x00755b24      5d4f           subq.w 0x6, a7
           0x00755b26      2f390074d732   move.l 0x74d732, -(a7)
           0x00755b2c      2f790074d736.  move.l 0x74d736, 0x4(a7)
           0x00755b34      1f790074d73a.  move.b 0x74d73a, 0x8(a7)
           0x00755b3c      48713014       pea.l 0x14(a1, d3.w)
           0x00755b40      4267           clr.w -(a7)
           0x00755b42      4267           clr.w -(a7)
           0x00755b44      4267           clr.w -(a7)
           0x00755b46      4267           clr.w -(a7)
           0x00755b48      1f06           move.b d6, -(a7)
           0x00755b4a      4227           clr.b -(a7)
           0x00755b4c      3f31400c       move.w 0xc(a1, d4.w), -(a7)
           0x00755b50      4267           clr.w -(a7)
           0x00755b52      2f390074cf18   move.l 0x74cf18, -(a7)
           0x00755b58      486f0018       pea.l 0x18(a7)
           0x00755b5c      48780001       pea.l 0x1
           0x00755b60      48780009       pea.l 0x9
           0x00755b64      2f2e000c       move.l 0xc(a6), -(a7)
           0x00755b68      2f2e0008       move.l 0x8(a6), -(a7)
           0x00755b6c      2f07           move.l d7, -(a7)
           0x00755b6e      4ebad772       jsr MENULIBCOM.new_box_id(pc)
           0x00755b72      defc0034       adda.w 0x34, a7
           0x00755b76      2eb90074d73c   move.l 0x74d73c, (a7)
           0x00755b7c      1f790074d740.  move.b 0x74d740, 0x4(a7)
           0x00755b84      4871301c       pea.l 0x1c(a1, d3.w)
           0x00755b88      3f3c000a       move.w 0xa, -(a7)
           0x00755b8c      3f3c0002       move.w 0x2, -(a7)
           0x00755b90      3f3c0004       move.w 0x4, -(a7)
           0x00755b94      3f3c0001       move.w 0x1, -(a7)
           0x00755b98      1f06           move.b d6, -(a7)
           0x00755b9a      4227           clr.b -(a7)
           0x00755b9c      3f31400c       move.w 0xc(a1, d4.w), -(a7)
           0x00755ba0      3f313014       move.w 0x14(a1, d3.w), -(a7)
           0x00755ba4      2f390074cf18   move.l 0x74cf18, -(a7)
           0x00755baa      486f0018       pea.l 0x18(a7)
           0x00755bae      48780001       pea.l 0x1
           0x00755bb2      48780005       pea.l 0x5
           0x00755bb6      2f2e000c       move.l 0xc(a6), -(a7)
           0x00755bba      2f2e0008       move.l 0x8(a6), -(a7)
           0x00755bbe      2f07           move.l d7, -(a7)
           0x00755bc0      4ebad720       jsr MENULIBCOM.new_box_id(pc)
           0x00755bc4      defc0034       adda.w 0x34, a7
           0x00755bc8      1e81           move.b d1, (a7)
           0x00755bca      1f00           move.b d0, -(a7)
           0x00755bcc      2f07           move.l d7, -(a7)
           0x00755bce      4ebaf612       jsr MENULIBCOM.define_skls_tab(pc)
           0x00755bd2      504f           addq.w 0x8, a7
           0x00755bd4      4a40           tst.w d0
       < 0x00755bd6      660a           bne.b 0x755be2
          0x00755bd8      1f01           move.b d1, -(a7)
          0x00755bda      1f00           move.b d0, -(a7)
          0x00755bdc      4ebafc22       jsr MENULIBCOM.define_save_gri(pc)
          0x00755be0      584f           addq.w 0x4, a7
       > 0x00755be2      4a40           tst.w d0
       < 0x00755be4      664c           bne.b 0x755c32
          0x00755be6      554f           subq.w 0x2, a7
          0x00755be8      2f390074d742   move.l 0x74d742, -(a7)
          0x00755bee      1f790074d746.  move.b 0x74d746, 0x4(a7)
          0x00755bf6      4871301e       pea.l 0x1e(a1, d3.w)
          0x00755bfa      4267           clr.w -(a7)
          0x00755bfc      4267           clr.w -(a7)
          0x00755bfe      4267           clr.w -(a7)
          0x00755c00      4267           clr.w -(a7)
          0x00755c02      4227           clr.b -(a7)
          0x00755c04      4227           clr.b -(a7)
          0x00755c06      3f31400c       move.w 0xc(a1, d4.w), -(a7)
          0x00755c0a      4267           clr.w -(a7)
          0x00755c0c      2f390074cf18   move.l 0x74cf18, -(a7)
          0x00755c12      486f0018       pea.l 0x18(a7)
          0x00755c16      48780001       pea.l 0x1
          0x00755c1a      48780005       pea.l 0x5
          0x00755c1e      2f2e000c       move.l 0xc(a6), -(a7)
          0x00755c22      2f2e0008       move.l 0x8(a6), -(a7)
          0x00755c26      2f07           move.l d7, -(a7)
          0x00755c28      4ebad6b8       jsr MENULIBCOM.new_box_id(pc)
          0x00755c2c      defc0036       adda.w 0x36, a7
      < 0x00755c30      604a           bra.b 0x755c7c
      > 0x00755c32      2f390074d748   move.l 0x74d748, -(a7)
          0x00755c38      4871301e       pea.l 0x1e(a1, d3.w)
          0x00755c3c      3f3c000a       move.w 0xa, -(a7)
          0x00755c40      3f3c0004       move.w 0x4, -(a7)
          0x00755c44      3f3c0004       move.w 0x4, -(a7)
          0x00755c48      3f3c0001       move.w 0x1, -(a7)
          0x00755c4c      1f06           move.b d6, -(a7)
          0x00755c4e      4227           clr.b -(a7)
          0x00755c50      3f31400c       move.w 0xc(a1, d4.w), -(a7)
          0x00755c54      3f31301c       move.w 0x1c(a1, d3.w), -(a7)
          0x00755c58      2f390074cf18   move.l 0x74cf18, -(a7)
          0x00755c5e      486f0018       pea.l 0x18(a7)
          0x00755c62      48780001       pea.l 0x1
          0x00755c66      48780004       pea.l 0x4
          0x00755c6a      2f2e000c       move.l 0xc(a6), -(a7)
          0x00755c6e      2f2e0008       move.l 0x8(a6), -(a7)
          0x00755c72      2f07           move.l d7, -(a7)
          0x00755c74      4ebad66c       jsr MENULIBCOM.new_box_id(pc)
          0x00755c78      defc0034       adda.w 0x34, a7
      > 0x00755c7c      1f01           move.b d1, -(a7)
           0x00755c7e      1f00           move.b d0, -(a7)
           0x00755c80      2f07           move.l d7, -(a7)
           0x00755c82      3f31301c       move.w 0x1c(a1, d3.w), -(a7)
           0x00755c86      1f06           move.b d6, -(a7)
           0x00755c88      2f2e000c       move.l 0xc(a6), -(a7)
           0x00755c8c      2f2e0008       move.l 0x8(a6), -(a7)
           0x00755c90      4ebaf418       jsr MENULIBCOM.define_skls_str(pc)
           0x00755c94      defc0014       adda.w 0x14, a7
           0x00755c98      4a40           tst.w d0
       < 0x00755c9a      6600023e       bne.w 0x755eda
          0x00755c9e      9efc000c       suba.w 0xc, a7
          0x00755ca2      244f           movea.l a7, a2
          0x00755ca4      47f90074d74d   lea.l 0x74d74d, a3
          0x00755caa      7a0a           moveq 0xa, d5
      > 0x00755cac      14db           move.b (a3)+, (a2)+
      < 0x00755cae      51cdfffc       dbra d5, 0x755cac
          0x00755cb2      486905c4       pea.l 0x5c4(a1)
          0x00755cb6      4267           clr.w -(a7)
          0x00755cb8      4267           clr.w -(a7)
          0x00755cba      4267           clr.w -(a7)
          0x00755cbc      4267           clr.w -(a7)
          0x00755cbe      1f3c0002       move.b 0x2, -(a7)
          0x00755cc2      4227           clr.b -(a7)
          0x00755cc4      3f313016       move.w 0x16(a1, d3.w), -(a7)
          0x00755cc8      4267           clr.w -(a7)
          0x00755cca      2f390074cf18   move.l 0x74cf18, -(a7)
          0x00755cd0      486f0018       pea.l 0x18(a7)
          0x00755cd4      48780001       pea.l 0x1
          0x00755cd8      4878000b       pea.l 0xb
          0x00755cdc      486d0010       pea.l 0x10(a5)
          0x00755ce0      487900481fee   pea.l MENUCOM.hit_nothing
          0x00755ce6      4eb900487aa6   jsr MENUCOM.new_box
          0x00755cec      defc0038       adda.w 0x38, a7
          0x00755cf0      4a390086d27f   tst.b 0x86d27f
      < 0x00755cf6      674c           beq.b 0x755d44
         0x00755cf8      3f2905c4       move.w 0x5c4(a1), -(a7)
         0x00755cfc      3f390086d2b6   move.w 0x86d2b6, -(a7)
         0x00755d02      4eb900486f94   jsr MENUCOM.add_slave
         0x00755d08      544f           addq.w 0x2, a7
         0x00755d0a      3ea905c4       move.w 0x5c4(a1), (a7)
         0x00755d0e      3f390086d2b8   move.w 0x86d2b8, -(a7)
         0x00755d14      4eb900486f94   jsr MENUCOM.add_slave
         0x00755d1a      544f           addq.w 0x2, a7
         0x00755d1c      3ea905c4       move.w 0x5c4(a1), (a7)
         0x00755d20      3f390086d2ba   move.w 0x86d2ba, -(a7)
         0x00755d26      4eb900486f94   jsr MENUCOM.add_slave
         0x00755d2c      544f           addq.w 0x2, a7
         0x00755d2e      3ea905c4       move.w 0x5c4(a1), (a7)
         0x00755d32      3f390086d2bc   move.w 0x86d2bc, -(a7)
     > 0x00755d38      4eb900486f94   jsr MENUCOM.add_slave
        0x00755d3e      584f           addq.w 0x4, a7
    < 0x00755d40      60000198       bra.w 0x755eda
    > 0x00755d44      4a390086d280   tst.b 0x86d280
    < 0x00755d4a      6774           beq.b 0x755dc0
       0x00755d4c      7a5c           moveq 0x5c, d5
       0x00755d4e      cbc0           muls.w d0, d5
       0x00755d50      3f2905c4       move.w 0x5c4(a1), -(a7)
       0x00755d54      45f15000       lea.l (a1, d5.w), a2
       0x00755d58      3f2a0148       move.w 0x148(a2), -(a7)
       0x00755d5c      4eb900486f94   jsr MENUCOM.add_slave
       0x00755d62      544f           addq.w 0x2, a7
       0x00755d64      48780038       pea.l 0x38
       0x00755d68      4eb900474af8   jsr CONFIG.cfg_option
       0x00755d6e      584f           addq.w 0x4, a7
       0x00755d70      4a1f           tst.b (a7)+
   < 0x00755d72      6728           beq.b 0x755d9c
      0x00755d74      3f2905c4       move.w 0x5c4(a1), -(a7)
      0x00755d78      45f15000       lea.l (a1, d5.w), a2
      0x00755d7c      3f2a014a       move.w 0x14a(a2), -(a7)
      0x00755d80      4eb900486f94   jsr MENUCOM.add_slave
      0x00755d86      544f           addq.w 0x2, a7
      0x00755d88      3ea905c4       move.w 0x5c4(a1), (a7)
      0x00755d8c      45f15000       lea.l (a1, d5.w), a2
      0x00755d90      3f2a014c       move.w 0x14c(a2), -(a7)
      0x00755d94      4eb900486f94   jsr MENUCOM.add_slave
      0x00755d9a      584f           addq.w 0x4, a7
   > 0x00755d9c      3f2905c4       move.w 0x5c4(a1), -(a7)
       0x00755da0      45f15000       lea.l (a1, d5.w), a2
       0x00755da4      3f2a014e       move.w 0x14e(a2), -(a7)
       0x00755da8      4eb900486f94   jsr MENUCOM.add_slave
       0x00755dae      544f           addq.w 0x2, a7
       0x00755db0      3ea905c4       move.w 0x5c4(a1), (a7)
       0x00755db4      45f14000       lea.l (a1, d4.w), a2
       0x00755db8      3f2a027c       move.w 0x27c(a2), -(a7)
    < 0x00755dbc      6000ff7a       bra.w 0x755d38
     > 0x00755dc0      7a5c           moveq 0x5c, d5
         0x00755dc2      cbc0           muls.w d0, d5
         0x00755dc4      45f15000       lea.l (a1, d5.w), a2
         0x00755dc8      3f2a0110       move.w 0x110(a2), -(a7)
         0x00755dcc      49eefff6       lea.l -0xa(a6), a4
         0x00755dd0      4ebafc5c       jsr MENULIBCOM.check_add_1(pc)
         0x00755dd4      544f           addq.w 0x2, a7
         0x00755dd6      286efff6       movea.l -0xa(a6), a4
         0x00755dda      1a2e0010       move.b 0x10(a6), d5
         0x00755dde      4885           ext.w d5
         0x00755de0      cbfc005c       muls.w 0x5c, d5
         0x00755de4      45f15000       lea.l (a1, d5.w), a2
         0x00755de8      3f2a0112       move.w 0x112(a2), -(a7)
         0x00755dec      49eefff6       lea.l -0xa(a6), a4
         0x00755df0      4ebafc3c       jsr MENULIBCOM.check_add_1(pc)
         0x00755df4      544f           addq.w 0x2, a7
         0x00755df6      286efff6       movea.l -0xa(a6), a4
         0x00755dfa      1a2e0010       move.b 0x10(a6), d5
         0x00755dfe      4885           ext.w d5
         0x00755e00      cbfc005c       muls.w 0x5c, d5
         0x00755e04      45f15000       lea.l (a1, d5.w), a2
         0x00755e08      3f2a0114       move.w 0x114(a2), -(a7)
         0x00755e0c      49eefff6       lea.l -0xa(a6), a4
         0x00755e10      4ebafc1c       jsr MENULIBCOM.check_add_1(pc)
         0x00755e14      544f           addq.w 0x2, a7
         0x00755e16      286efff6       movea.l -0xa(a6), a4
         0x00755e1a      1a2e0010       move.b 0x10(a6), d5
         0x00755e1e      4885           ext.w d5
         0x00755e20      cbfc005c       muls.w 0x5c, d5
         0x00755e24      45f15000       lea.l (a1, d5.w), a2
         0x00755e28      3f2a0124       move.w 0x124(a2), -(a7)
         0x00755e2c      49eefff6       lea.l -0xa(a6), a4
         0x00755e30      4ebafbfc       jsr MENULIBCOM.check_add_1(pc)
         0x00755e34      544f           addq.w 0x2, a7
         0x00755e36      286efff6       movea.l -0xa(a6), a4
         0x00755e3a      1a2e0010       move.b 0x10(a6), d5
         0x00755e3e      4885           ext.w d5
         0x00755e40      cbfc005c       muls.w 0x5c, d5
         0x00755e44      45f15000       lea.l (a1, d5.w), a2
         0x00755e48      3f2a015a       move.w 0x15a(a2), -(a7)
         0x00755e4c      49eefff6       lea.l -0xa(a6), a4
         0x00755e50      4ebafbdc       jsr MENULIBCOM.check_add_1(pc)
         0x00755e54      544f           addq.w 0x2, a7
         0x00755e56      286efff6       movea.l -0xa(a6), a4
         0x00755e5a      1a2e0010       move.b 0x10(a6), d5
         0x00755e5e      4885           ext.w d5
         0x00755e60      cbfc005c       muls.w 0x5c, d5
         0x00755e64      45f15000       lea.l (a1, d5.w), a2
         0x00755e68      3f2a015c       move.w 0x15c(a2), -(a7)
         0x00755e6c      49eefff6       lea.l -0xa(a6), a4
         0x00755e70      4ebafbbc       jsr MENULIBCOM.check_add_1(pc)
         0x00755e74      544f           addq.w 0x2, a7
         0x00755e76      286efff6       movea.l -0xa(a6), a4
         0x00755e7a      1a2e0010       move.b 0x10(a6), d5
         0x00755e7e      4885           ext.w d5
         0x00755e80      3f05           move.w d5, -(a7)
         0x00755e82      e345           asl.w 0x1, d5
         0x00755e84      3f2905c4       move.w 0x5c4(a1), -(a7)
         0x00755e88      45f15000       lea.l (a1, d5.w), a2
         0x00755e8c      3f2a027c       move.w 0x27c(a2), -(a7)
         0x00755e90      4eb900486f94   jsr MENUCOM.add_slave
         0x00755e96      544f           addq.w 0x2, a7
         0x00755e98      3ea905c4       move.w 0x5c4(a1), (a7)
         0x00755e9c      45f15000       lea.l (a1, d5.w), a2
         0x00755ea0      3f2a0400       move.w 0x400(a2), -(a7)
         0x00755ea4      4eb900486f94   jsr MENUCOM.add_slave
         0x00755eaa      584f           addq.w 0x4, a7
         0x00755eac      3a1f           move.w (a7)+, d5
         0x00755eae      cbfc005c       muls.w 0x5c, d5
         0x00755eb2      45f15000       lea.l (a1, d5.w), a2
         0x00755eb6      4a6a0124       tst.w 0x124(a2)
     < 0x00755eba      670c           beq.b 0x755ec8
        0x00755ebc      3f2a0124       move.w 0x124(a2), -(a7)
        0x00755ec0      4eb900482304   jsr MENUCOM.hide_box
        0x00755ec6      544f           addq.w 0x2, a7
     > 0x00755ec8      4a6a0120       tst.w 0x120(a2)
     < 0x00755ecc      670c           beq.b 0x755eda
        0x00755ece      3f2a0120       move.w 0x120(a2), -(a7)
        0x00755ed2      4eb900482304   jsr MENUCOM.hide_box
        0x00755ed8      544f           addq.w 0x2, a7
    > 0x00755eda      162e0010       move.b 0x10(a6), d3
           0x00755ede      0c030001       cmpi.b 0x1, d3
       < 0x00755ee2      66000202       bne.w 0x7560e6
          0x00755ee6      4a390086d27f   tst.b 0x86d27f
      < 0x00755eec      6750           beq.b 0x755f3e
         0x00755eee      4883           ext.w d3
         0x00755ef0      3803           move.w d3, d4
         0x00755ef2      5344           subq.w 0x1, d4
         0x00755ef4      49bc0002       chk.w 0x2, d4
         0x00755ef8      e744           asl.w 0x3, d4
         0x00755efa      45f14000       lea.l (a1, d4.w), a2
         0x00755efe      780e           moveq 0xe, d4
         0x00755f00      c9c3           muls.w d3, d4
         0x00755f02      3f314016       move.w 0x16(a1, d4.w), -(a7)
         0x00755f06      3f2a028e       move.w 0x28e(a2), -(a7)
         0x00755f0a      4eb900486f94   jsr MENUCOM.add_slave
         0x00755f10      544f           addq.w 0x2, a7
         0x00755f12      3eb14016       move.w 0x16(a1, d4.w), (a7)
         0x00755f16      3f2a0290       move.w 0x290(a2), -(a7)
         0x00755f1a      4eb900486f94   jsr MENUCOM.add_slave
         0x00755f20      544f           addq.w 0x2, a7
         0x00755f22      3eb14016       move.w 0x16(a1, d4.w), (a7)
         0x00755f26      3f2a0292       move.w 0x292(a2), -(a7)
         0x00755f2a      4eb900486f94   jsr MENUCOM.add_slave
         0x00755f30      544f           addq.w 0x2, a7
         0x00755f32      3eb14016       move.w 0x16(a1, d4.w), (a7)
         0x00755f36      3f2a0294       move.w 0x294(a2), -(a7)
     < 0x00755f3a      60000182       bra.w 0x7560be
     > 0x00755f3e      4a390086d280   tst.b 0x86d280
     < 0x00755f44      67000084       beq.w 0x755fca
        0x00755f48      4883           ext.w d3
        0x00755f4a      3803           move.w d3, d4
        0x00755f4c      5344           subq.w 0x1, d4
        0x00755f4e      49bc0002       chk.w 0x2, d4
        0x00755f52      e744           asl.w 0x3, d4
        0x00755f54      45f14000       lea.l (a1, d4.w), a2
        0x00755f58      780e           moveq 0xe, d4
        0x00755f5a      c9c3           muls.w d3, d4
        0x00755f5c      7a5c           moveq 0x5c, d5
        0x00755f5e      cbc3           muls.w d3, d5
        0x00755f60      3f314016       move.w 0x16(a1, d4.w), -(a7)
        0x00755f64      45f15000       lea.l (a1, d5.w), a2
        0x00755f68      3f2a0148       move.w 0x148(a2), -(a7)
        0x00755f6c      4eb900486f94   jsr MENUCOM.add_slave
        0x00755f72      544f           addq.w 0x2, a7
        0x00755f74      48780038       pea.l 0x38
        0x00755f78      4eb900474af8   jsr CONFIG.cfg_option
        0x00755f7e      584f           addq.w 0x4, a7
        0x00755f80      4a1f           tst.b (a7)+
    < 0x00755f82      6728           beq.b 0x755fac
       0x00755f84      3f314016       move.w 0x16(a1, d4.w), -(a7)
       0x00755f88      45f15000       lea.l (a1, d5.w), a2
       0x00755f8c      3f2a014a       move.w 0x14a(a2), -(a7)
       0x00755f90      4eb900486f94   jsr MENUCOM.add_slave
       0x00755f96      544f           addq.w 0x2, a7
       0x00755f98      3eb14016       move.w 0x16(a1, d4.w), (a7)
       0x00755f9c      45f15000       lea.l (a1, d5.w), a2
       0x00755fa0      3f2a014c       move.w 0x14c(a2), -(a7)
       0x00755fa4      4eb900486f94   jsr MENUCOM.add_slave
       0x00755faa      584f           addq.w 0x4, a7
    > 0x00755fac      3f314016       move.w 0x16(a1, d4.w), -(a7)
        0x00755fb0      45f15000       lea.l (a1, d5.w), a2
        0x00755fb4      3f2a014e       move.w 0x14e(a2), -(a7)
        0x00755fb8      4eb900486f94   jsr MENUCOM.add_slave
        0x00755fbe      544f           addq.w 0x2, a7
        0x00755fc0      3eb14016       move.w 0x16(a1, d4.w), (a7)
        0x00755fc4      3803           move.w d3, d4
    < 0x00755fc6      600000ec       bra.w 0x7560b4
    > 0x00755fca      4883           ext.w d3
        0x00755fcc      785c           moveq 0x5c, d4
        0x00755fce      c9c3           muls.w d3, d4
        0x00755fd0      45f14000       lea.l (a1, d4.w), a2
        0x00755fd4      3f2a0110       move.w 0x110(a2), -(a7)
        0x00755fd8      49eefff6       lea.l -0xa(a6), a4
        0x00755fdc      4ebafa98       jsr MENULIBCOM.check_add_2(pc)
        0x00755fe0      544f           addq.w 0x2, a7
        0x00755fe2      286efff6       movea.l -0xa(a6), a4
        0x00755fe6      182e0010       move.b 0x10(a6), d4
        0x00755fea      4884           ext.w d4
        0x00755fec      c9fc005c       muls.w 0x5c, d4
        0x00755ff0      45f14000       lea.l (a1, d4.w), a2
        0x00755ff4      3f2a0112       move.w 0x112(a2), -(a7)
        0x00755ff8      49eefff6       lea.l -0xa(a6), a4
        0x00755ffc      4ebafa78       jsr MENULIBCOM.check_add_2(pc)
        0x00756000      544f           addq.w 0x2, a7
        0x00756002      286efff6       movea.l -0xa(a6), a4
        0x00756006      182e0010       move.b 0x10(a6), d4
        0x0075600a      4884           ext.w d4
        0x0075600c      c9fc005c       muls.w 0x5c, d4
        0x00756010      45f14000       lea.l (a1, d4.w), a2
        0x00756014      3f2a0114       move.w 0x114(a2), -(a7)
        0x00756018      49eefff6       lea.l -0xa(a6), a4
        0x0075601c      4ebafa58       jsr MENULIBCOM.check_add_2(pc)
        0x00756020      544f           addq.w 0x2, a7
        0x00756022      286efff6       movea.l -0xa(a6), a4
        0x00756026      182e0010       move.b 0x10(a6), d4
        0x0075602a      4884           ext.w d4
        0x0075602c      c9fc005c       muls.w 0x5c, d4
        0x00756030      45f14000       lea.l (a1, d4.w), a2
        0x00756034      3f2a0124       move.w 0x124(a2), -(a7)
        0x00756038      49eefff6       lea.l -0xa(a6), a4
        0x0075603c      4ebafa38       jsr MENULIBCOM.check_add_2(pc)
        0x00756040      544f           addq.w 0x2, a7
        0x00756042      286efff6       movea.l -0xa(a6), a4
        0x00756046      182e0010       move.b 0x10(a6), d4
        0x0075604a      4884           ext.w d4
        0x0075604c      c9fc005c       muls.w 0x5c, d4
        0x00756050      45f14000       lea.l (a1, d4.w), a2
        0x00756054      3f2a015a       move.w 0x15a(a2), -(a7)
        0x00756058      49eefff6       lea.l -0xa(a6), a4
        0x0075605c      4ebafa18       jsr MENULIBCOM.check_add_2(pc)
        0x00756060      544f           addq.w 0x2, a7
        0x00756062      286efff6       movea.l -0xa(a6), a4
        0x00756066      182e0010       move.b 0x10(a6), d4
        0x0075606a      4884           ext.w d4
        0x0075606c      c9fc005c       muls.w 0x5c, d4
        0x00756070      45f14000       lea.l (a1, d4.w), a2
        0x00756074      3f2a015c       move.w 0x15c(a2), -(a7)
        0x00756078      49eefff6       lea.l -0xa(a6), a4
        0x0075607c      4ebaf9f8       jsr MENULIBCOM.check_add_2(pc)
        0x00756080      544f           addq.w 0x2, a7
        0x00756082      286efff6       movea.l -0xa(a6), a4
        0x00756086      182e0010       move.b 0x10(a6), d4
        0x0075608a      4884           ext.w d4
        0x0075608c      c9fc005c       muls.w 0x5c, d4
        0x00756090      45f14000       lea.l (a1, d4.w), a2
        0x00756094      3f2a013a       move.w 0x13a(a2), -(a7)
        0x00756098      49eefff6       lea.l -0xa(a6), a4
        0x0075609c      4ebaf9d8       jsr MENULIBCOM.check_add_2(pc)
        0x007560a0      544f           addq.w 0x2, a7
        0x007560a2      286efff6       movea.l -0xa(a6), a4
        0x007560a6      182e0010       move.b 0x10(a6), d4
        0x007560aa      4884           ext.w d4
        0x007560ac      7a0e           moveq 0xe, d5
        0x007560ae      cbc4           muls.w d4, d5
        0x007560b0      3f315016       move.w 0x16(a1, d5.w), -(a7)
    > 0x007560b4      e344           asl.w 0x1, d4
         0x007560b6      45f14000       lea.l (a1, d4.w), a2
         0x007560ba      3f2a027c       move.w 0x27c(a2), -(a7)
     > 0x007560be      4eb900486f94   jsr MENUCOM.add_slave
          0x007560c4      584f           addq.w 0x4, a7
          0x007560c6      182e0010       move.b 0x10(a6), d4
          0x007560ca      4884           ext.w d4
          0x007560cc      7a0e           moveq 0xe, d5
          0x007560ce      cbc4           muls.w d4, d5
          0x007560d0      3f315016       move.w 0x16(a1, d5.w), -(a7)
          0x007560d4      e344           asl.w 0x1, d4
          0x007560d6      45f14000       lea.l (a1, d4.w), a2
          0x007560da      3f2a0400       move.w 0x400(a2), -(a7)
          0x007560de      4eb900486f94   jsr MENUCOM.add_slave
          0x007560e4      584f           addq.w 0x4, a7
       > 0x007560e6      4cdf1fff       movem.l (a7)+, d0-d7/a0-a4
           0x007560ea      4e5e           unlk a6
           0x007560ec      4e75           rts
            ; CALL XREF from MENULIBCOM.init_boxes @ 0x756dbe
 350: fcn.007560ee ();
           0x007560ee      4e56ff80       link.w a6, 0xff80
           0x007560f2      bfd5           cmpa.l (a5), a7
       < 0x007560f4      6206           bhi.b 0x7560fc
          0x007560f6      44fc0002       move.w 0x2, ccr
          0x007560fa      4e76           trapv
       > 0x007560fc      defc007e       adda.w 0x7e, a7
           0x00756100      48e7fff8       movem.l d0-d7/a0-a4, -(a7)
           0x00756104      49f90074cf18   lea.l 0x74cf18, a4
           0x0075610a      760a           moveq 0xa, d3
           0x0075610c      7801           moveq 0x1, d4
           0x0075610e      7a04           moveq 0x4, d5
           0x00756110      7c34           moveq 0x34, d6
           0x00756112      102e0010       move.b 0x10(a6), d0
           0x00756116      4880           ext.w d0
           0x00756118      323c05d4       move.w 0x5d4, d1
           0x0075611c      c3c0           muls.w d0, d1
           0x0075611e      41f90086d27a   lea.l 0x86d27a, a0
           0x00756124      7e01           moveq 0x1, d7
           0x00756126      43f01046       lea.l 0x46(a0, d1.w), a1
           0x0075612a      4887           ext.w d7
           0x0075612c      4fbc0013       chk.w 0x13, d7
           0x00756130      9ec3           suba.w d3, a7
           0x00756132      244f           movea.l a7, a2
           0x00756134      47f90074d759   lea.l 0x74d759, a3
           0x0075613a      7409           moveq 0x9, d2
       > 0x0075613c      14db           move.b (a3)+, (a2)+
       < 0x0075613e      51cafffc       dbra d2, 0x75613c
           0x00756142      4869004c       pea.l 0x4c(a1)
           0x00756146      4267           clr.w -(a7)
           0x00756148      4267           clr.w -(a7)
           0x0075614a      4267           clr.w -(a7)
           0x0075614c      4267           clr.w -(a7)
           0x0075614e      1f07           move.b d7, -(a7)
           0x00756150      4227           clr.b -(a7)
           0x00756152      3f11           move.w (a1), -(a7)
           0x00756154      4267           clr.w -(a7)
           0x00756156      2f14           move.l (a4), -(a7)
           0x00756158      486f0018       pea.l 0x18(a7)
           0x0075615c      48780001       pea.l 0x1
           0x00756160      4878000a       pea.l 0xa
           0x00756164      2f2e000c       move.l 0xc(a6), -(a7)
           0x00756168      2f2e0008       move.l 0x8(a6), -(a7)
           0x0075616c      48780000       pea.l 0x0
           0x00756170      4ebad170       jsr MENULIBCOM.new_box_id(pc)
           0x00756174      defc0038       adda.w 0x38, a7
           0x00756178      1e80           move.b d0, (a7)
           0x0075617a      4ebaee60       jsr fcn.00754fdc(pc)
           0x0075617e      544f           addq.w 0x2, a7
           0x00756180      2f390074d764   move.l 0x74d764, -(a7)
           0x00756186      4869004e       pea.l 0x4e(a1)
           0x0075618a      3f03           move.w d3, -(a7)
           0x0075618c      3f04           move.w d4, -(a7)
           0x0075618e      3f05           move.w d5, -(a7)
           0x00756190      3f04           move.w d4, -(a7)
           0x00756192      1f07           move.b d7, -(a7)
           0x00756194      4227           clr.b -(a7)
           0x00756196      3f11           move.w (a1), -(a7)
           0x00756198      3f29004c       move.w 0x4c(a1), -(a7)
           0x0075619c      2f14           move.l (a4), -(a7)
           0x0075619e      486f0018       pea.l 0x18(a7)
           0x007561a2      48780001       pea.l 0x1
           0x007561a6      48780004       pea.l 0x4
           0x007561aa      2f2e000c       move.l 0xc(a6), -(a7)
           0x007561ae      2f2e0008       move.l 0x8(a6), -(a7)
           0x007561b2      48780000       pea.l 0x0
           0x007561b6      4ebad12a       jsr MENULIBCOM.new_box_id(pc)
           0x007561ba      defc002c       adda.w 0x2c, a7
           0x007561be      244f           movea.l a7, a2
           0x007561c0      47f90074d769   lea.l 0x74d769, a3
           0x007561c6      7407           moveq 0x7, d2
       > 0x007561c8      14db           move.b (a3)+, (a2)+
       < 0x007561ca      51cafffc       dbra d2, 0x7561c8
           0x007561ce      48690052       pea.l 0x52(a1)
           0x007561d2      3f03           move.w d3, -(a7)
           0x007561d4      3f3c0002       move.w 0x2, -(a7)
           0x007561d8      3f05           move.w d5, -(a7)
           0x007561da      3f04           move.w d4, -(a7)
           0x007561dc      1f07           move.b d7, -(a7)
           0x007561de      4227           clr.b -(a7)
           0x007561e0      3f11           move.w (a1), -(a7)
           0x007561e2      3f29004c       move.w 0x4c(a1), -(a7)
           0x007561e6      2f14           move.l (a4), -(a7)
           0x007561e8      486f0018       pea.l 0x18(a7)
           0x007561ec      48780001       pea.l 0x1
           0x007561f0      48780008       pea.l 0x8
           0x007561f4      2f2e000c       move.l 0xc(a6), -(a7)
           0x007561f8      2f2e0008       move.l 0x8(a6), -(a7)
           0x007561fc      48780000       pea.l 0x0
           0x00756200      4ebad0e0       jsr MENULIBCOM.new_box_id(pc)
           0x00756204      dec6           adda.w d6, a7
           0x00756206      2eb90074d772   move.l 0x74d772, (a7)
           0x0075620c      48690050       pea.l 0x50(a1)
           0x00756210      3f03           move.w d3, -(a7)
           0x00756212      3f3c0003       move.w 0x3, -(a7)
           0x00756216      3f05           move.w d5, -(a7)
           0x00756218      3f04           move.w d4, -(a7)
           0x0075621a      1f07           move.b d7, -(a7)
           0x0075621c      4227           clr.b -(a7)
           0x0075621e      3f11           move.w (a1), -(a7)
           0x00756220      3f29004c       move.w 0x4c(a1), -(a7)
           0x00756224      2f14           move.l (a4), -(a7)
           0x00756226      486f0018       pea.l 0x18(a7)
           0x0075622a      48780001       pea.l 0x1
           0x0075622e      48780004       pea.l 0x4
           0x00756232      2f2e000c       move.l 0xc(a6), -(a7)
           0x00756236      2f2e0008       move.l 0x8(a6), -(a7)
           0x0075623a      48780000       pea.l 0x0
           0x0075623e      4ebad0a2       jsr MENULIBCOM.new_box_id(pc)
           0x00756242      dec6           adda.w d6, a7
           0x00756244      4cdf1fff       movem.l (a7)+, d0-d7/a0-a4
           0x00756248      4e5e           unlk a6
           0x0075624a      4e75           rts
            ; CALL XREF from MENULIBCOM.init_boxes @ 0x756db0
 1052: fcn.0075624c ();
           0x0075624c      4e56ff8c       link.w a6, 0xff8c
           0x00756250      bfd5           cmpa.l (a5), a7
       < 0x00756252      6206           bhi.b 0x75625a
          0x00756254      44fc0002       move.w 0x2, ccr
          0x00756258      4e76           trapv
       > 0x0075625a      defc0074       adda.w 0x74, a7
           0x0075625e      48e7fef8       movem.l d0-d6/a0-a4, -(a7)
           0x00756262      7601           moveq 0x1, d3
           0x00756264      7832           moveq 0x32, d4
           0x00756266      7a30           moveq 0x30, d5
           0x00756268      7c09           moveq 0x9, d6
           0x0075626a      102e000c       move.b 0xc(a6), d0
           0x0075626e      4880           ext.w d0
           0x00756270      323c05d4       move.w 0x5d4, d1
           0x00756274      c3c0           muls.w d0, d1
           0x00756276      41f90086d27a   lea.l 0x86d27a, a0
           0x0075627c      43f01046       lea.l 0x46(a0, d1.w), a1
           0x00756280      5d4f           subq.w 0x6, a7
           0x00756282      244f           movea.l a7, a2
           0x00756284      47f90074d777   lea.l 0x74d777, a3
           0x0075628a      7404           moveq 0x4, d2
       > 0x0075628c      14db           move.b (a3)+, (a2)+
       < 0x0075628e      51cafffc       dbra d2, 0x75628c
           0x00756292      486900f4       pea.l 0xf4(a1)
           0x00756296      4267           clr.w -(a7)
           0x00756298      4267           clr.w -(a7)
           0x0075629a      4267           clr.w -(a7)
           0x0075629c      4267           clr.w -(a7)
           0x0075629e      1f03           move.b d3, -(a7)
           0x007562a0      4227           clr.b -(a7)
           0x007562a2      3f2e000a       move.w 0xa(a6), -(a7)
           0x007562a6      4267           clr.w -(a7)
           0x007562a8      2f390074cf18   move.l 0x74cf18, -(a7)
           0x007562ae      486f0018       pea.l 0x18(a7)
           0x007562b2      48780001       pea.l 0x1
           0x007562b6      48780005       pea.l 0x5
           0x007562ba      486d0010       pea.l 0x10(a5)
           0x007562be      487900481fee   pea.l MENUCOM.hit_nothing
           0x007562c4      4eb900487aa6   jsr MENUCOM.new_box
           0x007562ca      defc002a       adda.w 0x2a, a7
           0x007562ce      244f           movea.l a7, a2
           0x007562d0      47f90074d77d   lea.l 0x74d77d, a3
           0x007562d6      7406           moveq 0x6, d2
       > 0x007562d8      14db           move.b (a3)+, (a2)+
       < 0x007562da      51cafffc       dbra d2, 0x7562d8
           0x007562de      486900f8       pea.l 0xf8(a1)
           0x007562e2      4267           clr.w -(a7)
           0x007562e4      4267           clr.w -(a7)
           0x007562e6      4267           clr.w -(a7)
           0x007562e8      4267           clr.w -(a7)
           0x007562ea      1f03           move.b d3, -(a7)
           0x007562ec      4227           clr.b -(a7)
           0x007562ee      3f2e000a       move.w 0xa(a6), -(a7)
           0x007562f2      3f2900f4       move.w 0xf4(a1), -(a7)
           0x007562f6      2f390074cf18   move.l 0x74cf18, -(a7)
           0x007562fc      486f0018       pea.l 0x18(a7)
           0x00756300      48780001       pea.l 0x1
           0x00756304      48780007       pea.l 0x7
           0x00756308      486d0010       pea.l 0x10(a5)
           0x0075630c      487900481fee   pea.l MENUCOM.hit_nothing
           0x00756312      4eb900487aa6   jsr MENUCOM.new_box
           0x00756318      dec4           adda.w d4, a7
           0x0075631a      3ea900f8       move.w 0xf8(a1), (a7)
           0x0075631e      1f06           move.b d6, -(a7)
           0x00756320      1f03           move.b d3, -(a7)
           0x00756322      4eb900486936   jsr MENUCOM.set_menu_flag
           0x00756328      244f           movea.l a7, a2
           0x0075632a      47f90074d785   lea.l 0x74d785, a3
           0x00756330      7405           moveq 0x5, d2
       > 0x00756332      14db           move.b (a3)+, (a2)+
       < 0x00756334      51cafffc       dbra d2, 0x756332
           0x00756338      486900fa       pea.l 0xfa(a1)
           0x0075633c      4267           clr.w -(a7)
           0x0075633e      4267           clr.w -(a7)
           0x00756340      4267           clr.w -(a7)
           0x00756342      4267           clr.w -(a7)
           0x00756344      1f03           move.b d3, -(a7)
           0x00756346      4227           clr.b -(a7)
           0x00756348      3f2e000a       move.w 0xa(a6), -(a7)
           0x0075634c      3f2900f4       move.w 0xf4(a1), -(a7)
           0x00756350      2f390074cf18   move.l 0x74cf18, -(a7)
           0x00756356      486f0018       pea.l 0x18(a7)
           0x0075635a      48780001       pea.l 0x1
           0x0075635e      48780006       pea.l 0x6
           0x00756362      486d0010       pea.l 0x10(a5)
           0x00756366      487900481fee   pea.l MENUCOM.hit_nothing
           0x0075636c      4eb900487aa6   jsr MENUCOM.new_box
           0x00756372      dec5           adda.w d5, a7
           0x00756374      3ea900fa       move.w 0xfa(a1), (a7)
           0x00756378      1f06           move.b d6, -(a7)
           0x0075637a      1f03           move.b d3, -(a7)
           0x0075637c      4eb900486936   jsr MENUCOM.set_menu_flag
           0x00756382      554f           subq.w 0x2, a7
           0x00756384      2eb90074d78c   move.l 0x74d78c, (a7)
           0x0075638a      3f790074d790.  move.w 0x74d790, 0x4(a7)
           0x00756392      1f790074d792.  move.b 0x74d792, 0x6(a7)
           0x0075639a      48690104       pea.l 0x104(a1)
           0x0075639e      4267           clr.w -(a7)
           0x007563a0      4267           clr.w -(a7)
           0x007563a2      4267           clr.w -(a7)
           0x007563a4      4267           clr.w -(a7)
           0x007563a6      1f03           move.b d3, -(a7)
           0x007563a8      4227           clr.b -(a7)
           0x007563aa      3f2e000a       move.w 0xa(a6), -(a7)
           0x007563ae      3f2900f4       move.w 0xf4(a1), -(a7)
           0x007563b2      2f390074cf18   move.l 0x74cf18, -(a7)
           0x007563b8      486f0018       pea.l 0x18(a7)
           0x007563bc      48780001       pea.l 0x1
           0x007563c0      48780007       pea.l 0x7
           0x007563c4      486d0010       pea.l 0x10(a5)
           0x007563c8      487900481fee   pea.l MENUCOM.hit_nothing
           0x007563ce      4eb900487aa6   jsr MENUCOM.new_box
           0x007563d4      dec4           adda.w d4, a7
           0x007563d6      3ea90104       move.w 0x104(a1), (a7)
           0x007563da      3f390086d2b4   move.w 0x86d2b4, -(a7)
           0x007563e0      4eb900486f94   jsr MENUCOM.add_slave
           0x007563e6      584f           addq.w 0x4, a7
           0x007563e8      48780000       pea.l 0x0
           0x007563ec      3f290104       move.w 0x104(a1), -(a7)
           0x007563f0      48690520       pea.l 0x520(a1)
           0x007563f4      48690522       pea.l 0x522(a1)
           0x007563f8      486d0010       pea.l 0x10(a5)
           0x007563fc      487a99ba       pea.l 0x74fdb8(pc)
           0x00756400      486d0010       pea.l 0x10(a5)
           0x00756404      487a99f6       pea.l 0x74fdfc(pc)
           0x00756408      4ebae5e2       jsr MENULIBCOM.define_number_b(pc)
           0x0075640c      defc001a       adda.w 0x1a, a7
           0x00756410      2eb90074d798   move.l 0x74d798, (a7)
           0x00756416      2f390074d794   move.l 0x74d794, -(a7)
           0x0075641c      48690106       pea.l 0x106(a1)
           0x00756420      4267           clr.w -(a7)
           0x00756422      4267           clr.w -(a7)
           0x00756424      4267           clr.w -(a7)
           0x00756426      4267           clr.w -(a7)
           0x00756428      1f03           move.b d3, -(a7)
           0x0075642a      4227           clr.b -(a7)
           0x0075642c      3f2e000a       move.w 0xa(a6), -(a7)
           0x00756430      3f2900f4       move.w 0xf4(a1), -(a7)
           0x00756434      2f390074cf18   move.l 0x74cf18, -(a7)
           0x0075643a      486f0018       pea.l 0x18(a7)
           0x0075643e      48780001       pea.l 0x1
           0x00756442      48780008       pea.l 0x8
           0x00756446      486d0010       pea.l 0x10(a5)
           0x0075644a      487900481fee   pea.l MENUCOM.hit_nothing
           0x00756450      4eb900487aa6   jsr MENUCOM.new_box
           0x00756456      dec4           adda.w d4, a7
           0x00756458      3ea90106       move.w 0x106(a1), (a7)
           0x0075645c      3f390086d2b4   move.w 0x86d2b4, -(a7)
           0x00756462      4eb900486f94   jsr MENUCOM.add_slave
           0x00756468      584f           addq.w 0x4, a7
           0x0075646a      48780000       pea.l 0x0
           0x0075646e      3f290106       move.w 0x106(a1), -(a7)
           0x00756472      48690508       pea.l 0x508(a1)
           0x00756476      486d0010       pea.l 0x10(a5)
           0x0075647a      487a9808       pea.l MENULIBCOM.hit_retitle_num(pc)
           0x0075647e      4ebadeac       jsr MENULIBCOM.define_numbers_(pc)
           0x00756482      defc000c       adda.w 0xc, a7
           0x00756486      244f           movea.l a7, a2
           0x00756488      47f90074d79d   lea.l 0x74d79d, a3
           0x0075648e      7404           moveq 0x4, d2
       > 0x00756490      14db           move.b (a3)+, (a2)+
       < 0x00756492      51cafffc       dbra d2, 0x756490
           0x00756496      48690108       pea.l 0x108(a1)
           0x0075649a      4267           clr.w -(a7)
           0x0075649c      4267           clr.w -(a7)
           0x0075649e      4267           clr.w -(a7)
           0x007564a0      4267           clr.w -(a7)
           0x007564a2      1f03           move.b d3, -(a7)
           0x007564a4      4227           clr.b -(a7)
           0x007564a6      3f2e000a       move.w 0xa(a6), -(a7)
           0x007564aa      3f2900f4       move.w 0xf4(a1), -(a7)
           0x007564ae      2f390074cf18   move.l 0x74cf18, -(a7)
           0x007564b4      486f0018       pea.l 0x18(a7)
           0x007564b8      48780001       pea.l 0x1
           0x007564bc      48780005       pea.l 0x5
           0x007564c0      486d0010       pea.l 0x10(a5)
           0x007564c4      487900481fee   pea.l MENUCOM.hit_nothing
           0x007564ca      4eb900487aa6   jsr MENUCOM.new_box
           0x007564d0      dec5           adda.w d5, a7
           0x007564d2      3ea90108       move.w 0x108(a1), (a7)
           0x007564d6      3f390086d2b4   move.w 0x86d2b4, -(a7)
           0x007564dc      4eb900486f94   jsr MENUCOM.add_slave
           0x007564e2      584f           addq.w 0x4, a7
           0x007564e4      48780000       pea.l 0x0
           0x007564e8      48690108       pea.l 0x108(a1)
           0x007564ec      48690598       pea.l 0x598(a1)
           0x007564f0      4869059a       pea.l 0x59a(a1)
           0x007564f4      4869059c       pea.l 0x59c(a1)
           0x007564f8      486d0010       pea.l 0x10(a5)
           0x007564fc      487a8bc4       pea.l 0x74f0c2(pc)
           0x00756500      486d0010       pea.l 0x10(a5)
           0x00756504      487a8fec       pea.l 0x74f4f2(pc)
           0x00756508      486d0010       pea.l 0x10(a5)
           0x0075650c      487a907a       pea.l 0x74f588(pc)
           0x00756510      4ebae9be       jsr MENULIBCOM.define_date_box(pc)
           0x00756514      defc0026       adda.w 0x26, a7
           0x00756518      244f           movea.l a7, a2
           0x0075651a      47f90074d7a3   lea.l 0x74d7a3, a3
           0x00756520      7404           moveq 0x4, d2
       > 0x00756522      14db           move.b (a3)+, (a2)+
       < 0x00756524      51cafffc       dbra d2, 0x756522
           0x00756528      4869010a       pea.l 0x10a(a1)
           0x0075652c      4267           clr.w -(a7)
           0x0075652e      4267           clr.w -(a7)
           0x00756530      4267           clr.w -(a7)
           0x00756532      4267           clr.w -(a7)
           0x00756534      1f03           move.b d3, -(a7)
           0x00756536      4227           clr.b -(a7)
           0x00756538      3f2e000a       move.w 0xa(a6), -(a7)
           0x0075653c      3f2900f4       move.w 0xf4(a1), -(a7)
           0x00756540      2f390074cf18   move.l 0x74cf18, -(a7)
           0x00756546      486f0018       pea.l 0x18(a7)
           0x0075654a      48780001       pea.l 0x1
           0x0075654e      48780005       pea.l 0x5
           0x00756552      486d0010       pea.l 0x10(a5)
           0x00756556      487900481fee   pea.l MENUCOM.hit_nothing
           0x0075655c      4eb900487aa6   jsr MENUCOM.new_box
           0x00756562      dec5           adda.w d5, a7
           0x00756564      3ea9010a       move.w 0x10a(a1), (a7)
           0x00756568      3f390086d2b4   move.w 0x86d2b4, -(a7)
           0x0075656e      4eb900486f94   jsr MENUCOM.add_slave
           0x00756574      584f           addq.w 0x4, a7
           0x00756576      48780000       pea.l 0x0
           0x0075657a      3f29010a       move.w 0x10a(a1), -(a7)
           0x0075657e      48690584       pea.l 0x584(a1)
           0x00756582      486d0010       pea.l 0x10(a5)
           0x00756586      487a8a6e       pea.l MENULIBCOM.hit_retitle_dat(pc)
           0x0075658a      486d0010       pea.l 0x10(a5)
           0x0075658e      487a8e82       pea.l MENULIBCOM.hit_retitle_ins(pc)
           0x00756592      4ebae5e0       jsr MENULIBCOM.define_dates_bo(pc)
           0x00756596      defc0012       adda.w 0x12, a7
           0x0075659a      244f           movea.l a7, a2
           0x0075659c      47f90074d7a9   lea.l 0x74d7a9, a3
           0x007565a2      7407           moveq 0x7, d2
       > 0x007565a4      14db           move.b (a3)+, (a2)+
       < 0x007565a6      51cafffc       dbra d2, 0x7565a4
           0x007565aa      48690102       pea.l 0x102(a1)
           0x007565ae      4267           clr.w -(a7)
           0x007565b0      4267           clr.w -(a7)
           0x007565b2      4267           clr.w -(a7)
           0x007565b4      4267           clr.w -(a7)
           0x007565b6      1f03           move.b d3, -(a7)
           0x007565b8      4227           clr.b -(a7)
           0x007565ba      3f2e000a       move.w 0xa(a6), -(a7)
           0x007565be      3f2900f4       move.w 0xf4(a1), -(a7)
           0x007565c2      2f390074cf18   move.l 0x74cf18, -(a7)
           0x007565c8      486f0018       pea.l 0x18(a7)
           0x007565cc      48780001       pea.l 0x1
           0x007565d0      48780008       pea.l 0x8
           0x007565d4      486d0010       pea.l 0x10(a5)
           0x007565d8      487900481fee   pea.l MENUCOM.hit_nothing
           0x007565de      4eb900487aa6   jsr MENUCOM.new_box
           0x007565e4      dec4           adda.w d4, a7
           0x007565e6      3ea90102       move.w 0x102(a1), (a7)
           0x007565ea      3f390086d2b4   move.w 0x86d2b4, -(a7)
           0x007565f0      4eb900486f94   jsr MENUCOM.add_slave
           0x007565f6      2eb90074d7b4   move.l 0x74d7b4, (a7)
           0x007565fc      3f390074d7b2   move.w 0x74d7b2, -(a7)
           0x00756602      486900fe       pea.l 0xfe(a1)
           0x00756606      4267           clr.w -(a7)
           0x00756608      4267           clr.w -(a7)
           0x0075660a      4267           clr.w -(a7)
           0x0075660c      4267           clr.w -(a7)
           0x0075660e      1f03           move.b d3, -(a7)
           0x00756610      4227           clr.b -(a7)
           0x00756612      3f2e000a       move.w 0xa(a6), -(a7)
           0x00756616      3f2900f4       move.w 0xf4(a1), -(a7)
           0x0075661a      2f390074cf18   move.l 0x74cf18, -(a7)
           0x00756620      486f0018       pea.l 0x18(a7)
           0x00756624      48780001       pea.l 0x1
           0x00756628      48780006       pea.l 0x6
           0x0075662c      486d0010       pea.l 0x10(a5)
           0x00756630      487900481fee   pea.l MENUCOM.hit_nothing
           0x00756636      4eb900487aa6   jsr MENUCOM.new_box
           0x0075663c      dec5           adda.w d5, a7
           0x0075663e      3ea900fe       move.w 0xfe(a1), (a7)
           0x00756642      3f390086d2b4   move.w 0x86d2b4, -(a7)
           0x00756648      4eb900486f94   jsr MENUCOM.add_slave
           0x0075664e      544f           addq.w 0x2, a7
           0x00756650      1e80           move.b d0, (a7)
           0x00756652      1f2e0008       move.b 0x8(a6), -(a7)
           0x00756656      3f2900fe       move.w 0xfe(a1), -(a7)
           0x0075665a      4ebad896       jsr MENULIBCOM.define_retitle_(pc)
           0x0075665e      5c4f           addq.w 0x6, a7
           0x00756660      4cdf1f7f       movem.l (a7)+, d0-d6/a0-a4
           0x00756664      4e5e           unlk a6
           0x00756666      4e75           rts
            ; XREFS(44)
 170: MENULIBCOM.hide_types_boxe ();
           0x00756668      4e56ffd6       link.w a6, 0xffd6
           0x0075666c      bfd5           cmpa.l (a5), a7
       < 0x0075666e      6206           bhi.b 0x756676
          0x00756670      44fc0002       move.w 0x2, ccr
          0x00756674      4e76           trapv
       > 0x00756676      defc002a       adda.w 0x2a, a7
           0x0075667a      48e7c0e0       movem.l d0-d1/a0-a2, -(a7)
           0x0075667e      45f900482304   lea.l MENUCOM.hide_box, a2
           0x00756684      10390086d27e   move.b 0x86d27e, d0
           0x0075668a      4880           ext.w d0
           0x0075668c      c1fc05d4       muls.w 0x5d4, d0
           0x00756690      41f90086d27a   lea.l 0x86d27a, a0
           0x00756696      4a390086d27f   tst.b 0x86d27f
       < 0x0075669c      661e           bne.b 0x7566bc
          0x0075669e      122e0008       move.b 0x8(a6), d1
          0x007566a2      4881           ext.w d1
          0x007566a4      e341           asl.w 0x1, d1
          0x007566a6      43f00046       lea.l 0x46(a0, d0.w), a1
          0x007566aa      43f11000       lea.l (a1, d1.w), a1
          0x007566ae      4a69010c       tst.w 0x10c(a1)
      < 0x007566b2      6708           beq.b 0x7566bc
         0x007566b4      3f29010c       move.w 0x10c(a1), -(a7)
         0x007566b8      4e92           jsr (a2)                    ; fcn.00000009+0x2
         0x007566ba      544f           addq.w 0x2, a7
      > 0x007566bc      122e0008       move.b 0x8(a6), d1
           0x007566c0      4881           ext.w d1
           0x007566c2      e341           asl.w 0x1, d1
           0x007566c4      43f00046       lea.l 0x46(a0, d0.w), a1
           0x007566c8      43f11000       lea.l (a1, d1.w), a1
           0x007566cc      2f09           move.l a1, -(a7)
           0x007566ce      4a690168       tst.w 0x168(a1)
       < 0x007566d2      6708           beq.b 0x7566dc
          0x007566d4      3f290168       move.w 0x168(a1), -(a7)
          0x007566d8      4e92           jsr (a2)                    ; fcn.00000009+0x2
          0x007566da      544f           addq.w 0x2, a7
       > 0x007566dc      2257           movea.l (a7), a1
           0x007566de      4a6901c4       tst.w 0x1c4(a1)
       < 0x007566e2      6708           beq.b 0x7566ec
          0x007566e4      3f2901c4       move.w 0x1c4(a1), -(a7)
          0x007566e8      4e92           jsr (a2)                    ; fcn.00000009+0x2
          0x007566ea      544f           addq.w 0x2, a7
       > 0x007566ec      4a690220       tst.w 0x220(a1)
       < 0x007566f0      6708           beq.b 0x7566fa
          0x007566f2      3f290220       move.w 0x220(a1), -(a7)
          0x007566f6      4e92           jsr (a2)                    ; fcn.00000009+0x2
          0x007566f8      544f           addq.w 0x2, a7
       > 0x007566fa      584f           addq.w 0x4, a7
           0x007566fc      4a6902a6       tst.w 0x2a6(a1)
       < 0x00756700      6708           beq.b 0x75670a
          0x00756702      3f2902a6       move.w 0x2a6(a1), -(a7)
          0x00756706      4e92           jsr (a2)                    ; fcn.00000009+0x2
          0x00756708      544f           addq.w 0x2, a7
       > 0x0075670a      4cdf0703       movem.l (a7)+, d0-d1/a0-a2
           0x0075670e      4e5e           unlk a6
           0x00756710      4e75           rts
            ; CALL XREF from MENULIBCOM.init_boxes @ 0x756840
 132: MENULIBCOM.setup_tabs ();
           0x00756712      4e56ffc6       link.w a6, 0xffc6
           0x00756716      bfd5           cmpa.l (a5), a7
       < 0x00756718      6206           bhi.b 0x756720
          0x0075671a      44fc0002       move.w 0x2, ccr
          0x0075671e      4e76           trapv
       > 0x00756720      defc0030       adda.w 0x30, a7
           0x00756724      48e7c0c0       movem.l d0-d1/a0-a1, -(a7)
           0x00756728      41f80001       lea.l 0x1, a0
           0x0075672c      43eefff6       lea.l -0xa(a6), a1
           0x00756730      7214           moveq 0x14, d1
           0x00756732      514f           subq.w 0x8, a7
           0x00756734      4878000a       pea.l 0xa
           0x00756738      4850           pea.l (a0)
           0x0075673a      4850           pea.l (a0)
           0x0075673c      4850           pea.l (a0)
           0x0075673e      486efffe       pea.l -0x2(a6)
           0x00756742      4eb900485c68   jsr MENUCOM.calc_boxarea
           0x00756748      dec1           adda.w d1, a7
           0x0075674a      229f           move.l (a7)+, (a1)
           0x0075674c      2d5ffffa       move.l (a7)+, -0x6(a6)
           0x00756750      3011           move.w (a1), d0
           0x00756752      48c0           ext.l d0
           0x00756754      2f00           move.l d0, -(a7)
           0x00756756      48780002       pea.l 0x2
           0x0075675a      4eb900486b38   jsr MENUCOM.add_menu_tab
           0x00756760      4878000e       pea.l 0xe
           0x00756764      4850           pea.l (a0)
           0x00756766      4850           pea.l (a0)
           0x00756768      4850           pea.l (a0)
           0x0075676a      486efffe       pea.l -0x2(a6)
           0x0075676e      4eb900485c68   jsr MENUCOM.calc_boxarea
           0x00756774      dec1           adda.w d1, a7
           0x00756776      229f           move.l (a7)+, (a1)
           0x00756778      2d5ffffa       move.l (a7)+, -0x6(a6)
           0x0075677c      3011           move.w (a1), d0
           0x0075677e      48c0           ext.l d0
           0x00756780      2f00           move.l d0, -(a7)
           0x00756782      48780002       pea.l 0x2
           0x00756786      4eb900486b38   jsr MENUCOM.add_menu_tab
           0x0075678c      504f           addq.w 0x8, a7
           0x0075678e      4cdf0303       movem.l (a7)+, d0-d1/a0-a1
           0x00756792      4e5e           unlk a6
           0x00756794      4e75           rts
            ; CALL XREF from MENULIBCOM.init_boxes @ 0x756d1c
 88: MENULIBCOM.setup_fnd_tabs ();
           0x00756796      4e56ffce       link.w a6, 0xffce
           0x0075679a      bfd5           cmpa.l (a5), a7
       < 0x0075679c      6206           bhi.b 0x7567a4
          0x0075679e      44fc0002       move.w 0x2, ccr
          0x007567a2      4e76           trapv
       > 0x007567a4      defc0028       adda.w 0x28, a7
           0x007567a8      48e78080       movem.l d0/a0, -(a7)
           0x007567ac      41f80001       lea.l 0x1, a0
           0x007567b0      514f           subq.w 0x8, a7
           0x007567b2      48780012       pea.l 0x12
           0x007567b6      4850           pea.l (a0)
           0x007567b8      4850           pea.l (a0)
           0x007567ba      4850           pea.l (a0)
           0x007567bc      486efffe       pea.l -0x2(a6)
           0x007567c0      4eb900485c68   jsr MENUCOM.calc_boxarea
           0x007567c6      defc0014       adda.w 0x14, a7
           0x007567ca      2d5ffff6       move.l (a7)+, -0xa(a6)
           0x007567ce      2d5ffffa       move.l (a7)+, -0x6(a6)
           0x007567d2      302efff6       move.w -0xa(a6), d0
           0x007567d6      48c0           ext.l d0
           0x007567d8      2f00           move.l d0, -(a7)
           0x007567da      48780002       pea.l 0x2
           0x007567de      4eb900486b38   jsr MENUCOM.add_menu_tab
           0x007567e4      504f           addq.w 0x8, a7
           0x007567e6      4cdf0101       movem.l (a7)+, d0/a0
           0x007567ea      4e5e           unlk a6
           0x007567ec      4e75           rts
            ; CALL XREFS from MENULIBCOM.men_library_box @ 0x75745c, 0x757574, 0x75757e
 3026: MENULIBCOM.init_boxes ();
           0x007567ee      4e56ff7a       link.w a6, 0xff7a
           0x007567f2      bfd5           cmpa.l (a5), a7
       < 0x007567f4      6206           bhi.b 0x7567fc
          0x007567f6      44fc0002       move.w 0x2, ccr
          0x007567fa      4e76           trapv
       > 0x007567fc      defc0076       adda.w 0x76, a7
           0x00756800      48e7fff8       movem.l d0-d7/a0-a4, -(a7)
           0x00756804      47ed0010       lea.l 0x10(a5), a3
           0x00756808      7801           moveq 0x1, d4
           0x0075680a      7a03           moveq 0x3, d5
           0x0075680c      102e0008       move.b 0x8(a6), d0
           0x00756810      4880           ext.w d0
           0x00756812      323c05d4       move.w 0x5d4, d1
           0x00756816      c3c0           muls.w d0, d1
           0x00756818      41f90086d27a   lea.l 0x86d27a, a0
           0x0075681e      1f00           move.b d0, -(a7)
           0x00756820      4ebab6d0       jsr MENULIBCOM.select_library(pc)
           0x00756824      544f           addq.w 0x2, a7
           0x00756826      4a390086d27f   tst.b 0x86d27f
       < 0x0075682c      6704           beq.b 0x756832
          0x0075682e      7e01           moveq 0x1, d7
      < 0x00756830      600e           bra.b 0x756840
      > 0x00756832      4a390086d280   tst.b 0x86d280
      < 0x00756838      6704           beq.b 0x75683e
         0x0075683a      7e02           moveq 0x2, d7
     < 0x0075683c      6002           bra.b 0x756840
     > 0x0075683e      7e00           moveq 0x0, d7
     > 0x00756840      4ebafed0       jsr MENULIBCOM.setup_tabs(pc)
           0x00756844      4a40           tst.w d0
       < 0x00756846      66000082       bne.w 0x7568ca
          0x0075684a      514f           subq.w 0x8, a7
          0x0075684c      224f           movea.l a7, a1
          0x0075684e      45f90074d7b9   lea.l 0x74d7b9, a2
          0x00756854      7406           moveq 0x6, d2
      > 0x00756856      12da           move.b (a2)+, (a1)+
      < 0x00756858      51cafffc       dbra d2, 0x756856
          0x0075685c      3f3c0007       move.w 0x7, -(a7)
          0x00756860      3f04           move.w d4, -(a7)
          0x00756862      3f3c0006       move.w 0x6, -(a7)
          0x00756866      3f3c0005       move.w 0x5, -(a7)
          0x0075686a      3f04           move.w d4, -(a7)
          0x0075686c      1f3c0002       move.b 0x2, -(a7)
          0x00756870      4227           clr.b -(a7)
          0x00756872      3f04           move.w d4, -(a7)
          0x00756874      4282           clr.l d2
          0x00756876      342c0008       move.w 0x8(a4), d2
          0x0075687a      0482ffff8000   subi.l 0xffff8000, d2
          0x00756880      0c820000ffff   cmpi.l 0xffff, d2
      < 0x00756886      6302           bls.b 0x75688a
         0x00756888      4e4f           trap 0xf
      > 0x0075688a      0682ffff8000   addi.l 0xffff8000, d2
          0x00756890      3f02           move.w d2, -(a7)
          0x00756892      2f390074cf18   move.l 0x74cf18, -(a7)
          0x00756898      486f0016       pea.l 0x16(a7)
          0x0075689c      48780001       pea.l 0x1
          0x007568a0      48780007       pea.l 0x7
          0x007568a4      4853           pea.l (a3)
          0x007568a6      487ac1f0       pea.l MENULIBCOM.hit_library(pc)
          0x007568aa      4eb900487686   jsr MENUCOM.def_box
          0x007568b0      defc0032       adda.w 0x32, a7
          0x007568b4      7c07           moveq 0x7, d6
          0x007568b6      3f3c0007       move.w 0x7, -(a7)
          0x007568ba      48780000       pea.l 0x0
          0x007568be      4eb90048402c   jsr MENUCOM.set_b_id
          0x007568c4      5c4f           addq.w 0x6, a7
      < 0x007568c6      600000da       bra.w 0x7569a2
      > 0x007568ca      b004           cmp.b d4, d0
      < 0x007568cc      6668           bne.b 0x756936
         0x007568ce      5d4f           subq.w 0x6, a7
         0x007568d0      224f           movea.l a7, a1
         0x007568d2      45f90074d7c1   lea.l 0x74d7c1, a2
         0x007568d8      7404           moveq 0x4, d2
     > 0x007568da      12da           move.b (a2)+, (a1)+
     < 0x007568dc      51cafffc       dbra d2, 0x7568da
         0x007568e0      3f3c00ea       move.w 0xea, -(a7)
         0x007568e4      3f04           move.w d4, -(a7)
         0x007568e6      3f3c0006       move.w 0x6, -(a7)
         0x007568ea      3f3c0005       move.w 0x5, -(a7)
         0x007568ee      3f04           move.w d4, -(a7)
         0x007568f0      1f3c0002       move.b 0x2, -(a7)
         0x007568f4      4227           clr.b -(a7)
         0x007568f6      3f3c00e6       move.w 0xe6, -(a7)
         0x007568fa      3f3c0007       move.w 0x7, -(a7)
         0x007568fe      2f390074cf18   move.l 0x74cf18, -(a7)
         0x00756904      486f0016       pea.l 0x16(a7)
         0x00756908      48780001       pea.l 0x1
         0x0075690c      48780005       pea.l 0x5
         0x00756910      4853           pea.l (a3)
         0x00756912      487ac184       pea.l MENULIBCOM.hit_library(pc)
         0x00756916      4eb900487686   jsr MENUCOM.def_box
         0x0075691c      defc002e       adda.w 0x2e, a7
         0x00756920      3ebc00ea       move.w 0xea, (a7)
         0x00756924      48780001       pea.l 0x1
         0x00756928      4eb90048402c   jsr MENUCOM.set_b_id
         0x0075692e      5c4f           addq.w 0x6, a7
         0x00756930      3c3c00ea       move.w 0xea, d6
     < 0x00756934      606c           bra.b 0x7569a2
     > 0x00756936      0c000002       cmpi.b 0x2, d0
     < 0x0075693a      6666           bne.b 0x7569a2
        0x0075693c      594f           subq.w 0x4, a7
        0x0075693e      1eb90074d7c7   move.b 0x74d7c7, (a7)
        0x00756944      1f790074d7c8.  move.b 0x74d7c8, 0x1(a7)
        0x0075694c      1f790074d7c9.  move.b 0x74d7c9, 0x2(a7)
        0x00756954      3f3c00f3       move.w 0xf3, -(a7)
        0x00756958      3f3c0006       move.w 0x6, -(a7)
        0x0075695c      3f05           move.w d5, -(a7)
        0x0075695e      3f04           move.w d4, -(a7)
        0x00756960      3f04           move.w d4, -(a7)
        0x00756962      1f3c0002       move.b 0x2, -(a7)
        0x00756966      4227           clr.b -(a7)
        0x00756968      4267           clr.w -(a7)
        0x0075696a      4267           clr.w -(a7)
        0x0075696c      2f390074cf18   move.l 0x74cf18, -(a7)
        0x00756972      486f0016       pea.l 0x16(a7)
        0x00756976      48780001       pea.l 0x1
        0x0075697a      48780003       pea.l 0x3
        0x0075697e      4853           pea.l (a3)
        0x00756980      487ac116       pea.l MENULIBCOM.hit_library(pc)
        0x00756984      4eb900487686   jsr MENUCOM.def_box
        0x0075698a      defc002c       adda.w 0x2c, a7
        0x0075698e      3ebc00f3       move.w 0xf3, (a7)
        0x00756992      48780002       pea.l 0x2
        0x00756996      4eb90048402c   jsr MENUCOM.set_b_id
        0x0075699c      5c4f           addq.w 0x6, a7
        0x0075699e      3c3c00f3       move.w 0xf3, d6
     > 0x007569a2      4a390086d27f   tst.b 0x86d27f
       < 0x007569a8      660000ec       bne.w 0x756a96
          0x007569ac      4a390086d280   tst.b 0x86d280
      < 0x007569b2      660000e2       bne.w 0x756a96
         0x007569b6      554f           subq.w 0x2, a7
         0x007569b8      4eb9004755c2   jsr CONFIG.cfg_gender
         0x007569be      141f           move.b (a7)+, d2
         0x007569c0      b405           cmp.b d5, d2
     < 0x007569c2      66000086       bne.w 0x756a4a
        0x007569c6      5d4f           subq.w 0x6, a7
        0x007569c8      224f           movea.l a7, a1
        0x007569ca      45f90074d7cb   lea.l 0x74d7cb, a2
        0x007569d0      7404           moveq 0x4, d2
    > 0x007569d2      12da           move.b (a2)+, (a1)+
    < 0x007569d4      51cafffc       dbra d2, 0x7569d2
        0x007569d8      3f3c00d2       move.w 0xd2, -(a7)
        0x007569dc      3f04           move.w d4, -(a7)
        0x007569de      3f3c0005       move.w 0x5, -(a7)
        0x007569e2      3f3c0004       move.w 0x4, -(a7)
        0x007569e6      3f04           move.w d4, -(a7)
        0x007569e8      1f3c0002       move.b 0x2, -(a7)
        0x007569ec      4227           clr.b -(a7)
        0x007569ee      3f04           move.w d4, -(a7)
        0x007569f0      4267           clr.w -(a7)
        0x007569f2      2f390074cf18   move.l 0x74cf18, -(a7)
        0x007569f8      486f0016       pea.l 0x16(a7)
        0x007569fc      48780001       pea.l 0x1
        0x00756a00      48780005       pea.l 0x5
        0x00756a04      4853           pea.l (a3)
        0x00756a06      487900481fee   pea.l MENUCOM.hit_nothing
        0x00756a0c      4eb900487686   jsr MENUCOM.def_box
        0x00756a12      defc002e       adda.w 0x2e, a7
        0x00756a16      1ebc0007       move.b 0x7, (a7)
        0x00756a1a      48780001       pea.l 0x1
        0x00756a1e      4eb9004048b4   jsr p_wtc_o
        0x00756a24      5c4f           addq.w 0x6, a7
        0x00756a26      48790074d7d1   pea.l 0x74d7d1
        0x00756a2c      48780033       pea.l 0x33
        0x00756a30      2f17           move.l (a7), -(a7)
        0x00756a32      4eb9004047ea   jsr p_wts_o
        0x00756a38      defc000c       adda.w 0xc, a7
        0x00756a3c      4eb900404946   jsr p_wtln_o
        0x00756a42      4eb900401620   jsr p_walkback
    < 0x00756a48      604c           bra.b 0x756a96
    > 0x00756a4a      554f           subq.w 0x2, a7
        0x00756a4c      1eb90074d805   move.b 0x74d805, (a7)
        0x00756a52      1f790074d806.  move.b 0x74d806, 0x1(a7)
        0x00756a5a      3f3c00d2       move.w 0xd2, -(a7)
        0x00756a5e      3f3c0006       move.w 0x6, -(a7)
        0x00756a62      3f3c0006       move.w 0x6, -(a7)
        0x00756a66      3f04           move.w d4, -(a7)
        0x00756a68      3f04           move.w d4, -(a7)
        0x00756a6a      1f3c0005       move.b 0x5, -(a7)
        0x00756a6e      4227           clr.b -(a7)
        0x00756a70      3f04           move.w d4, -(a7)
        0x00756a72      4267           clr.w -(a7)
        0x00756a74      2f390074cf18   move.l 0x74cf18, -(a7)
        0x00756a7a      486f0016       pea.l 0x16(a7)
        0x00756a7e      48780001       pea.l 0x1
        0x00756a82      48780002       pea.l 0x2
        0x00756a86      4853           pea.l (a3)
        0x00756a88      487ab3e4       pea.l MENULIBCOM.hit_panel(pc)
        0x00756a8c      4eb900487686   jsr MENUCOM.def_box
        0x00756a92      defc002c       adda.w 0x2c, a7
    > 0x00756a96      2f390074d808   move.l 0x74d808, -(a7)
           0x00756a9c      48701054       pea.l 0x54(a0, d1.w)
           0x00756aa0      3f3c0007       move.w 0x7, -(a7)
           0x00756aa4      3f04           move.w d4, -(a7)
           0x00756aa6      3f05           move.w d5, -(a7)
           0x00756aa8      3f04           move.w d4, -(a7)
           0x00756aaa      1f3c0002       move.b 0x2, -(a7)
           0x00756aae      4227           clr.b -(a7)
           0x00756ab0      3f06           move.w d6, -(a7)
           0x00756ab2      4267           clr.w -(a7)
           0x00756ab4      2f390074cf18   move.l 0x74cf18, -(a7)
           0x00756aba      486f0018       pea.l 0x18(a7)
           0x00756abe      48780001       pea.l 0x1
           0x00756ac2      48780004       pea.l 0x4
           0x00756ac6      4853           pea.l (a3)
           0x00756ac8      487aa4d4       pea.l MENULIBCOM.hit_skl(pc)
           0x00756acc      594f           subq.w 0x4, a7
           0x00756ace      1f04           move.b d4, -(a7)
           0x00756ad0      4eb90074e1ca   jsr MENULIBCOM.mask
           0x00756ad6      544f           addq.w 0x2, a7
           0x00756ad8      4ebac808       jsr MENULIBCOM.new_box_id(pc)
           0x00756adc      defc0030       adda.w 0x30, a7
           0x00756ae0      1eb90074d80d   move.b 0x74d80d, (a7)
           0x00756ae6      1f790074d80e.  move.b 0x74d80e, 0x1(a7)
           0x00756aee      1f790074d80f.  move.b 0x74d80f, 0x2(a7)
           0x00756af6      1f790074d810.  move.b 0x74d810, 0x3(a7)
           0x00756afe      48701052       pea.l 0x52(a0, d1.w)
           0x00756b02      3f3c0007       move.w 0x7, -(a7)
           0x00756b06      3f3c0002       move.w 0x2, -(a7)
           0x00756b0a      3f05           move.w d5, -(a7)
           0x00756b0c      3f04           move.w d4, -(a7)
           0x00756b0e      1f3c0002       move.b 0x2, -(a7)
           0x00756b12      4227           clr.b -(a7)
           0x00756b14      3f06           move.w d6, -(a7)
           0x00756b16      3f301054       move.w 0x54(a0, d1.w), -(a7)
           0x00756b1a      2f390074cf18   move.l 0x74cf18, -(a7)
           0x00756b20      486f0018       pea.l 0x18(a7)
           0x00756b24      48780001       pea.l 0x1
           0x00756b28      48780004       pea.l 0x4
           0x00756b2c      4853           pea.l (a3)
           0x00756b2e      487aa60c       pea.l MENULIBCOM.hit_save(pc)
           0x00756b32      594f           subq.w 0x4, a7
           0x00756b34      4227           clr.b -(a7)
           0x00756b36      4eb90074e1ca   jsr MENULIBCOM.mask
           0x00756b3c      544f           addq.w 0x2, a7
           0x00756b3e      5297           addq.l 0x1, (a7)
           0x00756b40      4ebac7a0       jsr MENULIBCOM.new_box_id(pc)
           0x00756b44      defc0030       adda.w 0x30, a7
           0x00756b48      2eb90074d814   move.l 0x74d814, (a7)
           0x00756b4e      3f390074d812   move.w 0x74d812, -(a7)
           0x00756b54      43f01046       lea.l 0x46(a0, d1.w), a1
           0x00756b58      486905c2       pea.l 0x5c2(a1)
           0x00756b5c      3f3c0007       move.w 0x7, -(a7)
           0x00756b60      3f3c0005       move.w 0x5, -(a7)
           0x00756b64      3f05           move.w d5, -(a7)
           0x00756b66      3f04           move.w d4, -(a7)
           0x00756b68      1f3c0005       move.b 0x5, -(a7)
           0x00756b6c      4227           clr.b -(a7)
           0x00756b6e      3f06           move.w d6, -(a7)
           0x00756b70      4267           clr.w -(a7)
           0x00756b72      2f390074cf18   move.l 0x74cf18, -(a7)
           0x00756b78      486f0018       pea.l 0x18(a7)
           0x00756b7c      48780001       pea.l 0x1
           0x00756b80      48780006       pea.l 0x6
           0x00756b84      4853           pea.l (a3)
           0x00756b86      487ab04a       pea.l MENULIBCOM.hit_recall(pc)
           0x00756b8a      4eb900487aa6   jsr MENUCOM.new_box
           0x00756b90      defc002e       adda.w 0x2e, a7
           0x00756b94      1eb90074d819   move.b 0x74d819, (a7)
           0x00756b9a      1f790074d81a.  move.b 0x74d81a, 0x1(a7)
           0x00756ba2      1f790074d81b.  move.b 0x74d81b, 0x2(a7)
           0x00756baa      1f790074d81c.  move.b 0x74d81c, 0x3(a7)
           0x00756bb2      48701056       pea.l 0x56(a0, d1.w)
           0x00756bb6      3f3c0007       move.w 0x7, -(a7)
           0x00756bba      3f05           move.w d5, -(a7)
           0x00756bbc      3f05           move.w d5, -(a7)
           0x00756bbe      3f04           move.w d4, -(a7)
           0x00756bc0      1f3c0002       move.b 0x2, -(a7)
           0x00756bc4      4227           clr.b -(a7)
           0x00756bc6      3f06           move.w d6, -(a7)
           0x00756bc8      3f301052       move.w 0x52(a0, d1.w), -(a7)
           0x00756bcc      2f390074cf18   move.l 0x74cf18, -(a7)
           0x00756bd2      486f0018       pea.l 0x18(a7)
           0x00756bd6      48780001       pea.l 0x1
           0x00756bda      48780004       pea.l 0x4
           0x00756bde      4853           pea.l (a3)
           0x00756be0      487aa3bc       pea.l MENULIBCOM.hit_skl(pc)
           0x00756be4      594f           subq.w 0x4, a7
           0x00756be6      1f3c0002       move.b 0x2, -(a7)
           0x00756bea      4eb90074e1ca   jsr MENULIBCOM.mask
           0x00756bf0      544f           addq.w 0x2, a7
           0x00756bf2      4ebac6ee       jsr MENULIBCOM.new_box_id(pc)
           0x00756bf6      defc0030       adda.w 0x30, a7
           0x00756bfa      2eb90074d81e   move.l 0x74d81e, (a7)
           0x00756c00      48701058       pea.l 0x58(a0, d1.w)
           0x00756c04      3f3c0007       move.w 0x7, -(a7)
           0x00756c08      3f3c0004       move.w 0x4, -(a7)
           0x00756c0c      3f05           move.w d5, -(a7)
           0x00756c0e      3f04           move.w d4, -(a7)
           0x00756c10      1f3c0002       move.b 0x2, -(a7)
           0x00756c14      4227           clr.b -(a7)
           0x00756c16      3f06           move.w d6, -(a7)
           0x00756c18      3f301056       move.w 0x56(a0, d1.w), -(a7)
           0x00756c1c      2f390074cf18   move.l 0x74cf18, -(a7)
           0x00756c22      486f0018       pea.l 0x18(a7)
           0x00756c26      48780001       pea.l 0x1
           0x00756c2a      48780004       pea.l 0x4
           0x00756c2e      4853           pea.l (a3)
           0x00756c30      487aa36c       pea.l MENULIBCOM.hit_skl(pc)
           0x00756c34      594f           subq.w 0x4, a7
           0x00756c36      1f05           move.b d5, -(a7)
           0x00756c38      4eb90074e1ca   jsr MENULIBCOM.mask
           0x00756c3e      544f           addq.w 0x2, a7
           0x00756c40      4ebac6a0       jsr MENULIBCOM.new_box_id(pc)
           0x00756c44      defc0034       adda.w 0x34, a7
           0x00756c48      4887           ext.w d7
           0x00756c4a      4fbc0002       chk.w 0x2, d7
           0x00756c4e      1f00           move.b d0, -(a7)
           0x00756c50      1f07           move.b d7, -(a7)
           0x00756c52      1f04           move.b d4, -(a7)
           0x00756c54      4ebae66e       jsr MENULIBCOM.define_skls_inp(pc)
           0x00756c58      584f           addq.w 0x4, a7
           0x00756c5a      1e80           move.b d0, (a7)
           0x00756c5c      1f07           move.b d7, -(a7)
           0x00756c5e      1f04           move.b d4, -(a7)
           0x00756c60      4853           pea.l (a3)
           0x00756c62      487aa068       pea.l MENULIBCOM.hit_skl_selecti(pc)
           0x00756c66      4ebaee60       jsr MENULIBCOM.define_skls_box(pc)
           0x00756c6a      defc000c       adda.w 0xc, a7
           0x00756c6e      1e80           move.b d0, (a7)
           0x00756c70      1f07           move.b d7, -(a7)
           0x00756c72      4227           clr.b -(a7)
           0x00756c74      4ebae64e       jsr MENULIBCOM.define_skls_inp(pc)
           0x00756c78      584f           addq.w 0x4, a7
           0x00756c7a      1e80           move.b d0, (a7)
           0x00756c7c      1f07           move.b d7, -(a7)
           0x00756c7e      4227           clr.b -(a7)
           0x00756c80      4853           pea.l (a3)
           0x00756c82      487aa1fa       pea.l MENULIBCOM.hit_save_select(pc)
           0x00756c86      4ebaee40       jsr MENULIBCOM.define_skls_box(pc)
           0x00756c8a      defc000c       adda.w 0xc, a7
           0x00756c8e      1e80           move.b d0, (a7)
           0x00756c90      1f07           move.b d7, -(a7)
           0x00756c92      1f3c0002       move.b 0x2, -(a7)
           0x00756c96      4ebae62c       jsr MENULIBCOM.define_skls_inp(pc)
           0x00756c9a      584f           addq.w 0x4, a7
           0x00756c9c      1e80           move.b d0, (a7)
           0x00756c9e      1f07           move.b d7, -(a7)
           0x00756ca0      1f3c0002       move.b 0x2, -(a7)
           0x00756ca4      4853           pea.l (a3)
           0x00756ca6      487aa024       pea.l MENULIBCOM.hit_skl_selecti(pc)
           0x00756caa      4ebaee1c       jsr MENULIBCOM.define_skls_box(pc)
           0x00756cae      defc000c       adda.w 0xc, a7
           0x00756cb2      1e80           move.b d0, (a7)
           0x00756cb4      1f07           move.b d7, -(a7)
           0x00756cb6      1f05           move.b d5, -(a7)
           0x00756cb8      4ebae60a       jsr MENULIBCOM.define_skls_inp(pc)
           0x00756cbc      584f           addq.w 0x4, a7
           0x00756cbe      1e80           move.b d0, (a7)
           0x00756cc0      1f07           move.b d7, -(a7)
           0x00756cc2      1f05           move.b d5, -(a7)
           0x00756cc4      4853           pea.l (a3)
           0x00756cc6      487aa004       pea.l MENULIBCOM.hit_skl_selecti(pc)
           0x00756cca      4ebaedfc       jsr MENULIBCOM.define_skls_box(pc)
           0x00756cce      504f           addq.w 0x8, a7
           0x00756cd0      224f           movea.l a7, a1
           0x00756cd2      45f90074d823   lea.l 0x74d823, a2
           0x00756cd8      7405           moveq 0x5, d2
       > 0x00756cda      12da           move.b (a2)+, (a1)+
       < 0x00756cdc      51cafffc       dbra d2, 0x756cda
           0x00756ce0      48701050       pea.l 0x50(a0, d1.w)
           0x00756ce4      4267           clr.w -(a7)
           0x00756ce6      4267           clr.w -(a7)
           0x00756ce8      4267           clr.w -(a7)
           0x00756cea      4267           clr.w -(a7)
           0x00756cec      1f3c000d       move.b 0xd, -(a7)
           0x00756cf0      4227           clr.b -(a7)
           0x00756cf2      3f06           move.w d6, -(a7)
           0x00756cf4      3f301054       move.w 0x54(a0, d1.w), -(a7)
           0x00756cf8      2f390074cf18   move.l 0x74cf18, -(a7)
           0x00756cfe      486f0018       pea.l 0x18(a7)
           0x00756d02      48780001       pea.l 0x1
           0x00756d06      48780006       pea.l 0x6
           0x00756d0a      4853           pea.l (a3)
           0x00756d0c      48790074da1a   pea.l MENULIBCOM.hit_found
           0x00756d12      4eb900487aa6   jsr MENUCOM.new_box
           0x00756d18      defc0032       adda.w 0x32, a7
           0x00756d1c      4ebafa78       jsr MENULIBCOM.setup_fnd_tabs(pc)
           0x00756d20      1f00           move.b d0, -(a7)
           0x00756d22      3f301050       move.w 0x50(a0, d1.w), -(a7)
           0x00756d26      3f06           move.w d6, -(a7)
           0x00756d28      4267           clr.w -(a7)
           0x00756d2a      43f01046       lea.l 0x46(a0, d1.w), a1
           0x00756d2e      3f290400       move.w 0x400(a1), -(a7)
           0x00756d32      3f301054       move.w 0x54(a0, d1.w), -(a7)
           0x00756d36      43f01046       lea.l 0x46(a0, d1.w), a1
           0x00756d3a      486905c8       pea.l 0x5c8(a1)
           0x00756d3e      48701046       pea.l 0x46(a0, d1.w)
           0x00756d42      4870104e       pea.l 0x4e(a0, d1.w)
           0x00756d46      4eb900759fa0   jsr MENULIBFNDCOM.init_found_menu
           0x00756d4c      defc0016       adda.w 0x16, a7
           0x00756d50      3eb01050       move.w 0x50(a0, d1.w), (a7)
           0x00756d54      1f04           move.b d4, -(a7)
           0x00756d56      4eb900483776   jsr MENUCOM.swtch_box
           0x00756d5c      2eb90074d82c   move.l 0x74d82c, (a7)
           0x00756d62      3f390074d82a   move.w 0x74d82a, -(a7)
           0x00756d68      48701048       pea.l 0x48(a0, d1.w)
           0x00756d6c      3f3c0014       move.w 0x14, -(a7)
           0x00756d70      3f3c0006       move.w 0x6, -(a7)
           0x00756d74      3f3c0004       move.w 0x4, -(a7)
           0x00756d78      3f04           move.w d4, -(a7)
           0x00756d7a      1f3c0005       move.b 0x5, -(a7)
           0x00756d7e      4227           clr.b -(a7)
           0x00756d80      3f301046       move.w 0x46(a0, d1.w), -(a7)
           0x00756d84      4267           clr.w -(a7)
           0x00756d86      2f390074cf18   move.l 0x74cf18, -(a7)
           0x00756d8c      486f0018       pea.l 0x18(a7)
           0x00756d90      48780001       pea.l 0x1
           0x00756d94      48780006       pea.l 0x6
           0x00756d98      4853           pea.l (a3)
           0x00756d9a      48790074d952   pea.l MENULIBCOM.hit_ignore_reti
           0x00756da0      4eb900487aa6   jsr MENUCOM.new_box
           0x00756da6      defc0030       adda.w 0x30, a7
           0x00756daa      1e80           move.b d0, (a7)
           0x00756dac      3f06           move.w d6, -(a7)
           0x00756dae      1f07           move.b d7, -(a7)
           0x00756db0      4ebaf49a       jsr fcn.0075624c(pc)
           0x00756db4      584f           addq.w 0x4, a7
           0x00756db6      1e80           move.b d0, (a7)
           0x00756db8      4853           pea.l (a3)
           0x00756dba      487aa16c       pea.l MENULIBCOM.hit_retitle_sel(pc)
           0x00756dbe      4ebaf32e       jsr fcn.007560ee(pc)
           0x00756dc2      defc000a       adda.w 0xa, a7
           0x00756dc6      4eb900758534   jsr MENULIBFNDCOM.push_fetch
           0x00756dcc      1f04           move.b d4, -(a7)
           0x00756dce      554f           subq.w 0x2, a7
           0x00756dd0      3f3c00bf       move.w 0xbf, -(a7)
           0x00756dd4      4eb900480fc2   jsr MENUCOM.get_boxon
           0x00756dda      544f           addq.w 0x2, a7
           0x00756ddc      1417           move.b (a7), d2
           0x00756dde      4882           ext.w d2
           0x00756de0      4584           chk.w d4, d2
           0x00756de2      1e82           move.b d2, (a7)
           0x00756de4      4eb90064b994   jsr K9_LIBRARY.k9_show_display
           0x00756dea      584f           addq.w 0x4, a7
           0x00756dec      4a390086d27f   tst.b 0x86d27f
       < 0x00756df2      6714           beq.b 0x756e08
          0x00756df4      43f01046       lea.l 0x46(a0, d1.w), a1
          0x00756df8      3f290184       move.w 0x184(a1), -(a7)
          0x00756dfc      4eb9004836a4   jsr MENUCOM.push_box
          0x00756e02      3ea90184       move.w 0x184(a1), (a7)
      < 0x00756e06      603a           bra.b 0x756e42
      > 0x00756e08      4a390086d280   tst.b 0x86d280
      < 0x00756e0e      671a           beq.b 0x756e2a
         0x00756e10      43f01046       lea.l 0x46(a0, d1.w), a1
         0x00756e14      3f2901a2       move.w 0x1a2(a1), -(a7)
         0x00756e18      4eb9004836a4   jsr MENUCOM.push_box
         0x00756e1e      544f           addq.w 0x2, a7
         0x00756e20      43f01046       lea.l 0x46(a0, d1.w), a1
         0x00756e24      3f290146       move.w 0x146(a1), -(a7)
     < 0x00756e28      6018           bra.b 0x756e42
     > 0x00756e2a      43f01046       lea.l 0x46(a0, d1.w), a1
         0x00756e2e      3f29016c       move.w 0x16c(a1), -(a7)
         0x00756e32      4eb9004836a4   jsr MENUCOM.push_box
         0x00756e38      544f           addq.w 0x2, a7
         0x00756e3a      43f01046       lea.l 0x46(a0, d1.w), a1
         0x00756e3e      3f290110       move.w 0x110(a1), -(a7)
     > 0x00756e42      4eb9004836a4   jsr MENUCOM.push_box
           0x00756e48      544f           addq.w 0x2, a7
           0x00756e4a      4227           clr.b -(a7)
           0x00756e4c      4eb90074e28a   jsr MENULIBCOM.upd_vol
           0x00756e52      1e84           move.b d4, (a7)
           0x00756e54      4eb90074e28a   jsr MENULIBCOM.upd_vol
           0x00756e5a      1e84           move.b d4, (a7)
           0x00756e5c      1f04           move.b d4, -(a7)
           0x00756e5e      4eb900662f7e   jsr K95_CARDS.k9_field_change
           0x00756e64      544f           addq.w 0x2, a7
           0x00756e66      1e84           move.b d4, (a7)
           0x00756e68      1f05           move.b d5, -(a7)
           0x00756e6a      4eb900662f7e   jsr K95_CARDS.k9_field_change
           0x00756e70      544f           addq.w 0x2, a7
           0x00756e72      1e84           move.b d4, (a7)
           0x00756e74      1f3c0008       move.b 0x8, -(a7)
           0x00756e78      4eb900662f7e   jsr K95_CARDS.k9_field_change
           0x00756e7e      544f           addq.w 0x2, a7
           0x00756e80      1e84           move.b d4, (a7)
           0x00756e82      1f3c0002       move.b 0x2, -(a7)
           0x00756e86      4eb900662f7e   jsr K95_CARDS.k9_field_change
           0x00756e8c      544f           addq.w 0x2, a7
           0x00756e8e      1e84           move.b d4, (a7)
           0x00756e90      1f3c0005       move.b 0x5, -(a7)
           0x00756e94      4eb900662f7e   jsr K95_CARDS.k9_field_change
           0x00756e9a      544f           addq.w 0x2, a7
           0x00756e9c      1e84           move.b d4, (a7)
           0x00756e9e      1f3c0004       move.b 0x4, -(a7)
           0x00756ea2      4eb900662f7e   jsr K95_CARDS.k9_field_change
           0x00756ea8      584f           addq.w 0x4, a7
           0x00756eaa      48780000       pea.l 0x0
           0x00756eae      1f04           move.b d4, -(a7)
           0x00756eb0      4227           clr.b -(a7)
           0x00756eb2      4eb900662936   jsr K95_CARDS.k9_ch
           0x00756eb8      5c4f           addq.w 0x6, a7
           0x00756eba      1ebc0002       move.b 0x2, (a7)
           0x00756ebe      4eb90074e28a   jsr MENULIBCOM.upd_vol
           0x00756ec4      1e85           move.b d5, (a7)
           0x00756ec6      4eb90074e28a   jsr MENULIBCOM.upd_vol
           0x00756ecc      48780002       pea.l 0x2
           0x00756ed0      4eb900474af8   jsr CONFIG.cfg_option
           0x00756ed6      584f           addq.w 0x4, a7
           0x00756ed8      141f           move.b (a7)+, d2
           0x00756eda      4882           ext.w d2
           0x00756edc      4584           chk.w d4, d2
           0x00756ede      1c02           move.b d2, d6
       < 0x00756ee0      672e           beq.b 0x756f10
          0x00756ee2      7c00           moveq 0x0, d6
          0x00756ee4      554f           subq.w 0x2, a7
          0x00756ee6      486efff1       pea.l -0xf(a6)
          0x00756eea      4eb90047883e   jsr CONFIGCOM.get_ser_config
          0x00756ef0      584f           addq.w 0x4, a7
          0x00756ef2      1417           move.b (a7), d2
          0x00756ef4      b4390074d831   cmp.b 0x74d831, d2
      < 0x00756efa      660a           bne.b 0x756f06
         0x00756efc      142f0001       move.b 0x1(a7), d2
         0x00756f00      b4390074d832   cmp.b 0x74d832, d2
     > 0x00756f06      6704           beq.b 0x756f0c
         0x00756f08      544f           addq.w 0x2, a7
     < 0x00756f0a      6004           bra.b 0x756f10
     > 0x00756f0c      5206           addq.b 0x1, d6
         0x00756f0e      544f           addq.w 0x2, a7
      > 0x00756f10      4a06           tst.b d6
       < 0x00756f12      670e           beq.b 0x756f22
          0x00756f14      7c00           moveq 0x0, d6
          0x00756f16      142efff5       move.b -0xb(a6), d2
          0x00756f1a      0c02003f       cmpi.b 0x3f, d2
      < 0x00756f1e      6702           beq.b 0x756f22
         0x00756f20      5206           addq.b 0x1, d6
      > 0x00756f22      4a06           tst.b d6
       < 0x00756f24      660e           bne.b 0x756f34
          0x00756f26      3f3c00d2       move.w 0xd2, -(a7)
          0x00756f2a      4227           clr.b -(a7)
          0x00756f2c      4eb900483972   jsr MENUCOM.set_enable_box
          0x00756f32      584f           addq.w 0x4, a7
       > 0x00756f34      4a390086d27f   tst.b 0x86d27f
       < 0x00756f3a      6652           bne.b 0x756f8e
          0x00756f3c      7e02           moveq 0x2, d7
      > 0x00756f3e      4887           ext.w d7
         0x00756f40      3407           move.w d7, d2
         0x00756f42      5542           subq.w 0x2, d2
         0x00756f44      45bc002b       chk.w 0x2b, d2
         0x00756f48      554f           subq.w 0x2, a7
         0x00756f4a      4eb9004755c2   jsr CONFIG.cfg_gender
         0x00756f50      161f           move.b (a7)+, d3
         0x00756f52      b605           cmp.b d5, d3
     < 0x00756f54      6614           bne.b 0x756f6a
        0x00756f56      43f90074d3e3   lea.l 0x74d3e3, a1
        0x00756f5c      4a312000       tst.b (a1, d2.w)
    < 0x00756f60      6708           beq.b 0x756f6a
       0x00756f62      1f07           move.b d7, -(a7)
       0x00756f64      4ebaf702       jsr MENULIBCOM.hide_types_boxe(pc)
       0x00756f68      544f           addq.w 0x2, a7
    > 0x00756f6a      4a390086d280   tst.b 0x86d280
     < 0x00756f70      6614           bne.b 0x756f86
        0x00756f72      43f90074d3b7   lea.l 0x74d3b7, a1
        0x00756f78      4a312000       tst.b (a1, d2.w)
    < 0x00756f7c      6708           beq.b 0x756f86
       0x00756f7e      1f07           move.b d7, -(a7)
       0x00756f80      4ebaf6e6       jsr MENULIBCOM.hide_types_boxe(pc)
       0x00756f84      544f           addq.w 0x2, a7
    > 0x00756f86      5207           addq.b 0x1, d7
         0x00756f88      0c07002d       cmpi.b 0x2d, d7
      < 0x00756f8c      6fb0           ble.b 0x756f3e
       > 0x00756f8e      554f           subq.w 0x2, a7
           0x00756f90      48780002       pea.l 0x2
           0x00756f94      4eb900474af8   jsr CONFIG.cfg_option
           0x00756f9a      584f           addq.w 0x4, a7
           0x00756f9c      4a1f           tst.b (a7)+
       < 0x00756f9e      662e           bne.b 0x756fce
          0x00756fa0      554f           subq.w 0x2, a7
          0x00756fa2      48780003       pea.l 0x3
          0x00756fa6      4eb900474af8   jsr CONFIG.cfg_option
          0x00756fac      584f           addq.w 0x4, a7
          0x00756fae      4a1f           tst.b (a7)+
      < 0x00756fb0      661c           bne.b 0x756fce
         0x00756fb2      554f           subq.w 0x2, a7
         0x00756fb4      48780021       pea.l 0x21
         0x00756fb8      4eb900474af8   jsr CONFIG.cfg_option
         0x00756fbe      584f           addq.w 0x4, a7
         0x00756fc0      4a1f           tst.b (a7)+
     < 0x00756fc2      660a           bne.b 0x756fce
        0x00756fc4      1f3c000a       move.b 0xa, -(a7)
        0x00756fc8      4ebaf69e       jsr MENULIBCOM.hide_types_boxe(pc)
        0x00756fcc      544f           addq.w 0x2, a7
     > 0x00756fce      4a06           tst.b d6
       < 0x00756fd0      660a           bne.b 0x756fdc
          0x00756fd2      1f3c000a       move.b 0xa, -(a7)
          0x00756fd6      4ebaf690       jsr MENULIBCOM.hide_types_boxe(pc)
          0x00756fda      544f           addq.w 0x2, a7
       > 0x00756fdc      4a390086d27f   tst.b 0x86d27f
       < 0x00756fe2      673c           beq.b 0x757020
          0x00756fe4      7e00           moveq 0x0, d7
      > 0x00756fe6      4887           ext.w d7
         0x00756fe8      3407           move.w d7, d2
         0x00756fea      e342           asl.w 0x1, d2
         0x00756fec      43f01046       lea.l 0x46(a0, d1.w), a1
         0x00756ff0      43f12000       lea.l (a1, d2.w), a1
         0x00756ff4      3f290284       move.w 0x284(a1), -(a7)
         0x00756ff8      4eb900482304   jsr MENUCOM.hide_box
         0x00756ffe      544f           addq.w 0x2, a7
         0x00757000      5207           addq.b 0x1, d7
         0x00757002      be05           cmp.b d5, d7
      < 0x00757004      6fe0           ble.b 0x756fe6
          0x00757006      43f01046       lea.l 0x46(a0, d1.w), a1
          0x0075700a      3f29028c       move.w 0x28c(a1), -(a7)
          0x0075700e      4eb900482304   jsr MENUCOM.hide_box
          0x00757014      3eb01062       move.w 0x62(a0, d1.w), (a7)
          0x00757018      4eb900482304   jsr MENUCOM.hide_box
          0x0075701e      544f           addq.w 0x2, a7
       > 0x00757020      554f           subq.w 0x2, a7
           0x00757022      4eb9004755c2   jsr CONFIG.cfg_gender
           0x00757028      141f           move.b (a7)+, d2
           0x0075702a      b405           cmp.b d5, d2
       < 0x0075702c      661c           bne.b 0x75704a
          0x0075702e      554f           subq.w 0x2, a7
          0x00757030      48780010       pea.l 0x10
          0x00757034      4eb900474af8   jsr CONFIG.cfg_option
          0x0075703a      584f           addq.w 0x4, a7
          0x0075703c      4a1f           tst.b (a7)+
      < 0x0075703e      660a           bne.b 0x75704a
         0x00757040      1f3c000c       move.b 0xc, -(a7)
         0x00757044      4ebaf622       jsr MENULIBCOM.hide_types_boxe(pc)
         0x00757048      544f           addq.w 0x2, a7
      > 0x0075704a      554f           subq.w 0x2, a7
           0x0075704c      48780016       pea.l 0x16
           0x00757050      4eb900474af8   jsr CONFIG.cfg_option
           0x00757056      584f           addq.w 0x4, a7
           0x00757058      4a1f           tst.b (a7)+
       < 0x0075705a      6614           bne.b 0x757070
          0x0075705c      3f3c00bb       move.w 0xbb, -(a7)
          0x00757060      4eb900482304   jsr MENUCOM.hide_box
          0x00757066      1ebc000d       move.b 0xd, (a7)
          0x0075706a      4ebaf5fc       jsr MENULIBCOM.hide_types_boxe(pc)
          0x0075706e      544f           addq.w 0x2, a7
       > 0x00757070      554f           subq.w 0x2, a7
           0x00757072      4227           clr.b -(a7)
           0x00757074      4eb900474c44   jsr CONFIG.cfg_pb_options
           0x0075707a      544f           addq.w 0x2, a7
           0x0075707c      4a1f           tst.b (a7)+
       < 0x0075707e      6714           beq.b 0x757094
          0x00757080      554f           subq.w 0x2, a7
          0x00757082      1f3c0008       move.b 0x8, -(a7)
          0x00757086      4eb900474c44   jsr CONFIG.cfg_pb_options
          0x0075708c      544f           addq.w 0x2, a7
          0x0075708e      4a1f           tst.b (a7)+
      < 0x00757090      6642           bne.b 0x7570d4
     < 0x00757092      6036           bra.b 0x7570ca
     > 0x00757094      554f           subq.w 0x2, a7
         0x00757096      4227           clr.b -(a7)
         0x00757098      4eb900474c8e   jsr CONFIG.cfg_pbx_options
         0x0075709e      544f           addq.w 0x2, a7
         0x007570a0      4a1f           tst.b (a7)+
     < 0x007570a2      6714           beq.b 0x7570b8
        0x007570a4      554f           subq.w 0x2, a7
        0x007570a6      1f3c0008       move.b 0x8, -(a7)
        0x007570aa      4eb900474c8e   jsr CONFIG.cfg_pbx_options
        0x007570b0      544f           addq.w 0x2, a7
        0x007570b2      4a1f           tst.b (a7)+
    < 0x007570b4      661e           bne.b 0x7570d4
   < 0x007570b6      6012           bra.b 0x7570ca
   > 0x007570b8      554f           subq.w 0x2, a7
       0x007570ba      4878001b       pea.l 0x1b
       0x007570be      4eb900474af8   jsr CONFIG.cfg_option
       0x007570c4      584f           addq.w 0x4, a7
       0x007570c6      4a1f           tst.b (a7)+
   < 0x007570c8      660a           bne.b 0x7570d4
   > 0x007570ca      1f3c0012       move.b 0x12, -(a7)
        0x007570ce      4ebaf598       jsr MENULIBCOM.hide_types_boxe(pc)
        0x007570d2      544f           addq.w 0x2, a7
    > 0x007570d4      554f           subq.w 0x2, a7
           0x007570d6      48780012       pea.l 0x12
           0x007570da      4eb900474af8   jsr CONFIG.cfg_option
           0x007570e0      584f           addq.w 0x4, a7
           0x007570e2      4a1f           tst.b (a7)+
       < 0x007570e4      6638           bne.b 0x75711e
          0x007570e6      554f           subq.w 0x2, a7
          0x007570e8      48780016       pea.l 0x16
          0x007570ec      4eb900474af8   jsr CONFIG.cfg_option
          0x007570f2      584f           addq.w 0x4, a7
          0x007570f4      4a1f           tst.b (a7)+
      < 0x007570f6      6626           bne.b 0x75711e
         0x007570f8      3f301056       move.w 0x56(a0, d1.w), -(a7)
         0x007570fc      4eb900482304   jsr MENUCOM.hide_box
         0x00757102      3eb01058       move.w 0x58(a0, d1.w), (a7)
         0x00757106      4eb900482304   jsr MENUCOM.hide_box
         0x0075710c      544f           addq.w 0x2, a7
         0x0075710e      43f01046       lea.l 0x46(a0, d1.w), a1
         0x00757112      3f2905c2       move.w 0x5c2(a1), -(a7)
         0x00757116      4eb900482304   jsr MENUCOM.hide_box
         0x0075711c      544f           addq.w 0x2, a7
      > 0x0075711e      554f           subq.w 0x2, a7
           0x00757120      4eb900475a5a   jsr CONFIG.cfg_dougal
           0x00757126      4a1f           tst.b (a7)+
       < 0x00757128      6774           beq.b 0x75719e
          0x0075712a      1f3c0009       move.b 0x9, -(a7)
          0x0075712e      4ebaf538       jsr MENULIBCOM.hide_types_boxe(pc)
          0x00757132      1ebc000a       move.b 0xa, (a7)
          0x00757136      4ebaf530       jsr MENULIBCOM.hide_types_boxe(pc)
          0x0075713a      1ebc0008       move.b 0x8, (a7)
          0x0075713e      4ebaf528       jsr MENULIBCOM.hide_types_boxe(pc)
          0x00757142      1ebc0007       move.b 0x7, (a7)
          0x00757146      4ebaf520       jsr MENULIBCOM.hide_types_boxe(pc)
          0x0075714a      1ebc0013       move.b 0x13, (a7)
          0x0075714e      4ebaf518       jsr MENULIBCOM.hide_types_boxe(pc)
          0x00757152      1ebc0025       move.b 0x25, (a7)
          0x00757156      4ebaf510       jsr MENULIBCOM.hide_types_boxe(pc)
          0x0075715a      1ebc0026       move.b 0x26, (a7)
          0x0075715e      4ebaf508       jsr MENULIBCOM.hide_types_boxe(pc)
          0x00757162      1ebc0027       move.b 0x27, (a7)
          0x00757166      4ebaf500       jsr MENULIBCOM.hide_types_boxe(pc)
          0x0075716a      1ebc0028       move.b 0x28, (a7)
          0x0075716e      4ebaf4f8       jsr MENULIBCOM.hide_types_boxe(pc)
          0x00757172      1ebc0029       move.b 0x29, (a7)
          0x00757176      4ebaf4f0       jsr MENULIBCOM.hide_types_boxe(pc)
          0x0075717a      1ebc002a       move.b 0x2a, (a7)
          0x0075717e      4ebaf4e8       jsr MENULIBCOM.hide_types_boxe(pc)
          0x00757182      1ebc002b       move.b 0x2b, (a7)
          0x00757186      4ebaf4e0       jsr MENULIBCOM.hide_types_boxe(pc)
          0x0075718a      544f           addq.w 0x2, a7
          0x0075718c      4a390086d27f   tst.b 0x86d27f
      < 0x00757192      660000dc       bne.w 0x757270
         0x00757196      1f3c000e       move.b 0xe, -(a7)
     < 0x0075719a      600000ce       bra.w 0x75726a
     > 0x0075719e      554f           subq.w 0x2, a7
         0x007571a0      4eb9004755c2   jsr CONFIG.cfg_gender
         0x007571a6      141f           move.b (a7)+, d2
         0x007571a8      4882           ext.w d2
         0x007571aa      43f90074d834   lea.l 0x74d834, a1
         0x007571b0      3602           move.w d2, d3
         0x007571b2      e64b           lsr.w 0x3, d3
         0x007571b4      05313000       btst.l d2, (a1, d3.w)
     < 0x007571b8      6774           beq.b 0x75722e
        0x007571ba      1f3c000e       move.b 0xe, -(a7)
        0x007571be      4ebaf4a8       jsr MENULIBCOM.hide_types_boxe(pc)
        0x007571c2      1ebc0008       move.b 0x8, (a7)
        0x007571c6      4ebaf4a0       jsr MENULIBCOM.hide_types_boxe(pc)
        0x007571ca      1ebc0007       move.b 0x7, (a7)
        0x007571ce      4ebaf498       jsr MENULIBCOM.hide_types_boxe(pc)
        0x007571d2      1ebc0013       move.b 0x13, (a7)
        0x007571d6      4ebaf490       jsr MENULIBCOM.hide_types_boxe(pc)
        0x007571da      48780060       pea.l 0x60
        0x007571de      4eb900474af8   jsr CONFIG.cfg_option
        0x007571e4      584f           addq.w 0x4, a7
        0x007571e6      4a1f           tst.b (a7)+
    < 0x007571e8      660a           bne.b 0x7571f4
       0x007571ea      1f3c002b       move.b 0x2b, -(a7)
       0x007571ee      4ebaf478       jsr MENULIBCOM.hide_types_boxe(pc)
       0x007571f2      544f           addq.w 0x2, a7
    > 0x007571f4      14390086d27e   move.b 0x86d27e, d2
        0x007571fa      4882           ext.w d2
        0x007571fc      c5fc05d4       muls.w 0x5d4, d2
        0x00757200      43f90086d27a   lea.l 0x86d27a, a1
        0x00757206      45f12046       lea.l 0x46(a1, d2.w), a2
        0x0075720a      4a6a015e       tst.w 0x15e(a2)
    < 0x0075720e      670c           beq.b 0x75721c
       0x00757210      3f2a015e       move.w 0x15e(a2), -(a7)
       0x00757214      4eb900482304   jsr MENUCOM.hide_box
       0x0075721a      544f           addq.w 0x2, a7
    > 0x0075721c      4a6a0160       tst.w 0x160(a2)
    < 0x00757220      674e           beq.b 0x757270
       0x00757222      3f2a0160       move.w 0x160(a2), -(a7)
       0x00757226      4eb900482304   jsr MENUCOM.hide_box
   < 0x0075722c      6040           bra.b 0x75726e
   > 0x0075722e      1f3c000e       move.b 0xe, -(a7)
       0x00757232      4ebaf434       jsr MENULIBCOM.hide_types_boxe(pc)
       0x00757236      1ebc0025       move.b 0x25, (a7)
       0x0075723a      4ebaf42c       jsr MENULIBCOM.hide_types_boxe(pc)
       0x0075723e      1ebc0026       move.b 0x26, (a7)
       0x00757242      4ebaf424       jsr MENULIBCOM.hide_types_boxe(pc)
       0x00757246      1ebc0027       move.b 0x27, (a7)
       0x0075724a      4ebaf41c       jsr MENULIBCOM.hide_types_boxe(pc)
       0x0075724e      1ebc0028       move.b 0x28, (a7)
       0x00757252      4ebaf414       jsr MENULIBCOM.hide_types_boxe(pc)
       0x00757256      1ebc0029       move.b 0x29, (a7)
       0x0075725a      4ebaf40c       jsr MENULIBCOM.hide_types_boxe(pc)
       0x0075725e      1ebc002a       move.b 0x2a, (a7)
       0x00757262      4ebaf404       jsr MENULIBCOM.hide_types_boxe(pc)
       0x00757266      1ebc002b       move.b 0x2b, (a7)
   > 0x0075726a      4ebaf3fc       jsr MENULIBCOM.hide_types_boxe(pc)
   > 0x0075726e      544f           addq.w 0x2, a7
    > 0x00757270      554f           subq.w 0x2, a7
           0x00757272      4227           clr.b -(a7)
           0x00757274      4eb900474c44   jsr CONFIG.cfg_pb_options
           0x0075727a      544f           addq.w 0x2, a7
           0x0075727c      4a1f           tst.b (a7)+
       < 0x0075727e      6762           beq.b 0x7572e2
          0x00757280      554f           subq.w 0x2, a7
          0x00757282      1f3c0005       move.b 0x5, -(a7)
          0x00757286      4eb900474c44   jsr CONFIG.cfg_pb_options
          0x0075728c      544f           addq.w 0x2, a7
          0x0075728e      4a1f           tst.b (a7)+
      < 0x00757290      6612           bne.b 0x7572a4
         0x00757292      1f3c000c       move.b 0xc, -(a7)
         0x00757296      4ebaf3d0       jsr MENULIBCOM.hide_types_boxe(pc)
         0x0075729a      1ebc002d       move.b 0x2d, (a7)
         0x0075729e      4ebaf3c8       jsr MENULIBCOM.hide_types_boxe(pc)
         0x007572a2      544f           addq.w 0x2, a7
      > 0x007572a4      554f           subq.w 0x2, a7
          0x007572a6      1f3c0007       move.b 0x7, -(a7)
          0x007572aa      4eb900474c44   jsr CONFIG.cfg_pb_options
          0x007572b0      544f           addq.w 0x2, a7
          0x007572b2      4a1f           tst.b (a7)+
      < 0x007572b4      6612           bne.b 0x7572c8
         0x007572b6      1f3c0009       move.b 0x9, -(a7)
         0x007572ba      4ebaf3ac       jsr MENULIBCOM.hide_types_boxe(pc)
         0x007572be      1ebc000b       move.b 0xb, (a7)
         0x007572c2      4ebaf3a4       jsr MENULIBCOM.hide_types_boxe(pc)
         0x007572c6      544f           addq.w 0x2, a7
      > 0x007572c8      554f           subq.w 0x2, a7
          0x007572ca      1f05           move.b d5, -(a7)
          0x007572cc      4eb900474c44   jsr CONFIG.cfg_pb_options
          0x007572d2      544f           addq.w 0x2, a7
          0x007572d4      4a1f           tst.b (a7)+
      < 0x007572d6      66000098       bne.w 0x757370
     > 0x007572da      1f3c0013       move.b 0x13, -(a7)
    < 0x007572de      6000008a       bra.w 0x75736a
    > 0x007572e2      554f           subq.w 0x2, a7
        0x007572e4      4227           clr.b -(a7)
        0x007572e6      4eb900474c8e   jsr CONFIG.cfg_pbx_options
        0x007572ec      544f           addq.w 0x2, a7
        0x007572ee      4a1f           tst.b (a7)+
    < 0x007572f0      675a           beq.b 0x75734c
       0x007572f2      554f           subq.w 0x2, a7
       0x007572f4      1f3c0005       move.b 0x5, -(a7)
       0x007572f8      4eb900474c8e   jsr CONFIG.cfg_pbx_options
       0x007572fe      544f           addq.w 0x2, a7
       0x00757300      4a1f           tst.b (a7)+
   < 0x00757302      6612           bne.b 0x757316
      0x00757304      1f3c000c       move.b 0xc, -(a7)
      0x00757308      4ebaf35e       jsr MENULIBCOM.hide_types_boxe(pc)
      0x0075730c      1ebc002d       move.b 0x2d, (a7)
      0x00757310      4ebaf356       jsr MENULIBCOM.hide_types_boxe(pc)
      0x00757314      544f           addq.w 0x2, a7
   > 0x00757316      554f           subq.w 0x2, a7
       0x00757318      1f3c0007       move.b 0x7, -(a7)
       0x0075731c      4eb900474c8e   jsr CONFIG.cfg_pbx_options
       0x00757322      544f           addq.w 0x2, a7
       0x00757324      4a1f           tst.b (a7)+
   < 0x00757326      6612           bne.b 0x75733a
      0x00757328      1f3c0009       move.b 0x9, -(a7)
      0x0075732c      4ebaf33a       jsr MENULIBCOM.hide_types_boxe(pc)
      0x00757330      1ebc000b       move.b 0xb, (a7)
      0x00757334      4ebaf332       jsr MENULIBCOM.hide_types_boxe(pc)
      0x00757338      544f           addq.w 0x2, a7
   > 0x0075733a      554f           subq.w 0x2, a7
       0x0075733c      1f05           move.b d5, -(a7)
       0x0075733e      4eb900474c8e   jsr CONFIG.cfg_pbx_options
       0x00757344      544f           addq.w 0x2, a7
       0x00757346      4a1f           tst.b (a7)+
   < 0x00757348      6626           bne.b 0x757370
   < 0x0075734a      608e           bra.b 0x7572da
    > 0x0075734c      554f           subq.w 0x2, a7
        0x0075734e      48780001       pea.l 0x1
        0x00757352      4eb900474af8   jsr CONFIG.cfg_option
        0x00757358      584f           addq.w 0x4, a7
        0x0075735a      4a1f           tst.b (a7)+
    < 0x0075735c      6612           bne.b 0x757370
       0x0075735e      1f3c0009       move.b 0x9, -(a7)
       0x00757362      4ebaf304       jsr MENULIBCOM.hide_types_boxe(pc)
       0x00757366      1ebc000b       move.b 0xb, (a7)
   > 0x0075736a      4ebaf2fc       jsr MENULIBCOM.hide_types_boxe(pc)
        0x0075736e      544f           addq.w 0x2, a7
   > 0x00757370      554f           subq.w 0x2, a7
           0x00757372      48780021       pea.l 0x21
           0x00757376      4eb900474af8   jsr CONFIG.cfg_option
           0x0075737c      584f           addq.w 0x4, a7
           0x0075737e      4a1f           tst.b (a7)+
       < 0x00757380      6612           bne.b 0x757394
          0x00757382      1f3c0008       move.b 0x8, -(a7)
          0x00757386      4ebaf2e0       jsr MENULIBCOM.hide_types_boxe(pc)
          0x0075738a      1ebc0007       move.b 0x7, (a7)
          0x0075738e      4ebaf2d8       jsr MENULIBCOM.hide_types_boxe(pc)
          0x00757392      544f           addq.w 0x2, a7
       > 0x00757394      42390086d281   clr.b 0x86d281
           0x0075739a      4853           pea.l (a3)
           0x0075739c      487aaab2       pea.l MENULIBCOM.force_drive_upd(pc)
           0x007573a0      4eb900597e56   jsr K0_DISKMGR.k_on_change
           0x007573a6      504f           addq.w 0x8, a7
           0x007573a8      43f01046       lea.l 0x46(a0, d1.w), a1
           0x007573ac      422905d2       clr.b 0x5d2(a1)
           0x007573b0      4227           clr.b -(a7)
           0x007573b2      4ebaab3e       jsr MENULIBCOM.select_library(pc)
           0x007573b6      544f           addq.w 0x2, a7
           0x007573b8      4cdf1fff       movem.l (a7)+, d0-d7/a0-a4
           0x007573bc      4e5e           unlk a6
           0x007573be      4e75           rts
            ; CALL XREFS from MENUINITCOM.menu_def_boxes @ 0x48e922, 0x48e9be, 0x48ea7c
 622: MENULIBCOM.men_library_box ();
           0x007573c0      4e56ffac       link.w a6, 0xffac
           0x007573c4      bfd5           cmpa.l (a5), a7
       < 0x007573c6      6206           bhi.b 0x7573ce
          0x007573c8      44fc0002       move.w 0x2, ccr
          0x007573cc      4e76           trapv
       > 0x007573ce      defc0054       adda.w 0x54, a7
           0x007573d2      48e7e0f8       movem.l d0-d2/a0-a4, -(a7)
           0x007573d6      43f90074cf18   lea.l 0x74cf18, a1
           0x007573dc      45f90086d282   lea.l 0x86d282, a2
           0x007573e2      47f90086d286   lea.l 0x86d286, a3
           0x007573e8      7401           moveq 0x1, d2
           0x007573ea      594f           subq.w 0x4, a7
           0x007573ec      4eb90047b70e   jsr CNTLCOM.get_pen_info_pt
           0x007573f2      23df0086d27a   move.l (a7)+, 0x86d27a
           0x007573f8      42390086d2b2   clr.b 0x86d2b2
           0x007573fe      4eb90064c770   jsr K9_LIBRARY.k9_init
           0x00757404      594f           subq.w 0x4, a7
           0x00757406      1eb90074d839   move.b 0x74d839, (a7)
           0x0075740c      1f790074d83a.  move.b 0x74d83a, 0x1(a7)
           0x00757414      1f790074d83b.  move.b 0x74d83b, 0x2(a7)
           0x0075741c      48790086d2b4   pea.l 0x86d2b4
           0x00757422      3f3c0298       move.w 0x298, -(a7)
           0x00757426      3f02           move.w d2, -(a7)
           0x00757428      3f3c0028       move.w 0x28, -(a7)
           0x0075742c      3f02           move.w d2, -(a7)
           0x0075742e      1f3c0005       move.b 0x5, -(a7)
           0x00757432      4227           clr.b -(a7)
           0x00757434      4267           clr.w -(a7)
           0x00757436      4267           clr.w -(a7)
           0x00757438      2f11           move.l (a1), -(a7)
           0x0075743a      486f0018       pea.l 0x18(a7)
           0x0075743e      48780001       pea.l 0x1
           0x00757442      48780003       pea.l 0x3
           0x00757446      486d0010       pea.l 0x10(a5)
           0x0075744a      487ab0aa       pea.l MENULIBCOM.hit_lib_end(pc)
           0x0075744e      4eb900487aa6   jsr MENUCOM.new_box
           0x00757454      defc002e       adda.w 0x2e, a7
           0x00757458      4217           clr.b (a7)
           0x0075745a      284e           movea.l a6, a4
           0x0075745c      4ebaf390       jsr MENULIBCOM.init_boxes(pc)
           0x00757460      4eb900475a5a   jsr CONFIG.cfg_dougal
           0x00757466      4a1f           tst.b (a7)+
       < 0x00757468      6700011e       beq.w 0x757588
          0x0075746c      594f           subq.w 0x4, a7
          0x0075746e      4eb9004789c0   jsr CONFIGCOM.cfg_layers
          0x00757474      201f           move.l (a7)+, d0
          0x00757476      b082           cmp.l d2, d0
      < 0x00757478      6636           bne.b 0x7574b0
         0x0075747a      24b90074d83c   move.l 0x74d83c, (a2)
         0x00757480      36b90074d840   move.w 0x74d840, (a3)
         0x00757486      23f90074d842.  move.l 0x74d842, 0x86d294.l
         0x00757490      33f90074d846.  move.w 0x74d846, 0x86d298.l
         0x0075749a      23f90074d848.  move.l 0x74d848, 0x86d28e.l
         0x007574a4      33f90074d84c.  move.w 0x74d84c, 0x86d292.l
     < 0x007574ae      6034           bra.b 0x7574e4
     > 0x007574b0      24b90074d84e   move.l 0x74d84e, (a2)
         0x007574b6      36b90074d852   move.w 0x74d852, (a3)
         0x007574bc      23f90074d854.  move.l 0x74d854, 0x86d294.l
         0x007574c6      33f90074d858.  move.w 0x74d858, 0x86d298.l
         0x007574d0      23f90074d85a.  move.l 0x74d85a, 0x86d28e.l
         0x007574da      33f90074d85e.  move.w 0x74d85e, 0x86d292.l
     > 0x007574e4      23f90074d860.  move.l 0x74d860, 0x86d288.l
          0x007574ee      33f90074d864.  move.w 0x74d864, 0x86d28c.l
          0x007574f8      23f90074d866.  move.l 0x74d866, 0x86d29a.l
          0x00757502      33f90074d86a.  move.w 0x74d86a, 0x86d29e.l
          0x0075750c      23f90074d86c.  move.l 0x74d86c, 0x86d2a6.l
          0x00757516      33f90074d870.  move.w 0x74d870, 0x86d2aa.l
          0x00757520      23f90074d872.  move.l 0x74d872, 0x86d2ac.l
          0x0075752a      33f90074d876.  move.w 0x74d876, 0x86d2b0.l
          0x00757534      554f           subq.w 0x2, a7
          0x00757536      48780038       pea.l 0x38
          0x0075753a      4eb900474af8   jsr CONFIG.cfg_option
          0x00757540      584f           addq.w 0x4, a7
          0x00757542      4a1f           tst.b (a7)+
      < 0x00757544      6716           beq.b 0x75755c
         0x00757546      23f90074d878.  move.l 0x74d878, 0x86d2a0.l
         0x00757550      33f90074d87c.  move.w 0x74d87c, 0x86d2a4.l
     < 0x0075755a      6014           bra.b 0x757570
     > 0x0075755c      23f90074d87e.  move.l 0x74d87e, 0x86d2a0.l
         0x00757566      33f90074d882.  move.w 0x74d882, 0x86d2a4.l
     > 0x00757570      1f02           move.b d2, -(a7)
          0x00757572      284e           movea.l a6, a4
          0x00757574      4ebaf278       jsr MENULIBCOM.init_boxes(pc)
          0x00757578      1ebc0002       move.b 0x2, (a7)
          0x0075757c      284e           movea.l a6, a4
          0x0075757e      4ebaf26e       jsr MENULIBCOM.init_boxes(pc)
          0x00757582      544f           addq.w 0x2, a7
      < 0x00757584      6000008e       bra.w 0x757614
      > 0x00757588      554f           subq.w 0x2, a7
          0x0075758a      4eb9004755c2   jsr CONFIG.cfg_gender
          0x00757590      101f           move.b (a7)+, d0
          0x00757592      4880           ext.w d0
          0x00757594      41f90074d884   lea.l 0x74d884, a0
          0x0075759a      3200           move.w d0, d1
          0x0075759c      e649           lsr.w 0x3, d1
          0x0075759e      01301000       btst.l d0, (a0, d1.w)
      < 0x007575a2      6770           beq.b 0x757614
         0x007575a4      24b90074d888   move.l 0x74d888, (a2)
         0x007575aa      36b90074d88c   move.w 0x74d88c, (a3)
         0x007575b0      23d10086d288   move.l (a1), 0x86d288
         0x007575b6      33f90074cf1c.  move.w 0x74cf1c, 0x86d28c.l
         0x007575c0      23d10086d294   move.l (a1), 0x86d294
         0x007575c6      33f90074cf1c.  move.w 0x74cf1c, 0x86d298.l
         0x007575d0      23d10086d28e   move.l (a1), 0x86d28e
         0x007575d6      33f90074cf1c.  move.w 0x74cf1c, 0x86d292.l
         0x007575e0      23f90074d88e.  move.l 0x74d88e, 0x86d29a.l
         0x007575ea      33f90074d892.  move.w 0x74d892, 0x86d29e.l
         0x007575f4      23d10086d2a6   move.l (a1), 0x86d2a6
         0x007575fa      33f90074cf1c.  move.w 0x74cf1c, 0x86d2aa.l
         0x00757604      23d10086d2ac   move.l (a1), 0x86d2ac
         0x0075760a      33f90074cf1c.  move.w 0x74cf1c, 0x86d2b0.l
      > 0x00757614      4eb900486ae8   jsr MENUCOM.clear_tabs_menu
           0x0075761a      4eb9007a04a8   jsr PANEL_CURSOR.cursor_boxes_in
           0x00757620      4eb90079ae12   jsr PANEL_TRANSIT.panel_trns_init
           0x00757626      4cdf1f07       movem.l (a7)+, d0-d2/a0-a4
           0x0075762a      4e5e           unlk a6
